Certificate:
    Data:
        Version: 3 (0x2)
        Serial Number:
            aa:eb:32:a9:24:f1:37:98:f4:a1:bc:75
        Signature Algorithm: ecdsa-with-SHA256
        Issuer: CN = Lint CA, O = Lint, C = DE
        Validity
            Not Before: Feb 18 00:00:00 2025 GMT
            Not After : Feb 18 00:00:00 2028 GMT
        Subject: GN = givenName
        Subject Public Key Info:
            Public Key Algorithm: id-ecPublicKey
                Public-Key: (256 bit)
                pub:
                    04:b7:88:e6:7d:bc:66:05:a0:61:3b:df:39:99:e5:
                    56:90:6c:d3:67:88:0b:93:e8:f9:fa:e0:83:f8:61:
                    6f:23:84:21:90:e8:66:d1:23:f3:56:75:5d:1a:7e:
                    ab:d9:f4:df:54:c5:a1:b0:d0:07:e0:75:0e:1d:32:
                    73:c0:6d:72:a3
                ASN1 OID: prime256v1
                NIST CURVE: P-256
        X509v3 extensions:
            qcStatements: 
                0
0......F..
            X509v3 Certificate Policies: critical
                Policy: 0.4.0.194112.1.1
            X509v3 Key Usage: critical
                Key Encipherment
    Signature Algorithm: ecdsa-with-SHA256
    Signature Value:
        30:45:02:21:00:c2:12:5c:82:9c:0b:c9:a1:25:c6:3b:d4:ff:
        bb:10:8c:8c:08:a5:0b:ee:3b:f2:53:6f:9d:80:a3:91:82:b0:
        21:02:20:2a:80:1c:14:10:0b:83:fd:82:7f:dc:bf:54:96:5d:
        4b:6c:ac:cf:35:f5:6d:2d:1b:31:13:6d:30:85:d6:b1:28
-----BEGIN CERTIFICATE-----
MIIBgjCCASigAwIBAgINAKrrMqkk8TeY9KG8dTAKBggqhkjOPQQDAjAuMRAwDgYD
VQQDDAdMaW50IENBMQ0wCwYDVQQKDARMaW50MQswCQYDVQQGEwJERTAeFw0yNTAy
MTgwMDAwMDBaFw0yODAyMTgwMDAwMDBaMBQxEjAQBgNVBCoMCWdpdmVuTmFtZTBZ
MBMGByqGSM49AgEGCCqGSM49AwEHA0IABLeI5n28ZgWgYTvfOZnlVpBs02eIC5Po
+frgg/hhbyOEIZDoZtEj81Z1XRp+q9n031TFobDQB+B1Dh0yc8BtcqOjRTBDMBgG
CCsGAQUFBwEDBAwwCjAIBgYEAI5GAQEwFwYDVR0gAQH/BA0wCzAJBgcEAIvsQAEB
MA4GA1UdDwEB/wQEAwIFIDAKBggqhkjOPQQDAgNIADBFAiEAwhJcgpwLyaElxjvU
/7sQjIwIpQvuO/JTb52Ao5GCsCECICqAHBQQC4P9gn/cv1SWXUtsrM819W0tGzET
bTCF1rEo
-----END CERTIFICATE-----
