Certificate:
    Data:
        Version: 3 (0x2)
        Serial Number:
            19:bb:9c:2c:d5:64:f0:6e:d9:e6:e7:84
        Signature Algorithm: ecdsa-with-SHA256
        Issuer: CN = Lint CA, O = Lint, C = DE
        Validity
            Not Before: Feb 18 00:00:00 2025 GMT
            Not After : Feb 18 00:00:00 2028 GMT
        Subject: CN = commonName
        Subject Public Key Info:
            Public Key Algorithm: id-ecPublicKey
                Public-Key: (256 bit)
                pub:
                    04:dd:00:85:c6:35:b8:50:50:59:e3:56:d1:f4:88:
                    df:dd:17:b2:e5:63:1d:d1:f1:86:96:7a:24:17:65:
                    20:e6:d5:c1:68:88:9c:53:11:8d:fc:20:72:17:a9:
                    ed:d0:a8:4c:42:bd:3f:78:25:e4:3c:7d:84:74:3e:
                    47:4a:2b:a1:6d
                ASN1 OID: prime256v1
                NIST CURVE: P-256
        X509v3 extensions:
            qcStatements: 
                0
0......F..
            X509v3 Certificate Policies: critical
                Policy: 0.4.0.194112.1.4
            X509v3 Key Usage: critical
                Key Encipherment
    Signature Algorithm: ecdsa-with-SHA256
    Signature Value:
        30:45:02:21:00:8b:5d:0a:c6:74:52:96:69:de:12:ce:27:3a:
        e7:38:b7:c1:43:ca:51:a7:6f:7c:64:24:df:17:1d:2b:5e:4c:
        e4:02:20:31:64:19:26:c1:83:57:11:10:2d:d3:fd:79:fd:cd:
        b4:d6:26:d1:96:2d:2c:e1:23:4e:a0:eb:c3:39:fc:83:06
-----BEGIN CERTIFICATE-----
MIIBgjCCASigAwIBAgIMGbucLNVk8G7Z5ueEMAoGCCqGSM49BAMCMC4xEDAOBgNV
BAMMB0xpbnQgQ0ExDTALBgNVBAoMBExpbnQxCzAJBgNVBAYTAkRFMB4XDTI1MDIx
ODAwMDAwMFoXDTI4MDIxODAwMDAwMFowFTETMBEGA1UEAwwKY29tbW9uTmFtZTBZ
MBMGByqGSM49AgEGCCqGSM49AwEHA0IABN0AhcY1uFBQWeNW0fSI390XsuVjHdHx
hpZ6JBdlIObVwWiInFMRjfwgchep7dCoTEK9P3gl5Dx9hHQ+R0oroW2jRTBDMBgG
CCsGAQUFBwEDBAwwCjAIBgYEAI5GAQEwFwYDVR0gAQH/BA0wCzAJBgcEAIvsQAEE
MA4GA1UdDwEB/wQEAwIFIDAKBggqhkjOPQQDAgNIADBFAiEAi10KxnRSlmneEs4n
Ouc4t8FDylGnb3xkJN8XHSteTOQCIDFkGSbBg1cREC3T/Xn9zbTWJtGWLSzhI06g
68M5/IMG
-----END CERTIFICATE-----
