Certificate:
    Data:
        Version: 3 (0x2)
        Serial Number:
            37:56:76:ff:3e:0d:c4:89:45:3b:28:37
        Signature Algorithm: ecdsa-with-SHA256
        Issuer: CN = Lint CA, O = Lint, C = DE
        Validity
            Not Before: Feb 18 00:00:00 2025 GMT
            Not After : Feb 18 00:00:00 2028 GMT
        Subject: GN = givenName
        Subject Public Key Info:
            Public Key Algorithm: id-ecPublicKey
                Public-Key: (256 bit)
                pub:
                    04:cf:20:04:5f:0f:03:88:f1:68:0a:32:d9:27:a5:
                    18:54:10:b6:d1:86:bf:c3:43:8a:a6:50:4b:56:21:
                    68:71:fc:55:77:0b:e3:c9:d3:b1:8c:a1:e5:af:31:
                    2f:7f:51:bf:75:c6:aa:4c:34:4d:63:31:52:25:1a:
                    eb:fc:6f:a4:72
                ASN1 OID: prime256v1
                NIST CURVE: P-256
        X509v3 extensions:
            qcStatements: 
                0
0......F..
            X509v3 Certificate Policies: critical
                Policy: 0.4.0.194112.1.5
            X509v3 Key Usage: critical
                Digital Signature
    Signature Algorithm: ecdsa-with-SHA256
    Signature Value:
        30:45:02:21:00:ba:a7:78:07:98:4f:a8:e7:6a:7a:fd:3a:4c:
        cd:b5:17:77:19:d0:73:63:e3:8f:0a:f0:d1:8e:3f:3f:3b:69:
        30:02:20:24:5f:d6:04:54:b1:9f:58:86:0b:17:ee:de:d9:65:
        90:bd:9c:02:f8:a0:aa:9e:06:4b:30:04:dc:f4:d7:bc:29
-----BEGIN CERTIFICATE-----
MIIBgTCCASegAwIBAgIMN1Z2/z4NxIlFOyg3MAoGCCqGSM49BAMCMC4xEDAOBgNV
BAMMB0xpbnQgQ0ExDTALBgNVBAoMBExpbnQxCzAJBgNVBAYTAkRFMB4XDTI1MDIx
ODAwMDAwMFoXDTI4MDIxODAwMDAwMFowFDESMBAGA1UEKgwJZ2l2ZW5OYW1lMFkw
EwYHKoZIzj0CAQYIKoZIzj0DAQcDQgAEzyAEXw8DiPFoCjLZJ6UYVBC20Ya/w0OK
plBLViFocfxVdwvjydOxjKHlrzEvf1G/dcaqTDRNYzFSJRrr/G+kcqNFMEMwGAYI
KwYBBQUHAQMEDDAKMAgGBgQAjkYBATAXBgNVHSABAf8EDTALMAkGBwQAi+xAAQUw
DgYDVR0PAQH/BAQDAgeAMAoGCCqGSM49BAMCA0gAMEUCIQC6p3gHmE+o52p6/TpM
zbUXdxnQc2Pjjwrw0Y4/PztpMAIgJF/WBFSxn1iGCxfu3tllkL2cAvigqp4GSzAE
3PTXvCk=
-----END CERTIFICATE-----
