Certificate:
    Data:
        Version: 3 (0x2)
        Serial Number:
            cb:c5:70:4c:e9:57:05:98:a6:74:74:d7
        Signature Algorithm: ecdsa-with-SHA256
        Issuer: CN = Lint CA, O = Lint, C = DE
        Validity
            Not Before: Feb 18 00:00:00 2025 GMT
            Not After : Feb 18 00:00:00 2028 GMT
        Subject: GN = givenName
        Subject Public Key Info:
            Public Key Algorithm: id-ecPublicKey
                Public-Key: (256 bit)
                pub:
                    04:4e:0e:f0:7a:05:ba:7a:99:8a:8f:42:36:25:c5:
                    f6:9a:18:99:63:54:6e:f4:b2:39:8d:4f:b4:ad:f3:
                    e6:b7:6c:5d:a6:9c:6f:2a:68:66:65:98:2c:a8:a0:
                    da:c9:45:0d:23:af:8d:82:4f:9a:dc:df:53:79:13:
                    c9:b6:a8:6d:a2
                ASN1 OID: prime256v1
                NIST CURVE: P-256
        X509v3 extensions:
            qcStatements: 
                0
0......F..
            X509v3 Certificate Policies: critical
                Policy: 0.4.0.194112.1.0
            X509v3 Key Usage: critical
                Key Encipherment
    Signature Algorithm: ecdsa-with-SHA256
    Signature Value:
        30:45:02:20:62:2c:02:d4:e7:b9:e3:3c:15:30:2d:65:a8:37:
        15:30:90:56:96:1f:65:dc:d4:67:5f:fb:9b:a1:5a:b7:02:d4:
        02:21:00:e3:5b:e4:0d:f2:af:0b:23:bb:f3:31:66:30:00:32:
        28:c6:5d:45:be:8e:5f:86:e1:86:f8:f8:72:89:ae:d9:b0
-----BEGIN CERTIFICATE-----
MIIBgjCCASigAwIBAgINAMvFcEzpVwWYpnR01zAKBggqhkjOPQQDAjAuMRAwDgYD
VQQDDAdMaW50IENBMQ0wCwYDVQQKDARMaW50MQswCQYDVQQGEwJERTAeFw0yNTAy
MTgwMDAwMDBaFw0yODAyMTgwMDAwMDBaMBQxEjAQBgNVBCoMCWdpdmVuTmFtZTBZ
MBMGByqGSM49AgEGCCqGSM49AwEHA0IABE4O8HoFunqZio9CNiXF9poYmWNUbvSy
OY1PtK3z5rdsXaacbypoZmWYLKig2slFDSOvjYJPmtzfU3kTybaobaKjRTBDMBgG
CCsGAQUFBwEDBAwwCjAIBgYEAI5GAQEwFwYDVR0gAQH/BA0wCzAJBgcEAIvsQAEA
MA4GA1UdDwEB/wQEAwIFIDAKBggqhkjOPQQDAgNIADBFAiBiLALU57njPBUwLWWo
NxUwkFaWH2Xc1Gdf+5uhWrcC1AIhAONb5A3yrwsju/MxZjAAMijGXUW+jl+G4Yb4
+HKJrtmw
-----END CERTIFICATE-----
