Certificate:
    Data:
        Version: 3 (0x2)
        Serial Number:
            43:bf:a3:4b:8b:f8:a7:34:7a:54:36:0c
        Signature Algorithm: ecdsa-with-SHA256
        Issuer: CN = Lint CA, O = Lint, C = DE
        Validity
            Not Before: Feb 18 00:00:00 2025 GMT
            Not After : Feb 18 00:00:00 2028 GMT
        Subject: GN = givenName
        Subject Public Key Info:
            Public Key Algorithm: id-ecPublicKey
                Public-Key: (256 bit)
                pub:
                    04:6f:31:f3:80:c0:a2:cf:49:fa:7a:50:b8:38:e6:
                    28:00:0c:a9:ee:8e:4b:64:b5:f1:06:22:7b:66:18:
                    d1:84:1a:c6:ae:ed:d4:aa:80:7b:28:4b:69:df:c5:
                    ff:45:ea:f1:65:88:d8:1d:6b:a2:26:89:7f:1a:83:
                    39:45:cc:b2:ad
                ASN1 OID: prime256v1
                NIST CURVE: P-256
        X509v3 extensions:
            qcStatements: 
                0
0......F..
            X509v3 Certificate Policies: critical
                Policy: 0.4.0.194112.1.6
            X509v3 Key Usage: critical
                Data Encipherment
    Signature Algorithm: ecdsa-with-SHA256
    Signature Value:
        30:46:02:21:00:a2:6a:48:9a:9e:ec:42:05:a5:f0:4e:e9:ad:
        9f:ab:95:6c:f9:ba:d6:09:79:78:85:58:97:68:0a:af:f2:59:
        e8:02:21:00:f3:1a:b3:96:51:a3:bb:98:a1:76:fb:f2:b1:c0:
        27:f7:b9:4b:c7:58:1d:20:84:60:fc:90:50:a6:05:0f:57:8e
-----BEGIN CERTIFICATE-----
MIIBgjCCASegAwIBAgIMQ7+jS4v4pzR6VDYMMAoGCCqGSM49BAMCMC4xEDAOBgNV
BAMMB0xpbnQgQ0ExDTALBgNVBAoMBExpbnQxCzAJBgNVBAYTAkRFMB4XDTI1MDIx
ODAwMDAwMFoXDTI4MDIxODAwMDAwMFowFDESMBAGA1UEKgwJZ2l2ZW5OYW1lMFkw
EwYHKoZIzj0CAQYIKoZIzj0DAQcDQgAEbzHzgMCiz0n6elC4OOYoAAyp7o5LZLXx
BiJ7ZhjRhBrGru3UqoB7KEtp38X/RerxZYjYHWuiJol/GoM5RcyyraNFMEMwGAYI
KwYBBQUHAQMEDDAKMAgGBgQAjkYBATAXBgNVHSABAf8EDTALMAkGBwQAi+xAAQYw
DgYDVR0PAQH/BAQDAgQQMAoGCCqGSM49BAMCA0kAMEYCIQCiakianuxCBaXwTumt
n6uVbPm61gl5eIVYl2gKr/JZ6AIhAPMas5ZRo7uYoXb78rHAJ/e5S8dYHSCEYPyQ
UKYFD1eO
-----END CERTIFICATE-----
