Certificate:
    Data:
        Version: 3 (0x2)
        Serial Number:
            4d:be:63:cb:2d:aa:e0:51:a1:69:5a:1c
        Signature Algorithm: ecdsa-with-SHA256
        Issuer: CN = Lint CA, O = Lint, C = DE
        Validity
            Not Before: Feb 18 00:00:00 2025 GMT
            Not After : Feb 18 00:00:00 2028 GMT
        Subject: GN = givenName
        Subject Public Key Info:
            Public Key Algorithm: id-ecPublicKey
                Public-Key: (256 bit)
                pub:
                    04:51:99:aa:07:c0:60:f2:87:6b:b1:4d:dc:31:a7:
                    51:24:50:12:b5:07:c8:d0:3e:b4:45:00:4c:28:0e:
                    fd:dd:20:af:c3:25:58:f7:d9:2e:db:53:f9:0b:36:
                    4d:5a:a4:61:fa:59:6b:84:30:b7:77:30:92:6f:0e:
                    9f:11:b1:83:00
                ASN1 OID: prime256v1
                NIST CURVE: P-256
        X509v3 extensions:
            qcStatements: 
                0
0......F..
            X509v3 Certificate Policies: critical
                Policy: 0.4.0.194112.1.0
    Signature Algorithm: ecdsa-with-SHA256
    Signature Value:
        30:45:02:21:00:c9:71:55:13:43:8a:af:68:15:73:cc:07:f5:
        52:4f:12:89:db:df:1e:c7:e7:b7:ee:3c:91:61:7b:ad:89:d3:
        fe:02:20:0b:cf:6e:33:49:44:3d:b6:f3:db:07:32:57:6b:2c:
        e4:5f:2e:a9:91:13:20:bc:b3:f0:eb:98:9a:a0:c9:cf:d8
-----BEGIN CERTIFICATE-----
MIIBcTCCARegAwIBAgIMTb5jyy2q4FGhaVocMAoGCCqGSM49BAMCMC4xEDAOBgNV
BAMMB0xpbnQgQ0ExDTALBgNVBAoMBExpbnQxCzAJBgNVBAYTAkRFMB4XDTI1MDIx
ODAwMDAwMFoXDTI4MDIxODAwMDAwMFowFDESMBAGA1UEKgwJZ2l2ZW5OYW1lMFkw
EwYHKoZIzj0CAQYIKoZIzj0DAQcDQgAEUZmqB8Bg8odrsU3cMadRJFAStQfI0D60
RQBMKA793SCvwyVY99ku21P5CzZNWqRh+llrhDC3dzCSbw6fEbGDAKM1MDMwGAYI
KwYBBQUHAQMEDDAKMAgGBgQAjkYBATAXBgNVHSABAf8EDTALMAkGBwQAi+xAAQAw
CgYIKoZIzj0EAwIDSAAwRQIhAMlxVRNDiq9oFXPMB/VSTxKJ298ex+e37jyRYXut
idP+AiALz24zSUQ9tvPbBzJXayzkXy6pkRMgvLPw65iaoMnP2A==
-----END CERTIFICATE-----
