Certificate:
    Data:
        Version: 3 (0x2)
        Serial Number:
            0c:5a:22:a4:e3:46:0d:a3:4d:e9:ef:9b
        Signature Algorithm: ecdsa-with-SHA256
        Issuer: CN = Lint CA, O = Lint, C = DE
        Validity
            Not Before: Feb 18 00:00:00 2025 GMT
            Not After : Feb 18 00:00:00 2028 GMT
        Subject: GN = givenName
        Subject Public Key Info:
            Public Key Algorithm: id-ecPublicKey
                Public-Key: (256 bit)
                pub:
                    04:4d:cc:c6:cb:94:b3:d1:64:94:9d:2d:ad:08:72:
                    1f:68:94:c4:8e:5f:e4:40:ba:ec:99:07:bf:d0:e8:
                    f1:5a:8c:1c:46:52:40:a7:2f:8b:b2:77:fa:a7:af:
                    a1:5e:b3:00:92:26:19:6f:0f:ce:85:e3:68:63:6b:
                    0f:61:7f:a1:fa
                ASN1 OID: prime256v1
                NIST CURVE: P-256
        X509v3 extensions:
            qcStatements: 
                0
0......F..
            X509v3 Certificate Policies: critical
                Policy: 0.4.0.194112.1.6
            X509v3 Key Usage: critical
                Digital Signature, Non Repudiation
    Signature Algorithm: ecdsa-with-SHA256
    Signature Value:
        30:46:02:21:00:d1:b8:8a:36:fe:f6:2b:37:d9:2e:de:0b:68:
        f9:28:2c:a4:04:d0:e9:53:83:fc:e7:34:a9:94:4b:ed:b6:4d:
        67:02:21:00:b5:88:52:40:65:34:fe:c5:e6:de:69:42:c3:b5:
        ff:d8:22:d0:c2:a4:d6:3d:75:97:8c:32:24:8b:af:1f:b1:5a
-----BEGIN CERTIFICATE-----
MIIBgjCCASegAwIBAgIMDFoipONGDaNN6e+bMAoGCCqGSM49BAMCMC4xEDAOBgNV
BAMMB0xpbnQgQ0ExDTALBgNVBAoMBExpbnQxCzAJBgNVBAYTAkRFMB4XDTI1MDIx
ODAwMDAwMFoXDTI4MDIxODAwMDAwMFowFDESMBAGA1UEKgwJZ2l2ZW5OYW1lMFkw
EwYHKoZIzj0CAQYIKoZIzj0DAQcDQgAETczGy5Sz0WSUnS2tCHIfaJTEjl/kQLrs
mQe/0OjxWowcRlJApy+Lsnf6p6+hXrMAkiYZbw/OheNoY2sPYX+h+qNFMEMwGAYI
KwYBBQUHAQMEDDAKMAgGBgQAjkYBATAXBgNVHSABAf8EDTALMAkGBwQAi+xAAQYw
DgYDVR0PAQH/BAQDAgbAMAoGCCqGSM49BAMCA0kAMEYCIQDRuIo2/vYrN9ku3gto
+SgspATQ6VOD/Oc0qZRL7bZNZwIhALWIUkBlNP7F5t5pQsO1/9gi0MKk1j11l4wy
JIuvH7Fa
-----END CERTIFICATE-----
