Certificate:
    Data:
        Version: 3 (0x2)
        Serial Number:
            f8:94:af:20:6e:24:7b:ef:04:a6:02:fb:65:b7:33:b7
        Signature Algorithm: sha256WithRSAEncryption
        Issuer: CN=EV Code Signing CA, OU=CA, O=Example Co, C=US
        Validity
            Not Before: May 26 03:42:16 2026 GMT
            Not After : May 26 03:42:16 2027 GMT
        Subject: CN=Example Co, O=Example Co, L=Mountain View, ST=California, C=US, DC=com + DC=example, jurisdictionL=Mountain View, jurisdictionST=California, jurisdictionC=US, serialNumber=12345678, businessCategory=Private Organization
        Subject Public Key Info:
            Public Key Algorithm: rsaEncryption
                Public-Key: (3072 bit)
                Modulus:
                    00:d4:5a:9f:a3:ff:48:7a:05:55:f2:27:9a:42:a1:
                    f9:b0:b3:53:61:02:2e:9f:60:c5:70:19:e8:af:c9:
                    c2:24:ec:b9:b2:ce:fc:c2:50:5f:e7:76:52:8f:36:
                    53:4a:ea:2f:10:4a:25:39:05:d4:d2:e5:45:80:89:
                    ac:d6:fd:ac:a2:5c:f0:5d:38:57:d4:da:27:35:7b:
                    cc:75:e1:28:b8:2f:4b:9d:9b:f5:32:67:7e:96:2b:
                    0d:89:62:45:ae:62:01:6a:64:7f:26:9b:53:b6:41:
                    9e:5b:35:79:fc:ea:f5:5b:39:b6:c9:33:25:b3:62:
                    50:e3:41:46:5d:38:05:4e:d8:0a:6d:34:7e:4a:78:
                    35:47:d4:c3:1c:e3:f2:67:68:f2:43:22:27:52:c3:
                    b7:87:f3:ef:34:c9:55:3d:bb:a3:a5:51:c3:36:a6:
                    53:02:c3:63:19:e1:c7:a5:fe:19:b7:0d:11:01:61:
                    82:37:37:bb:ca:f8:b8:8e:39:33:4a:b5:90:f6:14:
                    b6:ad:f8:60:60:54:ae:63:7b:fc:13:8f:5a:29:bd:
                    72:0b:b1:0c:2f:35:31:e1:5d:bb:7e:0f:5f:b5:cd:
                    e7:e8:18:a1:89:81:50:86:d2:21:fd:72:a6:f3:c0:
                    19:02:88:70:c2:b5:24:93:31:66:05:f2:aa:4a:0b:
                    41:9e:d0:05:4b:c7:97:0e:10:27:87:8c:c6:82:3b:
                    62:6a:e5:03:0d:28:16:65:20:d5:c9:0a:3a:43:f9:
                    15:52:b3:67:74:5a:5a:be:64:7d:78:f1:77:8c:b3:
                    92:8f:14:62:cf:a2:12:c9:cc:df:67:92:31:4f:dd:
                    ba:da:fa:2a:d3:7a:b1:21:4b:cd:65:07:8c:85:9f:
                    63:c0:15:42:4f:22:d6:24:e0:c0:a5:c8:5f:a3:ed:
                    63:8a:20:fa:6d:2c:82:02:6b:55:c2:62:39:37:e2:
                    dd:2b:3b:7e:7b:03:55:46:6e:e1:e8:a0:69:9d:d7:
                    fe:dd:f0:fe:a4:13:1f:a4:9d:4f
                Exponent: 65537 (0x10001)
        X509v3 extensions:
            X509v3 Key Usage: critical
                Digital Signature
            X509v3 Extended Key Usage: 
                Code Signing
            X509v3 Basic Constraints: critical
                CA:FALSE
            X509v3 Subject Key Identifier: 
                B7:42:61:6E:06:5A:F1:6B:C2:B3:01:39:25:43:8B:06:84:86:97:83
            X509v3 Authority Key Identifier: 
                06:1D:F0:BC:5A:C7:DB:1F:A5:79:06:E5:8E:99:2A:6A:1C:19:E3:64
            Authority Information Access: 
                OCSP - URI:http://ocsp.example.com
                CA Issuers - URI:http://example.com/ca1.crt
            X509v3 Certificate Policies: 
                Policy: 2.23.140.1.3
            X509v3 CRL Distribution Points: 
                Full Name:
                  URI:http://crl1.example.com/ca1.crl

                Full Name:
                  URI:http://crl2.example.com/ca1.crl

    Signature Algorithm: sha256WithRSAEncryption
    Signature Value:
        5b:94:2f:e9:da:87:c3:86:f4:12:48:25:73:f9:e4:ac:5c:db:
        4f:4f:20:34:7f:fa:2a:ab:d4:4b:d4:ec:11:6d:6f:32:c5:91:
        29:d3:0b:40:35:9f:5b:51:56:79:f0:04:40:30:77:57:cd:a0:
        17:a9:65:3c:64:41:9b:f0:5c:a5:a5:1d:7a:91:f2:9d:87:c7:
        35:6b:06:b9:35:a5:65:ae:c6:ad:c8:8d:84:51:1c:5b:e2:c3:
        54:a3:d8:9b:23:c7:33:0a:21:c9:6e:9a:bf:0f:3a:c1:d5:b3:
        51:a4:40:91:0f:78:a9:18:a1:a8:16:c5:51:e2:ce:00:c0:ff:
        fa:7c:d3:75:65:1a:5f:f7:34:1f:1c:f5:f4:e9:2a:87:85:6f:
        02:64:43:c8:52:c8:07:c9:8b:8e:36:9c:8d:0a:3d:40:68:25:
        c9:b0:ad:c5:a6:6f:45:a6:a4:73:b9:38:06:74:33:d1:19:8e:
        8b:e2:84:51:d2:56:d2:42:3d:b4:dd:56:78:98:2b:05:63:2b:
        b2:3e:ea:24:16:f3:30:1f:d3:7f:ef:b2:53:f6:2d:85:e5:00:
        61:cb:19:33:c6:b4:6e:2d:c1:24:9c:38:59:79:70:21:ea:a0:
        5e:31:28:57:f7:df:f6:c2:30:a9:d9:fe:56:78:87:45:4e:2e:
        24:72:ec:ca:0f:f6:55:a6:4f:31:44:a4:21:89:ee:b0:33:27:
        a4:8b:d1:5c:ec:f0:70:62:76:2f:cb:62:1e:23:8b:72:ab:7f:
        e8:e2:84:5c:99:17:cb:ff:d8:a2:1f:af:b5:1e:f3:09:aa:8e:
        83:7c:0e:9d:56:20:3e:9b:b8:a6:24:8e:fc:9e:96:d8:cc:0d:
        31:0d:9b:ff:44:95:a0:17:30:f0:93:a6:6d:32:d0:37:a2:72:
        2d:e0:70:c0:1d:d3:a7:16:94:40:4e:a9:a8:95:5e:06:4c:19:
        16:19:88:dc:67:2e:1b:54:75:c9:47:0f:dc:1c:76:22:00:b2:
        1b:40:6c:60:c4:0f
-----BEGIN CERTIFICATE-----
MIIGMDCCBJigAwIBAgIRAPiUryBuJHvvBKYC+2W3M7cwDQYJKoZIhvcNAQELBQAw
TDEbMBkGA1UEAxMSRVYgQ29kZSBTaWduaW5nIENBMQswCQYDVQQLEwJDQTETMBEG
A1UEChMKRXhhbXBsZSBDbzELMAkGA1UEBhMCVVMwHhcNMjYwNTI2MDM0MjE2WhcN
MjcwNTI2MDM0MjE2WjCCARQxEzARBgNVBAMTCkV4YW1wbGUgQ28xEzARBgNVBAoT
CkV4YW1wbGUgQ28xFjAUBgNVBAcTDU1vdW50YWluIFZpZXcxEzARBgNVBAgTCkNh
bGlmb3JuaWExCzAJBgNVBAYTAlVTMSowEQYKCZImiZPyLGQBGRMDY29tMBUGCgmS
JomT8ixkARkTB2V4YW1wbGUxHjAcBgsrBgEEAYI3PAIBARMNTW91bnRhaW4gVmll
dzEbMBkGCysGAQQBgjc8AgECEwpDYWxpZm9ybmlhMRMwEQYLKwYBBAGCNzwCAQMT
AlVTMREwDwYDVQQFEwgxMjM0NTY3ODEdMBsGA1UEDxMUUHJpdmF0ZSBPcmdhbml6
YXRpb24wggGiMA0GCSqGSIb3DQEBAQUAA4IBjwAwggGKAoIBgQDUWp+j/0h6BVXy
J5pCofmws1NhAi6fYMVwGeivycIk7LmyzvzCUF/ndlKPNlNK6i8QSiU5BdTS5UWA
iazW/ayiXPBdOFfU2ic1e8x14Si4L0udm/UyZ36WKw2JYkWuYgFqZH8mm1O2QZ5b
NXn86vVbObbJMyWzYlDjQUZdOAVO2AptNH5KeDVH1MMc4/JnaPJDIidSw7eH8+80
yVU9u6OlUcM2plMCw2MZ4cel/hm3DREBYYI3N7vK+LiOOTNKtZD2FLat+GBgVK5j
e/wTj1opvXILsQwvNTHhXbt+D1+1zefoGKGJgVCG0iH9cqbzwBkCiHDCtSSTMWYF
8qpKC0Ge0AVLx5cOECeHjMaCO2Jq5QMNKBZlINXJCjpD+RVSs2d0Wlq+ZH148XeM
s5KPFGLPohLJzN9nkjFP3bra+irTerEhS81lB4yFn2PAFUJPItYk4MClyF+j7WOK
IPptLIICa1XCYjk34t0rO357A1VGbuHooGmd1/7d8P6kEx+knU8CAwEAAaOCAUEw
ggE9MA4GA1UdDwEB/wQEAwIHgDATBgNVHSUEDDAKBggrBgEFBQcDAzAMBgNVHRMB
Af8EAjAAMB0GA1UdDgQWBBS3QmFuBlrxa8KzATklQ4sGhIaXgzAfBgNVHSMEGDAW
gBQGHfC8WsfbH6V5BuWOmSpqHBnjZDBbBggrBgEFBQcBAQRPME0wIwYIKwYBBQUH
MAGGF2h0dHA6Ly9vY3NwLmV4YW1wbGUuY29tMCYGCCsGAQUFBzAChhpodHRwOi8v
ZXhhbXBsZS5jb20vY2ExLmNydDASBgNVHSAECzAJMAcGBWeBDAEDMFcGA1UdHwRQ
ME4wJaAjoCGGH2h0dHA6Ly9jcmwxLmV4YW1wbGUuY29tL2NhMS5jcmwwJaAjoCGG
H2h0dHA6Ly9jcmwyLmV4YW1wbGUuY29tL2NhMS5jcmwwDQYJKoZIhvcNAQELBQAD
ggGBAFuUL+nah8OG9BJIJXP55Kxc209PIDR/+iqr1EvU7BFtbzLFkSnTC0A1n1tR
VnnwBEAwd1fNoBepZTxkQZvwXKWlHXqR8p2HxzVrBrk1pWWuxq3IjYRRHFviw1Sj
2JsjxzMKIclumr8POsHVs1GkQJEPeKkYoagWxVHizgDA//p803VlGl/3NB8c9fTp
KoeFbwJkQ8hSyAfJi442nI0KPUBoJcmwrcWmb0WmpHO5OAZ0M9EZjovihFHSVtJC
PbTdVniYKwVjK7I+6iQW8zAf03/vslP2LYXlAGHLGTPGtG4twSScOFl5cCHqoF4x
KFf33/bCMKnZ/lZ4h0VOLiRy7MoP9lWmTzFEpCGJ7rAzJ6SL0Vzs8HBidi/LYh4j
i3Krf+jihFyZF8v/2KIfr7Ue8wmqjoN8Dp1WID6buKYkjvyeltjMDTENm/9ElaAX
MPCTpm0y0Deici3gcMAd06cWlEBOqaiVXgZMGRYZiNxnLhtUdclHD9wcdiIAshtA
bGDEDw==
-----END CERTIFICATE-----
