Certificate:
    Data:
        Version: 3 (0x2)
        Serial Number:
            bb:d6:e4:30:e2:71:97:7a:53:6c:e9:8e:05:e9:32:c0
        Signature Algorithm: sha256WithRSAEncryption
        Issuer: CN=OV Code Signing CA, OU=CA, O=Example Co, C=US
        Validity
            Not Before: May 26 03:32:49 2026 GMT
            Not After : May 26 03:32:49 2027 GMT
        Subject: CN=Example Co, O=Example Co, L=Mountain View, ST=California, C=US, DC=example.com, jurisdictionC=US, businessCategory=Private Organization
        Subject Public Key Info:
            Public Key Algorithm: rsaEncryption
                Public-Key: (3072 bit)
                Modulus:
                    00:aa:d1:62:39:0d:00:8c:dc:83:3b:04:86:5e:a9:
                    16:65:72:8d:28:5b:fd:36:b9:26:cb:2d:e2:ff:8d:
                    9e:bf:c1:5c:ce:7f:82:20:93:be:a4:77:fb:65:0f:
                    04:a4:51:f7:63:f0:8b:43:07:49:d8:56:12:c5:a5:
                    e2:fa:92:4e:16:82:91:db:51:d1:83:e2:11:62:b2:
                    a6:80:6e:1d:0a:f7:7b:6c:45:8d:e7:37:fa:5f:9d:
                    ef:ca:15:79:32:28:38:11:32:35:a6:42:6d:d6:66:
                    89:cb:de:1f:3b:48:7d:22:e2:b2:1d:40:3a:67:df:
                    2c:69:43:a5:17:c2:70:a1:94:df:cd:af:1b:88:5c:
                    56:04:c1:ca:c1:57:8a:33:20:e3:da:34:95:c9:55:
                    bd:5f:d0:56:90:b9:ac:e1:6c:f4:e3:37:88:89:b8:
                    79:b6:bf:f4:8d:a6:62:b2:d5:66:c0:3a:b3:29:63:
                    b7:b5:22:8c:82:7f:ea:8c:e3:36:9e:44:f0:bd:d6:
                    52:b9:3c:74:8d:af:74:d6:ce:f5:28:d9:a7:22:9b:
                    4a:3a:b9:3f:69:b9:a6:1e:b5:b5:40:7c:1d:2d:35:
                    1f:65:c3:a2:99:82:c4:b8:40:a3:ac:3c:df:8b:2a:
                    8d:d4:62:ea:91:43:fe:48:14:c5:9b:0a:3d:b3:4b:
                    81:51:2e:43:3f:9a:69:60:2a:aa:50:22:39:55:27:
                    2a:85:c5:1a:46:fb:3f:03:ed:9f:00:6e:90:0f:65:
                    b6:04:33:29:0a:21:bd:01:bb:72:23:f8:1e:fd:1b:
                    ff:b5:8d:13:1f:e2:73:4b:37:d4:24:ee:6e:8a:ab:
                    87:9f:07:de:9d:29:58:e2:ed:c8:b9:db:5a:b8:b3:
                    38:59:f1:ef:b2:bd:39:e5:64:a7:09:80:30:f1:86:
                    8d:6f:89:01:cf:a5:ee:b6:4c:e1:0f:96:28:1b:b6:
                    db:32:8b:88:67:9b:14:a9:8b:57:e1:1d:ec:c3:66:
                    89:0c:17:ce:22:e7:78:f0:83:e7
                Exponent: 65537 (0x10001)
        X509v3 extensions:
            X509v3 Key Usage: critical
                Digital Signature
            X509v3 Extended Key Usage: 
                Code Signing
            X509v3 Basic Constraints: critical
                CA:FALSE
            X509v3 Subject Key Identifier: 
                13:E0:E3:F2:1D:CA:9E:3B:2C:96:25:10:1B:52:6E:1B:7D:37:75:7E
            X509v3 Authority Key Identifier: 
                21:3E:97:3B:17:8C:2F:6C:30:47:9F:1A:CE:C9:AC:21:9B:BA:C8:1C
            Authority Information Access: 
                OCSP - URI:http://ocsp.example.com
                CA Issuers - URI:http://example.com/ca1.crt
            X509v3 Certificate Policies: 
                Policy: 2.23.140.1.4.1
            X509v3 CRL Distribution Points: 
                Full Name:
                  URI:http://crl1.example.com/ca1.crl

                Full Name:
                  URI:http://crl2.example.com/ca1.crl

            CT Precertificate SCTs: 
                Signed Certificate Timestamp:
                    Version   : v1 (0x0)
                    Log ID    : C4:69:28:BC:87:DE:23:B9:A8:BD:23:5A:A1:FE:67:CC:
                                B1:54:2C:83:89:AD:3F:02:BF:4A:B5:CF:F5:06:E9:8F
                    Timestamp : Jan 15 06:56:07.890 1970 GMT
                    Extensions: none
                    Signature : ecdsa-with-SHA256
                                73:69:67:6E:61:74:75:72:65:31
                Signed Certificate Timestamp:
                    Version   : v1 (0x0)
                    Log ID    : 73:AA:A5:07:1D:9F:86:15:50:D5:14:69:CB:D8:9E:0A:
                                6E:53:71:48:6F:D9:4C:96:75:28:1D:1C:EF:BD:51:17
                    Timestamp : Jan 15 06:56:07.891 1970 GMT
                    Extensions: none
                    Signature : ecdsa-with-SHA256
                                73:69:67:6E:61:74:75:72:65:32
    Signature Algorithm: sha256WithRSAEncryption
    Signature Value:
        b4:38:7b:7a:b8:f3:79:7d:0a:ff:f4:33:58:1c:47:a4:eb:5d:
        dd:95:79:39:57:a2:8b:5e:7c:4f:ed:71:e8:de:fe:8b:f3:61:
        ec:98:15:1e:18:45:d8:3c:63:7e:8f:38:90:49:5d:7b:5a:5c:
        1d:9b:a0:db:7f:b4:4b:2b:eb:99:9b:f6:78:2e:a4:c0:36:ea:
        53:80:09:a1:6b:bb:5a:f7:94:7f:d9:5f:6e:7b:84:e2:3e:da:
        45:99:d1:df:1e:d1:da:b3:c0:1f:dd:3c:bd:d4:11:de:6a:2a:
        74:35:75:c6:b0:a0:3a:07:2d:d4:1c:92:e2:31:16:2a:bb:7c:
        1a:8b:fb:e1:ac:79:fe:78:77:77:ea:f3:94:98:1e:42:06:05:
        7a:2c:8e:90:26:03:ca:d7:f0:9b:b5:bf:01:a8:49:db:19:c5:
        e4:53:07:4e:d1:be:2b:90:b9:9a:a1:e6:f0:4e:50:29:d3:6d:
        2b:57:1c:41:07:2f:e2:a7:b9:97:41:56:e4:26:4d:07:f6:e3:
        2c:cb:ee:c9:d2:f2:53:77:b4:41:a8:b6:94:cb:1d:a5:48:23:
        eb:49:49:5b:62:b6:8a:9f:d6:d7:e2:a6:59:1a:1e:93:77:0b:
        fc:f0:78:b7:46:24:a4:8b:99:88:04:96:6c:c1:05:8e:d6:43:
        1d:51:4f:cf:56:83:ba:7e:57:24:3b:bf:81:c5:b2:43:c5:ff:
        9d:04:5f:23:c2:d8:b0:40:b9:19:7c:82:c7:33:ac:ac:dc:95:
        12:16:95:43:77:2f:1e:4f:de:a5:09:b3:ac:e0:3c:d9:11:9a:
        2f:e6:4a:97:b1:f0:23:79:03:ae:73:00:7e:f8:3f:bd:05:6e:
        ab:aa:3d:fb:33:5e:14:b4:7a:3e:da:04:b0:44:1b:9f:aa:5f:
        a3:82:05:42:56:27:f0:f4:07:8e:20:89:87:5e:d9:cf:a8:73:
        a8:48:f4:75:9c:13:dd:12:c6:ef:10:7e:ab:04:b6:19:7c:07:
        75:8c:a5:4c:e6:03
-----BEGIN CERTIFICATE-----
MIIGXDCCBMSgAwIBAgIRALvW5DDicZd6U2zpjgXpMsAwDQYJKoZIhvcNAQELBQAw
TDEbMBkGA1UEAxMST1YgQ29kZSBTaWduaW5nIENBMQswCQYDVQQLEwJDQTETMBEG
A1UEChMKRXhhbXBsZSBDbzELMAkGA1UEBhMCVVMwHhcNMjYwNTI2MDMzMjQ5WhcN
MjcwNTI2MDMzMjQ5WjCBtTETMBEGA1UEAxMKRXhhbXBsZSBDbzETMBEGA1UEChMK
RXhhbXBsZSBDbzEWMBQGA1UEBxMNTW91bnRhaW4gVmlldzETMBEGA1UECBMKQ2Fs
aWZvcm5pYTELMAkGA1UEBhMCVVMxGzAZBgoJkiaJk/IsZAEZEwtleGFtcGxlLmNv
bTETMBEGCysGAQQBgjc8AgEDEwJVUzEdMBsGA1UEDxMUUHJpdmF0ZSBPcmdhbml6
YXRpb24wggGiMA0GCSqGSIb3DQEBAQUAA4IBjwAwggGKAoIBgQCq0WI5DQCM3IM7
BIZeqRZlco0oW/02uSbLLeL/jZ6/wVzOf4Igk76kd/tlDwSkUfdj8ItDB0nYVhLF
peL6kk4WgpHbUdGD4hFisqaAbh0K93tsRY3nN/pfne/KFXkyKDgRMjWmQm3WZonL
3h87SH0i4rIdQDpn3yxpQ6UXwnChlN/NrxuIXFYEwcrBV4ozIOPaNJXJVb1f0FaQ
uazhbPTjN4iJuHm2v/SNpmKy1WbAOrMpY7e1IoyCf+qM4zaeRPC91lK5PHSNr3TW
zvUo2acim0o6uT9puaYetbVAfB0tNR9lw6KZgsS4QKOsPN+LKo3UYuqRQ/5IFMWb
Cj2zS4FRLkM/mmlgKqpQIjlVJyqFxRpG+z8D7Z8AbpAPZbYEMykKIb0Bu3Ij+B79
G/+1jRMf4nNLN9Qk7m6Kq4efB96dKVji7ci521q4szhZ8e+yvTnlZKcJgDDxho1v
iQHPpe62TOEPligbttsyi4hnmxSpi1fhHezDZokMF84i53jwg+cCAwEAAaOCAc0w
ggHJMA4GA1UdDwEB/wQEAwIHgDATBgNVHSUEDDAKBggrBgEFBQcDAzAMBgNVHRMB
Af8EAjAAMB0GA1UdDgQWBBQT4OPyHcqeOyyWJRAbUm4bfTd1fjAfBgNVHSMEGDAW
gBQhPpc7F4wvbDBHnxrOyawhm7rIHDBbBggrBgEFBQcBAQRPME0wIwYIKwYBBQUH
MAGGF2h0dHA6Ly9vY3NwLmV4YW1wbGUuY29tMCYGCCsGAQUFBzAChhpodHRwOi8v
ZXhhbXBsZS5jb20vY2ExLmNydDATBgNVHSAEDDAKMAgGBmeBDAEEATBXBgNVHR8E
UDBOMCWgI6Ahhh9odHRwOi8vY3JsMS5leGFtcGxlLmNvbS9jYTEuY3JsMCWgI6Ah
hh9odHRwOi8vY3JsMi5leGFtcGxlLmNvbS9jYTEuY3JsMIGIBgorBgEEAdZ5AgQC
BHoEeAB2ADkAxGkovIfeI7movSNaof5nzLFULIOJrT8Cv0q1z/UG6Y8AAAAASZYC
0gAABAMACnNpZ25hdHVyZTEAOQBzqqUHHZ+GFVDVFGnL2J4KblNxSG/ZTJZ1KB0c
771RFwAAAABJlgLTAAAEAwAKc2lnbmF0dXJlMjANBgkqhkiG9w0BAQsFAAOCAYEA
tDh7erjzeX0K//QzWBxHpOtd3ZV5OVeii158T+1x6N7+i/Nh7JgVHhhF2Dxjfo84
kElde1pcHZug23+0SyvrmZv2eC6kwDbqU4AJoWu7WveUf9lfbnuE4j7aRZnR3x7R
2rPAH908vdQR3moqdDV1xrCgOgct1ByS4jEWKrt8Gov74ax5/nh3d+rzlJgeQgYF
eiyOkCYDytfwm7W/AahJ2xnF5FMHTtG+K5C5mqHm8E5QKdNtK1ccQQcv4qe5l0FW
5CZNB/bjLMvuydLyU3e0Qai2lMsdpUgj60lJW2K2ip/W1+KmWRoek3cL/PB4t0Yk
pIuZiASWbMEFjtZDHVFPz1aDun5XJDu/gcWyQ8X/nQRfI8LYsEC5GXyCxzOsrNyV
EhaVQ3cvHk/epQmzrOA82RGaL+ZKl7HwI3kDrnMAfvg/vQVuq6o9+zNeFLR6PtoE
sEQbn6pfo4IFQlYn8PQHjiCJh17Zz6hzqEj0dZwT3RLG7xB+qwS2GXwHdYylTOYD
-----END CERTIFICATE-----
