Certificate:
    Data:
        Version: 3 (0x2)
        Serial Number: 4775 (0x12a7)
        Signature Algorithm: sha256WithRSAEncryption
        Issuer: C=DE, ST=Bayern, L=N\xC3\x83\xC2\xBCrnberg, O=Siemens AG, OU=Trustcenter, CN=OliverCA/emailAddress=oliver.stiller@siemens.com
        Validity
            Not Before: Nov  2 11:22:44 2020 GMT
            Not After : Nov  2 11:22:44 2021 GMT
        Subject: O=test11, CN=test11
        Subject Public Key Info:
            Public Key Algorithm: rsaEncryption
                RSA Public-Key: (2048 bit)
                Modulus:
                    00:d8:b2:41:72:31:f9:9b:ad:00:35:94:76:0f:25:
                    13:3c:27:e2:19:e5:38:0e:34:21:d1:df:88:dc:7c:
                    75:57:e2:01:88:a8:5a:53:b2:d0:ca:f7:9b:8a:3f:
                    89:0f:07:a5:88:98:59:a5:57:21:0e:4c:e5:9c:dd:
                    3f:68:91:a5:37:5b:a7:a4:36:4d:8f:d4:94:87:78:
                    68:d5:9b:97:9b:cf:af:55:b2:13:a9:9a:2f:2f:92:
                    d2:af:db:fe:59:69:b8:6e:d2:18:8b:67:20:a8:29:
                    67:fc:fe:b0:b5:33:25:c2:95:f5:d0:21:58:b1:d8:
                    81:68:24:f8:d3:48:a9:5d:04:61:1e:31:4c:32:29:
                    2e:dd:37:3a:10:37:b7:2e:88:d1:df:15:91:67:5e:
                    d3:14:07:8e:44:5b:cd:1b:43:cc:51:8a:7a:76:d6:
                    b4:96:28:b9:ea:55:1f:ad:71:9f:1e:6e:27:da:67:
                    5e:16:ec:c2:a6:87:d0:27:0d:bf:27:ab:00:16:e4:
                    1c:81:d5:c0:6c:e2:8a:09:47:34:6e:db:c0:f8:2c:
                    c5:0d:0d:e9:66:8a:b7:c8:ed:3b:d1:25:67:8c:5f:
                    3f:ee:8c:b4:d9:bb:65:52:e3:4e:32:e5:57:fb:f0:
                    4f:e7:e2:b1:e5:c0:30:1c:26:61:3b:a9:46:eb:b2:
                    11:1d
                Exponent: 65537 (0x10001)
        X509v3 extensions:
            X509v3 Extended Key Usage: 
                Any Extended Key Usage, OCSP Signing
            X509v3 Key Usage: 
                Digital Signature, Non Repudiation, Key Encipherment
            OCSP No Check: 

    Signature Algorithm: sha256WithRSAEncryption
         34:2f:6c:88:2a:6d:6c:f0:a9:3b:24:b1:ac:ae:e8:55:58:43:
         c4:05:79:3e:1e:82:3d:55:07:7b:93:11:ca:e5:45:3a:fd:91:
         64:9b:56:da:7d:e3:44:c4:7d:8b:55:5f:ca:6e:c7:cf:aa:30:
         b3:cf:61:d5:51:b1:9f:41:d1:cc:65:44:d2:85:12:25:be:45:
         49:03:e6:5a:f0:91:60:7c:9e:2d:de:3e:ae:b4:82:0c:88:32:
         a7:50:93:ca:d4:6f:1d:e9:c1:48:3e:13:a5:33:d3:64:5f:5e:
         da:c5:0c:83:7e:84:6f:d8:2d:51:36:f9:e7:9a:22:52:e4:85:
         9c:d4:3a:bf:b3:ed:ee:05:c1:3a:9e:42:87:98:7a:fa:4e:dd:
         48:34:dd:59:59:d3:54:a6:31:43:88:e9:11:af:bd:8f:5e:a9:
         b4:26:13:1e:4a:f7:21:9c:21:d2:6f:47:08:a1:d7:9f:dc:43:
         ba:fe:5e:16:a7:06:5c:93:10:bc:b6:e9:96:e2:e2:86:0f:ec:
         9d:54:f2:43:73:d8:64:cb:da:48:0d:7a:5c:4e:0d:5d:de:e6:
         3b:60:37:e9:ab:fd:be:f0:06:00:c3:80:41:80:79:aa:fa:cc:
         dc:2b:dc:43:40:33:c5:9b:fc:55:02:df:6a:46:1f:52:c0:3d:
         04:50:0c:9c:77:b4:1c:55:5e:fc:66:5a:3f:dd:f3:2d:fe:e5:
         5b:e0:8d:2a:5c:73:78:49:69:59:35:59:14:a9:c6:ef:9e:48:
         4f:2a:98:95:60:51:6e:c6:5d:6c:74:38:3c:52:51:a4:0b:b5:
         33:ef:d2:11:c5:6c:a7:1d:8f:38:8c:a0:5d:b8:14:ce:11:52:
         b3:d2:61:de:d7:5b:c9:bf:29:eb:dc:c7:78:cd:9f:cc:84:f3:
         cb:87:a9:7c:88:77:8c:5a:df:3a:b7:9e:3f:33:bc:3b:30:52:
         70:d7:87:86:25:82:0f:79:38:74:5b:a5:2e:ce:37:dd:49:9a:
         c3:d7:f2:0a:2c:7b:72:1e:50:a4:88:ef:de:b0:07:37:75:db:
         d7:ad:64:47:b1:25:aa:d1:f5:53:17:2b:34:58:df:59:d4:a1:
         18:27:5b:f1:85:e5:8a:ef:10:07:9b:e8:38:8f:0f:07:a1:23:
         76:4b:02:77:f6:ce:ae:49:b2:a4:e6:dd:02:28:69:cf:88:e9:
         88:39:28:78:23:01:28:b2:1a:32:3d:94:2c:5f:52:b9:c6:fb:
         fe:df:a3:85:79:6b:85:73:55:35:85:0a:3e:00:c3:e8:49:7e:
         2d:d0:3e:d0:2b:81:c5:dc:10:ee:82:7f:04:3b:70:56:8a:09:
         66:cb:86:4d:cc:c8:c0:46
-----BEGIN CERTIFICATE-----
MIIEdzCCAl+gAwIBAgICEqcwDQYJKoZIhvcNAQELBQAwgZ0xCzAJBgNVBAYTAkRF
MQ8wDQYDVQQIDAZCYXllcm4xFDASBgNVBAcMC07Dg8K8cm5iZXJnMRMwEQYDVQQK
DApTaWVtZW5zIEFHMRQwEgYDVQQLDAtUcnVzdGNlbnRlcjERMA8GA1UEAwwIT2xp
dmVyQ0ExKTAnBgkqhkiG9w0BCQEWGm9saXZlci5zdGlsbGVyQHNpZW1lbnMuY29t
MB4XDTIwMTEwMjExMjI0NFoXDTIxMTEwMjExMjI0NFowIjEPMA0GA1UECgwGdGVz
dDExMQ8wDQYDVQQDDAZ0ZXN0MTEwggEiMA0GCSqGSIb3DQEBAQUAA4IBDwAwggEK
AoIBAQDYskFyMfmbrQA1lHYPJRM8J+IZ5TgONCHR34jcfHVX4gGIqFpTstDK95uK
P4kPB6WImFmlVyEOTOWc3T9okaU3W6ekNk2P1JSHeGjVm5ebz69VshOpmi8vktKv
2/5Zabhu0hiLZyCoKWf8/rC1MyXClfXQIVix2IFoJPjTSKldBGEeMUwyKS7dNzoQ
N7cuiNHfFZFnXtMUB45EW80bQ8xRinp21rSWKLnqVR+tcZ8ebifaZ14W7MKmh9An
Db8nqwAW5ByB1cBs4ooJRzRu28D4LMUNDelmirfI7TvRJWeMXz/ujLTZu2VS404y
5Vf78E/n4rHlwDAcJmE7qUbrshEdAgMBAAGjOzA5MBkGA1UdJQQSMBAGBFUdJQAG
CCsGAQUFBwMJMAsGA1UdDwQEAwIF4DAPBgkrBgEFBQcwAQUEAgUAMA0GCSqGSIb3
DQEBCwUAA4ICAQA0L2yIKm1s8Kk7JLGsruhVWEPEBXk+HoI9VQd7kxHK5UU6/ZFk
m1bafeNExH2LVV/KbsfPqjCzz2HVUbGfQdHMZUTShRIlvkVJA+Za8JFgfJ4t3j6u
tIIMiDKnUJPK1G8d6cFIPhOlM9NkX17axQyDfoRv2C1RNvnnmiJS5IWc1Dq/s+3u
BcE6nkKHmHr6Tt1INN1ZWdNUpjFDiOkRr72PXqm0JhMeSvchnCHSb0cIodef3EO6
/l4WpwZckxC8tumW4uKGD+ydVPJDc9hky9pIDXpcTg1d3uY7YDfpq/2+8AYAw4BB
gHmq+szcK9xDQDPFm/xVAt9qRh9SwD0EUAycd7QcVV78Zlo/3fMt/uVb4I0qXHN4
SWlZNVkUqcbvnkhPKpiVYFFuxl1sdDg8UlGkC7Uz79IRxWynHY84jKBduBTOEVKz
0mHe11vJvynr3Md4zZ/MhPPLh6l8iHeMWt86t54/M7w7MFJw14eGJYIPeTh0W6Uu
zjfdSZrD1/IKLHtyHlCkiO/esAc3ddvXrWRHsSWq0fVTFys0WN9Z1KEYJ1vxheWK
7xAHm+g4jw8HoSN2SwJ39s6uSbKk5t0CKGnPiOmIOSh4IwEoshoyPZQsX1K5xvv+
36OFeWuFc1U1hQo+AMPoSX4t0D7QK4HF3BDugn8EO3BWiglmy4ZNzMjARg==
-----END CERTIFICATE-----
