Certificate:
    Data:
        Version: 3 (0x2)
        Serial Number: 4782 (0x12ae)
        Signature Algorithm: sha256WithRSAEncryption
        Issuer: C=DE, ST=Bayern, L=N\xC3\x83\xC2\xBCrnberg, O=Siemens AG, OU=Trustcenter, CN=OliverCA/emailAddress=oliver.stiller@siemens.com
        Validity
            Not Before: Nov  2 11:47:01 2020 GMT
            Not After : Nov  2 11:47:01 2021 GMT
        Subject: O=test14, CN=test14
        Subject Public Key Info:
            Public Key Algorithm: rsaEncryption
                RSA Public-Key: (2048 bit)
                Modulus:
                    00:cc:14:be:e9:1c:03:57:45:db:9c:9c:61:2b:21:
                    f2:4e:df:4d:4d:c5:48:8f:fa:b5:f3:6b:b5:a1:1d:
                    0a:0a:34:de:2a:92:d4:14:34:3a:20:1d:f2:63:6a:
                    06:37:16:86:ec:97:f0:9f:2f:d7:07:fd:2d:fa:70:
                    92:3f:f9:90:26:64:8b:3e:e3:de:72:38:87:10:17:
                    bb:b8:af:03:e0:b7:a1:e9:06:fd:89:4d:2f:01:84:
                    3b:ec:d4:55:2e:30:07:e4:10:a3:2d:ba:67:f6:63:
                    bd:09:61:8d:56:89:c0:4b:8c:c9:80:7f:01:15:64:
                    8f:b3:36:4d:ca:d4:31:ec:4b:fc:2c:fa:8c:92:82:
                    01:4d:8c:47:f3:1e:3c:c7:75:1a:23:f6:c6:bf:d7:
                    8f:6e:3d:3f:62:a7:a6:a8:b7:46:9d:bb:4f:ff:b6:
                    47:79:bb:bc:04:90:ef:f0:44:2f:13:88:05:3c:35:
                    09:e7:04:e1:2d:0d:55:d7:ae:d6:c7:5b:e7:ca:f5:
                    08:1b:8d:1f:32:f5:c7:70:05:7c:72:cb:7d:2f:8a:
                    a7:ef:ce:6e:7a:f1:20:6e:e8:ea:0d:b3:f7:4f:1c:
                    5f:00:93:0f:48:19:56:0e:45:e1:d7:e3:7b:79:fb:
                    a7:89:f0:57:ea:f8:17:aa:de:12:3c:9a:4b:d9:7f:
                    65:c7
                Exponent: 65537 (0x10001)
        X509v3 extensions:
            X509v3 Extended Key Usage: 
                Any Extended Key Usage, TLS Web Client Authentication
            X509v3 Key Usage: 
                Data Encipherment
            OCSP No Check: 

    Signature Algorithm: sha256WithRSAEncryption
         a7:89:a6:0a:6a:64:bc:63:bf:67:f9:e8:c7:d3:ef:5b:f8:73:
         c6:0b:94:d8:ec:0f:05:a5:ad:17:e0:6a:7d:0d:67:9d:a4:ec:
         98:60:2a:fc:89:75:ea:18:9e:36:f2:0b:38:f0:82:11:c4:8b:
         da:1a:fc:b0:ae:f8:10:0e:ea:99:6f:40:e5:5d:a0:16:37:f8:
         71:64:f8:4c:7c:b7:33:34:77:e0:6f:7f:58:26:f0:4b:fa:16:
         d4:2d:15:0f:c6:59:5a:15:7b:18:ea:55:86:6f:84:0f:ab:bc:
         35:40:7e:76:2f:1d:2d:55:87:14:d5:52:9f:d9:75:b5:28:d5:
         5b:c7:76:f0:be:be:a3:d4:1c:38:5b:b6:f8:7d:0b:20:32:34:
         33:ed:96:08:4b:2d:87:f8:78:b1:e0:29:f5:fc:71:bd:50:22:
         49:39:22:b9:9c:53:e4:0b:28:4f:4c:88:7c:a3:99:42:0c:7f:
         62:2e:af:ad:00:3d:d8:98:0a:49:9a:9d:bd:60:71:ff:26:bd:
         42:6a:38:59:39:dd:4d:b5:35:7a:ab:a9:3f:58:96:e9:1b:c0:
         39:ab:fb:bf:ff:5b:18:73:9e:77:19:8c:99:9d:a8:95:df:ae:
         f4:06:12:db:94:ad:14:8c:c2:52:94:5c:c9:ba:f5:36:b3:1b:
         45:fa:39:98:c6:86:77:4a:2a:95:86:c7:76:a3:6f:5b:63:88:
         cc:87:02:71:3c:0c:2f:f1:48:57:2a:6a:db:71:02:bc:b7:0f:
         ca:89:d5:c1:df:33:18:bc:d8:80:85:94:57:75:1b:d7:3c:8d:
         d8:b5:28:9d:50:35:43:9c:b6:1b:5f:88:76:2e:e2:5c:c8:a5:
         ac:9a:1d:a8:dc:8f:35:ce:ce:cf:c3:eb:62:e6:f8:30:29:e9:
         19:ce:62:77:da:66:7a:50:81:e1:22:b0:91:2e:61:7f:ea:20:
         5e:57:62:37:6f:ad:33:54:a4:98:48:08:65:f8:5e:fc:32:31:
         be:3c:0b:e2:11:e4:31:7e:32:31:a5:47:fe:b6:08:11:28:a6:
         97:1d:1d:0f:fe:bf:6c:6f:de:0a:e4:12:bb:5f:00:30:ad:f7:
         f8:17:33:96:b1:62:b4:50:f7:f8:41:36:5a:b3:51:59:de:33:
         f2:1d:df:c4:da:93:c2:37:19:20:35:f3:4f:48:c5:9f:06:13:
         96:91:64:5f:1e:a1:c8:51:8d:96:0c:9d:81:b2:ed:4b:95:96:
         dd:7d:95:1a:8a:ae:3f:da:ec:e6:b5:dd:07:85:3a:fa:22:97:
         d8:90:61:08:3f:79:d3:91:70:a2:94:fc:0e:8e:c8:66:28:e9:
         9b:53:c6:9b:e8:df:5f:3a
-----BEGIN CERTIFICATE-----
MIIEdzCCAl+gAwIBAgICEq4wDQYJKoZIhvcNAQELBQAwgZ0xCzAJBgNVBAYTAkRF
MQ8wDQYDVQQIDAZCYXllcm4xFDASBgNVBAcMC07Dg8K8cm5iZXJnMRMwEQYDVQQK
DApTaWVtZW5zIEFHMRQwEgYDVQQLDAtUcnVzdGNlbnRlcjERMA8GA1UEAwwIT2xp
dmVyQ0ExKTAnBgkqhkiG9w0BCQEWGm9saXZlci5zdGlsbGVyQHNpZW1lbnMuY29t
MB4XDTIwMTEwMjExNDcwMVoXDTIxMTEwMjExNDcwMVowIjEPMA0GA1UECgwGdGVz
dDE0MQ8wDQYDVQQDDAZ0ZXN0MTQwggEiMA0GCSqGSIb3DQEBAQUAA4IBDwAwggEK
AoIBAQDMFL7pHANXRducnGErIfJO301NxUiP+rXza7WhHQoKNN4qktQUNDogHfJj
agY3Fobsl/CfL9cH/S36cJI/+ZAmZIs+495yOIcQF7u4rwPgt6HpBv2JTS8BhDvs
1FUuMAfkEKMtumf2Y70JYY1WicBLjMmAfwEVZI+zNk3K1DHsS/ws+oySggFNjEfz
HjzHdRoj9sa/149uPT9ip6aot0adu0//tkd5u7wEkO/wRC8TiAU8NQnnBOEtDVXX
rtbHW+fK9QgbjR8y9cdwBXxyy30viqfvzm568SBu6OoNs/dPHF8Akw9IGVYOReHX
43t5+6eJ8Ffq+Beq3hI8mkvZf2XHAgMBAAGjOzA5MBkGA1UdJQQSMBAGBFUdJQAG
CCsGAQUFBwMCMAsGA1UdDwQEAwIEEDAPBgkrBgEFBQcwAQUEAgUAMA0GCSqGSIb3
DQEBCwUAA4ICAQCniaYKamS8Y79n+ejH0+9b+HPGC5TY7A8Fpa0X4Gp9DWedpOyY
YCr8iXXqGJ428gs48IIRxIvaGvywrvgQDuqZb0DlXaAWN/hxZPhMfLczNHfgb39Y
JvBL+hbULRUPxllaFXsY6lWGb4QPq7w1QH52Lx0tVYcU1VKf2XW1KNVbx3bwvr6j
1Bw4W7b4fQsgMjQz7ZYISy2H+Hix4Cn1/HG9UCJJOSK5nFPkCyhPTIh8o5lCDH9i
Lq+tAD3YmApJmp29YHH/Jr1CajhZOd1NtTV6q6k/WJbpG8A5q/u//1sYc553GYyZ
naiV3670BhLblK0UjMJSlFzJuvU2sxtF+jmYxoZ3SiqVhsd2o29bY4jMhwJxPAwv
8UhXKmrbcQK8tw/KidXB3zMYvNiAhZRXdRvXPI3YtSidUDVDnLYbX4h2LuJcyKWs
mh2o3I81zs7Pw+ti5vgwKekZzmJ32mZ6UIHhIrCRLmF/6iBeV2I3b60zVKSYSAhl
+F78MjG+PAviEeQxfjIxpUf+tggRKKaXHR0P/r9sb94K5BK7XwAwrff4FzOWsWK0
UPf4QTZas1FZ3jPyHd/E2pPCNxkgNfNPSMWfBhOWkWRfHqHIUY2WDJ2Bsu1LlZbd
fZUaiq4/2uzmtd0HhTr6IpfYkGEIP3nTkXCilPwOjshmKOmbU8ab6N9fOg==
-----END CERTIFICATE-----
