Certificate:
    Data:
        Version: 3 (0x2)
        Serial Number: 4789 (0x12b5)
        Signature Algorithm: sha256WithRSAEncryption
        Issuer: C=DE, ST=Bayern, L=N\xC3\x83\xC2\xBCrnberg, O=Siemens AG, OU=Trustcenter, CN=OliverCA/emailAddress=oliver.stiller@siemens.com
        Validity
            Not Before: Nov  3 14:40:37 2020 GMT
            Not After : Nov  3 14:40:37 2021 GMT
        Subject: O=test20, CN=test20
        Subject Public Key Info:
            Public Key Algorithm: rsaEncryption
                RSA Public-Key: (2048 bit)
                Modulus:
                    00:b9:34:6d:e8:25:7d:cc:7e:88:28:65:02:73:d4:
                    bb:aa:d4:ac:70:11:23:d5:ed:7f:bf:70:5d:bb:8b:
                    e3:70:b6:dd:52:49:65:be:9a:ac:9e:df:37:6f:a6:
                    61:e7:cb:51:c1:ee:cd:94:2b:73:51:be:d6:44:e6:
                    c9:60:a4:e5:b3:fe:25:8b:f8:c9:7a:4e:77:cd:66:
                    a3:f1:34:a0:ed:ff:59:8f:d0:f8:cd:25:0f:24:a0:
                    43:78:7c:36:c1:3d:65:3b:b5:f8:63:47:b0:89:90:
                    77:90:1d:6a:44:79:96:b9:b5:e1:1a:6c:ea:4f:40:
                    20:e7:8f:5a:07:4d:42:4b:0f:8d:d8:e8:f1:4d:fa:
                    72:c1:66:f4:67:aa:84:46:15:1e:0e:cc:0a:db:41:
                    0c:2a:e2:61:5e:f7:c7:7e:bf:f3:4e:ab:41:03:d3:
                    78:7c:aa:55:bc:5b:93:9f:79:86:39:88:eb:8d:23:
                    c6:98:f2:5d:1c:56:42:07:c0:81:8c:2b:f4:b5:a4:
                    05:a2:5d:63:dc:21:f8:2f:9d:8f:0e:a1:c4:42:30:
                    ab:19:81:be:37:4a:c9:99:ef:c8:db:45:95:e5:eb:
                    59:ca:4c:96:bd:30:48:64:2e:ca:77:06:e3:70:9a:
                    ca:b0:f3:27:5d:13:2c:16:b0:0b:91:8e:9d:6f:33:
                    db:67
                Exponent: 65537 (0x10001)
        X509v3 extensions:
            X509v3 Extended Key Usage: 
                Any Extended Key Usage, TLS Web Server Authentication, TLS Web Client Authentication, Code Signing, E-mail Protection, Time Stamping, OCSP Signing
            X509v3 Key Usage: 
                Digital Signature
            OCSP No Check: 

    Signature Algorithm: sha256WithRSAEncryption
         16:63:9d:21:76:0a:77:5e:23:c4:f3:d8:d8:e2:e0:e8:94:3d:
         79:fe:be:a2:4a:e1:97:b3:3a:a3:22:a8:ba:3f:e2:f2:76:83:
         a5:6b:34:bd:54:79:ad:fb:17:74:78:91:45:85:b1:9f:8a:e5:
         02:3d:03:22:e0:17:0a:07:5c:2c:f9:c4:ad:31:f1:da:6c:5c:
         4a:3f:5c:81:98:21:9d:1f:33:fb:2f:6b:58:86:07:0c:ba:d5:
         d8:c5:8f:41:88:1c:22:5f:c1:02:50:5e:0b:94:47:8b:4d:9b:
         41:7e:0b:f8:05:84:10:c1:f6:c9:f8:bb:02:3a:91:9e:3c:dd:
         4f:f5:dd:ca:67:2c:db:fa:f1:13:a8:47:e1:25:5e:63:b6:5c:
         48:91:cd:8d:e5:9e:62:b6:05:dd:d1:82:fd:56:3d:5e:6e:d6:
         6c:3f:ea:1a:dd:7f:31:9c:84:88:92:44:60:01:1c:94:f9:b2:
         a7:9e:3a:43:68:61:66:f9:20:11:7c:15:66:42:9d:5d:29:45:
         c4:16:53:9e:aa:e8:65:e0:68:51:a7:a0:7e:99:17:d6:b9:24:
         8d:53:2d:7b:ec:e4:e6:80:f2:46:fd:ad:e4:88:96:15:f9:65:
         77:7d:e5:6c:04:cd:c8:39:f6:01:8c:b8:4a:61:da:f5:68:50:
         d2:16:13:00:b1:0c:88:e8:26:02:66:03:62:19:e7:fe:d8:ae:
         46:cd:59:47:2c:74:b8:d6:7d:58:8c:79:43:b9:c2:9a:fc:b7:
         8d:f4:1a:08:4a:d6:cc:82:fe:45:eb:1f:00:1c:da:4b:ca:84:
         07:96:cb:a3:3a:9d:d5:b3:cb:0a:41:ec:59:14:91:a8:4e:7c:
         e8:5d:d6:72:dc:a4:8a:50:e5:3f:34:92:53:61:06:93:c3:b5:
         1a:73:a5:d7:e5:2b:5d:8c:9e:f4:03:b1:93:03:2b:1e:5e:f7:
         d2:5c:04:26:73:58:a9:06:51:59:c4:a3:3e:56:a9:e5:aa:bc:
         10:10:67:b0:b0:ea:ad:41:33:94:da:3f:de:bb:d6:f7:2d:9d:
         8d:35:ec:f3:64:9d:c4:47:57:ac:d6:4a:74:75:75:3e:9c:03:
         a5:17:e3:9b:60:50:55:39:9e:93:87:f2:7b:3f:e6:15:1f:37:
         ea:dc:18:4f:44:54:97:23:2c:6b:8a:da:3e:f5:58:e2:16:4a:
         a8:83:ea:5c:a4:7f:38:59:bd:24:c1:ef:c2:d4:6f:e6:e4:d5:
         20:ab:2d:20:86:33:da:e3:84:1b:6a:62:66:70:0f:01:fe:e5:
         d1:01:46:80:16:d9:26:69:24:00:04:52:e6:4f:7a:5f:19:6e:
         06:c5:a0:d1:65:15:3c:e2
-----BEGIN CERTIFICATE-----
MIIEqTCCApGgAwIBAgICErUwDQYJKoZIhvcNAQELBQAwgZ0xCzAJBgNVBAYTAkRF
MQ8wDQYDVQQIDAZCYXllcm4xFDASBgNVBAcMC07Dg8K8cm5iZXJnMRMwEQYDVQQK
DApTaWVtZW5zIEFHMRQwEgYDVQQLDAtUcnVzdGNlbnRlcjERMA8GA1UEAwwIT2xp
dmVyQ0ExKTAnBgkqhkiG9w0BCQEWGm9saXZlci5zdGlsbGVyQHNpZW1lbnMuY29t
MB4XDTIwMTEwMzE0NDAzN1oXDTIxMTEwMzE0NDAzN1owIjEPMA0GA1UECgwGdGVz
dDIwMQ8wDQYDVQQDDAZ0ZXN0MjAwggEiMA0GCSqGSIb3DQEBAQUAA4IBDwAwggEK
AoIBAQC5NG3oJX3MfogoZQJz1Luq1KxwESPV7X+/cF27i+Nwtt1SSWW+mqye3zdv
pmHny1HB7s2UK3NRvtZE5slgpOWz/iWL+Ml6TnfNZqPxNKDt/1mP0PjNJQ8koEN4
fDbBPWU7tfhjR7CJkHeQHWpEeZa5teEabOpPQCDnj1oHTUJLD43Y6PFN+nLBZvRn
qoRGFR4OzArbQQwq4mFe98d+v/NOq0ED03h8qlW8W5OfeYY5iOuNI8aY8l0cVkIH
wIGMK/S1pAWiXWPcIfgvnY8OocRCMKsZgb43SsmZ78jbRZXl61nKTJa9MEhkLsp3
BuNwmsqw8yddEywWsAuRjp1vM9tnAgMBAAGjbTBrMEsGA1UdJQREMEIGBFUdJQAG
CCsGAQUFBwMBBggrBgEFBQcDAgYIKwYBBQUHAwMGCCsGAQUFBwMEBggrBgEFBQcD
CAYIKwYBBQUHAwkwCwYDVR0PBAQDAgeAMA8GCSsGAQUFBzABBQQCBQAwDQYJKoZI
hvcNAQELBQADggIBABZjnSF2CndeI8Tz2Nji4OiUPXn+vqJK4ZezOqMiqLo/4vJ2
g6VrNL1Uea37F3R4kUWFsZ+K5QI9AyLgFwoHXCz5xK0x8dpsXEo/XIGYIZ0fM/sv
a1iGBwy61djFj0GIHCJfwQJQXguUR4tNm0F+C/gFhBDB9sn4uwI6kZ483U/13cpn
LNv68ROoR+ElXmO2XEiRzY3lnmK2Bd3Rgv1WPV5u1mw/6hrdfzGchIiSRGABHJT5
sqeeOkNoYWb5IBF8FWZCnV0pRcQWU56q6GXgaFGnoH6ZF9a5JI1TLXvs5OaA8kb9
reSIlhX5ZXd95WwEzcg59gGMuEph2vVoUNIWEwCxDIjoJgJmA2IZ5/7YrkbNWUcs
dLjWfViMeUO5wpr8t430GghK1syC/kXrHwAc2kvKhAeWy6M6ndWzywpB7FkUkahO
fOhd1nLcpIpQ5T80klNhBpPDtRpzpdflK12MnvQDsZMDKx5e99JcBCZzWKkGUVnE
oz5WqeWqvBAQZ7Cw6q1BM5TaP9671vctnY017PNkncRHV6zWSnR1dT6cA6UX45tg
UFU5npOH8ns/5hUfN+rcGE9EVJcjLGuK2j71WOIWSqiD6lykfzhZvSTB78LUb+bk
1SCrLSCGM9rjhBtqYmZwDwH+5dEBRoAW2SZpJAAEUuZPel8ZbgbFoNFlFTzi
-----END CERTIFICATE-----
