Certificate:
    Data:
        Version: 3 (0x2)
        Serial Number: 4784 (0x12b0)
        Signature Algorithm: sha256WithRSAEncryption
        Issuer: C=DE, ST=Bayern, L=N\xC3\x83\xC2\xBCrnberg, O=Siemens AG, OU=Trustcenter, CN=OliverCA/emailAddress=oliver.stiller@siemens.com
        Validity
            Not Before: Nov  2 11:48:31 2020 GMT
            Not After : Nov  2 11:48:31 2021 GMT
        Subject: O=test2, CN=test2
        Subject Public Key Info:
            Public Key Algorithm: rsaEncryption
                RSA Public-Key: (2048 bit)
                Modulus:
                    00:b9:07:86:d2:be:2d:78:7c:58:b4:49:75:3b:68:
                    3d:8f:20:1c:77:dc:72:08:a5:03:ef:e6:78:cb:2d:
                    3b:b0:c5:9c:fc:b0:50:7b:8e:7a:12:96:bc:08:95:
                    f7:e6:cb:0e:2a:99:1a:f6:39:4d:eb:fd:8f:88:4f:
                    95:ad:b4:c8:7b:f2:70:c5:86:ca:63:7d:9a:d5:e5:
                    dd:7e:e9:20:ad:33:27:00:0b:9b:22:f8:f4:9d:6e:
                    4e:38:10:43:d2:f4:a0:e0:0d:5b:06:10:bd:8d:d7:
                    ce:ce:05:37:e4:27:dd:58:46:51:2b:74:59:4f:96:
                    56:e3:46:34:c1:7f:a7:4d:11:23:cc:ec:bc:e8:2d:
                    a6:63:be:9c:3a:70:ea:9e:25:6a:2d:9a:5a:42:2d:
                    b8:29:da:d3:8a:6c:69:63:6d:53:98:cd:12:2f:cc:
                    f2:f4:46:b2:5a:94:cf:1c:19:ba:22:4b:b2:11:71:
                    07:dc:27:8b:2b:6b:5b:b3:82:24:16:95:54:d9:99:
                    16:6f:b0:bc:61:18:17:e1:45:f7:62:bc:e5:25:90:
                    16:d3:ea:f1:fd:8d:7e:1e:73:bf:1b:44:51:4c:80:
                    80:dc:3c:5f:78:49:9e:7b:87:3e:0e:4c:66:17:f0:
                    7f:1e:7a:3d:37:2e:21:44:f5:9c:5e:8c:64:e6:5e:
                    04:51
                Exponent: 65537 (0x10001)
        X509v3 extensions:
            X509v3 Extended Key Usage: 
                Any Extended Key Usage, TLS Web Server Authentication
            X509v3 Key Usage: 
                Non Repudiation, Key Encipherment
            OCSP No Check: 

    Signature Algorithm: sha256WithRSAEncryption
         20:a2:4b:55:02:ee:a9:43:22:32:0b:cb:11:67:f9:97:ff:b4:
         50:21:81:9d:ab:14:17:1d:3b:5a:de:ee:dc:3a:5f:61:c9:4d:
         9f:04:0e:b5:9e:af:d6:5f:bf:90:9d:9b:22:52:ea:d8:48:61:
         60:a4:4f:3f:51:b2:8b:3a:08:c1:3c:7c:98:8f:b2:00:bd:bb:
         05:38:e5:54:b7:e9:21:a6:69:b2:7d:49:4a:65:af:93:56:9c:
         8f:f0:8b:b8:01:46:fa:4a:21:54:f0:9e:be:12:14:1e:0a:fd:
         5c:fa:43:14:23:4b:d1:a9:df:27:17:23:bf:ca:9c:e6:54:16:
         be:90:2e:86:2b:69:18:c2:7e:b3:95:ee:db:de:11:a2:96:6c:
         15:b4:e9:de:76:84:81:3e:b8:1e:1e:0b:84:f5:de:92:7c:e6:
         3b:bc:d0:55:17:2d:c5:07:4e:35:9e:e8:be:db:d8:01:92:b7:
         74:24:4b:72:fa:05:f1:d7:25:1f:1c:0a:65:a5:a2:f5:c0:99:
         23:30:fc:7b:4f:23:fa:6a:ee:1e:70:4b:0e:ca:4f:0f:09:6d:
         b7:ac:7f:68:ff:a9:71:68:5e:5e:4b:09:5b:66:e9:80:a5:cc:
         92:4d:d0:ae:d8:a7:06:28:51:6f:17:e8:fb:42:ea:77:b4:c5:
         22:af:95:60:2d:df:17:88:a3:2c:33:4c:b5:c4:58:40:b1:0f:
         36:63:83:29:6c:eb:2c:0b:f2:48:2c:6f:be:4a:18:3e:64:b1:
         76:af:be:27:b8:f5:cb:87:05:89:44:8d:e4:a0:b8:af:1e:d3:
         f8:00:0f:94:1b:5f:9e:ff:25:37:df:7a:63:73:2a:40:7f:37:
         1f:7c:b7:fa:28:06:bb:71:03:30:4d:d7:ee:42:96:e2:f0:cc:
         0c:e2:d5:10:a4:88:2e:a4:74:fa:d5:4d:c2:36:8f:a0:ce:7d:
         d8:6b:42:35:cb:41:ce:9b:ea:23:6c:ad:03:c7:cb:31:26:22:
         26:54:17:eb:e0:85:0d:88:98:45:4e:a5:9c:4d:fb:cc:0b:5e:
         b8:76:71:5d:78:89:f9:8a:da:8f:17:8b:2a:08:df:39:f8:00:
         ef:a0:5e:df:84:ec:69:58:9e:24:74:32:52:37:63:3e:1f:c4:
         07:55:01:4c:18:dd:97:f6:8e:48:9b:57:98:62:f7:71:0e:a0:
         38:60:5c:72:c7:11:1a:16:28:ed:c6:8a:3b:77:a0:0b:2f:54:
         8b:6e:53:1a:65:21:70:3e:cc:d6:5f:c6:9f:9d:b1:63:5b:f3:
         4b:3f:46:35:8e:e8:6d:97:a5:ec:43:40:f0:f3:97:07:a2:a9:
         8f:a8:31:97:f3:aa:30:15
-----BEGIN CERTIFICATE-----
MIIEdTCCAl2gAwIBAgICErAwDQYJKoZIhvcNAQELBQAwgZ0xCzAJBgNVBAYTAkRF
MQ8wDQYDVQQIDAZCYXllcm4xFDASBgNVBAcMC07Dg8K8cm5iZXJnMRMwEQYDVQQK
DApTaWVtZW5zIEFHMRQwEgYDVQQLDAtUcnVzdGNlbnRlcjERMA8GA1UEAwwIT2xp
dmVyQ0ExKTAnBgkqhkiG9w0BCQEWGm9saXZlci5zdGlsbGVyQHNpZW1lbnMuY29t
MB4XDTIwMTEwMjExNDgzMVoXDTIxMTEwMjExNDgzMVowIDEOMAwGA1UECgwFdGVz
dDIxDjAMBgNVBAMMBXRlc3QyMIIBIjANBgkqhkiG9w0BAQEFAAOCAQ8AMIIBCgKC
AQEAuQeG0r4teHxYtEl1O2g9jyAcd9xyCKUD7+Z4yy07sMWc/LBQe456Epa8CJX3
5ssOKpka9jlN6/2PiE+VrbTIe/JwxYbKY32a1eXdfukgrTMnAAubIvj0nW5OOBBD
0vSg4A1bBhC9jdfOzgU35CfdWEZRK3RZT5ZW40Y0wX+nTREjzOy86C2mY76cOnDq
niVqLZpaQi24KdrTimxpY21TmM0SL8zy9EayWpTPHBm6IkuyEXEH3CeLK2tbs4Ik
FpVU2ZkWb7C8YRgX4UX3YrzlJZAW0+rx/Y1+HnO/G0RRTICA3DxfeEmee4c+Dkxm
F/B/Hno9Ny4hRPWcXoxk5l4EUQIDAQABozswOTAZBgNVHSUEEjAQBgRVHSUABggr
BgEFBQcDATALBgNVHQ8EBAMCBWAwDwYJKwYBBQUHMAEFBAIFADANBgkqhkiG9w0B
AQsFAAOCAgEAIKJLVQLuqUMiMgvLEWf5l/+0UCGBnasUFx07Wt7u3DpfYclNnwQO
tZ6v1l+/kJ2bIlLq2EhhYKRPP1GyizoIwTx8mI+yAL27BTjlVLfpIaZpsn1JSmWv
k1acj/CLuAFG+kohVPCevhIUHgr9XPpDFCNL0anfJxcjv8qc5lQWvpAuhitpGMJ+
s5Xu294RopZsFbTp3naEgT64Hh4LhPXeknzmO7zQVRctxQdONZ7ovtvYAZK3dCRL
cvoF8dclHxwKZaWi9cCZIzD8e08j+mruHnBLDspPDwltt6x/aP+pcWheXksJW2bp
gKXMkk3QrtinBihRbxfo+0Lqd7TFIq+VYC3fF4ijLDNMtcRYQLEPNmODKWzrLAvy
SCxvvkoYPmSxdq++J7j1y4cFiUSN5KC4rx7T+AAPlBtfnv8lN996Y3MqQH83H3y3
+igGu3EDME3X7kKW4vDMDOLVEKSILqR0+tVNwjaPoM592GtCNctBzpvqI2ytA8fL
MSYiJlQX6+CFDYiYRU6lnE37zAteuHZxXXiJ+YrajxeLKgjfOfgA76Be34TsaVie
JHQyUjdjPh/EB1UBTBjdl/aOSJtXmGL3cQ6gOGBccscRGhYo7caKO3egCy9Ui25T
GmUhcD7M1l/Gn52xY1vzSz9GNY7obZel7ENA8POXB6Kpj6gxl/OqMBU=
-----END CERTIFICATE-----
