Certificate:
    Data:
        Version: 3 (0x2)
        Serial Number: 18008675984 (0x431669690)
    Signature Algorithm: sha256WithRSAEncryption
        Issuer: C = US, O = Mother Nature, OU = Everything, CN = Mother Nature
        Validity
            Not Before: Jul  7 15:16:03 2016 GMT
            Not After : Sep 19 15:16:03 2016 GMT
        Subject: C = US, ST = FL, L = Tallahassee, street = 3210 Holly Mill Run, postalCode = 30062, O = Extreme Discord, OU = Chaos, CN = gov.us
        Subject Public Key Info:
            Public Key Algorithm: rsaEncryption
                Public-Key: (2048 bit)
                Modulus:
                    00:b7:f3:59:b1:19:7c:37:4f:06:4f:1b:13:0a:0d:
                    19:b1:f8:e8:fc:34:a0:09:09:a1:ca:dd:8a:00:9d:
                    fe:64:87:1b:51:f2:57:6a:3c:66:d6:ad:59:4c:2a:
                    5c:f1:65:60:f1:67:97:44:38:8b:85:f9:ea:3f:1c:
                    e1:9f:4f:1b:90:40:8d:9e:e5:04:f3:1b:c2:ad:c5:
                    1c:cc:cd:09:78:f2:1f:50:1a:ec:bd:ba:82:a4:c6:
                    e2:6c:52:19:2a:c2:08:0a:de:af:2a:ba:cc:c4:c7:
                    f1:6b:a2:34:c4:6f:71:3c:1d:c2:19:f7:98:fd:ad:
                    a4:3e:30:a8:01:73:83:d8:4e:9c:19:3e:ed:ae:36:
                    fd:b4:2c:e8:eb:6e:87:7d:4e:41:16:2d:ce:f3:3a:
                    02:f1:80:41:6a:54:6d:cd:e2:ad:26:47:db:69:0d:
                    86:6c:ad:ad:93:39:6b:0a:f1:0f:1c:c0:62:98:79:
                    24:d2:fc:1a:c6:a4:0b:c4:e1:92:5c:37:1a:6f:87:
                    84:14:9d:a5:00:bb:27:19:1c:58:ad:d5:3d:52:a3:
                    49:48:97:13:1a:12:d1:42:d4:2d:81:95:11:e4:f6:
                    0c:50:88:0e:c6:18:98:30:0f:36:89:e1:47:2e:3e:
                    ea:f3:3a:32:46:3b:18:1c:7d:06:b0:fa:2d:35:b2:
                    7d:ef
                Exponent: 65537 (0x10001)
        X509v3 extensions:
            X509v3 Key Usage: critical
                Digital Signature, Key Encipherment
            X509v3 Extended Key Usage: 
                TLS Web Client Authentication, TLS Web Server Authentication
            X509v3 Basic Constraints: critical
                CA:TRUE
            Authority Information Access: 
                OCSP - URI:http://theca.net/ocsp
                CA Issuers - URI:http://theca.net/totallythecert.crt

            X509v3 Certificate Policies: 
                Policy: 1.3.6.1.5.5.7.13.1
                Policy: 2.23.140.1.2.2

            X509v3 Subject Key Identifier: 
                04:03:02:01
            X509v3 Subject Alternative Name: 
                DNS:*.gov.us, DNS:gov.us
            X509v3 Issuer Alternative Name: 
                DNS:allthethings.net, DNS:theca.net
            X509v3 Authority Key Identifier: critical
                keyid:01:02:03:04

    Signature Algorithm: sha256WithRSAEncryption
         25:9b:8b:64:94:d5:20:6f:2f:cd:b2:91:6d:08:89:05:14:7c:
         c7:49:fd:cc:b7:08:4a:fe:3e:67:54:8b:46:67:bf:cd:ed:12:
         b6:79:75:85:f9:22:cd:05:30:ce:00:b7:06:b2:ef:93:2e:68:
         2f:e4:12:5b:48:4b:7b:2b:8a:29:0a:4d:0c:3a:2d:c5:dd:d2:
         0b:63:f4:55:2d:7e:1b:0c:63:e5:0e:7d:64:ce:ee:71:df:97:
         01:71:9f:eb:34:a8:07:bb:2a:ec:79:e5:88:d0:74:a7:0f:47:
         05:fd:3a:f5:6f:c6:e9:04:ee:1a:22:4e:50:81:e1:39:71:f6:
         fc:46:82:86:3c:81:bc:52:53:d9:01:0b:01:7d:a7:6c:d2:60:
         9d:cd:82:12:4f:94:16:ef:01:d2:56:60:95:d3:0c:7e:5d:3b:
         c7:b4:0e:71:92:a6:64:58:9b:15:76:33:d4:12:3b:b5:42:bb:
         77:38:bd:71:e0:c8:08:61:59:f1:3e:0b:d2:3a:d3:c0:ed:9e:
         8c:ec:5c:ff:da:34:72:39:2c:1e:91:ce:d0:ae:a8:e8:74:11:
         0e:1d:26:69:9f:7a:94:cf:05:f5:10:d9:dd:33:67:61:f5:dc:
         44:80:3f:28:f9:7e:a7:33:0a:f1:83:cd:5c:8f:9d:6d:dc:53:
         d8:0c:e5:74
-----BEGIN CERTIFICATE-----
MIIEnjCCA4agAwIBAgIFBDFmlpAwDQYJKoZIhvcNAQELBQAwUjELMAkGA1UEBhMC
VVMxFjAUBgNVBAoTDU1vdGhlciBOYXR1cmUxEzARBgNVBAsTCkV2ZXJ5dGhpbmcx
FjAUBgNVBAMTDU1vdGhlciBOYXR1cmUwHhcNMTYwNzA3MTUxNjAzWhcNMTYwOTE5
MTUxNjAzWjCBmTELMAkGA1UEBhMCVVMxCzAJBgNVBAgTAkZMMRQwEgYDVQQHEwtU
YWxsYWhhc3NlZTEcMBoGA1UECRMTMzIxMCBIb2xseSBNaWxsIFJ1bjEOMAwGA1UE
ERMFMzAwNjIxGDAWBgNVBAoTD0V4dHJlbWUgRGlzY29yZDEOMAwGA1UECxMFQ2hh
b3MxDzANBgNVBAMTBmdvdi51czCCASIwDQYJKoZIhvcNAQEBBQADggEPADCCAQoC
ggEBALfzWbEZfDdPBk8bEwoNGbH46Pw0oAkJocrdigCd/mSHG1HyV2o8ZtatWUwq
XPFlYPFnl0Q4i4X56j8c4Z9PG5BAjZ7lBPMbwq3FHMzNCXjyH1Aa7L26gqTG4mxS
GSrCCAreryq6zMTH8WuiNMRvcTwdwhn3mP2tpD4wqAFzg9hOnBk+7a42/bQs6Otu
h31OQRYtzvM6AvGAQWpUbc3irSZH22kNhmytrZM5awrxDxzAYph5JNL8GsakC8Th
klw3Gm+HhBSdpQC7JxkcWK3VPVKjSUiXExoS0ULULYGVEeT2DFCIDsYYmDAPNonh
Ry4+6vM6MkY7GBx9BrD6LTWyfe8CAwEAAaOCATEwggEtMA4GA1UdDwEB/wQEAwIF
oDAdBgNVHSUEFjAUBggrBgEFBQcDAgYIKwYBBQUHAwEwDwYDVR0TAQH/BAUwAwEB
/zBiBggrBgEFBQcBAQRWMFQwIQYIKwYBBQUHMAGGFWh0dHA6Ly90aGVjYS5uZXQv
b2NzcDAvBggrBgEFBQcwAoYjaHR0cDovL3RoZWNhLm5ldC90b3RhbGx5dGhlY2Vy
dC5jcnQwHwYDVR0gBBgwFjAKBggrBgEFBQcNATAIBgZngQwBAgIwDQYDVR0OBAYE
BAQDAgEwGwYDVR0RBBQwEoIIKi5nb3YudXOCBmdvdi51czAmBgNVHRIEHzAdghBh
bGx0aGV0aGluZ3MubmV0ggl0aGVjYS5uZXQwEgYDVR0jAQH/BAgwBoAEAQIDBDAN
BgkqhkiG9w0BAQsFAAOCAQEAJZuLZJTVIG8vzbKRbQiJBRR8x0n9zLcISv4+Z1SL
Rme/ze0Stnl1hfkizQUwzgC3BrLvky5oL+QSW0hLeyuKKQpNDDotxd3SC2P0VS1+
Gwxj5Q59ZM7ucd+XAXGf6zSoB7sq7HnliNB0pw9HBf069W/G6QTuGiJOUIHhOXH2
/EaChjyBvFJT2QELAX2nbNJgnc2CEk+UFu8B0lZgldMMfl07x7QOcZKmZFibFXYz
1BI7tUK7dzi9ceDICGFZ8T4L0jrTwO2ejOxc/9o0cjksHpHO0K6o6HQRDh0maZ96
lM8F9RDZ3TNnYfXcRIA/KPl+pzMK8YPNXI+dbdxT2AzldA==
-----END CERTIFICATE-----
