Certificate:
    Data:
        Version: 3 (0x2)
        Serial Number: 18008675309 (0x4316693ed)
    Signature Algorithm: sha256WithRSAEncryption
        Issuer: C = US, O = Mother Nature, OU = Everything, CN = Mother Nature
        Validity
            Not Before: Jul  1 20:40:34 2016 GMT
            Not After : Sep 13 20:40:34 2016 GMT
        Subject: C = US, O = Extreme Discord, OU = Chaos, L = Tallahassee, ST = FL, street = 3210 Holly Mill Run, postalCode = 30062, CN = gov.us
        Subject Public Key Info:
            Public Key Algorithm: rsaEncryption
                Public-Key: (2048 bit)
                Modulus:
                    00:ce:0b:9a:f2:39:b5:c5:82:ba:7a:82:2e:03:3a:
                    08:5b:16:fc:d8:c8:ec:df:f1:74:0f:13:3a:57:98:
                    27:0c:2c:25:1b:b7:e4:78:3f:7f:89:79:ab:02:b4:
                    8f:43:6c:b5:bd:c9:50:53:fe:e7:b5:d0:cf:65:a1:
                    a6:d5:ec:86:26:e5:20:31:38:10:dc:10:5f:95:a1:
                    10:27:41:53:e9:ed:f0:57:0c:55:4e:9d:ba:b4:28:
                    41:c1:89:ec:e3:cb:1a:d3:0c:b0:01:66:9a:b7:e9:
                    71:92:62:cd:ca:eb:ac:04:2e:7e:e1:7f:0e:27:12:
                    13:9a:d6:ea:4f:26:44:dc:34:a8:f1:bd:ad:30:be:
                    bf:24:52:a8:1b:4a:41:25:57:3c:17:d6:74:a7:63:
                    af:3d:db:90:53:8e:09:01:90:ea:dd:9d:9a:49:66:
                    3e:53:5b:74:87:b9:49:10:90:15:4b:08:6b:5d:80:
                    2b:15:17:d0:87:42:59:21:a6:55:0d:12:96:2c:c2:
                    3c:df:bc:13:e3:03:08:1a:3f:2c:77:72:84:73:a8:
                    d0:c6:84:a0:2b:c0:2d:25:68:2e:63:94:8e:07:21:
                    a4:14:1d:2b:c7:c3:7b:53:bf:7c:73:4f:d3:1c:6f:
                    09:7e:be:2f:fb:12:15:14:68:46:66:09:10:d6:f5:
                    97:ef
                Exponent: 4 (0x4)
        X509v3 extensions:
            X509v3 Key Usage: critical
                Digital Signature, Key Encipherment
            X509v3 Extended Key Usage: 
                TLS Web Client Authentication, TLS Web Server Authentication
            X509v3 Basic Constraints: critical
                CA:FALSE
            X509v3 Authority Key Identifier: 
                keyid:01:02:03

            Authority Information Access: 
                OCSP - URI:http://theca.net/ocsp
                CA Issuers - URI:http://theca.net/totallythecert.crt

            X509v3 Certificate Policies: 
                Policy: 2.23.140.1.2.2

            X509v3 Subject Key Identifier: 
                04:03:02:01
            X509v3 Subject Alternative Name: 
                DNS:*.gov.us, DNS:gov.us
    Signature Algorithm: sha256WithRSAEncryption
         06:d8:0d:14:37:db:8d:da:bb:d0:64:63:42:44:7c:27:b2:3f:
         ab:70:ef:78:d1:07:e0:70:69:4a:1c:14:75:2f:89:d0:e0:92:
         cd:2d:64:ad:6f:72:4e:df:eb:a6:fc:26:77:ce:ab:6c:89:24:
         cc:1d:50:5e:f7:d5:30:7a:85:0a:79:41:55:e9:79:58:0b:c0:
         8d:b3:dc:74:92:f1:ed:ef:0a:f4:df:5c:6b:1d:97:67:0d:ba:
         5d:d4:79:5a:eb:f2:52:d4:b4:fc:f9:c5:0a:54:f5:fb:a3:f5:
         83:b7:34:d5:53:27:c6:9b:88:6c:a7:af:c9:cf:9b:74:86:0d:
         3d:12:a2:98:c5:bd:8e:74:92:3e:b3:b8:cc:f0:b3:42:c6:6d:
         03:74:9d:d3:20:29:fb:8a:13:d5:b1:31:c6:45:89:b5:ee:85:
         cc:9e:a8:a2:39:d3:2c:e9:22:0c:27:d7:c9:ad:9f:86:16:82:
         69:cc:4b:f8:74:9b:dd:1c:c5:07:f2:4c:2f:fa:cc:f0:7a:df:
         02:93:1d:d1:83:4a:4d:38:c7:07:dd:c8:57:49:75:88:a8:5b:
         2c:e6:77:cd:c3:f7:cc:a1:25:dd:10:e9:00:f8:46:c5:50:28:
         09:62:d3:8f:5b:e0:58:63:6a:c9:dc:fa:61:e5:01:0f:bc:41:
         dd:b9:09:66
-----BEGIN CERTIFICATE-----
MIIEXzCCA0egAwIBAgIFBDFmk+0wDQYJKoZIhvcNAQELBQAwUjELMAkGA1UEBhMC
VVMxFjAUBgNVBAoTDU1vdGhlciBOYXR1cmUxEzARBgNVBAsTCkV2ZXJ5dGhpbmcx
FjAUBgNVBAMTDU1vdGhlciBOYXR1cmUwHhcNMTYwNzAxMjA0MDM0WhcNMTYwOTEz
MjA0MDM0WjCBmTELMAkGA1UEBhMCVVMxGDAWBgNVBAoTD0V4dHJlbWUgRGlzY29y
ZDEOMAwGA1UECxMFQ2hhb3MxFDASBgNVBAcTC1RhbGxhaGFzc2VlMQswCQYDVQQI
EwJGTDEcMBoGA1UECRMTMzIxMCBIb2xseSBNaWxsIFJ1bjEOMAwGA1UEERMFMzAw
NjIxDzANBgNVBAMTBmdvdi51czCCASAwDQYJKoZIhvcNAQEBBQADggENADCCAQgC
ggEBAM4LmvI5tcWCunqCLgM6CFsW/NjI7N/xdA8TOleYJwwsJRu35Hg/f4l5qwK0
j0Nstb3JUFP+57XQz2WhptXshiblIDE4ENwQX5WhECdBU+nt8FcMVU6durQoQcGJ
7OPLGtMMsAFmmrfpcZJizcrrrAQufuF/DicSE5rW6k8mRNw0qPG9rTC+vyRSqBtK
QSVXPBfWdKdjrz3bkFOOCQGQ6t2dmklmPlNbdIe5SRCQFUsIa12AKxUX0IdCWSGm
VQ0SlizCPN+8E+MDCBo/LHdyhHOo0MaEoCvALSVoLmOUjgchpBQdK8fDe1O/fHNP
0xxvCX6+L/sSFRRoRmYJENb1l+8CAQSjgfUwgfIwDgYDVR0PAQH/BAQDAgWgMB0G
A1UdJQQWMBQGCCsGAQUFBwMCBggrBgEFBQcDATAMBgNVHRMBAf8EAjAAMA4GA1Ud
IwQHMAWAAwECAzBiBggrBgEFBQcBAQRWMFQwIQYIKwYBBQUHMAGGFWh0dHA6Ly90
aGVjYS5uZXQvb2NzcDAvBggrBgEFBQcwAoYjaHR0cDovL3RoZWNhLm5ldC90b3Rh
bGx5dGhlY2VydC5jcnQwEwYDVR0gBAwwCjAIBgZngQwBAgIwDQYDVR0OBAYEBAQD
AgEwGwYDVR0RBBQwEoIIKi5nb3YudXOCBmdvdi51czANBgkqhkiG9w0BAQsFAAOC
AQEABtgNFDfbjdq70GRjQkR8J7I/q3DveNEH4HBpShwUdS+J0OCSzS1krW9yTt/r
pvwmd86rbIkkzB1QXvfVMHqFCnlBVel5WAvAjbPcdJLx7e8K9N9cax2XZw26XdR5
WuvyUtS0/PnFClT1+6P1g7c01VMnxpuIbKevyc+bdIYNPRKimMW9jnSSPrO4zPCz
QsZtA3Sd0yAp+4oT1bExxkWJte6FzJ6oojnTLOkiDCfXya2fhhaCacxL+HSb3RzF
B/JML/rM8HrfApMd0YNKTTjHB93IV0l1iKhbLOZ3zcP3zKEl3RDpAPhGxVAoCWLT
j1vgWGNqydz6YeUBD7xB3bkJZg==
-----END CERTIFICATE-----
