Certificate:
    Data:
        Version: 3 (0x2)
        Serial Number: 18008675309 (0x4316693ed)
    Signature Algorithm: sha256WithRSAEncryption
        Issuer: C = US, O = Mother Nature, OU = Everything, CN = Mother Nature
        Validity
            Not Before: Jun 30 22:57:44 2016 GMT
            Not After : Sep 11 22:57:44 2016 GMT
        Subject: C = US, ST = FL, L = Tallahassee, street = 3210 Holly Mill Run, postalCode = 30062, O = Extreme Discord, OU = Chaos, CN = gov.us
        Subject Public Key Info:
            Public Key Algorithm: rsaEncryption
                Public-Key: (2048 bit)
                Modulus:
                    00:eb:4b:d8:38:42:a2:d9:7b:d8:65:db:e3:98:b8:
                    ec:31:71:94:32:4e:08:57:30:be:91:6c:f3:c8:cb:
                    47:70:3d:71:ad:aa:1d:15:0b:d9:0a:0e:da:0d:e0:
                    a3:bc:78:03:40:80:1f:a3:ad:3b:89:4a:43:40:71:
                    7d:fd:0f:4c:90:06:5b:a3:b8:26:5b:05:4c:d5:00:
                    0d:c0:1b:11:0e:2a:85:0d:65:bd:b8:d6:4a:66:e4:
                    0b:cd:17:1c:db:4e:75:81:66:3e:df:d9:04:50:a6:
                    94:cc:bd:6c:d8:b7:99:89:84:8f:bf:05:83:71:55:
                    bd:0a:44:85:68:20:a8:55:aa:28:46:98:4a:62:eb:
                    f6:11:77:6a:b4:e0:1f:da:11:0b:86:c9:02:04:34:
                    5e:b7:ed:04:a8:77:6b:51:e5:aa:9e:20:95:73:a0:
                    3d:03:63:29:a0:d7:0a:9b:2c:70:92:f1:ed:a6:12:
                    7d:bc:ad:6a:a6:c0:60:41:e0:76:c9:37:4c:e7:1e:
                    e7:c7:7b:d7:e6:20:db:c4:94:0f:9e:a6:55:ff:6c:
                    ef:34:be:9b:69:34:11:f2:b0:bc:a2:e1:9d:5f:51:
                    8e:14:79:7c:bc:11:41:86:15:61:f6:a5:17:0f:3e:
                    62:4a:fd:e0:08:85:db:8f:2b:ba:54:06:a9:95:c4:
                    04:85
                Exponent: 65537 (0x10001)
        X509v3 extensions:
            X509v3 Extended Key Usage: 
                TLS Web Client Authentication, TLS Web Server Authentication
            X509v3 Authority Key Identifier: 
                keyid:01:02:03

            Authority Information Access: 
                OCSP - URI:http://theca.net/ocsp
                CA Issuers - URI:http://theca.net/totallythecert.crt

            X509v3 Certificate Policies: 
                Policy: 2.23.140.1.2.2

            X509v3 Subject Key Identifier: 
                04:03:02:01
            X509v3 Subject Alternative Name: 
                DNS:*.gov.us, DNS:gov.us
            X509v3 Key Usage: 
                Digital Signature, Certificate Sign, CRL Sign
            X509v3 Basic Constraints: 
                CA:TRUE
    Signature Algorithm: sha256WithRSAEncryption
         04:a7:5a:0b:e3:c5:d7:00:be:01:62:e1:38:91:fc:81:4b:f8:
         bc:04:22:fa:91:1a:bb:ed:0f:bf:2f:e5:57:2f:a0:24:08:0c:
         c0:6f:d5:37:71:f5:5c:0a:a2:40:35:54:ca:3b:b8:9c:78:8f:
         a0:b7:41:99:76:1a:b7:30:63:74:ff:cf:fa:92:bb:8f:49:21:
         4c:a9:6f:e3:bd:32:f1:45:dd:a7:fc:fe:88:33:c0:e3:68:24:
         61:cc:df:29:8f:06:ef:68:16:16:34:55:91:11:55:cc:3b:e0:
         03:14:34:50:8f:9a:c2:0b:57:33:64:9f:aa:4c:f9:de:cf:f8:
         74:6e:f3:0f:7a:c1:0e:1a:6d:c5:e7:a7:c0:b7:59:b2:d9:b3:
         c4:e0:5f:ac:e7:d5:03:4b:58:ef:00:d6:b3:4a:01:c0:a8:3f:
         ea:cf:47:73:5d:4e:32:81:1e:a7:1f:54:32:2a:7a:db:1b:97:
         4a:75:97:94:bf:71:2d:d4:1b:7f:56:c4:33:df:88:b9:a1:2c:
         5e:33:99:54:64:ce:52:98:fe:81:61:57:01:02:4b:b1:c5:4a:
         c9:64:fe:1e:6e:3c:e3:40:98:2a:76:bd:c0:ff:c0:98:23:e6:
         54:f7:13:be:25:76:ac:88:f7:20:00:3c:a7:e3:a9:48:eb:1b:
         10:fa:ea:45
-----BEGIN CERTIFICATE-----
MIIEXjCCA0agAwIBAgIFBDFmk+0wDQYJKoZIhvcNAQELBQAwUjELMAkGA1UEBhMC
VVMxFjAUBgNVBAoTDU1vdGhlciBOYXR1cmUxEzARBgNVBAsTCkV2ZXJ5dGhpbmcx
FjAUBgNVBAMTDU1vdGhlciBOYXR1cmUwHhcNMTYwNjMwMjI1NzQ0WhcNMTYwOTEx
MjI1NzQ0WjCBmTELMAkGA1UEBhMCVVMxCzAJBgNVBAgTAkZMMRQwEgYDVQQHEwtU
YWxsYWhhc3NlZTEcMBoGA1UECRMTMzIxMCBIb2xseSBNaWxsIFJ1bjEOMAwGA1UE
ERMFMzAwNjIxGDAWBgNVBAoTD0V4dHJlbWUgRGlzY29yZDEOMAwGA1UECxMFQ2hh
b3MxDzANBgNVBAMTBmdvdi51czCCASIwDQYJKoZIhvcNAQEBBQADggEPADCCAQoC
ggEBAOtL2DhCotl72GXb45i47DFxlDJOCFcwvpFs88jLR3A9ca2qHRUL2QoO2g3g
o7x4A0CAH6OtO4lKQ0Bxff0PTJAGW6O4JlsFTNUADcAbEQ4qhQ1lvbjWSmbkC80X
HNtOdYFmPt/ZBFCmlMy9bNi3mYmEj78Fg3FVvQpEhWggqFWqKEaYSmLr9hF3arTg
H9oRC4bJAgQ0XrftBKh3a1Hlqp4glXOgPQNjKaDXCpsscJLx7aYSfbytaqbAYEHg
dsk3TOce58d71+Yg28SUD56mVf9s7zS+m2k0EfKwvKLhnV9RjhR5fLwRQYYVYfal
Fw8+Ykr94AiF248rulQGqZXEBIUCAwEAAaOB8jCB7zAdBgNVHSUEFjAUBggrBgEF
BQcDAgYIKwYBBQUHAwEwDgYDVR0jBAcwBYADAQIDMGIGCCsGAQUFBwEBBFYwVDAh
BggrBgEFBQcwAYYVaHR0cDovL3RoZWNhLm5ldC9vY3NwMC8GCCsGAQUFBzAChiNo
dHRwOi8vdGhlY2EubmV0L3RvdGFsbHl0aGVjZXJ0LmNydDATBgNVHSAEDDAKMAgG
BmeBDAECAjANBgNVHQ4EBgQEBAMCATAbBgNVHREEFDASgggqLmdvdi51c4IGZ292
LnVzMAsGA1UdDwQEAwIBhjAMBgNVHRMEBTADAQH/MA0GCSqGSIb3DQEBCwUAA4IB
AQAEp1oL48XXAL4BYuE4kfyBS/i8BCL6kRq77Q+/L+VXL6AkCAzAb9U3cfVcCqJA
NVTKO7iceI+gt0GZdhq3MGN0/8/6kruPSSFMqW/jvTLxRd2n/P6IM8DjaCRhzN8p
jwbvaBYWNFWREVXMO+ADFDRQj5rCC1czZJ+qTPnez/h0bvMPesEOGm3F56fAt1my
2bPE4F+s59UDS1jvANazSgHAqD/qz0dzXU4ygR6nH1QyKnrbG5dKdZeUv3Et1Bt/
VsQz34i5oSxeM5lUZM5SmP6BYVcBAkuxxUrJZP4ebjzjQJgqdr3A/8CYI+ZU9xO+
JXasiPcgADyn46lI6xsQ+upF
-----END CERTIFICATE-----
