Certificate:
    Data:
        Version: 3 (0x2)
        Serial Number: 18008675309 (0x4316693ed)
    Signature Algorithm: sha256WithRSAEncryption
        Issuer: C = US, O = Mother Nature, OU = Everything, CN = Mother Nature
        Validity
            Not Before: Jun 29 16:38:17 2016 GMT
            Not After : Sep 10 16:38:17 2016 GMT
        Subject: C = , ST = FL, L = Tallahassee, street = 3210 Holly Mill Run, postalCode = 30062, O = Extreme Discord, OU = Chaos, CN = gov.us
        Subject Public Key Info:
            Public Key Algorithm: rsaEncryption
                Public-Key: (2048 bit)
                Modulus:
                    00:d0:90:03:5b:8a:30:9b:27:f1:03:ef:1c:30:bf:
                    59:80:9f:c9:87:2a:66:62:ec:8f:15:75:d4:4d:7b:
                    2a:1c:ad:14:fe:18:12:7e:4a:93:82:2e:ca:d6:75:
                    ac:77:2d:c2:da:4e:aa:40:41:52:ac:67:71:09:c0:
                    af:81:d6:62:a7:d6:a1:cc:e9:10:2a:af:92:53:3a:
                    6c:d7:02:38:7f:52:0e:81:ed:c9:5d:fd:22:61:da:
                    5a:56:80:4a:42:a6:d1:c2:66:62:d5:03:94:67:16:
                    ba:3f:91:0a:71:51:b4:a1:0f:ae:2c:c2:e3:e7:64:
                    a6:ca:65:26:a6:e7:ab:0b:23:be:b6:8c:32:ff:d7:
                    82:e7:73:87:6f:3e:54:04:42:af:9e:d5:d8:da:fa:
                    cb:e1:7c:87:df:c9:21:d9:1a:79:cf:73:9d:7d:af:
                    1d:98:01:15:e4:21:7c:0b:d6:3d:b1:75:0f:44:86:
                    17:ec:42:fe:59:2c:7d:20:e4:5a:53:d2:e5:1d:dc:
                    ef:57:a2:c9:e5:e2:18:7d:52:3e:01:f7:90:e7:fe:
                    0e:6d:de:61:21:3d:38:cf:3b:84:c8:4f:b7:60:f6:
                    ca:5a:33:5f:8b:f9:3e:98:54:06:23:12:c1:1e:b3:
                    aa:91:67:62:66:e6:52:2b:4d:14:3b:47:c6:e6:c3:
                    49:7f
                Exponent: 65537 (0x10001)
        X509v3 extensions:
            X509v3 Key Usage: critical
                Digital Signature, Key Encipherment
            X509v3 Extended Key Usage: 
                TLS Web Client Authentication, TLS Web Server Authentication
            X509v3 Basic Constraints: critical
                CA:TRUE
            X509v3 Authority Key Identifier: 
                keyid:01:02:03

            Authority Information Access: 
                OCSP - URI:http://theca.net/ocsp
                CA Issuers - URI:http://theca.net/totallythecert.crt

            X509v3 Certificate Policies: 
                Policy: 2.23.140.1.2.2

            X509v3 Subject Key Identifier: 
                04:03:02:01
            X509v3 Subject Alternative Name: 
                DNS:*.gov.us, DNS:gov.us
    Signature Algorithm: sha256WithRSAEncryption
         4c:6c:ae:0f:8b:c7:75:8e:21:34:1b:31:59:c3:6a:4d:83:42:
         45:8f:de:98:f7:18:49:fc:c5:b2:86:f7:d6:69:03:4a:4f:2d:
         7f:f3:66:09:4b:dd:a3:84:db:0b:d5:50:ca:03:7e:90:61:63:
         23:fc:5e:0d:6a:1c:47:ba:94:89:81:03:0a:4c:b6:c5:28:64:
         70:db:94:38:70:6e:47:05:ba:5a:25:38:ad:32:54:a4:41:04:
         c0:04:0b:63:83:9f:4b:b8:39:19:db:f5:e3:c8:df:bf:eb:e0:
         34:fa:87:49:c9:4b:25:e8:00:bb:dd:d0:5a:95:1a:70:2a:ed:
         ac:db:0e:40:74:81:13:dd:63:aa:37:1f:e5:b5:ee:be:d0:7f:
         6c:b5:20:bc:cf:36:7f:38:35:81:a0:ef:0b:46:b6:65:1a:f9:
         f3:ca:00:aa:2e:17:3b:13:24:38:e6:86:3a:4d:8d:cd:e5:b7:
         98:d0:4c:72:73:0b:25:e9:d0:5a:72:90:e7:b8:a8:5b:67:cc:
         e5:b2:c0:e7:8d:f8:a4:e7:e7:7c:5c:a1:42:2d:ac:12:71:4a:
         2f:28:ba:eb:65:d5:cf:76:3d:43:9e:6a:8d:1d:04:f0:90:a3:
         5e:31:1a:16:0a:cd:bc:12:67:95:c4:3d:df:a9:38:4c:92:06:
         31:c7:ec:08
-----BEGIN CERTIFICATE-----
MIIEYjCCA0qgAwIBAgIFBDFmk+0wDQYJKoZIhvcNAQELBQAwUjELMAkGA1UEBhMC
VVMxFjAUBgNVBAoTDU1vdGhlciBOYXR1cmUxEzARBgNVBAsTCkV2ZXJ5dGhpbmcx
FjAUBgNVBAMTDU1vdGhlciBOYXR1cmUwHhcNMTYwNjI5MTYzODE3WhcNMTYwOTEw
MTYzODE3WjCBlzEJMAcGA1UEBhMAMQswCQYDVQQIEwJGTDEUMBIGA1UEBxMLVGFs
bGFoYXNzZWUxHDAaBgNVBAkTEzMyMTAgSG9sbHkgTWlsbCBSdW4xDjAMBgNVBBET
BTMwMDYyMRgwFgYDVQQKEw9FeHRyZW1lIERpc2NvcmQxDjAMBgNVBAsTBUNoYW9z
MQ8wDQYDVQQDEwZnb3YudXMwggEiMA0GCSqGSIb3DQEBAQUAA4IBDwAwggEKAoIB
AQDQkANbijCbJ/ED7xwwv1mAn8mHKmZi7I8VddRNeyocrRT+GBJ+SpOCLsrWdax3
LcLaTqpAQVKsZ3EJwK+B1mKn1qHM6RAqr5JTOmzXAjh/Ug6B7cld/SJh2lpWgEpC
ptHCZmLVA5RnFro/kQpxUbShD64swuPnZKbKZSam56sLI762jDL/14Lnc4dvPlQE
Qq+e1dja+svhfIffySHZGnnPc519rx2YARXkIXwL1j2xdQ9EhhfsQv5ZLH0g5FpT
0uUd3O9Xosnl4hh9Uj4B95Dn/g5t3mEhPTjPO4TIT7dg9spaM1+L+T6YVAYjEsEe
s6qRZ2Jm5lIrTRQ7R8bmw0l/AgMBAAGjgfgwgfUwDgYDVR0PAQH/BAQDAgWgMB0G
A1UdJQQWMBQGCCsGAQUFBwMCBggrBgEFBQcDATAPBgNVHRMBAf8EBTADAQH/MA4G
A1UdIwQHMAWAAwECAzBiBggrBgEFBQcBAQRWMFQwIQYIKwYBBQUHMAGGFWh0dHA6
Ly90aGVjYS5uZXQvb2NzcDAvBggrBgEFBQcwAoYjaHR0cDovL3RoZWNhLm5ldC90
b3RhbGx5dGhlY2VydC5jcnQwEwYDVR0gBAwwCjAIBgZngQwBAgIwDQYDVR0OBAYE
BAQDAgEwGwYDVR0RBBQwEoIIKi5nb3YudXOCBmdvdi51czANBgkqhkiG9w0BAQsF
AAOCAQEATGyuD4vHdY4hNBsxWcNqTYNCRY/emPcYSfzFsob31mkDSk8tf/NmCUvd
o4TbC9VQygN+kGFjI/xeDWocR7qUiYEDCky2xShkcNuUOHBuRwW6WiU4rTJUpEEE
wAQLY4OfS7g5Gdv148jfv+vgNPqHSclLJegAu93QWpUacCrtrNsOQHSBE91jqjcf
5bXuvtB/bLUgvM82fzg1gaDvC0a2ZRr588oAqi4XOxMkOOaGOk2NzeW3mNBMcnML
JenQWnKQ57ioW2fM5bLA5434pOfnfFyhQi2sEnFKLyi662XVz3Y9Q55qjR0E8JCj
XjEaFgrNvBJnlcQ936k4TJIGMcfsCA==
-----END CERTIFICATE-----
