Certificate:
    Data:
        Version: 3 (0x2)
        Serial Number: 18008675309 (0x4316693ed)
    Signature Algorithm: sha256WithRSAEncryption
        Issuer: C=US, O=Mother Nature, OU=Everything, CN=Mother Nature
        Validity
            Not Before: Aug 23 21:57:26 2017 GMT
            Not After : Nov  4 21:57:26 2017 GMT
        Subject: C=US, ST=FL, L=Tallahassee/street=3210 Holly Mill Run/postalCode=30062, O=Extreme Discord, OU=Chaos
        Subject Public Key Info:
            Public Key Algorithm: rsaEncryption
                Public-Key: (2048 bit)
                Modulus:
                    00:ea:7b:a9:80:97:c6:ba:e4:b5:76:f0:fd:04:2f:
                    a2:2f:cf:db:d7:33:b9:8c:a2:1a:6f:2b:f9:73:36:
                    bf:b5:4e:56:45:25:90:ad:80:e3:2e:99:c0:09:af:
                    7b:67:8d:62:71:b4:76:5a:8a:64:44:ac:bc:7a:e8:
                    a4:c5:08:f2:f7:2c:d1:b8:6f:93:10:b2:74:15:0b:
                    88:15:92:a3:2b:d7:e3:57:0f:4d:d0:7e:47:c7:6b:
                    f3:5d:0e:41:d6:fb:4d:d3:0c:95:6a:07:00:86:65:
                    6c:18:f1:cf:9d:f4:db:59:1a:49:5c:3b:a7:cb:60:
                    9f:ed:76:ea:e6:be:ea:99:3a:4f:ac:52:7b:13:eb:
                    ad:4c:a2:e1:98:29:23:54:ac:d7:61:0e:ab:99:ea:
                    72:a7:fc:42:df:c0:e4:6f:2b:fd:89:c8:99:b4:cc:
                    ad:c0:bd:fe:8f:38:38:7a:8e:da:70:a2:5e:3f:07:
                    83:d3:f5:ce:0a:42:35:24:17:bc:cc:95:ba:86:bf:
                    69:43:e0:bb:36:75:90:43:db:94:21:7d:d5:f3:46:
                    12:4b:5a:bf:e5:13:a6:4d:32:54:82:2d:b2:9f:01:
                    2a:fa:a8:6c:67:9c:64:40:ad:2f:fc:c5:33:a4:ea:
                    53:6f:45:c2:b5:1e:92:b8:89:ae:76:51:d4:13:50:
                    fb:e1
                Exponent: 65537 (0x10001)
        X509v3 extensions:
            X509v3 Key Usage: critical
                Digital Signature, Key Encipherment
            X509v3 Extended Key Usage: 
                TLS Web Client Authentication, TLS Web Server Authentication
            X509v3 Basic Constraints: critical
                CA:TRUE
            X509v3 Authority Key Identifier: 
                keyid:01:02:03

            X509v3 Certificate Policies: 
                Policy: 2.23.140.1.2.2

            Authority Information Access: critical
                OCSP - URI:http://ss.symcd.com
                CA Issuers - URI:http://ss.symcb.com/ss.crt

    Signature Algorithm: sha256WithRSAEncryption
         1b:d7:15:ca:29:dc:1d:0d:2c:79:52:93:3a:8b:81:d0:72:e9:
         04:61:e4:db:d4:0b:0e:89:c0:a4:d2:fd:57:b9:45:ba:e8:9a:
         62:09:9a:9c:9c:7d:92:f2:54:d0:78:aa:da:93:26:62:da:56:
         12:63:71:74:21:57:fb:6e:b5:ed:71:3b:ca:44:cf:47:c9:a0:
         17:e8:e0:04:db:7d:d0:4d:17:62:7f:7e:bd:e2:60:0e:9d:d2:
         92:a1:58:ec:63:0f:92:3c:07:2b:df:27:a7:20:98:25:32:0e:
         fc:88:c0:28:25:36:2a:06:db:9e:29:6c:d5:bc:06:db:36:db:
         77:a4:79:3f:f9:2b:f0:94:41:8e:c5:da:f6:82:6c:e4:5c:14:
         7f:f1:4e:b2:ca:4c:e1:da:6f:86:57:01:45:d2:ce:63:74:0c:
         81:4e:a1:3c:22:86:54:ef:5d:80:6f:0e:8e:8d:8b:2c:41:e1:
         d5:8f:23:fe:a2:a6:a7:5d:c2:36:45:e8:61:a3:b3:27:d2:4c:
         b4:c7:84:da:92:dd:a6:54:d9:0c:cf:bd:02:75:4a:95:52:69:
         ef:4e:51:7f:09:41:03:45:41:41:23:c5:66:a2:71:71:ef:3a:
         55:e3:6e:38:98:6e:a0:93:58:60:fa:c0:9f:b1:15:1c:21:39:
         ec:75:4c:9a
-----BEGIN CERTIFICATE-----
MIIEHzCCAwegAwIBAgIFBDFmk+0wDQYJKoZIhvcNAQELBQAwUjELMAkGA1UEBhMC
VVMxFjAUBgNVBAoTDU1vdGhlciBOYXR1cmUxEzARBgNVBAsTCkV2ZXJ5dGhpbmcx
FjAUBgNVBAMTDU1vdGhlciBOYXR1cmUwHhcNMTcwODIzMjE1NzI2WhcNMTcxMTA0
MjE1NzI2WjCBiDELMAkGA1UEBhMCVVMxCzAJBgNVBAgTAkZMMRQwEgYDVQQHEwtU
YWxsYWhhc3NlZTEcMBoGA1UECRMTMzIxMCBIb2xseSBNaWxsIFJ1bjEOMAwGA1UE
ERMFMzAwNjIxGDAWBgNVBAoTD0V4dHJlbWUgRGlzY29yZDEOMAwGA1UECxMFQ2hh
b3MwggEiMA0GCSqGSIb3DQEBAQUAA4IBDwAwggEKAoIBAQDqe6mAl8a65LV28P0E
L6Ivz9vXM7mMohpvK/lzNr+1TlZFJZCtgOMumcAJr3tnjWJxtHZaimRErLx66KTF
CPL3LNG4b5MQsnQVC4gVkqMr1+NXD03QfkfHa/NdDkHW+03TDJVqBwCGZWwY8c+d
9NtZGklcO6fLYJ/tdurmvuqZOk+sUnsT661MouGYKSNUrNdhDquZ6nKn/ELfwORv
K/2JyJm0zK3Avf6PODh6jtpwol4/B4PT9c4KQjUkF7zMlbqGv2lD4Ls2dZBD25Qh
fdXzRhJLWr/lE6ZNMlSCLbKfASr6qGxnnGRArS/8xTOk6lNvRcK1HpK4ia52UdQT
UPvhAgMBAAGjgcQwgcEwDgYDVR0PAQH/BAQDAgWgMB0GA1UdJQQWMBQGCCsGAQUF
BwMCBggrBgEFBQcDATAPBgNVHRMBAf8EBTADAQH/MA4GA1UdIwQHMAWAAwECAzAT
BgNVHSAEDDAKMAgGBmeBDAECAjBaBggrBgEFBQcBAQEB/wRLMEkwHwYIKwYBBQUH
MAGGE2h0dHA6Ly9zcy5zeW1jZC5jb20wJgYIKwYBBQUHMAKGGmh0dHA6Ly9zcy5z
eW1jYi5jb20vc3MuY3J0MA0GCSqGSIb3DQEBCwUAA4IBAQAb1xXKKdwdDSx5UpM6
i4HQcukEYeTb1AsOicCk0v1XuUW66JpiCZqcnH2S8lTQeKrakyZi2lYSY3F0IVf7
brXtcTvKRM9HyaAX6OAE233QTRdif3694mAOndKSoVjsYw+SPAcr3yenIJglMg78
iMAoJTYqBtueKWzVvAbbNtt3pHk/+SvwlEGOxdr2gmzkXBR/8U6yykzh2m+GVwFF
0s5jdAyBTqE8IoZU712Abw6OjYssQeHVjyP+oqanXcI2Rehho7Mn0ky0x4Takt2m
VNkMz70CdUqVUmnvTlF/CUEDRUFBI8VmonFx7zpV4244mG6gk1hg+sCfsRUcITns
dUya
-----END CERTIFICATE-----
