Certificate:
    Data:
        Version: 3 (0x2)
        Serial Number: 14615016 (0xdf01e8)
    Signature Algorithm: sha256WithRSAEncryption
        Issuer: C = US, O = Mother Nature, OU = Everything, CN = Mother Nature
        Validity
            Not Before: Aug  5 15:17:04 2016 GMT
            Not After : Oct 17 15:17:04 2016 GMT
        Subject: C = US, ST = FL, L = Tallahassee, street = 3210 Holly Mill Run, postalCode = 30062, O = Extreme Discord, OU = Chaos, CN = gov.us
        Subject Public Key Info:
            Public Key Algorithm: rsaEncryption
                Public-Key: (2048 bit)
                Modulus:
                    00:bf:a2:8e:58:ab:82:82:1c:c6:b8:65:fb:0a:ef:
                    ca:32:fd:57:e4:b3:bf:0b:da:16:99:99:5b:49:11:
                    fe:a2:15:2c:2c:6b:e2:ca:7f:11:a2:50:75:2d:eb:
                    ad:84:e5:b9:d8:11:c0:84:56:3f:b4:4c:31:46:90:
                    5f:e1:9c:7a:b3:c1:11:8e:01:6f:b7:e8:93:cf:b5:
                    4d:b4:0e:cf:3e:41:2a:40:38:49:a6:f9:f2:6b:3c:
                    36:51:5a:cc:60:48:84:22:da:be:99:40:fe:b7:a8:
                    03:70:0f:3e:33:d8:0b:e3:7e:b9:4a:f0:e0:11:f8:
                    43:ff:7a:c6:26:a6:29:44:06:e4:1d:95:d5:8f:39:
                    4f:da:5b:b7:94:82:96:22:50:65:11:da:f9:a8:53:
                    5d:07:df:75:63:1f:2e:b0:b1:b3:4a:e0:16:6b:7f:
                    1e:22:30:0e:dd:1a:00:23:10:3d:39:86:49:6a:57:
                    e4:d4:d9:43:e6:01:83:86:c7:7b:33:e5:3a:b8:1d:
                    16:6c:ce:d3:c5:90:17:56:cf:36:b2:6e:2f:71:4b:
                    00:1c:2b:fb:e9:df:d7:42:1f:5e:73:80:56:7b:17:
                    b0:6e:50:1d:55:32:58:f2:39:10:cf:c1:8d:04:b0:
                    77:8f:a3:3e:e4:40:db:58:d7:97:64:3b:dd:32:fc:
                    fe:d9
                Exponent: 65537 (0x10001)
        X509v3 extensions:
            X509v3 Basic Constraints: critical
                CA:FALSE
            X509v3 Authority Key Identifier: 
                keyid:01:02:03

            Authority Information Access: 
                OCSP - URI:http://theca.net/ocsp
                CA Issuers - URI:ldap://theca.net/totallythecert.crt

            X509v3 CRL Distribution Points: 

                Full Name:
                  URI:ldap://theca.net/crlpoint

            X509v3 Subject Key Identifier: 
                04:03:02:01
            X509v3 Subject Alternative Name: 
                DNS:*.gov.us, DNS:gov.us
            X509v3 Key Usage: 
                Data Encipherment, Key Agreement
            X509v3 Extended Key Usage: 
                TLS Web Server Authentication, 1.2.840.113635.100.4.3, Signing KDC Response, Any Extended Key Usage
            X509v3 Certificate Policies: 
                Policy: 2.16.840.1.114414.1.7.23.1
                  CPS: http://certificates.starfieldtech.com/repository/

    Signature Algorithm: sha256WithRSAEncryption
         b5:6e:95:57:4a:6c:f7:fc:b6:9f:ac:fe:72:a7:8f:79:a3:3c:
         ce:d5:11:83:d1:ae:d8:9b:71:d3:79:22:a2:c7:07:c5:9e:f1:
         45:66:39:76:cb:4d:c7:3e:4e:7b:b0:e5:0b:b3:40:b5:16:97:
         96:97:cd:73:6a:66:55:93:5c:a7:1f:e5:bd:1e:70:e8:17:67:
         23:2b:1a:09:90:da:e8:c8:c6:d8:63:76:2f:3c:dc:da:5c:50:
         3b:d5:c3:c9:43:b3:04:4a:ff:2c:ac:b0:0c:ff:69:aa:06:68:
         dc:ee:e6:9b:b5:42:e8:da:b5:b6:fd:07:1a:48:99:6b:64:8a:
         39:f3:b0:2e:4f:ad:69:e8:67:25:78:19:6f:6f:5d:22:c9:7c:
         77:5e:1f:3d:e2:56:e3:7b:69:4e:8b:5b:fe:65:00:de:1a:8d:
         2d:7e:e7:95:4b:cb:f0:6d:3b:d4:71:0a:b3:50:aa:1b:8f:d4:
         71:42:70:63:80:81:a1:26:02:d5:0f:76:eb:db:92:b3:9c:b6:
         79:83:64:f8:76:70:97:34:06:76:ba:f3:5d:58:cb:b5:1d:8e:
         cc:b7:e5:a0:cb:09:ef:6b:60:94:b8:08:93:94:cb:48:45:01:
         4a:a5:68:02:fe:1f:b2:5b:a0:79:84:13:19:dc:6b:f1:10:f6:
         c2:e5:c2:ab
-----BEGIN CERTIFICATE-----
MIIE4TCCA8mgAwIBAgIEAN8B6DANBgkqhkiG9w0BAQsFADBSMQswCQYDVQQGEwJV
UzEWMBQGA1UEChMNTW90aGVyIE5hdHVyZTETMBEGA1UECxMKRXZlcnl0aGluZzEW
MBQGA1UEAxMNTW90aGVyIE5hdHVyZTAeFw0xNjA4MDUxNTE3MDRaFw0xNjEwMTcx
NTE3MDRaMIGZMQswCQYDVQQGEwJVUzELMAkGA1UECBMCRkwxFDASBgNVBAcTC1Rh
bGxhaGFzc2VlMRwwGgYDVQQJExMzMjEwIEhvbGx5IE1pbGwgUnVuMQ4wDAYDVQQR
EwUzMDA2MjEYMBYGA1UEChMPRXh0cmVtZSBEaXNjb3JkMQ4wDAYDVQQLEwVDaGFv
czEPMA0GA1UEAxMGZ292LnVzMIIBIjANBgkqhkiG9w0BAQEFAAOCAQ8AMIIBCgKC
AQEAv6KOWKuCghzGuGX7Cu/KMv1X5LO/C9oWmZlbSRH+ohUsLGviyn8RolB1Leut
hOW52BHAhFY/tEwxRpBf4Zx6s8ERjgFvt+iTz7VNtA7PPkEqQDhJpvnyazw2UVrM
YEiEItq+mUD+t6gDcA8+M9gL4365SvDgEfhD/3rGJqYpRAbkHZXVjzlP2lu3lIKW
IlBlEdr5qFNdB991Yx8usLGzSuAWa38eIjAO3RoAIxA9OYZJalfk1NlD5gGDhsd7
M+U6uB0WbM7TxZAXVs82sm4vcUsAHCv76d/XQh9ec4BWexewblAdVTJY8jkQz8GN
BLB3j6M+5EDbWNeXZDvdMvz+2QIDAQABo4IBdTCCAXEwDAYDVR0TAQH/BAIwADAO
BgNVHSMEBzAFgAMBAgMwYgYIKwYBBQUHAQEEVjBUMCEGCCsGAQUFBzABhhVodHRw
Oi8vdGhlY2EubmV0L29jc3AwLwYIKwYBBQUHMAKGI2xkYXA6Ly90aGVjYS5uZXQv
dG90YWxseXRoZWNlcnQuY3J0MCoGA1UdHwQjMCEwH6AdoBuGGWxkYXA6Ly90aGVj
YS5uZXQvY3JscG9pbnQwDQYDVR0OBAYEBAQDAgEwGwYDVR0RBBQwEoIIKi5nb3Yu
dXOCBmdvdi51czALBgNVHQ8EBAMCARgwLQYDVR0lBCYwJAYIKwYBBQUHAwEGCSqG
SIb3Y2QEAwYHKwYBBQIDBQYEVR0lADBZBgNVHSAEUjBQME4GC2CGSAGG/W4BBxcB
MD8wPQYIKwYBBQUHAgEWMWh0dHA6Ly9jZXJ0aWZpY2F0ZXMuc3RhcmZpZWxkdGVj
aC5jb20vcmVwb3NpdG9yeS8wDQYJKoZIhvcNAQELBQADggEBALVulVdKbPf8tp+s
/nKnj3mjPM7VEYPRrtibcdN5IqLHB8We8UVmOXbLTcc+Tnuw5QuzQLUWl5aXzXNq
ZlWTXKcf5b0ecOgXZyMrGgmQ2ujIxthjdi883NpcUDvVw8lDswRK/yyssAz/aaoG
aNzu5pu1Qujatbb9BxpImWtkijnzsC5PrWnoZyV4GW9vXSLJfHdeHz3iVuN7aU6L
W/5lAN4ajS1+55VLy/BtO9RxCrNQqhuP1HFCcGOAgaEmAtUPduvbkrOctnmDZPh2
cJc0Bna6811Yy7Udjsy35aDLCe9rYJS4CJOUy0hFAUqlaAL+H7JboHmEExnca/EQ
9sLlwqs=
-----END CERTIFICATE-----
