Certificate:
    Data:
        Version: 3 (0x2)
        Serial Number: 18008675309 (0x4316693ed)
    Signature Algorithm: sha256WithRSAEncryption
        Issuer: C = US, O = Mother Nature, OU = Everything, CN = Mother Nature
        Validity
            Not Before: Jun 30 19:03:41 2016 GMT
            Not After : Sep 11 19:03:41 2016 GMT
        Subject: C = US, ST = FL, L = Tallahassee, street = 3210 Holly Mill Run, postalCode = 30062, O = Extreme Discord, OU = Chaos, CN = gov.us
        Subject Public Key Info:
            Public Key Algorithm: rsaEncryption
                Public-Key: (2048 bit)
                Modulus:
                    00:c7:65:ed:f8:6f:4b:0a:81:e0:0f:85:70:6e:3a:
                    a3:9a:64:c4:84:79:1d:93:b3:98:9d:7c:41:14:a4:
                    40:22:d1:0d:46:4f:d0:dd:8e:de:36:8f:69:f6:5f:
                    34:31:a2:5a:a0:20:7a:7b:d4:34:84:03:33:ee:c6:
                    f2:4d:13:65:9c:b8:ad:3c:e2:c6:4b:d1:b2:e6:d5:
                    6f:ea:38:61:05:82:57:9f:1c:f9:64:76:1d:a1:c9:
                    63:e1:78:cd:1a:04:05:ac:d2:a7:8d:de:44:e2:42:
                    62:7c:ac:25:b1:6c:4d:37:07:ea:8c:95:0b:ce:0f:
                    35:82:4e:49:99:86:d7:4a:b3:72:60:0c:67:94:76:
                    f5:d7:94:f9:2d:02:38:91:f9:cd:a1:96:89:65:a4:
                    77:c6:50:a2:53:95:5c:fa:a3:98:4c:b6:05:e2:7a:
                    dd:96:d8:35:cd:fe:e9:0b:6f:4f:d6:0d:f8:05:8f:
                    b4:52:29:7b:8e:b5:93:d9:2f:ec:23:96:e2:20:92:
                    33:82:31:ec:81:ac:de:8f:0c:7c:72:1e:d0:ca:b4:
                    b8:d5:7d:a9:10:73:5f:11:f5:cd:e1:f5:98:22:9b:
                    13:4f:4a:42:dd:9b:c4:f3:c6:a2:9e:84:37:bb:65:
                    cc:6d:ee:1e:38:8b:c2:11:0b:08:d6:21:44:39:91:
                    b0:43
                Exponent: 65537 (0x10001)
        X509v3 extensions:
            X509v3 Extended Key Usage: 
                TLS Web Client Authentication, TLS Web Server Authentication
            X509v3 Basic Constraints: critical
                CA:TRUE
            X509v3 Authority Key Identifier: 
                keyid:01:02:03

            Authority Information Access: 
                OCSP - URI:http://theca.net/ocsp
                CA Issuers - URI:http://theca.net/totallythecert.crt

            X509v3 Certificate Policies: 
                Policy: 2.23.140.1.2.2

            X509v3 Subject Key Identifier: 
                04:03:02:01
            X509v3 Subject Alternative Name: 
                DNS:*.gov.us, DNS:gov.us
            X509v3 Key Usage: 
                Certificate Sign
    Signature Algorithm: sha256WithRSAEncryption
         b3:17:e4:b0:6a:e8:67:a9:da:80:ce:7f:6a:e8:3a:84:2c:d7:
         fd:20:2d:c9:18:87:ca:bc:a7:3b:42:7a:dc:40:60:2d:4b:3f:
         55:fa:25:01:6d:cb:b3:25:29:60:f3:af:42:34:2d:3f:18:32:
         2b:0c:94:5e:55:37:22:8c:37:73:c7:b3:9e:04:01:84:6a:5b:
         94:5d:b6:c0:95:65:7c:0a:69:08:33:fa:ee:4a:a7:5b:ea:08:
         6f:5f:1f:28:46:43:0f:6e:dd:05:9a:ba:6b:a0:e5:f2:70:e3:
         9d:06:1e:db:33:85:eb:c2:44:81:3d:83:1f:02:52:99:78:34:
         cf:d5:8e:63:23:a1:fa:b9:02:24:cc:7a:ad:fc:5b:ba:98:a1:
         cf:d1:fc:6a:d1:1c:ab:29:f3:7a:9c:aa:8f:dd:46:92:26:46:
         41:cd:3c:af:5d:fc:67:ff:0b:14:88:7c:a4:3b:27:6b:35:21:
         fd:c0:5e:f8:db:d7:f4:b9:ec:8c:66:36:12:26:f2:6f:39:2e:
         b3:51:93:1c:41:e3:69:a9:4a:8f:9a:0b:57:ac:47:e5:d2:a9:
         76:7a:b9:ad:08:ee:34:00:05:85:f1:cb:4e:7b:02:53:c7:99:
         cb:f0:2d:90:aa:66:87:f2:ac:ac:72:07:a6:3f:64:73:0a:b1:
         89:98:5a:2a
-----BEGIN CERTIFICATE-----
MIIEYTCCA0mgAwIBAgIFBDFmk+0wDQYJKoZIhvcNAQELBQAwUjELMAkGA1UEBhMC
VVMxFjAUBgNVBAoTDU1vdGhlciBOYXR1cmUxEzARBgNVBAsTCkV2ZXJ5dGhpbmcx
FjAUBgNVBAMTDU1vdGhlciBOYXR1cmUwHhcNMTYwNjMwMTkwMzQxWhcNMTYwOTEx
MTkwMzQxWjCBmTELMAkGA1UEBhMCVVMxCzAJBgNVBAgTAkZMMRQwEgYDVQQHEwtU
YWxsYWhhc3NlZTEcMBoGA1UECRMTMzIxMCBIb2xseSBNaWxsIFJ1bjEOMAwGA1UE
ERMFMzAwNjIxGDAWBgNVBAoTD0V4dHJlbWUgRGlzY29yZDEOMAwGA1UECxMFQ2hh
b3MxDzANBgNVBAMTBmdvdi51czCCASIwDQYJKoZIhvcNAQEBBQADggEPADCCAQoC
ggEBAMdl7fhvSwqB4A+FcG46o5pkxIR5HZOzmJ18QRSkQCLRDUZP0N2O3jaPafZf
NDGiWqAgenvUNIQDM+7G8k0TZZy4rTzixkvRsubVb+o4YQWCV58c+WR2HaHJY+F4
zRoEBazSp43eROJCYnysJbFsTTcH6oyVC84PNYJOSZmG10qzcmAMZ5R29deU+S0C
OJH5zaGWiWWkd8ZQolOVXPqjmEy2BeJ63ZbYNc3+6QtvT9YN+AWPtFIpe461k9kv
7COW4iCSM4Ix7IGs3o8MfHIe0Mq0uNV9qRBzXxH1zeH1mCKbE09KQt2bxPPGop6E
N7tlzG3uHjiLwhELCNYhRDmRsEMCAwEAAaOB9TCB8jAdBgNVHSUEFjAUBggrBgEF
BQcDAgYIKwYBBQUHAwEwDwYDVR0TAQH/BAUwAwEB/zAOBgNVHSMEBzAFgAMBAgMw
YgYIKwYBBQUHAQEEVjBUMCEGCCsGAQUFBzABhhVodHRwOi8vdGhlY2EubmV0L29j
c3AwLwYIKwYBBQUHMAKGI2h0dHA6Ly90aGVjYS5uZXQvdG90YWxseXRoZWNlcnQu
Y3J0MBMGA1UdIAQMMAowCAYGZ4EMAQICMA0GA1UdDgQGBAQEAwIBMBsGA1UdEQQU
MBKCCCouZ292LnVzggZnb3YudXMwCwYDVR0PBAQDAgEEMA0GCSqGSIb3DQEBCwUA
A4IBAQCzF+SwauhnqdqAzn9q6DqELNf9IC3JGIfKvKc7QnrcQGAtSz9V+iUBbcuz
JSlg869CNC0/GDIrDJReVTcijDdzx7OeBAGEaluUXbbAlWV8CmkIM/ruSqdb6ghv
Xx8oRkMPbt0FmrproOXycOOdBh7bM4XrwkSBPYMfAlKZeDTP1Y5jI6H6uQIkzHqt
/Fu6mKHP0fxq0RyrKfN6nKqP3UaSJkZBzTyvXfxn/wsUiHykOydrNSH9wF7429f0
ueyMZjYSJvJvOS6zUZMcQeNpqUqPmgtXrEfl0ql2ermtCO40AAWF8ctOewJTx5nL
8C2QqmaH8qyscgemP2RzCrGJmFoq
-----END CERTIFICATE-----
