Certificate:
    Data:
        Version: 3 (0x2)
        Serial Number: 18008675309 (0x4316693ed)
    Signature Algorithm: sha256WithRSAEncryption
        Issuer: C = US, O = Mother Nature, OU = Everything, CN = Mother Nature
        Validity
            Not Before: Jun 30 16:33:28 2016 GMT
            Not After : Sep 11 16:33:28 2016 GMT
        Subject: C = US, ST = FL, L = Tallahassee, street = 3210 Holly Mill Run, postalCode = 30062, O = Extreme Discord, OU = Chaos, CN = gov.us
        Subject Public Key Info:
            Public Key Algorithm: rsaEncryption
                Public-Key: (2048 bit)
                Modulus:
                    00:ab:58:af:2d:70:a7:d1:af:09:4b:18:6e:90:f6:
                    51:10:fa:7b:10:03:26:17:5f:e6:fe:7d:ba:8c:cd:
                    33:d7:23:49:74:89:63:a8:e0:bc:54:6a:10:76:a9:
                    8d:66:91:41:b2:05:ec:5a:3b:fc:d9:bb:42:d1:c2:
                    24:82:14:6b:c7:cb:83:6b:ae:dc:bc:8d:8b:02:ca:
                    ca:86:d2:0a:53:01:fe:6a:10:b5:48:5b:ce:d2:e2:
                    fa:fd:b2:d8:c2:44:68:61:6a:7b:15:5f:0d:95:76:
                    6a:65:da:7d:aa:61:e4:d3:f3:94:86:0e:11:05:3f:
                    ff:7a:92:40:4a:1c:14:b8:66:b8:cd:79:9e:67:1c:
                    32:3f:ec:76:8d:fb:8b:1a:a5:2a:32:09:19:ef:e7:
                    27:cc:9a:6f:18:15:d3:dd:56:82:de:ab:7d:3e:ad:
                    0f:c8:5c:21:c8:1d:c7:31:63:ba:c6:ee:07:92:d1:
                    66:cd:e0:dc:74:05:b2:e5:36:3d:a5:26:0f:0a:7d:
                    f6:cb:20:6d:67:7c:4b:e4:9f:a9:34:a3:01:e7:d1:
                    65:c2:e9:54:8d:4d:d3:01:3f:80:71:97:e3:08:db:
                    c8:12:fb:e7:0c:7d:96:2d:e6:78:af:77:fc:63:65:
                    d8:83:21:7e:5a:15:ce:c7:93:9f:8c:84:35:db:7c:
                    07:bf
                Exponent: 65537 (0x10001)
        X509v3 extensions:
            X509v3 Extended Key Usage: 
                TLS Web Client Authentication, TLS Web Server Authentication
            X509v3 Basic Constraints: critical
                CA:TRUE
            X509v3 Authority Key Identifier: 
                keyid:01:02:03

            Authority Information Access: 
                OCSP - URI:http://theca.net/ocsp
                CA Issuers - URI:http://theca.net/totallythecert.crt

            X509v3 Certificate Policies: 
                Policy: 2.23.140.1.2.2

            X509v3 Subject Key Identifier: 
                04:03:02:01
            X509v3 Subject Alternative Name: 
                DNS:*.gov.us, DNS:gov.us
            X509v3 Key Usage: critical
                Certificate Sign, CRL Sign
    Signature Algorithm: sha256WithRSAEncryption
         33:20:6b:e3:e5:e4:0b:ae:fb:cd:c3:84:db:b7:98:6f:41:80:
         b3:de:a2:eb:c5:b6:da:5f:53:af:2a:98:fb:c2:58:41:6f:0a:
         04:7e:6e:43:09:d1:70:ce:cf:1a:9b:27:50:14:0b:a2:d6:c2:
         8e:2d:4c:27:1a:25:41:74:7d:21:10:23:b9:29:c1:fa:ea:ed:
         86:ed:a8:bf:16:a6:f8:58:ee:62:7c:9a:d4:fd:8d:ab:6c:7a:
         16:27:39:15:94:dd:42:85:c6:b3:1a:d5:67:1a:b7:c8:a2:55:
         f3:bc:33:07:7b:2f:cc:be:00:32:99:6e:6c:6c:40:44:3c:f3:
         bd:63:4f:6c:44:00:a3:f7:b9:08:3b:0b:bf:ee:41:e0:4c:4e:
         9c:c1:3d:ce:64:d9:68:ad:cc:b7:49:98:a2:d6:5a:12:51:96:
         64:2b:07:8f:5b:6e:32:58:47:ff:61:62:62:31:30:1f:2f:f3:
         77:f0:a3:7c:81:3b:e7:80:83:9c:28:24:5d:18:d3:af:1b:53:
         24:ae:dd:03:40:44:46:6e:fd:0e:5f:4c:cb:8a:60:01:bf:38:
         68:0f:bd:e9:61:d3:09:f8:e4:6b:24:97:d7:2b:77:93:b2:96:
         4b:70:7b:25:dd:86:a6:d1:47:ad:6f:07:a8:74:41:02:33:32:
         6f:e3:4f:dc
-----BEGIN CERTIFICATE-----
MIIEZDCCA0ygAwIBAgIFBDFmk+0wDQYJKoZIhvcNAQELBQAwUjELMAkGA1UEBhMC
VVMxFjAUBgNVBAoTDU1vdGhlciBOYXR1cmUxEzARBgNVBAsTCkV2ZXJ5dGhpbmcx
FjAUBgNVBAMTDU1vdGhlciBOYXR1cmUwHhcNMTYwNjMwMTYzMzI4WhcNMTYwOTEx
MTYzMzI4WjCBmTELMAkGA1UEBhMCVVMxCzAJBgNVBAgTAkZMMRQwEgYDVQQHEwtU
YWxsYWhhc3NlZTEcMBoGA1UECRMTMzIxMCBIb2xseSBNaWxsIFJ1bjEOMAwGA1UE
ERMFMzAwNjIxGDAWBgNVBAoTD0V4dHJlbWUgRGlzY29yZDEOMAwGA1UECxMFQ2hh
b3MxDzANBgNVBAMTBmdvdi51czCCASIwDQYJKoZIhvcNAQEBBQADggEPADCCAQoC
ggEBAKtYry1wp9GvCUsYbpD2URD6exADJhdf5v59uozNM9cjSXSJY6jgvFRqEHap
jWaRQbIF7Fo7/Nm7QtHCJIIUa8fLg2uu3LyNiwLKyobSClMB/moQtUhbztLi+v2y
2MJEaGFqexVfDZV2amXafaph5NPzlIYOEQU//3qSQEocFLhmuM15nmccMj/sdo37
ixqlKjIJGe/nJ8yabxgV091Wgt6rfT6tD8hcIcgdxzFjusbuB5LRZs3g3HQFsuU2
PaUmDwp99ssgbWd8S+SfqTSjAefRZcLpVI1N0wE/gHGX4wjbyBL75wx9li3meK93
/GNl2IMhfloVzseTn4yENdt8B78CAwEAAaOB+DCB9TAdBgNVHSUEFjAUBggrBgEF
BQcDAgYIKwYBBQUHAwEwDwYDVR0TAQH/BAUwAwEB/zAOBgNVHSMEBzAFgAMBAgMw
YgYIKwYBBQUHAQEEVjBUMCEGCCsGAQUFBzABhhVodHRwOi8vdGhlY2EubmV0L29j
c3AwLwYIKwYBBQUHMAKGI2h0dHA6Ly90aGVjYS5uZXQvdG90YWxseXRoZWNlcnQu
Y3J0MBMGA1UdIAQMMAowCAYGZ4EMAQICMA0GA1UdDgQGBAQEAwIBMBsGA1UdEQQU
MBKCCCouZ292LnVzggZnb3YudXMwDgYDVR0PAQH/BAQDAgEGMA0GCSqGSIb3DQEB
CwUAA4IBAQAzIGvj5eQLrvvNw4Tbt5hvQYCz3qLrxbbaX1OvKpj7wlhBbwoEfm5D
CdFwzs8amydQFAui1sKOLUwnGiVBdH0hECO5KcH66u2G7ai/Fqb4WO5ifJrU/Y2r
bHoWJzkVlN1ChcazGtVnGrfIolXzvDMHey/MvgAymW5sbEBEPPO9Y09sRACj97kI
Owu/7kHgTE6cwT3OZNlorcy3SZii1loSUZZkKwePW24yWEf/YWJiMTAfL/N38KN8
gTvngIOcKCRdGNOvG1Mkrt0DQERGbv0OX0zLimABvzhoD73pYdMJ+ORrJJfXK3eT
spZLcHsl3Yam0UetbweodEECMzJv40/c
-----END CERTIFICATE-----
