Certificate:
    Data:
        Version: 3 (0x2)
        Serial Number: 18008675309 (0x4316693ed)
    Signature Algorithm: sha256WithRSAEncryption
        Issuer: C = US, O = Mother Nature, OU = Everything, CN = Mother Nature
        Validity
            Not Before: Jan  1 00:00:00 2010 GMT
            Not After : Jan  1 00:00:00 2013 GMT
        Subject: C = US, O = Extreme Discord, OU = Chaos, L = Tallahassee, ST = FL, street = 3210 Holly Mill Run, postalCode = 30062, CN = gov.us
        Subject Public Key Info:
            Public Key Algorithm: rsaEncryption
                Public-Key: (512 bit)
                Modulus:
                    00:d4:82:c9:33:7d:6f:39:03:0c:f6:03:68:d2:a8:
                    ba:7b:1e:fd:e8:98:a7:0a:e0:d2:f9:a2:62:23:7d:
                    6f:a7:be:c8:c0:b8:c9:fc:f5:6b:99:a6:59:50:c6:
                    22:a5:88:b9:04:90:73:b3:ca:01:4f:47:01:8e:3e:
                    6b:c9:03:f9:d1
                Exponent: 65537 (0x10001)
        X509v3 extensions:
            X509v3 Key Usage: critical
                Digital Signature, Key Encipherment
            X509v3 Extended Key Usage: 
                TLS Web Client Authentication, TLS Web Server Authentication
            X509v3 Basic Constraints: critical
                CA:TRUE, pathlen:1
            X509v3 Authority Key Identifier: 
                keyid:01:02:03

            Authority Information Access: 
                OCSP - URI:http://theca.net/ocsp
                CA Issuers - URI:http://theca.net/totallythecert.crt

            X509v3 Certificate Policies: 
                Policy: 2.23.140.1.2.2

            X509v3 Subject Key Identifier: 
                04:03:02:01
            X509v3 Subject Alternative Name: 
                URI:, DNS:ˬ
            X509v3 Inhibit Any Policy: 
                ..
            Subject Information Access: 
                ..
    Signature Algorithm: sha256WithRSAEncryption
         48:f7:cc:03:d3:c9:e0:82:bb:bc:fd:02:61:da:de:97:aa:5b:
         e7:39:26:1c:87:cc:72:c2:1b:54:b9:04:0d:3f:91:9f:ee:05:
         cc:0b:26:3d:2a:3f:29:9d:65:6f:07:73:8a:47:38:68:3f:89:
         ef:e8:86:bd:73:12:0a:db:27:ff
-----BEGIN CERTIFICATE-----
MIIC7jCCApigAwIBAgIFBDFmk+0wDQYJKoZIhvcNAQELBQAwUjELMAkGA1UEBhMC
VVMxFjAUBgNVBAoTDU1vdGhlciBOYXR1cmUxEzARBgNVBAsTCkV2ZXJ5dGhpbmcx
FjAUBgNVBAMTDU1vdGhlciBOYXR1cmUwHhcNMTAwMTAxMDAwMDAwWhcNMTMwMTAx
MDAwMDAwWjCBmTELMAkGA1UEBhMCVVMxGDAWBgNVBAoTD0V4dHJlbWUgRGlzY29y
ZDEOMAwGA1UECxMFQ2hhb3MxFDASBgNVBAcTC1RhbGxhaGFzc2VlMQswCQYDVQQI
EwJGTDEcMBoGA1UECRMTMzIxMCBIb2xseSBNaWxsIFJ1bjEOMAwGA1UEERMFMzAw
NjIxDzANBgNVBAMTBmdvdi51czBcMA0GCSqGSIb3DQEBAQUAA0sAMEgCQQDUgskz
fW85Awz2A2jSqLp7Hv3omKcK4NL5omIjfW+nvsjAuMn89WuZpllQxiKliLkEkHOz
ygFPRwGOPmvJA/nRAgMBAAGjggELMIIBBzAOBgNVHQ8BAf8EBAMCBaAwHQYDVR0l
BBYwFAYIKwYBBQUHAwIGCCsGAQUFBwMBMBIGA1UdEwEB/wQIMAYBAf8CAQEwDgYD
VR0jBAcwBYADAQIDMGIGCCsGAQUFBwEBBFYwVDAhBggrBgEFBQcwAYYVaHR0cDov
L3RoZWNhLm5ldC9vY3NwMC8GCCsGAQUFBzAChiNodHRwOi8vdGhlY2EubmV0L3Rv
dGFsbHl0aGVjZXJ0LmNydDATBgNVHSAEDDAKMAgGBmeBDAECAjANBgNVHQ4EBgQE
BAMCATAPBgNVHREECDAGhgCCAsCoMAkGA1UdNgQCAgEwDgYIKwYBBQUHAQsEAgIB
MA0GCSqGSIb3DQEBCwUAA0EASPfMA9PJ4IK7vP0CYdrel6pb5zkmHIfMcsIbVLkE
DT+Rn+4FzAsmPSo/KZ1lbwdzikc4aD+J7+iGvXMSCtsn/w==
-----END CERTIFICATE-----
