Certificate:
    Data:
        Version: 3 (0x2)
        Serial Number: 18008675309 (0x4316693ed)
    Signature Algorithm: sha256WithRSAEncryption
        Issuer: C = US, O = Mother Nature, OU = Everything, CN = Mother Nature
        Validity
            Not Before: Jan  1 00:00:00 2010 GMT
            Not After : Jan  1 00:00:00 2013 GMT
        Subject: C = US, O = Extreme Discord, OU = Chaos, L = Tallahassee, ST = FL, street = 3210 Holly Mill Run, postalCode = 30062, CN = gov.us
        Subject Public Key Info:
            Public Key Algorithm: rsaEncryption
                Public-Key: (512 bit)
                Modulus:
                    00:a5:52:ea:e6:fb:92:e1:ce:c4:94:c6:5d:5c:88:
                    03:6a:da:78:17:e0:b0:e2:fc:e0:4e:5a:94:7e:50:
                    72:5e:41:3f:66:60:67:83:ca:fc:8f:2f:da:bd:29:
                    f2:f4:50:df:e2:1e:b4:83:61:76:81:4c:27:10:c0:
                    92:e8:26:1c:cd
                Exponent: 65537 (0x10001)
        X509v3 extensions:
            X509v3 Key Usage: critical
                Digital Signature, Key Encipherment, Certificate Sign
            X509v3 Extended Key Usage: 
                TLS Web Client Authentication, TLS Web Server Authentication
            X509v3 Basic Constraints: critical
                CA:TRUE, pathlen:-5
            X509v3 Authority Key Identifier: 
                keyid:01:02:03

            Authority Information Access: 
                OCSP - URI:http://theca.net/ocsp
                CA Issuers - URI:http://theca.net/totallythecert.crt

            X509v3 Certificate Policies: 
                Policy: 2.23.140.1.2.2

            X509v3 Subject Key Identifier: 
                04:03:02:01
            X509v3 Subject Alternative Name: 
                URI:, DNS:ˬ
            X509v3 Inhibit Any Policy: 
                ..
            Subject Information Access: 
                ..
    Signature Algorithm: sha256WithRSAEncryption
         84:38:46:4b:53:89:05:4d:79:d5:a7:7a:a5:f2:f3:95:86:44:
         5c:70:8b:a4:a5:84:66:3d:07:44:06:62:80:8e:39:06:81:0b:
         81:55:2c:f0:e3:aa:4f:4e:bd:29:c0:49:e8:12:d2:01:03:02:
         58:1f:be:4a:30:6e:6e:63:ef:f9
-----BEGIN CERTIFICATE-----
MIIC7jCCApigAwIBAgIFBDFmk+0wDQYJKoZIhvcNAQELBQAwUjELMAkGA1UEBhMC
VVMxFjAUBgNVBAoTDU1vdGhlciBOYXR1cmUxEzARBgNVBAsTCkV2ZXJ5dGhpbmcx
FjAUBgNVBAMTDU1vdGhlciBOYXR1cmUwHhcNMTAwMTAxMDAwMDAwWhcNMTMwMTAx
MDAwMDAwWjCBmTELMAkGA1UEBhMCVVMxGDAWBgNVBAoTD0V4dHJlbWUgRGlzY29y
ZDEOMAwGA1UECxMFQ2hhb3MxFDASBgNVBAcTC1RhbGxhaGFzc2VlMQswCQYDVQQI
EwJGTDEcMBoGA1UECRMTMzIxMCBIb2xseSBNaWxsIFJ1bjEOMAwGA1UEERMFMzAw
NjIxDzANBgNVBAMTBmdvdi51czBcMA0GCSqGSIb3DQEBAQUAA0sAMEgCQQClUurm
+5LhzsSUxl1ciANq2ngX4LDi/OBOWpR+UHJeQT9mYGeDyvyPL9q9KfL0UN/iHrSD
YXaBTCcQwJLoJhzNAgMBAAGjggELMIIBBzAOBgNVHQ8BAf8EBAMCAqQwHQYDVR0l
BBYwFAYIKwYBBQUHAwIGCCsGAQUFBwMBMBIGA1UdEwEB/wQIMAYBAf8CAfswDgYD
VR0jBAcwBYADAQIDMGIGCCsGAQUFBwEBBFYwVDAhBggrBgEFBQcwAYYVaHR0cDov
L3RoZWNhLm5ldC9vY3NwMC8GCCsGAQUFBzAChiNodHRwOi8vdGhlY2EubmV0L3Rv
dGFsbHl0aGVjZXJ0LmNydDATBgNVHSAEDDAKMAgGBmeBDAECAjANBgNVHQ4EBgQE
BAMCATAPBgNVHREECDAGhgCCAsCoMAkGA1UdNgQCAgEwDgYIKwYBBQUHAQsEAgIB
MA0GCSqGSIb3DQEBCwUAA0EAhDhGS1OJBU151ad6pfLzlYZEXHCLpKWEZj0HRAZi
gI45BoELgVUs8OOqT069KcBJ6BLSAQMCWB++SjBubmPv+Q==
-----END CERTIFICATE-----
