Certificate:
    Data:
        Version: 3 (0x2)
        Serial Number: 18008675309 (0x4316693ed)
    Signature Algorithm: sha256WithRSAEncryption
        Issuer: C = US, O = Mother Nature, OU = Everything, CN = Mother Nature
        Validity
            Not Before: Jan  1 00:00:00 2010 GMT
            Not After : Jan  1 00:00:00 2013 GMT
        Subject: C = US, O = Extreme Discord, OU = Chaos, L = Tallahassee, ST = FL, street = 3210 Holly Mill Run, postalCode = 30062, CN = gov.us
        Subject Public Key Info:
            Public Key Algorithm: rsaEncryption
                Public-Key: (512 bit)
                Modulus:
                    00:ce:a8:1a:1d:11:9b:d2:8d:39:29:c7:c4:89:65:
                    2e:51:d7:45:a9:4e:e9:47:4a:a7:9e:47:5e:86:8e:
                    f0:e4:a2:12:80:40:8b:3b:df:64:34:59:60:37:d8:
                    8b:ee:8d:75:c1:db:30:72:89:15:21:91:e8:54:4b:
                    86:b7:30:83:e1
                Exponent: 65537 (0x10001)
        X509v3 extensions:
            X509v3 Key Usage: critical
                Digital Signature, Key Encipherment
            X509v3 Extended Key Usage: 
                TLS Web Client Authentication, TLS Web Server Authentication
            X509v3 Basic Constraints: critical
                CA:TRUE
            X509v3 Authority Key Identifier: 
                keyid:01:02:03

            Authority Information Access: 
                OCSP - URI:http://theca.net/ocsp
                CA Issuers - URI:http://theca.net/totallythecert.crt

            X509v3 Certificate Policies: 
                Policy: 2.23.140.1.2.2

            X509v3 Subject Key Identifier: 
                04:03:02:01
            X509v3 Subject Alternative Name: 
                URI:, DNS:ˬ
            X509v3 Inhibit Any Policy: 
                ..
            Subject Information Access: 
                ..
    Signature Algorithm: sha256WithRSAEncryption
         5e:c3:11:b8:9e:00:66:a0:30:d0:29:35:74:a3:ce:6c:ce:25:
         53:57:4d:12:0e:a4:48:a9:33:24:21:55:bb:6f:33:50:93:4e:
         aa:57:91:96:a3:76:ad:fb:dc:90:c9:a2:95:c9:72:63:77:23:
         71:ae:80:7a:c5:c1:22:74:f0:c1
-----BEGIN CERTIFICATE-----
MIIC6zCCApWgAwIBAgIFBDFmk+0wDQYJKoZIhvcNAQELBQAwUjELMAkGA1UEBhMC
VVMxFjAUBgNVBAoTDU1vdGhlciBOYXR1cmUxEzARBgNVBAsTCkV2ZXJ5dGhpbmcx
FjAUBgNVBAMTDU1vdGhlciBOYXR1cmUwHhcNMTAwMTAxMDAwMDAwWhcNMTMwMTAx
MDAwMDAwWjCBmTELMAkGA1UEBhMCVVMxGDAWBgNVBAoTD0V4dHJlbWUgRGlzY29y
ZDEOMAwGA1UECxMFQ2hhb3MxFDASBgNVBAcTC1RhbGxhaGFzc2VlMQswCQYDVQQI
EwJGTDEcMBoGA1UECRMTMzIxMCBIb2xseSBNaWxsIFJ1bjEOMAwGA1UEERMFMzAw
NjIxDzANBgNVBAMTBmdvdi51czBcMA0GCSqGSIb3DQEBAQUAA0sAMEgCQQDOqBod
EZvSjTkpx8SJZS5R10WpTulHSqeeR16GjvDkohKAQIs732Q0WWA32IvujXXB2zBy
iRUhkehUS4a3MIPhAgMBAAGjggEIMIIBBDAOBgNVHQ8BAf8EBAMCBaAwHQYDVR0l
BBYwFAYIKwYBBQUHAwIGCCsGAQUFBwMBMA8GA1UdEwEB/wQFMAMBAf8wDgYDVR0j
BAcwBYADAQIDMGIGCCsGAQUFBwEBBFYwVDAhBggrBgEFBQcwAYYVaHR0cDovL3Ro
ZWNhLm5ldC9vY3NwMC8GCCsGAQUFBzAChiNodHRwOi8vdGhlY2EubmV0L3RvdGFs
bHl0aGVjZXJ0LmNydDATBgNVHSAEDDAKMAgGBmeBDAECAjANBgNVHQ4EBgQEBAMC
ATAPBgNVHREECDAGhgCCAsCoMAkGA1UdNgQCAgEwDgYIKwYBBQUHAQsEAgIBMA0G
CSqGSIb3DQEBCwUAA0EAXsMRuJ4AZqAw0Ck1dKPObM4lU1dNEg6kSKkzJCFVu28z
UJNOqleRlqN2rfvckMmilclyY3cjca6AesXBInTwwQ==
-----END CERTIFICATE-----
