Certificate:
    Data:
        Version: 3 (0x2)
        Serial Number: 18008675309 (0x4316693ed)
    Signature Algorithm: sha256WithRSAEncryption
        Issuer: C = US, O = Mother Nature, OU = Everything, CN = Mother Nature
        Validity
            Not Before: Jan  1 00:00:00 2010 GMT
            Not After : Jan  1 00:00:00 2013 GMT
        Subject: C = US, O = Extreme Discord, OU = Chaos, L = Tallahassee, ST = FL, street = 3210 Holly Mill Run, postalCode = 30062, CN = gov.us
        Subject Public Key Info:
            Public Key Algorithm: rsaEncryption
                Public-Key: (512 bit)
                Modulus:
                    00:d1:1e:15:28:41:cf:9b:8e:c5:87:93:83:3e:56:
                    02:08:02:bd:38:94:7a:37:31:fb:52:5d:a3:10:6b:
                    48:7d:93:08:23:fe:c7:9f:36:06:d9:59:21:c9:c9:
                    88:48:1a:f4:b2:de:85:ff:83:b9:ac:5e:6c:12:0d:
                    e5:06:01:07:f9
                Exponent: 65537 (0x10001)
        X509v3 extensions:
            X509v3 Key Usage: critical
                Digital Signature, Key Encipherment, Certificate Sign
            X509v3 Extended Key Usage: 
                TLS Web Client Authentication, TLS Web Server Authentication
            X509v3 Basic Constraints: critical
                CA:TRUE, pathlen:1
            X509v3 Authority Key Identifier: 
                keyid:01:02:03

            Authority Information Access: 
                OCSP - URI:http://theca.net/ocsp
                CA Issuers - URI:http://theca.net/totallythecert.crt

            X509v3 Certificate Policies: 
                Policy: 2.23.140.1.2.2

            X509v3 Subject Key Identifier: 
                04:03:02:01
            X509v3 Subject Alternative Name: 
                URI:, DNS:ˬ
            X509v3 Inhibit Any Policy: 
                ..
            Subject Information Access: 
                ..
    Signature Algorithm: sha256WithRSAEncryption
         31:4c:2d:77:6d:32:8d:eb:56:ac:59:6a:f2:a8:6a:a8:b1:04:
         30:9a:c0:6f:72:29:c4:f0:0e:ca:47:93:58:24:ff:28:f1:7f:
         70:9a:d7:90:f1:a8:ad:bc:de:fa:c9:d7:d9:93:8d:74:1a:d6:
         8c:96:1d:4a:33:92:a5:96:e1:ce
-----BEGIN CERTIFICATE-----
MIIC7jCCApigAwIBAgIFBDFmk+0wDQYJKoZIhvcNAQELBQAwUjELMAkGA1UEBhMC
VVMxFjAUBgNVBAoTDU1vdGhlciBOYXR1cmUxEzARBgNVBAsTCkV2ZXJ5dGhpbmcx
FjAUBgNVBAMTDU1vdGhlciBOYXR1cmUwHhcNMTAwMTAxMDAwMDAwWhcNMTMwMTAx
MDAwMDAwWjCBmTELMAkGA1UEBhMCVVMxGDAWBgNVBAoTD0V4dHJlbWUgRGlzY29y
ZDEOMAwGA1UECxMFQ2hhb3MxFDASBgNVBAcTC1RhbGxhaGFzc2VlMQswCQYDVQQI
EwJGTDEcMBoGA1UECRMTMzIxMCBIb2xseSBNaWxsIFJ1bjEOMAwGA1UEERMFMzAw
NjIxDzANBgNVBAMTBmdvdi51czBcMA0GCSqGSIb3DQEBAQUAA0sAMEgCQQDRHhUo
Qc+bjsWHk4M+VgIIAr04lHo3MftSXaMQa0h9kwgj/sefNgbZWSHJyYhIGvSy3oX/
g7msXmwSDeUGAQf5AgMBAAGjggELMIIBBzAOBgNVHQ8BAf8EBAMCAqQwHQYDVR0l
BBYwFAYIKwYBBQUHAwIGCCsGAQUFBwMBMBIGA1UdEwEB/wQIMAYBAf8CAQEwDgYD
VR0jBAcwBYADAQIDMGIGCCsGAQUFBwEBBFYwVDAhBggrBgEFBQcwAYYVaHR0cDov
L3RoZWNhLm5ldC9vY3NwMC8GCCsGAQUFBzAChiNodHRwOi8vdGhlY2EubmV0L3Rv
dGFsbHl0aGVjZXJ0LmNydDATBgNVHSAEDDAKMAgGBmeBDAECAjANBgNVHQ4EBgQE
BAMCATAPBgNVHREECDAGhgCCAsCoMAkGA1UdNgQCAgEwDgYIKwYBBQUHAQsEAgIB
MA0GCSqGSIb3DQEBCwUAA0EAMUwtd20yjetWrFlq8qhqqLEEMJrAb3IpxPAOykeT
WCT/KPF/cJrXkPGorbze+snX2ZONdBrWjJYdSjOSpZbhzg==
-----END CERTIFICATE-----
