Certificate:
    Data:
        Version: 3 (0x2)
        Serial Number: 18008675309 (0x4316693ed)
    Signature Algorithm: sha256WithRSAEncryption
        Issuer: C = US, O = Mother Nature, OU = Everything, CN = Mother Nature
        Validity
            Not Before: Jun 29 17:37:00 2016 GMT
            Not After : Sep 10 17:37:00 2016 GMT
        Subject: C = US + C = AL + C =  + C = KR, ST = FL, L = Tallahassee, street = 3210 Holly Mill Run, postalCode = 30062, O = , OU = Chaos, CN = gov.us
        Subject Public Key Info:
            Public Key Algorithm: rsaEncryption
                Public-Key: (2048 bit)
                Modulus:
                    00:c0:16:50:87:f1:57:bf:82:23:8d:89:12:36:14:
                    06:5a:7c:73:2b:d0:1c:33:bc:8b:86:6b:6f:27:a6:
                    93:90:9f:01:47:b8:a9:89:9c:3d:bd:2e:47:46:f4:
                    b7:b1:f5:19:ac:78:c1:29:bf:22:ca:d4:f5:b3:0c:
                    10:b9:ed:b2:46:14:85:cf:e9:f6:e8:1e:96:96:fa:
                    a7:e6:c3:fd:64:44:25:13:b3:10:35:e5:30:37:a6:
                    3c:93:9a:0c:67:fc:db:69:e6:c9:64:5e:0a:c0:1f:
                    13:dc:1a:0c:2d:c5:df:f6:58:f5:28:eb:78:94:06:
                    fa:53:4c:ec:26:99:dc:8d:48:8e:32:8e:6e:a2:7e:
                    a2:ed:d5:04:79:ea:2f:dd:9c:a2:d8:63:f8:10:38:
                    24:f2:fe:90:67:8b:f3:06:0e:71:f8:86:29:f0:57:
                    1a:bc:c0:7c:3c:3f:b4:10:b9:8a:f8:75:58:0a:30:
                    37:3c:a4:40:2a:5c:be:4b:50:65:75:a1:df:ee:0b:
                    5e:cd:2b:04:23:16:4b:7e:da:d0:10:72:e8:09:78:
                    c0:ec:2a:26:d7:93:99:cb:a9:14:72:92:67:09:4c:
                    b0:62:2e:fe:8b:bb:6e:58:f6:1b:d3:ff:13:2c:85:
                    d9:06:52:8b:23:fd:83:91:ac:b1:88:43:b5:92:4b:
                    bd:53
                Exponent: 65537 (0x10001)
        X509v3 extensions:
            X509v3 Key Usage: critical
                Digital Signature, Key Encipherment
            X509v3 Extended Key Usage: 
                TLS Web Client Authentication, TLS Web Server Authentication
            X509v3 Basic Constraints: critical
                CA:TRUE
            X509v3 Authority Key Identifier: 
                keyid:01:02:03

            Authority Information Access: 
                OCSP - URI:http://theca.net/ocsp
                CA Issuers - URI:http://theca.net/totallythecert.crt

            X509v3 Certificate Policies: 
                Policy: 2.23.140.1.2.2

            X509v3 Subject Key Identifier: 
                04:03:02:01
            X509v3 Subject Alternative Name: 
                DNS:*.gov.us, DNS:gov.us
    Signature Algorithm: sha256WithRSAEncryption
         c3:34:3b:94:81:cf:e3:5c:68:56:70:b8:3e:93:08:80:b9:10:
         f7:39:da:e4:37:06:03:62:46:6e:33:22:1f:9b:55:f6:74:5e:
         46:30:88:f1:d2:86:99:34:60:07:c5:e3:b9:60:19:90:5b:4a:
         9d:c9:b8:30:04:32:5a:21:2b:1c:4a:ae:32:bb:15:aa:6b:ec:
         67:20:d7:44:a7:21:87:58:18:86:9b:be:b5:16:e9:51:72:57:
         ac:dc:02:eb:00:d7:02:bd:8a:5c:82:6c:84:b1:cf:4f:01:32:
         c9:08:0f:3a:c1:d1:ae:65:db:90:c9:d6:55:36:d1:05:73:1b:
         37:12:fa:47:67:46:db:ff:dc:72:14:ec:de:52:a4:9b:af:49:
         03:9b:cd:ff:ec:dd:e7:09:20:0b:7d:b7:22:6d:87:4a:cf:6f:
         ec:9b:b6:35:40:7f:cb:85:c0:c0:9c:87:1b:53:43:73:c0:fa:
         0b:bc:f2:0c:bc:85:07:48:5e:e7:7f:13:43:8b:23:bb:d5:7e:
         4e:0c:76:89:d8:e2:48:fd:a9:72:b5:30:9a:df:1d:af:04:6d:
         b7:7c:71:b9:2a:cf:7b:85:be:71:52:47:c8:43:e8:64:a6:91:
         c1:86:6e:e1:7a:c5:67:e2:6c:51:cf:b3:8b:86:b6:11:18:f4:
         5d:0f:62:5a
-----BEGIN CERTIFICATE-----
MIIEdDCCA1ygAwIBAgIFBDFmk+0wDQYJKoZIhvcNAQELBQAwUjELMAkGA1UEBhMC
VVMxFjAUBgNVBAoTDU1vdGhlciBOYXR1cmUxEzARBgNVBAsTCkV2ZXJ5dGhpbmcx
FjAUBgNVBAMTDU1vdGhlciBOYXR1cmUwHhcNMTYwNjI5MTczNzAwWhcNMTYwOTEw
MTczNzAwWjCBqTEqMAkGA1UEBhMCVVMwCQYDVQQGEwJBTDAHBgNVBAYTADAJBgNV
BAYTAktSMQswCQYDVQQIEwJGTDEUMBIGA1UEBxMLVGFsbGFoYXNzZWUxHDAaBgNV
BAkTEzMyMTAgSG9sbHkgTWlsbCBSdW4xDjAMBgNVBBETBTMwMDYyMQkwBwYDVQQK
EwAxDjAMBgNVBAsTBUNoYW9zMQ8wDQYDVQQDEwZnb3YudXMwggEiMA0GCSqGSIb3
DQEBAQUAA4IBDwAwggEKAoIBAQDAFlCH8Ve/giONiRI2FAZafHMr0BwzvIuGa28n
ppOQnwFHuKmJnD29LkdG9Lex9RmseMEpvyLK1PWzDBC57bJGFIXP6fboHpaW+qfm
w/1kRCUTsxA15TA3pjyTmgxn/Ntp5slkXgrAHxPcGgwtxd/2WPUo63iUBvpTTOwm
mdyNSI4yjm6ifqLt1QR56i/dnKLYY/gQOCTy/pBni/MGDnH4hinwVxq8wHw8P7QQ
uYr4dVgKMDc8pEAqXL5LUGV1od/uC17NKwQjFkt+2tAQcugJeMDsKibXk5nLqRRy
kmcJTLBiLv6Lu25Y9hvT/xMshdkGUosj/YORrLGIQ7WSS71TAgMBAAGjgfgwgfUw
DgYDVR0PAQH/BAQDAgWgMB0GA1UdJQQWMBQGCCsGAQUFBwMCBggrBgEFBQcDATAP
BgNVHRMBAf8EBTADAQH/MA4GA1UdIwQHMAWAAwECAzBiBggrBgEFBQcBAQRWMFQw
IQYIKwYBBQUHMAGGFWh0dHA6Ly90aGVjYS5uZXQvb2NzcDAvBggrBgEFBQcwAoYj
aHR0cDovL3RoZWNhLm5ldC90b3RhbGx5dGhlY2VydC5jcnQwEwYDVR0gBAwwCjAI
BgZngQwBAgIwDQYDVR0OBAYEBAQDAgEwGwYDVR0RBBQwEoIIKi5nb3YudXOCBmdv
di51czANBgkqhkiG9w0BAQsFAAOCAQEAwzQ7lIHP41xoVnC4PpMIgLkQ9zna5DcG
A2JGbjMiH5tV9nReRjCI8dKGmTRgB8XjuWAZkFtKncm4MAQyWiErHEquMrsVqmvs
ZyDXRKchh1gYhpu+tRbpUXJXrNwC6wDXAr2KXIJshLHPTwEyyQgPOsHRrmXbkMnW
VTbRBXMbNxL6R2dG2//cchTs3lKkm69JA5vN/+zd5wkgC323Im2HSs9v7Ju2NUB/
y4XAwJyHG1NDc8D6C7zyDLyFB0he538TQ4sju9V+Tgx2idjiSP2pcrUwmt8drwRt
t3xxuSrPe4W+cVJHyEPoZKaRwYZu4XrFZ+JsUc+zi4a2ERj0XQ9iWg==
-----END CERTIFICATE-----
