Certificate:
    Data:
        Version: 3 (0x2)
        Serial Number: 18008675309 (0x4316693ed)
    Signature Algorithm: sha256WithRSAEncryption
        Issuer: C = US, O = Mother Nature, OU = Everything, CN = Mother Nature
        Validity
            Not Before: Jun 29 15:34:03 2016 GMT
            Not After : Sep 10 15:34:03 2016 GMT
        Subject: C = US, ST = FL, L = Tallahassee, street = 3210 Holly Mill Run, postalCode = 30062, O = Extreme Discord, OU = Chaos, CN = gov.us
        Subject Public Key Info:
            Public Key Algorithm: rsaEncryption
                Public-Key: (2048 bit)
                Modulus:
                    00:c2:1d:aa:b5:69:b6:c3:a8:54:c1:51:01:dd:cf:
                    85:75:ea:1b:f2:c7:1f:f6:44:12:9f:2f:19:a6:07:
                    8c:6f:b5:29:6b:e6:8b:03:4e:70:0a:e0:94:b7:00:
                    d1:79:41:2f:a3:d7:21:d2:25:a8:32:c4:de:ce:4e:
                    21:fb:d3:39:67:0d:5c:7f:db:5a:5c:cf:cb:dc:96:
                    1d:3b:bd:f1:e3:5b:e1:2f:c5:b9:60:e1:6d:5a:e5:
                    36:8e:c4:67:52:c8:e3:8b:b7:37:bf:5a:b0:b4:2a:
                    3b:30:76:ce:7c:8b:71:18:44:86:8d:10:21:8b:59:
                    8c:a8:0e:e9:e1:bd:12:53:cf:a7:16:83:cd:f5:9f:
                    ab:f3:54:1e:d7:59:c7:88:59:44:2f:7b:ea:11:26:
                    f0:19:3d:86:47:e2:93:94:7c:85:fe:ef:62:7f:22:
                    51:cb:6e:0f:b1:18:33:c8:07:8a:4d:bc:2e:c9:a9:
                    fb:52:e9:d2:9c:fc:cd:01:95:81:8e:b4:99:ac:ff:
                    1e:5b:0c:c4:5c:07:d0:e4:41:02:d2:29:a6:8d:40:
                    a4:ed:7e:4c:95:fb:24:10:19:0a:68:54:de:23:4c:
                    44:45:b7:21:41:17:41:d6:f1:81:d6:12:90:32:d0:
                    88:de:3f:80:61:7e:33:97:3b:81:40:84:89:04:49:
                    6e:ab
                Exponent: 65537 (0x10001)
        X509v3 extensions:
            X509v3 Key Usage: critical
                Digital Signature, Key Encipherment
            X509v3 Extended Key Usage: 
                TLS Web Client Authentication, TLS Web Server Authentication
            X509v3 Basic Constraints: critical
                CA:TRUE
            X509v3 Authority Key Identifier: 
                keyid:01:02:03

            Authority Information Access: 
                OCSP - URI:http://theca.net/ocsp
                CA Issuers - URI:http://theca.net/totallythecert.crt

            X509v3 Certificate Policies: 
                Policy: 2.23.140.1.2.2

            X509v3 Subject Key Identifier: 
                04:03:02:01
            X509v3 Subject Alternative Name: 
                DNS:*.gov.us, DNS:gov.us
    Signature Algorithm: sha256WithRSAEncryption
         64:56:09:1b:0c:1a:8d:6d:a5:77:41:e1:70:b3:c2:27:28:89:
         92:a1:4d:7e:7c:27:e6:8b:07:7a:54:f2:c0:69:57:42:fa:16:
         b6:24:66:41:bb:1b:c0:1c:bb:d2:7f:cc:f1:89:ee:91:95:77:
         3a:80:38:41:a3:20:4d:b9:1d:c3:ea:7e:fe:64:d6:98:00:43:
         c2:c8:86:24:41:bc:97:63:7a:d5:09:58:26:6f:28:ba:9c:dc:
         8a:e4:85:65:ed:5c:1f:eb:84:58:51:3b:44:7c:f7:42:53:2a:
         25:2d:75:5f:89:d0:b7:5b:f8:d3:20:d5:08:c0:42:38:cf:57:
         ab:4f:ba:95:41:db:5b:39:18:13:68:3e:77:b7:4f:03:50:7d:
         b5:f9:e1:bc:e3:d3:7b:dd:e2:c9:40:6a:d3:5c:26:9b:06:f5:
         63:33:fe:29:9d:13:e8:ac:be:2a:5d:04:2c:7f:77:d8:e2:4f:
         fa:83:0c:05:d7:ac:1c:bc:92:5d:69:2c:3c:89:62:63:a4:ba:
         d7:55:99:9b:04:d1:ba:4c:28:94:9f:7e:d1:ce:31:9d:64:20:
         92:99:c9:b1:9e:42:e2:3a:07:a1:71:1a:52:29:18:87:2b:04:
         28:d6:6b:f2:38:ad:5b:4c:95:95:27:47:4d:d6:15:d2:f5:f4:
         31:60:a6:78
-----BEGIN CERTIFICATE-----
MIIEZDCCA0ygAwIBAgIFBDFmk+0wDQYJKoZIhvcNAQELBQAwUjELMAkGA1UEBhMC
VVMxFjAUBgNVBAoTDU1vdGhlciBOYXR1cmUxEzARBgNVBAsTCkV2ZXJ5dGhpbmcx
FjAUBgNVBAMTDU1vdGhlciBOYXR1cmUwHhcNMTYwNjI5MTUzNDAzWhcNMTYwOTEw
MTUzNDAzWjCBmTELMAkGA1UEBhMCVVMxCzAJBgNVBAgTAkZMMRQwEgYDVQQHEwtU
YWxsYWhhc3NlZTEcMBoGA1UECRMTMzIxMCBIb2xseSBNaWxsIFJ1bjEOMAwGA1UE
ERMFMzAwNjIxGDAWBgNVBAoTD0V4dHJlbWUgRGlzY29yZDEOMAwGA1UECxMFQ2hh
b3MxDzANBgNVBAMTBmdvdi51czCCASIwDQYJKoZIhvcNAQEBBQADggEPADCCAQoC
ggEBAMIdqrVptsOoVMFRAd3PhXXqG/LHH/ZEEp8vGaYHjG+1KWvmiwNOcArglLcA
0XlBL6PXIdIlqDLE3s5OIfvTOWcNXH/bWlzPy9yWHTu98eNb4S/FuWDhbVrlNo7E
Z1LI44u3N79asLQqOzB2znyLcRhEho0QIYtZjKgO6eG9ElPPpxaDzfWfq/NUHtdZ
x4hZRC976hEm8Bk9hkfik5R8hf7vYn8iUctuD7EYM8gHik28Lsmp+1Lp0pz8zQGV
gY60maz/HlsMxFwH0ORBAtIppo1ApO1+TJX7JBAZCmhU3iNMREW3IUEXQdbxgdYS
kDLQiN4/gGF+M5c7gUCEiQRJbqsCAwEAAaOB+DCB9TAOBgNVHQ8BAf8EBAMCBaAw
HQYDVR0lBBYwFAYIKwYBBQUHAwIGCCsGAQUFBwMBMA8GA1UdEwEB/wQFMAMBAf8w
DgYDVR0jBAcwBYADAQIDMGIGCCsGAQUFBwEBBFYwVDAhBggrBgEFBQcwAYYVaHR0
cDovL3RoZWNhLm5ldC9vY3NwMC8GCCsGAQUFBzAChiNodHRwOi8vdGhlY2EubmV0
L3RvdGFsbHl0aGVjZXJ0LmNydDATBgNVHSAEDDAKMAgGBmeBDAECAjANBgNVHQ4E
BgQEBAMCATAbBgNVHREEFDASgggqLmdvdi51c4IGZ292LnVzMA0GCSqGSIb3DQEB
CwUAA4IBAQBkVgkbDBqNbaV3QeFws8InKImSoU1+fCfmiwd6VPLAaVdC+ha2JGZB
uxvAHLvSf8zxie6RlXc6gDhBoyBNuR3D6n7+ZNaYAEPCyIYkQbyXY3rVCVgmbyi6
nNyK5IVl7Vwf64RYUTtEfPdCUyolLXVfidC3W/jTINUIwEI4z1erT7qVQdtbORgT
aD53t08DUH21+eG849N73eLJQGrTXCabBvVjM/4pnRPorL4qXQQsf3fY4k/6gwwF
16wcvJJdaSw8iWJjpLrXVZmbBNG6TCiUn37RzjGdZCCSmcmxnkLiOgehcRpSKRiH
KwQo1mvyOK1bTJWVJ0dN1hXS9fQxYKZ4
-----END CERTIFICATE-----
