Certificate:
    Data:
        Version: 1 (0x0)
        Serial Number: 3284658893422845265 (0x2d9573dc56cbdd51)
    Signature Algorithm: md5WithRSAEncryption
        Issuer: C = US, CN = 192.168.3.1
        Validity
            Not Before: Jan  1 01:00:00 2007 GMT
            Not After : Jan  1 00:00:00 2017 GMT
        Subject: C = US, CN = 192.168.3.1
        Subject Public Key Info:
            Public Key Algorithm: rsaEncryption
                Public-Key: (512 bit)
                Modulus:
                    00:b7:62:7b:ed:f8:2f:b8:00:5c:18:9a:ab:c6:9c:
                    c3:4d:ce:50:b6:c4:10:a7:b8:05:4c:d5:c9:d3:b0:
                    90:05:d1:9d:ec:7d:11:50:6a:61:aa:08:b1:25:72:
                    f8:ee:c2:7b:cb:b6:cd:7b:2d:3e:e9:6a:f5:a1:90:
                    97:d6:52:70:49
                Exponent: 65537 (0x10001)
    Signature Algorithm: md5WithRSAEncryption
         5d:30:19:a5:b7:7a:ba:84:c5:5e:15:1f:d9:d0:78:12:be:52:
         ec:3f:c2:e4:0a:4a:3b:75:24:9c:b0:77:81:af:e5:a8:d8:57:
         a3:9f:73:d2:56:83:05:e6:84:d1:36:02:7e:47:03:cd:9d:18:
         68:cf:bc:d5:e9:01:c9:07:2f:e4
-----BEGIN CERTIFICATE-----
MIIBNjCB4QIILZVz3FbL3VEwDQYJKoZIhvcNAQEEBQAwIzELMAkGA1UEBhMCVVMx
FDASBgNVBAMTCzE5Mi4xNjguMy4xMB4XDTA3MDEwMTAxMDAwMFoXDTE3MDEwMTAw
MDAwMFowIzELMAkGA1UEBhMCVVMxFDASBgNVBAMTCzE5Mi4xNjguMy4xMFwwDQYJ
KoZIhvcNAQEBBQADSwAwSAJBALdie+34L7gAXBiaq8acw03OULbEEKe4BUzVydOw
kAXRnex9EVBqYaoIsSVy+O7Ce8u2zXstPulq9aGQl9ZScEkCAwEAATANBgkqhkiG
9w0BAQQFAANBAF0wGaW3erqExV4VH9nQeBK+Uuw/wuQKSjt1JJywd4Gv5ajYV6Of
c9JWgwXmhNE2An5HA82dGGjPvNXpAckHL+Q=
-----END CERTIFICATE-----
