Certificate:
    Data:
        Version: 1 (0x0)
        Serial Number: 1 (0x1)
    Signature Algorithm: sha256WithRSAEncryption
        Issuer: C = US, ST = Washington, L = Redmond, O = Microsoft, OU = InMage, CN = Scout
        Validity
            Not Before: Aug  4 20:04:46 2015 GMT
            Not After : Aug  4 20:04:46 2016 GMT
        Subject: C = US, ST = Washington, L = Redmond, O = Microsoft, OU = InMage, CN = Scout
        Subject Public Key Info:
            Public Key Algorithm: rsaEncryption
                Public-Key: (2048 bit)
                Modulus:
                    00:d2:93:55:ef:c1:9a:bc:65:a6:aa:98:2f:8c:e5:
                    5c:e6:b7:35:85:fe:19:1d:93:a4:56:63:b9:3b:c3:
                    88:e1:9f:f2:c6:10:00:8d:fc:0c:34:85:27:2c:4b:
                    5a:f1:76:24:d9:d7:33:58:06:fd:cd:f0:e1:23:44:
                    e3:bb:35:d8:5f:6a:a4:9d:ac:6a:6b:4b:52:13:79:
                    cf:d8:3b:2c:4a:c3:94:41:ea:05:30:ce:3e:07:80:
                    6a:78:d1:62:cf:c1:42:2e:80:7d:dd:de:a6:d9:8e:
                    4d:b0:6f:90:ef:ae:a9:6e:53:d1:ec:fb:e2:85:db:
                    72:63:95:d2:9f:75:86:c1:34:25:24:23:7e:5d:95:
                    0f:29:6e:29:7a:1b:77:00:b4:6b:db:5e:18:8d:12:
                    6a:13:37:b9:ac:33:18:cb:98:0c:9e:c7:24:c9:dd:
                    a2:6c:e2:0d:f2:7d:99:be:22:e1:b3:a1:c5:86:3b:
                    45:ee:64:59:cf:a9:8f:b9:68:a5:83:69:be:21:93:
                    4c:42:a9:cc:df:8e:a6:98:41:e2:c9:8a:12:69:29:
                    ce:1a:ec:57:20:3c:4e:a6:44:cd:e5:68:f6:9f:9a:
                    81:3a:4d:9d:dd:f0:63:4c:e2:fa:bf:ad:6a:bc:ad:
                    a8:55:b3:af:d2:17:11:81:14:5f:56:0e:57:b9:a8:
                    34:bf
                Exponent: 65537 (0x10001)
        X509v3 extensions:
            X509v3 Basic Constraints: 
                CA:TRUE
    Signature Algorithm: sha256WithRSAEncryption
         4a:bc:10:d8:38:25:cd:33:8c:f9:f4:4e:93:c0:9a:35:a6:ce:
         1d:64:8f:4b:24:0e:8c:50:50:e6:2c:ba:ac:7b:9c:08:c4:d1:
         b2:f3:72:ca:be:ff:8c:79:92:36:03:c1:e2:b5:b3:90:88:36:
         17:5a:b4:24:bc:6e:33:e8:79:83:dd:fe:73:82:28:7c:07:71:
         37:5b:96:33:62:c3:be:b2:56:b3:5a:88:a3:7d:92:6c:92:52:
         91:42:66:16:ac:18:20:41:39:2b:ed:92:19:79:13:6a:76:9e:
         5a:d4:7c:b2:02:29:89:cc:67:61:b1:ff:3e:94:a1:cf:e0:50:
         97:d3:cd:bc:a6:53:cd:64:a9:fc:1f:70:ac:d8:2d:34:20:b0:
         5e:a7:9f:66:99:cb:20:9d:72:fc:fd:b0:6d:38:95:d5:0c:e1:
         ea:74:51:28:74:5f:04:3a:62:89:5d:a9:0d:c4:06:14:e7:a4:
         05:da:f3:f2:fc:f5:3a:26:bd:25:f2:ae:a7:4c:b9:27:51:4b:
         18:ee:f9:a1:3b:49:df:1b:4b:01:38:64:27:a1:da:ac:35:11:
         f1:d2:dc:72:d3:a9:54:09:1c:68:cc:2b:fd:a9:7c:13:f6:0b:
         7f:ec:32:6b:0f:03:cc:5e:20:94:c1:b5:89:27:ea:b4:10:b5:
         34:8c:a6:9f
-----BEGIN CERTIFICATE-----
MIIDWDCCAkACAQEwDQYJKoZIhvcNAQELBQAwaTELMAkGA1UEBhMCVVMxEzARBgNV
BAgMCldhc2hpbmd0b24xEDAOBgNVBAcMB1JlZG1vbmQxEjAQBgNVBAoMCU1pY3Jv
c29mdDEPMA0GA1UECwwGSW5NYWdlMQ4wDAYDVQQDDAVTY291dDAeFw0xNTA4MDQy
MDA0NDZaFw0xNjA4MDQyMDA0NDZaMGkxCzAJBgNVBAYTAlVTMRMwEQYDVQQIDApX
YXNoaW5ndG9uMRAwDgYDVQQHDAdSZWRtb25kMRIwEAYDVQQKDAlNaWNyb3NvZnQx
DzANBgNVBAsMBkluTWFnZTEOMAwGA1UEAwwFU2NvdXQwggEiMA0GCSqGSIb3DQEB
AQUAA4IBDwAwggEKAoIBAQDSk1XvwZq8ZaaqmC+M5VzmtzWF/hkdk6RWY7k7w4jh
n/LGEACN/Aw0hScsS1rxdiTZ1zNYBv3N8OEjROO7NdhfaqSdrGprS1ITec/YOyxK
w5RB6gUwzj4HgGp40WLPwUIugH3d3qbZjk2wb5DvrqluU9Hs++KF23JjldKfdYbB
NCUkI35dlQ8pbil6G3cAtGvbXhiNEmoTN7msMxjLmAyexyTJ3aJs4g3yfZm+IuGz
ocWGO0XuZFnPqY+5aKWDab4hk0xCqczfjqaYQeLJihJpKc4a7FcgPE6mRM3laPaf
moE6TZ3d8GNM4vq/rWq8rahVs6/SFxGBFF9WDle5qDS/AgMBAAGjEDAOMAwGA1Ud
EwQFMAMBAf8wDQYJKoZIhvcNAQELBQADggEBAEq8ENg4Jc0zjPn0TpPAmjWmzh1k
j0skDoxQUOYsuqx7nAjE0bLzcsq+/4x5kjYDweK1s5CINhdatCS8bjPoeYPd/nOC
KHwHcTdbljNiw76yVrNaiKN9kmySUpFCZhasGCBBOSvtkhl5E2p2nlrUfLICKYnM
Z2Gx/z6Uoc/gUJfTzbymU81kqfwfcKzYLTQgsF6nn2aZyyCdcvz9sG04ldUM4ep0
USh0XwQ6YoldqQ3EBhTnpAXa8/L89TomvSXyrqdMuSdRSxju+aE7Sd8bSwE4ZCeh
2qw1EfHS3HLTqVQJHGjMK/2pfBP2C3/sMmsPA8xeIJTBtYkn6rQQtTSMpp8=
-----END CERTIFICATE-----
