Certificate:
    Data:
        Version: 3 (0x2)
        Serial Number: 18008675309 (0x4316693ed)
    Signature Algorithm: sha256WithRSAEncryption
        Issuer: C = US, O = Mother Nature, OU = Everything, CN = Mother Nature
        Validity
            Not Before: Jun 30 20:13:28 2016 GMT
            Not After : Sep 11 20:13:28 2016 GMT
        Subject: C = US, ST = FL, L = Tallahassee, street = 3210 Holly Mill Run, postalCode = 30062, O = Extreme Discord, OU = Chaos, CN = gov.us
        Subject Public Key Info:
            Public Key Algorithm: rsaEncryption
                Public-Key: (2048 bit)
                Modulus:
                    00:d3:af:67:f8:37:fb:54:a9:73:04:1f:16:e6:d2:
                    c1:1b:34:29:12:cc:38:0c:f4:4c:1b:13:dc:43:6c:
                    8a:61:d3:cc:07:fe:90:6c:57:a4:43:14:f0:01:50:
                    69:b4:8b:49:b4:a0:24:3b:a6:44:05:19:cc:21:c7:
                    98:5c:67:8c:79:00:f4:63:ee:04:47:46:80:ee:8e:
                    0d:da:74:c2:21:23:e8:0e:b4:fa:ec:1c:86:6f:d4:
                    52:42:5d:9e:61:c1:ae:c0:37:1c:d9:03:fe:75:7e:
                    6f:23:f0:59:ee:15:4b:39:92:ed:1f:a8:fb:66:5f:
                    34:e5:c2:b1:7a:42:56:8b:7f:2f:19:f5:a7:1a:64:
                    18:f0:62:9f:d0:a1:ef:5f:51:17:24:a1:96:15:65:
                    b2:cf:9c:67:b7:f8:4d:72:85:f3:f9:19:18:fb:58:
                    59:30:8a:85:72:03:7a:73:d3:23:ff:2c:1f:e2:46:
                    1c:f6:df:af:8e:51:ab:cf:b1:58:4c:f6:c6:1d:88:
                    22:34:1a:8b:99:33:95:9b:6e:d3:93:6b:f4:99:a3:
                    52:24:bd:f7:9e:59:21:1a:9f:39:6e:7f:a8:ac:75:
                    11:9a:7e:6a:d1:11:6c:32:15:79:a0:1b:30:6c:1a:
                    9d:0f:96:ba:80:9b:66:e0:c6:74:ae:30:86:53:fe:
                    26:cb
                Exponent: 65537 (0x10001)
        X509v3 extensions:
            X509v3 Key Usage: critical
                Digital Signature, Key Encipherment
            X509v3 Extended Key Usage: 
                TLS Web Client Authentication, TLS Web Server Authentication
            X509v3 Basic Constraints: critical
                CA:FALSE
            X509v3 Authority Key Identifier: 
                keyid:01:02:03

            Authority Information Access: 
                OCSP - URI:http://theca.net/ocsp
                CA Issuers - URI:http://theca.net/totallythecert.crt

            X509v3 Certificate Policies: 
                Policy: 1.3.6.1.5.5.7.13.1
                Policy: 1.3.6.1.5.5.7.13.1

            X509v3 Subject Key Identifier: 
                04:03:02:01
            X509v3 Subject Alternative Name: 
                DNS:*.gov.us, DNS:gov.us
            X509v3 Issuer Alternative Name: 
                DNS:allthethings.net, DNS:theca.net
    Signature Algorithm: sha256WithRSAEncryption
         c7:bf:ff:03:22:9e:10:46:97:94:db:2d:bd:ea:b9:9f:23:db:
         b3:7c:f1:13:86:41:db:c2:19:4b:11:19:d3:e7:a4:b5:85:67:
         6a:7c:6f:ab:ae:36:9e:9c:e4:35:45:99:05:c7:60:28:81:5e:
         72:e4:db:84:df:71:07:66:8c:e4:d4:75:dc:da:fc:2f:ad:29:
         95:f2:ca:df:d5:cb:f4:e2:4f:64:3c:03:6a:f3:ff:e2:bd:9c:
         0f:90:45:75:37:a9:b5:db:00:4e:49:38:02:93:73:f2:de:b5:
         0e:ff:23:bc:fb:77:f2:4e:89:31:b3:16:03:8c:d5:4e:ee:15:
         3c:b0:80:68:a6:46:61:9e:38:48:be:b1:d7:28:c9:b9:bf:7a:
         7c:8d:85:18:c4:94:0b:32:fe:81:6a:d4:53:ec:7a:88:d1:57:
         a6:52:4e:56:98:c2:1b:2d:39:e9:a0:35:e3:b1:8b:06:93:08:
         a1:e5:c0:42:94:63:f1:55:93:3e:8c:1b:4f:6a:18:9d:70:34:
         a1:b6:7e:eb:40:cc:27:0d:61:30:b4:24:81:83:be:e3:10:1a:
         b3:62:9a:e9:3e:2c:9f:3e:aa:3d:2d:14:99:cf:15:62:7b:ee:
         82:2a:21:6d:f9:19:4e:da:d9:a9:91:9d:8c:7a:60:6d:67:48:
         cf:c7:6b:e0
-----BEGIN CERTIFICATE-----
MIIEmTCCA4GgAwIBAgIFBDFmk+0wDQYJKoZIhvcNAQELBQAwUjELMAkGA1UEBhMC
VVMxFjAUBgNVBAoTDU1vdGhlciBOYXR1cmUxEzARBgNVBAsTCkV2ZXJ5dGhpbmcx
FjAUBgNVBAMTDU1vdGhlciBOYXR1cmUwHhcNMTYwNjMwMjAxMzI4WhcNMTYwOTEx
MjAxMzI4WjCBmTELMAkGA1UEBhMCVVMxCzAJBgNVBAgTAkZMMRQwEgYDVQQHEwtU
YWxsYWhhc3NlZTEcMBoGA1UECRMTMzIxMCBIb2xseSBNaWxsIFJ1bjEOMAwGA1UE
ERMFMzAwNjIxGDAWBgNVBAoTD0V4dHJlbWUgRGlzY29yZDEOMAwGA1UECxMFQ2hh
b3MxDzANBgNVBAMTBmdvdi51czCCASIwDQYJKoZIhvcNAQEBBQADggEPADCCAQoC
ggEBANOvZ/g3+1SpcwQfFubSwRs0KRLMOAz0TBsT3ENsimHTzAf+kGxXpEMU8AFQ
abSLSbSgJDumRAUZzCHHmFxnjHkA9GPuBEdGgO6ODdp0wiEj6A60+uwchm/UUkJd
nmHBrsA3HNkD/nV+byPwWe4VSzmS7R+o+2ZfNOXCsXpCVot/Lxn1pxpkGPBin9Ch
719RFyShlhVlss+cZ7f4TXKF8/kZGPtYWTCKhXIDenPTI/8sH+JGHPbfr45Rq8+x
WEz2xh2IIjQai5kzlZtu05Nr9JmjUiS9955ZIRqfOW5/qKx1EZp+atERbDIVeaAb
MGwanQ+WuoCbZuDGdK4whlP+JssCAwEAAaOCASwwggEoMA4GA1UdDwEB/wQEAwIF
oDAdBgNVHSUEFjAUBggrBgEFBQcDAgYIKwYBBQUHAwEwDAYDVR0TAQH/BAIwADAO
BgNVHSMEBzAFgAMBAgMwYgYIKwYBBQUHAQEEVjBUMCEGCCsGAQUFBzABhhVodHRw
Oi8vdGhlY2EubmV0L29jc3AwLwYIKwYBBQUHMAKGI2h0dHA6Ly90aGVjYS5uZXQv
dG90YWxseXRoZWNlcnQuY3J0MCEGA1UdIAQaMBgwCgYIKwYBBQUHDQEwCgYIKwYB
BQUHDQEwDQYDVR0OBAYEBAQDAgEwGwYDVR0RBBQwEoIIKi5nb3YudXOCBmdvdi51
czAmBgNVHRIEHzAdghBhbGx0aGV0aGluZ3MubmV0ggl0aGVjYS5uZXQwDQYJKoZI
hvcNAQELBQADggEBAMe//wMinhBGl5TbLb3quZ8j27N88ROGQdvCGUsRGdPnpLWF
Z2p8b6uuNp6c5DVFmQXHYCiBXnLk24TfcQdmjOTUddza/C+tKZXyyt/Vy/TiT2Q8
A2rz/+K9nA+QRXU3qbXbAE5JOAKTc/LetQ7/I7z7d/JOiTGzFgOM1U7uFTywgGim
RmGeOEi+sdcoybm/enyNhRjElAsy/oFq1FPseojRV6ZSTlaYwhstOemgNeOxiwaT
CKHlwEKUY/FVkz6MG09qGJ1wNKG2futAzCcNYTC0JIGDvuMQGrNimuk+LJ8+qj0t
FJnPFWJ77oIqIW35GU7a2amRnYx6YG1nSM/Ha+A=
-----END CERTIFICATE-----
