Certificate:
    Data:
        Version: 3 (0x2)
        Serial Number: 18008675309 (0x4316693ed)
    Signature Algorithm: sha256WithRSAEncryption
        Issuer: C = US, O = Mother Nature, OU = Everything, CN = Mother Nature
        Validity
            Not Before: Jun 29 21:43:34 2016 GMT
            Not After : Sep 10 21:43:34 2016 GMT
        Subject: C = US, ST = FL, L = Tallahassee, street = 3210 Holly Mill Run, postalCode = 30062, O = Extreme Discord, OU = Chaos, CN = gov.us
        Subject Public Key Info:
            Public Key Algorithm: rsaEncryption
                Public-Key: (2048 bit)
                Modulus:
                    00:bc:90:2a:d0:cc:79:25:a3:69:7a:41:3a:68:6f:
                    ac:0a:ce:99:83:db:a7:8a:96:76:21:59:6d:c7:41:
                    fe:42:d7:74:f6:a8:88:6c:bd:b9:cc:95:4e:d5:b0:
                    61:14:60:1c:80:ee:94:30:68:22:2d:e8:d8:b7:93:
                    31:48:e3:17:2c:c6:43:e2:82:7f:c1:85:2a:bb:d8:
                    e7:36:4b:fb:5f:aa:7b:8e:0c:a2:90:dd:89:89:ae:
                    45:c7:74:1b:a1:d2:47:43:14:74:3d:22:9f:ca:bc:
                    86:8a:dd:1f:14:3f:23:9a:be:3c:bc:50:df:09:a3:
                    bb:02:d9:1a:b7:0f:f9:48:d3:93:a4:f7:95:a5:1c:
                    40:51:f2:0e:f8:4a:8e:55:af:bf:fb:88:01:00:61:
                    3d:02:32:08:a8:4c:f4:61:7e:3f:ca:4c:da:8c:23:
                    82:16:df:e4:8e:09:49:56:39:68:5d:83:ef:c7:a8:
                    dd:92:23:fd:b5:a1:fb:17:f8:04:f0:18:7f:80:91:
                    f3:cf:ca:1c:dc:68:21:72:e3:ce:93:f9:6b:ac:44:
                    eb:fc:c2:0c:74:0e:11:c7:33:30:f2:e7:16:5b:df:
                    e0:8e:52:cd:8c:74:9a:ab:7a:3a:f7:ed:66:ed:fb:
                    02:f9:c7:61:f3:5a:42:b8:8f:74:71:4c:77:65:a8:
                    70:ef
                Exponent: 65537 (0x10001)
        X509v3 extensions:
            X509v3 Key Usage: critical
                Digital Signature, Key Encipherment
            X509v3 Extended Key Usage: 
                TLS Web Client Authentication, TLS Web Server Authentication
            X509v3 Basic Constraints: critical
                CA:TRUE
            X509v3 Authority Key Identifier: 
                keyid:01:02:03

            Authority Information Access: 
                OCSP - URI:http://theca.net/ocsp
                CA Issuers - URI:http://theca.net/totallythecert.crt

            X509v3 Certificate Policies: 
                Policy: 1.3.6.1.5.5.7.13.1
                Policy: 2.23.140.1.2.2
                Policy: 1.3.6.1.5.5.7.13.1

            X509v3 Subject Key Identifier: 
                04:03:02:01
            X509v3 Subject Alternative Name: 
                DNS:*.gov.us, DNS:gov.us
    Signature Algorithm: sha256WithRSAEncryption
         7f:8b:c4:1a:6a:e6:b5:bf:d8:45:8f:76:f7:60:f1:66:23:fb:
         ef:62:0b:fd:64:74:e0:9c:2e:da:e6:48:0f:c4:08:84:c4:a7:
         ff:f5:87:8a:3d:9c:fd:a8:fa:96:1d:e3:ef:33:ca:c7:41:e7:
         45:39:86:3b:f7:0d:e4:28:12:53:e3:98:30:4c:7d:b6:b2:5d:
         3e:57:a7:b1:ae:f6:ab:b3:96:74:5f:7d:f2:7a:a0:2c:7f:fe:
         6b:4b:a7:4e:45:bb:79:2a:96:16:3b:9e:18:a9:0b:27:50:a5:
         2d:87:dc:3b:97:90:ef:20:b1:ec:86:71:3f:7c:ac:4a:ba:29:
         15:56:a4:56:10:94:ae:86:06:32:ef:05:79:26:9f:d6:bc:0b:
         9b:80:e9:36:07:03:b8:ab:f7:42:be:db:ca:62:a2:06:91:f9:
         89:fc:2e:12:2e:26:61:16:f7:d1:24:aa:46:f8:f5:28:75:87:
         d1:d7:dd:dd:4f:c1:ed:84:41:8a:fa:6f:84:5d:b3:97:15:52:
         c2:ac:0e:d6:ee:31:cc:f8:79:5f:83:8c:56:07:06:13:f8:c5:
         d2:ba:37:bf:40:84:9e:b5:be:51:6f:17:b4:5c:21:b3:9e:31:
         bc:92:de:f5:04:1c:c4:98:be:80:bd:5a:68:0d:b5:77:7e:02:
         a1:30:d4:ce
-----BEGIN CERTIFICATE-----
MIIEfjCCA2agAwIBAgIFBDFmk+0wDQYJKoZIhvcNAQELBQAwUjELMAkGA1UEBhMC
VVMxFjAUBgNVBAoTDU1vdGhlciBOYXR1cmUxEzARBgNVBAsTCkV2ZXJ5dGhpbmcx
FjAUBgNVBAMTDU1vdGhlciBOYXR1cmUwHhcNMTYwNjI5MjE0MzM0WhcNMTYwOTEw
MjE0MzM0WjCBmTELMAkGA1UEBhMCVVMxCzAJBgNVBAgTAkZMMRQwEgYDVQQHEwtU
YWxsYWhhc3NlZTEcMBoGA1UECRMTMzIxMCBIb2xseSBNaWxsIFJ1bjEOMAwGA1UE
ERMFMzAwNjIxGDAWBgNVBAoTD0V4dHJlbWUgRGlzY29yZDEOMAwGA1UECxMFQ2hh
b3MxDzANBgNVBAMTBmdvdi51czCCASIwDQYJKoZIhvcNAQEBBQADggEPADCCAQoC
ggEBALyQKtDMeSWjaXpBOmhvrArOmYPbp4qWdiFZbcdB/kLXdPaoiGy9ucyVTtWw
YRRgHIDulDBoIi3o2LeTMUjjFyzGQ+KCf8GFKrvY5zZL+1+qe44MopDdiYmuRcd0
G6HSR0MUdD0in8q8hordHxQ/I5q+PLxQ3wmjuwLZGrcP+UjTk6T3laUcQFHyDvhK
jlWvv/uIAQBhPQIyCKhM9GF+P8pM2owjghbf5I4JSVY5aF2D78eo3ZIj/bWh+xf4
BPAYf4CR88/KHNxoIXLjzpP5a6xE6/zCDHQOEcczMPLnFlvf4I5SzYx0mqt6Ovft
Zu37AvnHYfNaQriPdHFMd2WocO8CAwEAAaOCAREwggENMA4GA1UdDwEB/wQEAwIF
oDAdBgNVHSUEFjAUBggrBgEFBQcDAgYIKwYBBQUHAwEwDwYDVR0TAQH/BAUwAwEB
/zAOBgNVHSMEBzAFgAMBAgMwYgYIKwYBBQUHAQEEVjBUMCEGCCsGAQUFBzABhhVo
dHRwOi8vdGhlY2EubmV0L29jc3AwLwYIKwYBBQUHMAKGI2h0dHA6Ly90aGVjYS5u
ZXQvdG90YWxseXRoZWNlcnQuY3J0MCsGA1UdIAQkMCIwCgYIKwYBBQUHDQEwCAYG
Z4EMAQICMAoGCCsGAQUFBw0BMA0GA1UdDgQGBAQEAwIBMBsGA1UdEQQUMBKCCCou
Z292LnVzggZnb3YudXMwDQYJKoZIhvcNAQELBQADggEBAH+LxBpq5rW/2EWPdvdg
8WYj++9iC/1kdOCcLtrmSA/ECITEp//1h4o9nP2o+pYd4+8zysdB50U5hjv3DeQo
ElPjmDBMfbayXT5Xp7Gu9quzlnRfffJ6oCx//mtLp05Fu3kqlhY7nhipCydQpS2H
3DuXkO8gseyGcT98rEq6KRVWpFYQlK6GBjLvBXkmn9a8C5uA6TYHA7ir90K+28pi
ogaR+Yn8LhIuJmEW99Ekqkb49Sh1h9HX3d1Pwe2EQYr6b4Rds5cVUsKsDtbuMcz4
eV+DjFYHBhP4xdK6N79AhJ61vlFvF7RcIbOeMbyS3vUEHMSYvoC9WmgNtXd+AqEw
1M4=
-----END CERTIFICATE-----
