Certificate:
    Data:
        Version: 3 (0x2)
        Serial Number: 18008675309 (0x4316693ed)
    Signature Algorithm: sha256WithRSAEncryption
        Issuer: C = US, O = Mother Nature, OU = Everything, CN = Mother Nature
        Validity
            Not Before: Jul  1 19:39:33 2016 GMT
            Not After : Sep 13 19:39:33 2016 GMT
        Subject: C = US, ST = FL, L = Tallahassee, street = 3210 Holly Mill Run, postalCode = 30062, O = Extreme Discord, OU = Chaos, CN = gov.us
        Subject Public Key Info:
            Public Key Algorithm: rsaEncryption
                Public-Key: (2048 bit)
                Modulus:
                    00:9b:31:3f:2b:70:c0:62:18:39:7c:70:81:ba:a7:
                    81:3a:b1:41:da:7e:a7:8b:f3:21:7f:b3:c7:5e:09:
                    8d:01:56:3d:4d:e0:87:e7:eb:b2:1c:28:f9:32:9c:
                    70:b0:a6:99:1b:16:60:04:66:1a:b4:a6:e2:9b:f4:
                    e4:b4:86:37:78:0c:c6:84:35:14:33:71:08:fd:55:
                    3e:db:f6:29:ac:56:a3:b6:b6:04:a2:b5:3c:6e:5f:
                    db:37:b4:9c:a2:71:d2:3d:88:1f:18:2a:c7:2c:12:
                    0b:d4:36:44:2f:f7:ed:b6:82:b3:85:bc:41:b5:bc:
                    36:d5:3c:c1:9d:e0:b6:46:4b:dc:a3:17:20:48:a8:
                    2f:2d:f9:b8:5b:a1:16:27:70:e3:62:7a:e7:fa:95:
                    2c:9a:1c:22:19:5f:e7:7f:6a:f5:77:74:79:a3:79:
                    6a:0c:f0:b7:a6:fd:e7:c9:f7:c8:ba:32:4e:a6:f0:
                    09:34:e6:e1:8f:aa:86:a5:f2:f0:9a:1e:95:c5:44:
                    11:11:28:d1:af:71:39:26:ce:cd:c2:bc:08:98:2f:
                    75:ac:c0:71:6f:8d:1a:db:21:17:85:c8:af:e7:60:
                    b3:00:e1:bc:00:30:0a:d1:3c:7f:89:66:db:23:00:
                    56:f5:3b:a6:3b:9b:46:f8:12:ff:cd:98:9a:b7:e8:
                    e1:ab
                Exponent: 65537 (0x10001)
    Signature Algorithm: sha256WithRSAEncryption
         b6:be:2d:55:e0:4e:7b:f1:a0:11:c7:81:b3:5f:9a:0d:0b:99:
         9c:6f:ec:e3:b6:e0:69:2e:d8:6e:8b:fd:73:ef:28:dd:a4:cf:
         c9:24:57:64:8e:80:df:47:59:38:4f:ad:b1:6d:22:65:9d:b6:
         4f:ed:9f:cc:72:97:e5:2c:59:9e:94:a4:44:84:26:15:60:61:
         89:26:65:91:3f:9c:da:6e:1a:21:96:7e:2a:4d:21:5c:c6:d5:
         e4:6c:fc:af:18:6d:09:61:30:6e:d5:f9:bd:e2:10:aa:a0:ca:
         ed:ee:0d:c6:f8:2b:3e:e0:e0:82:27:9f:fd:a8:9a:00:aa:77:
         d3:e4:e7:1d:c5:a0:f7:a5:ef:a1:3d:af:23:cc:00:0c:f8:79:
         e9:35:a1:cd:8c:87:91:92:ee:dc:1b:af:d5:73:ac:bc:b3:5a:
         9c:b6:60:0f:30:19:0e:f4:b1:67:78:a9:fb:4f:18:9f:d3:6e:
         5f:76:c9:8d:a9:83:3c:28:69:9e:9a:37:e7:91:f0:4e:0b:c5:
         6d:a1:be:2b:96:94:06:93:38:be:62:d5:b5:50:34:cb:d6:85:
         e8:c7:44:f7:13:69:f3:4d:f6:0d:5c:df:72:19:e6:75:9a:23:
         15:9a:eb:35:2e:43:c6:1b:39:aa:79:aa:11:48:b2:ff:99:d6:
         c8:bd:26:36
-----BEGIN CERTIFICATE-----
MIIDbTCCAlWgAwIBAgIFBDFmk+0wDQYJKoZIhvcNAQELBQAwUjELMAkGA1UEBhMC
VVMxFjAUBgNVBAoTDU1vdGhlciBOYXR1cmUxEzARBgNVBAsTCkV2ZXJ5dGhpbmcx
FjAUBgNVBAMTDU1vdGhlciBOYXR1cmUwHhcNMTYwNzAxMTkzOTMzWhcNMTYwOTEz
MTkzOTMzWjCBmTELMAkGA1UEBhMCVVMxCzAJBgNVBAgTAkZMMRQwEgYDVQQHEwtU
YWxsYWhhc3NlZTEcMBoGA1UECRMTMzIxMCBIb2xseSBNaWxsIFJ1bjEOMAwGA1UE
ERMFMzAwNjIxGDAWBgNVBAoTD0V4dHJlbWUgRGlzY29yZDEOMAwGA1UECxMFQ2hh
b3MxDzANBgNVBAMTBmdvdi51czCCASIwDQYJKoZIhvcNAQEBBQADggEPADCCAQoC
ggEBAJsxPytwwGIYOXxwgbqngTqxQdp+p4vzIX+zx14JjQFWPU3gh+frshwo+TKc
cLCmmRsWYARmGrSm4pv05LSGN3gMxoQ1FDNxCP1VPtv2KaxWo7a2BKK1PG5f2ze0
nKJx0j2IHxgqxywSC9Q2RC/37baCs4W8QbW8NtU8wZ3gtkZL3KMXIEioLy35uFuh
Fidw42J65/qVLJocIhlf539q9Xd0eaN5agzwt6b958n3yLoyTqbwCTTm4Y+qhqXy
8JoelcVEEREo0a9xOSbOzcK8CJgvdazAcW+NGtshF4XIr+dgswDhvAAwCtE8f4lm
2yMAVvU7pjubRvgS/82Ymrfo4asCAwEAAaMCMAAwDQYJKoZIhvcNAQELBQADggEB
ALa+LVXgTnvxoBHHgbNfmg0LmZxv7OO24Gku2G6L/XPvKN2kz8kkV2SOgN9HWThP
rbFtImWdtk/tn8xyl+UsWZ6UpESEJhVgYYkmZZE/nNpuGiGWfipNIVzG1eRs/K8Y
bQlhMG7V+b3iEKqgyu3uDcb4Kz7g4IInn/2omgCqd9Pk5x3FoPel76E9ryPMAAz4
eek1oc2Mh5GS7twbr9VzrLyzWpy2YA8wGQ70sWd4qftPGJ/Tbl92yY2pgzwoaZ6a
N+eR8E4LxW2hviuWlAaTOL5i1bVQNMvWhejHRPcTafNN9g1c33IZ5nWaIxWa6zUu
Q8YbOap5qhFIsv+Z1si9JjY=
-----END CERTIFICATE-----
