Certificate:
    Data:
        Version: 3 (0x2)
        Serial Number: 18008675309 (0x4316693ed)
    Signature Algorithm: sha256WithRSAEncryption
        Issuer: C = US, O = Mother Nature, OU = Everything, CN = Mother Nature
        Validity
            Not Before: Jun 29 19:14:26 2016 GMT
            Not After : Sep 10 19:14:26 2016 GMT
        Subject: C = CN, O = Extreme Discord, OU = Chaos, L = Tallahassee, ST = FL, street = 3210 Holly Mill Run, postalCode = 30062
        Subject Public Key Info:
            Public Key Algorithm: rsaEncryption
                Public-Key: (2048 bit)
                Modulus:
                    00:b1:b0:8d:bc:12:60:10:b0:68:16:c4:01:c4:c1:
                    b6:33:9e:e9:0b:ef:39:b2:d3:b1:8f:fa:dc:db:9c:
                    d9:f4:3a:66:2f:4c:a6:1e:59:3f:c9:cc:62:8e:e3:
                    6f:ee:a5:f3:57:c1:fe:2b:67:5d:01:ee:13:13:39:
                    50:8c:69:7c:ee:83:4f:15:d9:30:1d:44:5d:a1:7f:
                    79:65:a2:8d:8b:46:43:1b:fc:ea:98:3c:fb:4c:0c:
                    f9:d2:30:ac:b3:ad:ed:8f:ae:ea:31:12:44:b6:14:
                    e6:0e:e7:a1:87:b7:7d:74:8a:70:72:bb:34:81:20:
                    0c:db:1b:04:51:37:a0:53:af:9a:e1:11:09:7f:da:
                    49:31:ae:5a:ec:0c:8f:6a:6d:5e:a4:85:6e:f7:06:
                    b7:45:48:18:aa:c0:e4:46:e5:c4:df:bd:5d:16:34:
                    22:50:f0:28:99:86:04:d7:2e:4a:9c:94:7d:01:6a:
                    c5:46:50:79:c8:03:37:dd:cd:4d:d6:16:ef:f6:dd:
                    7c:82:59:e8:4f:4b:67:28:53:8e:ec:c6:9c:ad:48:
                    57:69:63:eb:e9:25:2a:a2:87:e6:bd:cb:67:29:f3:
                    c1:6a:87:1a:39:7c:09:d9:36:fb:75:ca:55:c0:02:
                    fc:f7:fc:0a:76:d2:d9:09:c7:e8:01:46:4d:9c:d1:
                    47:c1
                Exponent: 65537 (0x10001)
        X509v3 extensions:
            X509v3 Key Usage: critical
                Digital Signature, Key Encipherment
            X509v3 Extended Key Usage: 
                TLS Web Client Authentication, TLS Web Server Authentication
            X509v3 Basic Constraints: critical
                CA:FALSE
            X509v3 Authority Key Identifier: 
                keyid:01:02:03

            Authority Information Access: 
                OCSP - URI:http://theca.net/ocsp
                CA Issuers - URI:http://theca.net/totallythecert.crt

            X509v3 Certificate Policies: 
                Policy: 2.23.140.1.2.2

            X509v3 Subject Key Identifier: 
                04:03:02:01
            X509v3 Subject Alternative Name: 
                DNS:*.gov.us, DNS:gov.us
    Signature Algorithm: sha256WithRSAEncryption
         2f:87:7c:04:37:cb:6e:22:72:3b:9c:9f:a0:82:20:eb:a3:ed:
         c6:96:2e:af:52:87:b5:65:3e:b1:4a:54:9f:1a:1b:79:b2:d8:
         4e:33:ed:af:d9:31:72:64:b1:c5:3e:4e:7c:57:94:02:10:06:
         49:9a:51:51:f8:76:c3:3d:dd:1b:38:c0:59:53:93:d5:bf:e8:
         5f:12:11:c9:80:1d:76:b6:9e:de:c5:95:e1:f0:56:60:41:52:
         50:ec:5f:93:ff:f5:fa:64:e1:e5:84:54:fb:d6:8f:39:26:9a:
         4e:59:1b:21:64:0c:a0:0a:03:ec:10:6f:98:79:d5:70:30:7a:
         fc:08:07:34:c6:8a:3e:8f:96:58:13:c5:68:be:1a:02:96:e0:
         53:02:f3:cb:2e:4a:28:69:24:19:d3:f4:54:f2:5d:b3:1f:0d:
         19:12:99:38:45:f0:f2:24:0c:21:7a:b8:12:97:0f:c4:70:d4:
         37:ec:1f:7b:76:c6:03:1f:37:29:75:93:cd:93:ca:0e:f3:8f:
         16:69:a9:82:d6:bc:82:6c:a0:6e:2b:14:95:41:ff:15:bc:23:
         84:c2:ef:05:ac:b8:f7:ac:b2:b3:f8:c4:b9:d9:dd:74:59:2d:
         e0:2f:8b:e2:e0:64:3c:f8:ca:99:5f:07:bb:fc:f1:54:98:f8:
         3c:e7:d5:ab
-----BEGIN CERTIFICATE-----
MIIEUDCCAzigAwIBAgIFBDFmk+0wDQYJKoZIhvcNAQELBQAwUjELMAkGA1UEBhMC
VVMxFjAUBgNVBAoTDU1vdGhlciBOYXR1cmUxEzARBgNVBAsTCkV2ZXJ5dGhpbmcx
FjAUBgNVBAMTDU1vdGhlciBOYXR1cmUwHhcNMTYwNjI5MTkxNDI2WhcNMTYwOTEw
MTkxNDI2WjCBiDELMAkGA1UEBhMCQ04xGDAWBgNVBAoTD0V4dHJlbWUgRGlzY29y
ZDEOMAwGA1UECxMFQ2hhb3MxFDASBgNVBAcTC1RhbGxhaGFzc2VlMQswCQYDVQQI
EwJGTDEcMBoGA1UECRMTMzIxMCBIb2xseSBNaWxsIFJ1bjEOMAwGA1UEERMFMzAw
NjIwggEiMA0GCSqGSIb3DQEBAQUAA4IBDwAwggEKAoIBAQCxsI28EmAQsGgWxAHE
wbYznukL7zmy07GP+tzbnNn0OmYvTKYeWT/JzGKO42/upfNXwf4rZ10B7hMTOVCM
aXzug08V2TAdRF2hf3lloo2LRkMb/OqYPPtMDPnSMKyzre2PruoxEkS2FOYO56GH
t310inByuzSBIAzbGwRRN6BTr5rhEQl/2kkxrlrsDI9qbV6khW73BrdFSBiqwORG
5cTfvV0WNCJQ8CiZhgTXLkqclH0BasVGUHnIAzfdzU3WFu/23XyCWehPS2coU47s
xpytSFdpY+vpJSqih+a9y2cp88Fqhxo5fAnZNvt1ylXAAvz3/Ap20tkJx+gBRk2c
0UfBAgMBAAGjgfUwgfIwDgYDVR0PAQH/BAQDAgWgMB0GA1UdJQQWMBQGCCsGAQUF
BwMCBggrBgEFBQcDATAMBgNVHRMBAf8EAjAAMA4GA1UdIwQHMAWAAwECAzBiBggr
BgEFBQcBAQRWMFQwIQYIKwYBBQUHMAGGFWh0dHA6Ly90aGVjYS5uZXQvb2NzcDAv
BggrBgEFBQcwAoYjaHR0cDovL3RoZWNhLm5ldC90b3RhbGx5dGhlY2VydC5jcnQw
EwYDVR0gBAwwCjAIBgZngQwBAgIwDQYDVR0OBAYEBAQDAgEwGwYDVR0RBBQwEoII
Ki5nb3YudXOCBmdvdi51czANBgkqhkiG9w0BAQsFAAOCAQEAL4d8BDfLbiJyO5yf
oIIg66PtxpYur1KHtWU+sUpUnxobebLYTjPtr9kxcmSxxT5OfFeUAhAGSZpRUfh2
wz3dGzjAWVOT1b/oXxIRyYAddrae3sWV4fBWYEFSUOxfk//1+mTh5YRU+9aPOSaa
TlkbIWQMoAoD7BBvmHnVcDB6/AgHNMaKPo+WWBPFaL4aApbgUwLzyy5KKGkkGdP0
VPJdsx8NGRKZOEXw8iQMIXq4EpcPxHDUN+wfe3bGAx83KXWTzZPKDvOPFmmpgta8
gmygbisUlUH/FbwjhMLvBay496yys/jEudnddFkt4C+L4uBkPPjKmV8Hu/zxVJj4
POfVqw==
-----END CERTIFICATE-----
