Certificate:
    Data:
        Version: 3 (0x2)
        Serial Number: 18008675309 (0x4316693ed)
    Signature Algorithm: sha256WithRSAEncryption
        Issuer: C = US, O = Mother Nature, OU = Everything, CN = Mother Nature
        Validity
            Not Before: Jun 29 19:20:21 2016 GMT
            Not After : Sep 10 19:20:21 2016 GMT
        Subject: C = CN, O = Extreme Discord, OU = Chaos, L = Tallahassee, ST = FL, street = 3210 Holly Mill Run, postalCode = 30062, CN = www.youtube.com
        Subject Public Key Info:
            Public Key Algorithm: rsaEncryption
                Public-Key: (2048 bit)
                Modulus:
                    00:94:8c:66:d8:7b:56:2f:a2:73:39:dc:80:e6:ef:
                    19:dc:30:9e:7a:45:e0:49:7e:4c:30:1f:2e:3d:00:
                    6f:b6:94:e3:6e:6c:f8:c8:39:7b:09:c2:83:17:a3:
                    b9:ac:82:5c:7b:90:1d:ed:69:33:b1:9a:f7:97:17:
                    c5:65:b6:01:30:4f:4d:8d:07:d4:28:6d:39:58:e0:
                    23:a3:06:7b:dc:ad:0c:e9:80:bd:c4:10:54:ef:f3:
                    00:55:a0:cf:ae:32:bd:eb:65:76:fa:e9:12:b4:2e:
                    b1:4c:17:9e:b9:25:b1:6e:2e:24:fb:7d:e0:3d:92:
                    99:c2:dc:52:ca:5d:20:0f:be:b4:d7:0c:7d:33:38:
                    e0:9e:1e:33:75:55:d5:c4:19:df:9f:51:bc:b6:a2:
                    b7:b1:47:05:96:f7:47:2a:17:93:0c:68:47:cf:19:
                    5f:74:90:a4:32:aa:f9:0d:32:05:57:82:65:0c:a0:
                    d6:8f:62:9d:cd:c8:cb:ff:1f:df:0c:01:2c:27:f5:
                    a4:8a:5f:5e:6c:ec:9b:53:bf:7d:17:32:7a:f2:8f:
                    af:5f:d1:bc:01:48:b1:2b:60:ca:33:a4:1d:e2:20:
                    3c:b6:e2:ac:1e:5a:27:4a:05:3f:e8:c8:3b:85:f9:
                    5d:cd:de:c2:78:f5:c8:c8:4f:09:32:a3:f7:e6:95:
                    78:85
                Exponent: 65537 (0x10001)
        X509v3 extensions:
            X509v3 Key Usage: critical
                Digital Signature, Key Encipherment
            X509v3 Extended Key Usage: 
                TLS Web Client Authentication, TLS Web Server Authentication
            X509v3 Basic Constraints: critical
                CA:FALSE
            X509v3 Authority Key Identifier: 
                keyid:01:02:03

            Authority Information Access: 
                OCSP - URI:http://theca.net/ocsp
                CA Issuers - URI:http://theca.net/totallythecert.crt

            X509v3 Certificate Policies: 
                Policy: 2.23.140.1.2.2

            X509v3 Subject Key Identifier: 
                04:03:02:01
            X509v3 Subject Alternative Name: 
                DNS:*.gov.us, DNS:gov.us
    Signature Algorithm: sha256WithRSAEncryption
         c2:01:e7:42:6a:63:aa:8a:20:87:8d:08:72:b9:b4:45:1c:b6:
         bc:9b:71:7f:b2:1e:05:24:7f:9a:d9:58:ef:4f:37:63:f7:f4:
         46:22:51:36:25:81:75:5e:08:9f:0c:d9:16:8c:38:0c:6d:53:
         09:ae:2e:6a:b5:7b:70:c4:6c:3c:7d:7d:e6:9e:2b:c8:ab:b0:
         3b:20:3c:46:b8:40:b4:7b:75:a8:d7:48:f6:82:29:f9:3c:0f:
         8f:98:f1:c2:17:c3:fc:bb:58:fa:71:23:c4:5d:74:9b:b7:9c:
         0f:e4:dd:33:cd:bf:7f:0f:78:e1:07:2e:ec:bb:40:a5:3a:2a:
         dd:29:42:79:89:68:1f:f9:2f:d2:fe:9b:9a:59:15:63:9d:c4:
         25:c1:80:de:35:cf:6a:c9:cd:8a:07:30:84:50:97:f7:80:0d:
         77:85:6b:b2:23:75:f9:01:6f:28:8e:9c:72:a1:dd:56:bb:81:
         16:ba:b9:ed:a7:21:a6:1b:2c:42:2e:04:53:aa:00:70:84:7d:
         b1:d0:1b:da:5c:32:40:5c:53:a7:e1:5e:a3:76:ab:7e:d3:ef:
         13:47:e8:88:5b:ca:08:86:ad:a7:f4:0f:bd:3a:41:5b:ba:0f:
         f2:9c:43:fb:c0:83:a0:4d:e1:79:11:dc:a5:56:1d:c4:d2:5e:
         cc:30:5e:7f
-----BEGIN CERTIFICATE-----
MIIEajCCA1KgAwIBAgIFBDFmk+0wDQYJKoZIhvcNAQELBQAwUjELMAkGA1UEBhMC
VVMxFjAUBgNVBAoTDU1vdGhlciBOYXR1cmUxEzARBgNVBAsTCkV2ZXJ5dGhpbmcx
FjAUBgNVBAMTDU1vdGhlciBOYXR1cmUwHhcNMTYwNjI5MTkyMDIxWhcNMTYwOTEw
MTkyMDIxWjCBojELMAkGA1UEBhMCQ04xGDAWBgNVBAoTD0V4dHJlbWUgRGlzY29y
ZDEOMAwGA1UECxMFQ2hhb3MxFDASBgNVBAcTC1RhbGxhaGFzc2VlMQswCQYDVQQI
EwJGTDEcMBoGA1UECRMTMzIxMCBIb2xseSBNaWxsIFJ1bjEOMAwGA1UEERMFMzAw
NjIxGDAWBgNVBAMTD3d3dy55b3V0dWJlLmNvbTCCASIwDQYJKoZIhvcNAQEBBQAD
ggEPADCCAQoCggEBAJSMZth7Vi+iczncgObvGdwwnnpF4El+TDAfLj0Ab7aU425s
+Mg5ewnCgxejuayCXHuQHe1pM7Ga95cXxWW2ATBPTY0H1ChtOVjgI6MGe9ytDOmA
vcQQVO/zAFWgz64yvetldvrpErQusUwXnrklsW4uJPt94D2SmcLcUspdIA++tNcM
fTM44J4eM3VV1cQZ359RvLait7FHBZb3RyoXkwxoR88ZX3SQpDKq+Q0yBVeCZQyg
1o9inc3Iy/8f3wwBLCf1pIpfXmzsm1O/fRcyevKPr1/RvAFIsStgyjOkHeIgPLbi
rB5aJ0oFP+jIO4X5Xc3ewnj1yMhPCTKj9+aVeIUCAwEAAaOB9TCB8jAOBgNVHQ8B
Af8EBAMCBaAwHQYDVR0lBBYwFAYIKwYBBQUHAwIGCCsGAQUFBwMBMAwGA1UdEwEB
/wQCMAAwDgYDVR0jBAcwBYADAQIDMGIGCCsGAQUFBwEBBFYwVDAhBggrBgEFBQcw
AYYVaHR0cDovL3RoZWNhLm5ldC9vY3NwMC8GCCsGAQUFBzAChiNodHRwOi8vdGhl
Y2EubmV0L3RvdGFsbHl0aGVjZXJ0LmNydDATBgNVHSAEDDAKMAgGBmeBDAECAjAN
BgNVHQ4EBgQEBAMCATAbBgNVHREEFDASgggqLmdvdi51c4IGZ292LnVzMA0GCSqG
SIb3DQEBCwUAA4IBAQDCAedCamOqiiCHjQhyubRFHLa8m3F/sh4FJH+a2VjvTzdj
9/RGIlE2JYF1XgifDNkWjDgMbVMJri5qtXtwxGw8fX3mnivIq7A7IDxGuEC0e3Wo
10j2gin5PA+PmPHCF8P8u1j6cSPEXXSbt5wP5N0zzb9/D3jhBy7su0ClOirdKUJ5
iWgf+S/S/puaWRVjncQlwYDeNc9qyc2KBzCEUJf3gA13hWuyI3X5AW8ojpxyod1W
u4EWurntpyGmGyxCLgRTqgBwhH2x0BvaXDJAXFOn4V6jdqt+0+8TR+iIW8oIhq2n
9A+9OkFbug/ynEP7wIOgTeF5EdylVh3E0l7MMF5/
-----END CERTIFICATE-----
