Certificate:
    Data:
        Version: 3 (0x2)
        Serial Number: 4796 (0x12bc)
        Signature Algorithm: sha256WithRSAEncryption
        Issuer: C=DE, ST=Bayern, L=N\xC3\x83\xC2\xBCrnberg, O=Siemens AG, OU=Trustcenter, CN=OliverCA/emailAddress=oliver.stiller@siemens.com
        Validity
            Not Before: Nov 27 12:10:00 2020 GMT
            Not After : Nov 27 12:10:00 2021 GMT
        Subject: O=testconstraints3, CN=testconstraints3
        Subject Public Key Info:
            Public Key Algorithm: rsaEncryption
                RSA Public-Key: (2048 bit)
                Modulus:
                    00:c9:ec:4d:0d:5a:a6:5e:f4:5d:e0:0b:b1:74:88:
                    8a:6f:1d:c8:5b:9d:61:6a:1f:dc:37:e0:28:74:ec:
                    c9:d8:4b:ec:5e:bb:c0:c5:85:5a:6f:0f:d8:55:c7:
                    fd:bf:f5:6f:2b:15:bf:3b:9f:4c:2d:e1:49:3f:ed:
                    92:b9:e2:76:0f:99:3e:fc:c8:f1:00:21:9c:fe:06:
                    b3:ba:1e:59:d1:42:67:00:c8:d9:ae:f4:5a:24:fb:
                    7f:00:61:b3:05:54:de:f7:3c:17:4d:6f:f6:02:3a:
                    45:dd:f0:42:21:a1:57:ca:02:3f:9f:d6:77:9f:f5:
                    01:a8:f4:40:0f:8b:e0:e6:77:a8:7c:d5:13:ed:d8:
                    dc:5a:49:02:12:36:2c:fe:cd:fe:0b:d6:f3:15:09:
                    7d:3e:01:a3:1a:8c:68:b6:49:63:3e:83:46:1b:5c:
                    ab:44:2d:7d:89:43:91:ea:e5:7c:9b:a4:c8:1a:1b:
                    2b:5d:05:58:6d:79:96:69:d6:1d:57:05:2b:0c:1f:
                    0d:6b:85:ae:19:ca:62:6e:f0:5e:59:44:e4:4d:79:
                    24:a2:7c:02:7c:4e:7c:cc:dd:5c:c6:33:22:ee:08:
                    c1:6c:25:01:e1:01:cd:2c:a4:db:e3:01:fe:f9:7e:
                    fa:69:32:c4:bd:30:9a:cb:2b:84:73:ed:2f:15:df:
                    d2:7b
                Exponent: 65537 (0x10001)
        X509v3 extensions:
            X509v3 Extended Key Usage: 
                Any Extended Key Usage, TLS Web Server Authentication
            X509v3 Key Usage: 
                Digital Signature, Key Encipherment
            X509v3 Name Constraints: 
                Permitted:
                  URI:example.com

    Signature Algorithm: sha256WithRSAEncryption
         87:42:c8:5a:45:e9:16:96:92:1d:12:5c:86:d9:ef:df:93:10:
         ee:3d:e3:19:f8:2e:5d:85:3c:7d:3e:b7:37:b6:52:36:02:d5:
         c6:e0:ce:e5:bd:bd:25:d3:7b:d2:5e:77:bc:07:35:1e:41:8f:
         9d:c0:cd:76:df:8f:1c:fd:c3:01:b5:03:a3:01:60:77:e5:ed:
         93:da:ec:b0:50:2d:c9:7d:4f:d9:93:39:b2:c2:80:08:80:7e:
         70:77:ec:8e:11:fc:7a:69:6d:74:c3:e4:b6:c5:e6:2f:83:b2:
         93:7a:6a:43:d1:23:94:04:39:30:20:37:40:69:4d:2e:97:78:
         b9:a9:c6:7b:1d:f4:5b:00:76:e1:fb:e4:5b:5b:ef:89:d0:85:
         31:6c:2c:77:24:36:78:6d:4f:da:7e:6b:96:79:1f:dc:19:59:
         dc:9f:fd:a8:29:50:70:03:0e:eb:75:9a:d9:34:4d:16:ad:8f:
         2d:c7:c1:8f:7c:f2:af:35:b3:21:94:96:19:59:03:cc:bd:72:
         09:01:fa:f8:9b:b7:53:ef:ce:b5:e0:4e:5d:c2:7a:1c:9c:93:
         64:be:22:f8:c4:49:87:ec:4d:ef:fe:bd:44:96:14:8a:4e:d3:
         a2:7b:cc:0f:59:5d:4f:8d:70:0f:c1:e4:5d:36:d0:ad:f7:82:
         27:89:cd:11:77:d8:8b:8e:c0:fc:f4:73:e9:28:aa:0a:bf:b3:
         a0:c5:5b:9a:d8:e5:d7:e8:ac:b0:fa:b5:20:93:6f:de:03:7b:
         89:08:89:ce:c5:fc:b1:6f:46:d7:66:4f:dd:03:ac:f1:e0:39:
         10:f2:ec:8d:95:a4:8e:19:3a:4f:da:cb:a8:14:cf:2e:31:43:
         cc:c9:d6:98:45:fe:30:00:14:4a:74:8d:6e:fe:1a:8f:0c:3e:
         94:0a:89:e1:6d:2e:6b:0b:d5:eb:77:43:af:22:12:95:ae:e2:
         e7:6f:c6:02:0a:00:62:1f:17:e7:68:5a:05:0b:23:01:a9:eb:
         5f:39:9e:0f:df:55:35:cf:18:49:a1:ad:98:02:73:e8:1c:e0:
         cd:5f:df:2e:c9:d5:b4:df:f8:e0:68:9b:5e:c8:7c:6f:2d:0d:
         4f:20:7b:91:05:89:e5:d7:b7:0e:46:2d:17:a0:d2:e5:71:d5:
         b5:71:43:32:23:20:1f:9f:c8:b4:71:7c:be:22:e3:c4:c2:67:
         e4:a9:a7:42:76:06:14:54:17:97:58:17:f6:80:76:c6:4e:4f:
         0b:f2:7d:07:e7:23:c3:1a:83:56:3a:bb:cb:e8:e7:45:15:57:
         d4:87:ae:e1:01:3f:14:73:d6:83:ed:08:e6:ce:a9:a7:aa:97:
         71:ce:21:b7:75:99:6d:77
-----BEGIN CERTIFICATE-----
MIIEljCCAn6gAwIBAgICErwwDQYJKoZIhvcNAQELBQAwgZ0xCzAJBgNVBAYTAkRF
MQ8wDQYDVQQIDAZCYXllcm4xFDASBgNVBAcMC07Dg8K8cm5iZXJnMRMwEQYDVQQK
DApTaWVtZW5zIEFHMRQwEgYDVQQLDAtUcnVzdGNlbnRlcjERMA8GA1UEAwwIT2xp
dmVyQ0ExKTAnBgkqhkiG9w0BCQEWGm9saXZlci5zdGlsbGVyQHNpZW1lbnMuY29t
MB4XDTIwMTEyNzEyMTAwMFoXDTIxMTEyNzEyMTAwMFowNjEZMBcGA1UECgwQdGVz
dGNvbnN0cmFpbnRzMzEZMBcGA1UEAwwQdGVzdGNvbnN0cmFpbnRzMzCCASIwDQYJ
KoZIhvcNAQEBBQADggEPADCCAQoCggEBAMnsTQ1apl70XeALsXSIim8dyFudYWof
3DfgKHTsydhL7F67wMWFWm8P2FXH/b/1bysVvzufTC3hST/tkrnidg+ZPvzI8QAh
nP4Gs7oeWdFCZwDI2a70WiT7fwBhswVU3vc8F01v9gI6Rd3wQiGhV8oCP5/Wd5/1
Aaj0QA+L4OZ3qHzVE+3Y3FpJAhI2LP7N/gvW8xUJfT4BoxqMaLZJYz6DRhtcq0Qt
fYlDkerlfJukyBobK10FWG15lmnWHVcFKwwfDWuFrhnKYm7wXllE5E15JKJ8AnxO
fMzdXMYzIu4IwWwlAeEBzSyk2+MB/vl++mkyxL0wmssrhHPtLxXf0nsCAwEAAaNG
MEQwGQYDVR0lBBIwEAYEVR0lAAYIKwYBBQUHAwEwCwYDVR0PBAQDAgWgMBoGA1Ud
HgQTMBGgDzANhgtleGFtcGxlLmNvbTANBgkqhkiG9w0BAQsFAAOCAgEAh0LIWkXp
FpaSHRJchtnv35MQ7j3jGfguXYU8fT63N7ZSNgLVxuDO5b29JdN70l53vAc1HkGP
ncDNdt+PHP3DAbUDowFgd+Xtk9rssFAtyX1P2ZM5ssKACIB+cHfsjhH8emltdMPk
tsXmL4Oyk3pqQ9EjlAQ5MCA3QGlNLpd4uanGex30WwB24fvkW1vvidCFMWwsdyQ2
eG1P2n5rlnkf3BlZ3J/9qClQcAMO63Wa2TRNFq2PLcfBj3zyrzWzIZSWGVkDzL1y
CQH6+Ju3U+/OteBOXcJ6HJyTZL4i+MRJh+xN7/69RJYUik7TonvMD1ldT41wD8Hk
XTbQrfeCJ4nNEXfYi47A/PRz6SiqCr+zoMVbmtjl1+issPq1IJNv3gN7iQiJzsX8
sW9G12ZP3QOs8eA5EPLsjZWkjhk6T9rLqBTPLjFDzMnWmEX+MAAUSnSNbv4ajww+
lAqJ4W0uawvV63dDryISla7i52/GAgoAYh8X52haBQsjAanrXzmeD99VNc8YSaGt
mAJz6BzgzV/fLsnVtN/44GibXsh8by0NTyB7kQWJ5de3DkYtF6DS5XHVtXFDMiMg
H5/ItHF8viLjxMJn5KmnQnYGFFQXl1gX9oB2xk5PC/J9B+cjwxqDVjq7y+jnRRVX
1Ieu4QE/FHPWg+0I5s6pp6qXcc4ht3WZbXc=
-----END CERTIFICATE-----
