Certificate:
    Data:
        Version: 3 (0x2)
        Serial Number: 4792 (0x12b8)
        Signature Algorithm: sha256WithRSAEncryption
        Issuer: C=DE, ST=Bayern, L=N\xC3\x83\xC2\xBCrnberg, O=Siemens AG, OU=Trustcenter, CN=OliverCA/emailAddress=oliver.stiller@siemens.com
        Validity
            Not Before: Nov 26 09:54:37 2020 GMT
            Not After : Nov 26 09:54:37 2021 GMT
        Subject: O=testconstraints0, CN=testconstraints0
        Subject Public Key Info:
            Public Key Algorithm: rsaEncryption
                RSA Public-Key: (2048 bit)
                Modulus:
                    00:cb:c5:99:f4:f4:b1:06:65:26:3b:25:9a:ff:b8:
                    ac:0d:32:89:68:34:e3:7a:e0:a1:d2:75:ae:12:9d:
                    83:8c:67:18:c9:a7:20:cc:58:65:35:8d:7a:36:81:
                    6d:fe:dc:8b:8f:dd:7c:56:ba:bc:84:ef:6c:ba:e1:
                    8f:55:db:c6:cc:a5:6c:78:01:db:20:b9:99:ec:04:
                    8b:6b:9f:69:82:10:1e:0f:7d:af:a2:7f:96:7f:0d:
                    da:16:af:c2:cc:af:7d:a7:72:41:d6:0b:d4:fb:da:
                    7f:62:69:b3:a8:69:f4:4b:41:d9:b1:d1:56:b0:b7:
                    d1:72:35:25:49:70:c4:0c:da:80:ff:09:17:7b:25:
                    08:4a:45:e4:03:5c:f2:99:69:12:c4:8e:37:35:34:
                    fa:3e:48:40:ab:0d:1d:4a:89:f3:56:0f:2b:2e:b0:
                    e6:a4:13:b4:54:1a:42:ff:ff:79:33:3a:1a:c7:83:
                    4c:3b:fe:c5:2f:c5:d2:88:36:74:7e:41:90:24:9f:
                    7f:45:3d:71:94:d1:85:1a:8e:3b:f8:5f:96:f6:e5:
                    be:9e:b2:ad:59:22:8d:f7:5b:45:02:cb:dd:ca:c8:
                    de:94:af:b6:d8:9f:81:77:4f:ba:d4:02:8a:5d:99:
                    0f:7f:81:3c:26:63:37:57:ac:5f:7e:4b:5c:2e:e0:
                    ca:7b
                Exponent: 65537 (0x10001)
        X509v3 extensions:
            X509v3 Extended Key Usage: 
                Any Extended Key Usage, TLS Web Server Authentication
            X509v3 Key Usage: 
                Digital Signature, Key Encipherment
            OCSP No Check: 

            X509v3 Name Constraints: 
                Permitted:
                  URI:example.com

    Signature Algorithm: sha256WithRSAEncryption
         45:f4:16:1b:fc:8b:e6:8a:c2:2e:a2:34:a7:6d:ee:ad:e9:2f:
         8e:d9:c0:61:09:f6:a5:e2:64:ae:de:ae:7e:2d:dc:9a:0d:a4:
         cc:4f:25:21:c2:83:fa:f0:58:ce:2a:97:f9:e2:9a:2d:0a:4e:
         16:76:7e:3b:1b:8a:8e:3c:79:f3:b3:1e:5a:ac:79:5e:f3:71:
         8c:ea:1a:3c:a6:3f:d0:26:77:dd:2a:bf:f5:d1:8e:a2:8a:54:
         0b:2e:66:18:b3:fe:3d:f7:23:cb:2a:a7:97:73:53:d7:76:28:
         57:f1:b9:c9:42:29:d6:06:05:8a:b7:1d:de:33:e8:ac:65:5d:
         a2:d0:c5:a9:43:40:e0:9a:28:f3:09:cd:19:e3:71:e5:30:13:
         67:77:8f:a8:4f:a8:a2:9c:cb:13:38:73:3f:d5:5a:85:7a:fa:
         ca:ca:01:31:89:10:53:80:f2:3d:f1:83:59:10:93:ab:f2:4f:
         a3:71:24:14:4d:7c:44:c6:e8:dd:1d:d6:a8:3b:b2:b8:29:19:
         59:c1:67:88:25:75:3c:c9:c7:ee:0a:69:0b:c1:5d:53:3b:65:
         2b:54:4d:81:18:31:80:9f:86:17:0d:02:2b:5e:13:ec:f7:21:
         f0:25:57:12:cd:20:56:f4:6b:e5:9a:56:14:5b:ab:69:fb:61:
         46:59:2b:8e:b4:4e:d5:cf:d1:cd:48:8e:c2:b2:86:44:c8:11:
         03:4e:0a:30:6d:e6:d1:32:4c:54:19:a6:09:2d:4c:cb:c0:2d:
         fe:89:04:6f:a4:1b:8c:07:56:62:55:e9:29:e8:4d:cc:ad:b0:
         50:23:e7:93:d2:4b:fe:dd:a4:e3:f2:cc:94:a6:0f:f6:c7:5a:
         1f:28:02:32:27:53:66:a1:64:71:82:40:e9:bb:30:31:e8:ac:
         ef:42:c7:1c:72:83:57:5c:06:a9:dd:3d:b3:38:b6:7c:3f:71:
         d9:cb:63:60:b2:4d:5b:9e:71:6d:a9:49:d4:d6:d9:b8:e6:8b:
         75:94:82:3d:fb:4e:80:94:f8:a5:20:43:bd:b5:aa:aa:64:72:
         c5:ac:c9:a3:b8:69:1c:ba:76:ce:4d:38:12:a3:2e:28:11:90:
         cd:eb:f6:0b:98:e7:fd:48:f7:86:43:88:a4:a0:13:21:a0:29:
         62:e7:b3:cb:d3:26:3d:9f:55:17:af:12:5d:18:23:e8:0a:b2:
         6c:68:c5:b7:16:a3:b6:87:dc:fe:80:2d:93:29:89:74:5d:1b:
         9c:2c:19:ae:f1:69:26:1a:55:46:42:7b:c2:c8:80:6b:8f:de:
         94:44:76:bd:0d:b6:5f:e2:3a:37:1e:e3:c6:f4:b2:54:48:2a:
         ab:f9:98:1d:ff:16:e7:99
-----BEGIN CERTIFICATE-----
MIIEpzCCAo+gAwIBAgICErgwDQYJKoZIhvcNAQELBQAwgZ0xCzAJBgNVBAYTAkRF
MQ8wDQYDVQQIDAZCYXllcm4xFDASBgNVBAcMC07Dg8K8cm5iZXJnMRMwEQYDVQQK
DApTaWVtZW5zIEFHMRQwEgYDVQQLDAtUcnVzdGNlbnRlcjERMA8GA1UEAwwIT2xp
dmVyQ0ExKTAnBgkqhkiG9w0BCQEWGm9saXZlci5zdGlsbGVyQHNpZW1lbnMuY29t
MB4XDTIwMTEyNjA5NTQzN1oXDTIxMTEyNjA5NTQzN1owNjEZMBcGA1UECgwQdGVz
dGNvbnN0cmFpbnRzMDEZMBcGA1UEAwwQdGVzdGNvbnN0cmFpbnRzMDCCASIwDQYJ
KoZIhvcNAQEBBQADggEPADCCAQoCggEBAMvFmfT0sQZlJjslmv+4rA0yiWg043rg
odJ1rhKdg4xnGMmnIMxYZTWNejaBbf7ci4/dfFa6vITvbLrhj1XbxsylbHgB2yC5
mewEi2ufaYIQHg99r6J/ln8N2havwsyvfadyQdYL1Pvaf2Jps6hp9EtB2bHRVrC3
0XI1JUlwxAzagP8JF3slCEpF5ANc8plpEsSONzU0+j5IQKsNHUqJ81YPKy6w5qQT
tFQaQv//eTM6GseDTDv+xS/F0og2dH5BkCSff0U9cZTRhRqOO/hflvblvp6yrVki
jfdbRQLL3crI3pSvttifgXdPutQCil2ZD3+BPCZjN1esX35LXC7gynsCAwEAAaNX
MFUwGQYDVR0lBBIwEAYEVR0lAAYIKwYBBQUHAwEwCwYDVR0PBAQDAgWgMA8GCSsG
AQUFBzABBQQCBQAwGgYDVR0eBBMwEaAPMA2GC2V4YW1wbGUuY29tMA0GCSqGSIb3
DQEBCwUAA4ICAQBF9BYb/IvmisIuojSnbe6t6S+O2cBhCfal4mSu3q5+LdyaDaTM
TyUhwoP68FjOKpf54potCk4Wdn47G4qOPHnzsx5arHle83GM6ho8pj/QJnfdKr/1
0Y6iilQLLmYYs/499yPLKqeXc1PXdihX8bnJQinWBgWKtx3eM+isZV2i0MWpQ0Dg
mijzCc0Z43HlMBNnd4+oT6iinMsTOHM/1VqFevrKygExiRBTgPI98YNZEJOr8k+j
cSQUTXxExujdHdaoO7K4KRlZwWeIJXU8ycfuCmkLwV1TO2UrVE2BGDGAn4YXDQIr
XhPs9yHwJVcSzSBW9GvlmlYUW6tp+2FGWSuOtE7Vz9HNSI7CsoZEyBEDTgowbebR
MkxUGaYJLUzLwC3+iQRvpBuMB1ZiVekp6E3MrbBQI+eT0kv+3aTj8syUpg/2x1of
KAIyJ1NmoWRxgkDpuzAx6KzvQscccoNXXAap3T2zOLZ8P3HZy2Ngsk1bnnFtqUnU
1tm45ot1lII9+06AlPilIEO9taqqZHLFrMmjuGkcunbOTTgSoy4oEZDN6/YLmOf9
SPeGQ4ikoBMhoCli57PL0yY9n1UXrxJdGCPoCrJsaMW3FqO2h9z+gC2TKYl0XRuc
LBmu8WkmGlVGQnvCyIBrj96URHa9DbZf4jo3HuPG9LJUSCqr+Zgd/xbnmQ==
-----END CERTIFICATE-----
