Certificate:
    Data:
        Version: 3 (0x2)
        Serial Number:
            16:e3:9f:2c:68:44:05:d6:2f:4a:8a:9e:2c:d7:d2:f7:40:00:00:00:00
    Signature Algorithm: sha256WithRSAEncryption
        Issuer: C = US, O = Mother Nature, OU = Everything, CN = Mother Nature
        Validity
            Not Before: Jul  7 22:15:41 2016 GMT
            Not After : Sep 19 22:15:41 2016 GMT
        Subject: C = US, ST = FL, L = Tallahassee, street = 3210 Holly Mill Run, postalCode = 30062, O = Extreme Discord, OU = Chaos, CN = gov.us
        Subject Public Key Info:
            Public Key Algorithm: rsaEncryption
                Public-Key: (2048 bit)
                Modulus:
                    00:da:a2:e6:4f:c5:b1:0c:d5:e4:bf:98:24:53:d0:
                    2e:4f:be:37:08:a7:f2:a5:fa:81:39:fe:07:8a:74:
                    9a:b1:36:eb:a9:86:8d:d3:05:fe:75:80:9b:a2:cc:
                    87:5f:79:02:03:6a:71:28:f0:c7:bb:6a:27:af:bd:
                    f8:5a:35:34:e1:46:58:fe:ec:9b:ba:af:1f:fd:d3:
                    f6:96:ea:08:18:d5:2a:85:d0:92:77:fd:54:01:a1:
                    72:6c:ff:19:ab:58:06:58:b4:b4:19:b4:2d:2e:68:
                    ea:3c:01:26:fa:d1:29:84:10:f2:95:48:74:be:d5:
                    28:62:a5:e5:fe:57:f4:29:cc:44:11:d1:c4:fe:06:
                    5c:c9:2c:03:ef:2d:32:07:8a:ff:e0:83:23:a1:a1:
                    70:40:98:26:a1:e9:16:6c:96:45:29:78:ca:32:e9:
                    02:a2:24:7e:b9:e4:05:52:2d:a6:e9:4b:00:d8:bb:
                    7c:50:55:7f:7e:2e:56:51:f0:e2:b5:78:b9:f4:76:
                    64:d8:c6:43:6c:2a:44:53:ac:84:26:c3:3f:a6:8b:
                    57:03:87:a4:3a:9d:a0:c6:96:1b:e1:4c:da:53:e3:
                    57:25:9f:84:e5:b6:57:d0:8b:8f:cc:0d:40:ec:0f:
                    7a:cf:81:dd:8c:6a:2b:f3:dc:00:f1:c5:0e:99:9a:
                    ca:6d
                Exponent: 65537 (0x10001)
        X509v3 extensions:
            X509v3 Basic Constraints: critical
                CA:FALSE
            X509v3 Authority Key Identifier: 
                keyid:01:02:03

            X509v3 Subject Key Identifier: 
                04:03:02:01
            X509v3 Subject Alternative Name: 
                DNS:*.gov.us, DNS:gov.us
            X509v3 Key Usage: 
                Digital Signature, Certificate Sign, CRL Sign
            X509v3 Extended Key Usage: critical
                TLS Web Server Authentication, TLS Web Client Authentication
            X509v3 CRL Distribution Points: 

                Full Name:
                  URI:http://crl.starfieldtech.com/sfig2s1-17.crl

    Signature Algorithm: sha256WithRSAEncryption
         6c:6c:54:f8:e4:71:92:d9:7c:04:fa:b3:90:2b:48:d7:7d:86:
         02:af:8a:f6:56:08:bb:7e:a9:42:17:51:5b:a4:21:2c:d1:2f:
         42:8a:47:67:d6:66:b8:6a:0c:44:c2:28:6b:6e:97:59:b5:a7:
         c4:f8:16:76:e1:71:10:47:91:92:16:b3:0a:71:92:bf:1c:7d:
         73:e1:07:f8:1b:43:17:b0:74:8b:7a:a3:78:08:c0:92:3a:01:
         9e:f2:bf:5f:ba:86:81:ed:ab:c8:f8:5b:e9:5b:c1:1a:14:2c:
         8c:b9:c1:91:10:82:1c:06:81:e1:2e:3b:e4:67:09:68:b1:9b:
         e8:5f:3e:1f:3e:3f:21:6e:96:5a:eb:46:be:3b:72:a9:06:28:
         da:2e:cd:51:7e:a8:ad:28:1c:ae:24:aa:78:c9:c4:0e:6b:34:
         8d:2b:9f:20:8c:8a:3d:ac:50:1a:1a:e9:cd:b5:d2:cc:00:bd:
         fe:b5:28:a7:36:e8:72:14:27:db:4b:f0:ca:45:4f:eb:21:89:
         17:a9:5b:67:e8:e5:cc:ba:8c:d3:eb:f1:e3:a6:4c:30:3f:ae:
         40:44:33:8d:a4:48:40:75:c0:d1:df:e9:f5:6f:89:84:e4:64:
         cc:39:34:0a:fe:bc:bf:8c:8e:b6:c2:66:c2:8b:ff:7b:6b:85:
         55:46:5e:e6
-----BEGIN CERTIFICATE-----
MIIENjCCAx6gAwIBAgIVFuOfLGhEBdYvSoqeLNfS90AAAAAAMA0GCSqGSIb3DQEB
CwUAMFIxCzAJBgNVBAYTAlVTMRYwFAYDVQQKEw1Nb3RoZXIgTmF0dXJlMRMwEQYD
VQQLEwpFdmVyeXRoaW5nMRYwFAYDVQQDEw1Nb3RoZXIgTmF0dXJlMB4XDTE2MDcw
NzIyMTU0MVoXDTE2MDkxOTIyMTU0MVowgZkxCzAJBgNVBAYTAlVTMQswCQYDVQQI
EwJGTDEUMBIGA1UEBxMLVGFsbGFoYXNzZWUxHDAaBgNVBAkTEzMyMTAgSG9sbHkg
TWlsbCBSdW4xDjAMBgNVBBETBTMwMDYyMRgwFgYDVQQKEw9FeHRyZW1lIERpc2Nv
cmQxDjAMBgNVBAsTBUNoYW9zMQ8wDQYDVQQDEwZnb3YudXMwggEiMA0GCSqGSIb3
DQEBAQUAA4IBDwAwggEKAoIBAQDaouZPxbEM1eS/mCRT0C5PvjcIp/Kl+oE5/geK
dJqxNuupho3TBf51gJuizIdfeQIDanEo8Me7aievvfhaNTThRlj+7Ju6rx/90/aW
6ggY1SqF0JJ3/VQBoXJs/xmrWAZYtLQZtC0uaOo8ASb60SmEEPKVSHS+1ShipeX+
V/QpzEQR0cT+BlzJLAPvLTIHiv/ggyOhoXBAmCah6RZslkUpeMoy6QKiJH655AVS
LabpSwDYu3xQVX9+LlZR8OK1eLn0dmTYxkNsKkRTrIQmwz+mi1cDh6Q6naDGlhvh
TNpT41cln4TltlfQi4/MDUDsD3rPgd2Maivz3ADxxQ6ZmsptAgMBAAGjgbowgbcw
DAYDVR0TAQH/BAIwADAOBgNVHSMEBzAFgAMBAgMwDQYDVR0OBAYEBAQDAgEwGwYD
VR0RBBQwEoIIKi5nb3YudXOCBmdvdi51czALBgNVHQ8EBAMCAYYwIAYDVR0lAQH/
BBYwFAYIKwYBBQUHAwEGCCsGAQUFBwMCMDwGA1UdHwQ1MDMwMaAvoC2GK2h0dHA6
Ly9jcmwuc3RhcmZpZWxkdGVjaC5jb20vc2ZpZzJzMS0xNy5jcmwwDQYJKoZIhvcN
AQELBQADggEBAGxsVPjkcZLZfAT6s5ArSNd9hgKvivZWCLt+qUIXUVukISzRL0KK
R2fWZrhqDETCKGtul1m1p8T4FnbhcRBHkZIWswpxkr8cfXPhB/gbQxewdIt6o3gI
wJI6AZ7yv1+6hoHtq8j4W+lbwRoULIy5wZEQghwGgeEuO+RnCWixm+hfPh8+PyFu
llrrRr47cqkGKNouzVF+qK0oHK4kqnjJxA5rNI0rnyCMij2sUBoa6c210swAvf61
KKc26HIUJ9tL8MpFT+shiRepW2fo5cy6jNPr8eOmTDA/rkBEM42kSEB1wNHf6fVv
iYTkZMw5NAr+vL+MjrbCZsKL/3trhVVGXuY=
-----END CERTIFICATE-----
