Certificate:
    Data:
        Version: 3 (0x2)
        Serial Number: 3286978188447131116 (0x2d9db13f4ad925ec)
        Signature Algorithm: sha256WithRSAEncryption
        Issuer: CN = lint_ct_sct_policy_count_unsatisified_test CA
        Validity
            Not Before: Apr  6 16:35:24 2019 GMT
            Not After : Oct  6 16:35:24 2020 GMT
        Subject: CN = zmap.io
        Subject Public Key Info:
            Public Key Algorithm: rsaEncryption
                RSA Public-Key: (512 bit)
                Modulus:
                    00:b9:8d:fb:20:5b:0a:8a:9b:c5:21:07:18:f4:b7:
                    d0:62:ee:86:dd:f8:a4:f1:d6:5f:2c:fd:7e:22:b3:
                    d9:d1:8a:43:1d:c2:e2:ad:bd:e5:b7:77:74:94:2b:
                    58:19:47:3e:3c:f3:3e:b0:f5:18:99:47:1e:6a:ab:
                    84:9b:8b:ef:b7
                Exponent: 65537 (0x10001)
        X509v3 extensions:
            X509v3 Key Usage: critical
                Digital Signature, Key Encipherment
            X509v3 Extended Key Usage: 
                TLS Web Server Authentication, TLS Web Client Authentication
            X509v3 Basic Constraints: critical
                CA:FALSE
            X509v3 Subject Alternative Name: 
                DNS:zmap.io
            CT Precertificate SCTs: 
                Signed Certificate Timestamp:
                    Version   : v1 (0x0)
                    Log ID    : B0:F7:5E:C5:4A:CD:04:C3:BD:7F:D5:F2:25:DD:EE:E2:
                                37:40:D2:58:0E:C2:25:CA:28:0C:5B:A9:12:BA:B8:D1
                    Timestamp : Apr  6 16:35:24.705 2019 GMT
                    Extensions: none
                    Signature : ecdsa-with-SHA256
                                F3:86:8F:1F:A2:02:B2:3B:82:0D:82:CD:7A:39:24:97:
                                EB:2A:E0:DA:0E:97:79:85:66:8A:AF:F9:D2:37:7B:A7
                Signed Certificate Timestamp:
                    Version   : v1 (0x0)
                    Log ID    : B0:FD:62:36:8A:2C:C8:F5:45:90:5D:7A:7A:9E:34:ED:
                                B8:F6:86:9C:B3:FE:8C:1B:07:B4:FD:3E:A8:7F:88:1C
                    Timestamp : Apr  6 16:35:24.705 2019 GMT
                    Extensions: none
                    Signature : ecdsa-with-SHA256
                                F3:86:8F:1F:A2:02:B2:3B:82:0D:82:CD:7A:39:24:97:
                                EB:2A:E0:DA:0E:97:79:85:66:8A:AF:F9:D2:37:7B:A7
    Signature Algorithm: sha256WithRSAEncryption
         88:b1:a9:38:1b:ff:0f:eb:d8:40:09:37:2b:f5:8e:57:fb:51:
         d6:1d:b7:2d:a4:7b:c1:b2:10:92:5d:c1:70:bd:5a:90:15:f2:
         52:69:34:79:80:26:d5:27:05:f7:2c:fb:37:18:2a:df:68:34:
         21:e8:6a:3c:f4:4b:b2:be:59:a3
-----BEGIN CERTIFICATE-----
MIICUjCCAfygAwIBAgIILZ2xP0rZJewwDQYJKoZIhvcNAQELBQAwODE2MDQGA1UE
AwwtbGludF9jdF9zY3RfcG9saWN5X2NvdW50X3Vuc2F0aXNpZmllZF90ZXN0IENB
MB4XDTE5MDQwNjE2MzUyNFoXDTIwMTAwNjE2MzUyNFowEjEQMA4GA1UEAxMHem1h
cC5pbzBcMA0GCSqGSIb3DQEBAQUAA0sAMEgCQQC5jfsgWwqKm8UhBxj0t9Bi7obd
+KTx1l8s/X4is9nRikMdwuKtveW3d3SUK1gZRz488z6w9RiZRx5qq4Sbi++3AgMB
AAGjggEOMIIBCjAOBgNVHQ8BAf8EBAMCBaAwHQYDVR0lBBYwFAYIKwYBBQUHAwEG
CCsGAQUFBwMCMAwGA1UdEwEB/wQCMAAwEgYDVR0RBAswCYIHem1hcC5pbzCBtgYK
KwYBBAHWeQIEAgSBpwSBpACiAE8AsPdexUrNBMO9f9XyJd3u4jdA0lgOwiXKKAxb
qRK6uNEAAAFp84EzoQAABAMAIPOGjx+iArI7gg2CzXo5JJfrKuDaDpd5hWaKr/nS
N3unAE8AsP1iNoosyPVFkF16ep407bj2hpyz/owbB7T9Pqh/iBwAAAFp84EzoQAA
BAMAIPOGjx+iArI7gg2CzXo5JJfrKuDaDpd5hWaKr/nSN3unMA0GCSqGSIb3DQEB
CwUAA0EAiLGpOBv/D+vYQAk3K/WOV/tR1h23LaR7wbIQkl3BcL1akBXyUmk0eYAm
1ScF9yz7Nxgq32g0IehqPPRLsr5Zow==
-----END CERTIFICATE-----
