Certificate:
    Data:
        Version: 3 (0x2)
        Serial Number: 141448948552955724 (0x1f68711bc59f74c)
        Signature Algorithm: sha256WithRSAEncryption
        Issuer: CN = lint_ct_sct_policy_count_unsatisified_test CA
        Validity
            Not Before: Apr  6 16:38:29 2019 GMT
            Not After : Jun  6 16:38:29 2022 GMT
        Subject: CN = zmap.io
        Subject Public Key Info:
            Public Key Algorithm: rsaEncryption
                RSA Public-Key: (512 bit)
                Modulus:
                    00:96:ed:ec:1a:9a:1b:db:6d:f7:11:55:c4:ea:a4:
                    1f:7c:11:ce:e8:15:56:a0:d7:b9:65:39:52:5c:75:
                    94:aa:88:e7:11:3c:88:3a:38:e0:16:1d:38:f7:f4:
                    8f:9c:e4:9e:b0:44:1b:03:87:5e:40:a6:e9:2f:a4:
                    c6:34:39:2f:89
                Exponent: 65537 (0x10001)
        X509v3 extensions:
            X509v3 Key Usage: critical
                Digital Signature, Key Encipherment
            X509v3 Extended Key Usage: 
                TLS Web Server Authentication, TLS Web Client Authentication
            X509v3 Basic Constraints: critical
                CA:FALSE
            X509v3 Subject Alternative Name: 
                DNS:zmap.io
            CT Precertificate SCTs: 
                Signed Certificate Timestamp:
                    Version   : v1 (0x0)
                    Log ID    : B0:F7:5E:C5:4A:CD:04:C3:BD:7F:D5:F2:25:DD:EE:E2:
                                37:40:D2:58:0E:C2:25:CA:28:0C:5B:A9:12:BA:B8:D1
                    Timestamp : Apr  6 16:38:29.978 2019 GMT
                    Extensions: none
                    Signature : ecdsa-with-SHA256
                                F3:86:8F:1F:A2:02:B2:3B:82:0D:82:CD:7A:39:24:97:
                                EB:2A:E0:DA:0E:97:79:85:66:8A:AF:F9:D2:37:7B:A7
                Signed Certificate Timestamp:
                    Version   : v1 (0x0)
                    Log ID    : B0:FD:62:36:8A:2C:C8:F5:45:90:5D:7A:7A:9E:34:ED:
                                B8:F6:86:9C:B3:FE:8C:1B:07:B4:FD:3E:A8:7F:88:1C
                    Timestamp : Apr  6 16:38:29.978 2019 GMT
                    Extensions: none
                    Signature : ecdsa-with-SHA256
                                F3:86:8F:1F:A2:02:B2:3B:82:0D:82:CD:7A:39:24:97:
                                EB:2A:E0:DA:0E:97:79:85:66:8A:AF:F9:D2:37:7B:A7
                Signed Certificate Timestamp:
                    Version   : v1 (0x0)
                    Log ID    : 38:73:45:D5:C8:B8:56:76:82:F2:AA:21:18:AB:36:9A:
                                98:C0:EA:3F:45:3E:AD:35:28:0A:29:2A:EE:96:7B:E8
                    Timestamp : Apr  6 16:38:29.978 2019 GMT
                    Extensions: none
                    Signature : ecdsa-with-SHA256
                                F3:86:8F:1F:A2:02:B2:3B:82:0D:82:CD:7A:39:24:97:
                                EB:2A:E0:DA:0E:97:79:85:66:8A:AF:F9:D2:37:7B:A7
    Signature Algorithm: sha256WithRSAEncryption
         f1:d1:7c:33:f3:bd:d9:12:d2:ec:55:ab:92:9a:80:07:9a:4a:
         06:ce:85:db:79:67:3e:76:94:ea:58:ae:61:9c:b2:05:88:63:
         e5:9e:ff:b7:a2:6d:75:fc:1a:45:a7:be:51:cb:c1:be:c7:38:
         bd:75:42:e8:fd:fb:40:59:b8:a6
-----BEGIN CERTIFICATE-----
MIICpDCCAk6gAwIBAgIIAfaHEbxZ90wwDQYJKoZIhvcNAQELBQAwODE2MDQGA1UE
AwwtbGludF9jdF9zY3RfcG9saWN5X2NvdW50X3Vuc2F0aXNpZmllZF90ZXN0IENB
MB4XDTE5MDQwNjE2MzgyOVoXDTIyMDYwNjE2MzgyOVowEjEQMA4GA1UEAxMHem1h
cC5pbzBcMA0GCSqGSIb3DQEBAQUAA0sAMEgCQQCW7ewamhvbbfcRVcTqpB98Ec7o
FVag17llOVJcdZSqiOcRPIg6OOAWHTj39I+c5J6wRBsDh15ApukvpMY0OS+JAgMB
AAGjggFgMIIBXDAOBgNVHQ8BAf8EBAMCBaAwHQYDVR0lBBYwFAYIKwYBBQUHAwEG
CCsGAQUFBwMCMAwGA1UdEwEB/wQCMAAwEgYDVR0RBAswCYIHem1hcC5pbzCCAQcG
CisGAQQB1nkCBAIEgfgEgfUA8wBPALD3XsVKzQTDvX/V8iXd7uI3QNJYDsIlyigM
W6kSurjRAAABafOEB1oAAAQDACDzho8fogKyO4INgs16OSSX6yrg2g6XeYVmiq/5
0jd7pwBPALD9YjaKLMj1RZBdenqeNO249oacs/6MGwe0/T6of4gcAAABafOEB1oA
AAQDACDzho8fogKyO4INgs16OSSX6yrg2g6XeYVmiq/50jd7pwBPADhzRdXIuFZ2
gvKqIRirNpqYwOo/RT6tNSgKKSrulnvoAAABafOEB1oAAAQDACDzho8fogKyO4IN
gs16OSSX6yrg2g6XeYVmiq/50jd7pzANBgkqhkiG9w0BAQsFAANBAPHRfDPzvdkS
0uxVq5KagAeaSgbOhdt5Zz52lOpYrmGcsgWIY+We/7eibXX8GkWnvlHLwb7HOL11
Quj9+0BZuKY=
-----END CERTIFICATE-----
