Certificate:
    Data:
        Version: 3 (0x2)
        Serial Number: 6825578583704583247 (0x5eb9538ef439bc4f)
        Signature Algorithm: sha256WithRSAEncryption
        Issuer: CN = lint_ct_sct_policy_count_unsatisified_test CA
        Validity
            Not Before: Apr  6 16:25:05 2019 GMT
            Not After : Jul  6 16:25:05 2019 GMT
        Subject: CN = zmap.io
        Subject Public Key Info:
            Public Key Algorithm: rsaEncryption
                RSA Public-Key: (512 bit)
                Modulus:
                    00:d8:34:fb:ea:85:5e:08:a8:f7:8d:78:1a:0b:df:
                    24:6a:da:ca:3f:f7:5d:27:50:32:40:2e:5b:5e:65:
                    80:29:9f:41:e4:78:40:b7:f9:fa:2e:5b:a4:a9:d8:
                    87:47:74:58:78:d8:a8:aa:c3:57:0b:2b:f4:1e:86:
                    fb:a7:53:fc:af
                Exponent: 65537 (0x10001)
        X509v3 extensions:
            X509v3 Key Usage: critical
                Digital Signature, Key Encipherment
            X509v3 Extended Key Usage: 
                TLS Web Server Authentication, TLS Web Client Authentication
            X509v3 Basic Constraints: critical
                CA:FALSE
            X509v3 Subject Alternative Name: 
                DNS:zmap.io
            CT Precertificate SCTs: 
                Signed Certificate Timestamp:
                    Version   : v1 (0x0)
                    Log ID    : B0:F7:5E:C5:4A:CD:04:C3:BD:7F:D5:F2:25:DD:EE:E2:
                                37:40:D2:58:0E:C2:25:CA:28:0C:5B:A9:12:BA:B8:D1
                    Timestamp : Apr  6 16:25:05.431 2019 GMT
                    Extensions: none
                    Signature : ecdsa-with-SHA256
                                F3:86:8F:1F:A2:02:B2:3B:82:0D:82:CD:7A:39:24:97:
                                EB:2A:E0:DA:0E:97:79:85:66:8A:AF:F9:D2:37:7B:A7
                Signed Certificate Timestamp:
                    Version   : v1 (0x0)
                    Log ID    : B0:FD:62:36:8A:2C:C8:F5:45:90:5D:7A:7A:9E:34:ED:
                                B8:F6:86:9C:B3:FE:8C:1B:07:B4:FD:3E:A8:7F:88:1C
                    Timestamp : Apr  6 16:25:05.431 2019 GMT
                    Extensions: none
                    Signature : ecdsa-with-SHA256
                                F3:86:8F:1F:A2:02:B2:3B:82:0D:82:CD:7A:39:24:97:
                                EB:2A:E0:DA:0E:97:79:85:66:8A:AF:F9:D2:37:7B:A7
    Signature Algorithm: sha256WithRSAEncryption
         14:14:d2:45:b2:ec:57:15:9f:73:13:be:27:b9:18:21:c2:62:
         0d:21:0b:33:a2:dc:46:ef:35:6b:e2:de:58:c5:bd:3e:4b:85:
         5f:9b:33:55:54:ff:f9:ea:0c:10:83:0d:cb:17:1c:fb:8a:98:
         52:e1:14:f2:a9:40:42:6d:6e:5e
-----BEGIN CERTIFICATE-----
MIICUjCCAfygAwIBAgIIXrlTjvQ5vE8wDQYJKoZIhvcNAQELBQAwODE2MDQGA1UE
AwwtbGludF9jdF9zY3RfcG9saWN5X2NvdW50X3Vuc2F0aXNpZmllZF90ZXN0IENB
MB4XDTE5MDQwNjE2MjUwNVoXDTE5MDcwNjE2MjUwNVowEjEQMA4GA1UEAxMHem1h
cC5pbzBcMA0GCSqGSIb3DQEBAQUAA0sAMEgCQQDYNPvqhV4IqPeNeBoL3yRq2so/
910nUDJALlteZYApn0HkeEC3+fouW6Sp2IdHdFh42Kiqw1cLK/QehvunU/yvAgMB
AAGjggEOMIIBCjAOBgNVHQ8BAf8EBAMCBaAwHQYDVR0lBBYwFAYIKwYBBQUHAwEG
CCsGAQUFBwMCMAwGA1UdEwEB/wQCMAAwEgYDVR0RBAswCYIHem1hcC5pbzCBtgYK
KwYBBAHWeQIEAgSBpwSBpACiAE8AsPdexUrNBMO9f9XyJd3u4jdA0lgOwiXKKAxb
qRK6uNEAAAFp83fAlwAABAMAIPOGjx+iArI7gg2CzXo5JJfrKuDaDpd5hWaKr/nS
N3unAE8AsP1iNoosyPVFkF16ep407bj2hpyz/owbB7T9Pqh/iBwAAAFp83fAlwAA
BAMAIPOGjx+iArI7gg2CzXo5JJfrKuDaDpd5hWaKr/nSN3unMA0GCSqGSIb3DQEB
CwUAA0EAFBTSRbLsVxWfcxO+J7kYIcJiDSELM6LcRu81a+LeWMW9PkuFX5szVVT/
+eoMEIMNyxcc+4qYUuEU8qlAQm1uXg==
-----END CERTIFICATE-----
