Certificate:
    Data:
        Version: 3 (0x2)
        Serial Number: 4726752801992504291 (0x4198cca147d873e3)
        Signature Algorithm: sha256WithRSAEncryption
        Issuer: CN = lint_ct_sct_policy_count_unsatisified_test CA
        Validity
            Not Before: Apr  6 16:21:46 2019 GMT
            Not After : Jul  6 16:21:46 2019 GMT
        Subject: CN = zmap.io
        Subject Public Key Info:
            Public Key Algorithm: rsaEncryption
                RSA Public-Key: (512 bit)
                Modulus:
                    00:9d:74:f0:26:72:2d:ca:fe:92:e6:b0:c9:ae:22:
                    12:28:ef:3b:58:31:ab:fc:e6:09:35:71:cc:69:2d:
                    ca:9a:43:16:0d:06:b0:75:e4:af:06:0d:79:f1:26:
                    79:3f:5d:8d:17:93:d0:dd:7c:83:a2:ed:d2:e9:6a:
                    4d:6d:d3:cf:61
                Exponent: 65537 (0x10001)
        X509v3 extensions:
            X509v3 Key Usage: critical
                Digital Signature, Key Encipherment
            X509v3 Extended Key Usage: 
                TLS Web Server Authentication, TLS Web Client Authentication
            X509v3 Basic Constraints: critical
                CA:FALSE
            X509v3 Subject Alternative Name: 
                DNS:zmap.io
            CT Precertificate SCTs: 
                Signed Certificate Timestamp:
                    Version   : v1 (0x0)
                    Log ID    : B0:F7:5E:C5:4A:CD:04:C3:BD:7F:D5:F2:25:DD:EE:E2:
                                37:40:D2:58:0E:C2:25:CA:28:0C:5B:A9:12:BA:B8:D1
                    Timestamp : Apr  6 16:21:46.382 2019 GMT
                    Extensions: none
                    Signature : ecdsa-with-SHA256
                                F3:86:8F:1F:A2:02:B2:3B:82:0D:82:CD:7A:39:24:97:
                                EB:2A:E0:DA:0E:97:79:85:66:8A:AF:F9:D2:37:7B:A7
    Signature Algorithm: sha256WithRSAEncryption
         a1:a9:3f:3a:12:a2:08:69:e1:34:46:b6:c1:ab:2b:9a:8e:98:
         3b:7a:be:1f:1b:5e:3a:47:52:4f:06:6e:51:fd:cd:5e:35:75:
         75:ab:25:21:1c:f0:12:a5:ae:b9:e8:42:47:1f:9b:08:ff:1e:
         0e:bc:af:4c:4a:98:14:1c:df:cc
-----BEGIN CERTIFICATE-----
MIIB/DCCAaagAwIBAgIIQZjMoUfYc+MwDQYJKoZIhvcNAQELBQAwODE2MDQGA1UE
AwwtbGludF9jdF9zY3RfcG9saWN5X2NvdW50X3Vuc2F0aXNpZmllZF90ZXN0IENB
MB4XDTE5MDQwNjE2MjE0NloXDTE5MDcwNjE2MjE0NlowEjEQMA4GA1UEAxMHem1h
cC5pbzBcMA0GCSqGSIb3DQEBAQUAA0sAMEgCQQCddPAmci3K/pLmsMmuIhIo7ztY
Mav85gk1ccxpLcqaQxYNBrB15K8GDXnxJnk/XY0Xk9DdfIOi7dLpak1t089hAgMB
AAGjgbkwgbYwDgYDVR0PAQH/BAQDAgWgMB0GA1UdJQQWMBQGCCsGAQUFBwMBBggr
BgEFBQcDAjAMBgNVHRMBAf8EAjAAMBIGA1UdEQQLMAmCB3ptYXAuaW8wYwYKKwYB
BAHWeQIEAgRVBFMAUQBPALD3XsVKzQTDvX/V8iXd7uI3QNJYDsIlyigMW6kSurjR
AAABafN0tw4AAAQDACDzho8fogKyO4INgs16OSSX6yrg2g6XeYVmiq/50jd7pzAN
BgkqhkiG9w0BAQsFAANBAKGpPzoSoghp4TRGtsGrK5qOmDt6vh8bXjpHUk8GblH9
zV41dXWrJSEc8BKlrrnoQkcfmwj/Hg68r0xKmBQc38w=
-----END CERTIFICATE-----
