Certificate:
    Data:
        Version: 3 (0x2)
        Serial Number: 6101906947973781316 (0x54ae540a36771744)
        Signature Algorithm: sha256WithRSAEncryption
        Issuer: CN = lint_ct_sct_policy_count_unsatisified_test CA
        Validity
            Not Before: Apr  6 16:41:48 2019 GMT
            Not After : Oct  6 17:41:48 2074 GMT
        Subject: CN = zmap.io
        Subject Public Key Info:
            Public Key Algorithm: rsaEncryption
                RSA Public-Key: (512 bit)
                Modulus:
                    00:a6:f5:40:8a:31:c8:9e:07:86:90:fd:44:36:1f:
                    16:59:90:28:f5:fa:e8:c2:66:75:1e:c3:66:1c:eb:
                    a0:80:dd:c3:4e:c0:a7:57:7c:d6:80:6f:6b:dc:6d:
                    85:29:9e:95:62:47:52:0b:fc:b3:25:59:8a:13:16:
                    5a:e9:4c:5a:d9
                Exponent: 65537 (0x10001)
        X509v3 extensions:
            X509v3 Key Usage: critical
                Digital Signature, Key Encipherment
            X509v3 Extended Key Usage: 
                TLS Web Server Authentication, TLS Web Client Authentication
            X509v3 Basic Constraints: critical
                CA:FALSE
            X509v3 Subject Alternative Name: 
                DNS:zmap.io
            CT Precertificate SCTs: 
                Signed Certificate Timestamp:
                    Version   : v1 (0x0)
                    Log ID    : B0:F7:5E:C5:4A:CD:04:C3:BD:7F:D5:F2:25:DD:EE:E2:
                                37:40:D2:58:0E:C2:25:CA:28:0C:5B:A9:12:BA:B8:D1
                    Timestamp : Apr  6 16:41:48.574 2019 GMT
                    Extensions: none
                    Signature : ecdsa-with-SHA256
                                F3:86:8F:1F:A2:02:B2:3B:82:0D:82:CD:7A:39:24:97:
                                EB:2A:E0:DA:0E:97:79:85:66:8A:AF:F9:D2:37:7B:A7
                Signed Certificate Timestamp:
                    Version   : v1 (0x0)
                    Log ID    : B0:FD:62:36:8A:2C:C8:F5:45:90:5D:7A:7A:9E:34:ED:
                                B8:F6:86:9C:B3:FE:8C:1B:07:B4:FD:3E:A8:7F:88:1C
                    Timestamp : Apr  6 16:41:48.574 2019 GMT
                    Extensions: none
                    Signature : ecdsa-with-SHA256
                                F3:86:8F:1F:A2:02:B2:3B:82:0D:82:CD:7A:39:24:97:
                                EB:2A:E0:DA:0E:97:79:85:66:8A:AF:F9:D2:37:7B:A7
                Signed Certificate Timestamp:
                    Version   : v1 (0x0)
                    Log ID    : 38:73:45:D5:C8:B8:56:76:82:F2:AA:21:18:AB:36:9A:
                                98:C0:EA:3F:45:3E:AD:35:28:0A:29:2A:EE:96:7B:E8
                    Timestamp : Apr  6 16:41:48.574 2019 GMT
                    Extensions: none
                    Signature : ecdsa-with-SHA256
                                F3:86:8F:1F:A2:02:B2:3B:82:0D:82:CD:7A:39:24:97:
                                EB:2A:E0:DA:0E:97:79:85:66:8A:AF:F9:D2:37:7B:A7
                Signed Certificate Timestamp:
                    Version   : v1 (0x0)
                    Log ID    : 6F:38:2E:1E:1B:FA:35:39:36:3C:2A:F5:17:EC:60:2C:
                                1B:B0:43:47:92:8C:19:AD:E7:A4:79:FB:7D:88:08:E0
                    Timestamp : Apr  6 16:41:48.574 2019 GMT
                    Extensions: none
                    Signature : ecdsa-with-SHA256
                                F3:86:8F:1F:A2:02:B2:3B:82:0D:82:CD:7A:39:24:97:
                                EB:2A:E0:DA:0E:97:79:85:66:8A:AF:F9:D2:37:7B:A7
                Signed Certificate Timestamp:
                    Version   : v1 (0x0)
                    Log ID    : FB:05:8A:CF:28:A6:45:12:66:1B:6A:8A:85:B2:84:D9:
                                E9:4B:CE:05:5A:48:92:A8:17:CD:BC:8C:BC:C7:85:CE
                    Timestamp : Apr  6 16:41:48.574 2019 GMT
                    Extensions: none
                    Signature : ecdsa-with-SHA256
                                F3:86:8F:1F:A2:02:B2:3B:82:0D:82:CD:7A:39:24:97:
                                EB:2A:E0:DA:0E:97:79:85:66:8A:AF:F9:D2:37:7B:A7
    Signature Algorithm: sha256WithRSAEncryption
         49:cf:bf:c2:09:bf:2b:92:c3:cc:56:78:88:37:f8:3b:a0:26:
         fc:fd:da:27:e4:4d:09:85:86:d6:b7:5d:23:da:60:14:aa:4d:
         bb:a5:b7:8d:9c:21:1e:9c:27:3d:e9:e6:eb:f1:a9:16:8a:43:
         1e:9e:73:99:ec:0a:be:82:e6:b8
-----BEGIN CERTIFICATE-----
MIIDSjCCAvSgAwIBAgIIVK5UCjZ3F0QwDQYJKoZIhvcNAQELBQAwODE2MDQGA1UE
AwwtbGludF9jdF9zY3RfcG9saWN5X2NvdW50X3Vuc2F0aXNpZmllZF90ZXN0IENB
MCAXDTE5MDQwNjE2NDE0OFoYDzIwNzQxMDA2MTc0MTQ4WjASMRAwDgYDVQQDEwd6
bWFwLmlvMFwwDQYJKoZIhvcNAQEBBQADSwAwSAJBAKb1QIoxyJ4HhpD9RDYfFlmQ
KPX66MJmdR7DZhzroIDdw07Ap1d81oBva9xthSmelWJHUgv8syVZihMWWulMWtkC
AwEAAaOCAgQwggIAMA4GA1UdDwEB/wQEAwIFoDAdBgNVHSUEFjAUBggrBgEFBQcD
AQYIKwYBBQUHAwIwDAYDVR0TAQH/BAIwADASBgNVHREECzAJggd6bWFwLmlvMIIB
qwYKKwYBBAHWeQIEAgSCAZsEggGXAZUATwCw917FSs0Ew71/1fIl3e7iN0DSWA7C
JcooDFupErq40QAAAWnzhw8eAAAEAwAg84aPH6ICsjuCDYLNejkkl+sq4NoOl3mF
Zoqv+dI3e6cATwCw/WI2iizI9UWQXXp6njTtuPaGnLP+jBsHtP0+qH+IHAAAAWnz
hw8eAAAEAwAg84aPH6ICsjuCDYLNejkkl+sq4NoOl3mFZoqv+dI3e6cATwA4c0XV
yLhWdoLyqiEYqzaamMDqP0U+rTUoCikq7pZ76AAAAWnzhw8eAAAEAwAg84aPH6IC
sjuCDYLNejkkl+sq4NoOl3mFZoqv+dI3e6cATwBvOC4eG/o1OTY8KvUX7GAsG7BD
R5KMGa3npHn7fYgI4AAAAWnzhw8eAAAEAwAg84aPH6ICsjuCDYLNejkkl+sq4NoO
l3mFZoqv+dI3e6cATwD7BYrPKKZFEmYbaoqFsoTZ6UvOBVpIkqgXzbyMvMeFzgAA
AWnzhw8eAAAEAwAg84aPH6ICsjuCDYLNejkkl+sq4NoOl3mFZoqv+dI3e6cwDQYJ
KoZIhvcNAQELBQADQQBJz7/CCb8rksPMVniIN/g7oCb8/don5E0JhYbWt10j2mAU
qk27pbeNnCEenCc96ebr8akWikMennOZ7Aq+gua4
-----END CERTIFICATE-----
