Certificate:
    Data:
        Version: 3 (0x2)
        Serial Number: 8139484093773701995 (0x70f541a89052e36b)
        Signature Algorithm: sha256WithRSAEncryption
        Issuer: CN = lint_ct_sct_policy_count_unsatisified_test CA
        Validity
            Not Before: Apr  6 15:18:21 2019 GMT
            Not After : Jul  6 15:18:21 2019 GMT
        Subject: CN = zmap.io
        Subject Public Key Info:
            Public Key Algorithm: rsaEncryption
                RSA Public-Key: (512 bit)
                Modulus:
                    00:bc:f2:3e:12:6d:a3:88:41:60:fe:4b:c8:e6:4f:
                    fe:cb:58:92:93:42:66:ff:d0:48:eb:0f:d0:ba:09:
                    8b:8b:ba:91:a2:e0:bd:34:bb:da:8d:73:15:da:cb:
                    c0:25:c8:53:99:69:cf:28:25:37:3f:9b:95:ca:a4:
                    e7:4f:94:95:45
                Exponent: 65537 (0x10001)
        X509v3 extensions:
            X509v3 Key Usage: critical
                Digital Signature, Key Encipherment
            X509v3 Extended Key Usage: 
                TLS Web Server Authentication, TLS Web Client Authentication
            X509v3 Basic Constraints: critical
                CA:FALSE
            X509v3 Subject Alternative Name: 
                DNS:zmap.io
    Signature Algorithm: sha256WithRSAEncryption
         66:28:05:5b:5b:ee:fa:79:43:82:2a:dc:6e:1b:e8:26:e5:0f:
         02:c5:2e:92:fa:12:13:63:17:bb:31:ae:b9:3c:72:bf:80:4a:
         9a:be:2c:34:05:fd:9c:95:8e:ea:81:4a:ca:5a:5e:c1:8d:03:
         7f:fe:f9:30:b6:a8:93:cb:db:f1
-----BEGIN CERTIFICATE-----
MIIBlTCCAT+gAwIBAgIIcPVBqJBS42swDQYJKoZIhvcNAQELBQAwODE2MDQGA1UE
AwwtbGludF9jdF9zY3RfcG9saWN5X2NvdW50X3Vuc2F0aXNpZmllZF90ZXN0IENB
MB4XDTE5MDQwNjE1MTgyMVoXDTE5MDcwNjE1MTgyMVowEjEQMA4GA1UEAxMHem1h
cC5pbzBcMA0GCSqGSIb3DQEBAQUAA0sAMEgCQQC88j4SbaOIQWD+S8jmT/7LWJKT
Qmb/0EjrD9C6CYuLupGi4L00u9qNcxXay8AlyFOZac8oJTc/m5XKpOdPlJVFAgMB
AAGjUzBRMA4GA1UdDwEB/wQEAwIFoDAdBgNVHSUEFjAUBggrBgEFBQcDAQYIKwYB
BQUHAwIwDAYDVR0TAQH/BAIwADASBgNVHREECzAJggd6bWFwLmlvMA0GCSqGSIb3
DQEBCwUAA0EAZigFW1vu+nlDgircbhvoJuUPAsUukvoSE2MXuzGuuTxyv4BKmr4s
NAX9nJWO6oFKylpewY0Df/75MLaok8vb8Q==
-----END CERTIFICATE-----
