Certificate:
    Data:
        Version: 3 (0x2)
        Serial Number: 8496361007976834640 (0x75e9235233f06650)
        Signature Algorithm: sha256WithRSAEncryption
        Issuer: CN = lint_ct_sct_policy_count_unsatisified_test CA
        Validity
            Not Before: Aug  1 15:12:58 2019 GMT
            Not After : Nov  1 15:12:58 2019 GMT
        Subject: CN = zmap.io
        Subject Public Key Info:
            Public Key Algorithm: rsaEncryption
                RSA Public-Key: (512 bit)
                Modulus:
                    00:bf:ec:e7:95:e6:14:0c:77:d6:c7:61:b6:cc:6b:
                    d6:6d:bb:9e:84:10:de:2a:a6:9a:34:bc:3c:db:36:
                    76:7a:2c:ea:a6:5f:7c:27:94:eb:68:5c:1a:66:78:
                    0e:90:52:20:42:e4:3b:fa:05:c1:1a:b7:54:0a:ff:
                    13:df:62:7f:2f
                Exponent: 65537 (0x10001)
        X509v3 extensions:
            X509v3 Key Usage: critical
                Digital Signature, Key Encipherment
            X509v3 Extended Key Usage: 
                TLS Web Server Authentication, TLS Web Client Authentication
            X509v3 Basic Constraints: critical
                CA:FALSE
            X509v3 Subject Alternative Name: 
                DNS:zmap.io
            CT Precertificate Poison: critical
                NULL
    Signature Algorithm: sha256WithRSAEncryption
         ad:0f:6c:0f:34:df:99:39:db:8b:54:14:ee:ed:1e:e3:97:2c:
         10:5e:fa:82:7c:17:96:78:93:b2:85:3e:63:29:10:eb:5a:ff:
         67:dd:a8:dd:43:5b:24:64:ee:d8:d2:85:f5:aa:0e:86:c0:3f:
         43:32:b7:e4:e9:bc:cb:dd:0c:6c
-----BEGIN CERTIFICATE-----
MIIBqjCCAVSgAwIBAgIIdekjUjPwZlAwDQYJKoZIhvcNAQELBQAwODE2MDQGA1UE
AwwtbGludF9jdF9zY3RfcG9saWN5X2NvdW50X3Vuc2F0aXNpZmllZF90ZXN0IENB
MB4XDTE5MDgwMTE1MTI1OFoXDTE5MTEwMTE1MTI1OFowEjEQMA4GA1UEAxMHem1h
cC5pbzBcMA0GCSqGSIb3DQEBAQUAA0sAMEgCQQC/7OeV5hQMd9bHYbbMa9Ztu56E
EN4qppo0vDzbNnZ6LOqmX3wnlOtoXBpmeA6QUiBC5Dv6BcEat1QK/xPfYn8vAgMB
AAGjaDBmMA4GA1UdDwEB/wQEAwIFoDAdBgNVHSUEFjAUBggrBgEFBQcDAQYIKwYB
BQUHAwIwDAYDVR0TAQH/BAIwADASBgNVHREECzAJggd6bWFwLmlvMBMGCisGAQQB
1nkCBAMBAf8EAgUAMA0GCSqGSIb3DQEBCwUAA0EArQ9sDzTfmTnbi1QU7u0e45cs
EF76gnwXlniTsoU+YykQ61r/Z92o3UNbJGTu2NKF9aoOhsA/QzK35Om8y90MbA==
-----END CERTIFICATE-----
