Certificate:
    Data:
        Version: 3 (0x2)
        Serial Number: 18008675309 (0x4316693ed)
    Signature Algorithm: sha256WithRSAEncryption
        Issuer: C = US, O = Mother Nature, OU = Everything, CN = Name constraint
        Validity
            Not Before: Dec  1 06:07:08 2055 GMT
            Not After : Sep 27 02:11:34 2056 GMT
        Subject: C = US, O = Extreme Discord, OU = Chaos, L = Tallahassee, ST = FL, street = 3210 Holly Mill Run, postalCode = 30062, CN = gov.us
        Subject Public Key Info:
            Public Key Algorithm: rsaEncryption
                Public-Key: (2048 bit)
                Modulus:
                    00:d0:12:bd:1d:12:99:2b:46:c8:24:e5:57:c2:65:
                    9a:86:24:a8:fc:d0:4c:a2:97:80:bd:e2:db:be:35:
                    27:84:4d:40:06:d4:f7:90:72:57:c3:44:57:01:d7:
                    ad:6f:e1:5a:68:e4:d8:36:86:2b:be:eb:f0:6c:29:
                    17:7f:df:00:8d:4b:f0:c1:93:a5:63:62:25:84:7d:
                    d2:bd:09:ac:02:c7:2c:b4:58:52:3a:86:2b:52:d2:
                    3b:3b:33:be:e0:5a:46:5e:6f:9c:39:0f:da:05:e1:
                    a7:48:0a:75:17:12:b7:01:c7:e3:cd:b1:8a:71:57:
                    fa:41:7d:f7:c4:63:2b:db:fb:87:77:d7:b9:a2:63:
                    be:3d:66:6c:4a:a2:42:df:16:fd:19:74:5e:fa:62:
                    7f:30:ae:c2:6e:37:12:36:dc:8b:6a:e0:9b:d8:e5:
                    98:90:d7:92:33:99:ba:f9:e6:fb:b3:f7:e2:aa:d1:
                    9b:03:47:4c:ac:07:62:9f:42:cd:d4:20:8c:91:30:
                    17:b2:a4:08:8a:1f:00:54:c7:56:fd:23:ee:d7:73:
                    d2:a2:a9:bb:48:ac:b0:c1:60:e5:2c:81:8f:c6:20:
                    17:df:8d:50:9e:27:5a:8a:ab:15:fe:57:8d:d6:b9:
                    f7:6b:8a:5c:0b:71:b5:e8:f1:9a:54:84:f9:c9:20:
                    c2:ed
                Exponent: 65537 (0x10001)
        X509v3 extensions:
            X509v3 Key Usage: critical
                Digital Signature, Key Encipherment, Certificate Sign
            X509v3 Extended Key Usage: 
                TLS Web Client Authentication, TLS Web Server Authentication
            X509v3 Basic Constraints: critical
                CA:TRUE
            X509v3 Authority Key Identifier: 
                keyid:01:02:03

            Authority Information Access: 
                OCSP - URI:http://theca.net/ocsp
                CA Issuers - URI:http://theca.net/totallythecert.crt

            X509v3 Subject Alternative Name: 
                URI:irrelevantinfo//user@host.com:1234, DNS:www.dns.com
            X509v3 Certificate Policies: 
                Policy: 2.23.140.1.2.2
                Policy: 1.2.3.4.5

            X509v3 Name Constraints: 
                Permitted:
                  email:good_email@gg.com
                  email:LulMail
                  DNS:permitted.com
                  DirName:C = US, O = UIUC, OU = ECE, L = Champaign, ST = IL, street = 601 Wright St, postalCode = 61820, CN = uiuc.net
                  IP:74.125.224.72/255.255.0.0
                Excluded:
                  email:bad_email@gg.com
                  email:LulMail
                  DNS:banned.com
                  DirName:C = US, O = Umich, OU = CS, L = Ann Arbor, ST = MI, street = 500 State St, postalCode = 48109, CN = umich.net
                  IP:192.168.1.1/255.255.0.0

    Signature Algorithm: sha256WithRSAEncryption
         a3:d3:c5:c2:d5:d1:38:49:c4:ae:20:7d:e6:d6:77:b1:17:81:
         2d:3f:12:a4:01:d4:b9:43:2f:db:80:36:a0:eb:78:2a:de:7f:
         8b:f8:4a:13:20:7d:57:4e:86:d6:92:25:8a:ba:22:30:10:f3:
         c2:59:3c:04:6a:e8:eb:85:b2:df:87:a3:53:00:fd:67:8c:3b:
         18:d9:8a:9c:6d:1e:7e:54:1e:dc:78:6f:37:50:66:34:6d:7d:
         bf:40:40:c3:39:eb:b1:5f:9e:72:b0:b3:45:1f:4d:88:1b:67:
         81:59:cc:bb:b5:0a:ee:0d:06:15:d1:37:e7:04:ca:ee:51:88:
         24:06:2e:82:95:a0:01:b5:f4:48:e7:f2:65:d4:c5:b4:f5:3c:
         bb:30:42:f1:bd:bf:fb:97:fb:a4:84:f6:08:93:84:50:a4:d8:
         7c:b4:1f:2a:e7:0a:ca:36:a2:12:cf:4a:27:da:77:e6:1f:b7:
         53:5b:bf:fc:88:d0:09:51:8c:b8:6b:82:67:66:6c:85:c9:46:
         81:e9:87:2f:25:d0:4e:0c:27:fb:3b:dc:88:ed:5c:3a:b6:31:
         c4:86:52:81:4e:f7:c0:bd:e1:48:44:73:27:f8:a0:f0:db:c9:
         47:a7:81:59:34:c2:17:fb:88:af:f4:f6:fa:a2:d1:81:ae:7a:
         12:de:d3:0b
-----BEGIN CERTIFICATE-----
MIIGMzCCBR2gAwIBAgIFBDFmk+0wCwYJKoZIhvcNAQELMFYxCzAJBgNVBAYTAlVT
MRYwFAYDVQQKEw1Nb3RoZXIgTmF0dXJlMRMwEQYDVQQLEwpFdmVyeXRoaW5nMRgw
FgYDVQQDEw9OYW1lIGNvbnN0cmFpbnQxADAiGA8yMDU1MTIwMTA2MDcwOFoYDzIw
NTYwOTI3MDIxMTM0WjCBmzELMAkGA1UEBhMCVVMxGDAWBgNVBAoTD0V4dHJlbWUg
RGlzY29yZDEOMAwGA1UECxMFQ2hhb3MxFDASBgNVBAcTC1RhbGxhaGFzc2VlMQsw
CQYDVQQIEwJGTDEcMBoGA1UECRMTMzIxMCBIb2xseSBNaWxsIFJ1bjEOMAwGA1UE
ERMFMzAwNjIxDzANBgNVBAMTBmdvdi51czEAMIIBIjANBgkqhkiG9w0BAQEFAAOC
AQ8AMIIBCgKCAQEA0BK9HRKZK0bIJOVXwmWahiSo/NBMopeAveLbvjUnhE1ABtT3
kHJXw0RXAdetb+FaaOTYNoYrvuvwbCkXf98AjUvwwZOlY2IlhH3SvQmsAscstFhS
OoYrUtI7OzO+4FpGXm+cOQ/aBeGnSAp1FxK3AcfjzbGKcVf6QX33xGMr2/uHd9e5
omO+PWZsSqJC3xb9GXRe+mJ/MK7CbjcSNtyLauCb2OWYkNeSM5m6+eb7s/fiqtGb
A0dMrAdin0LN1CCMkTAXsqQIih8AVMdW/SPu13PSoqm7SKywwWDlLIGPxiAX341Q
nidaiqsV/leN1rn3a4pcC3G16PGaVIT5ySDC7QIDAQABo4ICwDCCArwwDgYDVR0P
AQH/BAQDAgCkMB0GA1UdJQQWMBQGCCsGAQUFBwMCBggrBgEFBQcDATAPBgNVHRMB
Af8EBTADAQH/MA4GA1UdIwQHMAWAAwECAzBiBggrBgEFBQcBAQRWMFQwIQYIKwYB
BQUHMAGGFWh0dHA6Ly90aGVjYS5uZXQvb2NzcDAvBggrBgEFBQcwAoYjaHR0cDov
L3RoZWNhLm5ldC90b3RhbGx5dGhlY2VydC5jcnQwOgYDVR0RBDMwMYYiaXJyZWxl
dmFudGluZm8vL3VzZXJAaG9zdC5jb206MTIzNIILd3d3LmRucy5jb20wGwYDVR0g
BBQwEjAIBgZngQwBAgIwBgYEKgMEBTCCAasGA1UdHgSCAaIwggGeoIHOMBOBEWdv
b2RfZW1haWxAZ2cuY29tMAmBB0x1bE1haWwwD4INcGVybWl0dGVkLmNvbTCBjqSB
izCBiDELMAkGA1UEBhMCVVMxDTALBgNVBAoTBFVJVUMxDDAKBgNVBAsTA0VDRTES
MBAGA1UEBxMJQ2hhbXBhaWduMQswCQYDVQQIEwJJTDEWMBQGA1UECRMNNjAxIFdy
aWdodCBTdDEOMAwGA1UEERMFNjE4MjAxETAPBgNVBAMTCHVpdWMubmV0MQAwCocI
Sn3gSP//AAChgcowEoEQYmFkX2VtYWlsQGdnLmNvbTAJgQdMdWxNYWlsMAyCCmJh
bm5lZC5jb20wgY6kgYswgYgxCzAJBgNVBAYTAlVTMQ4wDAYDVQQKEwVVbWljaDEL
MAkGA1UECxMCQ1MxEjAQBgNVBAcTCUFubiBBcmJvcjELMAkGA1UECBMCTUkxFTAT
BgNVBAkTDDUwMCBTdGF0ZSBTdDEOMAwGA1UEERMFNDgxMDkxEjAQBgNVBAMTCXVt
aWNoLm5ldDEAMAqHCMCoAQH//wAAMAsGCSqGSIb3DQEBCwOCAQEAo9PFwtXROEnE
riB95tZ3sReBLT8SpAHUuUMv24A2oOt4Kt5/i/hKEyB9V06G1pIliroiMBDzwlk8
BGro64Wy34ejUwD9Z4w7GNmKnG0eflQe3HhvN1BmNG19v0BAwznrsV+ecrCzRR9N
iBtngVnMu7UK7g0GFdE35wTK7lGIJAYugpWgAbX0SOfyZdTFtPU8uzBC8b2/+5f7
pIT2CJOEUKTYfLQfKucKyjaiEs9KJ9p35h+3U1u//IjQCVGMuGuCZ2ZshclGgemH
LyXQTgwn+zvciO1cOrYxxIZSgU73wL3hSERzJ/ig8NvJR6eBWTTCF/uIr/T2+qLR
ga56Et7TCw==
-----END CERTIFICATE-----
