Certificate:
    Data:
        Version: 3 (0x2)
        Serial Number: 1 (0x1)
    Signature Algorithm: sha256WithRSAEncryption
        Issuer: CN=Mother Nature, OU=Everything, O=Mother Nature/postalCode=postalcode, C=US, GN=givenname, SN=surname
        Validity
            Not Before: Aug 28 16:00:32 2017 GMT
            Not After : Nov  9 17:00:32 2017 GMT
        Subject: CN=gov.us, OU=Chaos, O=org/street=3210 Holly Mill Run, ST=province/postalCode=30062, GN=hello, SN=surname
        Subject Public Key Info:
            Public Key Algorithm: rsaEncryption
                Public-Key: (2048 bit)
                Modulus:
                    00:b6:23:37:03:4a:0f:6d:2a:62:d1:4b:8c:f8:3c:
                    3e:86:15:6f:c2:a9:a7:f1:42:ec:e0:36:09:27:58:
                    ae:86:75:ce:df:61:e8:5d:f3:c3:5a:8b:df:86:78:
                    1c:5c:bc:19:4e:f6:55:a6:4e:c7:ea:9b:eb:68:c0:
                    bd:fd:26:b2:31:9a:97:79:8e:2f:5c:e0:49:40:a7:
                    5f:d6:17:3c:4b:5d:ee:2b:ce:8e:45:5a:62:f1:71:
                    3e:35:6b:d6:81:e5:08:d8:39:66:9b:ff:ac:f5:2e:
                    de:3d:02:b1:51:b8:90:60:3c:43:a1:54:90:44:48:
                    aa:4e:6f:24:82:c3:d0:46:ce:06:a5:04:8d:88:b5:
                    09:e7:44:c6:00:73:e6:ec:e9:45:b1:96:f1:e2:8b:
                    22:a3:17:fb:63:03:e5:a0:72:57:47:31:9e:fe:46:
                    4d:22:e7:ec:f7:d3:ac:38:e7:5e:3d:45:62:ad:0f:
                    3a:1c:e6:b8:44:6f:ab:6e:40:29:ef:b7:73:02:d6:
                    7e:d2:1f:17:85:8a:b5:31:58:28:87:eb:cc:fa:9f:
                    cb:52:af:3e:f4:2a:eb:12:00:0e:49:f1:86:a7:a9:
                    07:11:25:46:63:f5:a3:07:81:2f:2c:8a:0a:9f:0b:
                    07:b1:84:1b:ab:b7:c5:5c:e7:e9:25:d2:b4:39:31:
                    10:3d
                Exponent: 65537 (0x10001)
        X509v3 extensions:
            X509v3 Key Usage: critical
                Digital Signature, Key Encipherment
            X509v3 Extended Key Usage: 
                TLS Web Client Authentication, TLS Web Server Authentication
            X509v3 Basic Constraints: critical
                CA:FALSE
            X509v3 Authority Key Identifier: 
                keyid:01:02:03

            Authority Information Access: 
                OCSP - URI:http://theca.net/ocsp
                CA Issuers - URI:http://theca.net/totallythecert.crt

            X509v3 Subject Alternative Name: 
                DNS:hi.co.uk
            X509v3 Certificate Policies: 
                Policy: X509v3 Any Policy

    Signature Algorithm: sha256WithRSAEncryption
         79:49:de:bd:53:3f:5b:18:91:72:bc:81:b2:24:41:d7:7f:f2:
         b8:73:23:5c:e1:b4:74:ba:b0:e6:f9:9e:dc:17:38:dc:e4:dc:
         d9:2a:aa:1f:09:02:ff:9c:3b:17:06:c0:0c:17:94:b3:45:8d:
         0d:92:d7:5f:8d:94:06:3c:05:a1:41:3a:22:19:2c:d6:21:1f:
         6e:84:f7:ff:4d:05:ca:11:08:c1:33:82:26:b6:6f:71:59:c1:
         38:42:14:a4:8f:6a:cf:98:75:d8:a6:02:35:f6:da:1c:73:a7:
         d6:96:86:96:c1:e2:16:a1:5e:ce:5a:58:21:dc:14:9a:ec:60:
         fe:54:0e:79:da:e8:04:90:16:17:f4:b2:ed:fa:5f:e9:ed:6d:
         82:3b:0d:46:4e:f2:94:da:f1:39:c5:71:7b:e8:1f:cf:ba:5b:
         92:db:eb:db:e6:09:62:8f:0d:a5:b2:4e:9f:f6:14:bb:3f:0c:
         e3:9e:92:35:96:78:e5:37:a2:a5:24:03:cf:3f:87:e2:17:bd:
         0a:db:e4:1d:24:cd:9f:ea:c7:d6:00:10:2c:3d:9f:dd:19:7f:
         72:a6:42:a6:91:82:1e:72:c1:d5:c5:66:a4:29:e0:23:b3:9c:
         06:e7:84:fe:24:e7:61:67:05:94:2b:85:f4:81:28:b4:fb:bb:
         7c:14:c8:c2
-----BEGIN CERTIFICATE-----
MIIEeTCCA2OgAwIBAgIBATALBgkqhkiG9w0BAQswgY8xFjAUBgNVBAMTDU1vdGhl
ciBOYXR1cmUxEzARBgNVBAsTCkV2ZXJ5dGhpbmcxFjAUBgNVBAoTDU1vdGhlciBO
YXR1cmUxEzARBgNVBBETCnBvc3RhbGNvZGUxCzAJBgNVBAYTAlVTMRIwEAYDVQQq
EwlnaXZlbm5hbWUxEDAOBgNVBAQTB3N1cm5hbWUxADAeFw0xNzA4MjgxNjAwMzJa
Fw0xNzExMDkxNzAwMzJaMIGUMQ8wDQYDVQQDEwZnb3YudXMxDjAMBgNVBAsTBUNo
YW9zMQwwCgYDVQQKEwNvcmcxHDAaBgNVBAkTEzMyMTAgSG9sbHkgTWlsbCBSdW4x
ETAPBgNVBAgTCHByb3ZpbmNlMQ4wDAYDVQQREwUzMDA2MjEOMAwGA1UEKhMFaGVs
bG8xEDAOBgNVBAQTB3N1cm5hbWUxADCCASIwDQYJKoZIhvcNAQEBBQADggEPADCC
AQoCggEBALYjNwNKD20qYtFLjPg8PoYVb8Kpp/FC7OA2CSdYroZ1zt9h6F3zw1qL
34Z4HFy8GU72VaZOx+qb62jAvf0msjGal3mOL1zgSUCnX9YXPEtd7ivOjkVaYvFx
PjVr1oHlCNg5Zpv/rPUu3j0CsVG4kGA8Q6FUkERIqk5vJILD0EbOBqUEjYi1CedE
xgBz5uzpRbGW8eKLIqMX+2MD5aByV0cxnv5GTSLn7PfTrDjnXj1FYq0POhzmuERv
q25AKe+3cwLWftIfF4WKtTFYKIfrzPqfy1KvPvQq6xIADknxhqepBxElRmP1oweB
LyyKCp8LB7GEG6u3xVzn6SXStDkxED0CAwEAAaOB3DCB2TAOBgNVHQ8BAf8EBAMC
AKAwHQYDVR0lBBYwFAYIKwYBBQUHAwIGCCsGAQUFBwMBMAwGA1UdEwEB/wQCMAAw
DgYDVR0jBAcwBYADAQIDMGIGCCsGAQUFBwEBBFYwVDAhBggrBgEFBQcwAYYVaHR0
cDovL3RoZWNhLm5ldC9vY3NwMC8GCCsGAQUFBzAChiNodHRwOi8vdGhlY2EubmV0
L3RvdGFsbHl0aGVjZXJ0LmNydDATBgNVHREEDDAKgghoaS5jby51azARBgNVHSAE
CjAIMAYGBFUdIAAwCwYJKoZIhvcNAQELA4IBAQB5Sd69Uz9bGJFyvIGyJEHXf/K4
cyNc4bR0urDm+Z7cFzjc5NzZKqofCQL/nDsXBsAMF5SzRY0NktdfjZQGPAWhQToi
GSzWIR9uhPf/TQXKEQjBM4Imtm9xWcE4QhSkj2rPmHXYpgI19tocc6fWloaWweIW
oV7OWlgh3BSa7GD+VA552ugEkBYX9LLt+l/p7W2COw1GTvKU2vE5xXF76B/PuluS
2+vb5glijw2lsk6f9hS7PwzjnpI1lnjlN6KlJAPPP4fiF70K2+QdJM2f6sfWABAs
PZ/dGX9ypkKmkYIecsHVxWakKeAjs5wG54T+JOdhZwWUK4X0gSi0+7t8FMjC
-----END CERTIFICATE-----
