Certificate:
    Data:
        Version: 3 (0x2)
        Serial Number: 1 (0x1)
    Signature Algorithm: sha256WithRSAEncryption
        Issuer: CN=Mother Nature, OU=Everything, O=Mother Nature/postalCode=postalcode, C=US, GN=givenname, SN=surname
        Validity
            Not Before: Aug 28 16:05:23 2017 GMT
            Not After : Nov  9 17:05:23 2017 GMT
        Subject: CN=gov.us, OU=Chaos, O=org/street=3210 Holly Mill Run, ST=province/postalCode=30062, GN=hello, SN=surname
        Subject Public Key Info:
            Public Key Algorithm: rsaEncryption
                Public-Key: (2048 bit)
                Modulus:
                    00:c6:31:2a:06:cb:4e:ae:d8:b5:7f:79:e8:65:99:
                    e5:9b:54:e7:14:d0:d2:8e:6d:94:a9:a4:bf:b9:9c:
                    d1:40:d5:5c:a1:82:8d:26:85:19:81:87:64:d5:7a:
                    c8:8c:f5:49:ef:a9:8d:a3:20:13:e6:26:58:fb:33:
                    6a:06:9f:ed:0a:13:52:03:f6:74:30:c2:ce:f7:29:
                    99:e9:49:c0:28:7f:a3:08:87:82:61:a6:8d:41:28:
                    75:66:45:35:9a:c2:ef:3f:72:e9:0c:d8:f2:56:5b:
                    14:60:ba:b2:c4:7f:de:bf:da:7b:68:72:cd:6d:ee:
                    2b:0f:58:31:c9:70:5d:d3:10:1d:da:71:46:50:74:
                    77:d3:02:05:af:bc:05:52:51:bc:ac:db:3f:9c:ed:
                    37:46:87:83:21:fd:c4:f6:4a:63:2d:c8:28:e5:70:
                    df:b6:2d:6b:82:86:70:2b:ef:97:73:e2:96:db:64:
                    c4:ce:1c:b6:1d:c2:79:fc:00:57:e3:27:8b:4b:2f:
                    45:ab:9e:51:bf:86:4b:75:f5:12:6d:b8:cb:06:a3:
                    7c:c0:2d:e4:43:22:6b:9b:ab:87:04:d8:ff:a5:32:
                    89:59:99:bb:fe:e3:3b:da:0a:13:78:0b:8a:d8:1f:
                    c3:f8:36:a2:c5:b3:d4:7f:7b:8e:0a:21:3a:dd:a2:
                    62:89
                Exponent: 65537 (0x10001)
        X509v3 extensions:
            X509v3 Key Usage: critical
                Digital Signature, Key Encipherment
            X509v3 Extended Key Usage: 
                TLS Web Client Authentication, TLS Web Server Authentication
            X509v3 Basic Constraints: critical
                CA:FALSE
            X509v3 Authority Key Identifier: 
                keyid:01:02:03

            Authority Information Access: 
                OCSP - URI:http://theca.net/ocsp
                CA Issuers - URI:http://theca.net/totallythecert.crt

            X509v3 Subject Alternative Name: 
                DNS:hi.com.uk
            X509v3 Certificate Policies: 
                Policy: X509v3 Any Policy

    Signature Algorithm: sha256WithRSAEncryption
         ea:ab:35:25:0e:7c:0f:00:2b:46:7e:50:91:2b:31:e5:ba:6a:
         15:b5:c8:e6:e5:78:c9:f5:c0:8f:af:80:2d:89:4f:5b:3f:f4:
         d2:d9:2d:75:75:c0:a4:ab:fd:f4:da:dd:ed:9a:94:3a:47:22:
         05:b4:de:6c:10:82:4a:25:8e:69:50:3c:2e:73:07:40:63:63:
         67:c7:98:eb:08:87:e6:96:d3:99:84:22:fa:7c:80:c6:2f:8e:
         f7:9f:6b:9e:d6:da:30:6e:d5:cd:de:43:6b:5f:20:8c:14:70:
         a9:3b:fe:e7:86:2e:03:42:2d:b3:88:83:bd:32:e8:ff:c6:8e:
         4e:37:b7:fd:d4:20:51:7b:ed:78:55:b3:bc:67:ed:38:76:18:
         b2:6e:3a:51:dc:83:4c:22:d1:fe:2c:05:e1:84:3d:06:9e:41:
         c8:42:93:55:3f:9f:72:b9:d2:bd:0b:d6:df:45:8e:df:73:f8:
         aa:5c:cd:98:18:06:ad:bf:09:08:34:17:af:3a:23:e0:50:a3:
         ef:5f:0d:40:2a:6f:d3:53:da:72:48:89:f0:04:c0:b1:d2:43:
         34:27:4e:64:19:c6:5b:2b:9a:99:53:e3:fa:b4:c4:e5:27:9b:
         a8:e5:7e:a8:4d:38:69:3a:ad:8a:17:78:c1:fd:82:cc:46:f1:
         d6:0f:c6:2a
-----BEGIN CERTIFICATE-----
MIIEejCCA2SgAwIBAgIBATALBgkqhkiG9w0BAQswgY8xFjAUBgNVBAMTDU1vdGhl
ciBOYXR1cmUxEzARBgNVBAsTCkV2ZXJ5dGhpbmcxFjAUBgNVBAoTDU1vdGhlciBO
YXR1cmUxEzARBgNVBBETCnBvc3RhbGNvZGUxCzAJBgNVBAYTAlVTMRIwEAYDVQQq
EwlnaXZlbm5hbWUxEDAOBgNVBAQTB3N1cm5hbWUxADAeFw0xNzA4MjgxNjA1MjNa
Fw0xNzExMDkxNzA1MjNaMIGUMQ8wDQYDVQQDEwZnb3YudXMxDjAMBgNVBAsTBUNo
YW9zMQwwCgYDVQQKEwNvcmcxHDAaBgNVBAkTEzMyMTAgSG9sbHkgTWlsbCBSdW4x
ETAPBgNVBAgTCHByb3ZpbmNlMQ4wDAYDVQQREwUzMDA2MjEOMAwGA1UEKhMFaGVs
bG8xEDAOBgNVBAQTB3N1cm5hbWUxADCCASIwDQYJKoZIhvcNAQEBBQADggEPADCC
AQoCggEBAMYxKgbLTq7YtX956GWZ5ZtU5xTQ0o5tlKmkv7mc0UDVXKGCjSaFGYGH
ZNV6yIz1Se+pjaMgE+YmWPszagaf7QoTUgP2dDDCzvcpmelJwCh/owiHgmGmjUEo
dWZFNZrC7z9y6QzY8lZbFGC6ssR/3r/ae2hyzW3uKw9YMclwXdMQHdpxRlB0d9MC
Ba+8BVJRvKzbP5ztN0aHgyH9xPZKYy3IKOVw37Yta4KGcCvvl3PilttkxM4cth3C
efwAV+Mni0svRaueUb+GS3X1Em24ywajfMAt5EMia5urhwTY/6UyiVmZu/7jO9oK
E3gLitgfw/g2osWz1H97jgohOt2iYokCAwEAAaOB3TCB2jAOBgNVHQ8BAf8EBAMC
AKAwHQYDVR0lBBYwFAYIKwYBBQUHAwIGCCsGAQUFBwMBMAwGA1UdEwEB/wQCMAAw
DgYDVR0jBAcwBYADAQIDMGIGCCsGAQUFBwEBBFYwVDAhBggrBgEFBQcwAYYVaHR0
cDovL3RoZWNhLm5ldC9vY3NwMC8GCCsGAQUFBzAChiNodHRwOi8vdGhlY2EubmV0
L3RvdGFsbHl0aGVjZXJ0LmNydDAUBgNVHREEDTALggloaS5jb20udWswEQYDVR0g
BAowCDAGBgRVHSAAMAsGCSqGSIb3DQEBCwOCAQEA6qs1JQ58DwArRn5QkSsx5bpq
FbXI5uV4yfXAj6+ALYlPWz/00tktdXXApKv99Nrd7ZqUOkciBbTebBCCSiWOaVA8
LnMHQGNjZ8eY6wiH5pbTmYQi+nyAxi+O959rntbaMG7Vzd5Da18gjBRwqTv+54Yu
A0Its4iDvTLo/8aOTje3/dQgUXvteFWzvGftOHYYsm46UdyDTCLR/iwF4YQ9Bp5B
yEKTVT+fcrnSvQvW30WO33P4qlzNmBgGrb8JCDQXrzoj4FCj718NQCpv01PackiJ
8ATAsdJDNCdOZBnGWyuamVPj+rTE5SebqOV+qE04aTqtihd4wf2CzEbx1g/GKg==
-----END CERTIFICATE-----
