Certificate:
    Data:
        Version: 3 (0x2)
        Serial Number: 3589494128799465810 (0x31d071e466714152)
        Signature Algorithm: sha256WithRSAEncryption
        Issuer: CN = zlint test 6afd40
        Validity
            Not Before: Aug  8 00:00:00 2016 GMT
            Not After : Aug 31 00:00:00 2017 GMT
        Subject: CN = zlint.mcdonalds
        Subject Public Key Info:
            Public Key Algorithm: rsaEncryption
                RSA Public-Key: (2048 bit)
                Modulus:
                    00:c3:6a:33:87:cf:6f:fc:6a:3f:25:08:1a:0a:45:
                    ae:43:48:9c:c4:9f:95:57:63:50:10:09:82:7f:f3:
                    27:44:bc:ae:27:2c:d2:0b:40:c4:cb:f8:8d:ce:d0:
                    c8:f9:ef:50:55:9c:c6:c0:8f:d0:b2:84:41:61:ba:
                    12:68:af:14:70:21:d7:8e:c1:79:8a:83:96:c8:e2:
                    83:f2:2a:08:8c:8c:98:b9:52:0d:0d:3e:ba:5b:59:
                    bc:6d:f1:4d:33:8d:80:b4:fb:60:3c:39:be:ec:c5:
                    a1:7f:7a:53:9f:dc:69:71:98:1f:20:1c:99:a5:d2:
                    0f:97:6b:72:7e:98:32:0e:04:a9:b0:60:c2:87:21:
                    3f:ad:1f:35:cc:d8:8a:0c:45:23:49:ce:6f:14:47:
                    02:4f:30:e7:dd:59:ca:d5:78:6c:db:53:cf:4e:02:
                    6e:67:a0:2c:8b:2d:d5:c7:2b:67:94:ba:a1:ef:ce:
                    9b:e4:7b:ba:7b:40:ec:3b:f7:e9:fd:33:0c:77:07:
                    42:25:c7:22:8b:0c:4e:89:d6:aa:86:fe:1f:ce:25:
                    48:da:31:04:5e:24:1a:25:8c:2f:34:3a:08:85:cd:
                    c1:a8:03:41:58:67:8b:27:17:df:ad:77:d5:0b:38:
                    fd:9d:05:c8:21:84:59:cd:c5:2c:4b:f0:e1:62:47:
                    3b:87
                Exponent: 65537 (0x10001)
        X509v3 extensions:
            X509v3 Key Usage: critical
                Digital Signature, Key Encipherment
            X509v3 Extended Key Usage: 
                TLS Web Server Authentication, TLS Web Client Authentication
            X509v3 Basic Constraints: critical
                CA:FALSE
            X509v3 Subject Alternative Name: 
                DNS:zlint.mcdonalds
    Signature Algorithm: sha256WithRSAEncryption
         83:9a:2c:f4:42:bd:6b:b8:b6:7d:ff:50:3c:ec:47:df:b9:f0:
         a5:36:8b:3e:b4:7f:3b:ff:e6:d2:31:4f:57:2c:bd:9c:26:bf:
         3c:1e:be:9e:0f:ba:0c:b9:f4:27:f8:8e:fe:2e:c7:1d:19:9b:
         76:d7:c2:f8:cc:8f:69:a6:cd:72:6d:4a:e3:3a:e4:bc:90:14:
         ca:62:03:44:50:51:3c:7c:db:b3:5c:ee:7c:ac:b5:fb:39:ff:
         54:53:bf:18:f6:a1:ab:2c:ed:88:28:7c:1c:05:6c:d2:f1:0f:
         01:9b:ca:63:8e:bb:47:b6:aa:e3:4b:fc:74:6f:7c:ec:c1:ba:
         6a:1f:49:6b:5d:ad:ca:89:68:9c:a3:53:aa:14:99:8a:69:a3:
         b8:40:12:51:00:ba:eb:37:3a:4a:e1:e7:97:63:c0:27:29:b8:
         c1:45:58:90:c1:73:d7:0e:3d:24:0d:3e:ed:16:9b:0f:ed:22:
         63:93:74:6a:5a:57:7e:90:16:63:eb:4b:c9:25:63:43:73:45:
         4e:ee:89:b5:eb:66:17:e3:3c:70:b9:6c:b0:3e:59:c2:42:5a:
         34:cf:f3:30:fe:bd:40:5f:c8:52:b4:47:97:20:32:ab:bb:d9:
         27:c9:f3:6f:1a:d1:10:06:04:82:f5:43:01:fb:97:f8:90:b9:
         6e:e9:fc:34
-----BEGIN CERTIFICATE-----
MIIDEzCCAfugAwIBAgIIMdBx5GZxQVIwDQYJKoZIhvcNAQELBQAwHDEaMBgGA1UE
AxMRemxpbnQgdGVzdCA2YWZkNDAwHhcNMTYwODA4MDAwMDAwWhcNMTcwODMxMDAw
MDAwWjAaMRgwFgYDVQQDEw96bGludC5tY2RvbmFsZHMwggEiMA0GCSqGSIb3DQEB
AQUAA4IBDwAwggEKAoIBAQDDajOHz2/8aj8lCBoKRa5DSJzEn5VXY1AQCYJ/8ydE
vK4nLNILQMTL+I3O0Mj571BVnMbAj9CyhEFhuhJorxRwIdeOwXmKg5bI4oPyKgiM
jJi5Ug0NPrpbWbxt8U0zjYC0+2A8Ob7sxaF/elOf3GlxmB8gHJml0g+Xa3J+mDIO
BKmwYMKHIT+tHzXM2IoMRSNJzm8URwJPMOfdWcrVeGzbU89OAm5noCyLLdXHK2eU
uqHvzpvke7p7QOw79+n9Mwx3B0IlxyKLDE6J1qqG/h/OJUjaMQReJBoljC80OgiF
zcGoA0FYZ4snF9+td9ULOP2dBcghhFnNxSxL8OFiRzuHAgMBAAGjWzBZMA4GA1Ud
DwEB/wQEAwIFoDAdBgNVHSUEFjAUBggrBgEFBQcDAQYIKwYBBQUHAwIwDAYDVR0T
AQH/BAIwADAaBgNVHREEEzARgg96bGludC5tY2RvbmFsZHMwDQYJKoZIhvcNAQEL
BQADggEBAIOaLPRCvWu4tn3/UDzsR9+58KU2iz60fzv/5tIxT1csvZwmvzwevp4P
ugy59Cf4jv4uxx0Zm3bXwvjMj2mmzXJtSuM65LyQFMpiA0RQUTx827Nc7nystfs5
/1RTvxj2oass7YgofBwFbNLxDwGbymOOu0e2quNL/HRvfOzBumofSWtdrcqJaJyj
U6oUmYppo7hAElEAuus3Okrh55djwCcpuMFFWJDBc9cOPSQNPu0Wmw/tImOTdGpa
V36QFmPrS8klY0NzRU7uibXrZhfjPHC5bLA+WcJCWjTP8zD+vUBfyFK0R5cgMqu7
2SfJ828a0RAGBIL1QwH7l/iQuW7p/DQ=
-----END CERTIFICATE-----

