Certificate:
    Data:
        Version: 3 (0x2)
        Serial Number: 2050924719016116481 (0x1c76592a6a060101)
        Signature Algorithm: sha256WithRSAEncryption
        Issuer: CN = zlint test 6fb5e3
        Validity
            Not Before: Feb 20 00:00:00 2015 GMT
            Not After : Feb 20 00:00:00 2016 GMT
        Subject: CN = zlint.onion
        Subject Public Key Info:
            Public Key Algorithm: rsaEncryption
                RSA Public-Key: (2048 bit)
                Modulus:
                    00:d3:cf:55:71:96:a8:51:60:82:3d:12:84:61:82:
                    01:67:64:d8:38:07:b7:93:7b:d1:40:c3:67:cd:dd:
                    b0:bc:84:67:38:65:5c:69:91:33:30:84:6c:38:ae:
                    65:c5:5f:02:39:7a:38:f1:55:9d:79:57:b8:75:47:
                    07:55:63:9e:ff:21:a7:56:8b:be:9c:99:88:86:f9:
                    36:64:2b:ac:a1:d8:7c:31:ad:c5:59:1e:c1:b3:06:
                    53:d5:77:27:39:d6:68:a3:c6:5c:65:c3:d8:90:2d:
                    2b:bd:9d:c4:39:9c:3f:53:53:af:1b:9c:6b:0f:3e:
                    04:96:dd:40:7a:21:29:eb:76:e8:2c:95:7b:73:da:
                    65:d0:cc:a4:51:cc:f7:6d:4c:d7:8c:e6:d8:bf:20:
                    d9:01:a6:a4:b3:35:60:ac:c2:04:d4:02:d7:1c:8d:
                    71:62:76:a5:10:4c:36:bf:16:c2:be:1d:71:45:95:
                    66:17:32:d0:06:94:67:36:90:db:20:53:36:c4:55:
                    5c:bb:cb:9c:68:29:43:b6:76:11:da:6e:c2:6c:da:
                    ae:1c:57:c6:13:a9:2e:c0:cb:8d:de:2f:19:24:79:
                    d8:28:83:27:5d:29:e9:4a:f7:3b:04:5a:6c:db:c9:
                    bb:00:e1:30:e0:8e:a1:cf:92:1c:87:77:ab:82:29:
                    66:f1
                Exponent: 65537 (0x10001)
        X509v3 extensions:
            X509v3 Key Usage: critical
                Digital Signature, Key Encipherment
            X509v3 Extended Key Usage: 
                TLS Web Server Authentication, TLS Web Client Authentication
            X509v3 Basic Constraints: critical
                CA:FALSE
            X509v3 Subject Alternative Name: 
                DNS:zlint.onion
    Signature Algorithm: sha256WithRSAEncryption
         6f:63:1a:54:b8:27:4a:94:b1:eb:d0:8e:d4:82:0c:57:d0:c0:
         71:7b:95:10:1e:8e:10:4c:b8:68:96:e4:de:3a:53:d1:a1:42:
         c7:1a:67:40:6f:44:04:25:d1:96:a7:2e:d2:c7:fb:2d:d1:30:
         8a:ec:74:16:a9:dd:78:71:95:0f:1f:e1:9f:ae:20:58:4c:f0:
         d3:fc:39:80:a8:13:f2:56:fe:47:00:ac:04:94:97:b9:72:f3:
         a3:f1:09:0b:90:1f:72:4b:85:3d:80:b2:95:64:c6:57:86:41:
         f6:a3:3f:07:63:5e:d0:1d:50:8c:a4:32:98:d2:e1:72:09:d8:
         01:63:b1:8f:62:55:a3:95:ab:7b:cd:fd:51:65:29:c0:85:77:
         a8:2a:78:93:7b:a7:08:ff:ea:8e:76:01:91:62:f0:8e:e5:4f:
         69:39:89:a1:c6:cc:b8:04:09:d5:3f:6f:93:e9:8f:3c:01:0b:
         38:6b:9e:4b:bd:48:0b:c6:18:95:14:d0:da:42:0c:2d:24:50:
         fa:b4:cb:7f:c8:5d:5b:9d:69:3d:17:29:ec:0a:ff:f9:17:c4:
         9f:1d:21:34:99:ec:7a:2f:73:86:e9:1f:6a:a9:fc:19:2f:ee:
         a1:b8:74:0a:91:d7:28:60:20:cf:6b:f2:51:ac:6f:d8:06:0e:
         40:92:0b:8f
-----BEGIN CERTIFICATE-----
MIIDCzCCAfOgAwIBAgIIHHZZKmoGAQEwDQYJKoZIhvcNAQELBQAwHDEaMBgGA1UE
AxMRemxpbnQgdGVzdCA2ZmI1ZTMwHhcNMTUwMjIwMDAwMDAwWhcNMTYwMjIwMDAw
MDAwWjAWMRQwEgYDVQQDEwt6bGludC5vbmlvbjCCASIwDQYJKoZIhvcNAQEBBQAD
ggEPADCCAQoCggEBANPPVXGWqFFggj0ShGGCAWdk2DgHt5N70UDDZ83dsLyEZzhl
XGmRMzCEbDiuZcVfAjl6OPFVnXlXuHVHB1Vjnv8hp1aLvpyZiIb5NmQrrKHYfDGt
xVkewbMGU9V3JznWaKPGXGXD2JAtK72dxDmcP1NTrxucaw8+BJbdQHohKet26CyV
e3PaZdDMpFHM921M14zm2L8g2QGmpLM1YKzCBNQC1xyNcWJ2pRBMNr8Wwr4dcUWV
Zhcy0AaUZzaQ2yBTNsRVXLvLnGgpQ7Z2EdpuwmzarhxXxhOpLsDLjd4vGSR52CiD
J10p6Ur3OwRabNvJuwDhMOCOoc+SHId3q4IpZvECAwEAAaNXMFUwDgYDVR0PAQH/
BAQDAgWgMB0GA1UdJQQWMBQGCCsGAQUFBwMBBggrBgEFBQcDAjAMBgNVHRMBAf8E
AjAAMBYGA1UdEQQPMA2CC3psaW50Lm9uaW9uMA0GCSqGSIb3DQEBCwUAA4IBAQBv
YxpUuCdKlLHr0I7UggxX0MBxe5UQHo4QTLholuTeOlPRoULHGmdAb0QEJdGWpy7S
x/st0TCK7HQWqd14cZUPH+GfriBYTPDT/DmAqBPyVv5HAKwElJe5cvOj8QkLkB9y
S4U9gLKVZMZXhkH2oz8HY17QHVCMpDKY0uFyCdgBY7GPYlWjlat7zf1RZSnAhXeo
KniTe6cI/+qOdgGRYvCO5U9pOYmhxsy4BAnVP2+T6Y88AQs4a55LvUgLxhiVFNDa
QgwtJFD6tMt/yF1bnWk9FynsCv/5F8SfHSE0mex6L3OG6R9qqfwZL+6huHQKkdco
YCDPa/JRrG/YBg5AkguP
-----END CERTIFICATE-----
