Certificate:
    Data:
        Version: 3 (0x2)
        Serial Number: 1 (0x1)
    Signature Algorithm: sha256WithRSAEncryption
        Issuer: CN=Mother Nature, OU=Everything, O=Mother Nature/postalCode=postalcode, C=US, GN=givenname, SN=surname
        Validity
            Not Before: Aug 28 21:25:46 2017 GMT
            Not After : Nov  9 22:25:46 2017 GMT
        Subject: CN=gov.us, OU=Chaos, O=org/street=3210 Holly Mill Run, ST=province/postalCode=30062, GN=hello, SN=surname
        Subject Public Key Info:
            Public Key Algorithm: rsaEncryption
                Public-Key: (2048 bit)
                Modulus:
                    00:b5:b4:28:f0:e1:2e:3d:1a:d4:eb:6c:e8:42:73:
                    d8:b9:78:1e:de:56:ed:73:73:0c:48:f9:e2:bc:ed:
                    e9:ce:95:66:cb:41:25:79:71:af:f2:c5:5e:31:42:
                    6c:37:51:c1:f6:41:82:fc:bb:14:17:d9:b5:74:95:
                    a9:2f:c4:47:33:96:c7:56:92:1c:bd:d4:50:67:16:
                    9e:f3:bf:74:08:1c:04:f6:c9:53:5d:59:d0:51:ab:
                    b0:af:25:35:a2:c3:35:86:6d:cb:d0:b4:2f:bb:9e:
                    d0:70:fa:cc:f8:01:02:16:e5:cb:2e:c2:b4:8b:e8:
                    70:a3:20:87:01:8f:28:c9:08:19:2c:2c:db:a5:3b:
                    44:b8:b8:f6:ac:ca:4b:fb:a1:59:7a:0a:26:19:f2:
                    43:e6:20:cc:56:e1:b9:3f:72:1c:82:13:67:94:be:
                    29:89:05:b3:ff:db:bb:0a:4b:8f:2c:69:19:b4:bc:
                    3b:80:40:6b:fe:dd:ed:35:b2:50:32:47:f5:0d:db:
                    b1:4b:67:cc:f2:71:fc:03:cd:96:2e:2b:aa:ea:e5:
                    36:6a:17:0a:0c:f0:61:4c:91:bd:a7:37:08:fb:ca:
                    e5:da:2a:26:28:1d:af:6a:f2:ca:23:ea:21:4b:9f:
                    ad:4b:45:7f:78:77:9a:35:4a:41:22:1c:55:0a:74:
                    74:f1
                Exponent: 65537 (0x10001)
        X509v3 extensions:
            X509v3 Key Usage: critical
                Digital Signature, Key Encipherment
            X509v3 Extended Key Usage: 
                TLS Web Client Authentication, TLS Web Server Authentication
            X509v3 Basic Constraints: critical
                CA:FALSE
            X509v3 Authority Key Identifier: 
                keyid:01:02:03

            Authority Information Access: 
                OCSP - URI:http://theca.net/ocsp
                CA Issuers - URI:http://theca.net/totallythecert.crt

            X509v3 Subject Alternative Name: 
                DNS:hell,o.com.uk
            X509v3 Certificate Policies: 
                Policy: X509v3 Any Policy

    Signature Algorithm: sha256WithRSAEncryption
         8d:87:f6:dd:01:4f:6f:6b:e8:53:6c:cd:e0:bf:a5:53:cf:8b:
         c0:b3:bb:56:58:94:48:57:f7:15:8e:59:65:75:06:b2:60:b5:
         1c:09:de:2d:ca:e1:27:a4:e2:b0:ed:db:ca:38:86:7d:f3:ff:
         a8:33:47:7d:62:32:ea:52:c1:f7:8f:2a:06:0b:54:33:56:6b:
         04:b3:f2:45:c4:b2:1e:9d:fc:63:23:4a:aa:59:d4:6c:05:e1:
         88:8d:4b:3a:bd:95:2c:67:4e:c6:f8:11:a9:ff:00:74:c6:34:
         d0:69:38:37:60:63:e9:8f:3d:62:2e:55:b2:65:54:4f:d5:14:
         3c:44:a4:eb:e8:04:1a:0e:0f:0a:c7:f2:83:50:10:e7:19:ac:
         f2:ab:cd:85:a1:5c:0f:30:ec:b1:03:f9:ac:d9:8b:81:74:2a:
         9d:2d:b3:a8:bf:69:11:89:8f:e0:1b:1b:92:97:91:26:c1:ff:
         a5:e7:b1:cd:7a:86:82:1e:56:ca:4e:20:7d:88:c3:43:1f:07:
         55:f6:f4:9b:f9:99:e6:6c:74:20:60:8f:ef:24:c3:43:29:87:
         67:7d:a4:ae:7a:c4:7b:b0:74:63:f3:d1:df:e0:02:dc:36:74:
         d9:f3:e7:fc:f0:c5:53:28:1c:5d:73:e4:33:3b:d3:25:3c:90:
         5c:ce:9b:c4
-----BEGIN CERTIFICATE-----
MIIEfjCCA2igAwIBAgIBATALBgkqhkiG9w0BAQswgY8xFjAUBgNVBAMTDU1vdGhl
ciBOYXR1cmUxEzARBgNVBAsTCkV2ZXJ5dGhpbmcxFjAUBgNVBAoTDU1vdGhlciBO
YXR1cmUxEzARBgNVBBETCnBvc3RhbGNvZGUxCzAJBgNVBAYTAlVTMRIwEAYDVQQq
EwlnaXZlbm5hbWUxEDAOBgNVBAQTB3N1cm5hbWUxADAeFw0xNzA4MjgyMTI1NDZa
Fw0xNzExMDkyMjI1NDZaMIGUMQ8wDQYDVQQDEwZnb3YudXMxDjAMBgNVBAsTBUNo
YW9zMQwwCgYDVQQKEwNvcmcxHDAaBgNVBAkTEzMyMTAgSG9sbHkgTWlsbCBSdW4x
ETAPBgNVBAgTCHByb3ZpbmNlMQ4wDAYDVQQREwUzMDA2MjEOMAwGA1UEKhMFaGVs
bG8xEDAOBgNVBAQTB3N1cm5hbWUxADCCASIwDQYJKoZIhvcNAQEBBQADggEPADCC
AQoCggEBALW0KPDhLj0a1Ots6EJz2Ll4Ht5W7XNzDEj54rzt6c6VZstBJXlxr/LF
XjFCbDdRwfZBgvy7FBfZtXSVqS/ERzOWx1aSHL3UUGcWnvO/dAgcBPbJU11Z0FGr
sK8lNaLDNYZty9C0L7ue0HD6zPgBAhblyy7CtIvocKMghwGPKMkIGSws26U7RLi4
9qzKS/uhWXoKJhnyQ+YgzFbhuT9yHIITZ5S+KYkFs//buwpLjyxpGbS8O4BAa/7d
7TWyUDJH9Q3bsUtnzPJx/APNli4rqurlNmoXCgzwYUyRvac3CPvK5doqJigdr2ry
yiPqIUufrUtFf3h3mjVKQSIcVQp0dPECAwEAAaOB4TCB3jAOBgNVHQ8BAf8EBAMC
AKAwHQYDVR0lBBYwFAYIKwYBBQUHAwIGCCsGAQUFBwMBMAwGA1UdEwEB/wQCMAAw
DgYDVR0jBAcwBYADAQIDMGIGCCsGAQUFBwEBBFYwVDAhBggrBgEFBQcwAYYVaHR0
cDovL3RoZWNhLm5ldC9vY3NwMC8GCCsGAQUFBzAChiNodHRwOi8vdGhlY2EubmV0
L3RvdGFsbHl0aGVjZXJ0LmNydDAYBgNVHREEETAPgg1oZWxsLG8uY29tLnVrMBEG
A1UdIAQKMAgwBgYEVR0gADALBgkqhkiG9w0BAQsDggEBAI2H9t0BT29r6FNszeC/
pVPPi8Czu1ZYlEhX9xWOWWV1BrJgtRwJ3i3K4Sek4rDt28o4hn3z/6gzR31iMupS
wfePKgYLVDNWawSz8kXEsh6d/GMjSqpZ1GwF4YiNSzq9lSxnTsb4Ean/AHTGNNBp
ODdgY+mPPWIuVbJlVE/VFDxEpOvoBBoODwrH8oNQEOcZrPKrzYWhXA8w7LED+azZ
i4F0Kp0ts6i/aRGJj+AbG5KXkSbB/6Xnsc16hoIeVspOIH2Iw0MfB1X29Jv5meZs
dCBgj+8kw0Mph2d9pK56xHuwdGPz0d/gAtw2dNnz5/zwxVMoHF1z5DM70yU8kFzO
m8Q=
-----END CERTIFICATE-----
