Certificate:
    Data:
        Version: 3 (0x2)
        Serial Number:
            db:d2:7a:9b:a2:58:70:90:1a:9c:32:3e:d0:9b:e7:ef
    Signature Algorithm: sha256WithRSAEncryption
        Issuer: C=GB, ST=Greater Manchester, L=Salford, O=COMODO CA Limited, CN=COMODO RSA Organization Validation Secure Server CA
        Validity
            Not Before: Dec 22 00:00:00 2017 GMT
            Not After : Dec 21 23:59:59 2020 GMT
        Subject: C=US/postalCode=92037, ST=CA, L=La Jolla/street=2000 Spindrift dr, O=La Jolla Beach & Tennis Club, OU=InstantSSL, CN=63.138.85.74
        Subject Public Key Info:
            Public Key Algorithm: rsaEncryption
                Public-Key: (2048 bit)
                Modulus:
                    00:b9:9d:12:e4:5e:be:5e:5a:c0:98:63:13:cd:36:
                    55:2c:8e:20:f2:e8:4f:f4:6e:31:0b:c2:00:9d:91:
                    0d:29:6b:1e:e1:64:d8:a8:15:98:81:81:c9:2b:b9:
                    9a:05:7d:40:7e:5d:25:e5:03:68:41:66:c5:5c:f4:
                    9f:ef:f7:42:b8:a2:94:88:45:71:df:f2:59:d8:3a:
                    d6:5f:f1:47:57:e0:4f:fb:e6:14:10:7f:71:f2:25:
                    2b:ec:00:54:7f:3e:12:15:ff:39:50:48:d0:13:5c:
                    b4:42:30:3e:f9:3a:c6:dc:16:f0:8e:17:c0:e1:11:
                    3a:71:c0:37:bb:8f:ec:5b:0d:f9:8f:7e:37:5e:91:
                    7f:59:bd:88:76:a7:8c:dd:06:0b:15:11:87:55:c5:
                    d3:eb:2a:92:1b:b9:59:ae:96:1f:66:5f:d5:5b:fb:
                    02:7a:f6:86:1e:e2:3f:2e:fd:2d:54:40:f2:fb:ca:
                    fc:75:ec:d7:29:37:57:f4:83:3a:99:68:e5:1e:cf:
                    19:cd:56:bb:d7:44:8f:71:fe:c6:01:ad:87:ab:a1:
                    4e:a1:e6:98:50:9b:64:b9:b9:eb:74:09:46:b7:2b:
                    b7:7f:88:0b:f1:c0:94:a0:6b:c5:d7:8b:bf:ce:ad:
                    7e:e5:59:64:e2:8a:9c:cc:72:46:ce:9c:d9:9a:4a:
                    9c:57
                Exponent: 65537 (0x10001)
        X509v3 extensions:
            X509v3 Authority Key Identifier: 
                keyid:9A:F3:2B:DA:CF:AD:4F:B6:2F:BB:2A:48:48:2A:12:B7:1B:42:C1:24

            X509v3 Subject Key Identifier: 
                5B:A8:40:EE:F0:65:27:0F:1E:75:E4:E4:1A:DF:A4:9E:C1:97:7F:EB
            X509v3 Key Usage: critical
                Digital Signature, Key Encipherment
            X509v3 Basic Constraints: critical
                CA:FALSE
            X509v3 Extended Key Usage: 
                TLS Web Server Authentication, TLS Web Client Authentication
            X509v3 Certificate Policies: 
                Policy: 1.3.6.1.4.1.6449.1.2.1.3.4
                  CPS: https://secure.comodo.com/CPS
                Policy: 2.23.140.1.2.2

            X509v3 CRL Distribution Points: 

                Full Name:
                  URI:http://crl.comodoca.com/COMODORSAOrganizationValidationSecureServerCA.crl

            Authority Information Access: 
                CA Issuers - URI:http://crt.comodoca.com/COMODORSAOrganizationValidationSecureServerCA.crt
                OCSP - URI:http://ocsp.comodoca.com

            X509v3 Subject Alternative Name: 
                IP Address:63.138.85.74
    Signature Algorithm: sha256WithRSAEncryption
         89:ae:df:80:48:42:87:e6:15:3f:63:c7:55:b7:f9:d3:d7:9b:
         c1:66:ab:1a:b6:f0:ed:a6:ce:89:14:a3:ba:e3:dc:50:23:56:
         78:90:10:2f:a3:13:37:f8:98:bb:3f:7d:c5:37:8a:7b:bc:5b:
         16:47:2e:92:bc:13:88:a6:83:d5:56:bb:9a:a3:17:c6:ea:56:
         68:aa:e1:7a:5e:de:a7:75:ce:d5:dd:d0:bd:8d:81:60:5f:a1:
         8f:29:a2:3d:c1:c3:5e:1b:c9:03:04:0f:3d:1e:8a:ea:87:1c:
         5d:46:6c:c6:86:b9:26:a6:61:94:c4:3a:14:d0:69:8c:68:7c:
         43:cc:63:52:dc:37:da:36:e0:64:44:5d:26:96:6f:b3:1d:ff:
         26:cf:d9:76:57:cf:07:6a:8e:e5:57:8a:b6:52:cf:72:5b:11:
         5a:70:84:5d:28:8b:38:60:16:d6:7d:2d:20:89:ec:98:72:d8:
         ef:46:58:b1:d0:03:c3:bc:11:92:c8:c4:ab:c3:56:82:e1:95:
         81:21:f8:e7:ca:2b:7d:47:2d:3b:5b:f9:44:40:a0:11:f5:da:
         66:14:c5:60:63:da:21:0d:5c:71:c5:b7:93:7b:b5:3d:a7:72:
         c3:8f:22:49:86:95:3d:90:27:40:65:c7:a9:0d:52:32:ed:3d:
         90:6a:0c:a2
-----BEGIN CERTIFICATE-----
MIIFnzCCBIegAwIBAgIRANvSepuiWHCQGpwyPtCb5+8wDQYJKoZIhvcNAQELBQAw
gZYxCzAJBgNVBAYTAkdCMRswGQYDVQQIExJHcmVhdGVyIE1hbmNoZXN0ZXIxEDAO
BgNVBAcTB1NhbGZvcmQxGjAYBgNVBAoTEUNPTU9ETyBDQSBMaW1pdGVkMTwwOgYD
VQQDEzNDT01PRE8gUlNBIE9yZ2FuaXphdGlvbiBWYWxpZGF0aW9uIFNlY3VyZSBT
ZXJ2ZXIgQ0EwHhcNMTcxMjIyMDAwMDAwWhcNMjAxMjIxMjM1OTU5WjCBrDELMAkG
A1UEBhMCVVMxDjAMBgNVBBETBTkyMDM3MQswCQYDVQQIEwJDQTERMA8GA1UEBxMI
TGEgSm9sbGExGjAYBgNVBAkTETIwMDAgU3BpbmRyaWZ0IGRyMSUwIwYDVQQKDBxM
YSBKb2xsYSBCZWFjaCAmIFRlbm5pcyBDbHViMRMwEQYDVQQLEwpJbnN0YW50U1NM
MRUwEwYDVQQDEww2My4xMzguODUuNzQwggEiMA0GCSqGSIb3DQEBAQUAA4IBDwAw
ggEKAoIBAQC5nRLkXr5eWsCYYxPNNlUsjiDy6E/0bjELwgCdkQ0pax7hZNioFZiB
gckruZoFfUB+XSXlA2hBZsVc9J/v90K4opSIRXHf8lnYOtZf8UdX4E/75hQQf3Hy
JSvsAFR/PhIV/zlQSNATXLRCMD75OsbcFvCOF8DhETpxwDe7j+xbDfmPfjdekX9Z
vYh2p4zdBgsVEYdVxdPrKpIbuVmulh9mX9Vb+wJ69oYe4j8u/S1UQPL7yvx17Ncp
N1f0gzqZaOUezxnNVrvXRI9x/sYBrYeroU6h5phQm2S5uet0CUa3K7d/iAvxwJSg
a8XXi7/OrX7lWWTiipzMckbOnNmaSpxXAgMBAAGjggHOMIIByjAfBgNVHSMEGDAW
gBSa8yvaz61Pti+7KkhIKhK3G0LBJDAdBgNVHQ4EFgQUW6hA7vBlJw8edeTkGt+k
nsGXf+swDgYDVR0PAQH/BAQDAgWgMAwGA1UdEwEB/wQCMAAwHQYDVR0lBBYwFAYI
KwYBBQUHAwEGCCsGAQUFBwMCMFAGA1UdIARJMEcwOwYMKwYBBAGyMQECAQMEMCsw
KQYIKwYBBQUHAgEWHWh0dHBzOi8vc2VjdXJlLmNvbW9kby5jb20vQ1BTMAgGBmeB
DAECAjBaBgNVHR8EUzBRME+gTaBLhklodHRwOi8vY3JsLmNvbW9kb2NhLmNvbS9D
T01PRE9SU0FPcmdhbml6YXRpb25WYWxpZGF0aW9uU2VjdXJlU2VydmVyQ0EuY3Js
MIGLBggrBgEFBQcBAQR/MH0wVQYIKwYBBQUHMAKGSWh0dHA6Ly9jcnQuY29tb2Rv
Y2EuY29tL0NPTU9ET1JTQU9yZ2FuaXphdGlvblZhbGlkYXRpb25TZWN1cmVTZXJ2
ZXJDQS5jcnQwJAYIKwYBBQUHMAGGGGh0dHA6Ly9vY3NwLmNvbW9kb2NhLmNvbTAP
BgNVHREECDAGhwQ/ilVKMA0GCSqGSIb3DQEBCwUAA4IBAQCJrt+ASEKH5hU/Y8dV
t/nT15vBZqsatvDtps6JFKO649xQI1Z4kBAvoxM3+Ji7P33FN4p7vFsWRy6SvBOI
poPVVruaoxfG6lZoquF6Xt6ndc7V3dC9jYFgX6GPKaI9wcNeG8kDBA89Horqhxxd
RmzGhrkmpmGUxDoU0GmMaHxDzGNS3DfaNuBkRF0mlm+zHf8mz9l2V88Hao7lV4q2
Us9yWxFacIRdKIs4YBbWfS0gieyYctjvRlix0APDvBGSyMSrw1aC4ZWBIfjnyit9
Ry07W/lEQKAR9dpmFMVgY9ohDVxxxbeTe7U9p3LDjyJJhpU9kCdAZcepDVIy7T2Q
agyi
-----END CERTIFICATE-----
