Certificate:
    Data:
        Version: 3 (0x2)
        Serial Number: 1 (0x1)
    Signature Algorithm: sha256WithRSAEncryption
        Issuer: CN=Mother Nature, OU=Everything, O=Mother Nature/postalCode=postalcode, C=US, GN=givenname, SN=surname
        Validity
            Not Before: Aug 27 14:57:29 2017 GMT
            Not After : Nov  8 15:57:29 2017 GMT
        Subject: CN=gov.us, OU=Chaos, O=org/street=3210 Holly Mill Run, ST=province/postalCode=30062, GN=hello, SN=surname
        Subject Public Key Info:
            Public Key Algorithm: rsaEncryption
                Public-Key: (2048 bit)
                Modulus:
                    00:ab:92:3a:bb:04:98:b2:ed:93:71:a7:57:c8:6f:
                    ab:27:df:c0:90:14:b4:b8:9d:99:e4:11:45:81:28:
                    e6:fc:56:3d:9a:c2:5f:5b:e4:31:aa:ef:d6:d0:b6:
                    f7:e0:59:3e:00:f0:be:cd:bc:5f:72:2e:e7:47:04:
                    19:36:b2:26:6b:e5:97:30:9e:54:7f:02:60:9f:d2:
                    17:7e:c7:3b:00:1d:19:e6:ab:d0:7e:f4:1f:c1:3e:
                    56:f2:84:9b:5c:f4:c2:5d:1c:a7:01:a9:46:f2:a1:
                    46:a8:72:ee:32:14:1e:89:3c:ef:d2:44:f7:a1:11:
                    8c:93:e4:a8:17:9e:a8:cf:9c:ea:92:a9:e8:8a:c7:
                    25:c0:d9:fa:ad:c7:4a:df:82:c5:92:2c:b2:68:66:
                    07:07:5c:0a:a1:c4:93:8e:81:5e:41:de:6b:f5:a3:
                    fe:a5:9f:f5:2d:47:31:45:f4:dc:f8:d6:4a:a6:b6:
                    5b:7f:7c:76:a1:81:4f:52:ee:37:bd:d8:ee:0d:13:
                    83:ba:88:dd:95:63:12:40:3c:12:42:33:09:94:b4:
                    61:9e:5d:fd:ca:1c:7c:2e:e5:36:3d:86:43:20:85:
                    7d:ba:e2:3c:05:57:77:46:19:bc:2b:46:8a:1d:16:
                    da:5b:51:a6:cc:5d:76:8c:aa:02:ad:a2:27:c2:c9:
                    2a:91
                Exponent: 65537 (0x10001)
        X509v3 extensions:
            X509v3 Key Usage: critical
                Digital Signature, Key Encipherment
            X509v3 Extended Key Usage: 
                TLS Web Client Authentication, TLS Web Server Authentication
            X509v3 Basic Constraints: critical
                CA:FALSE
            X509v3 Authority Key Identifier: 
                keyid:01:02:03

            Authority Information Access: 
                OCSP - URI:http://theca.net/ocsp
                CA Issuers - URI:http://theca.net/totallythecert.crt

            X509v3 Subject Alternative Name: 
                DNS:*.co.uk
            X509v3 Certificate Policies: 
                Policy: X509v3 Any Policy

    Signature Algorithm: sha256WithRSAEncryption
         19:75:cc:81:1e:a8:87:6c:40:76:1d:e6:23:7b:7b:40:32:ce:
         8e:38:08:22:4e:08:6c:a5:3a:d5:e5:9a:f4:ca:09:06:f6:47:
         89:43:f4:55:3f:fd:c0:8c:9b:31:5c:85:98:09:53:11:b2:da:
         d8:fd:68:a2:3f:d1:22:b0:9f:ac:75:0e:d8:4d:c2:c8:95:4d:
         76:09:3e:92:2c:0f:38:2d:07:3d:65:48:07:ce:f6:f6:36:e0:
         10:14:18:7d:0c:ea:fd:8c:eb:4f:38:46:1d:70:19:9c:b8:22:
         0c:ef:7d:72:c7:5b:85:43:55:67:35:02:c6:47:20:b1:a2:56:
         a7:9b:16:8d:87:db:b6:77:78:90:d6:ec:57:61:13:e3:fb:2d:
         1a:a0:72:f9:ee:e7:1e:83:9b:d6:f5:79:3f:93:2e:c3:66:fe:
         a7:f2:50:82:aa:d7:7c:12:63:0b:f7:06:b1:fa:b7:d3:b5:0e:
         73:0e:34:71:49:16:c0:83:08:29:15:a7:fc:ef:3d:e3:23:28:
         94:96:d3:6d:12:a6:b2:52:bc:7a:f4:65:b1:3a:22:72:ed:2e:
         b9:e0:1a:97:78:24:c1:eb:ab:dc:66:e8:1b:ea:16:07:8b:86:
         1a:f6:0a:54:c9:bf:2d:d0:9c:7b:36:59:53:9c:ef:e6:27:10:
         07:82:b7:d3
-----BEGIN CERTIFICATE-----
MIIEeDCCA2KgAwIBAgIBATALBgkqhkiG9w0BAQswgY8xFjAUBgNVBAMTDU1vdGhl
ciBOYXR1cmUxEzARBgNVBAsTCkV2ZXJ5dGhpbmcxFjAUBgNVBAoTDU1vdGhlciBO
YXR1cmUxEzARBgNVBBETCnBvc3RhbGNvZGUxCzAJBgNVBAYTAlVTMRIwEAYDVQQq
EwlnaXZlbm5hbWUxEDAOBgNVBAQTB3N1cm5hbWUxADAeFw0xNzA4MjcxNDU3Mjla
Fw0xNzExMDgxNTU3MjlaMIGUMQ8wDQYDVQQDEwZnb3YudXMxDjAMBgNVBAsTBUNo
YW9zMQwwCgYDVQQKEwNvcmcxHDAaBgNVBAkTEzMyMTAgSG9sbHkgTWlsbCBSdW4x
ETAPBgNVBAgTCHByb3ZpbmNlMQ4wDAYDVQQREwUzMDA2MjEOMAwGA1UEKhMFaGVs
bG8xEDAOBgNVBAQTB3N1cm5hbWUxADCCASIwDQYJKoZIhvcNAQEBBQADggEPADCC
AQoCggEBAKuSOrsEmLLtk3GnV8hvqyffwJAUtLidmeQRRYEo5vxWPZrCX1vkMarv
1tC29+BZPgDwvs28X3Iu50cEGTayJmvllzCeVH8CYJ/SF37HOwAdGear0H70H8E+
VvKEm1z0wl0cpwGpRvKhRqhy7jIUHok879JE96ERjJPkqBeeqM+c6pKp6IrHJcDZ
+q3HSt+CxZIssmhmBwdcCqHEk46BXkHea/Wj/qWf9S1HMUX03PjWSqa2W398dqGB
T1LuN73Y7g0Tg7qI3ZVjEkA8EkIzCZS0YZ5d/cocfC7lNj2GQyCFfbriPAVXd0YZ
vCtGih0W2ltRpsxddoyqAq2iJ8LJKpECAwEAAaOB2zCB2DAOBgNVHQ8BAf8EBAMC
AKAwHQYDVR0lBBYwFAYIKwYBBQUHAwIGCCsGAQUFBwMBMAwGA1UdEwEB/wQCMAAw
DgYDVR0jBAcwBYADAQIDMGIGCCsGAQUFBwEBBFYwVDAhBggrBgEFBQcwAYYVaHR0
cDovL3RoZWNhLm5ldC9vY3NwMC8GCCsGAQUFBzAChiNodHRwOi8vdGhlY2EubmV0
L3RvdGFsbHl0aGVjZXJ0LmNydDASBgNVHREECzAJggcqLmNvLnVrMBEGA1UdIAQK
MAgwBgYEVR0gADALBgkqhkiG9w0BAQsDggEBABl1zIEeqIdsQHYd5iN7e0Ayzo44
CCJOCGylOtXlmvTKCQb2R4lD9FU//cCMmzFchZgJUxGy2tj9aKI/0SKwn6x1DthN
wsiVTXYJPpIsDzgtBz1lSAfO9vY24BAUGH0M6v2M6084Rh1wGZy4IgzvfXLHW4VD
VWc1AsZHILGiVqebFo2H27Z3eJDW7FdhE+P7LRqgcvnu5x6Dm9b1eT+TLsNm/qfy
UIKq13wSYwv3BrH6t9O1DnMONHFJFsCDCCkVp/zvPeMjKJSW020SprJSvHr0ZbE6
InLtLrngGpd4JMHrq9xm6BvqFgeLhhr2ClTJvy3QnHs2WVOc7+YnEAeCt9M=
-----END CERTIFICATE-----
