Certificate:
    Data:
        Version: 3 (0x2)
        Serial Number: 256 (0x100)
        Signature Algorithm: ecdsa-with-SHA256
        Issuer: CN = Lint CA, OU = Test, O = MTG, C = DE
        Validity
            Not Before: Jan  2 09:00:00 2020 GMT
            Not After : Jan  2 09:00:00 2022 GMT
        Subject: CN = ECC Certificate, C = DE
        Subject Public Key Info:
            Public Key Algorithm: id-ecPublicKey
                Public-Key: (256 bit)
                pub:
                    04:d1:ad:5a:c9:dc:1b:9a:66:6b:6b:35:07:82:70:
                    b4:8c:37:bc:a8:16:8f:03:32:07:00:6b:01:d5:8e:
                    fb:d7:f6:0c:ed:56:0c:aa:66:40:ab:8c:94:46:7a:
                    2b:6e:1f:ab:78:a5:22:3f:7c:f9:0c:0e:1a:b7:00:
                    54:44:65:74:b6
                ASN1 OID: prime256v1
                NIST CURVE: P-256
    Signature Algorithm: ecdsa-with-SHA256
         30:45:02:20:4b:9e:b8:c4:a2:50:e2:b6:47:11:b0:e9:62:91:
         10:60:e1:02:77:40:5d:52:e3:b2:96:a1:00:77:74:14:3d:f2:
         02:21:00:ae:b3:22:8c:39:54:e4:f8:85:28:27:9d:65:5e:46:
         0d:55:55:25:25:5a:8b:b1:8a:73:07:f9:44:be:9a:2a:77
-----BEGIN CERTIFICATE-----
MIIBUDCB96ADAgECAgIBADAKBggqhkjOPQQDAjA8MRAwDgYDVQQDDAdMaW50IENB
MQ0wCwYDVQQLDARUZXN0MQwwCgYDVQQKDANNVEcxCzAJBgNVBAYTAkRFMB4XDTIw
MDEwMjA5MDAwMFoXDTIyMDEwMjA5MDAwMFowJzEYMBYGA1UEAwwPRUNDIENlcnRp
ZmljYXRlMQswCQYDVQQGEwJERTBZMBMGByqGSM49AgEGCCqGSM49AwEHA0IABNGt
WsncG5pma2s1B4JwtIw3vKgWjwMyBwBrAdWO+9f2DO1WDKpmQKuMlEZ6K24fq3il
Ij98+QwOGrcAVERldLYwCgYIKoZIzj0EAwIDSAAwRQIgS564xKJQ4rZHEbDpYpEQ
YOECd0BdUuOylqEAd3QUPfICIQCusyKMOVTk+IUoJ51lXkYNVVUlJVqLsYpzB/lE
vpoqdw==
-----END CERTIFICATE-----
