Certificate:
    Data:
        Version: 3 (0x2)
        Serial Number: 256 (0x100)
        Signature Algorithm: ecdsa-with-SHA256
        Issuer: CN = Lint CA, OU = Test, O = MTG, C = DE
        Validity
            Not Before: Jan  2 09:00:00 2020 GMT
            Not After : Jan  2 09:00:00 2022 GMT
        Subject: CN = ECC Certificate, C = DE
        Subject Public Key Info:
            Public Key Algorithm: id-ecPublicKey
                Public-Key: (521 bit)
                pub:
                    04:00:b0:73:99:c5:ed:09:be:c0:e5:14:fa:d3:c3:
                    dc:6c:09:cf:d0:9d:6f:30:8a:48:e7:b6:14:a5:97:
                    11:e6:1f:4f:63:3a:78:8c:d8:62:47:58:bc:c1:30:
                    55:42:ce:58:d1:e0:b4:01:54:37:04:00:7e:37:9a:
                    a6:1f:29:90:4d:7a:b8:00:40:a2:32:8c:a5:82:98:
                    f6:eb:fa:a0:f3:fe:ed:5d:20:bd:a1:aa:6a:00:40:
                    59:7a:94:b3:cc:14:6e:71:fc:5e:67:79:96:44:ac:
                    0d:69:b9:c7:5e:aa:15:b4:7f:65:b3:ad:8b:7f:b8:
                    c8:04:09:b3:e6:8c:87:f4:47:ee:7f:62:ae
                ASN1 OID: secp521r1
                NIST CURVE: P-521
    Signature Algorithm: ecdsa-with-SHA256
         30:81:88:02:42:00:a9:2a:d8:53:50:89:46:8c:b2:e0:79:ca:
         f3:0a:a6:33:e8:61:79:71:81:80:33:46:ba:3a:bb:d0:31:7f:
         ea:b1:05:58:d3:06:ae:85:53:d3:88:0c:e8:13:0e:02:9c:50:
         da:fa:d7:37:5e:97:dd:41:1a:69:55:33:67:45:c9:33:0f:02:
         42:01:41:5a:75:d7:60:a8:6f:0b:55:f6:06:a2:6e:f5:83:b2:
         a2:ad:d6:3c:84:01:64:91:28:c7:57:fb:2d:eb:15:c7:92:d5:
         4e:fc:c8:c9:f9:98:b0:af:48:dc:c2:2f:8e:39:a8:97:47:38:
         ae:71:1a:88:96:21:e9:05:77:54:02:63:ca
-----BEGIN CERTIFICATE-----
MIIB2TCCATqgAwIBAgICAQAwCgYIKoZIzj0EAwIwPDEQMA4GA1UEAwwHTGludCBD
QTENMAsGA1UECwwEVGVzdDEMMAoGA1UECgwDTVRHMQswCQYDVQQGEwJERTAeFw0y
MDAxMDIwOTAwMDBaFw0yMjAxMDIwOTAwMDBaMCcxGDAWBgNVBAMMD0VDQyBDZXJ0
aWZpY2F0ZTELMAkGA1UEBhMCREUwgZswEAYHKoZIzj0CAQYFK4EEACMDgYYABACw
c5nF7Qm+wOUU+tPD3GwJz9CdbzCKSOe2FKWXEeYfT2M6eIzYYkdYvMEwVULOWNHg
tAFUNwQAfjeaph8pkE16uABAojKMpYKY9uv6oPP+7V0gvaGqagBAWXqUs8wUbnH8
Xmd5lkSsDWm5x16qFbR/ZbOti3+4yAQJs+aMh/RH7n9irjAKBggqhkjOPQQDAgOB
jAAwgYgCQgCpKthTUIlGjLLgecrzCqYz6GF5cYGAM0a6OrvQMX/qsQVY0wauhVPT
iAzoEw4CnFDa+tc3XpfdQRppVTNnRckzDwJCAUFadddgqG8LVfYGom71g7KirdY8
hAFkkSjHV/st6xXHktVO/MjJ+Ziwr0jcwi+OOaiXRziucRqIliHpBXdUAmPK
-----END CERTIFICATE-----
