Certificate:
    Data:
        Version: 3 (0x2)
        Serial Number: 256 (0x100)
        Signature Algorithm: ecdsa-with-SHA512
        Issuer: CN = Lint CA, OU = Test, O = MTG, C = DE
        Validity
            Not Before: Jan  2 09:00:00 2020 GMT
            Not After : Jan  2 09:00:00 2022 GMT
        Subject: CN = ECC Certificate, C = DE
        Subject Public Key Info:
            Public Key Algorithm: id-ecPublicKey
                Public-Key: (256 bit)
                pub:
                    04:29:f5:7a:2e:47:74:b4:25:9f:84:e8:81:d6:c9:
                    ac:41:56:c9:a9:4f:9c:91:fc:cf:f7:10:23:6c:49:
                    ac:85:6e:b5:0a:84:59:0d:03:3c:41:bf:7f:ca:7f:
                    10:f8:a4:85:48:af:a0:73:a3:45:0d:cc:5d:94:69:
                    04:5e:a3:72:d5
                ASN1 OID: prime256v1
                NIST CURVE: P-256
    Signature Algorithm: ecdsa-with-SHA512
         30:44:02:20:70:ca:ff:ab:96:02:da:14:1c:41:2f:e3:05:1e:
         49:1f:26:81:e5:0b:eb:e4:45:86:83:86:2e:a2:84:7a:ab:1f:
         02:20:0a:22:8a:9e:c5:f8:c9:71:67:85:4f:71:ab:98:76:1e:
         a2:1d:44:0f:6b:4b:af:c4:7f:91:d2:0c:7a:c5:83:4d
-----BEGIN CERTIFICATE-----
MIIBTzCB96ADAgECAgIBADAKBggqhkjOPQQDBDA8MRAwDgYDVQQDDAdMaW50IENB
MQ0wCwYDVQQLDARUZXN0MQwwCgYDVQQKDANNVEcxCzAJBgNVBAYTAkRFMB4XDTIw
MDEwMjA5MDAwMFoXDTIyMDEwMjA5MDAwMFowJzEYMBYGA1UEAwwPRUNDIENlcnRp
ZmljYXRlMQswCQYDVQQGEwJERTBZMBMGByqGSM49AgEGCCqGSM49AwEHA0IABCn1
ei5HdLQln4TogdbJrEFWyalPnJH8z/cQI2xJrIVutQqEWQ0DPEG/f8p/EPikhUiv
oHOjRQ3MXZRpBF6jctUwCgYIKoZIzj0EAwQDRwAwRAIgcMr/q5YC2hQcQS/jBR5J
HyaB5Qvr5EWGg4YuooR6qx8CIAoiip7F+MlxZ4VPcauYdh6iHUQPa0uvxH+R0gx6
xYNN
-----END CERTIFICATE-----
