Certificate:
    Data:
        Version: 3 (0x2)
        Serial Number: 256 (0x100)
        Signature Algorithm: ecdsa-with-SHA512
        Issuer: CN = Lint CA, OU = Test, O = MTG, C = DE
        Validity
            Not Before: Jan  2 09:00:00 2020 GMT
            Not After : Jan  2 09:00:00 2022 GMT
        Subject: CN = ECC Certificate, C = DE
        Subject Public Key Info:
            Public Key Algorithm: id-ecPublicKey
                Public-Key: (521 bit)
                pub:
                    04:01:29:9f:9e:56:91:8b:68:42:f4:cf:f7:db:22:
                    61:66:ce:22:e9:e7:a9:7a:76:6c:1b:ba:1f:04:6d:
                    48:aa:ef:6c:f1:c8:fe:f8:75:95:57:76:67:8f:e3:
                    a3:85:1f:03:fe:14:40:8e:7a:0c:01:4b:b9:4c:ff:
                    8a:14:41:00:16:2f:7a:01:47:3a:ca:02:fe:d0:db:
                    c6:82:81:bc:71:d8:8a:51:27:b1:18:98:cb:24:df:
                    28:29:fe:04:85:7a:45:a3:2d:b3:dd:f9:68:53:0a:
                    db:1e:b9:6c:22:b7:d7:d8:0a:9d:34:b4:b5:6b:dc:
                    f2:a9:3b:92:35:81:fd:b4:24:ba:38:4a:a3
                ASN1 OID: secp521r1
                NIST CURVE: P-521
    Signature Algorithm: ecdsa-with-SHA512
         30:81:87:02:41:5f:2c:10:a8:fc:08:2e:d1:04:4c:71:b1:2b:
         27:f9:1a:62:fc:35:fc:90:02:86:57:c6:90:59:da:c9:3e:4f:
         5d:03:89:c7:3d:bf:20:a8:4d:e8:18:9e:01:e5:58:34:f4:d0:
         8b:88:69:7f:65:5b:85:53:68:3a:3e:e7:ef:a1:1d:f2:02:42:
         00:bf:63:60:33:e6:2e:cd:ec:95:85:7a:3e:e2:5b:dc:34:22:
         7b:67:89:59:d2:a6:ec:80:09:24:61:32:29:7d:1f:f5:78:10:
         88:ab:e1:3e:39:e9:49:ec:fa:4e:93:e7:07:d3:ce:89:7d:3e:
         4f:69:23:08:2c:9b:75:ac:62:5a:be:74
-----BEGIN CERTIFICATE-----
MIIB2DCCATqgAwIBAgICAQAwCgYIKoZIzj0EAwQwPDEQMA4GA1UEAwwHTGludCBD
QTENMAsGA1UECwwEVGVzdDEMMAoGA1UECgwDTVRHMQswCQYDVQQGEwJERTAeFw0y
MDAxMDIwOTAwMDBaFw0yMjAxMDIwOTAwMDBaMCcxGDAWBgNVBAMMD0VDQyBDZXJ0
aWZpY2F0ZTELMAkGA1UEBhMCREUwgZswEAYHKoZIzj0CAQYFK4EEACMDgYYABAEp
n55WkYtoQvTP99siYWbOIunnqXp2bBu6HwRtSKrvbPHI/vh1lVd2Z4/jo4UfA/4U
QI56DAFLuUz/ihRBABYvegFHOsoC/tDbxoKBvHHYilEnsRiYyyTfKCn+BIV6RaMt
s935aFMK2x65bCK319gKnTS0tWvc8qk7kjWB/bQkujhKozAKBggqhkjOPQQDBAOB
iwAwgYcCQV8sEKj8CC7RBExxsSsn+Rpi/DX8kAKGV8aQWdrJPk9dA4nHPb8gqE3o
GJ4B5Vg09NCLiGl/ZVuFU2g6PufvoR3yAkIAv2NgM+YuzeyVhXo+4lvcNCJ7Z4lZ
0qbsgAkkYTIpfR/1eBCIq+E+OelJ7PpOk+cH086JfT5PaSMILJt1rGJavnQ=
-----END CERTIFICATE-----
