Certificate:
    Data:
        Version: 3 (0x2)
        Serial Number:
            16:e3:9f:2c:68:44:05:d6:2f:4a:8a:9e:2c:d7:d2:f7:40:00:00:00:00
    Signature Algorithm: sha256WithRSAEncryption
        Issuer: C = US, O = Mother Nature, OU = Everything, CN = Mother Nature
        Validity
            Not Before: Jul  7 22:40:46 2016 GMT
            Not After : Sep 19 22:40:46 2016 GMT
        Subject: C = US, ST = FL, L = Tallahassee, street = 3210 Holly Mill Run, postalCode = 30062, O = Extreme Discord, OU = Chaos, CN = gov.us
        Subject Public Key Info:
            Public Key Algorithm: id-ecPublicKey
                Public-Key: (224 bit)
                pub:
                    04:a2:0f:b8:ee:7f:90:8b:a1:7b:15:42:6f:bb:51:
                    5c:48:f9:1c:4f:75:68:54:e0:e8:68:96:61:12:82:
                    dc:c7:89:9c:e9:a1:9f:c9:2d:6a:8a:c7:77:90:d2:
                    82:94:9c:e4:99:b4:75:86:c0:6c:05:1e
                ASN1 OID: secp224r1
                NIST CURVE: P-224
        X509v3 extensions:
            X509v3 Basic Constraints: critical
                CA:FALSE
            X509v3 Authority Key Identifier: 
                keyid:01:02:03

            X509v3 Subject Key Identifier: 
                04:03:02:01
            X509v3 Subject Alternative Name: 
                DNS:*.gov.us, DNS:gov.us
            X509v3 Key Usage: 
                Digital Signature, Certificate Sign, CRL Sign
            X509v3 Extended Key Usage: critical
                TLS Web Server Authentication, TLS Web Client Authentication
            X509v3 CRL Distribution Points: 

                Full Name:
                  URI:http://crl.starfieldtech.com/sfig2s1-17.crl

    Signature Algorithm: sha256WithRSAEncryption
         3e:54:82:da:88:31:60:38:8c:e3:78:76:20:cf:4b:54:a9:e3:
         b9:a8:e4:1e:af:58:8f:e7:1b:cd:fd:d8:fb:8d:d8:84:3d:30:
         12:57:ec:c2:09:37:5b:d7:05:0d:1f:25:9f:84:74:24:55:a3:
         db:66:f7:a4:c8:fd:cb:a6:02:6f:f3:5b:b8:6c:ea:90:7d:fb:
         4c:b8:67:53:1e:f6:39:47:4e:af:71:1a:02:15:aa:65:a4:f0:
         6a:96:a9:b6:5d:cb:a2:c6:f6:04:20:2b:fa:37:fa:3f:c2:af:
         8c:bb:6f:49:04:8a:8d:5c:f7:a1:54:5e:77:61:08:f1:c9:58:
         11:42:5a:54:e4:e7:fc:6e:df:7c:18:82:e7:53:1d:10:10:da:
         06:82:d8:29:76:13:fa:f4:25:94:e6:29:b8:a2:63:e4:34:59:
         c3:71:6d:c4:d0:24:cf:45:c1:8a:de:81:a2:38:8f:ca:5e:e3:
         e8:8c:b4:11:68:91:7e:44:f3:c4:d2:f2:4e:dd:4d:4b:54:30:
         13:be:e9:63:39:75:db:7a:b8:2f:2d:3b:d2:77:eb:78:5d:bd:
         94:94:ca:e8:f1:69:fe:49:c1:da:fe:6e:3d:9f:bc:6f:aa:18:
         ee:64:9e:20:c3:15:b8:ba:24:31:03:a7:96:b7:89:39:8a:28:
         39:14:3e:c0
-----BEGIN CERTIFICATE-----
MIIDYDCCAkigAwIBAgIVFuOfLGhEBdYvSoqeLNfS90AAAAAAMA0GCSqGSIb3DQEB
CwUAMFIxCzAJBgNVBAYTAlVTMRYwFAYDVQQKEw1Nb3RoZXIgTmF0dXJlMRMwEQYD
VQQLEwpFdmVyeXRoaW5nMRYwFAYDVQQDEw1Nb3RoZXIgTmF0dXJlMB4XDTE2MDcw
NzIyNDA0NloXDTE2MDkxOTIyNDA0NlowgZkxCzAJBgNVBAYTAlVTMQswCQYDVQQI
EwJGTDEUMBIGA1UEBxMLVGFsbGFoYXNzZWUxHDAaBgNVBAkTEzMyMTAgSG9sbHkg
TWlsbCBSdW4xDjAMBgNVBBETBTMwMDYyMRgwFgYDVQQKEw9FeHRyZW1lIERpc2Nv
cmQxDjAMBgNVBAsTBUNoYW9zMQ8wDQYDVQQDEwZnb3YudXMwTjAQBgcqhkjOPQIB
BgUrgQQAIQM6AASiD7juf5CLoXsVQm+7UVxI+RxPdWhU4OholmESgtzHiZzpoZ/J
LWqKx3eQ0oKUnOSZtHWGwGwFHqOBujCBtzAMBgNVHRMBAf8EAjAAMA4GA1UdIwQH
MAWAAwECAzANBgNVHQ4EBgQEBAMCATAbBgNVHREEFDASgggqLmdvdi51c4IGZ292
LnVzMAsGA1UdDwQEAwIBhjAgBgNVHSUBAf8EFjAUBggrBgEFBQcDAQYIKwYBBQUH
AwIwPAYDVR0fBDUwMzAxoC+gLYYraHR0cDovL2NybC5zdGFyZmllbGR0ZWNoLmNv
bS9zZmlnMnMxLTE3LmNybDANBgkqhkiG9w0BAQsFAAOCAQEAPlSC2ogxYDiM43h2
IM9LVKnjuajkHq9Yj+cbzf3Y+43YhD0wElfswgk3W9cFDR8ln4R0JFWj22b3pMj9
y6YCb/NbuGzqkH37TLhnUx72OUdOr3EaAhWqZaTwapaptl3Losb2BCAr+jf6P8Kv
jLtvSQSKjVz3oVRed2EI8clYEUJaVOTn/G7ffBiC51MdEBDaBoLYKXYT+vQllOYp
uKJj5DRZw3FtxNAkz0XBit6BojiPyl7j6Iy0EWiRfkTzxNLyTt1NS1QwE77pYzl1
23q4Ly070nfreF29lJTK6PFp/knB2v5uPZ+8b6oY7mSeIMMVuLokMQOnlreJOYoo
ORQ+wA==
-----END CERTIFICATE-----
