Certificate:
    Data:
        Version: 3 (0x2)
        Serial Number: 4951827648663421118 (0x44b86d02b38a80be)
        Signature Algorithm: sha256WithRSAEncryption
        Issuer: CN = ZLint Test CA
        Validity
            Not Before: Jan  1 01:00:00 2020 GMT
            Not After : Feb  2 01:01:00 2021 GMT
        Subject: CN = zmap.io
        Subject Public Key Info:
            Public Key Algorithm: rsaEncryption
                RSA Public-Key: (512 bit)
                Modulus:
                    00:ae:b7:3d:25:09:52:6a:6d:b3:82:6a:38:64:ee:
                    95:e1:a4:40:6c:56:34:b5:8d:30:76:df:a0:7d:11:
                    7d:ab:52:c9:eb:d3:ba:ef:16:a3:ff:e0:f4:71:c7:
                    16:3e:21:33:8d:6a:82:58:6f:06:37:29:72:4c:46:
                    e2:b4:00:7d:4b
                Exponent: 65537 (0x10001)
        X509v3 extensions:
            X509v3 Key Usage: critical
                Digital Signature, Key Encipherment
            X509v3 Extended Key Usage: 
                TLS Web Server Authentication, TLS Web Client Authentication
            X509v3 Basic Constraints: critical
                CA:FALSE
            X509v3 Subject Alternative Name: 
                DNS:zmap.io
    Signature Algorithm: sha256WithRSAEncryption
         47:c6:22:dd:57:18:2d:ab:8a:30:fd:de:db:9b:64:7d:15:4f:
         31:44:77:b0:b9:c5:d5:6c:06:c1:a8:20:22:77:ac:f0:39:e5:
         b9:25:2b:21:6f:52:99:98:2a:c7:ff:4f:b4:55:f4:fb:de:f3:
         6a:28:58:b9:38:af:3e:e0:99:21
-----BEGIN CERTIFICATE-----
MIIBdTCCAR+gAwIBAgIIRLhtArOKgL4wDQYJKoZIhvcNAQELBQAwGDEWMBQGA1UE
AxMNWkxpbnQgVGVzdCBDQTAeFw0yMDAxMDEwMTAwMDBaFw0yMTAyMDIwMTAxMDBa
MBIxEDAOBgNVBAMTB3ptYXAuaW8wXDANBgkqhkiG9w0BAQEFAANLADBIAkEArrc9
JQlSam2zgmo4ZO6V4aRAbFY0tY0wdt+gfRF9q1LJ69O67xaj/+D0cccWPiEzjWqC
WG8GNylyTEbitAB9SwIDAQABo1MwUTAOBgNVHQ8BAf8EBAMCBaAwHQYDVR0lBBYw
FAYIKwYBBQUHAwEGCCsGAQUFBwMCMAwGA1UdEwEB/wQCMAAwEgYDVR0RBAswCYIH
em1hcC5pbzANBgkqhkiG9w0BAQsFAANBAEfGIt1XGC2rijD93tubZH0VTzFEd7C5
xdVsBsGoICJ3rPA55bklKyFvUpmYKsf/T7RV9Pve82ooWLk4rz7gmSE=
-----END CERTIFICATE-----
