Certificate:
    Data:
        Version: 3 (0x2)
        Serial Number: 5930884994093112911 (0x524ebc7a9c9d5e4f)
        Signature Algorithm: sha256WithRSAEncryption
        Issuer: CN = ZLint Test CA
        Validity
            Not Before: Sep  1 01:00:00 2020 GMT
            Not After : Oct  4 01:01:00 2021 GMT
        Subject: CN = zmap.io
        Subject Public Key Info:
            Public Key Algorithm: rsaEncryption
                RSA Public-Key: (512 bit)
                Modulus:
                    00:c0:1f:74:20:9e:5a:40:6b:0d:da:2d:a2:3d:b5:
                    4d:ab:31:5a:cb:98:b2:3b:8a:3d:e4:98:2f:81:d4:
                    fd:d9:4e:57:b2:47:5a:49:d6:f5:b0:68:d4:a7:99:
                    61:90:a3:fc:3c:bd:26:68:7f:c4:ae:e2:aa:ca:a9:
                    aa:e9:38:46:95
                Exponent: 65537 (0x10001)
        X509v3 extensions:
            X509v3 Key Usage: critical
                Digital Signature, Key Encipherment
            X509v3 Extended Key Usage: 
                TLS Web Server Authentication, TLS Web Client Authentication
            X509v3 Basic Constraints: critical
                CA:FALSE
            X509v3 Subject Alternative Name: 
                DNS:zmap.io
    Signature Algorithm: sha256WithRSAEncryption
         a2:bb:7f:0f:46:03:8b:ca:0e:90:60:13:5f:ff:86:9a:ae:94:
         ba:71:68:30:18:77:dc:7e:ae:d9:32:3e:3b:70:20:ca:44:9b:
         7d:97:aa:72:c4:ca:2e:dc:6a:f8:08:18:1d:d8:78:fd:f5:59:
         3c:cc:6c:b7:d2:bb:5c:f5:1d:b4
-----BEGIN CERTIFICATE-----
MIIBdTCCAR+gAwIBAgIIUk68epydXk8wDQYJKoZIhvcNAQELBQAwGDEWMBQGA1UE
AxMNWkxpbnQgVGVzdCBDQTAeFw0yMDA5MDEwMTAwMDBaFw0yMTEwMDQwMTAxMDBa
MBIxEDAOBgNVBAMTB3ptYXAuaW8wXDANBgkqhkiG9w0BAQEFAANLADBIAkEAwB90
IJ5aQGsN2i2iPbVNqzFay5iyO4o95JgvgdT92U5XskdaSdb1sGjUp5lhkKP8PL0m
aH/EruKqyqmq6ThGlQIDAQABo1MwUTAOBgNVHQ8BAf8EBAMCBaAwHQYDVR0lBBYw
FAYIKwYBBQUHAwEGCCsGAQUFBwMCMAwGA1UdEwEB/wQCMAAwEgYDVR0RBAswCYIH
em1hcC5pbzANBgkqhkiG9w0BAQsFAANBAKK7fw9GA4vKDpBgE1//hpqulLpxaDAY
d9x+rtkyPjtwIMpEm32XqnLEyi7cavgIGB3YeP31WTzMbLfSu1z1HbQ=
-----END CERTIFICATE-----
