Certificate:
    Data:
        Version: 3 (0x2)
        Serial Number: 3515253396569930287 (0x30c8b056ee093a2f)
        Signature Algorithm: sha256WithRSAEncryption
        Issuer: CN = ZLint Test CA
        Validity
            Not Before: Sep  1 01:00:00 2020 GMT
            Not After : Oct  3 01:01:00 2021 GMT
        Subject: CN = zmap.io
        Subject Public Key Info:
            Public Key Algorithm: rsaEncryption
                RSA Public-Key: (512 bit)
                Modulus:
                    00:c3:5b:cc:1d:05:af:92:28:5b:c4:43:11:c1:05:
                    3c:1a:e3:1b:3d:3e:4f:fb:c9:bc:7d:28:d1:45:b0:
                    e2:dd:54:2b:ee:c9:1f:07:a3:2b:a6:93:7b:bb:ee:
                    38:09:e5:94:cf:8b:74:38:19:90:09:3d:7c:bc:28:
                    45:73:e1:40:1d
                Exponent: 65537 (0x10001)
        X509v3 extensions:
            X509v3 Key Usage: critical
                Digital Signature, Key Encipherment
            X509v3 Extended Key Usage: 
                TLS Web Server Authentication, TLS Web Client Authentication
            X509v3 Basic Constraints: critical
                CA:FALSE
            X509v3 Subject Alternative Name: 
                DNS:zmap.io
    Signature Algorithm: sha256WithRSAEncryption
         a6:eb:24:f8:8f:c7:ef:1b:2c:f4:70:d2:5d:9e:de:7b:54:b8:
         58:b0:d4:12:68:97:8b:36:3c:a8:e0:f5:60:dd:b4:2e:e9:43:
         98:0d:32:4f:a1:e4:26:ee:b0:6e:09:14:da:07:5f:00:98:66:
         d6:e2:3b:ba:42:6f:c1:38:e1:53
-----BEGIN CERTIFICATE-----
MIIBdTCCAR+gAwIBAgIIMMiwVu4JOi8wDQYJKoZIhvcNAQELBQAwGDEWMBQGA1UE
AxMNWkxpbnQgVGVzdCBDQTAeFw0yMDA5MDEwMTAwMDBaFw0yMTEwMDMwMTAxMDBa
MBIxEDAOBgNVBAMTB3ptYXAuaW8wXDANBgkqhkiG9w0BAQEFAANLADBIAkEAw1vM
HQWvkihbxEMRwQU8GuMbPT5P+8m8fSjRRbDi3VQr7skfB6MrppN7u+44CeWUz4t0
OBmQCT18vChFc+FAHQIDAQABo1MwUTAOBgNVHQ8BAf8EBAMCBaAwHQYDVR0lBBYw
FAYIKwYBBQUHAwEGCCsGAQUFBwMCMAwGA1UdEwEB/wQCMAAwEgYDVR0RBAswCYIH
em1hcC5pbzANBgkqhkiG9w0BAQsFAANBAKbrJPiPx+8bLPRw0l2e3ntUuFiw1BJo
l4s2PKjg9WDdtC7pQ5gNMk+h5CbusG4JFNoHXwCYZtbiO7pCb8E44VM=
-----END CERTIFICATE-----
