Certificate:
    Data:
        Version: 3 (0x2)
        Serial Number: 766376178642781113 (0xaa2b712f45303b9)
        Signature Algorithm: sha256WithRSAEncryption
        Issuer: CN = ZLint Test CA
        Validity
            Not Before: Sep  1 01:00:00 2020 GMT
            Not After : Oct  4 01:00:00 2021 GMT
        Subject: CN = zmap.io
        Subject Public Key Info:
            Public Key Algorithm: rsaEncryption
                RSA Public-Key: (512 bit)
                Modulus:
                    00:b0:b3:10:d6:27:ab:c7:fb:97:7b:a2:8a:f9:c0:
                    d5:bc:e7:df:90:a2:f8:8e:41:c5:a1:1a:80:a9:25:
                    a0:cb:a1:06:cf:5b:ff:cb:74:75:0a:80:5c:f2:d9:
                    0a:de:63:52:3f:59:82:78:25:7a:26:b9:fb:f4:44:
                    41:44:53:33:a3
                Exponent: 65537 (0x10001)
        X509v3 extensions:
            X509v3 Key Usage: critical
                Digital Signature, Key Encipherment
            X509v3 Extended Key Usage: 
                TLS Web Server Authentication, TLS Web Client Authentication
            X509v3 Basic Constraints: critical
                CA:FALSE
            X509v3 Subject Alternative Name: 
                DNS:zmap.io
    Signature Algorithm: sha256WithRSAEncryption
         5f:e5:da:10:d2:48:6f:86:22:ac:d4:d4:f2:fc:87:14:07:eb:
         51:67:5f:0d:9a:55:b3:f4:0f:34:d2:da:e8:5d:6e:17:4c:52:
         32:ff:89:4b:08:b7:09:c7:cf:96:6b:2f:0f:30:cb:75:8e:ee:
         c4:fd:cb:09:1b:41:7a:ee:c8:aa
-----BEGIN CERTIFICATE-----
MIIBdTCCAR+gAwIBAgIICqK3EvRTA7kwDQYJKoZIhvcNAQELBQAwGDEWMBQGA1UE
AxMNWkxpbnQgVGVzdCBDQTAeFw0yMDA5MDEwMTAwMDBaFw0yMTEwMDQwMTAwMDBa
MBIxEDAOBgNVBAMTB3ptYXAuaW8wXDANBgkqhkiG9w0BAQEFAANLADBIAkEAsLMQ
1ierx/uXe6KK+cDVvOffkKL4jkHFoRqAqSWgy6EGz1v/y3R1CoBc8tkK3mNSP1mC
eCV6Jrn79ERBRFMzowIDAQABo1MwUTAOBgNVHQ8BAf8EBAMCBaAwHQYDVR0lBBYw
FAYIKwYBBQUHAwEGCCsGAQUFBwMCMAwGA1UdEwEB/wQCMAAwEgYDVR0RBAswCYIH
em1hcC5pbzANBgkqhkiG9w0BAQsFAANBAF/l2hDSSG+GIqzU1PL8hxQH61FnXw2a
VbP0DzTS2uhdbhdMUjL/iUsItwnHz5ZrLw8wy3WO7sT9ywkbQXruyKo=
-----END CERTIFICATE-----
