Certificate:
    Data:
        Version: 3 (0x2)
        Serial Number: 18008675309 (0x4316693ed)
    Signature Algorithm: sha256WithRSAEncryption
        Issuer: C = US, O = Mother Nature, OU = Everything, CN = Mother Nature
        Validity
            Not Before: Jan  1 00:00:00 2014 GMT
            Not After : Jan  1 00:00:00 2015 GMT
        Subject: C = US, O = Extreme Discord, OU = Chaos, L = Tallahassee, ST = FL, street = 3210 Holly Mill Run, postalCode = 30062, CN = gov.us
        Subject Public Key Info:
            Public Key Algorithm: rsaEncryption
                Public-Key: (512 bit)
                Modulus:
                    00:d2:75:56:ec:be:16:e9:ac:f8:b6:60:a1:45:71:
                    f2:53:45:64:29:03:e7:e0:07:87:70:30:2a:fb:5d:
                    90:9b:74:53:5c:23:f6:43:ef:c9:d5:43:2e:05:d7:
                    27:01:0c:b3:9e:5a:52:db:39:bf:7a:12:db:cf:84:
                    8f:ff:db:b1:97
                Exponent: 65537 (0x10001)
        X509v3 extensions:
            X509v3 Key Usage: critical
                Digital Signature, Key Encipherment, Certificate Sign
            X509v3 Extended Key Usage: 
                TLS Web Client Authentication, TLS Web Server Authentication
            X509v3 Basic Constraints: critical
                CA:TRUE
            X509v3 Authority Key Identifier: 
                keyid:01:02:03

            Authority Information Access: 
                OCSP - URI:http://theca.net/ocsp
                CA Issuers - URI:http://theca.net/totallythecert.crt

            X509v3 Certificate Policies: 
                Policy: 2.23.140.1.2.2

            X509v3 Name Constraints: 
                Excluded:
                  IP:0:0:0:0:0:0:0:0/0:0:0:0:0:0:0:0
                  IP:0.0.0.0/0.0.0.0

            X509v3 Subject Key Identifier: 
                04:03:02:01
            X509v3 Subject Alternative Name: 
                URI:, DNS:ˬ
            X509v3 Inhibit Any Policy: 
                ..
            Subject Information Access: 
                ..
    Signature Algorithm: sha256WithRSAEncryption
         b6:3b:19:b9:79:b1:8c:ff:6c:e5:c7:f5:75:ef:5c:40:00:48:
         ff:2f:18:0a:f5:62:da:15:6d:21:7b:db:30:65:f8:0d:18:9b:
         02:8e:25:d4:ee:18:7a:8b:08:b4:6d:58:bb:c3:a8:81:b8:23:
         b1:a6:27:44:ee:c6:16:a1:cb:2b
-----BEGIN CERTIFICATE-----
MIIDKDCCAtSgAwIBAgIFBDFmk+0wCwYJKoZIhvcNAQELMFQxCzAJBgNVBAYTAlVT
MRYwFAYDVQQKEw1Nb3RoZXIgTmF0dXJlMRMwEQYDVQQLEwpFdmVyeXRoaW5nMRYw
FAYDVQQDEw1Nb3RoZXIgTmF0dXJlMQAwHhcNMTQwMTAxMDAwMDAwWhcNMTUwMTAx
MDAwMDAwWjCBmzELMAkGA1UEBhMCVVMxGDAWBgNVBAoTD0V4dHJlbWUgRGlzY29y
ZDEOMAwGA1UECxMFQ2hhb3MxFDASBgNVBAcTC1RhbGxhaGFzc2VlMQswCQYDVQQI
EwJGTDEcMBoGA1UECRMTMzIxMCBIb2xseSBNaWxsIFJ1bjEOMAwGA1UEERMFMzAw
NjIxDzANBgNVBAMTBmdvdi51czEAMFwwDQYJKoZIhvcNAQEBBQADSwAwSAJBANJ1
Vuy+Fums+LZgoUVx8lNFZCkD5+AHh3AwKvtdkJt0U1wj9kPvydVDLgXXJwEMs55a
Uts5v3oS28+Ej//bsZcCAwEAAaOCAUUwggFBMA4GA1UdDwEB/wQEAwIApDAdBgNV
HSUEFjAUBggrBgEFBQcDAgYIKwYBBQUHAwEwDwYDVR0TAQH/BAUwAwEB/zAOBgNV
HSMEBzAFgAMBAgMwYgYIKwYBBQUHAQEEVjBUMCEGCCsGAQUFBzABhhVodHRwOi8v
dGhlY2EubmV0L29jc3AwLwYIKwYBBQUHMAKGI2h0dHA6Ly90aGVjYS5uZXQvdG90
YWxseXRoZWNlcnQuY3J0MBMGA1UdIAQMMAowCAYGZ4EMAQICMDsGA1UdHgQ0MDKh
MDAihyAAAAAAAAAAAAAAAAAAAAAAAAAAAAAAAAAAAAAAAAAAADAKhwgAAAAAAAAA
ADANBgNVHQ4EBgQEBAMCATAPBgNVHREECDAGhgCCAsCoMAkGA1UdNgQCAgEwDgYI
KwYBBQUHAQsEAgIBMAsGCSqGSIb3DQEBCwNBALY7Gbl5sYz/bOXH9XXvXEAASP8v
GAr1YtoVbSF72zBl+A0YmwKOJdTuGHqLCLRtWLvDqIG4I7GmJ0Tuxhahyys=
-----END CERTIFICATE-----
