Certificate:
    Data:
        Version: 3 (0x2)
        Serial Number: 18008675309 (0x4316693ed)
    Signature Algorithm: sha256WithRSAEncryption
        Issuer: C = US, O = Mother Nature, OU = Everything, CN = Mother Nature
        Validity
            Not Before: Jan  1 00:00:00 2014 GMT
            Not After : Jan  1 00:00:00 2015 GMT
        Subject: C = US, O = Extreme Discord, OU = Chaos, L = Tallahassee, ST = FL, street = 3210 Holly Mill Run, postalCode = 30062, CN = gov.us
        Subject Public Key Info:
            Public Key Algorithm: rsaEncryption
                Public-Key: (512 bit)
                Modulus:
                    00:b7:23:b6:eb:5e:ff:b0:12:2e:f0:0a:4f:a5:a5:
                    d3:62:48:f6:71:51:d7:67:ad:27:f4:98:6d:0e:b6:
                    ba:f5:89:0a:fc:43:b6:4a:c9:4e:af:ef:6f:ab:05:
                    35:7d:d3:05:fa:78:02:81:a9:0a:fe:30:be:ea:f9:
                    34:f1:35:9f:ef
                Exponent: 65537 (0x10001)
        X509v3 extensions:
            X509v3 Key Usage: critical
                Digital Signature, Key Encipherment, Certificate Sign
            X509v3 Extended Key Usage: 
                TLS Web Client Authentication, TLS Web Server Authentication
            X509v3 Basic Constraints: critical
                CA:TRUE
            X509v3 Authority Key Identifier: 
                keyid:01:02:03

            Authority Information Access: 
                OCSP - URI:http://theca.net/ocsp
                CA Issuers - URI:http://theca.net/totallythecert.crt

            X509v3 Certificate Policies: 
                Policy: 2.23.140.1.2.2

            X509v3 Name Constraints: 
                Excluded:
                  DNS:example.com

            X509v3 Subject Key Identifier: 
                04:03:02:01
            X509v3 Subject Alternative Name: 
                URI:, DNS:ˬ
            X509v3 Inhibit Any Policy: 
                ..
            Subject Information Access: 
                ..
    Signature Algorithm: sha256WithRSAEncryption
         6c:ce:f3:9d:e7:14:fb:c2:fb:38:0c:f8:e1:83:9c:b3:26:83:
         b4:c3:53:e1:f4:fb:0b:41:87:76:3b:bb:b7:ad:fe:56:8e:f0:
         31:c6:bc:a8:71:ba:1b:d9:3c:89:e9:e4:40:40:66:97:68:62:
         81:dc:64:f9:97:92:df:c4:96:bd
-----BEGIN CERTIFICATE-----
MIIDBzCCArOgAwIBAgIFBDFmk+0wCwYJKoZIhvcNAQELMFQxCzAJBgNVBAYTAlVT
MRYwFAYDVQQKEw1Nb3RoZXIgTmF0dXJlMRMwEQYDVQQLEwpFdmVyeXRoaW5nMRYw
FAYDVQQDEw1Nb3RoZXIgTmF0dXJlMQAwHhcNMTQwMTAxMDAwMDAwWhcNMTUwMTAx
MDAwMDAwWjCBmzELMAkGA1UEBhMCVVMxGDAWBgNVBAoTD0V4dHJlbWUgRGlzY29y
ZDEOMAwGA1UECxMFQ2hhb3MxFDASBgNVBAcTC1RhbGxhaGFzc2VlMQswCQYDVQQI
EwJGTDEcMBoGA1UECRMTMzIxMCBIb2xseSBNaWxsIFJ1bjEOMAwGA1UEERMFMzAw
NjIxDzANBgNVBAMTBmdvdi51czEAMFwwDQYJKoZIhvcNAQEBBQADSwAwSAJBALcj
tute/7ASLvAKT6Wl02JI9nFR12etJ/SYbQ62uvWJCvxDtkrJTq/vb6sFNX3TBfp4
AoGpCv4wvur5NPE1n+8CAwEAAaOCASQwggEgMA4GA1UdDwEB/wQEAwIApDAdBgNV
HSUEFjAUBggrBgEFBQcDAgYIKwYBBQUHAwEwDwYDVR0TAQH/BAUwAwEB/zAOBgNV
HSMEBzAFgAMBAgMwYgYIKwYBBQUHAQEEVjBUMCEGCCsGAQUFBzABhhVodHRwOi8v
dGhlY2EubmV0L29jc3AwLwYIKwYBBQUHMAKGI2h0dHA6Ly90aGVjYS5uZXQvdG90
YWxseXRoZWNlcnQuY3J0MBMGA1UdIAQMMAowCAYGZ4EMAQICMBoGA1UdHgQTMBGh
DzANggtleGFtcGxlLmNvbTANBgNVHQ4EBgQEBAMCATAPBgNVHREECDAGhgCCAsCo
MAkGA1UdNgQCAgEwDgYIKwYBBQUHAQsEAgIBMAsGCSqGSIb3DQEBCwNBAGzO853n
FPvC+zgM+OGDnLMmg7TDU+H0+wtBh3Y7u7et/laO8DHGvKhxuhvZPInp5EBAZpdo
YoHcZPmXkt/Elr0=
-----END CERTIFICATE-----
