Certificate:
    Data:
        Version: 3 (0x2)
        Serial Number: 4642058949754430460 (0x406be805268923fc)
        Signature Algorithm: sha256WithRSAEncryption
        Issuer: C = TR, L = Ankara, O = E-Tu\C4\9Fra EBG Bili\C5\9Fim Teknolojileri ve Hizmetleri A.\C5\9E., OU = E-Tu\C4\9Fra Sertifikasyon Merkezi, CN = E-Tugra Extended Validated CA
        Validity
            Not Before: Jan 22 12:10:23 2018 GMT
            Not After : Jan 22 00:19:00 2020 GMT
        Subject: C = TR, ST = ANKARA, L = \C3\87ANKAYA, O = KEPKUR KAYITLI ELEKTRON\C4\B0K POSTA H\C4\B0ZMETLER\C4\B0 A.\C5\9E., serialNumber = 380432, CN = www.kepkur.com.tr, postalCode = 06520, street = Ehlibeyt Mah. Ceyhun At\C4\B1f Kansu cad. no:130/49 Balgat/ANKARA, jurisdictionC = TR
        Subject Public Key Info:
            Public Key Algorithm: rsaEncryption
                RSA Public-Key: (2048 bit)
                Modulus:
                    00:96:9b:2d:d5:3b:b6:b2:3c:01:3f:31:fc:1b:60:
                    78:bb:eb:b9:e5:33:1e:92:18:80:0d:cc:f5:82:40:
                    9c:75:bb:66:4a:22:0d:5a:f4:a4:4c:78:a0:28:58:
                    cc:92:3e:0a:e3:8d:c6:73:86:c8:cc:aa:f0:0b:56:
                    60:c9:bd:5c:6f:fa:2d:94:26:f2:82:67:0f:34:19:
                    91:4e:84:d3:81:01:38:71:59:5e:b6:37:64:91:dc:
                    b3:ac:67:db:e7:29:38:65:31:4f:6a:6f:84:f9:17:
                    81:7a:f9:1e:52:a8:6f:68:79:64:b5:e2:5e:7c:93:
                    56:58:0d:f6:20:b8:d1:ee:37:7c:06:33:90:32:d1:
                    02:6f:35:39:af:3f:47:e8:93:4a:3f:d9:87:22:e9:
                    24:94:c6:97:0e:dd:9f:b7:b2:ff:45:c4:53:35:7b:
                    3d:11:50:cc:66:3d:14:bd:51:ad:ed:98:a3:60:a5:
                    b7:7e:ee:7c:42:15:fe:3d:97:a0:12:41:e4:40:03:
                    4e:ba:5a:90:18:ef:92:ed:90:f7:fd:1f:03:93:5d:
                    44:b0:12:ec:93:1c:62:c7:8b:8e:ee:57:97:c4:bb:
                    ac:08:25:14:eb:b5:28:5d:59:c3:72:97:58:55:4a:
                    c1:c4:77:96:7d:8a:ea:1e:06:2d:33:59:c2:52:e3:
                    e8:7d
                Exponent: 65537 (0x10001)
        X509v3 extensions:
            X509v3 Basic Constraints: 
                CA:FALSE
            X509v3 Authority Key Identifier: 
                keyid:4D:BF:FA:CB:C0:AF:61:55:A0:0E:29:E7:D7:13:61:3A:D8:F1:3D:DC

            Authority Information Access: 
                CA Issuers - URI:http://www.e-tugra.com/crt/etugra_sslev_v2.crt
                OCSP - URI:http://ocsp.e-tugra.com/status/ocsp

            X509v3 Subject Alternative Name: 
                DNS:www.kepkur.com.tr, DNS:store.kepkur.com.tr, DNS:webmail.kepkur.com.tr, DNS:kepkur.com, DNS:www.kepkur.com, DNS:www.hs06.kep.tr, DNS:webmail.hs06.kep.tr, DNS:hs06.kep.tr, DNS:pos.kepkur.com.tr, DNS:kepkur.com.tr
            X509v3 Certificate Policies: 
                Policy: 2.16.792.3.0.4.1.1.4
                  CPS: http://www.e-tugra.com/cps

            X509v3 Extended Key Usage: 
                TLS Web Server Authentication, TLS Web Client Authentication
            X509v3 CRL Distribution Points: 

                Full Name:
                  URI:http://crl.e-tugra.com/etugra_sslev.crl

                Full Name:
                  URI:http://crl1.e-tugra.com/etugra_sslev.crl

            X509v3 Subject Key Identifier: 
                D7:4C:D6:FB:89:92:40:9C:7F:A1:BE:E0:93:36:4B:1B:F6:7D:BB:FF
            X509v3 Key Usage: critical
                Digital Signature, Key Encipherment, Data Encipherment, Key Agreement
            CT Precertificate SCTs: 
                Signed Certificate Timestamp:
                    Version   : v1 (0x0)
                    Log ID    : DD:EB:1D:2B:7A:0D:4F:A6:20:8B:81:AD:81:68:70:7E:
                                2E:8E:9D:01:D5:5C:88:8D:3D:11:C4:CD:B6:EC:BE:CC
                    Timestamp : Jan 22 12:20:24.381 2018 GMT
                    Extensions: none
                    Signature : ecdsa-with-SHA256
                                30:46:02:21:00:A3:D5:C8:78:E9:62:7F:6C:1E:C7:E7:
                                C5:35:42:FE:DB:AC:DC:BA:66:DA:BB:9F:8C:5B:F5:D8:
                                62:34:F2:AC:FF:02:21:00:B0:54:CE:E0:91:70:F5:10:
                                C5:40:60:95:4E:6D:31:B7:D6:55:5B:72:8A:A4:0F:2C:
                                09:4F:78:1F:02:0A:42:FF
                Signed Certificate Timestamp:
                    Version   : v1 (0x0)
                    Log ID    : EE:4B:BD:B7:75:CE:60:BA:E1:42:69:1F:AB:E1:9E:66:
                                A3:0F:7E:5F:B0:72:D8:83:00:C4:7B:89:7A:A8:FD:CB
                    Timestamp : Jan 22 12:20:24.847 2018 GMT
                    Extensions: none
                    Signature : ecdsa-with-SHA256
                                30:44:02:20:39:27:37:B5:0A:AA:57:CB:9A:91:BC:1D:
                                20:13:2C:0A:78:61:0F:0E:F8:2B:08:B5:07:FF:6B:1A:
                                14:8B:63:5E:02:20:1F:8C:BE:1C:7F:06:62:54:8F:29:
                                46:7B:55:CA:92:73:51:CF:58:1D:21:03:A1:CC:11:60:
                                E5:F7:E3:7D:C7:14
                Signed Certificate Timestamp:
                    Version   : v1 (0x0)
                    Log ID    : A4:B9:09:90:B4:18:58:14:87:BB:13:A2:CC:67:70:0A:
                                3C:35:98:04:F9:1B:DF:B8:E3:77:CD:0E:C8:0D:DC:10
                    Timestamp : Jan 22 12:20:26.260 2018 GMT
                    Extensions: none
                    Signature : ecdsa-with-SHA256
                                30:44:02:20:04:0B:B7:0D:9D:14:D4:7A:29:02:20:C1:
                                9B:50:6C:C1:CF:C1:0E:1E:28:0E:90:E9:D8:91:38:F6:
                                76:A7:12:93:02:20:7A:0B:7C:87:88:95:EB:58:43:2A:
                                66:07:8D:79:DB:90:D1:8F:8E:83:EB:A6:C5:5C:07:CC:
                                CC:69:7A:2D:01:AF
    Signature Algorithm: sha256WithRSAEncryption
         41:fe:74:08:0f:5f:31:e7:d6:6c:58:bb:a7:02:c0:ce:2a:84:
         fb:73:9f:74:eb:9b:ca:79:59:0e:32:e1:cb:12:82:15:fb:82:
         e1:ee:b6:61:2c:d0:3e:be:48:9b:7b:30:2a:04:4a:ac:72:49:
         76:df:84:df:1e:03:04:b1:0e:07:81:85:ec:31:bf:57:55:8a:
         02:e2:4f:f3:4d:76:d5:27:7b:3c:4f:58:d9:17:1d:0f:0f:85:
         1e:6b:fb:3b:4b:36:fe:7a:81:ac:b9:54:cc:97:88:ae:69:62:
         fa:f6:fc:30:c0:a2:d7:93:4d:e7:03:cb:67:38:26:b4:b9:34:
         14:bf:e4:62:a4:82:5b:37:3d:a3:6f:4c:da:7f:95:5c:08:35:
         10:be:2c:2d:b9:54:53:ab:e5:2f:30:be:04:ab:d2:9f:0b:a9:
         a0:29:7d:38:5f:33:4e:ac:19:39:16:05:25:7e:0c:6d:15:3e:
         e4:c1:c8:18:7e:30:87:98:72:5f:22:61:d3:26:49:c2:bf:8b:
         35:6c:e5:90:ed:7e:cd:36:f6:74:c3:49:5b:a0:77:71:b9:1c:
         15:65:f6:51:a7:de:ce:0f:2c:e1:38:29:5e:39:89:25:03:92:
         68:44:cb:5a:d1:21:5f:4e:26:2b:bf:d8:3c:70:29:4a:47:9d:
         77:12:5f:0a
-----BEGIN CERTIFICATE-----
MIIIJzCCBw+gAwIBAgIIQGvoBSaJI/wwDQYJKoZIhvcNAQELBQAwgbExCzAJBgNV
BAYTAlRSMQ8wDQYDVQQHDAZBbmthcmExQDA+BgNVBAoMN0UtVHXEn3JhIEVCRyBC
aWxpxZ9pbSBUZWtub2xvamlsZXJpIHZlIEhpem1ldGxlcmkgQS7Fni4xJzAlBgNV
BAsMHkUtVHXEn3JhIFNlcnRpZmlrYXN5b24gTWVya2V6aTEmMCQGA1UEAwwdRS1U
dWdyYSBFeHRlbmRlZCBWYWxpZGF0ZWQgQ0EwHhcNMTgwMTIyMTIxMDIzWhcNMjAw
MTIyMDAxOTAwWjCCAQkxCzAJBgNVBAYTAlRSMQ8wDQYDVQQIDAZBTktBUkExETAP
BgNVBAcMCMOHQU5LQVlBMTwwOgYDVQQKDDNLRVBLVVIgS0FZSVRMSSBFTEVLVFJP
TsSwSyBQT1NUQSBIxLBaTUVUTEVSxLAgQS7Fni4xDzANBgNVBAUTBjM4MDQzMjEa
MBgGA1UEAwwRd3d3LmtlcGt1ci5jb20udHIxDjAMBgNVBBEMBTA2NTIwMUYwRAYD
VQQJDD1FaGxpYmV5dCBNYWguIENleWh1biBBdMSxZiBLYW5zdSBjYWQuIG5vOjEz
MC80OSBCYWxnYXQvQU5LQVJBMRMwEQYLKwYBBAGCNzwCAQMMAlRSMIIBIjANBgkq
hkiG9w0BAQEFAAOCAQ8AMIIBCgKCAQEAlpst1Tu2sjwBPzH8G2B4u+u55TMekhiA
Dcz1gkCcdbtmSiINWvSkTHigKFjMkj4K443Gc4bIzKrwC1Zgyb1cb/otlCbygmcP
NBmRToTTgQE4cVletjdkkdyzrGfb5yk4ZTFPam+E+ReBevkeUqhvaHlkteJefJNW
WA32ILjR7jd8BjOQMtECbzU5rz9H6JNKP9mHIukklMaXDt2ft7L/RcRTNXs9EVDM
Zj0UvVGt7ZijYKW3fu58QhX+PZegEkHkQANOulqQGO+S7ZD3/R8Dk11EsBLskxxi
x4uO7leXxLusCCUU67UoXVnDcpdYVUrBxHeWfYrqHgYtM1nCUuPofQIDAQABo4ID
5jCCA+IwCQYDVR0TBAIwADAfBgNVHSMEGDAWgBRNv/rLwK9hVaAOKefXE2E62PE9
3DB7BggrBgEFBQcBAQRvMG0wOgYIKwYBBQUHMAKGLmh0dHA6Ly93d3cuZS10dWdy
YS5jb20vY3J0L2V0dWdyYV9zc2xldl92Mi5jcnQwLwYIKwYBBQUHMAGGI2h0dHA6
Ly9vY3NwLmUtdHVncmEuY29tL3N0YXR1cy9vY3NwMIG7BgNVHREEgbMwgbCCEXd3
dy5rZXBrdXIuY29tLnRyghNzdG9yZS5rZXBrdXIuY29tLnRyghV3ZWJtYWlsLmtl
cGt1ci5jb20udHKCCmtlcGt1ci5jb22CDnd3dy5rZXBrdXIuY29tgg93d3cuaHMw
Ni5rZXAudHKCE3dlYm1haWwuaHMwNi5rZXAudHKCC2hzMDYua2VwLnRyghFwb3Mu
a2Vwa3VyLmNvbS50coINa2Vwa3VyLmNvbS50cjBABgNVHSAEOTA3MDUGCWCGGAMA
BAEBBDAoMCYGCCsGAQUFBwIBFhpodHRwOi8vd3d3LmUtdHVncmEuY29tL2NwczAd
BgNVHSUEFjAUBggrBgEFBQcDAQYIKwYBBQUHAwIwaAYDVR0fBGEwXzAtoCugKYYn
aHR0cDovL2NybC5lLXR1Z3JhLmNvbS9ldHVncmFfc3NsZXYuY3JsMC6gLKAqhiho
dHRwOi8vY3JsMS5lLXR1Z3JhLmNvbS9ldHVncmFfc3NsZXYuY3JsMB0GA1UdDgQW
BBTXTNb7iZJAnH+hvuCTNksb9n27/zAOBgNVHQ8BAf8EBAMCA7gwggF9BgorBgEE
AdZ5AgQCBIIBbQSCAWkBZwB3AN3rHSt6DU+mIIuBrYFocH4ujp0B1VyIjT0RxM22
7L7MAAABYR3P+L0AAAQDAEgwRgIhAKPVyHjpYn9sHsfnxTVC/tus3Lpm2rufjFv1
2GI08qz/AiEAsFTO4JFw9RDFQGCVTm0xt9ZVW3KKpA8sCU94HwIKQv8AdQDuS723
dc5guuFCaR+r4Z5mow9+X7By2IMAxHuJeqj9ywAAAWEdz/qPAAAEAwBGMEQCIDkn
N7UKqlfLmpG8HSATLAp4YQ8O+CsItQf/axoUi2NeAiAfjL4cfwZiVI8pRntVypJz
Uc9YHSEDocwRYOX3433HFAB1AKS5CZC0GFgUh7sTosxncAo8NZgE+RvfuON3zQ7I
DdwQAAABYR3QABQAAAQDAEYwRAIgBAu3DZ0U1HopAiDBm1Bswc/BDh4oDpDp2JE4
9nanEpMCIHoLfIeIletYQypmB41525DRj46D66bFXAfMzGl6LQGvMA0GCSqGSIb3
DQEBCwUAA4IBAQBB/nQID18x59ZsWLunAsDOKoT7c59065vKeVkOMuHLEoIV+4Lh
7rZhLNA+vkibezAqBEqsckl234TfHgMEsQ4HgYXsMb9XVYoC4k/zTXbVJ3s8T1jZ
Fx0PD4Uea/s7Szb+eoGsuVTMl4iuaWL69vwwwKLXk03nA8tnOCa0uTQUv+RipIJb
Nz2jb0zaf5VcCDUQviwtuVRTq+UvML4Eq9KfC6mgKX04XzNOrBk5FgUlfgxtFT7k
wcgYfjCHmHJfImHTJknCv4s1bOWQ7X7NNvZ0w0lboHdxuRwVZfZRp97ODyzhOCle
OYklA5JoRMta0SFfTiYrv9g8cClKR513El8K
-----END CERTIFICATE-----
