Certificate:
    Data:
        Version: 3 (0x2)
        Serial Number:
            62:26:d0:ff:7e:91:29:61:a1:48:c2:37:f9:fc:66:31:aa:fe:94:85
    Signature Algorithm: sha256WithRSAEncryption
        Issuer:
            commonName                = PRINTABLESTRING:QuoVadis EV SSL ICA G1
            organizationName          = PRINTABLESTRING:QuoVadis Limited
            countryName               = PRINTABLESTRING:BM
        Validity
            Not Before: Jan 21 20:59:15 2015 GMT
            Not After : Feb 21 20:59:15 2017 GMT
        Subject:
            commonName                = UTF8STRING:6AEK347fw8vWE424
        Subject Public Key Info:
            Public Key Algorithm: rsaEncryption
                Public-Key: (2048 bit)
                Modulus:
                    00:d3:ba:7c:c5:db:7c:19:ab:e1:05:0d:64:84:de:
                    2e:ab:52:3f:1c:2e:1d:53:cf:d7:e8:69:97:c0:b0:
                    a2:bb:83:18:a4:06:c6:35:04:85:04:79:a1:b8:c4:
                    e9:72:a3:7d:77:eb:6d:a9:e9:9d:32:3d:e4:63:7a:
                    93:ad:f6:ce:15:54:f7:6a:13:ca:75:8a:5c:6b:34:
                    e4:2d:82:f9:1c:f8:cd:46:67:10:d7:59:0a:96:3f:
                    c0:bc:a5:79:0a:20:67:46:c1:e1:c5:06:8b:7e:75:
                    75:ee:dc:e1:95:ec:65:07:24:44:c9:be:5e:62:83:
                    ae:f4:02:6a:09:b8:43:75:cb:2d:4e:db:72:4c:6d:
                    d6:a5:ca:f5:3b:4b:8a:5b:22:0f:e7:45:93:10:d3:
                    ba:8c:0e:5e:2a:03:a0:fa:5b:43:ca:ff:75:05:f6:
                    be:99:54:27:95:9d:38:ea:95:35:5c:e8:78:7b:31:
                    98:db:e1:63:76:fc:08:21:88:c6:de:ee:1f:ec:f7:
                    a8:48:bf:e9:10:00:a3:78:dd:83:80:87:01:61:09:
                    02:41:6b:4a:0b:f2:96:49:f2:85:eb:89:6a:6d:7a:
                    01:31:1a:79:fd:8c:4d:c4:89:af:dd:de:32:1d:18:
                    6c:33:96:98:f1:c7:7d:69:3b:85:0b:37:23:3a:f7:
                    4a:01
                Exponent: 65537 (0x10001)
        X509v3 extensions:
            Authority Information Access:
                CA Issuers - URI:http://trust.quovadisglobal.com/qvevssl1.crt
                OCSP - URI:http://ev.ocsp.quovadisglobal.com

            X509v3 Subject Key Identifier:
                40:62:4A:69:72:8D:FF:6C:D3:65:8F:8F:7B:03:46:75:9C:CB:B1:4D
            X509v3 Basic Constraints: critical
                CA:FALSE
            X509v3 Authority Key Identifier:
                keyid:55:58:86:CE:BA:7C:76:4E:99:13:A9:0F:D3:6C:9F:C2:F5:D3:3C:E3

            X509v3 Certificate Policies:
                Policy: 1.3.6.1.4.1.8024.0.2.100.1.2
                  CPS: http://www.quovadisglobal.com/repository

            X509v3 CRL Distribution Points:

                Full Name:
                  URI:http://crl.quovadisglobal.com/qvevssl1.crl

            X509v3 Key Usage: critical
                Digital Signature, Key Encipherment
            X509v3 Extended Key Usage:
                TLS Web Server Authentication, TLS Web Client Authentication
            X509v3 Subject Alternative Name:
                DNS:pkiwidgets.quovadisglobal.com
            CT Precertificate Poison: critical
                ..
    Signature Algorithm: sha256WithRSAEncryption
         04:99:dc:09:d6:02:c6:a9:42:51:07:dc:bf:b7:f6:71:13:8f:
         7b:d3:9b:77:5b:6e:44:7a:9e:17:dd:d3:f3:09:1f:b0:19:18:
         0c:1f:6a:12:62:42:8c:73:8b:cf:bf:5e:fe:de:0e:91:3a:b1:
         df:6f:43:f6:c5:e2:2e:8a:f0:87:8e:b9:2b:4e:7e:e7:35:2a:
         f9:05:33:c8:eb:b1:49:46:e0:60:41:1f:7b:aa:e5:7e:8b:f8:
         00:d1:19:ba:cd:db:a9:d3:9e:6a:6c:ac:b7:6b:56:27:b1:2d:
         b8:d5:f1:bf:0f:91:f6:93:c1:1b:52:a6:99:26:43:1c:3a:18:
         bf:a6:ea:9f:25:b3:0e:53:58:82:76:68:11:35:95:04:1c:18:
         7c:f0:72:5e:e7:0a:06:20:cc:b5:c9:fc:23:90:29:c5:d8:63:
         90:42:f7:27:22:cf:1d:f5:9b:37:05:55:57:0e:f5:58:4d:cf:
         bd:c8:9a:07:02:95:93:b9:f9:b2:09:c8:b4:04:a3:50:0a:96:
         70:f2:86:76:07:a5:fd:68:7a:db:14:4c:93:28:63:7e:f6:f3:
         85:64:8b:ef:ff:80:16:4a:99:0b:6a:86:f2:ca:35:4e:79:a9:
         fb:51:87:95:15:c5:3a:f2:eb:40:5e:17:32:73:d3:c8:c1:7a:
         c6:c4:2c:74

-----BEGIN CERTIFICATE-----
MIIEvTCCA6WgAwIBAgIUYibQ/36RKWGhSMI3+fxmMar+lIUwDQYJKoZIhvcNAQEL
BQAwSTELMAkGA1UEBhMCQk0xGTAXBgNVBAoTEFF1b1ZhZGlzIExpbWl0ZWQxHzAd
BgNVBAMTFlF1b1ZhZGlzIEVWIFNTTCBJQ0EgRzEwHhcNMTUwMTIxMjA1OTE1WhcN
MTcwMjIxMjA1OTE1WjAbMRkwFwYDVQQDDBA2QUVLMzQ3Znc4dldFNDI0MIIBIjAN
BgkqhkiG9w0BAQEFAAOCAQ8AMIIBCgKCAQEA07p8xdt8GavhBQ1khN4uq1I/HC4d
U8/X6GmXwLCiu4MYpAbGNQSFBHmhuMTpcqN9d+ttqemdMj3kY3qTrfbOFVT3ahPK
dYpcazTkLYL5HPjNRmcQ11kKlj/AvKV5CiBnRsHhxQaLfnV17tzhlexlByREyb5e
YoOu9AJqCbhDdcstTttyTG3Wpcr1O0uKWyIP50WTENO6jA5eKgOg+ltDyv91Bfa+
mVQnlZ046pU1XOh4ezGY2+FjdvwIIYjG3u4f7PeoSL/pEACjeN2DgIcBYQkCQWtK
C/KWSfKF64lqbXoBMRp5/YxNxImv3d4yHRhsM5aY8cd9aTuFCzcjOvdKAQIDAQAB
o4IByTCCAcUwdwYIKwYBBQUHAQEEazBpMDgGCCsGAQUFBzAChixodHRwOi8vdHJ1
c3QucXVvdmFkaXNnbG9iYWwuY29tL3F2ZXZzc2wxLmNydDAtBggrBgEFBQcwAYYh
aHR0cDovL2V2Lm9jc3AucXVvdmFkaXNnbG9iYWwuY29tMB0GA1UdDgQWBBRAYkpp
co3/bNNlj497A0Z1nMuxTTAMBgNVHRMBAf8EAjAAMB8GA1UdIwQYMBaAFFVYhs66
fHZOmROpD9Nsn8L10zzjMFEGA1UdIARKMEgwRgYMKwYBBAG+WAACZAECMDYwNAYI
KwYBBQUHAgEWKGh0dHA6Ly93d3cucXVvdmFkaXNnbG9iYWwuY29tL3JlcG9zaXRv
cnkwOwYDVR0fBDQwMjAwoC6gLIYqaHR0cDovL2NybC5xdW92YWRpc2dsb2JhbC5j
b20vcXZldnNzbDEuY3JsMA4GA1UdDwEB/wQEAwIFoDAdBgNVHSUEFjAUBggrBgEF
BQcDAQYIKwYBBQUHAwIwKAYDVR0RBCEwH4IdcGtpd2lkZ2V0cy5xdW92YWRpc2ds
b2JhbC5jb20wEwYKKwYBBAHWeQIEAwEB/wQCBQAwDQYJKoZIhvcNAQELBQADggEB
AASZ3AnWAsapQlEH3L+39nETj3vTm3dbbkR6nhfd0/MJH7AZGAwfahJiQoxzi8+/
Xv7eDpE6sd9vQ/bF4i6K8IeOuStOfuc1KvkFM8jrsUlG4GBBH3uq5X6L+ADRGbrN
26nTnmpsrLdrViexLbjV8b8PkfaTwRtSppkmQxw6GL+m6p8lsw5TWIJ2aBE1lQQc
GHzwcl7nCgYgzLXJ/COQKcXYY5BC9ycizx31mzcFVVcO9VhNz73ImgcClZO5+bIJ
yLQEo1AKlnDyhnYHpf1oetsUTJMoY37284Vki+//gBZKmQtqhvLKNU55qftRh5UV
xTry60BeFzJz08jBesbELHQ=
-----END CERTIFICATE-----
