Certificate:
    Data:
        Version: 3 (0x2)
        Serial Number:
            06:9e:7f:ca:9f:c8:0a:7e:75:bd:26:df:07:38:c3:a8
    Signature Algorithm: sha256WithRSAEncryption
        Issuer:
            commonName                = PRINTABLESTRING:DigiCert SHA2 Extended Validation Server CA
            organizationalUnitName    = PRINTABLESTRING:www.digicert.com
            organizationName          = PRINTABLESTRING:DigiCert Inc
            countryName               = PRINTABLESTRING:US
        Validity
            Not Before: Apr 30 00:00:00 2018 GMT
            Not After : Aug  2 00:00:00 2020 GMT
        Subject:
            commonName                = PRINTABLESTRING:www.pillpack.com
            organizationName          = PRINTABLESTRING:PillPack, Inc
            localityName              = PRINTABLESTRING:Manchester
            stateOrProvinceName       = PRINTABLESTRING:New Hampshire
            countryName               = PRINTABLESTRING:US
            serialNumber              = PRINTABLESTRING:5282593
            jurisdictionStateOrProvinceName = PRINTABLESTRING:Delaware
            jurisdictionCountryName   = PRINTABLESTRING:US
            businessCategory          = UTF8STRING:Private Organization
        Subject Public Key Info:
            Public Key Algorithm: rsaEncryption
                Public-Key: (2048 bit)
                Modulus:
                    00:cc:d8:aa:7d:94:c1:0a:33:05:03:04:7b:06:18:
                    55:df:02:98:e0:33:26:80:aa:3e:43:0d:16:22:17:
                    de:c1:93:33:11:96:50:73:d7:3c:6a:a5:32:73:e9:
                    2a:bd:5a:da:ce:c5:21:45:75:d0:1a:15:7e:7f:38:
                    82:27:ee:53:6f:d2:d3:b6:3f:9d:ad:5f:e5:7e:43:
                    63:48:5e:c7:4a:d7:8f:ca:42:1e:c1:aa:ef:5b:e1:
                    33:44:46:8c:75:76:1b:84:96:bc:94:51:92:cc:2c:
                    5f:b4:75:a0:03:62:74:d4:c1:6d:ef:41:d0:89:3d:
                    76:66:be:5e:f8:a0:ca:c3:c8:ef:92:be:ca:ab:84:
                    81:e6:00:a8:a1:1e:ba:40:2d:43:44:0f:ca:60:b1:
                    b5:72:94:70:72:a6:9c:83:c4:5b:8e:1a:3e:d2:dd:
                    75:53:5e:37:4d:29:83:e4:70:53:40:66:e5:1b:32:
                    c5:6c:c6:ac:d7:a5:73:d1:4c:0a:49:83:46:ff:ba:
                    f0:c6:c5:98:fb:bf:a4:53:a3:16:81:cc:ea:c4:58:
                    70:32:96:6d:31:45:ae:ab:28:58:89:e4:35:e2:78:
                    76:9f:8b:a5:d5:88:74:ec:18:95:db:36:5d:cd:30:
                    c2:07:b7:04:ff:1c:18:9a:45:ea:d5:8b:6a:12:a4:
                    f3:61
                Exponent: 65537 (0x10001)
        X509v3 extensions:
            X509v3 Authority Key Identifier:
                keyid:3D:D3:50:A5:D6:A0:AD:EE:F3:4A:60:0A:65:D3:21:D4:F8:F8:D6:0F

            X509v3 Subject Key Identifier:
                E9:DA:44:27:29:71:BB:2F:59:05:D3:87:2A:9C:95:F1:3A:46:A9:65
            X509v3 Subject Alternative Name:
                DNS:www.pillpack.com, DNS:my.pillpack.com, DNS:admin.pillpack.com, DNS:api.pillpack.com
            X509v3 Key Usage: critical
                Digital Signature, Key Encipherment
            X509v3 Extended Key Usage:
                TLS Web Server Authentication, TLS Web Client Authentication
            X509v3 CRL Distribution Points:

                Full Name:
                  URI:http://crl3.digicert.com/sha2-ev-server-g2.crl

                Full Name:
                  URI:http://crl4.digicert.com/sha2-ev-server-g2.crl

            X509v3 Certificate Policies:
                Policy: 2.16.840.1.114412.2.1
                  CPS: https://www.digicert.com/CPS
                Policy: 2.23.140.1.1

            Authority Information Access:
                OCSP - URI:http://ocsp.digicert.com
                CA Issuers - URI:http://cacerts.digicert.com/DigiCertSHA2ExtendedValidationServerCA.crt

            X509v3 Basic Constraints: critical
                CA:FALSE
            CT Precertificate Poison: critical
                ..
    Signature Algorithm: sha256WithRSAEncryption
         01:6a:50:0f:94:5a:26:af:d8:fe:79:74:b0:d9:5a:bf:ee:05:
         89:8c:16:38:4b:cf:86:39:cc:73:44:b4:6b:72:95:fc:ba:55:
         47:65:74:08:7d:17:eb:d8:7e:94:2d:db:3b:90:8c:2b:15:c0:
         d1:49:a5:94:a9:6c:a4:99:2a:bf:43:6f:b9:43:8b:7b:6b:b8:
         19:8b:8c:b7:f6:0a:6e:c2:15:8b:c8:50:2b:62:71:bf:1c:dd:
         26:37:aa:7e:2e:3e:fa:4d:ae:a7:a6:c4:0b:00:75:c7:61:e9:
         ad:a4:2b:00:36:33:82:87:62:6d:e1:b6:8f:7a:ce:c0:a2:d8:
         d3:ae:7a:34:2f:54:c6:e1:7b:4a:64:09:04:50:44:12:84:c7:
         5b:7f:00:44:28:c0:1e:a4:b1:1f:bf:cf:8c:d3:88:84:91:73:
         a6:10:af:6e:01:43:20:33:68:43:8e:b3:01:0d:87:ea:63:e2:
         dc:ac:8f:86:bc:a2:b2:74:65:79:43:35:58:60:bf:00:bf:cf:
         b3:d1:44:6f:7d:93:ae:7f:e2:eb:80:f6:90:21:33:c0:07:1c:
         08:ee:69:54:25:68:e4:71:0a:15:f0:02:af:ae:40:5a:f0:61:
         54:4c:d6:0a:dd:83:5f:36:e0:b8:3c:4b:27:99:71:e3:c2:ca:
         c5:86:4e:2f

-----BEGIN CERTIFICATE-----
MIIGCTCCBPGgAwIBAgIQBp5/yp/ICn51vSbfBzjDqDANBgkqhkiG9w0BAQsFADB1
MQswCQYDVQQGEwJVUzEVMBMGA1UEChMMRGlnaUNlcnQgSW5jMRkwFwYDVQQLExB3
d3cuZGlnaWNlcnQuY29tMTQwMgYDVQQDEytEaWdpQ2VydCBTSEEyIEV4dGVuZGVk
IFZhbGlkYXRpb24gU2VydmVyIENBMB4XDTE4MDQzMDAwMDAwMFoXDTIwMDgwMjAw
MDAwMFowgc4xHTAbBgNVBA8MFFByaXZhdGUgT3JnYW5pemF0aW9uMRMwEQYLKwYB
BAGCNzwCAQMTAlVTMRkwFwYLKwYBBAGCNzwCAQITCERlbGF3YXJlMRAwDgYDVQQF
Ewc1MjgyNTkzMQswCQYDVQQGEwJVUzEWMBQGA1UECBMNTmV3IEhhbXBzaGlyZTET
MBEGA1UEBxMKTWFuY2hlc3RlcjEWMBQGA1UEChMNUGlsbFBhY2ssIEluYzEZMBcG
A1UEAxMQd3d3LnBpbGxwYWNrLmNvbTCCASIwDQYJKoZIhvcNAQEBBQADggEPADCC
AQoCggEBAMzYqn2UwQozBQMEewYYVd8CmOAzJoCqPkMNFiIX3sGTMxGWUHPXPGql
MnPpKr1a2s7FIUV10BoVfn84gifuU2/S07Y/na1f5X5DY0hex0rXj8pCHsGq71vh
M0RGjHV2G4SWvJRRkswsX7R1oANidNTBbe9B0Ik9dma+XvigysPI75K+yquEgeYA
qKEeukAtQ0QPymCxtXKUcHKmnIPEW44aPtLddVNeN00pg+RwU0Bm5RsyxWzGrNel
c9FMCkmDRv+68MbFmPu/pFOjFoHM6sRYcDKWbTFFrqsoWInkNeJ4dp+LpdWIdOwY
lds2Xc0wwge3BP8cGJpF6tWLahKk82ECAwEAAaOCAjkwggI1MB8GA1UdIwQYMBaA
FD3TUKXWoK3u80pgCmXTIdT4+NYPMB0GA1UdDgQWBBTp2kQnKXG7L1kF04cqnJXx
OkapZTBSBgNVHREESzBJghB3d3cucGlsbHBhY2suY29tgg9teS5waWxscGFjay5j
b22CEmFkbWluLnBpbGxwYWNrLmNvbYIQYXBpLnBpbGxwYWNrLmNvbTAOBgNVHQ8B
Af8EBAMCBaAwHQYDVR0lBBYwFAYIKwYBBQUHAwEGCCsGAQUFBwMCMHUGA1UdHwRu
MGwwNKAyoDCGLmh0dHA6Ly9jcmwzLmRpZ2ljZXJ0LmNvbS9zaGEyLWV2LXNlcnZl
ci1nMi5jcmwwNKAyoDCGLmh0dHA6Ly9jcmw0LmRpZ2ljZXJ0LmNvbS9zaGEyLWV2
LXNlcnZlci1nMi5jcmwwSwYDVR0gBEQwQjA3BglghkgBhv1sAgEwKjAoBggrBgEF
BQcCARYcaHR0cHM6Ly93d3cuZGlnaWNlcnQuY29tL0NQUzAHBgVngQwBATCBiAYI
KwYBBQUHAQEEfDB6MCQGCCsGAQUFBzABhhhodHRwOi8vb2NzcC5kaWdpY2VydC5j
b20wUgYIKwYBBQUHMAKGRmh0dHA6Ly9jYWNlcnRzLmRpZ2ljZXJ0LmNvbS9EaWdp
Q2VydFNIQTJFeHRlbmRlZFZhbGlkYXRpb25TZXJ2ZXJDQS5jcnQwDAYDVR0TAQH/
BAIwADATBgorBgEEAdZ5AgQDAQH/BAIFADANBgkqhkiG9w0BAQsFAAOCAQEAAWpQ
D5RaJq/Y/nl0sNlav+4FiYwWOEvPhjnMc0S0a3KV/LpVR2V0CH0X69h+lC3bO5CM
KxXA0UmllKlspJkqv0NvuUOLe2u4GYuMt/YKbsIVi8hQK2JxvxzdJjeqfi4++k2u
p6bECwB1x2HpraQrADYzgodibeG2j3rOwKLY0656NC9UxuF7SmQJBFBEEoTHW38A
RCjAHqSxH7/PjNOIhJFzphCvbgFDIDNoQ46zAQ2H6mPi3KyPhryisnRleUM1WGC/
AL/Ps9FEb32Trn/i64D2kCEzwAccCO5pVCVo5HEKFfACr65AWvBhVEzWCt2DXzbg
uDxLJ5lx48LKxYZOLw==
-----END CERTIFICATE-----
