Certificate:
    Data:
        Version: 3 (0x2)
        Serial Number:
            5e:bf:9c:6a:6c:f2:30:55:18:6d:0a:35:0a:dd:6f:cd
        Signature Algorithm: sha256WithRSAEncryption
        Issuer: C = US, O = "thawte, Inc.", CN = thawte EV SSL CA - G3
        Validity
            Not Before: Aug  1 00:00:00 2017 GMT
            Not After : Oct 17 23:59:59 2019 GMT
        Subject: jurisdictionC = GB, O = TELEFONICA UK LIMITED, C = GB, ST = Berkshire, L = Slough, businessCategory = Private Organization, serialNumber = 01743099, OU = Operations, CN = bt-api.o2wifi.co.uk
        Subject Public Key Info:
            Public Key Algorithm: rsaEncryption
                RSA Public-Key: (2048 bit)
                Modulus:
                    00:c6:44:5e:3a:23:6d:68:4d:81:2c:8a:5a:a2:cf:
                    5f:8e:f9:a0:a9:1f:5d:fe:82:df:c7:0c:cc:34:b1:
                    45:5e:b3:b9:ea:0a:45:b5:41:e2:8f:07:4b:51:1a:
                    48:e9:9a:d7:4e:6b:2a:11:8f:b8:ec:3a:54:6b:e8:
                    b0:0a:4e:20:5f:ad:05:e5:85:52:cd:aa:00:00:34:
                    0b:e7:ca:c1:24:11:d0:73:e9:df:59:b7:97:aa:4c:
                    7b:94:32:ec:75:e8:6d:71:fb:e2:e7:16:2d:fb:1c:
                    45:cd:f6:c4:5c:cf:e1:6f:1d:a8:97:d2:db:09:04:
                    2b:41:4d:4b:3d:25:62:a4:b5:25:42:af:24:53:2c:
                    79:b3:fa:ac:ef:2d:e9:54:f6:4d:8a:df:56:54:de:
                    34:d7:d7:2c:f4:68:0b:b9:9a:cc:95:07:b6:e2:7e:
                    b4:1c:e6:ca:19:a8:db:84:bb:1d:81:da:9c:54:a8:
                    d5:49:a2:9a:c0:97:23:70:9b:06:76:e5:fc:15:81:
                    30:93:a8:6c:2a:9e:e7:6d:41:a3:13:38:00:3c:e8:
                    57:65:01:bb:6a:3e:c4:bb:b2:7c:69:b4:c2:08:c4:
                    1f:06:3b:11:02:74:58:17:e4:5f:ee:0b:ec:bc:e0:
                    5c:61:13:0d:f5:dc:7b:b5:65:31:7e:28:5a:53:f1:
                    5f:83
                Exponent: 65537 (0x10001)
        X509v3 extensions:
            X509v3 Subject Alternative Name: 
                DNS:bt-api.o2wifi.co.uk
            X509v3 Basic Constraints: 
                CA:FALSE
            X509v3 Key Usage: critical
                Digital Signature, Key Encipherment
            X509v3 CRL Distribution Points: 

                Full Name:
                  URI:http://ti.symcb.com/ti.crl

            X509v3 Certificate Policies: 
                Policy: 2.16.840.1.113733.1.7.48.1
                  CPS: https://www.thawte.com/cps
                  User Notice:
                    Explicit Text: https://www.thawte.com/repository
                Policy: 2.23.140.1.1

            X509v3 Extended Key Usage: 
                TLS Web Server Authentication, TLS Web Client Authentication
            X509v3 Authority Key Identifier: 
                keyid:F0:70:51:DA:D3:2A:91:4F:52:77:D7:86:77:74:0F:CE:71:1A:6C:22

            Authority Information Access: 
                OCSP - URI:http://ti.symcd.com
                CA Issuers - URI:http://ti.symcb.com/ti.crt

            CT Precertificate Poison: critical
                NULL
    Signature Algorithm: sha256WithRSAEncryption
         91:dc:d8:53:7c:d0:40:83:11:cc:be:6b:b9:76:da:56:85:0e:
         b9:ee:9f:16:17:d6:85:3d:e5:25:5d:91:37:af:e3:57:9d:c1:
         4b:01:88:6d:fb:78:7d:e0:d8:02:2e:ae:1f:1e:28:23:f0:63:
         92:7b:e6:c4:ea:7d:6a:5e:d6:bc:61:5a:b6:e1:b2:2c:3d:dd:
         54:f5:db:2c:8a:62:95:d9:de:19:94:2f:06:6e:cb:3f:3c:b6:
         0f:d0:a2:8b:8c:97:68:23:03:43:2f:a0:44:22:1f:e4:d7:92:
         d3:93:d0:1c:1e:a0:01:f8:a1:32:4d:e3:88:03:c0:52:59:86:
         54:10:c9:85:32:8e:4d:ae:02:c3:71:c3:1c:e6:3c:0e:bd:7d:
         2e:d2:7a:0e:c3:a0:87:30:ff:c1:c0:a7:54:23:4f:8b:5f:b0:
         6c:36:07:f3:2a:3e:ca:8f:6c:61:34:e5:fa:ae:0c:44:5d:a1:
         0f:f2:40:28:58:1f:6f:d9:f0:36:47:d7:d8:7f:04:c6:51:c0:
         25:76:0c:2b:33:f8:2f:51:88:53:b3:d6:72:64:dd:db:29:54:
         4e:1c:5c:84:88:0b:d6:0b:27:ee:5f:1b:81:17:d1:bf:18:c2:
         5c:61:30:ea:7b:b0:25:cc:b0:9a:c3:b3:47:94:09:e4:4c:0f:
         0e:b3:9c:b4
-----BEGIN CERTIFICATE-----
MIIFNTCCBB2gAwIBAgIQXr+camzyMFUYbQo1Ct1vzTANBgkqhkiG9w0BAQsFADBE
MQswCQYDVQQGEwJVUzEVMBMGA1UEChMMdGhhd3RlLCBJbmMuMR4wHAYDVQQDExV0
aGF3dGUgRVYgU1NMIENBIC0gRzMwHhcNMTcwODAxMDAwMDAwWhcNMTkxMDE3MjM1
OTU5WjCBzDETMBEGCysGAQQBgjc8AgEDEwJHQjEeMBwGA1UECgwVVEVMRUZPTklD
QSBVSyBMSU1JVEVEMQswCQYDVQQGEwJHQjESMBAGA1UECAwJQmVya3NoaXJlMQ8w
DQYDVQQHDAZTbG91Z2gxHTAbBgNVBA8TFFByaXZhdGUgT3JnYW5pemF0aW9uMREw
DwYDVQQFEwgwMTc0MzA5OTETMBEGA1UECwwKT3BlcmF0aW9uczEcMBoGA1UEAwwT
YnQtYXBpLm8yd2lmaS5jby51azCCASIwDQYJKoZIhvcNAQEBBQADggEPADCCAQoC
ggEBAMZEXjojbWhNgSyKWqLPX475oKkfXf6C38cMzDSxRV6zueoKRbVB4o8HS1Ea
SOma105rKhGPuOw6VGvosApOIF+tBeWFUs2qAAA0C+fKwSQR0HPp31m3l6pMe5Qy
7HXobXH74ucWLfscRc32xFzP4W8dqJfS2wkEK0FNSz0lYqS1JUKvJFMsebP6rO8t
6VT2TYrfVlTeNNfXLPRoC7mazJUHtuJ+tBzmyhmo24S7HYHanFSo1UmimsCXI3Cb
Bnbl/BWBMJOobCqe521BoxM4ADzoV2UBu2o+xLuyfGm0wgjEHwY7EQJ0WBfkX+4L
7LzgXGETDfXce7VlMX4oWlPxX4MCAwEAAaOCAZgwggGUMB4GA1UdEQQXMBWCE2J0
LWFwaS5vMndpZmkuY28udWswCQYDVR0TBAIwADAOBgNVHQ8BAf8EBAMCBaAwKwYD
VR0fBCQwIjAgoB6gHIYaaHR0cDovL3RpLnN5bWNiLmNvbS90aS5jcmwwfAYDVR0g
BHUwczBoBgtghkgBhvhFAQcwATBZMCYGCCsGAQUFBwIBFhpodHRwczovL3d3dy50
aGF3dGUuY29tL2NwczAvBggrBgEFBQcCAjAjDCFodHRwczovL3d3dy50aGF3dGUu
Y29tL3JlcG9zaXRvcnkwBwYFZ4EMAQEwHQYDVR0lBBYwFAYIKwYBBQUHAwEGCCsG
AQUFBwMCMB8GA1UdIwQYMBaAFPBwUdrTKpFPUnfXhnd0D85xGmwiMFcGCCsGAQUF
BwEBBEswSTAfBggrBgEFBQcwAYYTaHR0cDovL3RpLnN5bWNkLmNvbTAmBggrBgEF
BQcwAoYaaHR0cDovL3RpLnN5bWNiLmNvbS90aS5jcnQwEwYKKwYBBAHWeQIEAwEB
/wQCBQAwDQYJKoZIhvcNAQELBQADggEBAJHc2FN80ECDEcy+a7l22laFDrnunxYX
1oU95SVdkTev41edwUsBiG37eH3g2AIurh8eKCPwY5J75sTqfWpe1rxhWrbhsiw9
3VT12yyKYpXZ3hmULwZuyz88tg/QoouMl2gjA0MvoEQiH+TXktOT0BweoAH4oTJN
44gDwFJZhlQQyYUyjk2uAsNxwxzmPA69fS7Seg7DoIcw/8HAp1QjT4tfsGw2B/Mq
PsqPbGE05fquDERdoQ/yQChYH2/Z8DZH19h/BMZRwCV2DCsz+C9RiFOz1nJk3dsp
VE4cXISIC9YLJ+5fG4EX0b8YwlxhMOp7sCXMsJrDs0eUCeRMDw6znLQ=
-----END CERTIFICATE-----
