Certificate:
    Data:
        Version: 3 (0x2)
        Serial Number:
            64:3d:b9:4a:ae:26:bc:43:92:58:04:f2:b8:25:d4:3a
    Signature Algorithm: sha256WithRSAEncryption
        Issuer:
            commonName                = PRINTABLESTRING:Symantec Class 3 EV SSL CA - G3
            organizationalUnitName    = PRINTABLESTRING:Symantec Trust Network
            organizationName          = PRINTABLESTRING:Symantec Corporation
            countryName               = PRINTABLESTRING:US
        Validity
            Not Before: Dec  5 00:00:00 2014 GMT
            Not After : Apr  1 23:59:59 2017 GMT
        Subject:
            commonName                = T61STRING:gw.s-pushtan-li01.de
            organizationalUnitName    = T61STRING:Finanz Informatik GmbH & Co. KG
            organizationName          = T61STRING:Finanz Informatik GmbH & Co. KG
            localityName              = T61STRING:Frankfurt am Main
            stateOrProvinceName       = T61STRING:Hessen
            countryName               = PRINTABLESTRING:DE
            serialNumber              = PRINTABLESTRING:HRA 30059
            businessCategory          = PRINTABLESTRING:Private Organization
            jurisdictionLocalityName  = T61STRING:Frankfurt am Main
            jurisdictionCountryName   = PRINTABLESTRING:DE
        Subject Public Key Info:
            Public Key Algorithm: rsaEncryption
                Public-Key: (2048 bit)
                Modulus:
                    00:b1:cb:5c:51:22:20:25:11:52:4e:60:5a:1c:27:
                    11:d1:21:8b:5b:34:dc:0f:de:49:db:7f:55:39:48:
                    dd:f1:10:fe:4b:9f:f3:10:e1:79:0b:b7:42:65:0f:
                    6b:84:7a:fb:b7:f7:b8:b9:2f:b1:1e:3a:a5:9f:9f:
                    43:f1:c7:b2:12:6c:e6:dc:77:92:6f:2f:de:b4:db:
                    f1:3e:c8:61:6b:b9:ec:b4:10:9d:f8:f4:f3:9f:d3:
                    29:1b:72:1d:0c:a4:7a:c6:79:82:9e:7b:7c:5d:66:
                    22:88:8e:9f:0a:77:fc:e9:45:de:24:fc:e2:4e:8e:
                    85:4d:0d:6e:34:cc:c3:83:20:99:e3:3e:c4:f2:1f:
                    9f:23:42:00:5c:db:73:c2:31:59:7c:ef:9e:f0:6a:
                    a0:6f:74:ab:a1:aa:4e:f6:67:3f:de:f3:c4:d3:d7:
                    23:3f:93:d1:fa:61:22:9b:c2:d4:f5:ee:8e:91:16:
                    0e:65:8a:97:ef:06:3f:b6:84:54:1b:ee:2d:f6:0d:
                    a3:83:53:67:6b:52:8c:5d:ab:7b:c6:47:f7:9d:01:
                    87:e4:9b:9d:95:5b:4a:45:c3:63:ef:d2:c6:e0:c3:
                    80:81:0b:bb:e5:78:ac:2b:92:ee:6a:09:bc:20:78:
                    71:41:f6:bf:d1:5f:5d:b8:6a:ca:e8:5a:f7:b4:4b:
                    dc:2f
                Exponent: 65537 (0x10001)
        X509v3 extensions:
            X509v3 Subject Alternative Name:
                DNS:gw.s-pushtan-li01.de
            X509v3 Basic Constraints:
                CA:FALSE
            X509v3 Key Usage: critical
                Digital Signature, Key Encipherment
            X509v3 CRL Distribution Points:

                Full Name:
                  URI:http://sr.symcb.com/sr.crl

            X509v3 Certificate Policies:
                Policy: 2.16.840.1.113733.1.7.23.6
                  CPS: https://d.symcb.com/cps
                  User Notice:
                    Explicit Text: https://d.symcb.com/rpa

            X509v3 Extended Key Usage:
                TLS Web Server Authentication, TLS Web Client Authentication
            X509v3 Authority Key Identifier:
                keyid:01:59:AB:E7:DD:3A:0B:59:A6:64:63:D6:CF:20:07:57:D5:91:E7:6A

            Authority Information Access:
                OCSP - URI:http://sr.symcd.com
                CA Issuers - URI:http://sr.symcb.com/sr.crt

    Signature Algorithm: sha256WithRSAEncryption
         d8:09:d4:3b:0f:62:3e:03:09:cc:2a:bc:8f:f0:4a:0b:87:ad:
         05:65:01:eb:5f:1a:81:50:e5:12:94:a9:ee:2c:3b:4f:f2:e8:
         93:65:96:62:30:01:74:fb:ea:8e:94:c1:13:79:41:44:a2:a8:
         31:81:80:8d:b4:87:ca:1b:e8:34:cc:fc:af:1c:1a:ff:4d:78:
         99:53:f8:f7:10:9b:b2:45:bf:2f:56:11:19:08:be:1b:b0:f7:
         76:27:7b:f0:99:b7:4f:3f:e8:e7:71:3b:ac:7c:8f:07:52:47:
         8b:be:95:f0:9c:2b:f8:94:10:85:a2:fe:26:35:c7:3a:04:9a:
         0d:b2:ff:1c:d3:d0:49:ef:54:52:7d:4f:c3:27:71:85:4c:b8:
         68:c7:ff:bb:39:e3:88:6c:5e:43:8d:51:a7:7f:5c:97:fa:16:
         1f:57:cc:d3:c2:c8:16:52:e6:9d:c8:f4:c0:a4:f5:c9:85:28:
         da:d9:60:ad:3d:38:cf:bd:34:60:05:a1:62:c1:d4:83:93:6b:
         ef:b3:e5:33:a4:83:8f:fc:57:10:ed:08:00:40:bb:d2:89:26:
         c8:b7:3e:fc:32:3e:73:6d:60:a1:1d:bf:1b:7e:c9:ac:0a:fc:
         64:99:9d:a5:a2:2e:06:48:63:5b:be:37:a2:43:fa:28:07:f8:
         a4:26:4d:9e

-----BEGIN CERTIFICATE-----
MIIFjDCCBHSgAwIBAgIQZD25Sq4mvEOSWATyuCXUOjANBgkqhkiG9w0BAQsFADB3
MQswCQYDVQQGEwJVUzEdMBsGA1UEChMUU3ltYW50ZWMgQ29ycG9yYXRpb24xHzAd
BgNVBAsTFlN5bWFudGVjIFRydXN0IE5ldHdvcmsxKDAmBgNVBAMTH1N5bWFudGVj
IENsYXNzIDMgRVYgU1NMIENBIC0gRzMwHhcNMTQxMjA1MDAwMDAwWhcNMTcwNDAx
MjM1OTU5WjCCARkxEzARBgsrBgEEAYI3PAIBAxMCREUxIjAgBgsrBgEEAYI3PAIB
ARQRRnJhbmtmdXJ0IGFtIE1haW4xHTAbBgNVBA8TFFByaXZhdGUgT3JnYW5pemF0
aW9uMRIwEAYDVQQFEwlIUkEgMzAwNTkxCzAJBgNVBAYTAkRFMQ8wDQYDVQQIFAZI
ZXNzZW4xGjAYBgNVBAcUEUZyYW5rZnVydCBhbSBNYWluMSgwJgYDVQQKFB9GaW5h
bnogSW5mb3JtYXRpayBHbWJIICYgQ28uIEtHMSgwJgYDVQQLFB9GaW5hbnogSW5m
b3JtYXRpayBHbWJIICYgQ28uIEtHMR0wGwYDVQQDFBRndy5zLXB1c2h0YW4tbGkw
MS5kZTCCASIwDQYJKoZIhvcNAQEBBQADggEPADCCAQoCggEBALHLXFEiICURUk5g
WhwnEdEhi1s03A/eSdt/VTlI3fEQ/kuf8xDheQu3QmUPa4R6+7f3uLkvsR46pZ+f
Q/HHshJs5tx3km8v3rTb8T7IYWu57LQQnfj085/TKRtyHQykesZ5gp57fF1mIoiO
nwp3/OlF3iT84k6OhU0NbjTMw4MgmeM+xPIfnyNCAFzbc8IxWXzvnvBqoG90q6Gq
TvZnP97zxNPXIz+T0fphIpvC1PXujpEWDmWKl+8GP7aEVBvuLfYNo4NTZ2tSjF2r
e8ZH950Bh+SbnZVbSkXDY+/SxuDDgIELu+V4rCuS7moJvCB4cUH2v9FfXbhqyuha
97RL3C8CAwEAAaOCAW4wggFqMB8GA1UdEQQYMBaCFGd3LnMtcHVzaHRhbi1saTAx
LmRlMAkGA1UdEwQCMAAwDgYDVR0PAQH/BAQDAgWgMCsGA1UdHwQkMCIwIKAeoByG
Gmh0dHA6Ly9zci5zeW1jYi5jb20vc3IuY3JsMGYGA1UdIARfMF0wWwYLYIZIAYb4
RQEHFwYwTDAjBggrBgEFBQcCARYXaHR0cHM6Ly9kLnN5bWNiLmNvbS9jcHMwJQYI
KwYBBQUHAgIwGQwXaHR0cHM6Ly9kLnN5bWNiLmNvbS9ycGEwHQYDVR0lBBYwFAYI
KwYBBQUHAwEGCCsGAQUFBwMCMB8GA1UdIwQYMBaAFAFZq+fdOgtZpmRj1s8gB1fV
kedqMFcGCCsGAQUFBwEBBEswSTAfBggrBgEFBQcwAYYTaHR0cDovL3NyLnN5bWNk
LmNvbTAmBggrBgEFBQcwAoYaaHR0cDovL3NyLnN5bWNiLmNvbS9zci5jcnQwDQYJ
KoZIhvcNAQELBQADggEBANgJ1DsPYj4DCcwqvI/wSguHrQVlAetfGoFQ5RKUqe4s
O0/y6JNllmIwAXT76o6UwRN5QUSiqDGBgI20h8ob6DTM/K8cGv9NeJlT+PcQm7JF
vy9WERkIvhuw93Yne/CZt08/6OdxO6x8jwdSR4u+lfCcK/iUEIWi/iY1xzoEmg2y
/xzT0EnvVFJ9T8MncYVMuGjH/7s544hsXkONUad/XJf6Fh9XzNPCyBZS5p3I9MCk
9cmFKNrZYK09OM+9NGAFoWLB1IOTa++z5TOkg4/8VxDtCABAu9KJJsi3PvwyPnNt
YKEdvxt+yawK/GSZnaWiLgZIY1u+N6JD+igH+KQmTZ4=
-----END CERTIFICATE-----
