Certificate:
    Data:
        Version: 3 (0x2)
        Serial Number:
            04:87:54:5e:fd:e5:e5:57:58:b3:ac:7d:59:4d:54:2b
        Signature Algorithm: sha256WithRSAEncryption
        Issuer: C = NL, ST = Noord-Holland, L = Amsterdam, O = TERENA, CN = TERENA SSL High Assurance CA 3
        Validity
            Not Before: Jan 29 00:00:00 2019 GMT
            Not After : May  2 12:00:00 2021 GMT
        Subject: businessCategory = Government Entity, jurisdictionC = AT, serialNumber = Government Entity, C = AT, ST = Ober\C3\B6sterreich, L = Linz, O = Land Ober\C3\B6sterreich, OU = Abteilung Informationstechnologie, CN = sslvpn.ooe.gv.at
        Subject Public Key Info:
            Public Key Algorithm: rsaEncryption
                RSA Public-Key: (2048 bit)
                Modulus:
                    00:97:26:8c:a5:e8:b0:c4:38:f2:5d:3d:f3:e2:78:
                    4f:93:e6:e8:9c:01:3c:ba:a3:c7:d9:d7:a3:24:a2:
                    51:0e:1d:4e:e8:f3:33:71:f6:94:f3:30:ff:d9:d6:
                    64:c0:68:a5:1e:33:60:f4:82:ef:25:fd:88:ed:67:
                    43:bf:30:05:49:c3:2a:5f:12:f1:e0:d4:6d:1b:00:
                    dd:5a:ac:56:db:70:4c:eb:3d:33:31:3f:12:27:65:
                    d0:2d:52:d0:8f:fb:55:16:25:98:c2:df:08:27:11:
                    a0:a4:13:91:be:61:64:17:59:08:97:e2:44:9c:24:
                    27:ac:d0:f5:6f:95:d0:06:7e:2c:45:6b:ea:b3:1e:
                    4e:27:12:a4:f5:02:c9:8c:a8:3a:43:04:9e:ea:12:
                    cd:ef:9a:5a:7e:cb:88:da:1a:a8:24:f1:72:96:2f:
                    83:91:0e:fc:6c:64:a6:e7:1f:24:c9:af:90:84:61:
                    d6:1a:e2:38:20:3d:fc:fa:f2:16:23:6f:db:61:89:
                    4c:44:ab:e1:d1:15:a4:02:ea:54:de:ef:6e:71:01:
                    c0:23:b0:71:ab:03:3e:83:08:eb:cf:8e:0a:c1:7b:
                    d9:ca:0d:ca:37:3d:2f:f6:f1:19:b0:c0:2e:40:c5:
                    8a:74:e2:2d:4f:70:5e:52:48:a0:33:cd:2f:16:09:
                    01:d1
                Exponent: 65537 (0x10001)
        X509v3 extensions:
            X509v3 Authority Key Identifier: 
                keyid:C2:B8:85:D7:E1:B9:13:BD:D1:48:BC:FD:5E:DC:7D:90:42:7A:8A:A9

            X509v3 Subject Key Identifier: 
                D2:0C:21:64:BE:65:4D:51:E7:26:95:7A:2B:0C:08:EF:E5:59:88:CA
            X509v3 Subject Alternative Name: 
                DNS:sslvpn.ooe.gv.at, DNS:vplirz04.ooe.gv.at
            X509v3 Key Usage: critical
                Digital Signature, Key Encipherment
            X509v3 Extended Key Usage: 
                TLS Web Server Authentication, TLS Web Client Authentication
            X509v3 CRL Distribution Points: 

                Full Name:
                  URI:http://crl3.digicert.com/TERENASSLHighAssuranceCA3.crl

                Full Name:
                  URI:http://crl4.digicert.com/TERENASSLHighAssuranceCA3.crl

            X509v3 Certificate Policies: 
                Policy: 2.16.840.1.114412.2.1
                  CPS: https://www.digicert.com/CPS
                Policy: 2.23.140.1.1

            Authority Information Access: 
                OCSP - URI:http://ocsp.digicert.com
                CA Issuers - URI:http://cacerts.digicert.com/TERENASSLHighAssuranceCA3.crt

            X509v3 Basic Constraints: critical
                CA:FALSE
            CT Precertificate Poison: critical
                NULL
    Signature Algorithm: sha256WithRSAEncryption
         04:c7:ea:79:5e:72:15:d1:5f:b7:b0:5e:0c:44:fe:e9:03:a1:
         ed:6c:0f:b4:eb:cd:82:ca:db:3c:89:4c:65:30:de:ff:6f:3d:
         f2:a1:74:90:f1:23:d9:e7:95:ad:e1:79:31:fd:e7:63:da:0a:
         56:9f:d8:77:c8:bc:50:6a:63:57:d3:3b:33:c2:85:79:15:65:
         4e:7b:07:e7:5e:f7:fb:b4:34:b4:f0:e7:f5:a6:03:55:bf:f4:
         27:4d:95:56:cb:9b:f6:f6:e4:fb:57:93:ce:4b:b8:c1:d0:c2:
         61:85:c2:58:5d:de:d7:6e:84:0f:de:86:54:10:20:0a:d2:c1:
         8d:c8:cd:20:5e:ca:ab:74:2c:53:ba:1b:cf:78:ee:49:81:c9:
         cc:32:ea:62:b6:17:a0:1d:e3:f1:f7:5a:a6:18:4d:cd:77:fb:
         b8:d6:42:b8:51:1f:68:12:3a:fb:a5:92:dd:48:e6:0a:4a:8a:
         ce:ea:12:ca:39:f1:55:45:cc:f4:d9:ae:3e:de:4a:f7:1e:89:
         84:34:18:01:e5:89:77:26:2d:24:0b:5d:8e:64:24:db:e8:b1:
         42:5d:cf:a1:a3:31:83:7a:29:1a:d5:ce:ed:5c:ac:b9:b0:7d:
         0b:64:4b:70:92:14:32:5e:a7:f1:a7:82:1d:51:87:b8:b9:e6:
         ef:b6:d7:0e
-----BEGIN CERTIFICATE-----
MIIGAjCCBOqgAwIBAgIQBIdUXv3l5VdYs6x9WU1UKzANBgkqhkiG9w0BAQsFADBz
MQswCQYDVQQGEwJOTDEWMBQGA1UECBMNTm9vcmQtSG9sbGFuZDESMBAGA1UEBxMJ
QW1zdGVyZGFtMQ8wDQYDVQQKEwZURVJFTkExJzAlBgNVBAMTHlRFUkVOQSBTU0wg
SGlnaCBBc3N1cmFuY2UgQ0EgMzAeFw0xOTAxMjkwMDAwMDBaFw0yMTA1MDIxMjAw
MDBaMIHpMRowGAYDVQQPDBFHb3Zlcm5tZW50IEVudGl0eTETMBEGCysGAQQBgjc8
AgEDEwJBVDEaMBgGA1UEBRMRR292ZXJubWVudCBFbnRpdHkxCzAJBgNVBAYTAkFU
MRgwFgYDVQQIDA9PYmVyw7ZzdGVycmVpY2gxDTALBgNVBAcTBExpbnoxHTAbBgNV
BAoMFExhbmQgT2JlcsO2c3RlcnJlaWNoMSowKAYDVQQLEyFBYnRlaWx1bmcgSW5m
b3JtYXRpb25zdGVjaG5vbG9naWUxGTAXBgNVBAMTEHNzbHZwbi5vb2UuZ3YuYXQw
ggEiMA0GCSqGSIb3DQEBAQUAA4IBDwAwggEKAoIBAQCXJoyl6LDEOPJdPfPieE+T
5uicATy6o8fZ16MkolEOHU7o8zNx9pTzMP/Z1mTAaKUeM2D0gu8l/YjtZ0O/MAVJ
wypfEvHg1G0bAN1arFbbcEzrPTMxPxInZdAtUtCP+1UWJZjC3wgnEaCkE5G+YWQX
WQiX4kScJCes0PVvldAGfixFa+qzHk4nEqT1AsmMqDpDBJ7qEs3vmlp+y4jaGqgk
8XKWL4ORDvxsZKbnHyTJr5CEYdYa4jggPfz68hYjb9thiUxEq+HRFaQC6lTe725x
AcAjsHGrAz6DCOvPjgrBe9nKDco3PS/28RmwwC5AxYp04i1PcF5SSKAzzS8WCQHR
AgMBAAGjggIZMIICFTAfBgNVHSMEGDAWgBTCuIXX4bkTvdFIvP1e3H2QQnqKqTAd
BgNVHQ4EFgQU0gwhZL5lTVHnJpV6KwwI7+VZiMowLwYDVR0RBCgwJoIQc3NsdnBu
Lm9vZS5ndi5hdIISdnBsaXJ6MDQub29lLmd2LmF0MA4GA1UdDwEB/wQEAwIFoDAd
BgNVHSUEFjAUBggrBgEFBQcDAQYIKwYBBQUHAwIwgYUGA1UdHwR+MHwwPKA6oDiG
Nmh0dHA6Ly9jcmwzLmRpZ2ljZXJ0LmNvbS9URVJFTkFTU0xIaWdoQXNzdXJhbmNl
Q0EzLmNybDA8oDqgOIY2aHR0cDovL2NybDQuZGlnaWNlcnQuY29tL1RFUkVOQVNT
TEhpZ2hBc3N1cmFuY2VDQTMuY3JsMEsGA1UdIAREMEIwNwYJYIZIAYb9bAIBMCow
KAYIKwYBBQUHAgEWHGh0dHBzOi8vd3d3LmRpZ2ljZXJ0LmNvbS9DUFMwBwYFZ4EM
AQEwewYIKwYBBQUHAQEEbzBtMCQGCCsGAQUFBzABhhhodHRwOi8vb2NzcC5kaWdp
Y2VydC5jb20wRQYIKwYBBQUHMAKGOWh0dHA6Ly9jYWNlcnRzLmRpZ2ljZXJ0LmNv
bS9URVJFTkFTU0xIaWdoQXNzdXJhbmNlQ0EzLmNydDAMBgNVHRMBAf8EAjAAMBMG
CisGAQQB1nkCBAMBAf8EAgUAMA0GCSqGSIb3DQEBCwUAA4IBAQAEx+p5XnIV0V+3
sF4MRP7pA6HtbA+0682Cyts8iUxlMN7/bz3yoXSQ8SPZ55Wt4Xkx/edj2gpWn9h3
yLxQamNX0zszwoV5FWVOewfnXvf7tDS08Of1pgNVv/QnTZVWy5v29uT7V5POS7jB
0MJhhcJYXd7XboQP3oZUECAK0sGNyM0gXsqrdCxTuhvPeO5JgcnMMupithegHePx
91qmGE3Nd/u41kK4UR9oEjr7pZLdSOYKSorO6hLKOfFVRcz02a4+3kr3HomENBgB
5Yl3Ji0kC12OZCTb6LFCXc+hozGDeika1c7tXKy5sH0LZEtwkhQyXqfxp4IdUYe4
uebvttcO
-----END CERTIFICATE-----
