Certificate:
    Data:
        Version: 3 (0x2)
        Serial Number: 4795 (0x12bb)
        Signature Algorithm: sha256WithRSAEncryption
        Issuer: C=DE, ST=Bayern, L=N\xC3\x83\xC2\xBCrnberg, O=Siemens AG, OU=Trustcenter, CN=OliverCA/emailAddress=oliver.stiller@siemens.com
        Validity
            Not Before: Nov 27 12:09:27 2020 GMT
            Not After : Nov 27 12:09:27 2021 GMT
        Subject: O=testconstraints2, CN=testconstraints2
        Subject Public Key Info:
            Public Key Algorithm: rsaEncryption
                RSA Public-Key: (2048 bit)
                Modulus:
                    00:b9:de:e4:11:f3:40:21:f2:f3:7d:e8:57:05:1e:
                    42:33:4f:86:1b:da:a2:7f:f6:48:59:1f:75:c8:50:
                    f3:ff:1a:e6:ec:d6:be:81:b0:e1:35:8d:7b:aa:d4:
                    cb:b3:95:2c:02:ec:13:86:95:13:ac:4c:68:fc:ff:
                    83:79:d6:99:81:95:e1:15:e9:c3:be:aa:ea:09:19:
                    f4:fc:7e:55:8b:cf:64:bb:a8:df:99:14:1c:b0:37:
                    f2:37:81:9c:c5:bb:ca:75:e5:53:0f:dc:38:3e:c2:
                    ab:cf:26:50:b9:56:44:89:c4:96:f4:51:49:1b:27:
                    c3:1a:39:65:2e:05:96:a3:b6:b0:88:ca:27:3b:be:
                    09:4b:bd:64:53:6d:2d:2e:4b:b4:5c:cd:51:71:97:
                    84:e5:1a:9e:82:e4:79:95:6e:af:09:ce:4a:b4:88:
                    a9:07:b2:4c:a5:1a:b7:a6:00:aa:43:ae:65:68:93:
                    f5:74:d2:68:c1:f6:e5:a2:9c:10:f4:4b:1a:df:f0:
                    24:8f:84:ef:9f:bf:44:77:85:d7:ee:2c:1f:d2:e3:
                    6f:31:a2:55:95:c5:01:41:2c:91:73:81:16:33:1e:
                    65:d9:df:e2:06:74:a7:bc:ac:95:51:2b:97:af:9a:
                    1a:b3:bc:6d:c2:d3:70:42:e4:85:60:57:86:a5:d7:
                    95:ed
                Exponent: 65537 (0x10001)
        X509v3 extensions:
            X509v3 Extended Key Usage: 
                Any Extended Key Usage, TLS Web Server Authentication
            X509v3 Key Usage: 
                Digital Signature, Key Encipherment
            X509v3 Name Constraints: 
                Permitted:
                  URI:example.com
                Excluded:
                  URI:example

    Signature Algorithm: sha256WithRSAEncryption
         5f:dc:d7:ca:65:ff:95:9e:0c:87:ad:3f:ad:99:95:1d:87:62:
         52:cd:0e:8c:aa:4b:92:78:06:e8:5b:d9:87:49:e9:95:87:a0:
         cb:89:a1:da:45:e1:89:d1:6f:aa:61:b2:51:e9:11:00:d3:65:
         12:cc:2d:6e:e9:ca:cc:22:26:87:bc:1c:a7:57:8c:50:78:96:
         fb:8e:a4:90:a7:b2:31:3a:c4:77:97:d8:bd:71:54:f2:cd:23:
         d5:67:df:16:68:aa:92:6e:cc:89:87:d4:55:8f:1f:e8:84:f3:
         a7:55:f4:60:a5:0a:e8:f9:13:e6:95:c0:17:09:4b:86:ab:37:
         5a:de:28:5f:fd:58:b9:b0:6c:42:7b:1f:eb:c1:f9:56:4a:d9:
         b4:f3:31:85:3a:37:9b:1f:6e:d5:ee:49:0b:4b:38:b2:24:5c:
         d3:e2:80:af:7a:bd:45:0c:10:59:95:17:cd:7e:be:2f:1f:ef:
         65:3b:2e:20:ff:c0:81:bb:fb:59:23:91:76:9a:96:16:05:8d:
         11:28:19:92:91:f9:d8:ff:b6:8a:9f:96:2c:d7:fa:99:b5:06:
         e4:9f:ee:8e:2f:2a:4a:25:40:50:d2:b5:39:0c:a7:5f:0c:81:
         ed:0c:c5:85:02:80:0f:08:8e:c9:3c:3f:25:25:85:a5:ef:1e:
         21:37:fb:9a:13:a0:76:74:97:5a:a9:f2:06:ec:06:1d:a5:6c:
         53:0d:d4:58:0c:42:81:cd:e0:5f:7a:7f:54:39:dc:7d:02:3e:
         25:22:2c:f1:5e:f1:13:a2:3a:44:ca:d8:c0:34:a7:8d:7e:73:
         57:f4:b8:36:cd:5d:31:44:38:7b:58:49:e8:54:6f:0e:c9:84:
         f5:7c:ab:9c:77:9b:4c:1a:18:f6:e7:66:b0:64:ec:9d:30:4d:
         79:5c:3d:2a:4c:71:eb:6c:07:a1:08:fc:d1:0e:4a:2a:19:ce:
         f1:59:72:53:9c:74:11:20:dd:40:1e:da:c9:2d:bb:8e:80:7d:
         55:af:81:25:8c:98:c7:ef:9c:fe:7f:6c:8e:c7:74:01:28:d1:
         75:fb:2a:01:9a:00:7a:0e:7c:05:10:8a:d6:88:5f:28:00:0e:
         18:4b:64:5a:56:e2:44:bd:00:f7:a2:3c:28:d9:b8:0b:dd:06:
         5e:72:36:7f:60:4d:c9:eb:59:74:2b:d9:29:d8:b5:37:5e:e8:
         9c:26:c1:97:81:98:c7:ca:5b:a1:32:e2:90:6f:5f:3e:dc:59:
         4f:b8:60:2c:e6:f6:a1:7e:38:f5:99:c8:77:73:35:a2:8d:16:
         4b:cd:0d:a5:83:c9:e1:77:80:bb:d7:c1:cd:a1:42:6f:f6:b2:
         cf:ac:1e:91:fc:f2:a8:74
-----BEGIN CERTIFICATE-----
MIIEozCCAougAwIBAgICErswDQYJKoZIhvcNAQELBQAwgZ0xCzAJBgNVBAYTAkRF
MQ8wDQYDVQQIDAZCYXllcm4xFDASBgNVBAcMC07Dg8K8cm5iZXJnMRMwEQYDVQQK
DApTaWVtZW5zIEFHMRQwEgYDVQQLDAtUcnVzdGNlbnRlcjERMA8GA1UEAwwIT2xp
dmVyQ0ExKTAnBgkqhkiG9w0BCQEWGm9saXZlci5zdGlsbGVyQHNpZW1lbnMuY29t
MB4XDTIwMTEyNzEyMDkyN1oXDTIxMTEyNzEyMDkyN1owNjEZMBcGA1UECgwQdGVz
dGNvbnN0cmFpbnRzMjEZMBcGA1UEAwwQdGVzdGNvbnN0cmFpbnRzMjCCASIwDQYJ
KoZIhvcNAQEBBQADggEPADCCAQoCggEBALne5BHzQCHy833oVwUeQjNPhhvaon/2
SFkfdchQ8/8a5uzWvoGw4TWNe6rUy7OVLALsE4aVE6xMaPz/g3nWmYGV4RXpw76q
6gkZ9Px+VYvPZLuo35kUHLA38jeBnMW7ynXlUw/cOD7Cq88mULlWRInElvRRSRsn
wxo5ZS4FlqO2sIjKJzu+CUu9ZFNtLS5LtFzNUXGXhOUanoLkeZVurwnOSrSIqQey
TKUat6YAqkOuZWiT9XTSaMH25aKcEPRLGt/wJI+E75+/RHeF1+4sH9LjbzGiVZXF
AUEskXOBFjMeZdnf4gZ0p7yslVErl6+aGrO8bcLTcELkhWBXhqXXle0CAwEAAaNT
MFEwGQYDVR0lBBIwEAYEVR0lAAYIKwYBBQUHAwEwCwYDVR0PBAQDAgWgMCcGA1Ud
HgQgMB6gDzANhgtleGFtcGxlLmNvbaELMAmGB2V4YW1wbGUwDQYJKoZIhvcNAQEL
BQADggIBAF/c18pl/5WeDIetP62ZlR2HYlLNDoyqS5J4Buhb2YdJ6ZWHoMuJodpF
4YnRb6phslHpEQDTZRLMLW7pyswiJoe8HKdXjFB4lvuOpJCnsjE6xHeX2L1xVPLN
I9Vn3xZoqpJuzImH1FWPH+iE86dV9GClCuj5E+aVwBcJS4arN1reKF/9WLmwbEJ7
H+vB+VZK2bTzMYU6N5sfbtXuSQtLOLIkXNPigK96vUUMEFmVF81+vi8f72U7LiD/
wIG7+1kjkXaalhYFjREoGZKR+dj/toqflizX+pm1BuSf7o4vKkolQFDStTkMp18M
ge0MxYUCgA8Ijsk8PyUlhaXvHiE3+5oToHZ0l1qp8gbsBh2lbFMN1FgMQoHN4F96
f1Q53H0CPiUiLPFe8ROiOkTK2MA0p41+c1f0uDbNXTFEOHtYSehUbw7JhPV8q5x3
m0waGPbnZrBk7J0wTXlcPSpMcetsB6EI/NEOSioZzvFZclOcdBEg3UAe2sktu46A
fVWvgSWMmMfvnP5/bI7HdAEo0XX7KgGaAHoOfAUQitaIXygADhhLZFpW4kS9APei
PCjZuAvdBl5yNn9gTcnrWXQr2SnYtTde6JwmwZeBmMfKW6Ey4pBvXz7cWU+4YCzm
9qF+OPWZyHdzNaKNFkvNDaWDyeF3gLvXwc2hQm/2ss+sHpH88qh0
-----END CERTIFICATE-----
