Certificate:
    Data:
        Version: 3 (0x2)
        Serial Number: 4799 (0x12bf)
        Signature Algorithm: sha256WithRSAEncryption
        Issuer: C=DE, ST=Bayern, L=N\xC3\x83\xC2\xBCrnberg, O=Siemens AG, OU=Trustcenter, CN=OliverCA/emailAddress=oliver.stiller@siemens.com
        Validity
            Not Before: Nov 27 16:11:48 2020 GMT
            Not After : Nov 27 16:11:48 2021 GMT
        Subject: O=testconstraints02, CN=testconstraints02
        Subject Public Key Info:
            Public Key Algorithm: rsaEncryption
                RSA Public-Key: (2048 bit)
                Modulus:
                    00:bd:c4:8d:67:54:98:6f:2b:5d:e6:e3:ef:e3:f0:
                    93:19:d3:34:d7:9e:7f:7a:d9:b1:3d:e1:46:9f:4d:
                    79:41:8d:ee:cb:2d:75:0e:47:c8:d6:2d:57:26:c4:
                    a8:5f:15:7e:e6:f4:2d:d0:12:c9:b6:2a:63:c1:7b:
                    bf:15:4a:a7:e4:6c:2d:b0:fc:ee:38:44:f3:df:c8:
                    e1:14:08:5e:a0:1d:58:37:7c:27:c6:78:35:1b:ba:
                    29:c4:d9:33:8e:b2:51:da:ed:bc:a6:40:5a:b7:29:
                    31:d9:ec:83:66:ba:0c:0c:3f:b8:8a:e5:cc:34:67:
                    29:0a:64:dd:fb:77:d4:3b:cf:fc:b3:b6:c5:2d:9e:
                    08:57:b6:af:07:2e:e2:3a:83:fb:cd:aa:cd:c4:9e:
                    f2:7a:86:cd:4e:0f:e7:91:aa:67:9c:25:d0:93:2b:
                    b0:47:3a:b4:b3:1c:b9:07:d1:dc:ed:a4:ff:09:d9:
                    0b:fb:0c:d3:27:aa:66:fe:99:02:59:13:67:26:f9:
                    39:54:80:62:be:d9:39:c2:08:d8:c7:fe:b8:45:20:
                    81:bd:65:e9:7f:70:57:da:74:8c:8d:4a:74:9a:e9:
                    b1:53:a3:14:07:7c:7e:13:a3:3b:cf:3c:3d:5e:d4:
                    99:01:b5:94:7f:50:d7:93:ab:5e:b7:ed:87:6e:4b:
                    cb:4b
                Exponent: 65537 (0x10001)
        X509v3 extensions:
            X509v3 Extended Key Usage: 
                Any Extended Key Usage, TLS Web Server Authentication
            X509v3 Key Usage: 
                Digital Signature, Key Encipherment
            X509v3 Name Constraints: 
                Permitted:
                  URI:http://www.example.com/foo/bar.html
                Excluded:
                  URI:www.example.com

    Signature Algorithm: sha256WithRSAEncryption
         4f:c9:95:b5:d9:06:9e:1b:c9:02:6c:ad:51:57:77:87:98:a3:
         33:20:8c:39:a4:2c:ce:ce:ac:93:14:07:5e:27:1a:7c:de:4a:
         c6:70:89:c1:6d:f8:ee:f9:0f:3a:bc:a1:11:f2:09:11:52:5d:
         88:d2:42:b1:e9:de:62:04:92:bf:17:07:b6:f9:e3:08:63:60:
         79:63:de:76:d4:e3:3f:a6:a3:1b:19:44:66:6b:7b:56:dd:4e:
         1f:26:bb:17:c2:12:ae:40:ef:56:e8:3c:bb:d0:96:f8:1f:97:
         df:44:31:14:fd:7f:65:e7:dd:95:8c:cf:b0:47:dc:6b:4f:de:
         f9:07:b6:4b:a9:96:b8:03:e5:ac:5f:cb:d5:d1:3f:02:3f:11:
         0f:a8:65:e3:9d:2c:5f:aa:a4:44:51:07:85:0c:9e:5f:7b:5e:
         a7:6b:4b:e3:94:f1:30:57:e2:12:ea:af:da:94:4d:2b:b1:3f:
         29:e4:85:81:12:92:6f:94:06:21:d4:f6:a9:e6:5b:90:6e:60:
         4c:19:d6:d9:6f:54:28:8c:b9:48:15:8f:59:96:50:26:11:6b:
         43:5c:49:7d:f3:37:d4:83:0f:01:fa:f3:1f:c3:dd:bb:37:ee:
         e2:5c:e6:d0:b7:1b:8b:52:a8:9f:d5:b4:f7:45:06:87:3e:ca:
         0e:54:78:6e:d0:29:ac:2f:53:b8:6b:ca:c3:17:d9:4b:72:c2:
         c6:b3:b0:88:1a:70:69:a8:77:89:ff:db:54:bc:4f:62:49:01:
         90:fe:f3:25:d6:98:49:94:6c:77:ed:a3:ae:5b:62:06:2c:e5:
         4b:86:e1:43:84:2b:17:19:3c:dc:5a:2a:b6:d4:ce:54:9e:9c:
         08:94:b3:0b:cd:b5:36:12:23:38:0a:86:9c:80:2a:cd:b3:27:
         9a:8f:29:ef:10:b0:be:37:c3:18:0b:a8:c1:e9:91:81:10:7e:
         12:d5:ce:76:92:f9:ef:47:32:62:9b:da:6a:9e:d1:4c:d6:4a:
         4b:e6:0f:94:e7:85:8c:fb:b7:59:8d:7b:9b:a3:64:86:fe:b5:
         24:ac:86:20:9b:83:d4:fe:ec:ab:25:66:a4:cf:6d:76:4c:28:
         b3:a8:30:46:7e:76:6c:a6:a9:51:b3:5b:c5:d2:35:84:f0:39:
         30:a0:30:eb:11:62:39:c9:4c:47:01:d0:43:d7:ef:d2:c5:c3:
         d9:dd:56:c4:10:69:30:c1:b8:ff:7a:5b:07:f4:c0:30:7e:0c:
         48:ac:ec:53:7a:2f:85:f8:85:09:58:78:27:42:b8:8b:81:6a:
         d3:d4:47:0c:04:92:88:4c:bc:71:ef:4a:f0:65:19:86:97:86:
         f7:3d:da:ec:4e:ff:5d:7f
-----BEGIN CERTIFICATE-----
MIIExTCCAq2gAwIBAgICEr8wDQYJKoZIhvcNAQELBQAwgZ0xCzAJBgNVBAYTAkRF
MQ8wDQYDVQQIDAZCYXllcm4xFDASBgNVBAcMC07Dg8K8cm5iZXJnMRMwEQYDVQQK
DApTaWVtZW5zIEFHMRQwEgYDVQQLDAtUcnVzdGNlbnRlcjERMA8GA1UEAwwIT2xp
dmVyQ0ExKTAnBgkqhkiG9w0BCQEWGm9saXZlci5zdGlsbGVyQHNpZW1lbnMuY29t
MB4XDTIwMTEyNzE2MTE0OFoXDTIxMTEyNzE2MTE0OFowODEaMBgGA1UECgwRdGVz
dGNvbnN0cmFpbnRzMDIxGjAYBgNVBAMMEXRlc3Rjb25zdHJhaW50czAyMIIBIjAN
BgkqhkiG9w0BAQEFAAOCAQ8AMIIBCgKCAQEAvcSNZ1SYbytd5uPv4/CTGdM0155/
etmxPeFGn015QY3uyy11DkfI1i1XJsSoXxV+5vQt0BLJtipjwXu/FUqn5GwtsPzu
OETz38jhFAheoB1YN3wnxng1G7opxNkzjrJR2u28pkBatykx2eyDZroMDD+4iuXM
NGcpCmTd+3fUO8/8s7bFLZ4IV7avBy7iOoP7zarNxJ7yeobNTg/nkapnnCXQkyuw
Rzq0sxy5B9Hc7aT/CdkL+wzTJ6pm/pkCWRNnJvk5VIBivtk5wgjYx/64RSCBvWXp
f3BX2nSMjUp0mumxU6MUB3x+E6M7zzw9XtSZAbWUf1DXk6tet+2HbkvLSwIDAQAB
o3MwcTAZBgNVHSUEEjAQBgRVHSUABggrBgEFBQcDATALBgNVHQ8EBAMCBaAwRwYD
VR0eBEAwPqAnMCWGI2h0dHA6Ly93d3cuZXhhbXBsZS5jb20vZm9vL2Jhci5odG1s
oRMwEYYPd3d3LmV4YW1wbGUuY29tMA0GCSqGSIb3DQEBCwUAA4ICAQBPyZW12Qae
G8kCbK1RV3eHmKMzIIw5pCzOzqyTFAdeJxp83krGcInBbfju+Q86vKER8gkRUl2I
0kKx6d5iBJK/Fwe2+eMIY2B5Y9521OM/pqMbGURma3tW3U4fJrsXwhKuQO9W6Dy7
0Jb4H5ffRDEU/X9l592VjM+wR9xrT975B7ZLqZa4A+WsX8vV0T8CPxEPqGXjnSxf
qqREUQeFDJ5fe16na0vjlPEwV+IS6q/alE0rsT8p5IWBEpJvlAYh1Pap5luQbmBM
GdbZb1QojLlIFY9ZllAmEWtDXEl98zfUgw8B+vMfw927N+7iXObQtxuLUqif1bT3
RQaHPsoOVHhu0CmsL1O4a8rDF9lLcsLGs7CIGnBpqHeJ/9tUvE9iSQGQ/vMl1phJ
lGx37aOuW2IGLOVLhuFDhCsXGTzcWiq21M5UnpwIlLMLzbU2EiM4CoacgCrNsyea
jynvELC+N8MYC6jB6ZGBEH4S1c52kvnvRzJim9pqntFM1kpL5g+U54WM+7dZjXub
o2SG/rUkrIYgm4PU/uyrJWakz212TCizqDBGfnZspqlRs1vF0jWE8DkwoDDrEWI5
yUxHAdBD1+/SxcPZ3VbEEGkwwbj/elsH9MAwfgxIrOxTei+F+IUJWHgnQriLgWrT
1EcMBJKITLxx70rwZRmGl4b3PdrsTv9dfw==
-----END CERTIFICATE-----
