Certificate:
    Data:
        Version: 3 (0x2)
        Serial Number:
            21:e8:e2:0b:88:8d:38:54:aa:b9:89:b6
        Signature Algorithm: sha256WithRSAEncryption
        Issuer: C = DE, O = Verein zur Foerderung eines Deutschen Forschungsnetzes e. V., OU = DFN-PKI, CN = DFN-Verein Global Issuing CA
        Validity
            Not Before: Nov 11 13:39:08 2019 GMT
            Not After : Feb 12 13:39:08 2022 GMT
        Subject: C = DE, ST = Sachsen, L = Leipzig, O = Universitaet Leipzig, CN = planer.vetmed.uni-leipzig.de, CN = vote.vetmed.uni-leipzig.de
        Subject Public Key Info:
            Public Key Algorithm: rsaEncryption
                RSA Public-Key: (2048 bit)
                Modulus:
                    00:c9:ec:79:a9:ca:7b:74:de:16:06:96:d2:e9:19:
                    51:32:15:7a:07:6c:e4:da:56:9d:27:8e:da:be:85:
                    8e:6a:64:ba:26:41:7c:26:2a:2c:b6:e1:6c:e9:44:
                    06:3a:a1:ce:cc:1a:2d:bf:90:52:a3:61:93:53:ce:
                    ff:d3:f1:05:40:4c:dc:04:2f:34:ac:a2:a9:28:b0:
                    fd:f5:90:2c:04:a4:c4:87:b4:1f:06:b2:44:da:ee:
                    a9:80:c7:ca:78:a2:cc:57:1b:04:dd:e0:fd:11:1d:
                    c1:25:67:45:de:4c:cd:a2:08:d5:45:53:ab:f0:16:
                    b9:77:06:5c:c9:3e:fb:b5:da:12:1e:61:45:e6:0b:
                    4d:92:86:b3:3d:97:0e:7c:42:08:68:6e:31:a6:c2:
                    87:5d:c6:78:3a:3a:e7:93:cb:39:f0:7a:74:b1:93:
                    5a:26:ce:09:f9:0e:12:82:c3:43:84:cf:e2:20:2b:
                    0f:45:b6:54:1f:6f:e0:34:5d:8c:6a:ad:ba:17:ca:
                    1b:35:c8:b5:fb:17:92:2d:80:fb:95:68:d6:28:e7:
                    14:d9:04:3e:da:e6:1e:32:e3:6c:b8:2b:1c:4b:82:
                    6d:8b:fa:16:57:c9:cd:ec:9e:2f:00:24:40:a5:4f:
                    48:0a:4c:de:5e:ae:32:4c:05:51:ef:a6:70:02:4c:
                    69:8d
                Exponent: 65537 (0x10001)
        X509v3 extensions:
            X509v3 Certificate Policies: 
                Policy: 2.23.140.1.2.2
                Policy: 1.3.6.1.4.1.22177.300.30
                Policy: 1.3.6.1.4.1.22177.300.1.1.4
                Policy: 1.3.6.1.4.1.22177.300.1.1.4.4
                Policy: 1.3.6.1.4.1.22177.300.2.1.4.4

            X509v3 Basic Constraints: 
                CA:FALSE
            X509v3 Key Usage: critical
                Digital Signature, Key Encipherment
            X509v3 Extended Key Usage: 
                TLS Web Server Authentication
            X509v3 Subject Key Identifier: 
                AA:A5:5B:C9:5A:63:4C:D3:19:2E:6D:E5:E6:DA:44:F3:11:B6:3D:A8
            X509v3 Authority Key Identifier: 
                keyid:6B:3A:98:8B:F9:F2:53:89:DA:E0:AD:B2:32:1E:09:1F:E8:AA:3B:74

            X509v3 Subject Alternative Name: 
                DNS:planer.vetmed.uni-leipzig.de, DNS:vote.vetmed.uni-leipzig.de
            X509v3 CRL Distribution Points: 

                Full Name:
                  URI:http://cdp1.pca.dfn.de/dfn-ca-global-g2/pub/crl/cacrl.crl

                Full Name:
                  URI:http://cdp2.pca.dfn.de/dfn-ca-global-g2/pub/crl/cacrl.crl

            Authority Information Access: 
                OCSP - URI:http://ocsp.pca.dfn.de/OCSP-Server/OCSP
                CA Issuers - URI:http://cdp1.pca.dfn.de/dfn-ca-global-g2/pub/cacert/cacert.crt
                CA Issuers - URI:http://cdp2.pca.dfn.de/dfn-ca-global-g2/pub/cacert/cacert.crt

            CT Precertificate Poison: critical
                NULL
    Signature Algorithm: sha256WithRSAEncryption
         2b:1c:b0:83:26:f6:2e:8b:8d:1a:8d:60:1b:9e:65:e0:89:6e:
         b2:8e:39:0d:11:ad:ec:68:0b:7d:6c:3c:44:0f:05:e7:99:54:
         6d:73:e4:bb:f5:11:b2:10:f1:3f:1e:98:e2:29:24:33:05:2b:
         2c:06:38:6b:43:89:3b:9c:7a:70:bb:39:d9:ce:1a:28:1d:8b:
         6f:ad:ea:d8:6a:97:a1:86:35:ba:8e:7d:9a:f1:25:18:bc:c2:
         70:9e:81:da:2f:87:9c:48:a2:68:f4:cc:c3:68:39:38:4f:d4:
         a8:6a:0d:8c:7b:f9:cf:c7:2f:e5:e7:0c:b1:ea:df:c1:f6:11:
         d2:0d:df:12:99:c5:32:ad:ca:e4:40:80:19:9e:1d:e2:ed:72:
         74:7f:01:51:c5:1d:bb:6b:96:d5:45:f0:71:f8:96:04:a9:b8:
         94:ff:f0:95:45:c3:2b:50:5f:4b:62:2d:38:1e:1e:ef:ad:41:
         6c:62:ad:ac:31:22:fa:63:45:a2:88:3c:99:35:55:03:c8:08:
         b2:24:23:c0:97:88:f6:aa:40:dd:cf:3e:94:e1:e0:ca:51:2f:
         ac:0d:ab:d5:de:44:0c:d7:e7:12:b5:a5:c4:d3:89:f5:14:f7:
         86:f5:dc:06:ae:b5:27:a6:93:e9:18:76:dd:e1:0b:1a:87:aa:
         1e:ac:ac:9b
-----BEGIN CERTIFICATE-----
MIIGSDCCBTCgAwIBAgIMIejiC4iNOFSquYm2MA0GCSqGSIb3DQEBCwUAMIGNMQsw
CQYDVQQGEwJERTFFMEMGA1UECgw8VmVyZWluIHp1ciBGb2VyZGVydW5nIGVpbmVz
IERldXRzY2hlbiBGb3JzY2h1bmdzbmV0emVzIGUuIFYuMRAwDgYDVQQLDAdERk4t
UEtJMSUwIwYDVQQDDBxERk4tVmVyZWluIEdsb2JhbCBJc3N1aW5nIENBMB4XDTE5
MTExMTEzMzkwOFoXDTIyMDIxMjEzMzkwOFowgZwxCzAJBgNVBAYTAkRFMRAwDgYD
VQQIDAdTYWNoc2VuMRAwDgYDVQQHDAdMZWlwemlnMR0wGwYDVQQKDBRVbml2ZXJz
aXRhZXQgTGVpcHppZzElMCMGA1UEAwwccGxhbmVyLnZldG1lZC51bmktbGVpcHpp
Zy5kZTEjMCEGA1UEAwwadm90ZS52ZXRtZWQudW5pLWxlaXB6aWcuZGUwggEiMA0G
CSqGSIb3DQEBAQUAA4IBDwAwggEKAoIBAQDJ7Hmpynt03hYGltLpGVEyFXoHbOTa
Vp0njtq+hY5qZLomQXwmKiy24WzpRAY6oc7MGi2/kFKjYZNTzv/T8QVATNwELzSs
oqkosP31kCwEpMSHtB8GskTa7qmAx8p4osxXGwTd4P0RHcElZ0XeTM2iCNVFU6vw
Frl3BlzJPvu12hIeYUXmC02ShrM9lw58QghobjGmwoddxng6OueTyznwenSxk1om
zgn5DhKCw0OEz+IgKw9FtlQfb+A0XYxqrboXyhs1yLX7F5ItgPuVaNYo5xTZBD7a
5h4y42y4KxxLgm2L+hZXyc3sni8AJEClT0gKTN5erjJMBVHvpnACTGmNAgMBAAGj
ggKVMIICkTBXBgNVHSAEUDBOMAgGBmeBDAECAjANBgsrBgEEAYGtIYIsHjAPBg0r
BgEEAYGtIYIsAQEEMBAGDisGAQQBga0hgiwBAQQEMBAGDisGAQQBga0hgiwCAQQE
MAkGA1UdEwQCMAAwDgYDVR0PAQH/BAQDAgWgMBMGA1UdJQQMMAoGCCsGAQUFBwMB
MB0GA1UdDgQWBBSqpVvJWmNM0xkubeXm2kTzEbY9qDAfBgNVHSMEGDAWgBRrOpiL
+fJTidrgrbIyHgkf6Ko7dDBDBgNVHREEPDA6ghxwbGFuZXIudmV0bWVkLnVuaS1s
ZWlwemlnLmRlghp2b3RlLnZldG1lZC51bmktbGVpcHppZy5kZTCBjQYDVR0fBIGF
MIGCMD+gPaA7hjlodHRwOi8vY2RwMS5wY2EuZGZuLmRlL2Rmbi1jYS1nbG9iYWwt
ZzIvcHViL2NybC9jYWNybC5jcmwwP6A9oDuGOWh0dHA6Ly9jZHAyLnBjYS5kZm4u
ZGUvZGZuLWNhLWdsb2JhbC1nMi9wdWIvY3JsL2NhY3JsLmNybDCB2wYIKwYBBQUH
AQEEgc4wgcswMwYIKwYBBQUHMAGGJ2h0dHA6Ly9vY3NwLnBjYS5kZm4uZGUvT0NT
UC1TZXJ2ZXIvT0NTUDBJBggrBgEFBQcwAoY9aHR0cDovL2NkcDEucGNhLmRmbi5k
ZS9kZm4tY2EtZ2xvYmFsLWcyL3B1Yi9jYWNlcnQvY2FjZXJ0LmNydDBJBggrBgEF
BQcwAoY9aHR0cDovL2NkcDIucGNhLmRmbi5kZS9kZm4tY2EtZ2xvYmFsLWcyL3B1
Yi9jYWNlcnQvY2FjZXJ0LmNydDATBgorBgEEAdZ5AgQDAQH/BAIFADANBgkqhkiG
9w0BAQsFAAOCAQEAKxywgyb2LouNGo1gG55l4Iluso45DRGt7GgLfWw8RA8F55lU
bXPku/URshDxPx6Y4ikkMwUrLAY4a0OJO5x6cLs52c4aKB2Lb63q2GqXoYY1uo59
mvElGLzCcJ6B2i+HnEiiaPTMw2g5OE/UqGoNjHv5z8cv5ecMserfwfYR0g3fEpnF
Mq3K5ECAGZ4d4u1ydH8BUcUdu2uW1UXwcfiWBKm4lP/wlUXDK1BfS2ItOB4e761B
bGKtrDEi+mNFoog8mTVVA8gIsiQjwJeI9qpA3c8+lOHgylEvrA2r1d5EDNfnErWl
xNOJ9RT3hvXcBq61J6aT6Rh23eELGoeqHqysmw==
-----END CERTIFICATE-----