Certificate:
    Data:
        Version: 3 (0x2)
        Serial Number: 18008675309 (0x4316693ed)
    Signature Algorithm: sha256WithRSAEncryption
        Issuer: C = US, O = Mother Nature, OU = Everything, CN = Mother Nature
        Validity
            Not Before: Jun 30 17:09:53 2016 GMT
            Not After : Sep 11 17:09:53 2016 GMT
        Subject: C = US, ST = FL, L = Tallahassee, street = 3210 Holly Mill Run, postalCode = 30062, O = Extreme Discord, OU = Chaos, CN = gov.us
        Subject Public Key Info:
            Public Key Algorithm: rsaEncryption
                Public-Key: (2048 bit)
                Modulus:
                    00:c4:c2:65:9f:da:66:46:28:de:cd:46:6c:5e:d1:
                    bb:68:56:55:5d:a3:46:fa:21:ab:12:dd:68:46:6f:
                    5e:bc:81:1b:b9:62:2d:9e:22:6e:c2:b6:2f:48:7e:
                    8f:90:82:01:80:c1:a9:8a:20:e6:89:3e:32:bc:66:
                    36:ea:88:26:37:33:38:22:46:49:90:15:76:0a:65:
                    b2:76:62:04:d7:03:0e:ac:01:4d:2f:83:3f:99:ef:
                    ab:3b:43:af:9f:4b:e4:9d:f3:42:c2:ec:7f:82:e2:
                    9d:93:78:9e:97:ef:da:31:25:18:41:72:69:eb:38:
                    3a:00:2f:de:c9:2d:0d:9e:a6:8b:ef:f1:df:ec:3e:
                    ed:83:fb:33:75:33:6e:40:ae:2b:a0:a6:6b:68:8b:
                    44:f5:52:ad:e8:49:11:e5:59:56:9f:b3:e0:ad:20:
                    79:77:e5:c5:d4:58:f0:fd:3b:67:52:a0:96:d9:ba:
                    1e:60:ae:28:c8:3c:2a:9c:39:21:82:3e:d3:1a:df:
                    13:85:f4:69:4c:6f:70:b0:0e:9c:52:9d:4f:c6:4a:
                    01:88:06:f3:9b:06:b2:77:54:dd:4f:8c:cc:17:22:
                    e7:c0:ab:00:70:29:69:98:7e:75:02:32:a9:89:60:
                    78:45:08:99:29:1e:ac:6b:d6:ec:4d:f4:af:3f:ee:
                    24:d9
                Exponent: 65537 (0x10001)
        X509v3 extensions:
            X509v3 Key Usage: critical
                Digital Signature, Key Encipherment
            X509v3 Extended Key Usage: 
                TLS Web Client Authentication, TLS Web Server Authentication
            X509v3 Basic Constraints: critical
                CA:FALSE
            X509v3 Authority Key Identifier: 
                keyid:01:02:03

            Authority Information Access: 
                OCSP - URI:http://theca.net/ocsp
                CA Issuers - URI:http://theca.net/totallythecert.crt

            X509v3 Certificate Policies: 
                Policy: 1.3.6.1.5.5.7.13.1
                Policy: 2.23.140.1.2.2
                Policy: 1.3.6.1.5.5.7.13.1

            X509v3 Subject Key Identifier: 
                04:03:02:01
            X509v3 Subject Alternative Name: 
                DNS:*.gov.us, DNS:gov.us
            X509v3 Issuer Alternative Name: 
                DNS:allthethings.net, DNS:theca.net
            X509v3 Subject Alternative Name: 
                DNS:*.gov.us, DNS:gov.us
    Signature Algorithm: sha256WithRSAEncryption
         8f:02:9b:bb:bb:2e:6d:b2:7a:b9:09:b4:b0:bc:e7:e3:9d:b7:
         e9:cf:1f:02:1b:1d:26:b0:5c:ca:4d:bc:0d:3d:26:fb:d5:ca:
         a4:3e:fc:c9:88:33:70:1b:b9:0d:11:f1:99:48:5c:f1:4c:6e:
         e9:f2:d3:0c:0e:d0:94:df:82:d6:ba:22:bc:67:f4:7e:f0:03:
         23:c1:f7:96:40:e1:0d:7a:6b:b0:ea:16:45:31:72:1d:94:d5:
         b1:b2:1a:b9:9a:0e:2a:94:79:0b:84:80:c4:ae:d7:68:37:83:
         29:0f:e1:c5:bf:bd:87:3d:27:09:5a:c8:f1:23:50:02:16:64:
         48:2d:73:28:4c:e6:d9:ae:b4:8c:91:46:97:60:a4:21:94:60:
         c2:fe:9b:68:07:fa:49:73:8f:f5:b1:7c:f0:f8:9b:24:6a:a3:
         9a:3f:a8:d1:30:53:b3:a7:ef:43:91:8d:30:43:cc:17:43:de:
         9f:f6:37:44:ae:38:c3:15:4c:f6:7e:1e:e2:e8:c8:67:83:00:
         67:79:9f:62:c4:92:de:ba:c2:c8:72:09:8c:85:01:32:70:63:
         99:20:ed:f3:22:76:5f:0c:da:3a:21:25:03:ec:5a:0f:1c:61:
         78:42:be:e9:5e:0f:ec:4e:f1:50:2a:ad:91:6a:35:28:8e:a1:
         0c:b0:91:81
-----BEGIN CERTIFICATE-----
MIIEwDCCA6igAwIBAgIFBDFmk+0wDQYJKoZIhvcNAQELBQAwUjELMAkGA1UEBhMC
VVMxFjAUBgNVBAoTDU1vdGhlciBOYXR1cmUxEzARBgNVBAsTCkV2ZXJ5dGhpbmcx
FjAUBgNVBAMTDU1vdGhlciBOYXR1cmUwHhcNMTYwNjMwMTcwOTUzWhcNMTYwOTEx
MTcwOTUzWjCBmTELMAkGA1UEBhMCVVMxCzAJBgNVBAgTAkZMMRQwEgYDVQQHEwtU
YWxsYWhhc3NlZTEcMBoGA1UECRMTMzIxMCBIb2xseSBNaWxsIFJ1bjEOMAwGA1UE
ERMFMzAwNjIxGDAWBgNVBAoTD0V4dHJlbWUgRGlzY29yZDEOMAwGA1UECxMFQ2hh
b3MxDzANBgNVBAMTBmdvdi51czCCASIwDQYJKoZIhvcNAQEBBQADggEPADCCAQoC
ggEBAMTCZZ/aZkYo3s1GbF7Ru2hWVV2jRvohqxLdaEZvXryBG7liLZ4ibsK2L0h+
j5CCAYDBqYog5ok+MrxmNuqIJjczOCJGSZAVdgplsnZiBNcDDqwBTS+DP5nvqztD
r59L5J3zQsLsf4LinZN4npfv2jElGEFyaes4OgAv3sktDZ6mi+/x3+w+7YP7M3Uz
bkCuK6Cma2iLRPVSrehJEeVZVp+z4K0geXflxdRY8P07Z1Kgltm6HmCuKMg8Kpw5
IYI+0xrfE4X0aUxvcLAOnFKdT8ZKAYgG85sGsndU3U+MzBci58CrAHApaZh+dQIy
qYlgeEUImSkerGvW7E30rz/uJNkCAwEAAaOCAVMwggFPMA4GA1UdDwEB/wQEAwIF
oDAdBgNVHSUEFjAUBggrBgEFBQcDAgYIKwYBBQUHAwEwDAYDVR0TAQH/BAIwADAO
BgNVHSMEBzAFgAMBAgMwYgYIKwYBBQUHAQEEVjBUMCEGCCsGAQUFBzABhhVodHRw
Oi8vdGhlY2EubmV0L29jc3AwLwYIKwYBBQUHMAKGI2h0dHA6Ly90aGVjYS5uZXQv
dG90YWxseXRoZWNlcnQuY3J0MCsGA1UdIAQkMCIwCgYIKwYBBQUHDQEwCAYGZ4EM
AQICMAoGCCsGAQUFBw0BMA0GA1UdDgQGBAQEAwIBMBsGA1UdEQQUMBKCCCouZ292
LnVzggZnb3YudXMwJgYDVR0SBB8wHYIQYWxsdGhldGhpbmdzLm5ldIIJdGhlY2Eu
bmV0MBsGA1UdEQQUMBKCCCouZ292LnVzggZnb3YudXMwDQYJKoZIhvcNAQELBQAD
ggEBAI8Cm7u7Lm2yerkJtLC85+Odt+nPHwIbHSawXMpNvA09JvvVyqQ+/MmIM3Ab
uQ0R8ZlIXPFMbuny0wwO0JTfgta6Irxn9H7wAyPB95ZA4Q16a7DqFkUxch2U1bGy
GrmaDiqUeQuEgMSu12g3gykP4cW/vYc9JwlayPEjUAIWZEgtcyhM5tmutIyRRpdg
pCGUYML+m2gH+klzj/WxfPD4myRqo5o/qNEwU7On70ORjTBDzBdD3p/2N0SuOMMV
TPZ+HuLoyGeDAGd5n2LEkt66wshyCYyFATJwY5kg7fMidl8M2johJQPsWg8cYXhC
vuleD+xO8VAqrZFqNSiOoQywkYE=
-----END CERTIFICATE-----
