Certificate:
    Data:
        Version: 3 (0x2)
        Serial Number: 18008675309 (0x4316693ed)
    Signature Algorithm: sha256WithRSAEncryption
        Issuer: C = US, O = Mother Nature, OU = Everything, CN = Mother Nature
        Validity
            Not Before: Jun 30 17:32:10 2016 GMT
            Not After : Sep 11 17:32:10 2016 GMT
        Subject: C = US, ST = FL, L = Tallahassee, street = 3210 Holly Mill Run, postalCode = 30062, O = Extreme Discord, OU = Chaos, CN = gov.us
        Subject Public Key Info:
            Public Key Algorithm: rsaEncryption
                Public-Key: (2048 bit)
                Modulus:
                    00:cb:a9:4b:c9:a3:61:18:aa:b9:9d:a9:0c:3c:2b:
                    29:ca:d6:20:cd:f0:0b:8a:90:4b:b9:83:31:47:9f:
                    b0:3c:39:06:de:26:f3:a2:1f:c4:47:b4:85:98:c9:
                    b9:6b:c1:ed:64:8c:fd:0a:d2:e2:ac:e7:bb:fa:4a:
                    3e:dd:18:8d:ae:3d:7a:67:74:6b:5b:82:62:d2:36:
                    6e:5f:61:bd:be:bb:18:a1:82:76:02:00:9a:25:a6:
                    ee:e5:99:60:94:6c:ac:94:35:6b:25:22:f1:08:12:
                    69:15:52:11:fa:08:15:e6:ee:dc:74:67:59:6a:84:
                    da:dc:c9:e5:ac:21:a9:3e:d3:6c:2c:14:60:38:78:
                    8c:57:4b:bd:72:4d:25:3b:c2:d9:fc:a4:a2:ea:6c:
                    75:02:a6:6d:00:9e:94:d0:ee:ee:73:b3:18:1c:b0:
                    12:a6:cb:9e:1b:c1:32:27:61:13:31:5d:f2:92:2a:
                    d5:4a:58:8d:a9:d9:9f:57:0b:b4:a6:31:6d:4a:b4:
                    30:e6:6b:df:7b:4e:05:61:c1:71:ad:37:9c:29:27:
                    b1:d9:95:82:a9:06:cd:96:f3:22:0d:69:c6:f2:9d:
                    4b:4f:e4:2a:af:a9:ac:fa:8d:3f:49:3a:c0:11:a6:
                    25:41:ed:1b:af:2b:53:13:fb:47:15:53:9f:09:66:
                    e3:31
                Exponent: 65537 (0x10001)
        X509v3 extensions:
            X509v3 Key Usage: critical
                Digital Signature, Key Encipherment
            X509v3 Extended Key Usage: 
                TLS Web Client Authentication, TLS Web Server Authentication
            X509v3 Basic Constraints: critical
                CA:FALSE
            X509v3 Authority Key Identifier: 
                keyid:01:02:03

            Authority Information Access: 
                OCSP - URI:http://theca.net/ocsp
                CA Issuers - URI:http://theca.net/totallythecert.crt

            X509v3 Certificate Policies: 
                Policy: 1.3.6.1.5.5.7.13.1
                Policy: 2.23.140.1.2.2
                Policy: 1.3.6.1.5.5.7.13.1

            2.5.29.48.48.48.56: critical
                0...allthethings.net..theca.net
            X509v3 Subject Alternative Name: 
                DNS:*.gov.us, DNS:gov.us
            2.5.29.48.48.48.56: critical
                0...allthethings.net..theca.net
    Signature Algorithm: sha256WithRSAEncryption
         63:47:50:f9:76:21:9f:8f:a3:98:c0:95:a1:a3:36:85:c5:77:
         ac:e9:43:89:15:23:e5:e9:83:14:78:a9:79:fb:71:17:74:7e:
         a2:00:a8:59:78:12:d5:2d:8f:1b:bf:df:d4:d9:c6:00:0b:8a:
         c5:a1:d3:d8:c2:3f:d5:6e:b5:c8:d6:e6:88:2a:36:00:af:08:
         ca:a8:4e:f3:6c:59:59:16:03:c2:f6:49:f7:22:25:1b:aa:c6:
         71:31:f3:e4:db:74:c7:d8:46:35:d2:e8:b1:41:b1:ba:fd:84:
         36:95:34:e8:45:e8:d1:f6:d7:87:d6:00:a3:ba:d4:c6:d1:f9:
         0d:94:8d:ca:83:e4:07:94:4a:44:9a:c8:4b:cb:a1:6a:53:04:
         14:ef:57:a8:20:2c:a7:ee:ed:f0:90:49:c3:c4:64:77:fe:70:
         03:a2:9e:81:99:73:59:3b:1d:da:9e:41:f9:ef:aa:51:43:c7:
         0a:6b:f1:34:e8:b4:c0:0d:11:c1:4e:63:07:3d:6a:d5:63:29:
         0a:fd:ea:2d:81:d0:53:46:13:09:52:b8:c7:17:35:a2:42:03:
         44:1f:c1:c1:a6:e3:b1:64:04:d9:94:94:4e:6c:7c:d4:b2:a4:
         cc:e6:a6:c9:a9:62:cd:aa:e7:47:25:17:4a:17:58:5f:3c:63:
         c3:8b:94:00
-----BEGIN CERTIFICATE-----
MIIEyDCCA7CgAwIBAgIFBDFmk+0wDQYJKoZIhvcNAQELBQAwUjELMAkGA1UEBhMC
VVMxFjAUBgNVBAoTDU1vdGhlciBOYXR1cmUxEzARBgNVBAsTCkV2ZXJ5dGhpbmcx
FjAUBgNVBAMTDU1vdGhlciBOYXR1cmUwHhcNMTYwNjMwMTczMjEwWhcNMTYwOTEx
MTczMjEwWjCBmTELMAkGA1UEBhMCVVMxCzAJBgNVBAgTAkZMMRQwEgYDVQQHEwtU
YWxsYWhhc3NlZTEcMBoGA1UECRMTMzIxMCBIb2xseSBNaWxsIFJ1bjEOMAwGA1UE
ERMFMzAwNjIxGDAWBgNVBAoTD0V4dHJlbWUgRGlzY29yZDEOMAwGA1UECxMFQ2hh
b3MxDzANBgNVBAMTBmdvdi51czCCASIwDQYJKoZIhvcNAQEBBQADggEPADCCAQoC
ggEBAMupS8mjYRiquZ2pDDwrKcrWIM3wC4qQS7mDMUefsDw5Bt4m86IfxEe0hZjJ
uWvB7WSM/QrS4qznu/pKPt0Yja49emd0a1uCYtI2bl9hvb67GKGCdgIAmiWm7uWZ
YJRsrJQ1ayUi8QgSaRVSEfoIFebu3HRnWWqE2tzJ5awhqT7TbCwUYDh4jFdLvXJN
JTvC2fykoupsdQKmbQCelNDu7nOzGBywEqbLnhvBMidhEzFd8pIq1UpYjanZn1cL
tKYxbUq0MOZr33tOBWHBca03nCknsdmVgqkGzZbzIg1pxvKdS0/kKq+prPqNP0k6
wBGmJUHtG68rUxP7RxVTnwlm4zECAwEAAaOCAVswggFXMA4GA1UdDwEB/wQEAwIF
oDAdBgNVHSUEFjAUBggrBgEFBQcDAgYIKwYBBQUHAwEwDAYDVR0TAQH/BAIwADAO
BgNVHSMEBzAFgAMBAgMwYgYIKwYBBQUHAQEEVjBUMCEGCCsGAQUFBzABhhVodHRw
Oi8vdGhlY2EubmV0L29jc3AwLwYIKwYBBQUHMAKGI2h0dHA6Ly90aGVjYS5uZXQv
dG90YWxseXRoZWNlcnQuY3J0MCsGA1UdIAQkMCIwCgYIKwYBBQUHDQEwCAYGZ4EM
AQICMAoGCCsGAQUFBw0BMCwGBlUdMDAwOAEB/wQfMB2CEGFsbHRoZXRoaW5ncy5u
ZXSCCXRoZWNhLm5ldDAbBgNVHREEFDASgggqLmdvdi51c4IGZ292LnVzMCwGBlUd
MDAwOAEB/wQfMB2CEGFsbHRoZXRoaW5ncy5uZXSCCXRoZWNhLm5ldDANBgkqhkiG
9w0BAQsFAAOCAQEAY0dQ+XYhn4+jmMCVoaM2hcV3rOlDiRUj5emDFHipeftxF3R+
ogCoWXgS1S2PG7/f1NnGAAuKxaHT2MI/1W61yNbmiCo2AK8IyqhO82xZWRYDwvZJ
9yIlG6rGcTHz5Nt0x9hGNdLosUGxuv2ENpU06EXo0fbXh9YAo7rUxtH5DZSNyoPk
B5RKRJrIS8uhalMEFO9XqCAsp+7t8JBJw8Rkd/5wA6KegZlzWTsd2p5B+e+qUUPH
CmvxNOi0wA0RwU5jBz1q1WMpCv3qLYHQU0YTCVK4xxc1okIDRB/BwabjsWQE2ZSU
Tmx81LKkzOamyalizarnRyUXShdYXzxjw4uUAA==
-----END CERTIFICATE-----
