Certificate:
    Data:
        Version: 3 (0x2)
        Serial Number: 18008675309 (0x4316693ed)
    Signature Algorithm: sha256WithRSAEncryption
        Issuer: C = US, O = Mother Nature, OU = Everything, CN = Mother Nature
        Validity
            Not Before: Dec  1 06:07:08 2055 GMT
            Not After : Dec  1 06:07:08.999 2057 GMT
        Subject: C = US, O = Extreme Discord, OU = Chaos, L = Tallahassee, ST = FL, street = 3210 Holly Mill Run, postalCode = 30062, CN = gov.us
        Subject Public Key Info:
            Public Key Algorithm: rsaEncryption
                Public-Key: (512 bit)
                Modulus:
                    00:b9:38:33:1d:7a:98:5a:3e:17:5b:4d:c4:b7:09:
                    09:87:36:6c:6d:71:d8:14:89:d4:03:a3:ca:4a:6e:
                    1e:2f:49:e1:7a:05:61:af:ca:ce:8c:bc:a0:c7:a4:
                    c7:c5:1c:47:36:27:1a:1c:8c:85:11:32:76:4d:7b:
                    d8:4f:c1:be:31
                Exponent: 65537 (0x10001)
        X509v3 extensions:
            X509v3 Key Usage: critical
                Digital Signature, Key Encipherment, Certificate Sign
            X509v3 Extended Key Usage: 
                TLS Web Client Authentication, TLS Web Server Authentication
            X509v3 Basic Constraints: critical
                CA:FALSE
            X509v3 Authority Key Identifier: 
                keyid:01:02:03

            Authority Information Access: 
                OCSP - URI:http://theca.net/ocsp
                CA Issuers - URI:http://theca.net/totallythecert.crt

            X509v3 Certificate Policies: 
                Policy: 2.23.140.1.2.2

            X509v3 Name Constraints: 
                Permitted:
                  IP:192.168.1.1/1.2.3.4

            X509v3 Subject Key Identifier: 
                04:03:02:01
            X509v3 Subject Alternative Name: 
                DNS:gov.us, DNS:ˬ
            X509v3 Inhibit Any Policy: 
                ..
            Subject Information Access: 
                ..
    Signature Algorithm: sha256WithRSAEncryption
         70:2e:fc:0a:54:0a:01:12:1c:70:0c:9d:11:75:13:5b:1b:53:
         42:21:c3:ee:fd:74:1f:93:5a:e2:22:cb:79:82:66:5d:10:21:
         6b:1a:c4:35:20:96:bc:14:e2:63:35:af:67:33:42:d5:a4:7d:
         b4:93:a3:95:1c:a5:0b:bb:24:21
-----BEGIN CERTIFICATE-----
MIIDDzCCArugAwIBAgIFBDFmk+0wCwYJKoZIhvcNAQELMFQxCzAJBgNVBAYTAlVT
MRYwFAYDVQQKEw1Nb3RoZXIgTmF0dXJlMRMwEQYDVQQLEwpFdmVyeXRoaW5nMRYw
FAYDVQQDEw1Nb3RoZXIgTmF0dXJlMQAwJhgPMjA1NTEyMDEwNjA3MDhaGBMyMDU3
MTIwMTA2MDcwOC45OTlaMIGbMQswCQYDVQQGEwJVUzEYMBYGA1UEChMPRXh0cmVt
ZSBEaXNjb3JkMQ4wDAYDVQQLEwVDaGFvczEUMBIGA1UEBxMLVGFsbGFoYXNzZWUx
CzAJBgNVBAgTAkZMMRwwGgYDVQQJExMzMjEwIEhvbGx5IE1pbGwgUnVuMQ4wDAYD
VQQREwUzMDA2MjEPMA0GA1UEAxMGZ292LnVzMQAwXDANBgkqhkiG9w0BAQEFAANL
ADBIAkEAuTgzHXqYWj4XW03EtwkJhzZsbXHYFInUA6PKSm4eL0nhegVhr8rOjLyg
x6THxRxHNicaHIyFETJ2TXvYT8G+MQIDAQABo4IBJDCCASAwDgYDVR0PAQH/BAQD
AgCkMB0GA1UdJQQWMBQGCCsGAQUFBwMCBggrBgEFBQcDATAMBgNVHRMBAf8EAjAA
MA4GA1UdIwQHMAWAAwECAzBiBggrBgEFBQcBAQRWMFQwIQYIKwYBBQUHMAGGFWh0
dHA6Ly90aGVjYS5uZXQvb2NzcDAvBggrBgEFBQcwAoYjaHR0cDovL3RoZWNhLm5l
dC90b3RhbGx5dGhlY2VydC5jcnQwEwYDVR0gBAwwCjAIBgZngQwBAgIwFwYDVR0e
BBAwDqAMMAqHCMCoAQEBAgMEMA0GA1UdDgQGBAQEAwIBMBUGA1UdEQQOMAyCBmdv
di51c4ICwKgwCQYDVR02BAICATAOBggrBgEFBQcBCwQCAgEwCwYJKoZIhvcNAQEL
A0EAcC78ClQKARIccAydEXUTWxtTQiHD7v10H5Na4iLLeYJmXRAhaxrENSCWvBTi
YzWvZzNC1aR9tJOjlRylC7skIQ==
-----END CERTIFICATE-----
