Certificate:
    Data:
        Version: 3 (0x2)
        Serial Number: 18008675309 (0x4316693ed)
    Signature Algorithm: sha256WithRSAEncryption
        Issuer: C = US, O = Mother Nature, OU = Everything, CN = Mother Nature
        Validity
            Not Before: Jul  1 20:53:34 2016 GMT
            Not After : Sep 13 20:53:34 2016 GMT
        Subject: C = US, O = Extreme Discord, OU = Chaos, L = Tallahassee, ST = FL, street = 3210 Holly Mill Run, postalCode = 30062, CN = gov.us
        Subject Public Key Info:
            Public Key Algorithm: rsaEncryption
                Public-Key: (2048 bit)
                Modulus:
                    00:a8:10:e4:f4:fc:8f:94:15:98:37:5f:5d:d9:b2:
                    7a:d0:79:7f:d0:e2:22:94:79:e5:5f:e4:f7:a3:a5:
                    b2:a1:31:34:6a:22:1c:8d:93:58:39:d2:3d:86:8d:
                    ff:47:1b:ec:2d:d9:b1:37:4f:f6:cf:bf:0b:e0:c0:
                    c2:2d:00:ef:e7:87:ae:ea:d0:97:28:ad:31:17:d9:
                    fd:a0:93:39:1e:dd:17:b1:dc:db:6e:98:a7:7f:79:
                    68:33:b0:af:e2:5a:67:33:39:26:34:6c:0d:8e:e4:
                    e4:bc:aa:31:76:a7:fd:8c:40:c3:bf:66:74:71:d7:
                    20:4d:4e:ef:29:43:52:e7:9f:3c:6a:42:5f:ec:46:
                    55:78:4f:ab:2c:31:0e:05:8e:f5:17:0e:14:49:41:
                    b6:27:08:bd:c5:b3:67:a5:bc:14:84:e8:ca:ed:ad:
                    a7:a2:c2:1f:6d:95:c5:8a:6d:6d:04:77:2b:37:9d:
                    39:24:46:d3:d1:af:cc:43:b3:44:02:b2:ed:f2:f9:
                    81:58:55:56:d4:30:ec:5b:c6:8b:35:be:c9:61:de:
                    38:df:17:76:fc:20:ad:42:ec:1e:99:4a:9e:56:31:
                    36:7a:74:73:75:d5:b5:ae:cc:9d:62:f6:48:17:e2:
                    5c:47:91:64:f1:80:eb:ff:8d:e9:44:6f:9d:bb:ec:
                    f4:2f
                Exponent: 5 (0x5)
        X509v3 extensions:
            X509v3 Key Usage: critical
                Digital Signature, Key Encipherment
            X509v3 Extended Key Usage: 
                TLS Web Client Authentication, TLS Web Server Authentication
            X509v3 Basic Constraints: critical
                CA:FALSE
            X509v3 Authority Key Identifier: 
                keyid:01:02:03

            Authority Information Access: 
                OCSP - URI:http://theca.net/ocsp
                CA Issuers - URI:http://theca.net/totallythecert.crt

            X509v3 Certificate Policies: 
                Policy: 2.23.140.1.2.2

            X509v3 Subject Key Identifier: 
                04:03:02:01
            X509v3 Subject Alternative Name: 
                DNS:*.gov.us, DNS:gov.us
    Signature Algorithm: sha256WithRSAEncryption
         e2:85:cd:a1:e2:94:c4:d0:5a:c0:4f:b9:4a:f2:ce:f8:0a:0b:
         d0:8e:43:92:14:ad:83:87:47:9d:0f:1b:d3:f3:06:50:f5:e0:
         88:1f:5f:bc:d5:21:ca:dd:de:73:70:55:8d:5b:d0:ee:b9:2f:
         0e:c4:52:ae:ec:54:e7:2c:10:44:1b:70:dd:a5:6e:3a:2b:68:
         1e:c0:48:39:06:0d:31:a4:e3:e4:df:eb:28:57:b8:f9:3a:a2:
         99:f3:bb:5c:e5:53:b8:8a:c5:81:74:69:72:fc:eb:2a:72:38:
         41:d1:cb:d2:90:c7:e6:d0:18:0d:88:41:5a:70:b3:f0:d0:63:
         fd:ed:73:cc:a9:b8:5a:23:7a:cb:79:e4:e9:ed:12:0f:b2:c5:
         ef:51:1c:9b:3e:71:a7:64:94:cf:aa:10:88:21:23:0f:99:62:
         fc:ea:fe:55:9c:ad:25:53:72:8b:76:61:b0:86:ed:0d:89:73:
         a9:9c:cf:fd:02:62:8c:aa:84:81:03:03:f8:78:74:3f:79:8d:
         43:87:86:c3:fa:ed:3e:4b:4f:27:92:cc:d2:53:c8:ea:3c:47:
         f7:11:94:70:7a:7e:77:88:f4:82:71:28:32:02:6d:77:c3:f6:
         fc:45:c2:55:c2:ce:02:1a:38:06:dc:e0:1a:d7:dc:42:0a:7d:
         1b:8d:7e:6c
-----BEGIN CERTIFICATE-----
MIIEXzCCA0egAwIBAgIFBDFmk+0wDQYJKoZIhvcNAQELBQAwUjELMAkGA1UEBhMC
VVMxFjAUBgNVBAoTDU1vdGhlciBOYXR1cmUxEzARBgNVBAsTCkV2ZXJ5dGhpbmcx
FjAUBgNVBAMTDU1vdGhlciBOYXR1cmUwHhcNMTYwNzAxMjA1MzM0WhcNMTYwOTEz
MjA1MzM0WjCBmTELMAkGA1UEBhMCVVMxGDAWBgNVBAoTD0V4dHJlbWUgRGlzY29y
ZDEOMAwGA1UECxMFQ2hhb3MxFDASBgNVBAcTC1RhbGxhaGFzc2VlMQswCQYDVQQI
EwJGTDEcMBoGA1UECRMTMzIxMCBIb2xseSBNaWxsIFJ1bjEOMAwGA1UEERMFMzAw
NjIxDzANBgNVBAMTBmdvdi51czCCASAwDQYJKoZIhvcNAQEBBQADggENADCCAQgC
ggEBAKgQ5PT8j5QVmDdfXdmyetB5f9DiIpR55V/k96OlsqExNGoiHI2TWDnSPYaN
/0cb7C3ZsTdP9s+/C+DAwi0A7+eHrurQlyitMRfZ/aCTOR7dF7Hc226Yp395aDOw
r+JaZzM5JjRsDY7k5LyqMXan/YxAw79mdHHXIE1O7ylDUuefPGpCX+xGVXhPqywx
DgWO9RcOFElBticIvcWzZ6W8FIToyu2tp6LCH22VxYptbQR3KzedOSRG09GvzEOz
RAKy7fL5gVhVVtQw7FvGizW+yWHeON8XdvwgrULsHplKnlYxNnp0c3XVta7MnWL2
SBfiXEeRZPGA6/+N6URvnbvs9C8CAQWjgfUwgfIwDgYDVR0PAQH/BAQDAgWgMB0G
A1UdJQQWMBQGCCsGAQUFBwMCBggrBgEFBQcDATAMBgNVHRMBAf8EAjAAMA4GA1Ud
IwQHMAWAAwECAzBiBggrBgEFBQcBAQRWMFQwIQYIKwYBBQUHMAGGFWh0dHA6Ly90
aGVjYS5uZXQvb2NzcDAvBggrBgEFBQcwAoYjaHR0cDovL3RoZWNhLm5ldC90b3Rh
bGx5dGhlY2VydC5jcnQwEwYDVR0gBAwwCjAIBgZngQwBAgIwDQYDVR0OBAYEBAQD
AgEwGwYDVR0RBBQwEoIIKi5nb3YudXOCBmdvdi51czANBgkqhkiG9w0BAQsFAAOC
AQEA4oXNoeKUxNBawE+5SvLO+AoL0I5DkhStg4dHnQ8b0/MGUPXgiB9fvNUhyt3e
c3BVjVvQ7rkvDsRSruxU5ywQRBtw3aVuOitoHsBIOQYNMaTj5N/rKFe4+TqimfO7
XOVTuIrFgXRpcvzrKnI4QdHL0pDH5tAYDYhBWnCz8NBj/e1zzKm4WiN6y3nk6e0S
D7LF71Ecmz5xp2SUz6oQiCEjD5li/Or+VZytJVNyi3ZhsIbtDYlzqZzP/QJijKqE
gQMD+Hh0P3mNQ4eGw/rtPktPJ5LM0lPI6jxH9xGUcHp+d4j0gnEoMgJtd8P2/EXC
VcLOAho4BtzgGtfcQgp9G41+bA==
-----END CERTIFICATE-----
