Certificate:
    Data:
        Version: 3 (0x2)
        Serial Number: 14615016 (0xdf01e8)
    Signature Algorithm: sha256WithRSAEncryption
        Issuer: C = US, O = Mother Nature, OU = Everything, CN = Mother Nature
        Validity
            Not Before: Oct 10 21:38:24 2016 GMT
            Not After : Dec 22 22:38:24 2016 GMT
        Subject: C = US, O = Extreme Discord, OU = Chaos, L = Tallahassee, ST = FL, street = 3210 Holly Mill Run, postalCode = 30062, CN = www.totallyfake.com
        Subject Public Key Info:
            Public Key Algorithm: rsaEncryption
                Public-Key: (2048 bit)
                Modulus:
                    00:98:76:a1:bc:2c:48:fb:af:06:77:47:f1:94:73:
                    46:e3:9e:68:6d:d2:dc:c0:02:0c:52:fa:8f:b0:ac:
                    b8:5b:87:2e:52:e7:b9:d4:2b:d6:ae:25:d5:66:2a:
                    0a:ec:45:93:2d:4d:ea:da:c0:65:9b:05:4f:af:84:
                    49:32:32:ff:50:27:cf:90:50:4a:f5:d2:1f:56:67:
                    6b:ed:b7:d9:c2:6e:ee:7c:87:67:ec:dd:5c:5a:97:
                    ea:04:1a:73:79:a5:db:b5:1b:d0:46:58:8f:50:d4:
                    fb:10:d9:aa:6b:67:c9:88:2b:04:c3:85:e2:de:c2:
                    77:fc:25:53:68:83:e8:08:b5:bc:d9:56:43:ff:c8:
                    cb:8b:ad:68:7b:67:66:0a:46:3f:d7:42:99:15:b5:
                    b5:9e:6c:bb:3e:a4:0c:22:79:e4:21:8d:c7:05:4b:
                    56:91:4c:08:f8:27:e8:bf:62:c3:8e:bb:75:54:dc:
                    d2:d6:c0:54:0d:6c:d2:8e:c6:7a:58:2f:11:c0:d6:
                    0b:a1:6e:80:04:36:21:8f:34:c0:e0:19:31:c7:74:
                    6f:11:35:e8:14:f8:4e:19:8b:43:4d:11:7e:eb:93:
                    8e:0d:89:40:ba:f6:bc:56:93:2e:ff:73:0c:1a:57:
                    fc:9a:f3:23:d0:4f:3d:58:c1:c6:70:1e:68:69:59:
                    b9:93
                Exponent: 65537 (0x10001)
        X509v3 extensions:
            X509v3 Basic Constraints: critical
                CA:FALSE
            X509v3 Authority Key Identifier: 
                keyid:01:02:03

            Authority Information Access: 
                OCSP - URI:http://theca.net/ocsp
                CA Issuers - URI:theca.net/totallythecert.crt

            X509v3 Subject Alternative Name: 
                DNS:192.168.1.1, IP Address:128.168.45.1
            X509v3 CRL Distribution Points: 

                Full Name:
                  URI:ldap://theca.net/crlpoint

            X509v3 Subject Key Identifier: 
                04:03:02:01
            X509v3 Key Usage: 
                Data Encipherment, Key Agreement
            X509v3 Extended Key Usage: 
                TLS Web Server Authentication, 1.2.840.113635.100.4.3, Signing KDC Response, Any Extended Key Usage
            X509v3 Certificate Policies: 
                Policy: 2.16.840.1.114414.1.7.23.1
                  CPS: http://certificates.starfieldtech.com/repository/

    Signature Algorithm: sha256WithRSAEncryption
         24:35:9b:d4:ed:ca:c4:74:00:f5:46:fb:25:6c:06:14:e2:aa:
         fc:ff:59:19:9e:8c:89:be:b0:7f:f6:94:e6:1b:a7:75:dd:0b:
         b9:de:a2:a4:32:ee:44:bd:c3:70:97:a0:24:d4:e8:a8:ec:6c:
         95:d6:36:4e:dd:d2:e1:63:ed:a9:30:92:da:08:e3:ea:77:96:
         86:f4:3c:ca:10:02:83:3b:10:d3:c4:55:d5:34:78:15:35:1a:
         cb:d1:3d:01:2e:5d:33:0a:bf:cf:b6:70:dd:10:06:65:02:0f:
         25:9a:27:73:86:9b:aa:97:6e:da:89:f5:f8:38:82:18:68:6b:
         8c:35:df:f2:9e:ba:2d:03:c6:a0:6e:e1:42:05:1a:ef:bf:00:
         b4:8f:40:1f:3d:e9:6f:28:58:0a:3f:71:cc:c9:45:34:d9:43:
         33:bf:60:b3:3d:89:ea:95:e2:b0:39:92:0a:7e:85:f2:b2:4a:
         18:ee:fc:35:1b:d2:f6:b1:3a:9b:ac:1a:b1:d7:41:8f:eb:c4:
         08:c5:29:1e:cc:12:7d:ee:f2:fc:ce:a1:e0:d1:d6:ef:fe:4f:
         f6:d2:90:41:6f:7c:4d:f3:3d:9b:53:fb:6a:8d:be:a5:e3:52:
         23:36:5e:b8:b2:09:81:04:f4:f9:97:0a:1c:0c:3f:6e:6d:39:
         9d:00:b0:f3
-----BEGIN CERTIFICATE-----
MIIE6DCCA9KgAwIBAgIEAN8B6DALBgkqhkiG9w0BAQswVDELMAkGA1UEBhMCVVMx
FjAUBgNVBAoTDU1vdGhlciBOYXR1cmUxEzARBgNVBAsTCkV2ZXJ5dGhpbmcxFjAU
BgNVBAMTDU1vdGhlciBOYXR1cmUxADAeFw0xNjEwMTAyMTM4MjRaFw0xNjEyMjIy
MjM4MjRaMIGoMQswCQYDVQQGEwJVUzEYMBYGA1UEChMPRXh0cmVtZSBEaXNjb3Jk
MQ4wDAYDVQQLEwVDaGFvczEUMBIGA1UEBxMLVGFsbGFoYXNzZWUxCzAJBgNVBAgT
AkZMMRwwGgYDVQQJExMzMjEwIEhvbGx5IE1pbGwgUnVuMQ4wDAYDVQQREwUzMDA2
MjEcMBoGA1UEAxMTd3d3LnRvdGFsbHlmYWtlLmNvbTEAMIIBIjANBgkqhkiG9w0B
AQEFAAOCAQ8AMIIBCgKCAQEAmHahvCxI+68Gd0fxlHNG455obdLcwAIMUvqPsKy4
W4cuUue51CvWriXVZioK7EWTLU3q2sBlmwVPr4RJMjL/UCfPkFBK9dIfVmdr7bfZ
wm7ufIdn7N1cWpfqBBpzeaXbtRvQRliPUNT7ENmqa2fJiCsEw4Xi3sJ3/CVTaIPo
CLW82VZD/8jLi61oe2dmCkY/10KZFbW1nmy7PqQMInnkIY3HBUtWkUwI+Cfov2LD
jrt1VNzS1sBUDWzSjsZ6WC8RwNYLoW6ABDYhjzTA4Bkxx3RvETXoFPhOGYtDTRF+
65OODYlAuva8VpMu/3MMGlf8mvMj0E89WMHGcB5oaVm5kwIDAQABo4IBbzCCAWsw
DAYDVR0TAQH/BAIwADAOBgNVHSMEBzAFgAMBAgMwWwYIKwYBBQUHAQEETzBNMCEG
CCsGAQUFBzABhhVodHRwOi8vdGhlY2EubmV0L29jc3AwKAYIKwYBBQUHMAKGHHRo
ZWNhLm5ldC90b3RhbGx5dGhlY2VydC5jcnQwHAYDVR0RBBUwE4ILMTkyLjE2OC4x
LjGHBICoLQEwKgYDVR0fBCMwITAfoB2gG4YZbGRhcDovL3RoZWNhLm5ldC9jcmxw
b2ludDANBgNVHQ4EBgQEBAMCATALBgNVHQ8EBAMCARgwLQYDVR0lBCYwJAYIKwYB
BQUHAwEGCSqGSIb3Y2QEAwYHKwYBBQIDBQYEVR0lADBZBgNVHSAEUjBQME4GC2CG
SAGG/W4BBxcBMD8wPQYIKwYBBQUHAgEWMWh0dHA6Ly9jZXJ0aWZpY2F0ZXMuc3Rh
cmZpZWxkdGVjaC5jb20vcmVwb3NpdG9yeS8wCwYJKoZIhvcNAQELA4IBAQAkNZvU
7crEdAD1RvslbAYU4qr8/1kZnoyJvrB/9pTmG6d13Qu53qKkMu5EvcNwl6Ak1Oio
7GyV1jZO3dLhY+2pMJLaCOPqd5aG9DzKEAKDOxDTxFXVNHgVNRrL0T0BLl0zCr/P
tnDdEAZlAg8lmidzhpuql27aifX4OIIYaGuMNd/ynrotA8agbuFCBRrvvwC0j0Af
PelvKFgKP3HMyUU02UMzv2CzPYnqleKwOZIKfoXyskoY7vw1G9L2sTqbrBqx10GP
68QIxSkezBJ97vL8zqHg0dbv/k/20pBBb3xN8z2bU/tqjb6l41IjNl64sgmBBPT5
lwocDD9ubTmdALDz
-----END CERTIFICATE-----
