Certificate:
    Data:
        Version: 3 (0x2)
        Serial Number: 14615016 (0xdf01e8)
    Signature Algorithm: sha256WithRSAEncryption
        Issuer: C = US, O = Mother Nature, OU = Everything, CN = Mother Nature
        Validity
            Not Before: Oct 10 21:35:03 2016 GMT
            Not After : Dec 22 22:35:03 2016 GMT
        Subject: C = US, O = Extreme Discord, OU = Chaos, L = Tallahassee, ST = FL, street = 3210 Holly Mill Run, postalCode = 30062, CN = 192.168.0.1
        Subject Public Key Info:
            Public Key Algorithm: rsaEncryption
                Public-Key: (2048 bit)
                Modulus:
                    00:c6:4d:94:59:d0:02:7d:7e:19:42:5b:f6:f2:26:
                    5a:79:e5:07:3a:ef:2b:22:be:f7:5a:49:e2:03:b1:
                    9b:cf:5d:c6:b2:21:64:fe:19:de:da:1b:fa:55:52:
                    79:f2:9e:d4:f6:14:87:84:89:48:38:6c:ec:a6:46:
                    bb:11:c4:f0:aa:2b:8e:a9:fa:93:f3:bc:d1:8a:90:
                    ff:ea:b6:09:d7:ad:1a:e3:39:43:b9:6b:f2:b9:9c:
                    f7:91:1d:db:f4:1c:7b:8f:6f:74:30:6e:eb:85:25:
                    f2:cb:8e:27:82:9b:e8:c0:07:35:34:e3:b3:4f:54:
                    5d:63:e6:8e:b9:88:6e:c5:c2:e0:7c:f5:c0:70:e5:
                    31:b5:4e:7a:e0:36:c8:7f:fb:10:9e:ae:16:7a:c7:
                    b0:50:c1:b0:b4:cc:24:93:42:f9:fc:59:12:8c:0a:
                    fe:33:93:a1:03:be:b2:5b:67:2f:31:8b:7e:a1:fe:
                    0e:8c:b9:7d:5e:57:54:09:c5:9a:fe:48:14:21:7f:
                    4c:fd:6d:94:e3:6f:b9:a7:a5:ae:3f:8d:f2:0b:1d:
                    dc:48:28:3b:e3:25:fe:e0:19:9f:d4:f8:cd:2d:a6:
                    b4:50:fa:4b:e8:81:b7:d7:5f:fa:f3:9f:c7:3a:bf:
                    05:20:41:78:bf:f0:5d:df:9d:21:e9:0d:cb:ff:8f:
                    3c:8f
                Exponent: 65537 (0x10001)
        X509v3 extensions:
            X509v3 Basic Constraints: critical
                CA:FALSE
            X509v3 Authority Key Identifier: 
                keyid:01:02:03

            Authority Information Access: 
                OCSP - URI:http://theca.net/ocsp
                CA Issuers - URI:theca.net/totallythecert.crt

            X509v3 Subject Alternative Name: 
                IP Address:128.168.45.1
            X509v3 CRL Distribution Points: 

                Full Name:
                  URI:ldap://theca.net/crlpoint

            X509v3 Subject Key Identifier: 
                04:03:02:01
            X509v3 Key Usage: 
                Data Encipherment, Key Agreement
            X509v3 Extended Key Usage: 
                TLS Web Server Authentication, 1.2.840.113635.100.4.3, Signing KDC Response, Any Extended Key Usage
            X509v3 Certificate Policies: 
                Policy: 2.16.840.1.114414.1.7.23.1
                  CPS: http://certificates.starfieldtech.com/repository/

    Signature Algorithm: sha256WithRSAEncryption
         1c:df:09:d5:6e:e0:eb:95:46:ed:db:4e:3f:b1:0f:ab:db:ae:
         0c:54:34:c1:95:29:95:de:d8:a0:6a:56:70:b1:37:d1:98:88:
         87:2b:e1:3f:e0:76:c3:c6:49:11:35:5a:e8:e4:ba:b9:ef:da:
         a2:53:89:32:fa:f9:7c:1b:34:27:28:88:f2:2c:49:7a:cf:11:
         74:f2:3a:8c:dc:a8:59:1d:14:e7:18:af:c8:5e:ab:02:27:c1:
         fb:90:43:0f:0c:29:c2:e7:85:c7:84:3d:17:4c:00:70:fc:1b:
         89:3c:d0:cf:1c:58:62:b6:09:91:34:a5:18:c4:06:47:7a:71:
         bb:67:52:66:e0:f4:94:f5:64:33:04:4f:cf:b7:d7:93:82:e3:
         ce:11:21:e8:28:ba:1f:c2:c0:d8:c0:82:53:ba:cd:e0:42:5a:
         5e:23:f5:16:57:20:7d:d3:41:19:ad:9c:47:39:b2:12:10:d8:
         26:9b:c9:98:27:35:06:07:45:0e:f1:7b:49:1e:72:6e:15:26:
         9b:54:be:dd:db:09:98:7a:6c:11:d1:b6:8c:d9:65:79:5f:6a:
         69:1a:c4:b0:e7:43:56:b7:c2:07:df:8d:d3:c0:75:18:80:49:
         0c:f2:0c:d4:ee:6f:13:fb:21:e4:c3:e2:cc:74:49:32:12:e7:
         4a:02:63:cf
-----BEGIN CERTIFICATE-----
MIIE0zCCA72gAwIBAgIEAN8B6DALBgkqhkiG9w0BAQswVDELMAkGA1UEBhMCVVMx
FjAUBgNVBAoTDU1vdGhlciBOYXR1cmUxEzARBgNVBAsTCkV2ZXJ5dGhpbmcxFjAU
BgNVBAMTDU1vdGhlciBOYXR1cmUxADAeFw0xNjEwMTAyMTM1MDNaFw0xNjEyMjIy
MjM1MDNaMIGgMQswCQYDVQQGEwJVUzEYMBYGA1UEChMPRXh0cmVtZSBEaXNjb3Jk
MQ4wDAYDVQQLEwVDaGFvczEUMBIGA1UEBxMLVGFsbGFoYXNzZWUxCzAJBgNVBAgT
AkZMMRwwGgYDVQQJExMzMjEwIEhvbGx5IE1pbGwgUnVuMQ4wDAYDVQQREwUzMDA2
MjEUMBIGA1UEAxMLMTkyLjE2OC4wLjExADCCASIwDQYJKoZIhvcNAQEBBQADggEP
ADCCAQoCggEBAMZNlFnQAn1+GUJb9vImWnnlBzrvKyK+91pJ4gOxm89dxrIhZP4Z
3tob+lVSefKe1PYUh4SJSDhs7KZGuxHE8Korjqn6k/O80YqQ/+q2CdetGuM5Q7lr
8rmc95Ed2/Qce49vdDBu64Ul8suOJ4Kb6MAHNTTjs09UXWPmjrmIbsXC4Hz1wHDl
MbVOeuA2yH/7EJ6uFnrHsFDBsLTMJJNC+fxZEowK/jOToQO+sltnLzGLfqH+Doy5
fV5XVAnFmv5IFCF/TP1tlONvuaelrj+N8gsd3EgoO+Ml/uAZn9T4zS2mtFD6S+iB
t9df+vOfxzq/BSBBeL/wXd+dIekNy/+PPI8CAwEAAaOCAWIwggFeMAwGA1UdEwEB
/wQCMAAwDgYDVR0jBAcwBYADAQIDMFsGCCsGAQUFBwEBBE8wTTAhBggrBgEFBQcw
AYYVaHR0cDovL3RoZWNhLm5ldC9vY3NwMCgGCCsGAQUFBzAChhx0aGVjYS5uZXQv
dG90YWxseXRoZWNlcnQuY3J0MA8GA1UdEQQIMAaHBICoLQEwKgYDVR0fBCMwITAf
oB2gG4YZbGRhcDovL3RoZWNhLm5ldC9jcmxwb2ludDANBgNVHQ4EBgQEBAMCATAL
BgNVHQ8EBAMCARgwLQYDVR0lBCYwJAYIKwYBBQUHAwEGCSqGSIb3Y2QEAwYHKwYB
BQIDBQYEVR0lADBZBgNVHSAEUjBQME4GC2CGSAGG/W4BBxcBMD8wPQYIKwYBBQUH
AgEWMWh0dHA6Ly9jZXJ0aWZpY2F0ZXMuc3RhcmZpZWxkdGVjaC5jb20vcmVwb3Np
dG9yeS8wCwYJKoZIhvcNAQELA4IBAQAc3wnVbuDrlUbt204/sQ+r264MVDTBlSmV
3tigalZwsTfRmIiHK+E/4HbDxkkRNVro5Lq579qiU4ky+vl8GzQnKIjyLEl6zxF0
8jqM3KhZHRTnGK/IXqsCJ8H7kEMPDCnC54XHhD0XTABw/BuJPNDPHFhitgmRNKUY
xAZHenG7Z1Jm4PSU9WQzBE/Pt9eTguPOESHoKLofwsDYwIJTus3gQlpeI/UWVyB9
00EZrZxHObISENgmm8mYJzUGB0UO8XtJHnJuFSabVL7d2wmYemwR0baM2WV5X2pp
GsSw50NWt8IH343TwHUYgEkM8gzU7m8T+yHkw+LMdEkyEudKAmPP
-----END CERTIFICATE-----
