Certificate:
    Data:
        Version: 3 (0x2)
        Serial Number: 14615016 (0xdf01e8)
    Signature Algorithm: sha256WithRSAEncryption
        Issuer: C = US, O = Mother Nature, OU = Everything, CN = Mother Nature
        Validity
            Not Before: Oct 10 21:35:45 2016 GMT
            Not After : Dec 22 22:35:45 2016 GMT
        Subject: C = US, O = Extreme Discord, OU = Chaos, L = Tallahassee, ST = FL, street = 3210 Holly Mill Run, postalCode = 30062, CN = Not a domain name
        Subject Public Key Info:
            Public Key Algorithm: rsaEncryption
                Public-Key: (2048 bit)
                Modulus:
                    00:c8:5d:0a:4a:36:f7:38:6c:24:5e:39:e7:97:5e:
                    20:26:ad:5c:e0:8e:07:80:69:cd:de:3f:b6:19:33:
                    11:98:57:e9:0a:b4:73:ef:26:70:b9:e4:2e:4e:8c:
                    06:e1:55:01:7a:39:c6:80:f8:09:98:55:d1:29:8d:
                    9c:16:ff:fa:1d:7c:02:d8:d6:c7:de:0a:d0:aa:84:
                    f5:e0:23:6d:ef:78:aa:9b:2b:6f:7b:fc:3b:0a:cc:
                    8b:d9:d2:d8:64:28:00:0a:0d:3b:3c:51:04:0b:ce:
                    22:57:af:98:6a:46:2c:0c:12:34:28:6f:0d:77:c0:
                    d6:2c:cd:a8:53:14:12:4f:75:f3:2a:a6:03:3c:a9:
                    e7:21:e8:3c:0b:e2:20:2a:2f:f5:91:ce:8b:31:6a:
                    bf:7a:5d:b3:c4:f6:c6:46:df:cb:65:32:7e:4c:50:
                    af:0d:12:0a:46:a5:22:04:7a:91:a7:58:8b:5b:cd:
                    50:f7:2d:12:4b:63:1d:b0:06:fb:36:7b:eb:68:e7:
                    1c:e6:a3:e4:6c:1b:cb:6d:a5:f5:d3:99:70:a8:00:
                    ff:dc:c1:56:8d:6d:8b:f9:fc:68:70:9f:d0:d6:45:
                    92:47:e7:5f:ce:26:2d:bb:e2:80:f3:5e:36:14:66:
                    bf:49:42:3a:8f:98:11:70:bb:57:b7:ba:64:86:6d:
                    f5:8b
                Exponent: 65537 (0x10001)
        X509v3 extensions:
            X509v3 Basic Constraints: critical
                CA:FALSE
            X509v3 Authority Key Identifier: 
                keyid:01:02:03

            Authority Information Access: 
                OCSP - URI:http://theca.net/ocsp
                CA Issuers - URI:theca.net/totallythecert.crt

            X509v3 Subject Alternative Name: 
                IP Address:128.168.45.1
            X509v3 CRL Distribution Points: 

                Full Name:
                  URI:ldap://theca.net/crlpoint

            X509v3 Subject Key Identifier: 
                04:03:02:01
            X509v3 Key Usage: 
                Data Encipherment, Key Agreement
            X509v3 Extended Key Usage: 
                TLS Web Server Authentication, 1.2.840.113635.100.4.3, Signing KDC Response, Any Extended Key Usage
            X509v3 Certificate Policies: 
                Policy: 2.16.840.1.114414.1.7.23.1
                  CPS: http://certificates.starfieldtech.com/repository/

    Signature Algorithm: sha256WithRSAEncryption
         70:2f:5f:eb:d1:f5:eb:b3:49:0a:f0:e4:e2:a6:03:95:cb:57:
         05:6e:3d:09:0e:c6:59:c8:6c:c9:58:72:04:45:74:11:a1:f7:
         42:f7:25:df:b1:20:9b:7d:60:26:0e:5f:a2:e4:06:3b:17:35:
         8b:9a:d4:58:de:24:d7:16:87:bd:e7:8e:c1:3b:a1:9c:21:f2:
         49:6b:19:76:00:cb:5f:7e:40:82:33:69:72:fe:50:3c:d9:1e:
         67:f0:fa:0f:2e:e2:cc:47:1f:7d:65:67:2e:68:2b:17:76:08:
         96:bb:0c:c0:9a:c5:23:cc:9c:fb:93:7f:a8:80:68:a9:8e:81:
         cd:e1:ea:1b:cc:6c:a6:f8:a5:23:a5:33:6e:bf:c7:ab:31:76:
         15:d6:68:5f:6e:5a:9e:7c:20:8b:db:c2:e7:46:00:f3:e4:0e:
         d1:07:8a:9b:41:b9:06:3d:1b:82:81:b3:ec:95:6b:4e:74:71:
         b7:78:b6:ee:9d:2f:9e:b1:16:5c:c0:af:47:9a:5d:1a:3d:d1:
         09:f4:a1:90:f8:2b:a2:30:88:eb:5c:58:19:e8:17:55:44:ff:
         95:b9:3d:bf:fe:ff:12:1d:68:a9:02:31:49:73:a8:bb:37:e6:
         61:34:eb:26:23:ba:ed:fa:2c:f0:74:74:22:29:55:20:dd:5d:
         b1:94:9d:9a
-----BEGIN CERTIFICATE-----
MIIE2TCCA8OgAwIBAgIEAN8B6DALBgkqhkiG9w0BAQswVDELMAkGA1UEBhMCVVMx
FjAUBgNVBAoTDU1vdGhlciBOYXR1cmUxEzARBgNVBAsTCkV2ZXJ5dGhpbmcxFjAU
BgNVBAMTDU1vdGhlciBOYXR1cmUxADAeFw0xNjEwMTAyMTM1NDVaFw0xNjEyMjIy
MjM1NDVaMIGmMQswCQYDVQQGEwJVUzEYMBYGA1UEChMPRXh0cmVtZSBEaXNjb3Jk
MQ4wDAYDVQQLEwVDaGFvczEUMBIGA1UEBxMLVGFsbGFoYXNzZWUxCzAJBgNVBAgT
AkZMMRwwGgYDVQQJExMzMjEwIEhvbGx5IE1pbGwgUnVuMQ4wDAYDVQQREwUzMDA2
MjEaMBgGA1UEAxMRTm90IGEgZG9tYWluIG5hbWUxADCCASIwDQYJKoZIhvcNAQEB
BQADggEPADCCAQoCggEBAMhdCko29zhsJF4555deICatXOCOB4Bpzd4/thkzEZhX
6Qq0c+8mcLnkLk6MBuFVAXo5xoD4CZhV0SmNnBb/+h18AtjWx94K0KqE9eAjbe94
qpsrb3v8OwrMi9nS2GQoAAoNOzxRBAvOIlevmGpGLAwSNChvDXfA1izNqFMUEk91
8yqmAzyp5yHoPAviICov9ZHOizFqv3pds8T2xkbfy2UyfkxQrw0SCkalIgR6kadY
i1vNUPctEktjHbAG+zZ762jnHOaj5Gwby22l9dOZcKgA/9zBVo1ti/n8aHCf0NZF
kkfnX84mLbvigPNeNhRmv0lCOo+YEXC7V7e6ZIZt9YsCAwEAAaOCAWIwggFeMAwG
A1UdEwEB/wQCMAAwDgYDVR0jBAcwBYADAQIDMFsGCCsGAQUFBwEBBE8wTTAhBggr
BgEFBQcwAYYVaHR0cDovL3RoZWNhLm5ldC9vY3NwMCgGCCsGAQUFBzAChhx0aGVj
YS5uZXQvdG90YWxseXRoZWNlcnQuY3J0MA8GA1UdEQQIMAaHBICoLQEwKgYDVR0f
BCMwITAfoB2gG4YZbGRhcDovL3RoZWNhLm5ldC9jcmxwb2ludDANBgNVHQ4EBgQE
BAMCATALBgNVHQ8EBAMCARgwLQYDVR0lBCYwJAYIKwYBBQUHAwEGCSqGSIb3Y2QE
AwYHKwYBBQIDBQYEVR0lADBZBgNVHSAEUjBQME4GC2CGSAGG/W4BBxcBMD8wPQYI
KwYBBQUHAgEWMWh0dHA6Ly9jZXJ0aWZpY2F0ZXMuc3RhcmZpZWxkdGVjaC5jb20v
cmVwb3NpdG9yeS8wCwYJKoZIhvcNAQELA4IBAQBwL1/r0fXrs0kK8OTipgOVy1cF
bj0JDsZZyGzJWHIERXQRofdC9yXfsSCbfWAmDl+i5AY7FzWLmtRY3iTXFoe9547B
O6GcIfJJaxl2AMtffkCCM2ly/lA82R5n8PoPLuLMRx99ZWcuaCsXdgiWuwzAmsUj
zJz7k3+ogGipjoHN4eobzGym+KUjpTNuv8erMXYV1mhfblqefCCL28LnRgDz5A7R
B4qbQbkGPRuCgbPslWtOdHG3eLbunS+esRZcwK9Hml0aPdEJ9KGQ+CuiMIjrXFgZ
6BdVRP+VuT2//v8SHWipAjFJc6i7N+ZhNOsmI7rt+izwdHQiKVUg3V2xlJ2a
-----END CERTIFICATE-----
