Certificate:
    Data:
        Version: 3 (0x2)
        Serial Number: 14615016 (0xdf01e8)
    Signature Algorithm: sha256WithRSAEncryption
        Issuer: C = US, O = Mother Nature, OU = Everything, CN = Mother Nature
        Validity
            Not Before: Oct 10 21:38:52 2016 GMT
            Not After : Dec 22 22:38:52 2016 GMT
        Subject: C = US, O = Extreme Discord, OU = Chaos, L = Tallahassee, ST = FL, street = 3210 Holly Mill Run, postalCode = 30062, CN = www.totallyfake.com
        Subject Public Key Info:
            Public Key Algorithm: rsaEncryption
                Public-Key: (2048 bit)
                Modulus:
                    00:cb:ca:6e:da:3b:c8:7f:fa:7d:31:e9:d1:91:84:
                    14:eb:46:9d:66:d9:a5:cc:6e:b4:0d:b3:51:33:b7:
                    49:f8:6f:10:9e:e8:08:7c:84:2f:e5:f6:ee:54:5b:
                    85:b7:26:e4:1d:af:12:df:2a:9a:bf:dd:ee:ad:73:
                    70:34:a4:e1:93:a5:ba:15:98:e7:78:e8:ce:c4:9e:
                    d9:e1:88:bd:34:03:e9:1f:94:31:48:65:9d:ad:ef:
                    de:4a:1b:a5:1b:8b:78:4d:48:c4:3d:e1:b6:12:8d:
                    66:97:ba:35:b4:59:c1:01:76:31:91:db:7e:ea:f7:
                    42:a5:27:6c:ed:2b:6e:47:e4:69:b3:6a:d7:65:fb:
                    d6:24:53:33:86:87:8c:d3:93:d1:d8:6d:c7:30:97:
                    1d:91:5b:19:cf:57:d2:b8:04:89:07:28:c6:8c:c2:
                    b9:12:e7:7e:23:2c:05:b4:9d:1a:73:7e:9c:e1:d0:
                    c6:81:30:62:09:aa:f6:28:6c:30:af:90:84:67:67:
                    06:ff:c5:34:70:7b:9a:a3:59:b7:55:b2:11:28:18:
                    57:2f:2a:ff:98:0e:67:8f:88:82:3a:2f:94:05:96:
                    16:f3:dc:68:81:eb:8d:17:5b:7a:56:38:ea:1c:70:
                    9a:c9:ba:9e:1a:d7:71:31:87:9e:34:75:2f:d5:54:
                    a0:57
                Exponent: 65537 (0x10001)
        X509v3 extensions:
            X509v3 Basic Constraints: critical
                CA:FALSE
            X509v3 Authority Key Identifier: 
                keyid:01:02:03

            Authority Information Access: 
                OCSP - URI:http://theca.net/ocsp
                CA Issuers - URI:theca.net/totallythecert.crt

            X509v3 Subject Alternative Name: 
                DNS:Not a dns, IP Address:128.168.45.1
            X509v3 CRL Distribution Points: 

                Full Name:
                  URI:ldap://theca.net/crlpoint

            X509v3 Subject Key Identifier: 
                04:03:02:01
            X509v3 Key Usage: 
                Data Encipherment, Key Agreement
            X509v3 Extended Key Usage: 
                TLS Web Server Authentication, 1.2.840.113635.100.4.3, Signing KDC Response, Any Extended Key Usage
            X509v3 Certificate Policies: 
                Policy: 2.16.840.1.114414.1.7.23.1
                  CPS: http://certificates.starfieldtech.com/repository/

    Signature Algorithm: sha256WithRSAEncryption
         8e:17:55:1f:3d:a8:50:70:79:52:cd:d7:20:b9:51:aa:02:c4:
         2e:eb:03:75:bb:11:86:80:11:f1:9c:bc:89:93:57:67:ed:8a:
         78:68:8c:b5:5e:9a:e5:39:e8:9d:05:21:35:c2:20:24:39:bc:
         42:80:fb:e0:05:0d:a5:e2:27:36:08:31:53:59:fd:4b:be:58:
         12:33:79:f2:9c:5b:70:f2:1c:06:79:0d:0c:21:9a:75:35:eb:
         cd:74:db:16:c8:77:de:60:28:d0:7f:15:db:2c:1b:a9:bc:10:
         bf:49:91:03:be:21:24:45:b0:27:dd:72:db:d0:f7:58:c0:ea:
         cd:a0:69:60:6b:41:61:31:51:ca:21:dd:ec:ae:fd:a6:63:93:
         5c:70:c6:bc:48:52:e7:a4:9a:63:1b:f2:66:b7:35:48:8d:78:
         cd:a5:bb:dd:b0:82:40:2c:a8:74:01:bb:4f:fe:bf:ee:1e:fe:
         88:31:8c:a1:9e:13:2a:28:13:83:49:1e:8c:59:85:49:46:d8:
         94:7a:b1:2e:c4:23:a4:28:c8:9f:82:89:93:1f:7e:1a:01:a9:
         d6:1a:46:61:c5:e9:6d:55:0e:cf:87:38:82:c0:1f:48:82:ca:
         0a:28:d9:1d:82:e4:a9:39:2d:c7:44:f8:64:80:e2:1a:9f:44:
         89:06:b5:29
-----BEGIN CERTIFICATE-----
MIIE5jCCA9CgAwIBAgIEAN8B6DALBgkqhkiG9w0BAQswVDELMAkGA1UEBhMCVVMx
FjAUBgNVBAoTDU1vdGhlciBOYXR1cmUxEzARBgNVBAsTCkV2ZXJ5dGhpbmcxFjAU
BgNVBAMTDU1vdGhlciBOYXR1cmUxADAeFw0xNjEwMTAyMTM4NTJaFw0xNjEyMjIy
MjM4NTJaMIGoMQswCQYDVQQGEwJVUzEYMBYGA1UEChMPRXh0cmVtZSBEaXNjb3Jk
MQ4wDAYDVQQLEwVDaGFvczEUMBIGA1UEBxMLVGFsbGFoYXNzZWUxCzAJBgNVBAgT
AkZMMRwwGgYDVQQJExMzMjEwIEhvbGx5IE1pbGwgUnVuMQ4wDAYDVQQREwUzMDA2
MjEcMBoGA1UEAxMTd3d3LnRvdGFsbHlmYWtlLmNvbTEAMIIBIjANBgkqhkiG9w0B
AQEFAAOCAQ8AMIIBCgKCAQEAy8pu2jvIf/p9MenRkYQU60adZtmlzG60DbNRM7dJ
+G8QnugIfIQv5fbuVFuFtybkHa8S3yqav93urXNwNKThk6W6FZjneOjOxJ7Z4Yi9
NAPpH5QxSGWdre/eShulG4t4TUjEPeG2Eo1ml7o1tFnBAXYxkdt+6vdCpSds7Stu
R+Rps2rXZfvWJFMzhoeM05PR2G3HMJcdkVsZz1fSuASJByjGjMK5Eud+IywFtJ0a
c36c4dDGgTBiCar2KGwwr5CEZ2cG/8U0cHuao1m3VbIRKBhXLyr/mA5nj4iCOi+U
BZYW89xogeuNF1t6VjjqHHCaybqeGtdxMYeeNHUv1VSgVwIDAQABo4IBbTCCAWkw
DAYDVR0TAQH/BAIwADAOBgNVHSMEBzAFgAMBAgMwWwYIKwYBBQUHAQEETzBNMCEG
CCsGAQUFBzABhhVodHRwOi8vdGhlY2EubmV0L29jc3AwKAYIKwYBBQUHMAKGHHRo
ZWNhLm5ldC90b3RhbGx5dGhlY2VydC5jcnQwGgYDVR0RBBMwEYIJTm90IGEgZG5z
hwSAqC0BMCoGA1UdHwQjMCEwH6AdoBuGGWxkYXA6Ly90aGVjYS5uZXQvY3JscG9p
bnQwDQYDVR0OBAYEBAQDAgEwCwYDVR0PBAQDAgEYMC0GA1UdJQQmMCQGCCsGAQUF
BwMBBgkqhkiG92NkBAMGBysGAQUCAwUGBFUdJQAwWQYDVR0gBFIwUDBOBgtghkgB
hv1uAQcXATA/MD0GCCsGAQUFBwIBFjFodHRwOi8vY2VydGlmaWNhdGVzLnN0YXJm
aWVsZHRlY2guY29tL3JlcG9zaXRvcnkvMAsGCSqGSIb3DQEBCwOCAQEAjhdVHz2o
UHB5Us3XILlRqgLELusDdbsRhoAR8Zy8iZNXZ+2KeGiMtV6a5TnonQUhNcIgJDm8
QoD74AUNpeInNggxU1n9S75YEjN58pxbcPIcBnkNDCGadTXrzXTbFsh33mAo0H8V
2ywbqbwQv0mRA74hJEWwJ91y29D3WMDqzaBpYGtBYTFRyiHd7K79pmOTXHDGvEhS
56SaYxvyZrc1SI14zaW73bCCQCyodAG7T/6/7h7+iDGMoZ4TKigTg0kejFmFSUbY
lHqxLsQjpCjIn4KJkx9+GgGp1hpGYcXpbVUOz4c4gsAfSILKCijZHYLkqTktx0T4
ZIDiGp9EiQa1KQ==
-----END CERTIFICATE-----
