Certificate:
    Data:
        Version: 3 (0x2)
        Serial Number: 14615016 (0xdf01e8)
    Signature Algorithm: sha256WithRSAEncryption
        Issuer: C = US, O = Mother Nature, OU = Everything, CN = Mother Nature
        Validity
            Not Before: Oct 10 21:36:29 2016 GMT
            Not After : Dec 22 22:36:29 2016 GMT
        Subject: C = US, O = Extreme Discord, OU = Chaos, L = Tallahassee, ST = FL, street = 3210 Holly Mill Run, postalCode = 30062, CN = www.totallyfake.com
        Subject Public Key Info:
            Public Key Algorithm: rsaEncryption
                Public-Key: (2048 bit)
                Modulus:
                    00:ba:4a:28:36:94:30:c6:19:ec:23:b6:8a:fa:2b:
                    1d:26:27:a0:cb:51:f5:e9:c0:67:38:66:f8:1b:54:
                    66:70:f8:ef:f8:36:0c:7b:e0:1a:77:39:fe:7e:26:
                    03:1a:4f:b0:1c:0b:46:75:ea:6e:e0:3d:1f:57:98:
                    fc:c2:15:1a:91:77:cc:0e:c9:11:ee:bb:b2:5d:83:
                    fa:09:22:db:96:40:3a:6d:04:e0:fd:1f:db:44:91:
                    b6:b4:9b:aa:24:40:d1:84:31:ce:93:97:a7:64:be:
                    2d:09:cf:68:50:c5:c4:b4:f1:ae:5d:fc:b1:a5:82:
                    f1:04:df:03:33:a7:47:c5:20:c2:7f:25:49:03:b1:
                    fb:d4:00:4a:63:b6:61:82:15:72:e0:e6:a0:bf:f2:
                    ae:7b:59:fa:ee:8d:1a:67:4d:4f:ac:47:cb:a2:8d:
                    bd:b6:6a:05:56:11:9c:fb:c1:ec:ac:b2:6c:25:db:
                    bf:70:b9:d2:ff:9a:b6:43:24:07:5c:6e:3e:c3:76:
                    86:40:77:d7:42:f3:d3:dc:5e:64:14:ce:a5:0e:8f:
                    1a:5c:b1:ad:b4:31:f1:89:3e:e5:95:a5:e7:cd:8f:
                    13:65:4b:89:dd:a8:d9:8d:32:d4:ce:fb:e5:53:a8:
                    44:dc:72:c7:2d:5c:6e:20:b0:75:bf:91:d5:d9:4f:
                    e6:2b
                Exponent: 65537 (0x10001)
        X509v3 extensions:
            X509v3 Basic Constraints: critical
                CA:FALSE
            X509v3 Authority Key Identifier: 
                keyid:01:02:03

            Authority Information Access: 
                OCSP - URI:http://theca.net/ocsp
                CA Issuers - URI:theca.net/totallythecert.crt

            X509v3 Subject Alternative Name: 
                IP Address:128.168.45.1
            X509v3 CRL Distribution Points: 

                Full Name:
                  URI:ldap://theca.net/crlpoint

            X509v3 Subject Key Identifier: 
                04:03:02:01
            X509v3 Key Usage: 
                Data Encipherment, Key Agreement
            X509v3 Extended Key Usage: 
                TLS Web Server Authentication, 1.2.840.113635.100.4.3, Signing KDC Response, Any Extended Key Usage
            X509v3 Certificate Policies: 
                Policy: 2.16.840.1.114414.1.7.23.1
                  CPS: http://certificates.starfieldtech.com/repository/

    Signature Algorithm: sha256WithRSAEncryption
         5e:6d:71:6d:33:a9:a3:6b:83:62:ec:38:81:48:12:19:89:a3:
         23:1b:e1:cb:11:3a:04:c3:59:ce:cb:5e:bc:07:40:e7:bd:95:
         6f:7a:38:5e:1d:f7:ef:1d:f7:5b:d4:93:e4:98:42:9e:90:6e:
         48:11:b0:5f:79:fb:17:6a:57:4a:87:c7:7d:d0:8b:bc:70:35:
         04:a7:a5:50:27:c8:bc:46:b5:44:f0:ae:35:37:ed:9b:e1:5f:
         c4:7b:22:a8:b9:45:b0:9d:ed:b9:fa:b2:ce:77:e3:11:32:e2:
         4a:cd:75:57:fe:db:19:de:5a:f4:7b:21:87:f4:4c:8e:8a:0e:
         41:95:77:25:80:fc:f0:70:91:6b:eb:8e:38:ba:53:c3:b2:0f:
         ef:1f:31:08:d2:9d:16:b9:4b:95:f4:02:98:1e:f2:88:70:07:
         82:b2:bb:11:79:13:15:e0:64:c4:8d:0e:db:39:88:77:ec:16:
         4e:f6:eb:10:a1:83:1d:be:0e:89:fe:d7:48:26:b8:89:90:cc:
         c9:68:47:54:5b:28:fd:7e:db:0a:41:f5:1d:2b:96:8e:b0:37:
         4c:6e:3c:d6:92:90:3b:43:ca:04:0c:64:c7:c9:de:3d:ee:a9:
         54:cd:6d:ec:0e:ba:a3:2d:58:43:8f:d0:52:a3:f0:cc:6c:46:
         c7:71:42:88
-----BEGIN CERTIFICATE-----
MIIE2zCCA8WgAwIBAgIEAN8B6DALBgkqhkiG9w0BAQswVDELMAkGA1UEBhMCVVMx
FjAUBgNVBAoTDU1vdGhlciBOYXR1cmUxEzARBgNVBAsTCkV2ZXJ5dGhpbmcxFjAU
BgNVBAMTDU1vdGhlciBOYXR1cmUxADAeFw0xNjEwMTAyMTM2MjlaFw0xNjEyMjIy
MjM2MjlaMIGoMQswCQYDVQQGEwJVUzEYMBYGA1UEChMPRXh0cmVtZSBEaXNjb3Jk
MQ4wDAYDVQQLEwVDaGFvczEUMBIGA1UEBxMLVGFsbGFoYXNzZWUxCzAJBgNVBAgT
AkZMMRwwGgYDVQQJExMzMjEwIEhvbGx5IE1pbGwgUnVuMQ4wDAYDVQQREwUzMDA2
MjEcMBoGA1UEAxMTd3d3LnRvdGFsbHlmYWtlLmNvbTEAMIIBIjANBgkqhkiG9w0B
AQEFAAOCAQ8AMIIBCgKCAQEAukooNpQwxhnsI7aK+isdJiegy1H16cBnOGb4G1Rm
cPjv+DYMe+Aadzn+fiYDGk+wHAtGdepu4D0fV5j8whUakXfMDskR7ruyXYP6CSLb
lkA6bQTg/R/bRJG2tJuqJEDRhDHOk5enZL4tCc9oUMXEtPGuXfyxpYLxBN8DM6dH
xSDCfyVJA7H71ABKY7ZhghVy4Oagv/Kue1n67o0aZ01PrEfLoo29tmoFVhGc+8Hs
rLJsJdu/cLnS/5q2QyQHXG4+w3aGQHfXQvPT3F5kFM6lDo8aXLGttDHxiT7llaXn
zY8TZUuJ3ajZjTLUzvvlU6hE3HLHLVxuILB1v5HV2U/mKwIDAQABo4IBYjCCAV4w
DAYDVR0TAQH/BAIwADAOBgNVHSMEBzAFgAMBAgMwWwYIKwYBBQUHAQEETzBNMCEG
CCsGAQUFBzABhhVodHRwOi8vdGhlY2EubmV0L29jc3AwKAYIKwYBBQUHMAKGHHRo
ZWNhLm5ldC90b3RhbGx5dGhlY2VydC5jcnQwDwYDVR0RBAgwBocEgKgtATAqBgNV
HR8EIzAhMB+gHaAbhhlsZGFwOi8vdGhlY2EubmV0L2NybHBvaW50MA0GA1UdDgQG
BAQEAwIBMAsGA1UdDwQEAwIBGDAtBgNVHSUEJjAkBggrBgEFBQcDAQYJKoZIhvdj
ZAQDBgcrBgEFAgMFBgRVHSUAMFkGA1UdIARSMFAwTgYLYIZIAYb9bgEHFwEwPzA9
BggrBgEFBQcCARYxaHR0cDovL2NlcnRpZmljYXRlcy5zdGFyZmllbGR0ZWNoLmNv
bS9yZXBvc2l0b3J5LzALBgkqhkiG9w0BAQsDggEBAF5tcW0zqaNrg2LsOIFIEhmJ
oyMb4csROgTDWc7LXrwHQOe9lW96OF4d9+8d91vUk+SYQp6QbkgRsF95+xdqV0qH
x33Qi7xwNQSnpVAnyLxGtUTwrjU37ZvhX8R7Iqi5RbCd7bn6ss534xEy4krNdVf+
2xneWvR7IYf0TI6KDkGVdyWA/PBwkWvrjji6U8OyD+8fMQjSnRa5S5X0Apge8ohw
B4KyuxF5ExXgZMSNDts5iHfsFk726xChgx2+Don+10gmuImQzMloR1RbKP1+2wpB
9R0rlo6wN0xuPNaSkDtDygQMZMfJ3j3uqVTNbewOuqMtWEOP0FKj8MxsRsdxQog=
-----END CERTIFICATE-----
