Certificate:
    Data:
        Version: 3 (0x2)
        Serial Number: 18008675309 (0x4316693ed)
    Signature Algorithm: sha256WithRSAEncryption
        Issuer: C = US, O = Mother Nature, OU = Everything, CN = Mother Nature
        Validity
            Not Before: Jun 30 16:20:24 2016 GMT
            Not After : Sep 11 16:20:24 2016 GMT
        Subject: C = US, ST = FL, L = Tallahassee, street = 3210 Holly Mill Run, postalCode = 30062, O = Extreme Discord, OU = Chaos, CN = gov.us
        Subject Public Key Info:
            Public Key Algorithm: rsaEncryption
                Public-Key: (2048 bit)
                Modulus:
                    00:a9:97:51:4e:db:59:43:98:dd:38:78:b5:30:22:
                    30:29:56:67:01:0a:69:0b:0a:ea:08:e7:17:74:b1:
                    cb:68:8d:c3:a4:17:5b:37:38:63:d0:5b:34:48:a5:
                    36:b0:95:05:d5:a5:e5:0e:03:44:fc:5f:04:e3:8f:
                    50:a6:74:b7:7a:af:25:5b:9f:db:53:c7:64:2e:f8:
                    83:e0:db:bd:5b:10:74:05:15:00:b0:db:5b:b1:27:
                    3b:6d:f9:09:f1:19:1b:f8:cb:c4:84:68:05:20:87:
                    41:d9:0c:a7:0c:c1:d3:cc:c5:a9:94:92:b7:a7:73:
                    79:43:b0:1e:a2:2f:eb:ac:11:0b:78:27:e4:b9:ab:
                    4b:81:5c:70:03:9b:0f:c3:95:35:11:67:e9:91:65:
                    19:5d:73:80:31:8b:6a:25:b6:15:40:69:28:17:88:
                    07:a6:55:bb:37:9b:14:04:ae:d3:35:f2:fe:94:df:
                    92:47:56:5d:e2:95:61:af:2a:3c:cf:c4:67:34:7f:
                    75:fa:1b:71:15:05:fe:ac:83:aa:ec:67:0b:8a:4d:
                    8c:5e:6d:6e:58:b7:4b:e3:d5:95:2e:4f:40:a4:7e:
                    c7:44:4b:03:85:09:a2:16:f3:1d:ff:29:fa:e7:b4:
                    1f:5d:28:c9:37:79:80:45:84:b8:7f:aa:17:f3:d2:
                    d3:2b
                Exponent: 65537 (0x10001)
        X509v3 extensions:
            X509v3 Key Usage: critical
                Digital Signature, Key Encipherment
            X509v3 Extended Key Usage: 
                TLS Web Client Authentication, TLS Web Server Authentication
            X509v3 Basic Constraints: critical
                CA:FALSE
            X509v3 Authority Key Identifier: 
                keyid:01:02:03

            Authority Information Access: 
                OCSP - URI:http://theca.net/ocsp
                CA Issuers - URI:http://theca.net/totallythecert.crt

            X509v3 Certificate Policies: 
                Policy: 1.3.6.1.5.5.7.13.1
                Policy: 2.23.140.1.2.2
                Policy: 1.3.6.1.5.5.7.13.1

            X509v3 Subject Key Identifier: 
                04:03:02:01
            X509v3 Subject Alternative Name: 
                DNS:*.gov.us, DNS:gov.us
            X509v3 Issuer Alternative Name: 
                DNS:allthethings.net, DNS:theca.net, DNS: 
    Signature Algorithm: sha256WithRSAEncryption
         0f:47:3c:18:8b:83:1b:f1:04:af:fd:6d:16:72:75:23:c4:8d:
         31:1f:c6:35:59:7d:a2:6b:c7:7e:46:77:66:0a:3c:30:0b:68:
         5e:f3:15:e6:39:94:5d:be:b8:9c:a9:af:fc:37:8c:1c:e8:8c:
         04:7b:db:55:c9:a1:ad:46:52:a8:b0:e5:d1:af:7c:f1:ab:bb:
         df:2f:f4:27:ec:ae:74:0c:61:fd:1e:c8:2d:a6:d5:08:e1:13:
         73:2c:62:96:dd:f3:df:bd:8b:b7:b8:4f:d6:85:a6:a4:fd:2c:
         28:96:51:a1:4f:14:cc:38:07:ab:0a:b8:5b:58:01:42:98:ce:
         18:a9:47:65:30:34:8c:2f:db:6e:c0:46:35:5f:65:57:fd:66:
         e5:0a:f6:fa:92:5a:fe:36:3a:ed:84:79:19:19:15:04:05:eb:
         9d:3a:79:10:58:61:22:d4:1d:a8:98:86:b8:11:40:45:c0:ea:
         9d:49:d0:06:34:bd:e2:78:65:29:c7:e9:90:64:66:d6:9a:eb:
         f9:29:fc:04:de:59:7a:91:80:53:25:ea:9e:58:52:3b:c0:75:
         68:7e:fa:6e:d0:28:83:42:20:89:3a:bb:c1:e9:82:77:e4:30:
         ee:d0:79:87:32:49:59:67:43:13:b0:cb:b0:98:cd:56:c4:19:
         01:52:04:b8
-----BEGIN CERTIFICATE-----
MIIEpjCCA46gAwIBAgIFBDFmk+0wDQYJKoZIhvcNAQELBQAwUjELMAkGA1UEBhMC
VVMxFjAUBgNVBAoTDU1vdGhlciBOYXR1cmUxEzARBgNVBAsTCkV2ZXJ5dGhpbmcx
FjAUBgNVBAMTDU1vdGhlciBOYXR1cmUwHhcNMTYwNjMwMTYyMDI0WhcNMTYwOTEx
MTYyMDI0WjCBmTELMAkGA1UEBhMCVVMxCzAJBgNVBAgTAkZMMRQwEgYDVQQHEwtU
YWxsYWhhc3NlZTEcMBoGA1UECRMTMzIxMCBIb2xseSBNaWxsIFJ1bjEOMAwGA1UE
ERMFMzAwNjIxGDAWBgNVBAoTD0V4dHJlbWUgRGlzY29yZDEOMAwGA1UECxMFQ2hh
b3MxDzANBgNVBAMTBmdvdi51czCCASIwDQYJKoZIhvcNAQEBBQADggEPADCCAQoC
ggEBAKmXUU7bWUOY3Th4tTAiMClWZwEKaQsK6gjnF3Sxy2iNw6QXWzc4Y9BbNEil
NrCVBdWl5Q4DRPxfBOOPUKZ0t3qvJVuf21PHZC74g+DbvVsQdAUVALDbW7EnO235
CfEZG/jLxIRoBSCHQdkMpwzB08zFqZSSt6dzeUOwHqIv66wRC3gn5LmrS4FccAOb
D8OVNRFn6ZFlGV1zgDGLaiW2FUBpKBeIB6ZVuzebFASu0zXy/pTfkkdWXeKVYa8q
PM/EZzR/dfobcRUF/qyDquxnC4pNjF5tbli3S+PVlS5PQKR+x0RLA4UJohbzHf8p
+ue0H10oyTd5gEWEuH+qF/PS0ysCAwEAAaOCATkwggE1MA4GA1UdDwEB/wQEAwIF
oDAdBgNVHSUEFjAUBggrBgEFBQcDAgYIKwYBBQUHAwEwDAYDVR0TAQH/BAIwADAO
BgNVHSMEBzAFgAMBAgMwYgYIKwYBBQUHAQEEVjBUMCEGCCsGAQUFBzABhhVodHRw
Oi8vdGhlY2EubmV0L29jc3AwLwYIKwYBBQUHMAKGI2h0dHA6Ly90aGVjYS5uZXQv
dG90YWxseXRoZWNlcnQuY3J0MCsGA1UdIAQkMCIwCgYIKwYBBQUHDQEwCAYGZ4EM
AQICMAoGCCsGAQUFBw0BMA0GA1UdDgQGBAQEAwIBMBsGA1UdEQQUMBKCCCouZ292
LnVzggZnb3YudXMwKQYDVR0SBCIwIIIQYWxsdGhldGhpbmdzLm5ldIIJdGhlY2Eu
bmV0ggEgMA0GCSqGSIb3DQEBCwUAA4IBAQAPRzwYi4Mb8QSv/W0WcnUjxI0xH8Y1
WX2ia8d+RndmCjwwC2he8xXmOZRdvricqa/8N4wc6IwEe9tVyaGtRlKosOXRr3zx
q7vfL/Qn7K50DGH9HsgtptUI4RNzLGKW3fPfvYu3uE/Whaak/SwollGhTxTMOAer
CrhbWAFCmM4YqUdlMDSML9tuwEY1X2VX/WblCvb6klr+NjrthHkZGRUEBeudOnkQ
WGEi1B2omIa4EUBFwOqdSdAGNL3ieGUpx+mQZGbWmuv5KfwE3ll6kYBTJeqeWFI7
wHVofvpu0CiDQiCJOrvB6YJ35DDu0HmHMklZZ0MTsMuwmM1WxBkBUgS4
-----END CERTIFICATE-----
