Certificate:
    Data:
        Version: 3 (0x2)
        Serial Number: 18008675309 (0x4316693ed)
    Signature Algorithm: sha256WithRSAEncryption
        Issuer: C = US, O = Mother Nature, OU = Everything, CN = Mother Nature
        Validity
            Not Before: Apr 14 21:18:00 2017 GMT
            Not After : Jun 26 21:18:00 2017 GMT
        Subject: C = US, ST = FL, L = Tallahassee, street = 3210 Holly Mill Run, postalCode = 30062, O = Extreme Discord, OU = Chaos, CN = gov.us
        Subject Public Key Info:
            Public Key Algorithm: rsaEncryption
                Public-Key: (2048 bit)
                Modulus:
                    00:a6:e1:f5:70:52:92:7a:b0:69:1d:2f:ea:ad:8c:
                    db:1a:26:96:f4:21:7e:76:82:f2:1a:e4:bc:eb:a2:
                    22:4f:c1:a2:b5:cf:d6:96:21:79:16:d8:9a:53:c2:
                    4e:10:3c:03:db:69:a2:b9:c6:ed:9c:68:39:b1:e2:
                    cd:7b:c4:36:ca:b8:13:39:d8:dc:16:66:e5:96:2f:
                    c6:8a:e3:43:55:a8:0b:a4:30:e9:07:78:60:fc:c2:
                    3c:ed:ff:ec:a7:2d:66:93:f1:19:52:f8:ec:eb:5a:
                    d6:9e:1b:48:f1:a6:af:d1:a2:74:99:37:63:11:e6:
                    33:77:da:02:30:24:75:4a:0c:75:17:a0:82:22:12:
                    bd:69:d7:f8:e6:b3:00:34:f4:01:d2:2f:b3:70:d0:
                    cc:71:01:90:22:18:0c:3c:06:6f:2a:db:1c:c2:b6:
                    79:cd:12:b8:52:33:08:a5:d6:c8:14:d3:df:d4:f8:
                    b2:44:bb:d0:dd:ba:55:92:cb:71:c3:12:5b:ae:a5:
                    c9:a6:42:51:32:c2:18:90:83:05:43:47:7e:63:a2:
                    ba:a0:50:36:80:90:5c:81:33:12:d3:1e:15:f7:b5:
                    47:c3:03:05:34:24:ec:dd:37:3a:40:f4:64:d7:07:
                    6d:12:06:5c:7c:24:fe:00:b9:f6:e0:5e:fb:3d:42:
                    a6:51
                Exponent: 65537 (0x10001)
        X509v3 extensions:
            X509v3 Key Usage: critical
                Digital Signature, Key Encipherment
            X509v3 Extended Key Usage: 
                TLS Web Client Authentication, TLS Web Server Authentication
            X509v3 Basic Constraints: critical
                CA:FALSE
            X509v3 Authority Key Identifier: 
                keyid:01:02:03

            Authority Information Access: 
                OCSP - URI:http://theca.net/ocsp
                CA Issuers - URI:http://theca.net/totallythecert.crt

            X509v3 Certificate Policies: 
                Policy: 2.23.140.1.2.2

            X509v3 Subject Key Identifier: 
                04:03:02:01
            X509v3 Issuer Alternative Name: 
                DNS:gov, DNS:gov.us
    Signature Algorithm: sha256WithRSAEncryption
         66:e4:7d:fe:d9:d7:52:95:77:21:a3:50:e3:c1:70:93:2c:aa:
         4e:12:c5:00:ff:7d:d2:aa:a3:c5:24:b2:7a:24:0f:96:4c:42:
         94:e6:6f:e0:49:2d:8e:f9:0f:da:b9:23:db:38:68:83:23:cd:
         6d:b2:cd:c6:22:3b:f4:75:f3:4b:bb:75:70:ab:da:ba:d8:1e:
         b7:02:14:8b:b7:af:68:d3:32:8d:33:84:c3:42:38:ad:cd:99:
         07:dc:9e:fa:e9:91:02:9b:52:71:25:d2:dd:99:7d:ab:fd:d4:
         a1:02:bb:be:3e:a2:cb:49:9c:05:72:fd:da:ea:50:91:ce:f4:
         ec:f7:a8:8e:36:da:ab:b9:da:6d:67:b0:05:f1:c3:74:42:78:
         6f:52:91:18:84:7a:0a:af:62:60:0a:c9:7d:f3:da:c1:73:a0:
         10:50:6d:9c:3a:ee:e3:f4:82:1c:a1:63:02:75:72:be:9c:69:
         44:d7:66:c9:23:a5:2c:51:ab:8a:9c:a3:e2:8a:d6:53:d2:73:
         b1:f2:d6:11:2c:c4:8f:3d:46:e4:3d:57:be:fa:86:dc:5d:19:
         53:e3:13:87:1f:ef:0f:f8:96:1d:da:c6:08:e9:a9:37:a5:67:
         e6:df:2c:7d:13:02:63:46:77:c4:65:b7:c5:4a:9b:9a:f0:16:
         ba:cd:89:94
-----BEGIN CERTIFICATE-----
MIIEXDCCA0SgAwIBAgIFBDFmk+0wDQYJKoZIhvcNAQELBQAwUjELMAkGA1UEBhMC
VVMxFjAUBgNVBAoTDU1vdGhlciBOYXR1cmUxEzARBgNVBAsTCkV2ZXJ5dGhpbmcx
FjAUBgNVBAMTDU1vdGhlciBOYXR1cmUwHhcNMTcwNDE0MjExODAwWhcNMTcwNjI2
MjExODAwWjCBmTELMAkGA1UEBhMCVVMxCzAJBgNVBAgTAkZMMRQwEgYDVQQHEwtU
YWxsYWhhc3NlZTEcMBoGA1UECRMTMzIxMCBIb2xseSBNaWxsIFJ1bjEOMAwGA1UE
ERMFMzAwNjIxGDAWBgNVBAoTD0V4dHJlbWUgRGlzY29yZDEOMAwGA1UECxMFQ2hh
b3MxDzANBgNVBAMTBmdvdi51czCCASIwDQYJKoZIhvcNAQEBBQADggEPADCCAQoC
ggEBAKbh9XBSknqwaR0v6q2M2xomlvQhfnaC8hrkvOuiIk/BorXP1pYheRbYmlPC
ThA8A9tpornG7ZxoObHizXvENsq4EznY3BZm5ZYvxorjQ1WoC6Qw6Qd4YPzCPO3/
7KctZpPxGVL47Ota1p4bSPGmr9GidJk3YxHmM3faAjAkdUoMdReggiISvWnX+Oaz
ADT0AdIvs3DQzHEBkCIYDDwGbyrbHMK2ec0SuFIzCKXWyBTT39T4skS70N26VZLL
ccMSW66lyaZCUTLCGJCDBUNHfmOiuqBQNoCQXIEzEtMeFfe1R8MDBTQk7N03OkD0
ZNcHbRIGXHwk/gC59uBe+z1CplECAwEAAaOB8DCB7TAOBgNVHQ8BAf8EBAMCBaAw
HQYDVR0lBBYwFAYIKwYBBQUHAwIGCCsGAQUFBwMBMAwGA1UdEwEB/wQCMAAwDgYD
VR0jBAcwBYADAQIDMGIGCCsGAQUFBwEBBFYwVDAhBggrBgEFBQcwAYYVaHR0cDov
L3RoZWNhLm5ldC9vY3NwMC8GCCsGAQUFBzAChiNodHRwOi8vdGhlY2EubmV0L3Rv
dGFsbHl0aGVjZXJ0LmNydDATBgNVHSAEDDAKMAgGBmeBDAECAjANBgNVHQ4EBgQE
BAMCATAWBgNVHRIEDzANggNnb3aCBmdvdi51czANBgkqhkiG9w0BAQsFAAOCAQEA
ZuR9/tnXUpV3IaNQ48FwkyyqThLFAP990qqjxSSyeiQPlkxClOZv4EktjvkP2rkj
2zhogyPNbbLNxiI79HXzS7t1cKvautgetwIUi7evaNMyjTOEw0I4rc2ZB9ye+umR
AptScSXS3Zl9q/3UoQK7vj6iy0mcBXL92upQkc707Peojjbaq7nabWewBfHDdEJ4
b1KRGIR6Cq9iYArJffPawXOgEFBtnDru4/SCHKFjAnVyvpxpRNdmySOlLFGripyj
4orWU9JzsfLWESzEjz1G5D1XvvqG3F0ZU+MThx/vD/iWHdrGCOmpN6Vn5t8sfRMC
Y0Z3xGW3xUqbmvAWus2JlA==
-----END CERTIFICATE-----
