Certificate:
    Data:
        Version: 3 (0x2)
        Serial Number: 18008675309 (0x4316693ed)
    Signature Algorithm: sha256WithRSAEncryption
        Issuer: C = US, O = Mother Nature, OU = Everything, CN = Name constraint
        Validity
            Not Before: Dec  1 06:07:08 2055 GMT
            Not After : Oct  6 04:48:26 2056 GMT
        Subject: C = US, O = Extreme Discord, OU = Chaos, L = Tallahassee, ST = FL, street = 3210 Holly Mill Run, postalCode = 30062, CN = gov.us
        Subject Public Key Info:
            Public Key Algorithm: rsaEncryption
                Public-Key: (2048 bit)
                Modulus:
                    00:dd:47:06:a4:83:d7:1e:af:47:20:5b:ba:65:3e:
                    d1:57:e3:1c:32:b7:2b:01:73:60:9e:38:b6:3c:7e:
                    3d:1c:9f:2e:65:3d:2f:4a:01:be:25:33:97:f8:5f:
                    ae:60:cb:1a:c9:b1:56:0c:f4:32:70:b0:9b:46:c1:
                    be:51:c9:8d:69:7d:28:36:5d:98:5b:91:66:49:32:
                    4f:55:16:b2:99:7c:93:03:75:5a:2d:d6:22:a8:5b:
                    33:88:1d:7c:b2:10:91:17:ca:0d:a0:d4:ce:46:2e:
                    19:a8:62:83:78:9b:c2:c3:74:49:96:a0:5d:8e:e4:
                    a3:67:69:c1:e6:7f:b3:91:25:28:1a:a5:f7:9f:6b:
                    3f:59:9b:df:65:16:bc:25:27:9c:2b:28:ea:76:ec:
                    c7:f2:0d:88:9f:d8:cd:a7:92:32:61:0e:a8:e2:ad:
                    b8:21:39:26:83:92:de:6a:5e:7c:22:88:c7:88:79:
                    0d:4e:3f:47:76:58:69:4f:e5:b9:08:60:2e:35:35:
                    5f:76:df:fc:77:7a:7e:2d:a1:be:7c:34:5d:5a:9b:
                    32:c1:28:f5:b7:35:f4:60:5e:c9:86:06:ae:9c:1b:
                    1d:ae:9e:22:a8:b8:98:04:82:0a:ec:c2:04:e0:4e:
                    49:fd:8b:69:fb:67:39:d3:2e:93:cc:3e:23:af:bc:
                    95:d1
                Exponent: 65537 (0x10001)
        X509v3 extensions:
            X509v3 Key Usage: critical
                Digital Signature, Key Encipherment, Certificate Sign
            X509v3 Extended Key Usage: 
                TLS Web Client Authentication, TLS Web Server Authentication
            X509v3 Basic Constraints: critical
                CA:TRUE
            X509v3 Authority Key Identifier: 
                keyid:01:02:03

            Authority Information Access: 
                OCSP - URI:http://theca.net/ocsp
                CA Issuers - URI:http://theca.net/totallythecert.crt

            X509v3 Subject Alternative Name: 
                URI:irrelevantinfo//user@192.168.1.1, DNS:www.dns.com
            X509v3 Issuer Alternative Name: 
                URI:€`
            X509v3 Certificate Policies: 
                Policy: 2.23.140.1.2.2
                Policy: 1.2.3.4.5

            X509v3 Name Constraints: 
                Permitted:
                  email:good_email@gg.com
                  email:LulMail
                  DNS:permitted.com
                  DirName:C = US, O = UIUC, OU = ECE, L = Champaign, ST = IL, street = 601 Wright St, postalCode = 61820, CN = uiuc.net
                  IP:74.125.224.72/255.255.0.0
                Excluded:
                  email:bad_email@gg.com
                  email:LulMail
                  DNS:banned.com
                  DirName:C = US, O = Umich, OU = CS, L = Ann Arbor, ST = MI, street = 500 State St, postalCode = 48109, CN = umich.net
                  IP:192.168.1.1/255.255.0.0

    Signature Algorithm: sha256WithRSAEncryption
         6a:a5:bc:e7:0c:fd:f2:49:32:e0:9f:87:4a:a3:ed:30:f2:b4:
         db:6b:c4:b7:53:1f:16:ad:fd:77:8c:13:ac:16:89:35:ae:9b:
         8e:8c:ef:e5:4a:b5:e8:eb:0f:f1:3f:22:01:3e:59:3c:96:73:
         26:91:fc:68:46:8e:67:16:13:a0:d6:5d:0e:33:45:ae:0e:25:
         77:4c:6c:c3:e6:58:ee:7e:39:20:6c:31:e9:85:c8:25:4e:fd:
         24:ab:95:20:9d:57:8e:da:46:9e:6b:59:1f:26:3a:f3:75:87:
         ed:72:fa:a5:45:82:f5:56:e5:b2:67:4e:6a:98:56:bf:a1:a0:
         9b:10:b9:14:1a:d6:29:1d:cd:ec:17:df:a6:aa:0b:e7:eb:f9:
         ec:ac:2f:be:90:f9:cb:ce:a4:f0:6a:8c:bd:c3:56:17:0d:ba:
         f5:13:56:18:ef:8e:a4:dc:e2:99:4d:80:91:91:50:51:24:1e:
         e0:fe:a4:a3:84:10:57:d5:ff:b4:2c:ab:83:a0:31:02:c3:1e:
         3e:6b:b8:5c:af:1c:68:87:1f:3c:c7:70:2c:fb:18:46:28:dd:
         da:5c:15:15:b5:4c:1a:66:3e:71:c0:46:ff:e9:40:7b:05:da:
         1d:b7:99:1a:17:18:2d:cb:e0:c7:68:95:6d:0e:29:10:6c:75:
         f5:0e:70:da
-----BEGIN CERTIFICATE-----
MIIGQTCCBSugAwIBAgIFBDFmk+0wCwYJKoZIhvcNAQELMFYxCzAJBgNVBAYTAlVT
MRYwFAYDVQQKEw1Nb3RoZXIgTmF0dXJlMRMwEQYDVQQLEwpFdmVyeXRoaW5nMRgw
FgYDVQQDEw9OYW1lIGNvbnN0cmFpbnQxADAiGA8yMDU1MTIwMTA2MDcwOFoYDzIw
NTYxMDA2MDQ0ODI2WjCBmzELMAkGA1UEBhMCVVMxGDAWBgNVBAoTD0V4dHJlbWUg
RGlzY29yZDEOMAwGA1UECxMFQ2hhb3MxFDASBgNVBAcTC1RhbGxhaGFzc2VlMQsw
CQYDVQQIEwJGTDEcMBoGA1UECRMTMzIxMCBIb2xseSBNaWxsIFJ1bjEOMAwGA1UE
ERMFMzAwNjIxDzANBgNVBAMTBmdvdi51czEAMIIBIjANBgkqhkiG9w0BAQEFAAOC
AQ8AMIIBCgKCAQEA3UcGpIPXHq9HIFu6ZT7RV+McMrcrAXNgnji2PH49HJ8uZT0v
SgG+JTOX+F+uYMsaybFWDPQycLCbRsG+UcmNaX0oNl2YW5FmSTJPVRaymXyTA3Va
LdYiqFsziB18shCRF8oNoNTORi4ZqGKDeJvCw3RJlqBdjuSjZ2nB5n+zkSUoGqX3
n2s/WZvfZRa8JSecKyjqduzH8g2In9jNp5IyYQ6o4q24ITkmg5Leal58IojHiHkN
Tj9HdlhpT+W5CGAuNTVfdt/8d3p+LaG+fDRdWpsywSj1tzX0YF7JhgaunBsdrp4i
qLiYBIIK7MIE4E5J/Ytp+2c50y6TzD4jr7yV0QIDAQABo4ICzjCCAsowDgYDVR0P
AQH/BAQDAgCkMB0GA1UdJQQWMBQGCCsGAQUFBwMCBggrBgEFBQcDATAPBgNVHRMB
Af8EBTADAQH/MA4GA1UdIwQHMAWAAwECAzBiBggrBgEFBQcBAQRWMFQwIQYIKwYB
BQUHMAGGFWh0dHA6Ly90aGVjYS5uZXQvb2NzcDAvBggrBgEFBQcwAoYjaHR0cDov
L3RoZWNhLm5ldC90b3RhbGx5dGhlY2VydC5jcnQwOAYDVR0RBDEwL4YgaXJyZWxl
dmFudGluZm8vL3VzZXJAMTkyLjE2OC4xLjGCC3d3dy5kbnMuY29tMA4GA1UdEgQH
MAWGA4BgFzAbBgNVHSAEFDASMAgGBmeBDAECAjAGBgQqAwQFMIIBqwYDVR0eBIIB
ojCCAZ6ggc4wE4ERZ29vZF9lbWFpbEBnZy5jb20wCYEHTHVsTWFpbDAPgg1wZXJt
aXR0ZWQuY29tMIGOpIGLMIGIMQswCQYDVQQGEwJVUzENMAsGA1UEChMEVUlVQzEM
MAoGA1UECxMDRUNFMRIwEAYDVQQHEwlDaGFtcGFpZ24xCzAJBgNVBAgTAklMMRYw
FAYDVQQJEw02MDEgV3JpZ2h0IFN0MQ4wDAYDVQQREwU2MTgyMDERMA8GA1UEAxMI
dWl1Yy5uZXQxADAKhwhKfeBI//8AAKGByjASgRBiYWRfZW1haWxAZ2cuY29tMAmB
B0x1bE1haWwwDIIKYmFubmVkLmNvbTCBjqSBizCBiDELMAkGA1UEBhMCVVMxDjAM
BgNVBAoTBVVtaWNoMQswCQYDVQQLEwJDUzESMBAGA1UEBxMJQW5uIEFyYm9yMQsw
CQYDVQQIEwJNSTEVMBMGA1UECRMMNTAwIFN0YXRlIFN0MQ4wDAYDVQQREwU0ODEw
OTESMBAGA1UEAxMJdW1pY2gubmV0MQAwCocIwKgBAf//AAAwCwYJKoZIhvcNAQEL
A4IBAQBqpbznDP3ySTLgn4dKo+0w8rTba8S3Ux8Wrf13jBOsFok1rpuOjO/lSrXo
6w/xPyIBPlk8lnMmkfxoRo5nFhOg1l0OM0WuDiV3TGzD5ljufjkgbDHphcglTv0k
q5UgnVeO2kaea1kfJjrzdYftcvqlRYL1VuWyZ05qmFa/oaCbELkUGtYpHc3sF9+m
qgvn6/nsrC++kPnLzqTwaoy9w1YXDbr1E1YY746k3OKZTYCRkVBRJB7g/qSjhBBX
1f+0LKuDoDECwx4+a7hcrxxohx88x3As+xhGKN3aXBUVtUwaZj5xwEb/6UB7Bdod
t5kaFxgty+DHaJVtDikQbHX1DnDa
-----END CERTIFICATE-----
