Certificate:
    Data:
        Version: 3 (0x2)
        Serial Number:
            33:eb:70:07:cc:9e:25:87:68:e0:58:6b:f2:7b:4f:ea
    Signature Algorithm: sha256WithRSAEncryption
        Issuer: C=US, O=thawte, Inc., OU=Domain Validated SSL, CN=thawte DV SSL CA - G2
        Validity
            Not Before: Aug 26 00:00:00 2016 GMT
            Not After : Aug 26 23:59:59 2017 GMT
        Subject: CN=\xD0\xB0\xD0\xB4\xD0\xB2\xD0\xBE\xD0\xBA\xD0\xB0\xD1\x82\xD1\x81\xD0\xBA\xD0\xB0\xD1\x8F-\xD0\xBA\xD0\xBE\xD0\xBD\xD1\x82\xD0\xBE\xD1\x80\xD0\xB0.\xD0\xBC\xD0\xBE\xD1\x81\xD0\xBA\xD0\xB2\xD0\xB0
        Subject Public Key Info:
            Public Key Algorithm: rsaEncryption
                Public-Key: (2048 bit)
                Modulus:
                    00:c1:2c:87:02:18:56:ab:dd:16:14:5f:c5:07:5d:
                    8d:61:ef:4e:73:ac:5e:16:e5:90:ff:01:64:15:f9:
                    4a:37:1b:50:0a:40:0f:84:fe:a9:2d:b3:0f:e7:f3:
                    e0:90:5b:4b:40:b1:ce:e3:35:1b:73:61:14:67:53:
                    d1:06:1a:93:f9:c5:11:2e:3b:73:3a:5e:95:ab:0a:
                    14:aa:92:04:c7:eb:fa:8f:9e:3c:6c:b2:82:da:39:
                    63:c0:ab:ff:1b:8f:67:29:e8:0e:8e:11:cd:7c:10:
                    00:f9:d4:0a:01:7c:16:9e:cd:02:65:bf:ff:be:b7:
                    1f:c9:ef:64:d0:31:46:e0:a0:55:6b:19:9e:ce:5e:
                    57:44:58:ce:67:3c:70:d2:b3:93:e1:e8:42:47:d0:
                    17:80:f6:70:a5:af:f6:4e:25:9d:c6:5e:cb:76:97:
                    53:6c:ab:44:ae:c7:bc:bf:77:19:b1:75:e0:d4:d5:
                    bc:88:26:d2:27:19:71:eb:9c:c0:da:75:f2:c6:4c:
                    4e:fc:c8:35:e4:2e:54:e8:c6:14:5d:52:8d:ba:0e:
                    d9:84:09:ed:14:3d:a3:06:7e:60:f2:b4:da:bf:ef:
                    2a:49:e0:85:ea:bc:a1:22:55:22:65:a6:da:ef:ae:
                    d5:94:03:92:db:78:a0:2f:b4:f3:e3:11:e5:f0:04:
                    30:ed
                Exponent: 65537 (0x10001)
        X509v3 extensions:
            X509v3 Subject Alternative Name: 
                DNS:xn----7sbaabin3cbc7afgb4aiqh6v.xn--80adxhks, DNS:www.xn----7sbaabin3cbc7afgb4aiqh6v.xn--80adxhks
            X509v3 Basic Constraints: 
                CA:FALSE
            X509v3 CRL Distribution Points: 

                Full Name:
                  URI:http://tn.symcb.com/tn.crl

            X509v3 Certificate Policies: 
                Policy: 2.23.140.1.2.1
                  CPS: https://www.thawte.com/cps
                  User Notice:
                    Explicit Text: https://www.thawte.com/repository

            X509v3 Authority Key Identifier: 
                keyid:9F:B8:C1:A9:6C:F2:F5:C0:22:2A:94:ED:5C:99:AC:D4:EC:D7:C6:07

            X509v3 Key Usage: critical
                Digital Signature, Key Encipherment
            X509v3 Extended Key Usage: 
                TLS Web Server Authentication, TLS Web Client Authentication
            Authority Information Access: 
                OCSP - URI:http://tn.symcd.com
                CA Issuers - URI:http://tn.symcb.com/tn.crt

            CT Precertificate SCTs: 
                Signed Certificate Timestamp:
                    Version   : v1(0)
                    Log ID    : DD:EB:1D:2B:7A:0D:4F:A6:20:8B:81:AD:81:68:70:7E:
                                2E:8E:9D:01:D5:5C:88:8D:3D:11:C4:CD:B6:EC:BE:CC
                    Timestamp : Aug 26 19:16:18.144 2016 GMT
                    Extensions: none
                    Signature : ecdsa-with-SHA256
                                30:45:02:21:00:CD:9B:62:A1:52:80:36:A3:B8:F6:FA:
                                6F:42:9A:95:88:5D:C9:12:09:E0:E4:C8:9B:1E:AF:5A:
                                66:02:44:0F:AA:02:20:35:49:9B:2F:2B:73:58:E9:11:
                                B3:D9:38:C3:9F:3A:FB:BA:08:99:39:5A:1D:67:34:3B:
                                71:2E:EF:5E:42:FF:DE
                Signed Certificate Timestamp:
                    Version   : v1(0)
                    Log ID    : A4:B9:09:90:B4:18:58:14:87:BB:13:A2:CC:67:70:0A:
                                3C:35:98:04:F9:1B:DF:B8:E3:77:CD:0E:C8:0D:DC:10
                    Timestamp : Aug 26 19:16:18.476 2016 GMT
                    Extensions: none
                    Signature : ecdsa-with-SHA256
                                30:46:02:21:00:A9:6B:80:D1:F4:C6:52:37:B2:EF:9E:
                                56:F9:D2:FC:16:95:ED:DD:8D:A5:47:67:AB:67:D5:00:
                                64:29:DE:BE:FA:02:21:00:A4:1E:3E:AD:0E:5D:1D:8F:
                                C5:73:BD:1B:43:93:D5:1B:64:72:0C:CD:44:DB:78:B4:
                                9C:C2:91:C8:9D:6B:77:1D
    Signature Algorithm: sha256WithRSAEncryption
         26:8c:ad:f2:c6:2b:58:c8:8c:85:f3:1b:0a:27:9b:20:7a:db:
         82:af:e4:08:25:29:7b:29:2a:69:97:e0:d6:4a:60:0f:d5:29:
         8c:f1:85:68:83:c0:78:30:ec:99:16:22:c9:1d:4c:42:20:0b:
         83:97:79:16:65:05:22:13:aa:0a:90:84:18:9c:36:37:0f:ad:
         ac:9f:2e:98:e0:51:7e:f5:81:39:f0:4e:b4:a4:12:d0:59:54:
         7f:dc:37:15:c7:31:c6:6e:0b:69:8b:c4:91:83:bf:fd:f8:3c:
         66:fe:f5:13:d7:5a:88:f3:42:53:eb:97:41:be:09:78:a7:a6:
         c2:b9:72:b0:14:92:46:e5:98:31:84:8a:89:b7:f1:89:82:2d:
         c5:ff:17:bd:fa:a6:de:8c:67:9c:ac:28:90:a5:c3:40:ae:a7:
         50:d2:c2:a4:08:93:75:7f:ca:49:d1:c0:0e:c7:d0:dc:39:58:
         62:28:7f:f8:a7:4b:cc:04:16:0f:91:2b:9b:7f:2d:71:d3:ab:
         6a:f6:ed:fb:86:d4:d6:7a:18:18:40:92:75:83:65:60:11:1e:
         55:81:62:dd:12:1d:bb:60:b6:17:a5:8e:07:3c:6c:50:10:8d:
         4b:6f:4c:58:b0:ea:5a:43:74:cf:50:e6:fa:66:72:ed:5e:72:
         74:87:3b:68
-----BEGIN CERTIFICATE-----
MIIF8zCCBNugAwIBAgIQM+twB8yeJYdo4Fhr8ntP6jANBgkqhkiG9w0BAQsFADBj
MQswCQYDVQQGEwJVUzEVMBMGA1UEChMMdGhhd3RlLCBJbmMuMR0wGwYDVQQLExRE
b21haW4gVmFsaWRhdGVkIFNTTDEeMBwGA1UEAxMVdGhhd3RlIERWIFNTTCBDQSAt
IEcyMB4XDTE2MDgyNjAwMDAwMFoXDTE3MDgyNjIzNTk1OVowPTE7MDkGA1UEAwwy
0LDQtNCy0L7QutCw0YLRgdC60LDRjy3QutC+0L3RgtC+0YDQsC7QvNC+0YHQutCy
0LAwggEiMA0GCSqGSIb3DQEBAQUAA4IBDwAwggEKAoIBAQDBLIcCGFar3RYUX8UH
XY1h705zrF4W5ZD/AWQV+Uo3G1AKQA+E/qktsw/n8+CQW0tAsc7jNRtzYRRnU9EG
GpP5xREuO3M6XpWrChSqkgTH6/qPnjxssoLaOWPAq/8bj2cp6A6OEc18EAD51AoB
fBaezQJlv/++tx/J72TQMUbgoFVrGZ7OXldEWM5nPHDSs5Ph6EJH0BeA9nClr/ZO
JZ3GXst2l1Nsq0Sux7y/dxmxdeDU1byIJtInGXHrnMDadfLGTE78yDXkLlToxhRd
Uo26DtmECe0UPaMGfmDytNq/7ypJ4IXqvKEiVSJlptrvrtWUA5LbeKAvtPPjEeXw
BDDtAgMBAAGjggLHMIICwzBnBgNVHREEYDBegit4bi0tLS03c2JhYWJpbjNjYmM3
YWZnYjRhaXFoNnYueG4tLTgwYWR4aGtzgi93d3cueG4tLS0tN3NiYWFiaW4zY2Jj
N2FmZ2I0YWlxaDZ2LnhuLS04MGFkeGhrczAJBgNVHRMEAjAAMCsGA1UdHwQkMCIw
IKAeoByGGmh0dHA6Ly90bi5zeW1jYi5jb20vdG4uY3JsMG4GA1UdIARnMGUwYwYG
Z4EMAQIBMFkwJgYIKwYBBQUHAgEWGmh0dHBzOi8vd3d3LnRoYXd0ZS5jb20vY3Bz
MC8GCCsGAQUFBwICMCMMIWh0dHBzOi8vd3d3LnRoYXd0ZS5jb20vcmVwb3NpdG9y
eTAfBgNVHSMEGDAWgBSfuMGpbPL1wCIqlO1cmazU7NfGBzAOBgNVHQ8BAf8EBAMC
BaAwHQYDVR0lBBYwFAYIKwYBBQUHAwEGCCsGAQUFBwMCMFcGCCsGAQUFBwEBBEsw
STAfBggrBgEFBQcwAYYTaHR0cDovL3RuLnN5bWNkLmNvbTAmBggrBgEFBQcwAoYa
aHR0cDovL3RuLnN5bWNiLmNvbS90bi5jcnQwggEFBgorBgEEAdZ5AgQCBIH2BIHz
APEAdgDd6x0reg1PpiCLga2BaHB+Lo6dAdVciI09EcTNtuy+zAAAAVbISARgAAAE
AwBHMEUCIQDNm2KhUoA2o7j2+m9CmpWIXckSCeDkyJser1pmAkQPqgIgNUmbLytz
WOkRs9k4w586+7oImTlaHWc0O3Eu715C/94AdwCkuQmQtBhYFIe7E6LMZ3AKPDWY
BPkb37jjd80OyA3cEAAAAVbISAWsAAAEAwBIMEYCIQCpa4DR9MZSN7Lvnlb50vwW
le3djaVHZ6tn1QBkKd6++gIhAKQePq0OXR2PxXO9G0OT1RtkcgzNRNt4tJzCkcid
a3cdMA0GCSqGSIb3DQEBCwUAA4IBAQAmjK3yxitYyIyF8xsKJ5sgetuCr+QIJSl7
KSppl+DWSmAP1SmM8YVog8B4MOyZFiLJHUxCIAuDl3kWZQUiE6oKkIQYnDY3D62s
ny6Y4FF+9YE58E60pBLQWVR/3DcVxzHGbgtpi8SRg7/9+Dxm/vUT11qI80JT65dB
vgl4p6bCuXKwFJJG5ZgxhIqJt/GJgi3F/xe9+qbejGecrCiQpcNArqdQ0sKkCJN1
f8pJ0cAOx9DcOVhiKH/4p0vMBBYPkSubfy1x06tq9u37htTWehgYQJJ1g2VgER5V
gWLdEh27YLYXpY4HPGxQEI1Lb0xYsOpaQ3TPUOb6ZnLtXnJ0hzto
-----END CERTIFICATE-----
