Certificate:
    Data:
        Version: 3 (0x2)
        Serial Number: 18008675309 (0x4316693ed)
    Signature Algorithm: sha256WithRSAEncryption
        Issuer: C = US, O = Mother Nature, OU = Everything, CN = Mother Nature
        Validity
            Not Before: Jun 28 00:03:03 2016 GMT
            Not After : Sep  9 00:03:03 2016 GMT
        Subject: C = US, ST = FL, L = Tallahassee, street = 3210 Holly Mill Run, postalCode = 30062, CN = gov.us
        Subject Public Key Info:
            Public Key Algorithm: rsaEncryption
                Public-Key: (2048 bit)
                Modulus:
                    00:a1:e3:7c:45:9d:36:0e:fe:12:47:1f:b4:36:f0:
                    ef:a1:37:0d:f4:9b:14:9e:0a:91:16:66:83:dd:ea:
                    0d:d6:70:77:a7:e0:2b:90:78:41:4c:f9:17:b1:12:
                    d3:08:26:fb:75:f8:e0:7d:be:36:e8:41:59:59:c8:
                    b8:e0:a8:e5:16:4d:87:9d:05:a8:5e:19:2b:3a:c6:
                    52:66:d9:b2:47:a4:4b:94:cc:ba:ae:57:fc:91:be:
                    40:9f:4a:9a:57:be:50:d7:e2:7e:4d:c9:4d:a9:0e:
                    c5:5c:b9:d6:71:35:1d:37:7f:9c:98:9d:05:22:27:
                    98:77:37:a2:b2:d5:94:6e:18:b7:f0:e8:e1:e6:b5:
                    d8:33:f4:e9:69:04:ca:38:7c:35:aa:96:6d:05:57:
                    0b:88:51:ae:29:af:26:8b:1c:b7:35:f9:7e:72:fa:
                    bf:d8:52:dc:24:c8:ad:c9:e0:76:73:f7:79:0d:b4:
                    3f:0e:01:7a:d4:dc:a4:94:80:79:50:24:11:86:79:
                    83:6c:17:a0:6f:61:41:17:9c:13:24:1b:f7:f3:f5:
                    9d:23:70:b2:89:a2:24:b2:93:ce:2a:c7:e4:1c:80:
                    0d:d0:77:2d:20:39:72:cf:d5:b7:d2:45:4e:37:dd:
                    19:71:c8:3d:b8:1a:6a:6d:b3:2a:55:24:c2:23:87:
                    0f:8b
                Exponent: 65537 (0x10001)
        X509v3 extensions:
            X509v3 Key Usage: critical
                Digital Signature, Key Encipherment
            X509v3 Extended Key Usage: 
                TLS Web Client Authentication, TLS Web Server Authentication
            X509v3 Basic Constraints: critical
                CA:FALSE
            X509v3 Authority Key Identifier: 
                keyid:01:02:03

            Authority Information Access: 
                OCSP - URI:http://theca.net/ocsp
                CA Issuers - URI:http://theca.net/totallythecert.crt

            X509v3 Certificate Policies: 
                Policy: 2.23.140.1.2.3

            X509v3 Subject Key Identifier: 
                04:03:02:01
            X509v3 Subject Alternative Name: 
                DNS:*.gov.us, DNS:gov.us
    Signature Algorithm: sha256WithRSAEncryption
         b3:10:ce:a8:2c:c7:85:2d:b7:8c:71:fb:15:56:d2:c5:68:90:
         a7:27:d3:5a:20:3d:41:31:d7:86:ff:d8:59:52:de:10:05:ee:
         df:b5:46:a7:fd:4d:c8:70:a2:76:b5:a8:61:c5:0d:8a:99:7d:
         cb:13:02:16:ed:70:98:e1:58:1a:d3:0f:51:c8:ea:fc:8c:17:
         ff:ec:88:a8:d2:40:5c:ba:a6:bd:22:88:cf:60:11:3a:ae:70:
         8f:0e:db:b7:59:52:a9:7f:7a:0b:1a:82:d2:f4:90:c8:b9:e8:
         6e:99:b0:de:cc:16:65:ee:e4:f7:bb:ab:22:07:03:a4:50:d5:
         37:81:85:a9:ef:72:a4:52:0b:e3:c1:c5:95:bb:9d:48:6c:f4:
         1e:3f:05:c4:25:da:14:bc:90:38:7e:55:45:b2:ca:32:ef:ae:
         f8:cb:97:b7:37:0b:22:36:cb:55:44:0f:75:00:5e:7c:ca:48:
         24:dc:a8:b2:01:13:b8:ab:ff:fa:43:ff:5d:ab:77:ae:69:8c:
         04:80:52:59:b4:86:d4:41:eb:a8:17:51:29:d3:55:c6:e0:14:
         d7:5c:36:4b:7c:90:94:e5:34:61:27:95:ef:b4:89:a8:24:26:
         6d:f6:69:a3:3d:9a:cf:c5:c3:b7:a9:49:b7:fa:f9:e1:c9:6a:
         68:6d:47:81
-----BEGIN CERTIFICATE-----
MIIENjCCAx6gAwIBAgIFBDFmk+0wDQYJKoZIhvcNAQELBQAwUjELMAkGA1UEBhMC
VVMxFjAUBgNVBAoTDU1vdGhlciBOYXR1cmUxEzARBgNVBAsTCkV2ZXJ5dGhpbmcx
FjAUBgNVBAMTDU1vdGhlciBOYXR1cmUwHhcNMTYwNjI4MDAwMzAzWhcNMTYwOTA5
MDAwMzAzWjBvMQswCQYDVQQGEwJVUzELMAkGA1UECBMCRkwxFDASBgNVBAcTC1Rh
bGxhaGFzc2VlMRwwGgYDVQQJExMzMjEwIEhvbGx5IE1pbGwgUnVuMQ4wDAYDVQQR
EwUzMDA2MjEPMA0GA1UEAxMGZ292LnVzMIIBIjANBgkqhkiG9w0BAQEFAAOCAQ8A
MIIBCgKCAQEAoeN8RZ02Dv4SRx+0NvDvoTcN9JsUngqRFmaD3eoN1nB3p+ArkHhB
TPkXsRLTCCb7dfjgfb426EFZWci44KjlFk2HnQWoXhkrOsZSZtmyR6RLlMy6rlf8
kb5An0qaV75Q1+J+TclNqQ7FXLnWcTUdN3+cmJ0FIieYdzeistWUbhi38Ojh5rXY
M/TpaQTKOHw1qpZtBVcLiFGuKa8mixy3Nfl+cvq/2FLcJMityeB2c/d5DbQ/DgF6
1NyklIB5UCQRhnmDbBegb2FBF5wTJBv38/WdI3CyiaIkspPOKsfkHIAN0HctIDly
z9W30kVON90Zccg9uBpqbbMqVSTCI4cPiwIDAQABo4H1MIHyMA4GA1UdDwEB/wQE
AwIFoDAdBgNVHSUEFjAUBggrBgEFBQcDAgYIKwYBBQUHAwEwDAYDVR0TAQH/BAIw
ADAOBgNVHSMEBzAFgAMBAgMwYgYIKwYBBQUHAQEEVjBUMCEGCCsGAQUFBzABhhVo
dHRwOi8vdGhlY2EubmV0L29jc3AwLwYIKwYBBQUHMAKGI2h0dHA6Ly90aGVjYS5u
ZXQvdG90YWxseXRoZWNlcnQuY3J0MBMGA1UdIAQMMAowCAYGZ4EMAQIDMA0GA1Ud
DgQGBAQEAwIBMBsGA1UdEQQUMBKCCCouZ292LnVzggZnb3YudXMwDQYJKoZIhvcN
AQELBQADggEBALMQzqgsx4Utt4xx+xVW0sVokKcn01ogPUEx14b/2FlS3hAF7t+1
Rqf9Tchwona1qGHFDYqZfcsTAhbtcJjhWBrTD1HI6vyMF//siKjSQFy6pr0iiM9g
ETqucI8O27dZUql/egsagtL0kMi56G6ZsN7MFmXu5Pe7qyIHA6RQ1TeBhanvcqRS
C+PBxZW7nUhs9B4/BcQl2hS8kDh+VUWyyjLvrvjLl7c3CyI2y1VED3UAXnzKSCTc
qLIBE7ir//pD/12rd65pjASAUlm0htRB66gXUSnTVcbgFNdcNkt8kJTlNGEnle+0
iagkJm32aaM9ms/Fw7epSbf6+eHJamhtR4E=
-----END CERTIFICATE-----
