Certificate:
    Data:
        Version: 3 (0x2)
        Serial Number: 18008675309 (0x4316693ed)
    Signature Algorithm: sha256WithRSAEncryption
        Issuer: C = US, O = Mother Nature, OU = Everything, CN = Mother Nature
        Validity
            Not Before: Jun 28 00:06:11 2016 GMT
            Not After : Sep  9 00:06:11 2016 GMT
        Subject: C = US, ST = FL, L = Tallahassee, street = 3210 Holly Mill Run, postalCode = 30062, CN = gov.us, GN = Alexander
        Subject Public Key Info:
            Public Key Algorithm: rsaEncryption
                Public-Key: (2048 bit)
                Modulus:
                    00:cb:7d:26:ca:83:78:6e:60:9d:f0:af:d1:60:95:
                    bb:3b:30:d2:cc:0d:40:d3:00:73:5d:28:d0:2d:8b:
                    75:41:f7:81:b0:61:be:7f:ff:2d:f6:6c:2c:30:65:
                    d4:00:96:46:94:58:20:7b:ce:5b:9e:ed:3c:c8:b3:
                    31:bc:6b:6b:87:b5:a7:f4:db:75:34:ae:83:62:f6:
                    c1:44:ed:15:1d:ed:85:b9:4e:8e:25:ec:15:dd:78:
                    ed:bf:5d:3f:6c:ac:e1:1f:d0:6b:26:8c:c2:12:6c:
                    47:a3:a0:22:4e:e1:98:70:b0:f7:82:bc:7d:0f:c8:
                    aa:47:c2:cd:e8:53:a5:b7:1e:ab:16:da:20:86:49:
                    83:b8:4b:d5:52:1c:ac:ae:26:2b:d5:eb:7d:cc:af:
                    91:92:b9:7a:89:d0:4b:b5:72:37:67:d9:67:b1:69:
                    46:3e:82:15:ad:19:75:06:e6:0c:6c:2c:04:37:40:
                    50:c6:27:fe:8e:20:ca:c0:af:ac:18:f0:0e:a5:bd:
                    5d:f1:29:b9:07:d4:a9:6d:75:fc:0e:db:69:d7:bb:
                    3d:07:69:bd:f6:1a:8e:6d:1c:95:16:b1:2c:a4:07:
                    ae:dc:e1:66:23:92:72:35:ef:fe:53:f1:49:b2:e5:
                    a4:eb:81:8f:28:d1:4e:34:ca:84:4b:21:da:7e:76:
                    c4:7d
                Exponent: 65537 (0x10001)
        X509v3 extensions:
            X509v3 Key Usage: critical
                Digital Signature, Key Encipherment
            X509v3 Extended Key Usage: 
                TLS Web Client Authentication, TLS Web Server Authentication
            X509v3 Basic Constraints: critical
                CA:FALSE
            X509v3 Authority Key Identifier: 
                keyid:01:02:03

            Authority Information Access: 
                OCSP - URI:http://theca.net/ocsp
                CA Issuers - URI:http://theca.net/totallythecert.crt

            X509v3 Certificate Policies: 
                Policy: 2.23.140.1.2.3

            X509v3 Subject Key Identifier: 
                04:03:02:01
            X509v3 Subject Alternative Name: 
                DNS:*.gov.us, DNS:gov.us
    Signature Algorithm: sha256WithRSAEncryption
         4a:f5:8f:c4:d3:c5:07:94:6e:4d:77:ae:23:3f:12:ea:8b:9d:
         e2:57:7e:c8:85:90:8e:6b:fe:15:8a:9c:0f:9e:a9:3d:2e:ef:
         a0:bb:0c:fa:37:4c:b1:b2:d2:72:3e:13:15:c5:ed:45:1b:9f:
         c9:10:27:9f:72:08:07:3e:a0:ee:3e:77:bd:09:6e:3e:b2:20:
         7d:1c:c4:d7:1c:dc:c9:d9:81:4e:7f:02:19:ab:aa:ae:47:0c:
         f2:55:56:5a:28:30:bf:ef:df:28:1f:29:6c:ff:62:c2:8b:53:
         93:dc:8f:19:3b:49:d4:10:ba:b2:b2:9b:c0:41:aa:4c:42:77:
         76:47:06:a9:4a:d7:0c:68:d6:66:84:e0:e5:0f:6a:b4:0f:cb:
         9f:7b:8d:a3:45:99:6d:33:cf:56:02:20:c3:66:0c:3f:15:b0:
         35:17:5d:c8:b8:ac:60:f5:68:7d:7d:4d:87:53:f6:38:7c:74:
         e3:b5:bd:c4:72:0d:2e:41:21:17:21:aa:c6:58:5b:7d:30:cd:
         13:24:34:f7:d8:d1:27:28:fe:52:09:98:6d:1d:ec:da:15:c9:
         c8:52:68:50:58:57:9a:68:3b:69:13:7a:92:6f:2d:27:38:d3:
         72:f3:3d:79:0a:c9:5f:f8:57:2c:bc:76:df:14:1a:56:8f:be:
         48:9b:3b:89
-----BEGIN CERTIFICATE-----
MIIESzCCAzOgAwIBAgIFBDFmk+0wDQYJKoZIhvcNAQELBQAwUjELMAkGA1UEBhMC
VVMxFjAUBgNVBAoTDU1vdGhlciBOYXR1cmUxEzARBgNVBAsTCkV2ZXJ5dGhpbmcx
FjAUBgNVBAMTDU1vdGhlciBOYXR1cmUwHhcNMTYwNjI4MDAwNjExWhcNMTYwOTA5
MDAwNjExWjCBgzELMAkGA1UEBhMCVVMxCzAJBgNVBAgTAkZMMRQwEgYDVQQHEwtU
YWxsYWhhc3NlZTEcMBoGA1UECRMTMzIxMCBIb2xseSBNaWxsIFJ1bjEOMAwGA1UE
ERMFMzAwNjIxDzANBgNVBAMTBmdvdi51czESMBAGA1UEKhMJQWxleGFuZGVyMIIB
IjANBgkqhkiG9w0BAQEFAAOCAQ8AMIIBCgKCAQEAy30myoN4bmCd8K/RYJW7OzDS
zA1A0wBzXSjQLYt1QfeBsGG+f/8t9mwsMGXUAJZGlFgge85bnu08yLMxvGtrh7Wn
9Nt1NK6DYvbBRO0VHe2FuU6OJewV3Xjtv10/bKzhH9BrJozCEmxHo6AiTuGYcLD3
grx9D8iqR8LN6FOltx6rFtoghkmDuEvVUhysriYr1et9zK+Rkrl6idBLtXI3Z9ln
sWlGPoIVrRl1BuYMbCwEN0BQxif+jiDKwK+sGPAOpb1d8Sm5B9SpbXX8Dttp17s9
B2m99hqObRyVFrEspAeu3OFmI5JyNe/+U/FJsuWk64GPKNFONMqESyHafnbEfQID
AQABo4H1MIHyMA4GA1UdDwEB/wQEAwIFoDAdBgNVHSUEFjAUBggrBgEFBQcDAgYI
KwYBBQUHAwEwDAYDVR0TAQH/BAIwADAOBgNVHSMEBzAFgAMBAgMwYgYIKwYBBQUH
AQEEVjBUMCEGCCsGAQUFBzABhhVodHRwOi8vdGhlY2EubmV0L29jc3AwLwYIKwYB
BQUHMAKGI2h0dHA6Ly90aGVjYS5uZXQvdG90YWxseXRoZWNlcnQuY3J0MBMGA1Ud
IAQMMAowCAYGZ4EMAQIDMA0GA1UdDgQGBAQEAwIBMBsGA1UdEQQUMBKCCCouZ292
LnVzggZnb3YudXMwDQYJKoZIhvcNAQELBQADggEBAEr1j8TTxQeUbk13riM/EuqL
neJXfsiFkI5r/hWKnA+eqT0u76C7DPo3TLGy0nI+ExXF7UUbn8kQJ59yCAc+oO4+
d70Jbj6yIH0cxNcc3MnZgU5/Ahmrqq5HDPJVVlooML/v3ygfKWz/YsKLU5Pcjxk7
SdQQurKym8BBqkxCd3ZHBqlK1wxo1maE4OUParQPy597jaNFmW0zz1YCIMNmDD8V
sDUXXci4rGD1aH19TYdT9jh8dOO1vcRyDS5BIRchqsZYW30wzRMkNPfY0Sco/lIJ
mG0d7NoVychSaFBYV5poO2kTepJvLSc403LzPXkKyV/4Vyy8dt8UGlaPvkibO4k=
-----END CERTIFICATE-----
