Certificate:
    Data:
        Version: 3 (0x2)
        Serial Number: 18008675309 (0x4316693ed)
    Signature Algorithm: sha256WithRSAEncryption
        Issuer: C = US, O = Mother Nature, OU = Everything, CN = Mother Nature
        Validity
            Not Before: Jun 28 00:15:06 2016 GMT
            Not After : Sep  9 00:15:06 2016 GMT
        Subject: C = US, street = 3210 Holly Mill Run, postalCode = 30062, CN = gov.us, GN = Alexander, SN = Washington
        Subject Public Key Info:
            Public Key Algorithm: rsaEncryption
                Public-Key: (2048 bit)
                Modulus:
                    00:ae:69:7b:1d:77:e3:12:bc:30:39:6e:ac:8f:21:
                    59:88:b8:a7:86:12:f2:a1:36:a6:b6:73:d9:58:c4:
                    72:ff:32:a1:79:43:7e:46:ff:5b:b1:50:2d:b5:a7:
                    8f:ab:33:5c:ba:ba:c2:18:19:22:1e:72:f1:62:f4:
                    d5:01:94:1c:55:f5:6f:46:a2:40:b9:cd:7e:93:12:
                    cd:22:ca:dc:81:b7:a8:cf:b4:6a:17:e5:7d:0e:7e:
                    03:e9:dd:24:6a:a5:87:08:a2:50:c4:9f:13:ed:f3:
                    b1:d1:32:64:5c:83:8a:72:01:be:1e:8f:63:e5:3f:
                    f4:c0:67:dc:ad:f7:12:04:a7:b9:a1:f0:2d:18:72:
                    f8:d9:52:dd:0c:71:68:55:7e:b0:d8:0a:a7:54:ef:
                    42:b0:6e:10:00:05:c3:10:c8:06:90:fc:bb:15:0c:
                    78:af:33:70:54:1f:8d:1d:35:21:51:3c:98:5e:b3:
                    d7:08:61:1e:fc:cb:f1:26:cc:99:e0:05:01:0a:9a:
                    d5:f8:01:46:0a:ac:17:9d:73:d2:fa:05:db:9a:dc:
                    d1:e7:3f:5c:fb:18:75:33:3e:bd:0e:80:1a:3e:41:
                    c8:ff:72:62:6b:1e:9e:03:73:be:51:44:a4:05:d8:
                    46:ff:5c:60:53:df:ad:b4:70:13:e6:ad:cc:61:88:
                    ae:0f
                Exponent: 65537 (0x10001)
        X509v3 extensions:
            X509v3 Key Usage: critical
                Digital Signature, Key Encipherment
            X509v3 Extended Key Usage: 
                TLS Web Client Authentication, TLS Web Server Authentication
            X509v3 Basic Constraints: critical
                CA:FALSE
            X509v3 Authority Key Identifier: 
                keyid:01:02:03

            Authority Information Access: 
                OCSP - URI:http://theca.net/ocsp
                CA Issuers - URI:http://theca.net/totallythecert.crt

            X509v3 Certificate Policies: 
                Policy: 2.23.140.1.2.3

            X509v3 Subject Key Identifier: 
                04:03:02:01
            X509v3 Subject Alternative Name: 
                DNS:*.gov.us, DNS:gov.us
    Signature Algorithm: sha256WithRSAEncryption
         78:73:bf:84:8e:51:4d:39:ee:6d:d5:eb:6c:cd:63:d4:2b:8e:
         15:91:19:2f:71:82:31:39:0e:b1:d6:a1:d2:5b:87:6b:f4:26:
         39:cf:a8:71:b4:74:ec:a8:14:9c:3b:30:37:24:03:15:15:1a:
         b0:ee:cc:12:52:a1:42:0c:4c:3b:4c:a3:ec:cc:35:ec:a9:ec:
         45:6d:f0:c4:33:65:44:e1:60:99:e4:24:6b:64:9d:97:ed:57:
         3b:4e:86:6c:4b:82:f4:f0:ba:c0:bb:45:6c:24:a4:38:88:21:
         c2:c9:85:7b:9c:d0:5b:a5:08:7a:e6:7f:2e:7e:fc:75:0c:34:
         03:54:48:6c:51:9c:a4:17:60:56:de:53:3f:ab:c8:b1:a2:b2:
         c1:de:d7:21:a8:1e:4c:0c:30:90:83:c1:7d:10:5c:11:f1:a1:
         15:65:e2:19:e7:68:bf:e5:83:f9:bd:43:ab:9a:91:86:85:2d:
         33:e4:47:69:c7:78:16:f5:c1:6f:a7:7c:9e:f1:95:c4:94:67:
         19:f0:f7:0b:a5:c4:f4:e4:eb:78:be:31:ed:98:8a:5a:cb:be:
         cd:ea:4f:47:b5:6f:ef:48:b9:64:98:f5:8a:21:e9:4f:da:39:
         d5:68:13:79:a8:d2:fb:db:b6:73:b0:43:79:a3:c8:6c:28:19:
         fd:7d:97:ca
-----BEGIN CERTIFICATE-----
MIIEPDCCAySgAwIBAgIFBDFmk+0wDQYJKoZIhvcNAQELBQAwUjELMAkGA1UEBhMC
VVMxFjAUBgNVBAoTDU1vdGhlciBOYXR1cmUxEzARBgNVBAsTCkV2ZXJ5dGhpbmcx
FjAUBgNVBAMTDU1vdGhlciBOYXR1cmUwHhcNMTYwNjI4MDAxNTA2WhcNMTYwOTA5
MDAxNTA2WjB1MQswCQYDVQQGEwJVUzEcMBoGA1UECRMTMzIxMCBIb2xseSBNaWxs
IFJ1bjEOMAwGA1UEERMFMzAwNjIxDzANBgNVBAMTBmdvdi51czESMBAGA1UEKhMJ
QWxleGFuZGVyMRMwEQYDVQQEEwpXYXNoaW5ndG9uMIIBIjANBgkqhkiG9w0BAQEF
AAOCAQ8AMIIBCgKCAQEArml7HXfjErwwOW6sjyFZiLinhhLyoTamtnPZWMRy/zKh
eUN+Rv9bsVAttaePqzNcurrCGBkiHnLxYvTVAZQcVfVvRqJAuc1+kxLNIsrcgbeo
z7RqF+V9Dn4D6d0kaqWHCKJQxJ8T7fOx0TJkXIOKcgG+Ho9j5T/0wGfcrfcSBKe5
ofAtGHL42VLdDHFoVX6w2AqnVO9CsG4QAAXDEMgGkPy7FQx4rzNwVB+NHTUhUTyY
XrPXCGEe/MvxJsyZ4AUBCprV+AFGCqwXnXPS+gXbmtzR5z9c+xh1Mz69DoAaPkHI
/3Jiax6eA3O+UUSkBdhG/1xgU9+ttHAT5q3MYYiuDwIDAQABo4H1MIHyMA4GA1Ud
DwEB/wQEAwIFoDAdBgNVHSUEFjAUBggrBgEFBQcDAgYIKwYBBQUHAwEwDAYDVR0T
AQH/BAIwADAOBgNVHSMEBzAFgAMBAgMwYgYIKwYBBQUHAQEEVjBUMCEGCCsGAQUF
BzABhhVodHRwOi8vdGhlY2EubmV0L29jc3AwLwYIKwYBBQUHMAKGI2h0dHA6Ly90
aGVjYS5uZXQvdG90YWxseXRoZWNlcnQuY3J0MBMGA1UdIAQMMAowCAYGZ4EMAQID
MA0GA1UdDgQGBAQEAwIBMBsGA1UdEQQUMBKCCCouZ292LnVzggZnb3YudXMwDQYJ
KoZIhvcNAQELBQADggEBAHhzv4SOUU057m3V62zNY9QrjhWRGS9xgjE5DrHWodJb
h2v0JjnPqHG0dOyoFJw7MDckAxUVGrDuzBJSoUIMTDtMo+zMNeyp7EVt8MQzZUTh
YJnkJGtknZftVztOhmxLgvTwusC7RWwkpDiIIcLJhXuc0FulCHrmfy5+/HUMNANU
SGxRnKQXYFbeUz+ryLGissHe1yGoHkwMMJCDwX0QXBHxoRVl4hnnaL/lg/m9Q6ua
kYaFLTPkR2nHeBb1wW+nfJ7xlcSUZxnw9wulxPTk63i+Me2YilrLvs3qT0e1b+9I
uWSY9Yoh6U/aOdVoE3mo0vvbtnOwQ3mjyGwoGf19l8o=
-----END CERTIFICATE-----
