Certificate:
    Data:
        Version: 3 (0x2)
        Serial Number:
            16:e3:9f:2c:68:44:05:d6:2f:4a:8a:9e:2c:d7:d2:f7:40:00:00:00:00
    Signature Algorithm: sha256WithRSAEncryption
        Issuer: 
        Validity
            Not Before: Jul  7 21:55:36 2016 GMT
            Not After : Sep 19 21:55:36 2016 GMT
        Subject: C = US, ST = FL, L = Tallahassee, street = 3210 Holly Mill Run, postalCode = 30062, O = Extreme Discord, OU = Chaos, CN = gov.us
        Subject Public Key Info:
            Public Key Algorithm: rsaEncryption
                Public-Key: (2048 bit)
                Modulus:
                    00:bd:46:79:91:63:be:c2:8c:fb:d8:10:0d:b4:6b:
                    98:fc:28:0d:c8:be:e3:d8:eb:6a:4e:bc:3a:12:5e:
                    93:f6:dd:c2:e1:a2:74:b6:23:7f:19:66:61:9d:d1:
                    27:35:26:1b:17:ba:bb:ba:eb:ce:96:c7:81:03:19:
                    b1:fa:a8:96:13:cd:36:0a:33:17:a5:12:c0:97:ea:
                    27:fd:3d:35:a5:07:09:fe:d4:cd:a9:9b:ca:13:be:
                    5d:68:bb:b9:5f:75:98:5c:1b:26:eb:2d:29:78:11:
                    5a:61:0c:47:ce:ce:56:e9:1a:01:d9:7e:a6:f4:11:
                    c7:30:74:e9:ab:ca:1e:8f:8c:22:fc:c3:67:09:4d:
                    9b:eb:d9:d1:01:3b:7d:18:07:ba:e1:c0:b2:b4:8c:
                    a3:4b:76:9f:d8:88:43:99:80:e9:6d:7e:8a:a0:5b:
                    b3:04:24:36:ae:38:9f:01:4f:3a:aa:ff:21:b4:c3:
                    e6:2f:e3:23:49:22:16:14:0b:6b:c1:b3:9d:65:1d:
                    1e:10:27:8b:54:91:87:5b:af:00:9a:3e:56:12:dc:
                    a4:b6:00:3a:2f:b5:66:8e:39:9b:0e:50:b4:37:30:
                    48:28:6c:49:e1:36:6a:7a:c0:a7:11:1c:d7:b6:a2:
                    78:31:df:e6:8e:71:44:33:38:17:ae:31:22:bd:65:
                    71:13
                Exponent: 65537 (0x10001)
        X509v3 extensions:
            X509v3 Basic Constraints: critical
                CA:TRUE
            X509v3 Authority Key Identifier: 
                keyid:01:02:03

            X509v3 Subject Key Identifier: 
                04:03:02:01
            X509v3 Subject Alternative Name: 
                DNS:*.gov.us, DNS:gov.us
            X509v3 Key Usage: 
                Digital Signature, Certificate Sign, CRL Sign
            X509v3 Extended Key Usage: critical
                TLS Web Server Authentication, TLS Web Client Authentication
    Signature Algorithm: sha256WithRSAEncryption
         17:b9:5f:9d:30:d9:c9:0f:82:a0:0e:e2:aa:8b:6b:14:92:1c:
         92:aa:45:ee:ae:6e:a5:5c:17:ec:b7:d2:c9:64:cc:1a:c7:f4:
         e2:c1:0e:ad:5a:a9:e1:c6:43:b5:2e:9e:53:f8:e8:4b:00:ec:
         72:23:23:d9:f8:5a:19:5b:c0:5d:31:5e:47:cf:88:df:43:a4:
         bc:4a:3c:23:79:a2:58:d7:ad:b5:96:79:b8:2f:6a:1b:68:b4:
         fb:e4:1c:6c:35:b5:10:5e:8e:04:25:89:34:1f:32:40:bf:af:
         61:92:38:50:f0:37:f4:bc:65:df:ac:0b:cb:fd:21:94:36:14:
         a4:bb:2a:5e:3f:7c:f7:30:03:26:d8:ce:d0:5f:0a:c1:12:50:
         7f:3f:df:25:64:e1:a8:d1:6d:af:9b:19:36:6d:e7:71:30:31:
         72:3c:6f:b8:19:29:fa:87:e9:b9:ad:0e:a1:a8:4d:3b:14:0e:
         39:ec:3e:52:50:4d:6b:e4:0a:90:07:da:58:7b:c7:08:a8:fb:
         e7:a8:a2:3a:af:00:d3:df:0d:8f:ac:d4:2c:dd:1a:70:5e:79:
         53:a6:ce:f1:19:6b:df:fa:33:0c:80:a7:65:3d:9c:56:5e:55:
         e4:94:ab:a4:02:4e:24:9d:7d:9c:aa:12:a4:74:2c:1a:10:db:
         d2:be:07:36
-----BEGIN CERTIFICATE-----
MIIDpzCCAo+gAwIBAgIVFuOfLGhEBdYvSoqeLNfS90AAAAAAMA0GCSqGSIb3DQEB
CwUAMAAwHhcNMTYwNzA3MjE1NTM2WhcNMTYwOTE5MjE1NTM2WjCBmTELMAkGA1UE
BhMCVVMxCzAJBgNVBAgTAkZMMRQwEgYDVQQHEwtUYWxsYWhhc3NlZTEcMBoGA1UE
CRMTMzIxMCBIb2xseSBNaWxsIFJ1bjEOMAwGA1UEERMFMzAwNjIxGDAWBgNVBAoT
D0V4dHJlbWUgRGlzY29yZDEOMAwGA1UECxMFQ2hhb3MxDzANBgNVBAMTBmdvdi51
czCCASIwDQYJKoZIhvcNAQEBBQADggEPADCCAQoCggEBAL1GeZFjvsKM+9gQDbRr
mPwoDci+49jrak68OhJek/bdwuGidLYjfxlmYZ3RJzUmGxe6u7rrzpbHgQMZsfqo
lhPNNgozF6USwJfqJ/09NaUHCf7UzambyhO+XWi7uV91mFwbJustKXgRWmEMR87O
VukaAdl+pvQRxzB06avKHo+MIvzDZwlNm+vZ0QE7fRgHuuHAsrSMo0t2n9iIQ5mA
6W1+iqBbswQkNq44nwFPOqr/IbTD5i/jI0kiFhQLa8GznWUdHhAni1SRh1uvAJo+
VhLcpLYAOi+1Zo45mw5QtDcwSChsSeE2anrApxEc17aieDHf5o5xRDM4F64xIr1l
cRMCAwEAAaN+MHwwDwYDVR0TAQH/BAUwAwEB/zAOBgNVHSMEBzAFgAMBAgMwDQYD
VR0OBAYEBAQDAgEwGwYDVR0RBBQwEoIIKi5nb3YudXOCBmdvdi51czALBgNVHQ8E
BAMCAYYwIAYDVR0lAQH/BBYwFAYIKwYBBQUHAwEGCCsGAQUFBwMCMA0GCSqGSIb3
DQEBCwUAA4IBAQAXuV+dMNnJD4KgDuKqi2sUkhySqkXurm6lXBfst9LJZMwax/Ti
wQ6tWqnhxkO1Lp5T+OhLAOxyIyPZ+FoZW8BdMV5Hz4jfQ6S8SjwjeaJY1621lnm4
L2obaLT75BxsNbUQXo4EJYk0HzJAv69hkjhQ8Df0vGXfrAvL/SGUNhSkuypeP3z3
MAMm2M7QXwrBElB/P98lZOGo0W2vmxk2bedxMDFyPG+4GSn6h+m5rQ6hqE07FA45
7D5SUE1r5AqQB9pYe8cIqPvnqKI6rwDT3w2PrNQs3RpwXnlTps7xGWvf+jMMgKdl
PZxWXlXklKukAk4knX2cqhKkdCwaENvSvgc2
-----END CERTIFICATE-----
