Certificate:
    Data:
        Version: 3 (0x2)
        Serial Number: 1 (0x1)
    Signature Algorithm: sha256WithRSAEncryption
        Issuer: CN=Mother Nature, OU=Everything, O=Mother Nature/postalCode=postalcode, C=US, GN=givenname, SN=surname
        Validity
            Not Before: Aug 29 18:59:09 2017 GMT
            Not After : Nov 10 19:59:09 2017 GMT
        Subject: CN=gov.us, OU=Chaos, O=org/street=3210 Holly Mill Run, ST=province/postalCode=30062, GN=hello, SN=surname
        Subject Public Key Info:
            Public Key Algorithm: rsaEncryption
                Public-Key: (2048 bit)
                Modulus:
                    00:9c:77:e9:64:24:25:52:cf:18:f1:5d:36:b7:06:
                    c3:72:bc:53:e8:9a:ce:b2:fd:b9:d2:8b:28:48:93:
                    77:00:68:51:61:6a:f0:cf:01:3b:1c:03:d0:9f:d3:
                    98:b5:af:34:05:7e:ae:20:cd:56:95:2b:b4:07:9f:
                    61:72:70:da:de:cc:18:38:0c:eb:cd:22:19:18:6a:
                    82:23:79:61:dd:e7:19:bf:d7:4b:9b:38:32:57:9a:
                    a1:51:89:56:00:ee:46:c7:2c:73:97:7e:0c:22:a7:
                    6c:e3:82:0a:aa:bb:be:c2:33:b9:70:e7:50:6e:fa:
                    b8:d5:9c:d6:f3:1f:c5:32:de:b8:11:44:38:52:69:
                    a1:bc:94:c5:0c:a1:9d:bc:82:08:fd:85:58:a1:57:
                    73:94:73:1b:fa:ea:20:87:9b:65:d0:a9:ce:7a:fc:
                    9d:50:b7:18:7e:78:17:cc:17:db:57:95:9b:77:73:
                    f3:37:ec:36:18:30:ea:ff:c5:24:75:9e:61:62:0c:
                    f1:8f:52:33:29:0e:9f:df:85:cf:cb:aa:df:c3:cc:
                    df:de:11:3f:97:07:0c:7d:77:0f:ed:72:ca:d5:d6:
                    82:7a:fa:a8:02:6b:83:1f:57:07:93:9a:61:dd:11:
                    9b:11:8f:9d:b9:e6:f2:d2:ce:e8:e1:69:9f:14:17:
                    67:cf
                Exponent: 65537 (0x10001)
        X509v3 extensions:
            X509v3 Key Usage: critical
                Digital Signature, Key Encipherment, Certificate Sign
            X509v3 Extended Key Usage: 
                TLS Web Client Authentication, TLS Web Server Authentication
            X509v3 Basic Constraints: critical
                CA:FALSE
            X509v3 Authority Key Identifier: 
                keyid:01:02:03

            Authority Information Access: 
                OCSP - URI:http://theca.net/ocsp
                CA Issuers - URI:http://theca.net/totallythecert.crt

            X509v3 Subject Alternative Name: 
                DNS:hell,o.com.uk
            X509v3 Certificate Policies: 
                Policy: X509v3 Any Policy

    Signature Algorithm: sha256WithRSAEncryption
         8c:a3:9f:ba:bd:94:88:2e:32:fe:5e:47:ab:d7:0e:94:f1:2f:
         01:c9:e7:29:e5:d3:96:27:c0:49:e5:b3:cf:3a:2e:5a:c0:52:
         d6:0c:c5:3d:ae:bf:5e:a0:86:11:a4:c1:2d:54:5d:48:38:54:
         47:a5:bf:e2:f7:0d:41:e7:36:eb:63:f3:5f:11:a2:74:fe:c9:
         b9:32:82:a6:49:62:cf:e7:bd:13:62:cd:56:82:a4:f9:ca:ac:
         fe:13:33:ea:90:89:ca:76:fb:3f:2b:d5:71:8a:e5:ac:5f:4b:
         79:7f:d7:5a:a5:6c:f0:26:d9:bf:00:48:ce:ac:04:63:92:f8:
         c9:9c:95:30:9b:88:7d:36:10:29:63:2a:d0:6c:2a:76:80:dc:
         86:39:bf:bb:11:0d:43:2d:96:c0:2a:34:73:58:60:b0:88:f3:
         51:14:a7:b5:27:30:ea:93:84:f8:41:94:4b:e1:89:ec:77:44:
         2d:ea:6e:88:25:cb:a7:bd:57:6e:b2:3e:d0:16:5c:cf:51:d3:
         8d:90:14:15:35:7c:89:72:b2:c2:d7:bc:c7:f0:44:80:84:bc:
         7f:30:cb:4d:50:ac:0d:1a:24:f1:b2:48:31:fc:46:6b:41:ef:
         69:34:94:e4:25:ac:3a:31:0b:00:86:1b:7c:ec:2a:08:ab:46:
         a2:1c:a9:7a
-----BEGIN CERTIFICATE-----
MIIEfjCCA2igAwIBAgIBATALBgkqhkiG9w0BAQswgY8xFjAUBgNVBAMTDU1vdGhl
ciBOYXR1cmUxEzARBgNVBAsTCkV2ZXJ5dGhpbmcxFjAUBgNVBAoTDU1vdGhlciBO
YXR1cmUxEzARBgNVBBETCnBvc3RhbGNvZGUxCzAJBgNVBAYTAlVTMRIwEAYDVQQq
EwlnaXZlbm5hbWUxEDAOBgNVBAQTB3N1cm5hbWUxADAeFw0xNzA4MjkxODU5MDla
Fw0xNzExMTAxOTU5MDlaMIGUMQ8wDQYDVQQDEwZnb3YudXMxDjAMBgNVBAsTBUNo
YW9zMQwwCgYDVQQKEwNvcmcxHDAaBgNVBAkTEzMyMTAgSG9sbHkgTWlsbCBSdW4x
ETAPBgNVBAgTCHByb3ZpbmNlMQ4wDAYDVQQREwUzMDA2MjEOMAwGA1UEKhMFaGVs
bG8xEDAOBgNVBAQTB3N1cm5hbWUxADCCASIwDQYJKoZIhvcNAQEBBQADggEPADCC
AQoCggEBAJx36WQkJVLPGPFdNrcGw3K8U+iazrL9udKLKEiTdwBoUWFq8M8BOxwD
0J/TmLWvNAV+riDNVpUrtAefYXJw2t7MGDgM680iGRhqgiN5Yd3nGb/XS5s4Mlea
oVGJVgDuRscsc5d+DCKnbOOCCqq7vsIzuXDnUG76uNWc1vMfxTLeuBFEOFJpobyU
xQyhnbyCCP2FWKFXc5RzG/rqIIebZdCpznr8nVC3GH54F8wX21eVm3dz8zfsNhgw
6v/FJHWeYWIM8Y9SMykOn9+Fz8uq38PM394RP5cHDH13D+1yytXWgnr6qAJrgx9X
B5OaYd0RmxGPnbnm8tLO6OFpnxQXZ88CAwEAAaOB4TCB3jAOBgNVHQ8BAf8EBAMC
AKQwHQYDVR0lBBYwFAYIKwYBBQUHAwIGCCsGAQUFBwMBMAwGA1UdEwEB/wQCMAAw
DgYDVR0jBAcwBYADAQIDMGIGCCsGAQUFBwEBBFYwVDAhBggrBgEFBQcwAYYVaHR0
cDovL3RoZWNhLm5ldC9vY3NwMC8GCCsGAQUFBzAChiNodHRwOi8vdGhlY2EubmV0
L3RvdGFsbHl0aGVjZXJ0LmNydDAYBgNVHREEETAPgg1oZWxsLG8uY29tLnVrMBEG
A1UdIAQKMAgwBgYEVR0gADALBgkqhkiG9w0BAQsDggEBAIyjn7q9lIguMv5eR6vX
DpTxLwHJ5ynl05YnwEnls886LlrAUtYMxT2uv16ghhGkwS1UXUg4VEelv+L3DUHn
Nutj818RonT+ybkygqZJYs/nvRNizVaCpPnKrP4TM+qQicp2+z8r1XGK5axfS3l/
11qlbPAm2b8ASM6sBGOS+MmclTCbiH02ECljKtBsKnaA3IY5v7sRDUMtlsAqNHNY
YLCI81EUp7UnMOqThPhBlEvhiex3RC3qbogly6e9V26yPtAWXM9R042QFBU1fIly
ssLXvMfwRICEvH8wy01QrA0aJPGySDH8RmtB72k0lOQlrDoxCwCGG3zsKgirRqIc
qXo=
-----END CERTIFICATE-----
