Certificate:
    Data:
        Version: 3 (0x2)
        Serial Number: 18008675984 (0x431669690)
    Signature Algorithm: sha256WithRSAEncryption
        Issuer: C = US, O = Mother Nature, OU = Everything, CN = Mother Nature
        Validity
            Not Before: Jul  6 15:41:52 2016 GMT
            Not After : Sep 18 15:41:52 2016 GMT
        Subject: C = US, ST = FL, L = Tallahassee, street = 3210 Holly Mill Run, postalCode = 30062, O = Extreme Discord, OU = Chaos, CN = gov.us
        Subject Public Key Info:
            Public Key Algorithm: rsaEncryption
                Public-Key: (2048 bit)
                Modulus:
                    00:cb:59:73:ee:72:7b:1a:ee:f7:e6:00:97:7d:89:
                    a5:ec:c2:93:47:82:af:86:5e:b7:b5:c4:3a:fd:f1:
                    98:d6:10:b8:74:07:ed:8a:7e:77:5a:3e:72:d7:61:
                    55:50:dd:b2:b1:0a:dc:2e:5d:46:e0:77:92:da:90:
                    c3:95:50:34:68:d2:33:06:a2:13:ac:56:bb:bd:05:
                    bb:3d:43:6b:65:b5:89:60:7e:41:16:57:c1:43:a0:
                    4c:a9:ed:2d:4f:34:10:12:bb:a4:71:35:9e:82:aa:
                    ee:f2:91:65:bc:e1:a7:79:09:98:a9:31:3e:7f:ce:
                    80:bb:13:d4:2d:4f:5c:e9:00:aa:96:17:f0:5b:a9:
                    cc:4d:64:cc:24:b1:4a:78:84:a4:2e:d6:96:6b:2a:
                    70:e9:31:2f:c7:eb:40:71:00:04:78:88:ab:e9:12:
                    d0:2b:fd:de:f0:2b:3b:dc:a0:0d:c6:8a:41:27:81:
                    60:6a:08:40:fb:c0:eb:23:29:79:56:e2:41:41:d5:
                    91:4e:c6:39:5c:57:c1:c1:68:0f:a6:49:0a:ab:a3:
                    3c:7e:e0:39:33:34:a6:fa:be:44:e7:55:5d:c3:a8:
                    96:fa:b7:a7:17:5e:87:89:23:14:e7:da:91:31:41:
                    1d:86:ad:fc:a0:48:37:4b:7f:d4:c8:bf:1b:b0:40:
                    0c:bb
                Exponent: 65537 (0x10001)
        X509v3 extensions:
            X509v3 Extended Key Usage: 
                TLS Web Client Authentication, TLS Web Server Authentication
            X509v3 Basic Constraints: critical
                CA:FALSE
            X509v3 Authority Key Identifier: 
                keyid:01:02:03

            Authority Information Access: 
                OCSP - URI:http://theca.net/ocsp
                CA Issuers - URI:http://theca.net/totallythecert.crt

            X509v3 Certificate Policies: 
                Policy: 1.3.6.1.5.5.7.13.1
                Policy: 2.23.140.1.2.2

            X509v3 Subject Key Identifier: 
                04:03:02:01
            X509v3 Subject Alternative Name: 
                DNS:*.gov.us, DNS:gov.us
            X509v3 Issuer Alternative Name: 
                DNS:allthethings.net, DNS:theca.net
            X509v3 Key Usage: 
                Digital Signature, Key Encipherment
    Signature Algorithm: sha256WithRSAEncryption
         43:cc:a2:cd:fd:92:14:c4:1d:dc:cb:a0:f2:86:58:86:59:51:
         df:23:be:ff:93:44:17:f5:bd:35:30:39:6e:13:0d:8d:e8:ee:
         86:d9:0c:bf:dc:21:95:a7:82:81:1f:5e:4b:b9:c1:ad:5a:e3:
         d4:a4:44:09:21:30:8f:61:dd:0b:32:b5:fc:d8:17:b8:74:0f:
         70:9c:36:99:ff:82:93:b6:60:aa:1d:73:17:d3:42:21:66:bc:
         f4:19:d2:56:9f:b3:da:3c:b5:ae:6b:2c:b2:4e:ac:1b:a6:71:
         0c:2a:1e:4b:48:53:e2:16:20:d5:64:e3:56:06:71:7c:aa:72:
         2b:17:e3:0b:4a:4e:af:09:ca:18:5f:d2:57:9e:bb:57:06:0d:
         b9:db:51:87:21:7c:0d:dc:7c:c9:92:57:24:7a:5e:f9:20:6d:
         9c:57:90:e2:a0:96:8e:38:33:ed:03:e5:e7:53:16:5a:8e:59:
         e5:49:4d:3e:7f:02:1c:80:9a:6e:dd:bc:1a:36:0e:08:ba:47:
         ce:fa:54:67:2b:26:52:12:1b:8e:d0:56:f8:25:17:1c:98:41:
         eb:d1:44:00:78:93:03:41:76:2f:ed:36:33:eb:25:0f:1c:6b:
         b5:a8:d4:7c:c2:a0:03:8d:df:12:73:f4:51:b7:97:eb:14:46:
         70:03:1f:9f
-----BEGIN CERTIFICATE-----
MIIElDCCA3ygAwIBAgIFBDFmlpAwDQYJKoZIhvcNAQELBQAwUjELMAkGA1UEBhMC
VVMxFjAUBgNVBAoTDU1vdGhlciBOYXR1cmUxEzARBgNVBAsTCkV2ZXJ5dGhpbmcx
FjAUBgNVBAMTDU1vdGhlciBOYXR1cmUwHhcNMTYwNzA2MTU0MTUyWhcNMTYwOTE4
MTU0MTUyWjCBmTELMAkGA1UEBhMCVVMxCzAJBgNVBAgTAkZMMRQwEgYDVQQHEwtU
YWxsYWhhc3NlZTEcMBoGA1UECRMTMzIxMCBIb2xseSBNaWxsIFJ1bjEOMAwGA1UE
ERMFMzAwNjIxGDAWBgNVBAoTD0V4dHJlbWUgRGlzY29yZDEOMAwGA1UECxMFQ2hh
b3MxDzANBgNVBAMTBmdvdi51czCCASIwDQYJKoZIhvcNAQEBBQADggEPADCCAQoC
ggEBAMtZc+5yexru9+YAl32JpezCk0eCr4Zet7XEOv3xmNYQuHQH7Yp+d1o+ctdh
VVDdsrEK3C5dRuB3ktqQw5VQNGjSMwaiE6xWu70Fuz1Da2W1iWB+QRZXwUOgTKnt
LU80EBK7pHE1noKq7vKRZbzhp3kJmKkxPn/OgLsT1C1PXOkAqpYX8FupzE1kzCSx
SniEpC7WlmsqcOkxL8frQHEABHiIq+kS0Cv93vArO9ygDcaKQSeBYGoIQPvA6yMp
eVbiQUHVkU7GOVxXwcFoD6ZJCqujPH7gOTM0pvq+ROdVXcOolvq3pxdeh4kjFOfa
kTFBHYat/KBIN0t/1Mi/G7BADLsCAwEAAaOCAScwggEjMB0GA1UdJQQWMBQGCCsG
AQUFBwMCBggrBgEFBQcDATAMBgNVHRMBAf8EAjAAMA4GA1UdIwQHMAWAAwECAzBi
BggrBgEFBQcBAQRWMFQwIQYIKwYBBQUHMAGGFWh0dHA6Ly90aGVjYS5uZXQvb2Nz
cDAvBggrBgEFBQcwAoYjaHR0cDovL3RoZWNhLm5ldC90b3RhbGx5dGhlY2VydC5j
cnQwHwYDVR0gBBgwFjAKBggrBgEFBQcNATAIBgZngQwBAgIwDQYDVR0OBAYEBAQD
AgEwGwYDVR0RBBQwEoIIKi5nb3YudXOCBmdvdi51czAmBgNVHRIEHzAdghBhbGx0
aGV0aGluZ3MubmV0ggl0aGVjYS5uZXQwCwYDVR0PBAQDAgGgMA0GCSqGSIb3DQEB
CwUAA4IBAQBDzKLN/ZIUxB3cy6DyhliGWVHfI77/k0QX9b01MDluEw2N6O6G2Qy/
3CGVp4KBH15LucGtWuPUpEQJITCPYd0LMrX82Be4dA9wnDaZ/4KTtmCqHXMX00Ih
Zrz0GdJWn7PaPLWuayyyTqwbpnEMKh5LSFPiFiDVZONWBnF8qnIrF+MLSk6vCcoY
X9JXnrtXBg2521GHIXwN3HzJklckel75IG2cV5DioJaOODPtA+XnUxZajlnlSU0+
fwIcgJpu3bwaNg4IukfO+lRnKyZSEhuO0Fb4JRccmEHr0UQAeJMDQXYv7TYz6yUP
HGu1qNR8wqADjd8Sc/RRt5frFEZwAx+f
-----END CERTIFICATE-----
