Certificate:
    Data:
        Version: 3 (0x2)
        Serial Number: 18008675309 (0x4316693ed)
    Signature Algorithm: sha256WithRSAEncryption
        Issuer: C = US, O = Mother Nature, OU = Everything, CN = Mother Nature
        Validity
            Not Before: Jun 30 19:33:07 2016 GMT
            Not After : Sep 11 19:33:07 2016 GMT
        Subject: C = US, OU = Chaos, L = Tallahassee, ST = FL, street = 3210 Holly Mill Run, postalCode = 30062, CN = gov.us
        Subject Public Key Info:
            Public Key Algorithm: rsaEncryption
                Public-Key: (2048 bit)
                Modulus:
                    00:a6:9d:85:9c:9c:e0:9e:63:14:a4:2b:3a:21:c2:
                    b0:08:3c:df:b8:d1:5b:31:c9:34:d4:b8:bc:0b:b3:
                    75:e3:cf:8b:ae:b8:51:13:81:1b:e8:9b:2f:ca:a7:
                    fc:1e:94:38:f7:78:aa:d3:35:54:43:a8:50:bf:e6:
                    d9:c7:d7:c7:64:28:ef:9c:56:3d:d4:38:d4:da:e5:
                    51:3b:4f:69:ad:00:97:27:f8:46:3b:9f:56:5f:ff:
                    70:f3:48:f1:fb:a7:05:b4:5f:65:aa:a9:12:14:a2:
                    1e:2c:18:cc:c2:13:2a:9b:6a:3e:96:ce:64:a5:c2:
                    73:c0:dd:75:d9:8e:10:57:d1:ac:8d:f1:d3:16:83:
                    48:79:26:c9:d2:87:dd:63:b8:13:39:41:08:45:44:
                    ec:f5:6f:19:88:42:56:0f:7e:dd:30:07:e4:c0:0b:
                    f9:95:eb:50:d1:6c:f1:95:8c:13:c9:20:8e:3a:e6:
                    15:91:5b:98:7c:01:a3:a3:c3:5a:b5:e0:2e:af:69:
                    bb:46:ba:fe:31:9b:4d:ee:e7:7a:ba:d1:e2:bf:4b:
                    a2:d0:7e:d6:70:77:c9:44:7e:cb:21:88:1d:37:2b:
                    6f:70:b4:41:ff:78:c1:1e:69:e3:4b:58:3d:72:a8:
                    ee:a9:2d:4c:cb:00:5d:e2:18:0b:30:65:18:c1:ba:
                    95:eb
                Exponent: 65537 (0x10001)
        X509v3 extensions:
            X509v3 Key Usage: critical
                Digital Signature, Key Encipherment
            X509v3 Extended Key Usage: 
                TLS Web Client Authentication, TLS Web Server Authentication
            X509v3 Basic Constraints: critical
                CA:FALSE
            X509v3 Authority Key Identifier: 
                keyid:01:02:03

            Authority Information Access: 
                OCSP - URI:http://theca.net/ocsp
                CA Issuers - URI:http://theca.net/totallythecert.crt

            X509v3 Certificate Policies: 
                Policy: 2.23.140.1.2.2

            X509v3 Subject Key Identifier: 
                04:03:02:01
            X509v3 Subject Alternative Name: 
                DNS:*.gov.us, DNS:gov.us
    Signature Algorithm: sha256WithRSAEncryption
         35:fd:67:1a:db:3d:16:4b:b2:e8:23:b8:54:6e:67:aa:5e:bb:
         f3:d1:07:73:e2:e4:81:95:d7:dd:66:ab:5c:95:5c:02:76:53:
         52:3d:97:eb:9f:b8:d7:29:c8:1d:c9:89:b8:fc:1d:f1:a7:cb:
         45:87:d5:19:ad:c9:be:a1:95:57:ec:95:f0:88:ab:31:4c:06:
         d1:2a:2f:4a:fe:9c:1b:9d:fd:d3:65:21:60:e6:a9:ae:5a:8b:
         f1:9b:ce:f4:4e:e5:cf:fd:6f:70:ad:5b:6f:94:46:99:64:0b:
         ee:8e:7f:48:1c:af:c4:a5:c9:e7:ae:12:99:4f:eb:65:28:61:
         cc:0a:fc:dc:70:04:5e:a9:c7:59:67:d2:ef:bb:67:6d:88:31:
         22:51:61:6a:70:7c:a2:5a:c9:ce:fb:e9:fb:5e:54:24:89:20:
         2f:38:1b:f3:31:ba:ae:dd:68:09:08:ba:1c:38:80:76:e0:f6:
         f2:01:fb:a6:4e:d0:11:a1:d0:c4:c1:6c:12:c2:b8:4d:9a:79:
         b5:85:a7:25:0d:14:11:35:0e:bf:c5:dd:90:23:06:fb:1f:b1:
         43:0b:77:1a:43:97:71:10:4b:aa:21:32:3f:de:c1:df:a2:1f:
         41:ed:62:78:e3:57:c6:02:4c:8e:7b:2e:16:c7:55:59:04:5b:
         13:8c:70:a9
-----BEGIN CERTIFICATE-----
MIIERjCCAy6gAwIBAgIFBDFmk+0wDQYJKoZIhvcNAQELBQAwUjELMAkGA1UEBhMC
VVMxFjAUBgNVBAoTDU1vdGhlciBOYXR1cmUxEzARBgNVBAsTCkV2ZXJ5dGhpbmcx
FjAUBgNVBAMTDU1vdGhlciBOYXR1cmUwHhcNMTYwNjMwMTkzMzA3WhcNMTYwOTEx
MTkzMzA3WjB/MQswCQYDVQQGEwJVUzEOMAwGA1UECxMFQ2hhb3MxFDASBgNVBAcT
C1RhbGxhaGFzc2VlMQswCQYDVQQIEwJGTDEcMBoGA1UECRMTMzIxMCBIb2xseSBN
aWxsIFJ1bjEOMAwGA1UEERMFMzAwNjIxDzANBgNVBAMTBmdvdi51czCCASIwDQYJ
KoZIhvcNAQEBBQADggEPADCCAQoCggEBAKadhZyc4J5jFKQrOiHCsAg837jRWzHJ
NNS4vAuzdePPi664UROBG+ibL8qn/B6UOPd4qtM1VEOoUL/m2cfXx2Qo75xWPdQ4
1NrlUTtPaa0Alyf4RjufVl//cPNI8funBbRfZaqpEhSiHiwYzMITKptqPpbOZKXC
c8DdddmOEFfRrI3x0xaDSHkmydKH3WO4EzlBCEVE7PVvGYhCVg9+3TAH5MAL+ZXr
UNFs8ZWME8kgjjrmFZFbmHwBo6PDWrXgLq9pu0a6/jGbTe7nerrR4r9LotB+1nB3
yUR+yyGIHTcrb3C0Qf94wR5p40tYPXKo7qktTMsAXeIYCzBlGMG6lesCAwEAAaOB
9TCB8jAOBgNVHQ8BAf8EBAMCBaAwHQYDVR0lBBYwFAYIKwYBBQUHAwIGCCsGAQUF
BwMBMAwGA1UdEwEB/wQCMAAwDgYDVR0jBAcwBYADAQIDMGIGCCsGAQUFBwEBBFYw
VDAhBggrBgEFBQcwAYYVaHR0cDovL3RoZWNhLm5ldC9vY3NwMC8GCCsGAQUFBzAC
hiNodHRwOi8vdGhlY2EubmV0L3RvdGFsbHl0aGVjZXJ0LmNydDATBgNVHSAEDDAK
MAgGBmeBDAECAjANBgNVHQ4EBgQEBAMCATAbBgNVHREEFDASgggqLmdvdi51c4IG
Z292LnVzMA0GCSqGSIb3DQEBCwUAA4IBAQA1/Wca2z0WS7LoI7hUbmeqXrvz0Qdz
4uSBldfdZqtclVwCdlNSPZfrn7jXKcgdyYm4/B3xp8tFh9UZrcm+oZVX7JXwiKsx
TAbRKi9K/pwbnf3TZSFg5qmuWovxm870TuXP/W9wrVtvlEaZZAvujn9IHK/Epcnn
rhKZT+tlKGHMCvzccAReqcdZZ9Lvu2dtiDEiUWFqcHyiWsnO++n7XlQkiSAvOBvz
Mbqu3WgJCLocOIB24PbyAfumTtARodDEwWwSwrhNmnm1haclDRQRNQ6/xd2QIwb7
H7FDC3caQ5dxEEuqITI/3sHfoh9B7WJ441fGAkyOey4Wx1VZBFsTjHCp
-----END CERTIFICATE-----
