Certificate:
    Data:
        Version: 3 (0x2)
        Serial Number: 18008675309 (0x4316693ed)
    Signature Algorithm: sha256WithRSAEncryption
        Issuer: C = US, O = Mother Nature, OU = Everything, CN = Mother Nature
        Validity
            Not Before: Jun 30 19:32:53 2016 GMT
            Not After : Sep 11 19:32:53 2016 GMT
        Subject: C = US, O = Extreme Discord, OU = Chaos, L = Tallahassee, ST = FL, street = 3210 Holly Mill Run, postalCode = 30062, CN = gov.us
        Subject Public Key Info:
            Public Key Algorithm: rsaEncryption
                Public-Key: (2048 bit)
                Modulus:
                    00:c5:ae:07:fe:8e:17:9f:27:f3:0f:58:24:d4:f9:
                    29:64:0b:32:36:f7:eb:91:17:98:78:bd:0c:e0:63:
                    05:80:12:1f:5b:74:80:86:a2:bd:08:47:96:d5:96:
                    07:46:c1:08:05:82:93:31:22:f7:8a:72:6f:dd:80:
                    f7:ef:e6:db:f3:c7:aa:b0:28:ac:92:3c:30:13:b5:
                    c0:2c:79:80:c6:4d:8c:cf:69:36:56:29:e4:39:8c:
                    08:eb:76:c9:fb:2c:64:5f:2f:58:5b:73:c9:29:54:
                    0a:69:46:12:e3:cb:62:e1:a3:06:92:01:98:93:fc:
                    34:36:97:5c:41:2c:34:f5:6f:75:3a:2b:58:a7:59:
                    98:13:b9:3f:89:f0:b9:cb:8e:b7:5e:6c:6d:c9:7d:
                    03:b6:cb:48:5f:6b:70:85:fb:1e:ec:7b:9d:3c:5a:
                    0c:21:3b:36:08:fa:fc:17:31:38:af:9b:0e:00:d8:
                    ea:9e:c6:68:53:14:f8:59:2f:97:45:6f:c2:69:e6:
                    4f:65:3f:83:26:bb:07:0e:d5:0f:4b:9d:a5:8e:b6:
                    d6:e8:d5:4f:36:a0:03:eb:c9:77:c6:5b:df:d0:43:
                    6e:59:eb:9b:db:87:8d:45:22:9f:25:77:16:86:90:
                    74:dc:bb:94:1b:e3:3d:dd:c2:72:6a:bc:1b:df:37:
                    e2:4f
                Exponent: 65537 (0x10001)
        X509v3 extensions:
            X509v3 Key Usage: critical
                Digital Signature, Key Encipherment
            X509v3 Extended Key Usage: 
                TLS Web Client Authentication, TLS Web Server Authentication
            X509v3 Basic Constraints: critical
                CA:FALSE
            X509v3 Authority Key Identifier: 
                keyid:01:02:03

            Authority Information Access: 
                OCSP - URI:http://theca.net/ocsp
                CA Issuers - URI:http://theca.net/totallythecert.crt

            X509v3 Certificate Policies: 
                Policy: 2.23.140.1.2.2

            X509v3 Subject Key Identifier: 
                04:03:02:01
            X509v3 Subject Alternative Name: 
                DNS:*.gov.us, DNS:gov.us
    Signature Algorithm: sha256WithRSAEncryption
         c5:57:6b:11:8c:4d:ba:bf:92:5a:ba:71:06:b2:39:e4:f7:76:
         2d:62:59:58:99:11:06:6b:bb:fe:7a:27:bd:01:16:7c:2b:7f:
         1c:0d:a4:d1:1b:00:67:fd:1b:c1:01:7d:f4:d7:1b:d2:53:69:
         54:dd:ba:46:ed:ec:44:b6:07:95:f5:0b:98:93:c8:8a:56:23:
         5e:c3:d2:35:f8:65:bd:1d:a3:8b:b7:f7:4b:8c:ae:ea:d9:8d:
         98:1f:06:8a:4d:1b:14:28:4a:e0:1d:0b:ef:5e:5f:e9:16:38:
         c5:3e:a9:a9:7c:d9:11:a9:18:da:a8:7d:4e:a9:17:a1:bc:7d:
         f2:da:2f:53:05:60:69:53:7f:40:00:38:4b:59:54:e4:22:b8:
         6b:9b:b8:27:72:68:23:70:73:f3:3d:e5:d4:47:c3:14:b1:35:
         7c:91:68:31:85:e7:54:fa:b7:1a:2c:c1:c7:26:b8:33:aa:cf:
         f6:43:76:e4:99:b5:1b:f0:a2:72:1e:a3:d7:01:b0:e6:ae:12:
         77:78:61:c4:db:92:1e:f9:04:b2:39:4b:13:d4:49:a7:46:9e:
         fb:d4:9c:1a:e3:c7:63:d1:e4:74:a2:40:48:c2:94:37:fd:0a:
         04:27:88:24:f8:5c:b7:33:3c:d2:f6:64:2b:36:9c:05:3f:ad:
         a3:d6:fb:34
-----BEGIN CERTIFICATE-----
MIIEYTCCA0mgAwIBAgIFBDFmk+0wDQYJKoZIhvcNAQELBQAwUjELMAkGA1UEBhMC
VVMxFjAUBgNVBAoTDU1vdGhlciBOYXR1cmUxEzARBgNVBAsTCkV2ZXJ5dGhpbmcx
FjAUBgNVBAMTDU1vdGhlciBOYXR1cmUwHhcNMTYwNjMwMTkzMjUzWhcNMTYwOTEx
MTkzMjUzWjCBmTELMAkGA1UEBhMCVVMxGDAWBgNVBAoTD0V4dHJlbWUgRGlzY29y
ZDEOMAwGA1UECxMFQ2hhb3MxFDASBgNVBAcTC1RhbGxhaGFzc2VlMQswCQYDVQQI
EwJGTDEcMBoGA1UECRMTMzIxMCBIb2xseSBNaWxsIFJ1bjEOMAwGA1UEERMFMzAw
NjIxDzANBgNVBAMTBmdvdi51czCCASIwDQYJKoZIhvcNAQEBBQADggEPADCCAQoC
ggEBAMWuB/6OF58n8w9YJNT5KWQLMjb365EXmHi9DOBjBYASH1t0gIaivQhHltWW
B0bBCAWCkzEi94pyb92A9+/m2/PHqrAorJI8MBO1wCx5gMZNjM9pNlYp5DmMCOt2
yfssZF8vWFtzySlUCmlGEuPLYuGjBpIBmJP8NDaXXEEsNPVvdTorWKdZmBO5P4nw
ucuOt15sbcl9A7bLSF9rcIX7Hux7nTxaDCE7Ngj6/BcxOK+bDgDY6p7GaFMU+Fkv
l0VvwmnmT2U/gya7Bw7VD0udpY621ujVTzagA+vJd8Zb39BDblnrm9uHjUUinyV3
FoaQdNy7lBvjPd3Ccmq8G9834k8CAwEAAaOB9TCB8jAOBgNVHQ8BAf8EBAMCBaAw
HQYDVR0lBBYwFAYIKwYBBQUHAwIGCCsGAQUFBwMBMAwGA1UdEwEB/wQCMAAwDgYD
VR0jBAcwBYADAQIDMGIGCCsGAQUFBwEBBFYwVDAhBggrBgEFBQcwAYYVaHR0cDov
L3RoZWNhLm5ldC9vY3NwMC8GCCsGAQUFBzAChiNodHRwOi8vdGhlY2EubmV0L3Rv
dGFsbHl0aGVjZXJ0LmNydDATBgNVHSAEDDAKMAgGBmeBDAECAjANBgNVHQ4EBgQE
BAMCATAbBgNVHREEFDASgggqLmdvdi51c4IGZ292LnVzMA0GCSqGSIb3DQEBCwUA
A4IBAQDFV2sRjE26v5JaunEGsjnk93YtYllYmREGa7v+eie9ARZ8K38cDaTRGwBn
/RvBAX301xvSU2lU3bpG7exEtgeV9QuYk8iKViNew9I1+GW9HaOLt/dLjK7q2Y2Y
HwaKTRsUKErgHQvvXl/pFjjFPqmpfNkRqRjaqH1OqRehvH3y2i9TBWBpU39AADhL
WVTkIrhrm7gncmgjcHPzPeXUR8MUsTV8kWgxhedU+rcaLMHHJrgzqs/2Q3bkmbUb
8KJyHqPXAbDmrhJ3eGHE25Ie+QSyOUsT1EmnRp771Jwa48dj0eR0okBIwpQ3/QoE
J4gk+Fy3MzzS9mQrNpwFP62j1vs0
-----END CERTIFICATE-----
