Certificate:
    Data:
        Version: 3 (0x2)
        Serial Number: 0 (0x0)
    Signature Algorithm: ecdsa-with-SHA384
        Issuer:
        Validity
            Not Before: Nov 10 23:00:00 2009 GMT
            Not After : Aug 10 23:00:00 2019 GMT
        Subject:
        Subject Public Key Info:
            Public Key Algorithm: id-ecPublicKey
                Public-Key: (256 bit)
                pub:
                    04:27:0c:60:cf:ca:31:8a:91:db:8f:67:c7:95:04:
                    6d:df:18:31:99:2c:97:8a:71:8d:7b:c2:b9:79:3d:
                    02:86:21:a9:1b:5a:0c:55:03:cc:cc:18:2c:1b:96:
                    52:81:dc:70:62:7f:c9:f4:67:cd:d3:f4:43:31:b4:
                    a5:75:0b:19:3b
                ASN1 OID: prime256v1
                NIST CURVE: P-256
        X509v3 extensions:
            X509v3 Subject Alternative Name: critical
                DNS:asd
    Signature Algorithm: ecdsa-with-SHA384
         30:44:02:20:3b:b7:b6:5d:a4:13:a1:f2:d8:42:5e:36:b9:e5:
         41:7a:90:1c:ea:45:3f:11:6e:b7:b0:7d:b0:f7:bc:22:8b:35:
         02:20:25:7a:88:77:4c:8a:fd:9d:e8:93:33:93:6d:f7:c3:80:
         ba:a1:1c:51:3e:04:b6:7f:c1:ff:a2:3a:c4:87:ac:f9
-----BEGIN CERTIFICATE-----
MIIBAjCBqqADAgECAgEAMAoGCCqGSM49BAMCMAAwHhcNMDkxMTEwMjMwMDAwWhcN
MTkwODEwMjMwMDAwWjAAMFkwEwYHKoZIzj0CAQYIKoZIzj0DAQcDQgAEJwxgz8ox
ipHbj2fHlQRt3xgxmSyXinGNe8K5eT0ChiGpG1oMVQPMzBgsG5ZSgdxwYn/J9GfN
0/RDMbSldQsZO6MVMBMwEQYDVR0RAQH/BAcwBYIDYXNkMAoGCCqGSM49BAMDA0cA
MEQCIDu3tl2kE6Hy2EJeNrnlQXqQHOpFPxFut7B9sPe8Ios1AiAleoh3TIr9neiT
M5Nt98OAuqEcUT4Etn/B/6I6xIes+Q==
-----END CERTIFICATE-----
