Certificate:
    Data:
        Version: 3 (0x2)
        Serial Number: 2 (0x2)
        Signature Algorithm: sha256WithRSAEncryption
        Issuer: C = US, ST = California, L = San Francisco, O = Bogus Inc., OU = Operations, CN = Zlint test certificates CA
        Validity
            Not Before: Sep 27 14:59:23 2019 GMT
            Not After : Sep 26 14:59:23 2021 GMT
        Subject: CN = www.example.com
        Subject Public Key Info:
            Public Key Algorithm: rsaEncryption
                RSA Public-Key: (2048 bit)
                Modulus:
                    00:bf:98:2c:c1:0d:d8:7d:71:cc:d9:7f:d6:5b:c1:
                    9a:ef:9f:9a:6b:3e:7f:a8:c3:08:57:cb:4b:9b:20:
                    c3:6a:64:0c:79:29:b2:90:63:5c:e0:55:d6:09:e8:
                    9e:14:40:e2:e3:c4:4c:9b:ff:65:57:c5:13:7b:49:
                    36:52:5e:00:a7:99:b5:de:43:3d:6e:69:df:6f:27:
                    68:83:df:0d:9c:e1:60:2f:17:12:81:72:a6:27:45:
                    11:84:9a:8b:2a:bb:3f:9e:9a:79:83:20:e1:3a:2a:
                    5b:21:7e:ab:14:5d:15:6a:3a:d6:e2:80:e4:97:04:
                    f4:36:62:59:a6:7b:d6:1a:ee:75:be:5a:a2:1f:0c:
                    6e:c8:d6:2c:ba:0f:fc:1a:f6:df:d4:e0:6d:7f:a1:
                    6c:9c:20:38:db:8e:df:76:f7:fb:8c:85:7a:f8:29:
                    15:b3:75:84:32:59:dd:c8:2e:e7:ef:35:c3:13:bf:
                    de:2c:9a:d4:2d:b2:60:c0:88:23:5e:e9:b3:5d:cc:
                    7b:0e:cc:a6:4e:75:e0:1c:ed:07:bc:2f:ab:9d:bb:
                    5c:10:51:b3:48:b4:27:4b:84:f2:43:72:e7:c6:a8:
                    a7:26:bc:87:ab:d0:70:4f:2a:b0:30:c5:d7:ea:bc:
                    76:24:09:ac:18:d9:6f:a0:59:35:8c:36:11:f7:1f:
                    d9:53
                Exponent: 65537 (0x10001)
        X509v3 extensions:
            X509v3 Key Usage: critical
                Digital Signature, Key Encipherment
            X509v3 Basic Constraints: 
                CA:FALSE
            X509v3 Extended Key Usage: 
                TLS Web Server Authentication, TLS Web Client Authentication
            X509v3 Subject Key Identifier: 
                BE:2A:17:7B:23:22:8F:79:26:DC:E9:D4:1B:E2:00:D3:11:75:EB:F6
            X509v3 Subject Alternative Name: 
                DNS:www.example.com
            X509v3 Authority Key Identifier: 
                keyid:F6:6E:67:49:02:D7:15:70:11:9C:8C:06:86:74:E0:32:61:16:C7:0E
                DirName:/C=US/ST=California/L=San Francisco/O=Bogus Inc./OU=Operations/CN=Zlint test certificates CA
                serial:01

            Authority Information Access: 
                CA Issuers - URI:http://example.com/ca/root.crt

            X509v3 CRL Distribution Points: 

                Full Name:
                  URI:http://example.com/ca/root.crl

    Signature Algorithm: sha256WithRSAEncryption
         91:ee:0a:aa:82:7f:d6:d8:4b:f6:cf:eb:f9:9c:a8:b8:dd:3f:
         23:70:7d:57:d6:eb:36:95:51:2c:09:7f:3f:ee:86:e6:9e:8b:
         e9:29:90:ea:6c:f9:73:41:9a:72:51:14:18:1e:7e:38:07:ec:
         ab:07:e0:92:7e:fa:11:5c:83:0f:c5:d7:d3:aa:95:23:78:bb:
         a3:ce:e8:41:7d:ec:06:08:42:53:bb:99:cd:cc:32:27:9b:85:
         26:d5:86:7e:ed:9c:63:5b:13:9b:4b:0c:46:43:c4:51:92:25:
         df:87:ee:83:08:fa:63:ac:a2:36:d1:12:c9:aa:da:e6:0b:82:
         8f:5a:df:d0:e1:aa:69:51:2a:b4:d3:c8:41:4d:d5:77:ab:d8:
         2c:e9:68:b8:91:c9:5f:55:f7:d6:7a:30:38:75:8f:45:82:55:
         1e:51:bb:41:12:2d:58:a2:24:cc:d6:67:a2:f6:35:8c:5f:74:
         c1:03:16:85:ad:78:95:2c:7f:11:dd:b4:86:ef:c6:a0:38:dd:
         ad:da:f0:8e:d3:6c:6e:05:15:b3:2f:1f:af:e3:06:c8:75:89:
         10:04:38:a9:09:1e:2b:fd:9b:f1:0b:c7:bd:77:46:79:1d:d7:
         43:d2:b0:29:d3:e0:ab:a8:34:78:16:0c:4d:14:b2:45:05:7b:
         f6:a4:c1:6f:13:20:e8:ae:cb:a4:15:f2:16:4e:b9:d5:d3:9a:
         99:f8:25:ea:03:6a:1a:c4:58:d3:df:07:0a:49:d9:9f:1b:c4:
         9c:0a:a2:56:1c:64:3d:fc:d0:7e:f4:f9:da:f5:24:61:88:28:
         ef:ff:f7:bb:70:2c:73:91:05:42:e4:4e:9b:4c:22:a0:44:3b:
         e8:88:e5:ff:29:f0:f1:d0:52:ab:40:f0:8e:dd:5b:1e:8a:1f:
         94:23:41:02:b4:fd:68:a2:28:94:e7:25:17:1d:6f:3a:c0:09:
         77:61:55:41:54:4b:cb:39:d0:9e:5e:f7:28:e0:c9:56:1f:9f:
         49:39:33:17:10:7c:7e:4f:39:f4:ff:43:52:98:e1:94:6e:43:
         da:0c:f3:57:aa:b6:eb:df:0e:6f:3e:25:9c:b6:33:57:c9:e7:
         f7:db:7c:59:8f:74:18:6f:3b:4c:90:d0:28:2e:c4:32:6c:8e:
         dc:f4:29:9b:9c:ba:75:43:40:ec:53:73:8a:80:20:48:0e:e0:
         e5:94:42:96:9e:49:e2:f7:f0:8e:6a:8c:b1:a6:2a:15:9e:ad:
         3e:bb:69:cb:44:20:19:7d:11:c8:39:3a:db:39:ec:50:81:62:
         df:2b:ab:4f:2a:05:a8:d3:2d:af:2f:8c:2f:9e:60:cf:45:7e:
         f2:cb:9a:40:de:8e:b0:f2
-----BEGIN CERTIFICATE-----
MIIFwDCCA6igAwIBAgIBAjANBgkqhkiG9w0BAQsFADCBiTELMAkGA1UEBhMCVVMx
EzARBgNVBAgMCkNhbGlmb3JuaWExFjAUBgNVBAcMDVNhbiBGcmFuY2lzY28xEzAR
BgNVBAoMCkJvZ3VzIEluYy4xEzARBgNVBAsMCk9wZXJhdGlvbnMxIzAhBgNVBAMM
GlpsaW50IHRlc3QgY2VydGlmaWNhdGVzIENBMB4XDTE5MDkyNzE0NTkyM1oXDTIx
MDkyNjE0NTkyM1owGjEYMBYGA1UEAwwPd3d3LmV4YW1wbGUuY29tMIIBIjANBgkq
hkiG9w0BAQEFAAOCAQ8AMIIBCgKCAQEAv5gswQ3YfXHM2X/WW8Ga75+aaz5/qMMI
V8tLmyDDamQMeSmykGNc4FXWCeieFEDi48RMm/9lV8UTe0k2Ul4Ap5m13kM9bmnf
bydog98NnOFgLxcSgXKmJ0URhJqLKrs/npp5gyDhOipbIX6rFF0VajrW4oDklwT0
NmJZpnvWGu51vlqiHwxuyNYsug/8Gvbf1OBtf6FsnCA4247fdvf7jIV6+CkVs3WE
MlndyC7n7zXDE7/eLJrULbJgwIgjXumzXcx7DsymTnXgHO0HvC+rnbtcEFGzSLQn
S4TyQ3LnxqinJryHq9BwTyqwMMXX6rx2JAmsGNlvoFk1jDYR9x/ZUwIDAQABo4IB
nzCCAZswDgYDVR0PAQH/BAQDAgWgMAkGA1UdEwQCMAAwHQYDVR0lBBYwFAYIKwYB
BQUHAwEGCCsGAQUFBwMCMB0GA1UdDgQWBBS+Khd7IyKPeSbc6dQb4gDTEXXr9jAa
BgNVHREEEzARgg93d3cuZXhhbXBsZS5jb20wgbYGA1UdIwSBrjCBq4AU9m5nSQLX
FXARnIwGhnTgMmEWxw6hgY+kgYwwgYkxCzAJBgNVBAYTAlVTMRMwEQYDVQQIDApD
YWxpZm9ybmlhMRYwFAYDVQQHDA1TYW4gRnJhbmNpc2NvMRMwEQYDVQQKDApCb2d1
cyBJbmMuMRMwEQYDVQQLDApPcGVyYXRpb25zMSMwIQYDVQQDDBpabGludCB0ZXN0
IGNlcnRpZmljYXRlcyBDQYIBATA6BggrBgEFBQcBAQQuMCwwKgYIKwYBBQUHMAKG
Hmh0dHA6Ly9leGFtcGxlLmNvbS9jYS9yb290LmNydDAvBgNVHR8EKDAmMCSgIqAg
hh5odHRwOi8vZXhhbXBsZS5jb20vY2Evcm9vdC5jcmwwDQYJKoZIhvcNAQELBQAD
ggIBAJHuCqqCf9bYS/bP6/mcqLjdPyNwfVfW6zaVUSwJfz/uhuaei+kpkOps+XNB
mnJRFBgefjgH7KsH4JJ++hFcgw/F19OqlSN4u6PO6EF97AYIQlO7mc3MMiebhSbV
hn7tnGNbE5tLDEZDxFGSJd+H7oMI+mOsojbREsmq2uYLgo9a39DhqmlRKrTTyEFN
1Xer2CzpaLiRyV9V99Z6MDh1j0WCVR5Ru0ESLViiJMzWZ6L2NYxfdMEDFoWteJUs
fxHdtIbvxqA43a3a8I7TbG4FFbMvH6/jBsh1iRAEOKkJHiv9m/ELx713Rnkd10PS
sCnT4KuoNHgWDE0UskUFe/akwW8TIOiuy6QV8hZOudXTmpn4JeoDahrEWNPfBwpJ
2Z8bxJwKolYcZD380H70+dr1JGGIKO//97twLHORBULkTptMIqBEO+iI5f8p8PHQ
UqtA8I7dWx6KH5QjQQK0/WiiKJTnJRcdbzrACXdhVUFUS8s50J5e9yjgyVYfn0k5
MxcQfH5POfT/Q1KY4ZRuQ9oM81eqtuvfDm8+JZy2M1fJ5/fbfFmPdBhvO0yQ0Cgu
xDJsjtz0KZucunVDQOxTc4qAIEgO4OWUQpaeSeL38I5qjLGmKhWerT67actEIBl9
Ecg5Ots57FCBYt8rq08qBajTLa8vjC+eYM9FfvLLmkDejrDy
-----END CERTIFICATE-----
