Certificate:
    Data:
        Version: 3 (0x2)
        Serial Number: 9197242317802154860 (0x7fa32b28b1c9ab6c)
        Signature Algorithm: sha256WithRSAEncryption
        Issuer: C = US, ST = Texas, L = Houston, O = SSL Corporation, CN = SSL.com EV Root Certification Authority RSA R2
        Validity
            Not Before: Feb 14 18:08:58 2019 GMT
            Not After : Feb 12 18:08:58 2027 GMT
        Subject: C = US, ST = Texas, L = Houston, O = SSL Corporation, CN = SSL.com EV Root Certification Authority ECC
        Subject Public Key Info:
            Public Key Algorithm: id-ecPublicKey
                Public-Key: (384 bit)
                pub:
                    04:aa:12:47:90:98:1b:fb:ef:c3:40:07:83:20:4e:
                    f1:30:82:a2:06:d1:f2:92:86:61:f2:f6:21:68:ca:
                    00:c4:c7:ea:43:00:54:86:dc:fd:1f:df:00:b8:41:
                    62:5c:dc:70:16:32:de:1f:99:d4:cc:c5:07:c8:08:
                    1f:61:16:07:51:3d:7d:5c:07:53:e3:35:38:8c:df:
                    cd:9f:d9:2e:0d:4a:b6:19:2e:5a:70:5a:06:ed:be:
                    f0:a1:b0:ca:d0:09:29
                ASN1 OID: secp384r1
                NIST CURVE: P-384
        X509v3 extensions:
            X509v3 Basic Constraints: critical
                CA:TRUE
            X509v3 Authority Key Identifier: 
                keyid:F9:60:BB:D4:E3:D5:34:F6:B8:F5:06:80:25:A7:73:DB:46:69:A8:9E

            Authority Information Access: 
                CA Issuers - URI:http://www.ssl.com/repository/SSLcom-RootCA-EV-RSA-4096-R2.crt
                OCSP - URI:http://ocsps.ssl.com

            X509v3 Certificate Policies: 
                Policy: X509v3 Any Policy

            X509v3 CRL Distribution Points: 

                Full Name:
                  URI:http://crls.ssl.com/SSLcom-RootCA-EV-RSA-4096-R2.crl

            X509v3 Subject Key Identifier: 
                5B:CA:5E:E5:DE:D2:81:AA:CD:A8:2D:64:51:B6:D9:72:9B:97:E6:4F
            X509v3 Key Usage: critical
                Digital Signature, Certificate Sign, CRL Sign
    Signature Algorithm: sha256WithRSAEncryption
         4b:5b:cf:1d:98:b5:54:af:79:7c:23:02:03:b5:25:1a:cf:a3:
         14:69:9e:33:94:b3:10:c8:73:2f:49:71:cf:4d:79:5b:fc:a6:
         83:57:4a:6c:5b:f4:cd:a0:89:62:75:96:58:02:26:22:e7:ed:
         22:2c:fb:81:66:13:4d:1b:60:80:77:2b:f3:a7:38:fc:f8:2a:
         36:50:51:51:35:74:ff:0c:79:db:3b:ad:f4:59:89:0c:6a:0d:
         63:28:20:31:8a:d5:72:3a:52:0d:60:43:1e:10:f3:62:b1:1b:
         40:15:65:6f:26:dc:07:83:f7:a3:98:5a:3f:55:5d:80:1b:e7:
         37:70:ab:0f:f6:f3:16:92:62:0b:28:a9:44:84:4e:31:4d:08:
         b7:8f:1b:2f:88:b3:5e:00:9b:73:05:e6:44:69:d3:ff:13:92:
         d5:26:a0:bb:5a:75:8f:85:f4:c1:7d:90:6e:9e:d0:8c:e3:c3:
         1b:14:a4:9c:c1:99:0c:3e:cc:b6:54:25:6f:dd:0a:cd:b7:74:
         7e:25:fa:63:13:bb:db:9d:ad:ec:2a:1d:b2:5c:71:77:78:26:
         93:d2:2f:85:be:59:c1:7d:b3:dc:a6:4f:c1:c9:81:0f:b2:35:
         1e:f0:94:f8:83:26:f9:2c:45:9d:00:01:06:25:72:b5:62:69:
         a4:67:63:b0:1f:86:6a:d2:d5:0a:7f:55:42:e1:5d:01:71:c4:
         e9:90:74:00:1c:a9:2b:d7:48:00:92:f3:f8:2c:62:a2:ae:11:
         3a:24:9b:95:ac:e0:51:ce:17:21:2d:b7:4a:43:7c:89:1b:ac:
         3e:e8:a6:f6:94:92:c5:f8:24:f2:43:92:39:f2:92:cf:7f:11:
         f8:8b:71:d6:7c:f3:f3:20:64:9c:3b:c4:ae:42:69:2b:27:b4:
         e4:6a:59:28:50:15:aa:8a:ba:47:61:5a:ed:c0:74:61:b9:26:
         9d:0d:6d:9f:89:df:0b:35:7e:df:16:30:37:37:cc:15:cc:28:
         6f:12:f6:2f:0e:87:be:e7:af:a2:9c:bc:98:49:fc:4b:41:05:
         d9:21:27:5a:89:fd:b5:71:2c:09:e7:8d:33:33:c1:df:18:a8:
         ed:7e:50:49:99:17:0b:4d:2f:30:a5:8e:96:7a:b5:35:a7:d6:
         a6:3a:8a:39:ff:0a:c8:47:98:be:47:aa:75:b3:3b:cb:05:9e:
         8e:2f:80:aa:4c:25:b0:68:93:d3:a5:f7:d2:96:63:e7:85:49:
         59:bf:20:39:02:24:e2:32:39:53:ad:d2:df:f1:ad:f6:06:ef:
         85:4e:e1:12:f6:85:f2:b4:a9:b3:ba:2a:15:be:19:aa:02:97:
         62:f1:a7:be:03:6c:0d:df
-----BEGIN CERTIFICATE-----
MIIFFTCCAv2gAwIBAgIIf6MrKLHJq2wwDQYJKoZIhvcNAQELBQAwgYIxCzAJBgNV
BAYTAlVTMQ4wDAYDVQQIDAVUZXhhczEQMA4GA1UEBwwHSG91c3RvbjEYMBYGA1UE
CgwPU1NMIENvcnBvcmF0aW9uMTcwNQYDVQQDDC5TU0wuY29tIEVWIFJvb3QgQ2Vy
dGlmaWNhdGlvbiBBdXRob3JpdHkgUlNBIFIyMB4XDTE5MDIxNDE4MDg1OFoXDTI3
MDIxMjE4MDg1OFowfzELMAkGA1UEBhMCVVMxDjAMBgNVBAgMBVRleGFzMRAwDgYD
VQQHDAdIb3VzdG9uMRgwFgYDVQQKDA9TU0wgQ29ycG9yYXRpb24xNDAyBgNVBAMM
K1NTTC5jb20gRVYgUm9vdCBDZXJ0aWZpY2F0aW9uIEF1dGhvcml0eSBFQ0MwdjAQ
BgcqhkjOPQIBBgUrgQQAIgNiAASqEkeQmBv778NAB4MgTvEwgqIG0fKShmHy9iFo
ygDEx+pDAFSG3P0f3wC4QWJc3HAWMt4fmdTMxQfICB9hFgdRPX1cB1PjNTiM382f
2S4NSrYZLlpwWgbtvvChsMrQCSmjggE9MIIBOTAPBgNVHRMBAf8EBTADAQH/MB8G
A1UdIwQYMBaAFPlgu9Tj1TT2uPUGgCWnc9tGaaieMHwGCCsGAQUFBwEBBHAwbjBK
BggrBgEFBQcwAoY+aHR0cDovL3d3dy5zc2wuY29tL3JlcG9zaXRvcnkvU1NMY29t
LVJvb3RDQS1FVi1SU0EtNDA5Ni1SMi5jcnQwIAYIKwYBBQUHMAGGFGh0dHA6Ly9v
Y3Nwcy5zc2wuY29tMBEGA1UdIAQKMAgwBgYEVR0gADBFBgNVHR8EPjA8MDqgOKA2
hjRodHRwOi8vY3Jscy5zc2wuY29tL1NTTGNvbS1Sb290Q0EtRVYtUlNBLTQwOTYt
UjIuY3JsMB0GA1UdDgQWBBRbyl7l3tKBqs2oLWRRttlym5fmTzAOBgNVHQ8BAf8E
BAMCAYYwDQYJKoZIhvcNAQELBQADggIBAEtbzx2YtVSveXwjAgO1JRrPoxRpnjOU
sxDIcy9Jcc9NeVv8poNXSmxb9M2giWJ1llgCJiLn7SIs+4FmE00bYIB3K/OnOPz4
KjZQUVE1dP8Meds7rfRZiQxqDWMoIDGK1XI6Ug1gQx4Q82KxG0AVZW8m3AeD96OY
Wj9VXYAb5zdwqw/28xaSYgsoqUSETjFNCLePGy+Is14Am3MF5kRp0/8TktUmoLta
dY+F9MF9kG6e0IzjwxsUpJzBmQw+zLZUJW/dCs23dH4l+mMTu9udrewqHbJccXd4
JpPSL4W+WcF9s9ymT8HJgQ+yNR7wlPiDJvksRZ0AAQYlcrViaaRnY7AfhmrS1Qp/
VULhXQFxxOmQdAAcqSvXSACS8/gsYqKuETokm5Ws4FHOFyEtt0pDfIkbrD7opvaU
ksX4JPJDkjnyks9/EfiLcdZ88/MgZJw7xK5CaSsntORqWShQFaqKukdhWu3AdGG5
Jp0NbZ+J3ws1ft8WMDc3zBXMKG8S9i8Oh77nr6KcvJhJ/EtBBdkhJ1qJ/bVxLAnn
jTMzwd8YqO1+UEmZFwtNLzCljpZ6tTWn1qY6ijn/CshHmL5HqnWzO8sFno4vgKpM
JbBok9Ol99KWY+eFSVm/IDkCJOIyOVOt0t/xrfYG74VO4RL2hfK0qbO6KhW+GaoC
l2Lxp74DbA3f
-----END CERTIFICATE-----
