Certificate:
    Data:
        Version: 3 (0x2)
        Serial Number:
            33:b9:74:e6:b7:95:d7:c4:e7:8b:ff:e2:c3:8b:b9:ad:a8:6b:b2:ad
        Signature Algorithm: sha256WithRSAEncryption
        Issuer: C = US, ST = California, L = San Francisco, O = Bogus Inc., OU = Operations, CN = keyexp10001.example.com
        Validity
            Not Before: Oct  4 15:00:55 2019 GMT
            Not After : Oct  3 15:00:55 2021 GMT
        Subject: C = US, ST = California, L = San Francisco, O = Bogus Inc., OU = Operations, CN = keyexp10001.example.com
        Subject Public Key Info:
            Public Key Algorithm: rsaEncryption
                RSA Public-Key: (2048 bit)
                Modulus:
                    00:d3:a9:23:ba:52:33:24:bf:39:31:a9:cc:01:65:
                    3d:b5:85:86:2a:7e:9a:43:8b:7d:5c:62:29:25:15:
                    23:3e:10:b8:02:81:f9:b3:7f:37:1c:75:72:7b:f9:
                    92:fe:dd:d9:4e:6d:56:30:ce:e4:cd:48:03:e4:6c:
                    22:d5:61:9d:72:1d:8f:66:4f:5f:fe:1d:18:fe:f2:
                    0b:d3:84:b2:67:9a:d3:40:0f:3d:d5:7d:ea:a0:d2:
                    19:41:18:32:32:bc:18:05:dc:17:78:de:08:ed:cd:
                    f3:c4:da:43:19:df:57:e2:d6:6c:71:63:a8:a5:b1:
                    16:86:55:09:2e:3a:e0:8f:6d:bb:af:32:74:68:6f:
                    e4:36:50:56:ac:7b:8e:16:24:84:df:5f:19:08:cd:
                    2a:31:8f:2e:e4:fc:07:69:f2:78:5d:1b:18:4f:4a:
                    5c:76:67:84:4c:4c:fc:a4:04:ba:22:46:6b:cb:e5:
                    89:bd:11:15:c0:1e:07:5f:b8:88:61:a5:2e:4c:bf:
                    7b:a2:46:a3:27:c5:8f:2a:ea:fd:30:6f:40:1b:fb:
                    7c:41:ad:2a:28:b2:22:f6:5d:4f:6b:f8:48:4f:90:
                    0e:f8:d8:be:d1:74:b7:a0:70:18:c9:75:e6:0c:a0:
                    32:45:bd:48:cf:9b:ec:08:45:4b:a2:b4:ff:85:c2:
                    1b:61
                Exponent: 65537 (0x10001)
        X509v3 extensions:
            X509v3 Subject Key Identifier: 
                79:18:0A:24:98:24:5F:62:01:2F:8C:E6:B7:E1:5D:2A:73:05:AA:4D
            X509v3 Authority Key Identifier: 
                keyid:79:18:0A:24:98:24:5F:62:01:2F:8C:E6:B7:E1:5D:2A:73:05:AA:4D

            X509v3 Basic Constraints: critical
                CA:TRUE
    Signature Algorithm: sha256WithRSAEncryption
         bc:d3:fc:38:c0:99:8d:45:23:80:70:d2:05:17:0e:95:b5:0f:
         5b:43:8b:07:66:18:6b:5b:5a:3e:0e:c0:41:d3:f4:c2:59:85:
         c7:8e:a2:f8:a2:91:33:c7:a9:de:0f:db:e9:7c:b2:29:20:95:
         2c:5a:81:54:de:23:0f:33:35:a3:1e:7c:ad:60:ef:55:24:03:
         d6:74:37:0d:37:3f:75:ae:dc:bd:ba:ce:dd:68:95:0d:aa:ba:
         c9:16:e2:92:55:29:b6:76:24:94:3e:34:ce:3b:be:05:ef:62:
         f3:dc:75:67:9f:8c:69:5b:b3:1b:32:9b:51:a8:bf:23:d1:b8:
         c4:87:29:c8:eb:57:8b:73:03:3b:db:03:ac:fd:d0:40:71:4d:
         3f:d0:a0:9c:78:6b:f8:b5:ff:f0:85:5a:32:ba:e1:c6:55:77:
         d2:80:b5:aa:0b:75:21:42:7b:ae:09:ad:ec:74:b0:b2:9d:a1:
         ed:6e:e7:40:17:96:17:9c:c5:37:e0:21:d8:c4:fd:78:73:c9:
         2d:ed:a4:10:74:59:d0:64:58:3e:c5:cf:c4:75:a0:b6:ec:7c:
         05:90:32:1f:7b:ce:e4:1e:84:20:ce:f6:93:cc:d5:80:82:d9:
         57:ae:1f:58:b2:ba:0a:14:ce:48:23:81:eb:fb:9c:09:e5:a3:
         40:e8:6f:71
-----BEGIN CERTIFICATE-----
MIID7zCCAtegAwIBAgIUM7l05reV18Tni//iw4u5rahrsq0wDQYJKoZIhvcNAQEL
BQAwgYYxCzAJBgNVBAYTAlVTMRMwEQYDVQQIDApDYWxpZm9ybmlhMRYwFAYDVQQH
DA1TYW4gRnJhbmNpc2NvMRMwEQYDVQQKDApCb2d1cyBJbmMuMRMwEQYDVQQLDApP
cGVyYXRpb25zMSAwHgYDVQQDDBdrZXlleHAxMDAwMS5leGFtcGxlLmNvbTAeFw0x
OTEwMDQxNTAwNTVaFw0yMTEwMDMxNTAwNTVaMIGGMQswCQYDVQQGEwJVUzETMBEG
A1UECAwKQ2FsaWZvcm5pYTEWMBQGA1UEBwwNU2FuIEZyYW5jaXNjbzETMBEGA1UE
CgwKQm9ndXMgSW5jLjETMBEGA1UECwwKT3BlcmF0aW9uczEgMB4GA1UEAwwXa2V5
ZXhwMTAwMDEuZXhhbXBsZS5jb20wggEiMA0GCSqGSIb3DQEBAQUAA4IBDwAwggEK
AoIBAQDTqSO6UjMkvzkxqcwBZT21hYYqfppDi31cYiklFSM+ELgCgfmzfzccdXJ7
+ZL+3dlObVYwzuTNSAPkbCLVYZ1yHY9mT1/+HRj+8gvThLJnmtNADz3Vfeqg0hlB
GDIyvBgF3Bd43gjtzfPE2kMZ31fi1mxxY6ilsRaGVQkuOuCPbbuvMnRob+Q2UFas
e44WJITfXxkIzSoxjy7k/Adp8nhdGxhPSlx2Z4RMTPykBLoiRmvL5Ym9ERXAHgdf
uIhhpS5Mv3uiRqMnxY8q6v0wb0Ab+3xBrSoosiL2XU9r+EhPkA742L7RdLegcBjJ
deYMoDJFvUjPm+wIRUuitP+FwhthAgMBAAGjUzBRMB0GA1UdDgQWBBR5GAokmCRf
YgEvjOa34V0qcwWqTTAfBgNVHSMEGDAWgBR5GAokmCRfYgEvjOa34V0qcwWqTTAP
BgNVHRMBAf8EBTADAQH/MA0GCSqGSIb3DQEBCwUAA4IBAQC80/w4wJmNRSOAcNIF
Fw6VtQ9bQ4sHZhhrW1o+DsBB0/TCWYXHjqL4opEzx6neD9vpfLIpIJUsWoFU3iMP
MzWjHnytYO9VJAPWdDcNNz91rty9us7daJUNqrrJFuKSVSm2diSUPjTOO74F72Lz
3HVnn4xpW7MbMptRqL8j0bjEhynI61eLcwM72wOs/dBAcU0/0KCceGv4tf/whVoy
uuHGVXfSgLWqC3UhQnuuCa3sdLCynaHtbudAF5YXnMU34CHYxP14c8kt7aQQdFnQ
ZFg+xc/EdaC27HwFkDIfe87kHoQgzvaTzNWAgtlXrh9YsroKFM5II4Hr+5wJ5aNA
6G9x
-----END CERTIFICATE-----
