Certificate:
    Data:
        Version: 3 (0x2)
        Serial Number: 9 (0x9)
        Signature Algorithm: sha256WithRSAEncryption
        Issuer: C = US, ST = California, L = San Francisco, O = Bogus Inc., OU = Operations, CN = Zlint test certificates CA
        Validity
            Not Before: Oct  1 14:18:21 2019 GMT
            Not After : Sep 30 14:18:21 2021 GMT
        Subject: C = US, ST = California, L = San Francisco, O = Bogus Inc., OU = Operations, CN = rsa2048.example.com
        Subject Public Key Info:
            Public Key Algorithm: rsaEncryption
                RSA Public-Key: (2048 bit)
                Modulus:
                    00:c0:9b:47:8b:f3:d0:14:81:4d:0d:59:0b:71:ac:
                    6b:9c:40:f3:4b:fc:3a:88:f6:0c:28:ce:16:28:97:
                    e9:bc:48:a6:e6:6b:8f:b7:35:b3:50:7b:36:08:aa:
                    57:42:6f:86:0c:ce:97:ca:86:37:52:f0:25:a7:7c:
                    5b:be:6f:a9:4f:11:34:e7:f3:82:df:d1:b7:92:64:
                    6c:cf:17:67:f4:03:4b:af:47:2f:c8:d8:7f:9b:aa:
                    aa:de:c7:00:c9:2b:1d:16:db:e4:e3:56:b4:6c:04:
                    10:88:98:5b:fa:ab:f8:b4:e2:d9:05:8a:d5:7b:53:
                    43:27:38:4f:89:c3:f4:ad:64:f7:34:fa:10:6e:60:
                    6a:35:30:ce:37:85:29:0c:79:7a:70:93:72:59:86:
                    df:e9:88:9a:0f:85:ef:08:9c:8e:61:ba:75:dd:03:
                    cb:53:4c:c3:d2:d8:3a:a9:e3:12:ee:42:40:5d:e5:
                    bb:c5:14:ff:3e:aa:dd:e8:fb:90:2f:4f:cf:12:5c:
                    a2:cc:f4:3e:ec:1e:b5:e4:10:b7:06:b1:21:3b:58:
                    f2:f4:97:2e:1d:e0:24:26:6e:f1:7f:08:c8:5e:02:
                    03:36:bf:7f:fb:3c:e9:ab:49:e1:d7:18:4f:eb:b7:
                    0b:0f:35:c5:af:c1:7d:e7:66:91:12:14:16:2a:67:
                    0c:0b
                Exponent: 65537 (0x10001)
        X509v3 extensions:
            X509v3 Key Usage: critical
                Digital Signature, Key Encipherment
            X509v3 Basic Constraints: 
                CA:FALSE
            X509v3 Extended Key Usage: 
                TLS Web Server Authentication, TLS Web Client Authentication
            X509v3 Subject Key Identifier: 
                DC:61:9F:0E:E3:CB:51:30:D6:CF:E8:74:1B:E6:FA:A9:91:AC:13:0A
            X509v3 Subject Alternative Name: 
                DNS:rsa2048.example.com, DNS:rsa2048.example.com
            X509v3 Authority Key Identifier: 
                keyid:F6:6E:67:49:02:D7:15:70:11:9C:8C:06:86:74:E0:32:61:16:C7:0E

            Authority Information Access: 
                CA Issuers - URI:http://example.com/ca/root.crt

            X509v3 CRL Distribution Points: 

                Full Name:
                  URI:http://example.com/ca/root.crl

    Signature Algorithm: sha256WithRSAEncryption
         93:fe:30:be:c8:9f:9a:1f:63:ab:66:da:99:c3:31:d7:bb:d9:
         aa:a9:1c:48:10:00:e6:f7:c5:43:0c:35:c6:c7:7d:be:98:2c:
         8c:7f:cb:fd:90:ed:d5:89:a5:1d:de:41:38:70:aa:4e:d8:bc:
         0a:58:8e:67:48:25:06:cb:f9:2d:fc:fd:de:aa:e7:62:6e:69:
         52:80:56:05:6f:de:58:c6:ce:6f:05:1e:a3:d3:64:cd:19:76:
         77:6b:80:29:0c:1a:97:72:ad:0e:a0:64:40:28:28:15:f2:5f:
         be:04:65:d2:f0:68:b6:f2:cc:0b:26:99:a5:fb:e1:9f:87:b3:
         2c:2d:90:74:24:37:f4:57:17:59:b8:c4:16:b6:b4:ef:51:e7:
         f6:81:f9:c8:cb:91:72:ac:15:9f:c9:40:c7:d1:bf:94:83:bf:
         d9:bf:9b:63:93:d6:98:23:93:36:e3:41:bf:34:fd:e7:a5:d9:
         0e:8c:f3:1c:26:28:17:48:38:5a:9c:e7:2d:30:28:bd:1d:ec:
         f0:ef:29:d5:cf:b5:9d:8e:ee:01:69:94:60:00:bf:c9:f0:33:
         85:c2:66:ad:64:20:b9:97:c0:06:45:05:02:9b:75:68:32:99:
         ec:b8:a3:b8:4f:27:8e:3d:b2:52:50:ff:22:e0:4f:ee:fa:2e:
         ec:dd:bd:6f:4e:88:13:aa:68:36:f3:b4:cb:c7:fa:fb:fb:56:
         58:2e:22:68:1a:80:7f:17:e9:87:4f:ab:c6:fa:0c:84:08:23:
         1c:dc:7f:e0:35:21:e4:4f:a1:ad:1d:48:c4:bc:8f:37:2f:81:
         f4:6d:1b:a0:cf:f5:f8:45:47:46:94:f1:fa:ff:31:b8:b7:09:
         ef:39:c0:64:f5:04:c0:b1:a8:ec:bf:73:f9:cb:40:3e:fc:7c:
         a8:9d:c0:0c:cf:6e:d0:37:b3:04:66:a5:60:8f:08:00:c1:89:
         20:42:d8:07:0e:13:fb:49:17:ec:75:8b:19:b3:5d:3a:d6:28:
         54:08:8a:54:85:2d:40:00:57:e2:16:58:59:86:c6:10:b8:ee:
         52:8f:b5:47:dc:b5:cf:ee:84:83:49:72:9c:18:4c:55:ae:5b:
         b1:aa:f5:10:b1:1c:9c:2e:75:06:68:b2:00:e6:5a:1b:e8:2d:
         08:ae:5a:a9:53:ba:f7:b2:d2:b2:d7:f5:ee:db:84:e2:9a:f3:
         2a:bd:14:aa:7f:fe:37:74:4e:4c:a6:17:32:58:5d:b6:45:ec:
         58:05:06:7b:4e:64:41:e7:47:a8:59:49:11:cf:21:85:b0:32:
         35:6b:17:5e:b8:30:17:b2:b1:48:c9:c5:bf:57:25:d9:93:98:
         65:32:87:1b:ca:65:25:f9
-----BEGIN CERTIFICATE-----
MIIFqjCCA5KgAwIBAgIBCTANBgkqhkiG9w0BAQsFADCBiTELMAkGA1UEBhMCVVMx
EzARBgNVBAgMCkNhbGlmb3JuaWExFjAUBgNVBAcMDVNhbiBGcmFuY2lzY28xEzAR
BgNVBAoMCkJvZ3VzIEluYy4xEzARBgNVBAsMCk9wZXJhdGlvbnMxIzAhBgNVBAMM
GlpsaW50IHRlc3QgY2VydGlmaWNhdGVzIENBMB4XDTE5MTAwMTE0MTgyMVoXDTIx
MDkzMDE0MTgyMVowgYIxCzAJBgNVBAYTAlVTMRMwEQYDVQQIDApDYWxpZm9ybmlh
MRYwFAYDVQQHDA1TYW4gRnJhbmNpc2NvMRMwEQYDVQQKDApCb2d1cyBJbmMuMRMw
EQYDVQQLDApPcGVyYXRpb25zMRwwGgYDVQQDDBNyc2EyMDQ4LmV4YW1wbGUuY29t
MIIBIjANBgkqhkiG9w0BAQEFAAOCAQ8AMIIBCgKCAQEAwJtHi/PQFIFNDVkLcaxr
nEDzS/w6iPYMKM4WKJfpvEim5muPtzWzUHs2CKpXQm+GDM6XyoY3UvAlp3xbvm+p
TxE05/OC39G3kmRszxdn9ANLr0cvyNh/m6qq3scAySsdFtvk41a0bAQQiJhb+qv4
tOLZBYrVe1NDJzhPicP0rWT3NPoQbmBqNTDON4UpDHl6cJNyWYbf6YiaD4XvCJyO
Ybp13QPLU0zD0tg6qeMS7kJAXeW7xRT/Pqrd6PuQL0/PElyizPQ+7B615BC3BrEh
O1jy9JcuHeAkJm7xfwjIXgIDNr9/+zzpq0nh1xhP67cLDzXFr8F952aREhQWKmcM
CwIDAQABo4IBIDCCARwwDgYDVR0PAQH/BAQDAgWgMAkGA1UdEwQCMAAwHQYDVR0l
BBYwFAYIKwYBBQUHAwEGCCsGAQUFBwMCMB0GA1UdDgQWBBTcYZ8O48tRMNbP6HQb
5vqpkawTCjAzBgNVHREELDAqghNyc2EyMDQ4LmV4YW1wbGUuY29tghNyc2EyMDQ4
LmV4YW1wbGUuY29tMB8GA1UdIwQYMBaAFPZuZ0kC1xVwEZyMBoZ04DJhFscOMDoG
CCsGAQUFBwEBBC4wLDAqBggrBgEFBQcwAoYeaHR0cDovL2V4YW1wbGUuY29tL2Nh
L3Jvb3QuY3J0MC8GA1UdHwQoMCYwJKAioCCGHmh0dHA6Ly9leGFtcGxlLmNvbS9j
YS9yb290LmNybDANBgkqhkiG9w0BAQsFAAOCAgEAk/4wvsifmh9jq2bamcMx17vZ
qqkcSBAA5vfFQww1xsd9vpgsjH/L/ZDt1YmlHd5BOHCqTti8CliOZ0glBsv5Lfz9
3qrnYm5pUoBWBW/eWMbObwUeo9NkzRl2d2uAKQwal3KtDqBkQCgoFfJfvgRl0vBo
tvLMCyaZpfvhn4ezLC2QdCQ39FcXWbjEFra071Hn9oH5yMuRcqwVn8lAx9G/lIO/
2b+bY5PWmCOTNuNBvzT956XZDozzHCYoF0g4WpznLTAovR3s8O8p1c+1nY7uAWmU
YAC/yfAzhcJmrWQguZfABkUFApt1aDKZ7LijuE8njj2yUlD/IuBP7vou7N29b06I
E6poNvO0y8f6+/tWWC4iaBqAfxfph0+rxvoMhAgjHNx/4DUh5E+hrR1IxLyPNy+B
9G0boM/1+EVHRpTx+v8xuLcJ7znAZPUEwLGo7L9z+ctAPvx8qJ3ADM9u0DezBGal
YI8IAMGJIELYBw4T+0kX7HWLGbNdOtYoVAiKVIUtQABX4hZYWYbGELjuUo+1R9y1
z+6Eg0lynBhMVa5bsar1ELEcnC51BmiyAOZaG+gtCK5aqVO697LSstf17tuE4prz
Kr0Uqn/+N3ROTKYXMlhdtkXsWAUGe05kQedHqFlJEc8hhbAyNWsXXrgwF7KxSMnF
v1cl2ZOYZTKHG8plJfk=
-----END CERTIFICATE-----
