Certificate:
    Data:
        Version: 3 (0x2)
        Serial Number: 4 (0x4)
        Signature Algorithm: sha256WithRSAEncryption
        Issuer: C = US, ST = California, L = San Francisco, O = Bogus Inc., OU = Operations, CN = Zlint test certificates CA
        Validity
            Not Before: Oct  1 09:03:45 2019 GMT
            Not After : Sep 30 09:03:45 2029 GMT
        Subject: C = US, ST = California, L = San Francisco, O = Bogus Inc., OU = Operations, CN = Zlint EKU SubCA 2
        Subject Public Key Info:
            Public Key Algorithm: rsaEncryption
                RSA Public-Key: (2048 bit)
                Modulus:
                    00:d4:be:2f:ae:48:93:84:94:c3:a9:b8:1f:15:99:
                    be:ff:fc:2b:f1:ad:0b:ae:a4:58:bd:07:14:01:d5:
                    32:30:45:d0:96:a3:03:32:a0:8c:83:4d:ae:2a:b5:
                    26:12:3f:94:b0:25:a2:19:9a:dd:00:11:6e:93:37:
                    da:59:f0:7b:e5:33:73:49:81:ad:08:e6:73:9c:f9:
                    4e:1d:11:51:86:48:a2:bf:ad:a5:0f:17:3a:91:06:
                    d6:14:62:2e:3d:89:c4:da:30:a4:f6:21:b0:fe:77:
                    3c:15:a7:2b:a5:d6:8c:2e:a5:56:50:2a:c5:98:6e:
                    4e:9b:f9:c3:3e:04:72:a6:70:bb:71:88:0b:45:1a:
                    de:bb:f9:58:5e:94:6b:54:8b:0a:78:93:72:95:04:
                    1c:2b:9d:0f:a2:83:b9:e6:cf:b2:bd:c2:4b:32:40:
                    6f:55:3d:d6:ce:36:83:7b:64:3b:8e:e3:a1:86:ad:
                    2f:77:fd:ed:d5:2b:b5:aa:47:24:13:0e:96:77:3b:
                    1d:a7:f5:72:7c:58:12:96:0b:74:0d:2f:d2:7b:f9:
                    8b:64:f1:9a:36:c1:6e:25:73:ed:ed:3b:b6:77:bd:
                    5e:0c:9c:ea:22:5a:6c:5f:64:46:1d:a4:97:f6:d5:
                    39:42:c4:7d:66:76:b3:f9:55:7a:2f:a8:8e:7a:99:
                    51:9f
                Exponent: 65537 (0x10001)
        X509v3 extensions:
            X509v3 Key Usage: critical
                Certificate Sign, CRL Sign
            X509v3 Basic Constraints: critical
                CA:TRUE, pathlen:0
            X509v3 Subject Key Identifier: 
                42:A6:32:B3:22:04:41:A3:7F:20:E6:63:0F:23:FC:5F:B8:64:C7:78
            X509v3 Authority Key Identifier: 
                keyid:F6:6E:67:49:02:D7:15:70:11:9C:8C:06:86:74:E0:32:61:16:C7:0E

            Authority Information Access: 
                CA Issuers - URI:http://example.com/ca/root.crt

            X509v3 CRL Distribution Points: 

                Full Name:
                  URI:http://example.com/ca/root.crl

            X509v3 Extended Key Usage: 
                Any Extended Key Usage
    Signature Algorithm: sha256WithRSAEncryption
         79:ef:ab:6f:1d:e3:72:06:62:4e:93:ee:e8:09:7d:6e:7b:51:
         34:54:5b:74:15:ec:76:83:f3:29:46:b0:42:4b:3b:02:0b:ae:
         64:0e:08:81:b3:14:07:50:1a:3d:73:58:55:32:6c:6f:70:65:
         74:78:d8:12:f0:46:ae:17:c4:c7:0f:34:7c:97:01:0b:4d:e8:
         bd:50:bf:c3:81:9f:91:85:e6:2e:c7:57:8b:c0:0c:d4:15:6c:
         42:c1:0c:cb:d2:0f:c4:35:79:44:4b:af:84:1d:3a:ca:7f:50:
         ff:50:7b:35:2f:7b:a0:53:dd:c3:7e:1f:e3:be:56:d0:80:fa:
         0b:76:a2:13:3f:1a:53:3a:a4:84:09:ea:15:18:61:4e:45:f1:
         9e:a5:2a:54:89:ff:1b:ea:f4:74:d3:c5:ec:b9:b5:73:f4:f5:
         33:47:19:cc:54:ef:95:fe:57:da:e6:72:27:2c:08:3e:11:af:
         ee:09:19:17:31:08:05:6e:d5:1d:89:73:45:a9:7a:39:a0:ba:
         82:df:4c:23:db:de:f2:4c:c3:29:c1:02:f6:8b:df:d3:a6:15:
         dd:2b:b4:3a:1f:ab:c0:fb:ed:25:ce:c9:b3:09:1e:2b:9b:1d:
         be:b6:3f:7d:f6:42:f2:a9:da:c4:ab:45:da:2c:e9:f4:3e:39:
         6c:f2:f4:bf:d0:0d:9b:35:47:73:23:8a:4d:a1:f5:64:7f:72:
         c7:d6:e0:31:9c:bf:fe:e5:01:50:f5:c6:06:df:4c:ee:18:88:
         c3:b9:a6:b5:6c:df:54:c0:c4:ee:95:34:b1:37:83:95:7a:82:
         fd:b7:cb:81:20:0b:93:f3:91:c3:77:8e:b1:b3:1f:99:26:91:
         9b:f3:01:84:de:11:b1:e7:37:35:ab:25:ea:78:3c:52:23:98:
         94:a8:bf:9c:af:8e:bc:9e:e8:18:3d:7a:8b:a0:9f:40:fa:6a:
         c3:21:ef:b0:b2:ee:3d:0b:e6:53:88:91:70:c3:ca:89:78:5b:
         7f:85:3b:2a:42:a5:c0:b0:2b:85:cc:44:e3:36:bb:12:0f:12:
         e9:f1:52:7e:f7:88:cd:dc:be:2f:ef:b8:1f:f3:01:e2:37:5c:
         f1:98:49:12:fc:d9:67:01:08:e6:31:45:8b:4d:8f:dd:1d:53:
         68:5b:72:4b:6c:48:9e:c1:08:7f:c6:74:7d:59:72:8c:dd:bc:
         91:da:26:89:a8:89:3f:1d:57:df:4a:f5:1a:c7:f5:ff:b4:98:
         5d:56:8b:a0:d0:8c:7e:74:39:d0:57:10:65:6c:ce:26:a1:51:
         b3:02:82:db:99:d1:f3:d7:8c:70:00:f2:27:f4:41:87:06:7a:
         ac:14:2e:69:60:8c:45:ec
-----BEGIN CERTIFICATE-----
MIIFbDCCA1SgAwIBAgIBBDANBgkqhkiG9w0BAQsFADCBiTELMAkGA1UEBhMCVVMx
EzARBgNVBAgMCkNhbGlmb3JuaWExFjAUBgNVBAcMDVNhbiBGcmFuY2lzY28xEzAR
BgNVBAoMCkJvZ3VzIEluYy4xEzARBgNVBAsMCk9wZXJhdGlvbnMxIzAhBgNVBAMM
GlpsaW50IHRlc3QgY2VydGlmaWNhdGVzIENBMB4XDTE5MTAwMTA5MDM0NVoXDTI5
MDkzMDA5MDM0NVowgYAxCzAJBgNVBAYTAlVTMRMwEQYDVQQIDApDYWxpZm9ybmlh
MRYwFAYDVQQHDA1TYW4gRnJhbmNpc2NvMRMwEQYDVQQKDApCb2d1cyBJbmMuMRMw
EQYDVQQLDApPcGVyYXRpb25zMRowGAYDVQQDDBFabGludCBFS1UgU3ViQ0EgMjCC
ASIwDQYJKoZIhvcNAQEBBQADggEPADCCAQoCggEBANS+L65Ik4SUw6m4HxWZvv/8
K/GtC66kWL0HFAHVMjBF0JajAzKgjINNriq1JhI/lLAlohma3QARbpM32lnwe+Uz
c0mBrQjmc5z5Th0RUYZIor+tpQ8XOpEG1hRiLj2JxNowpPYhsP53PBWnK6XWjC6l
VlAqxZhuTpv5wz4EcqZwu3GIC0Ua3rv5WF6Ua1SLCniTcpUEHCudD6KDuebPsr3C
SzJAb1U91s42g3tkO47joYatL3f97dUrtapHJBMOlnc7Haf1cnxYEpYLdA0v0nv5
i2TxmjbBbiVz7e07tne9Xgyc6iJabF9kRh2kl/bVOULEfWZ2s/lVei+ojnqZUZ8C
AwEAAaOB5TCB4jAOBgNVHQ8BAf8EBAMCAQYwEgYDVR0TAQH/BAgwBgEB/wIBADAd
BgNVHQ4EFgQUQqYysyIEQaN/IOZjDyP8X7hkx3gwHwYDVR0jBBgwFoAU9m5nSQLX
FXARnIwGhnTgMmEWxw4wOgYIKwYBBQUHAQEELjAsMCoGCCsGAQUFBzAChh5odHRw
Oi8vZXhhbXBsZS5jb20vY2Evcm9vdC5jcnQwLwYDVR0fBCgwJjAkoCKgIIYeaHR0
cDovL2V4YW1wbGUuY29tL2NhL3Jvb3QuY3JsMA8GA1UdJQQIMAYGBFUdJQAwDQYJ
KoZIhvcNAQELBQADggIBAHnvq28d43IGYk6T7ugJfW57UTRUW3QV7HaD8ylGsEJL
OwILrmQOCIGzFAdQGj1zWFUybG9wZXR42BLwRq4XxMcPNHyXAQtN6L1Qv8OBn5GF
5i7HV4vADNQVbELBDMvSD8Q1eURLr4QdOsp/UP9QezUve6BT3cN+H+O+VtCA+gt2
ohM/GlM6pIQJ6hUYYU5F8Z6lKlSJ/xvq9HTTxey5tXP09TNHGcxU75X+V9rmcics
CD4Rr+4JGRcxCAVu1R2Jc0WpejmguoLfTCPb3vJMwynBAvaL39OmFd0rtDofq8D7
7SXOybMJHiubHb62P332QvKp2sSrRdos6fQ+OWzy9L/QDZs1R3Mjik2h9WR/csfW
4DGcv/7lAVD1xgbfTO4YiMO5prVs31TAxO6VNLE3g5V6gv23y4EgC5PzkcN3jrGz
H5kmkZvzAYTeEbHnNzWrJep4PFIjmJSov5yvjrye6Bg9eougn0D6asMh77Cy7j0L
5lOIkXDDyol4W3+FOypCpcCwK4XMROM2uxIPEunxUn73iM3cvi/vuB/zAeI3XPGY
SRL82WcBCOYxRYtNj90dU2hbcktsSJ7BCH/GdH1ZcozdvJHaJomoiT8dV99K9RrH
9f+0mF1Wi6DQjH50OdBXEGVsziahUbMCgtuZ0fPXjHAA8if0QYcGeqwULmlgjEXs
-----END CERTIFICATE-----
