Certificate:
    Data:
        Version: 3 (0x2)
        Serial Number: 5 (0x5)
        Signature Algorithm: sha256WithRSAEncryption
        Issuer: C = US, ST = California, L = San Francisco, O = Bogus Inc., OU = Operations, CN = Zlint test certificates CA
        Validity
            Not Before: Oct  1 09:04:03 2019 GMT
            Not After : Sep 30 09:04:03 2029 GMT
        Subject: C = US, ST = California, L = San Francisco, O = Bogus Inc., OU = Operations, CN = Zlint EKU SubCA 3
        Subject Public Key Info:
            Public Key Algorithm: rsaEncryption
                RSA Public-Key: (2048 bit)
                Modulus:
                    00:ab:44:c0:c8:5f:89:54:2c:aa:49:bd:b4:18:be:
                    5a:c4:f7:d4:d7:16:be:75:9b:94:0c:0d:ad:f4:99:
                    2a:0a:8a:8b:db:e0:73:1d:23:87:b1:69:e1:7c:53:
                    79:7b:50:33:89:6b:72:71:ec:8f:cc:d8:29:cf:5e:
                    ce:a7:25:7d:13:8e:e5:b0:35:f2:71:59:57:1a:73:
                    a3:e3:46:1d:d0:ed:d8:6f:f0:f2:a0:2b:1e:b4:f4:
                    33:f0:b4:5a:6e:d6:87:01:f9:e2:fa:33:ac:ef:b6:
                    a8:df:41:d4:a8:50:59:1c:0e:c3:61:bb:f7:d4:d7:
                    ef:9d:ef:b8:bc:3b:ff:53:e3:e2:c3:04:06:fd:af:
                    be:13:ef:d2:35:fc:5b:b3:c8:2f:53:ec:4e:98:d2:
                    cd:cf:be:ca:32:af:48:96:f5:db:0a:aa:cb:8e:70:
                    a9:a1:48:94:d1:10:d4:90:03:55:ea:b1:a8:d2:a4:
                    1f:05:fb:8d:05:f2:a8:17:4f:34:9b:c0:15:be:c6:
                    cd:3f:5a:e5:75:b9:13:b9:09:1f:f7:60:19:43:f0:
                    a8:96:f7:7e:cc:f5:31:4b:3c:aa:76:08:cc:b6:0a:
                    d8:62:49:f3:ad:0e:e1:87:d7:cd:fd:dd:c6:85:42:
                    f1:c5:49:ed:2c:c5:6a:33:56:bc:ba:37:20:b6:e2:
                    38:95
                Exponent: 65537 (0x10001)
        X509v3 extensions:
            X509v3 Key Usage: critical
                Certificate Sign, CRL Sign
            X509v3 Basic Constraints: critical
                CA:TRUE, pathlen:0
            X509v3 Subject Key Identifier: 
                D7:F9:6F:09:42:A7:50:F3:C1:55:BD:C5:F3:DF:22:45:74:3A:24:07
            X509v3 Authority Key Identifier: 
                keyid:F6:6E:67:49:02:D7:15:70:11:9C:8C:06:86:74:E0:32:61:16:C7:0E

            Authority Information Access: 
                CA Issuers - URI:http://example.com/ca/root.crt

            X509v3 CRL Distribution Points: 

                Full Name:
                  URI:http://example.com/ca/root.crl

            X509v3 Extended Key Usage: 
                TLS Web Server Authentication, E-mail Protection
    Signature Algorithm: sha256WithRSAEncryption
         5e:9d:5e:4b:86:42:8b:f8:c1:34:42:8f:e3:dc:49:8a:3c:8a:
         19:56:22:38:bd:1d:83:7e:4e:31:95:cd:82:1c:fc:77:63:f6:
         69:54:60:21:2f:2d:00:b7:ee:d2:0e:a7:03:26:de:91:8c:ee:
         a9:95:63:0a:4b:74:a6:92:06:ff:c0:14:70:d1:96:b7:3a:3f:
         32:51:33:9e:18:d5:c1:92:8d:12:d6:db:2b:ee:9e:76:76:ca:
         32:d0:5f:86:8e:31:bb:2e:19:cf:cd:ed:9f:72:88:54:e3:15:
         9a:fa:a4:24:9a:6d:1e:36:eb:23:06:cc:45:44:2d:f3:87:a0:
         2d:5c:4f:c0:a6:7c:5c:bc:14:a5:60:8e:ff:b3:35:01:7c:d8:
         5e:c7:1f:19:5f:bf:de:10:4d:bc:66:32:fc:04:25:7d:b6:4d:
         40:97:f8:d8:11:3d:c6:46:05:45:fe:00:9d:23:8f:56:04:74:
         b6:a0:c6:51:28:6c:17:c0:a7:d1:60:4a:61:ac:3f:0a:b9:57:
         23:7c:b2:a8:e0:a8:30:f2:ed:95:1d:e8:ae:b2:93:a4:1f:0b:
         15:bf:e3:50:30:e7:ac:72:43:cd:3b:98:1d:1f:27:1e:de:50:
         35:80:ef:67:c1:a3:b7:b6:57:8b:62:01:84:d0:d1:5d:87:19:
         5b:09:9b:a1:7a:75:13:80:bf:89:c8:ef:ad:71:84:b4:f3:d6:
         5b:34:89:ed:3d:0b:ed:8c:d3:cc:2a:8e:08:64:fb:30:06:e7:
         3a:ed:9f:d6:2c:fc:23:9f:c4:5a:81:ad:22:19:40:17:84:09:
         3a:81:07:5f:88:82:bf:6e:4f:dd:f9:0b:71:4c:3a:94:9b:aa:
         69:2e:29:76:74:5e:c0:6a:45:0a:6e:c8:1b:8f:2d:9e:67:c3:
         60:80:21:5f:64:7b:87:bd:4a:97:40:25:d7:34:28:fe:bc:cd:
         94:51:eb:b0:d1:6e:27:bd:d5:aa:d4:ac:18:e1:67:06:aa:b7:
         91:02:ea:7d:ce:f3:a5:bf:7e:7f:99:6d:87:3e:7b:a0:4e:37:
         ce:f0:9a:64:75:0a:9f:94:f8:94:46:77:4e:e5:61:74:bc:d1:
         57:f5:3e:d0:fe:11:c6:11:46:c2:4d:88:9f:37:87:d1:72:bd:
         2a:8c:14:41:37:8b:11:60:92:90:49:e9:82:00:71:d7:45:9e:
         5b:53:e8:68:59:c3:3f:c4:d3:ab:07:f0:81:e2:21:f9:a4:b5:
         d1:76:c6:bf:7f:27:d3:e7:8e:14:e9:b9:0c:ec:f0:97:a5:5d:
         82:ff:78:68:e3:1c:a9:73:19:3b:28:54:4e:d9:3c:59:8f:bd:
         1e:ab:79:cb:57:72:1a:ba
-----BEGIN CERTIFICATE-----
MIIFejCCA2KgAwIBAgIBBTANBgkqhkiG9w0BAQsFADCBiTELMAkGA1UEBhMCVVMx
EzARBgNVBAgMCkNhbGlmb3JuaWExFjAUBgNVBAcMDVNhbiBGcmFuY2lzY28xEzAR
BgNVBAoMCkJvZ3VzIEluYy4xEzARBgNVBAsMCk9wZXJhdGlvbnMxIzAhBgNVBAMM
GlpsaW50IHRlc3QgY2VydGlmaWNhdGVzIENBMB4XDTE5MTAwMTA5MDQwM1oXDTI5
MDkzMDA5MDQwM1owgYAxCzAJBgNVBAYTAlVTMRMwEQYDVQQIDApDYWxpZm9ybmlh
MRYwFAYDVQQHDA1TYW4gRnJhbmNpc2NvMRMwEQYDVQQKDApCb2d1cyBJbmMuMRMw
EQYDVQQLDApPcGVyYXRpb25zMRowGAYDVQQDDBFabGludCBFS1UgU3ViQ0EgMzCC
ASIwDQYJKoZIhvcNAQEBBQADggEPADCCAQoCggEBAKtEwMhfiVQsqkm9tBi+WsT3
1NcWvnWblAwNrfSZKgqKi9vgcx0jh7Fp4XxTeXtQM4lrcnHsj8zYKc9ezqclfROO
5bA18nFZVxpzo+NGHdDt2G/w8qArHrT0M/C0Wm7WhwH54vozrO+2qN9B1KhQWRwO
w2G799TX753vuLw7/1Pj4sMEBv2vvhPv0jX8W7PIL1PsTpjSzc++yjKvSJb12wqq
y45wqaFIlNEQ1JADVeqxqNKkHwX7jQXyqBdPNJvAFb7GzT9a5XW5E7kJH/dgGUPw
qJb3fsz1MUs8qnYIzLYK2GJJ860O4YfXzf3dxoVC8cVJ7SzFajNWvLo3ILbiOJUC
AwEAAaOB8zCB8DAOBgNVHQ8BAf8EBAMCAQYwEgYDVR0TAQH/BAgwBgEB/wIBADAd
BgNVHQ4EFgQU1/lvCUKnUPPBVb3F898iRXQ6JAcwHwYDVR0jBBgwFoAU9m5nSQLX
FXARnIwGhnTgMmEWxw4wOgYIKwYBBQUHAQEELjAsMCoGCCsGAQUFBzAChh5odHRw
Oi8vZXhhbXBsZS5jb20vY2Evcm9vdC5jcnQwLwYDVR0fBCgwJjAkoCKgIIYeaHR0
cDovL2V4YW1wbGUuY29tL2NhL3Jvb3QuY3JsMB0GA1UdJQQWMBQGCCsGAQUFBwMB
BggrBgEFBQcDBDANBgkqhkiG9w0BAQsFAAOCAgEAXp1eS4ZCi/jBNEKP49xJijyK
GVYiOL0dg35OMZXNghz8d2P2aVRgIS8tALfu0g6nAybekYzuqZVjCkt0ppIG/8AU
cNGWtzo/MlEznhjVwZKNEtbbK+6ednbKMtBfho4xuy4Zz83tn3KIVOMVmvqkJJpt
HjbrIwbMRUQt84egLVxPwKZ8XLwUpWCO/7M1AXzYXscfGV+/3hBNvGYy/AQlfbZN
QJf42BE9xkYFRf4AnSOPVgR0tqDGUShsF8Cn0WBKYaw/CrlXI3yyqOCoMPLtlR3o
rrKTpB8LFb/jUDDnrHJDzTuYHR8nHt5QNYDvZ8Gjt7ZXi2IBhNDRXYcZWwmboXp1
E4C/icjvrXGEtPPWWzSJ7T0L7YzTzCqOCGT7MAbnOu2f1iz8I5/EWoGtIhlAF4QJ
OoEHX4iCv25P3fkLcUw6lJuqaS4pdnRewGpFCm7IG48tnmfDYIAhX2R7h71Kl0Al
1zQo/rzNlFHrsNFuJ73VqtSsGOFnBqq3kQLqfc7zpb9+f5lthz57oE43zvCaZHUK
n5T4lEZ3TuVhdLzRV/U+0P4RxhFGwk2InzeH0XK9KowUQTeLEWCSkEnpggBx10We
W1PoaFnDP8TTqwfwgeIh+aS10XbGv38n0+eOFOm5DOzwl6Vdgv94aOMcqXMZOyhU
Ttk8WY+9Hqt5y1dyGro=
-----END CERTIFICATE-----
