Certificate:
    Data:
        Version: 3 (0x2)
        Serial Number: 1640033523488498730 (0x16c291cce343a42a)
        Signature Algorithm: sha256WithRSAEncryption
        Issuer: CN = n_san_iana_pub_suffix_empty CA
        Validity
            Not Before: Nov 29 16:48:15 2020 GMT
            Not After : Mar  1 16:48:16 2021 GMT
        Subject: CN = zmap.io
        Subject Public Key Info:
            Public Key Algorithm: rsaEncryption
                RSA Public-Key: (512 bit)
                Modulus:
                    00:a6:d9:a3:31:1b:69:7b:93:68:d5:c5:b4:c4:93:
                    07:71:47:1d:a5:51:b4:63:1b:0b:7f:15:fd:36:c6:
                    4a:e6:7e:c8:3e:9e:96:bf:ee:85:59:4a:91:97:4a:
                    1e:c7:6d:b6:f8:13:a2:63:06:1d:8d:60:15:75:73:
                    40:93:da:c7:e3
                Exponent: 65537 (0x10001)
        X509v3 extensions:
            X509v3 Key Usage: critical
                Digital Signature, Key Encipherment
            X509v3 Extended Key Usage: 
                TLS Web Server Authentication, TLS Web Client Authentication
            X509v3 Basic Constraints: critical
                CA:FALSE
            X509v3 Subject Alternative Name: 
                DNS:zmap.io, DNS:co.uk, DNS:ca, DNS:www.zmap.io
    Signature Algorithm: sha256WithRSAEncryption
         0b:1e:3a:1a:61:a9:3b:83:23:fd:26:e5:b5:ba:a4:50:75:9a:
         e4:d9:8e:c4:cd:6a:29:13:18:5c:b6:95:85:ce:c4:46:53:8a:
         1e:a5:35:22:a6:17:91:7c:0b:4d:28:83:0a:38:85:bf:45:ac:
         b1:47:23:99:52:81:de:6e:6d:18
-----BEGIN CERTIFICATE-----
MIIBnjCCAUigAwIBAgIIFsKRzONDpCowDQYJKoZIhvcNAQELBQAwKTEnMCUGA1UE
Awwebl9zYW5faWFuYV9wdWJfc3VmZml4X2VtcHR5IENBMB4XDTIwMTEyOTE2NDgx
NVoXDTIxMDMwMTE2NDgxNlowEjEQMA4GA1UEAxMHem1hcC5pbzBcMA0GCSqGSIb3
DQEBAQUAA0sAMEgCQQCm2aMxG2l7k2jVxbTEkwdxRx2lUbRjGwt/Ff02xkrmfsg+
npa/7oVZSpGXSh7Hbbb4E6JjBh2NYBV1c0CT2sfjAgMBAAGjazBpMA4GA1UdDwEB
/wQEAwIFoDAdBgNVHSUEFjAUBggrBgEFBQcDAQYIKwYBBQUHAwIwDAYDVR0TAQH/
BAIwADAqBgNVHREEIzAhggd6bWFwLmlvggVjby51a4ICY2GCC3d3dy56bWFwLmlv
MA0GCSqGSIb3DQEBCwUAA0EACx46GmGpO4Mj/SbltbqkUHWa5NmOxM1qKRMYXLaV
hc7ERlOKHqU1IqYXkXwLTSiDCjiFv0WssUcjmVKB3m5tGA==
-----END CERTIFICATE-----
