Certificate:
    Data:
        Version: 3 (0x2)
        Serial Number: 18008675309 (0x4316693ed)
    Signature Algorithm: sha256WithRSAEncryption
        Issuer: C = US, O = Mother Nature, OU = Everything, CN = Mother Nature
        Validity
            Not Before: Dec 31 00:00:00 2010 GMT
            Not After : Jan  1 00:00:00 2013 GMT
        Subject: C = US, O = Extreme Discord, OU = Chaos, L = Tallahassee, ST = FL, street = 3210 Holly Mill Run, postalCode = 30062, CN = gov.us
        Subject Public Key Info:
            Public Key Algorithm: rsaEncryption
                Public-Key: (2048 bit)
                Modulus:
                    00:98:99:d1:81:c5:2f:d3:ea:2b:38:a4:89:0c:26:
                    05:9c:61:97:72:02:24:d9:0e:f2:94:e9:78:6d:88:
                    d1:4e:8f:57:56:9a:51:85:33:b1:c6:2a:71:90:73:
                    95:fa:78:d4:72:70:f0:43:42:68:b4:9c:f4:bc:5a:
                    fb:62:8d:f5:58:8a:50:e3:79:98:93:c3:c6:ac:e1:
                    62:c7:88:75:5a:d4:3e:30:7e:8f:b6:51:e2:bc:c1:
                    1f:21:2e:27:ad:66:d2:f7:83:7b:d7:18:d7:24:43:
                    cc:df:c3:44:2c:0c:12:bf:df:47:2e:d2:92:41:7c:
                    bb:e9:db:dc:65:e3:fc:6f:55:ec:60:0e:dd:25:cf:
                    9b:34:cb:dc:31:9d:1c:5a:37:c9:b6:35:da:ae:35:
                    93:70:e5:19:30:5e:8e:4e:d9:7e:cc:28:ba:00:00:
                    af:10:d6:7d:0e:ae:3e:1f:98:24:7f:5c:4a:6a:94:
                    d3:3a:6f:9c:bc:a5:1c:2b:db:8a:ec:a9:21:4b:ca:
                    1b:63:f3:71:26:b2:23:c4:a1:56:66:fd:dc:e6:c5:
                    95:1b:fc:99:4b:0c:e7:d3:11:6b:e5:e2:b5:3d:28:
                    3d:04:59:c4:61:90:00:f3:19:b9:8a:dc:11:6c:fe:
                    77:38:23:a3:fd:ed:9b:64:cb:d9:4b:5a:ef:7f:7f:
                    0f:e3
                Exponent: 65537 (0x10001)
        X509v3 extensions:
            X509v3 Key Usage: critical
                Digital Signature, Key Encipherment
            X509v3 Extended Key Usage: 
                TLS Web Client Authentication, TLS Web Server Authentication
            X509v3 Basic Constraints: critical
                CA:FALSE
            X509v3 Authority Key Identifier: 
                keyid:01:02:03

            Authority Information Access: 
                OCSP - URI:http://theca.net/ocsp
                CA Issuers - URI:http://theca.net/totallythecert.crt

            X509v3 Certificate Policies: 
                Policy: 2.23.140.1.2.2

            X509v3 Subject Key Identifier: 
                04:03:02:01
            X509v3 Subject Alternative Name: 
                DNS:*.gov.us, DNS:gov.us
            X509v3 Name Constraints: critical
                Permitted:
                  DNS:example.com

    Signature Algorithm: sha256WithRSAEncryption
         73:3b:09:91:c9:2a:78:e0:7e:b5:94:a6:96:3d:b6:ff:c4:91:
         bb:2d:ad:36:ac:c0:3e:f0:04:25:02:19:e2:ab:7c:a8:f7:00:
         99:ab:13:52:9f:20:e7:3c:7d:e1:6d:8f:61:43:2e:f6:8e:e1:
         cb:72:94:28:b9:67:9c:22:fa:a9:21:d9:c3:1b:84:3f:9a:da:
         b4:33:66:cd:ea:bd:5f:1b:df:13:93:e8:26:3a:a1:24:73:cf:
         3c:91:07:b0:0b:91:d9:7f:3e:4c:0e:4d:50:ce:f6:fc:85:d2:
         fa:4d:80:27:03:09:68:11:dd:d6:8e:be:f0:3c:02:d3:a5:b8:
         0e:5f:be:8c:95:8e:93:22:38:9f:cb:32:d6:21:79:1a:65:dd:
         ed:d8:d4:7e:0b:76:cd:af:d2:fc:94:e1:c4:41:4b:1e:dd:ba:
         0b:07:97:7f:e0:f5:d4:c0:00:a1:34:28:34:81:1f:94:03:11:
         f4:1f:23:3d:22:b7:3f:99:37:d0:49:ee:cb:4a:fc:72:89:2e:
         fb:d0:e0:a9:58:3a:ff:2d:62:32:7f:ba:ef:ec:ce:20:e0:8a:
         1b:e5:5f:9e:5d:27:80:bd:0d:6b:30:00:25:f3:ab:19:f6:4b:
         d9:36:53:55:e1:19:25:49:40:59:4f:cb:35:9c:a4:be:b6:78:
         3c:06:d4:39
-----BEGIN CERTIFICATE-----
MIIEgjCCA2qgAwIBAgIFBDFmk+0wDQYJKoZIhvcNAQELBQAwUjELMAkGA1UEBhMC
VVMxFjAUBgNVBAoTDU1vdGhlciBOYXR1cmUxEzARBgNVBAsTCkV2ZXJ5dGhpbmcx
FjAUBgNVBAMTDU1vdGhlciBOYXR1cmUwHhcNMTAxMjMxMDAwMDAwWhcNMTMwMTAx
MDAwMDAwWjCBmTELMAkGA1UEBhMCVVMxGDAWBgNVBAoTD0V4dHJlbWUgRGlzY29y
ZDEOMAwGA1UECxMFQ2hhb3MxFDASBgNVBAcTC1RhbGxhaGFzc2VlMQswCQYDVQQI
EwJGTDEcMBoGA1UECRMTMzIxMCBIb2xseSBNaWxsIFJ1bjEOMAwGA1UEERMFMzAw
NjIxDzANBgNVBAMTBmdvdi51czCCASIwDQYJKoZIhvcNAQEBBQADggEPADCCAQoC
ggEBAJiZ0YHFL9PqKzikiQwmBZxhl3ICJNkO8pTpeG2I0U6PV1aaUYUzscYqcZBz
lfp41HJw8ENCaLSc9Lxa+2KN9ViKUON5mJPDxqzhYseIdVrUPjB+j7ZR4rzBHyEu
J61m0veDe9cY1yRDzN/DRCwMEr/fRy7SkkF8u+nb3GXj/G9V7GAO3SXPmzTL3DGd
HFo3ybY12q41k3DlGTBejk7ZfswougAArxDWfQ6uPh+YJH9cSmqU0zpvnLylHCvb
iuypIUvKG2PzcSayI8ShVmb93ObFlRv8mUsM59MRa+XitT0oPQRZxGGQAPMZuYrc
EWz+dzgjo/3tm2TL2Uta739/D+MCAwEAAaOCARUwggERMA4GA1UdDwEB/wQEAwIF
oDAdBgNVHSUEFjAUBggrBgEFBQcDAgYIKwYBBQUHAwEwDAYDVR0TAQH/BAIwADAO
BgNVHSMEBzAFgAMBAgMwYgYIKwYBBQUHAQEEVjBUMCEGCCsGAQUFBzABhhVodHRw
Oi8vdGhlY2EubmV0L29jc3AwLwYIKwYBBQUHMAKGI2h0dHA6Ly90aGVjYS5uZXQv
dG90YWxseXRoZWNlcnQuY3J0MBMGA1UdIAQMMAowCAYGZ4EMAQICMA0GA1UdDgQG
BAQEAwIBMBsGA1UdEQQUMBKCCCouZ292LnVzggZnb3YudXMwHQYDVR0eAQH/BBMw
EaAPMA2CC2V4YW1wbGUuY29tMA0GCSqGSIb3DQEBCwUAA4IBAQBzOwmRySp44H61
lKaWPbb/xJG7La02rMA+8AQlAhniq3yo9wCZqxNSnyDnPH3hbY9hQy72juHLcpQo
uWecIvqpIdnDG4Q/mtq0M2bN6r1fG98Tk+gmOqEkc888kQewC5HZfz5MDk1Qzvb8
hdL6TYAnAwloEd3Wjr7wPALTpbgOX76MlY6TIjifyzLWIXkaZd3t2NR+C3bNr9L8
lOHEQUse3boLB5d/4PXUwAChNCg0gR+UAxH0HyM9Irc/mTfQSe7LSvxyiS770OCp
WDr/LWIyf7rv7M4g4Iob5V+eXSeAvQ1rMAAl86sZ9kvZNlNV4RklSUBZT8s1nKS+
tng8BtQ5
-----END CERTIFICATE-----
