Certificate:
    Data:
        Version: 3 (0x2)
        Serial Number: 18008675309 (0x4316693ed)
    Signature Algorithm: sha256WithRSAEncryption
        Issuer: C = US, O = Mother Nature, OU = Everything, CN = Mother Nature
        Validity
            Not Before: Dec 31 00:00:00 2010 GMT
            Not After : Jan  1 00:00:00 2013 GMT
        Subject: C = US, O = Extreme Discord, OU = Chaos, L = Tallahassee, ST = FL, street = 3210 Holly Mill Run, postalCode = 30062, CN = gov.us
        Subject Public Key Info:
            Public Key Algorithm: rsaEncryption
                Public-Key: (2048 bit)
                Modulus:
                    00:df:45:54:54:82:47:dd:cf:23:12:53:52:86:81:
                    08:dd:fc:ab:dd:ba:d8:b9:76:8f:48:a7:dd:14:4a:
                    0f:97:74:39:2c:46:d9:ab:b0:1d:ea:3d:da:13:07:
                    61:57:dc:d1:33:56:5a:bb:33:71:11:1d:a2:0d:bb:
                    23:2a:29:4f:1e:f9:1d:74:ad:48:31:07:dc:24:e4:
                    f4:55:b3:68:2e:be:7c:e6:45:f3:22:ec:0e:1a:62:
                    8c:60:0d:35:80:53:b7:95:9c:ae:9f:d9:1c:07:a9:
                    64:6f:06:0b:ba:ba:d2:fa:97:eb:96:37:bf:2e:65:
                    62:d8:ef:8d:11:21:7b:e7:03:f9:9e:d7:b3:9f:22:
                    77:86:4d:33:ef:a0:e2:a7:eb:0e:56:8f:f2:c0:23:
                    b3:e7:9c:8a:64:d8:85:50:86:4e:8f:88:86:f1:35:
                    ef:9d:e2:df:2b:00:a7:eb:8e:eb:c3:6e:e7:0e:1e:
                    ab:aa:89:ac:14:c7:6d:c6:1e:5b:e9:f7:56:83:26:
                    56:2e:20:93:f4:d5:e1:4c:47:c6:ce:04:96:32:fe:
                    3c:a7:bf:9c:b3:60:9e:8e:7b:c2:70:b2:18:03:3d:
                    b1:31:7f:e2:1c:cf:c2:ac:31:4b:2c:14:81:e8:2f:
                    b2:b4:ff:f6:d1:08:d3:39:fc:cd:a1:bd:26:8d:8e:
                    ec:2f
                Exponent: 65537 (0x10001)
        X509v3 extensions:
            X509v3 Key Usage: critical
                Digital Signature, Key Encipherment
            X509v3 Extended Key Usage: 
                TLS Web Client Authentication, TLS Web Server Authentication
            X509v3 Basic Constraints: critical
                CA:FALSE
            X509v3 Authority Key Identifier: 
                keyid:01:02:03

            Authority Information Access: 
                OCSP - URI:http://theca.net/ocsp
                CA Issuers - URI:http://theca.net/totallythecert.crt

            X509v3 Certificate Policies: 
                Policy: 2.23.140.1.2.2

            X509v3 Subject Key Identifier: 
                04:03:02:01
            X509v3 Subject Alternative Name: 
                DNS:*.gov.us, DNS:gov.us
            X509v3 Name Constraints: critical
                Permitted:
                  DNS:example.com

    Signature Algorithm: sha256WithRSAEncryption
         b2:88:b3:ad:ba:f2:45:34:31:6b:88:a2:e0:70:6f:bc:35:42:
         ff:e5:ce:e5:42:fc:d0:c3:bd:cb:05:45:38:e0:aa:4a:ff:3a:
         4c:1b:d0:77:9e:34:c0:43:e9:37:27:92:83:66:99:a6:d9:dd:
         38:5b:4a:40:ae:da:15:b2:38:76:59:2c:33:84:25:50:2f:a6:
         fa:d8:ed:10:6d:31:16:b2:a0:1a:01:28:f1:30:3f:ff:56:a0:
         0a:87:e8:bb:69:b3:b3:3f:1e:42:f5:3e:ef:b9:7b:ee:fa:cf:
         6a:7e:d2:fe:40:e7:8c:05:f9:41:2d:e5:a4:79:c4:58:a4:b5:
         59:5c:5c:20:89:54:ab:2c:35:75:cf:7e:a3:5d:a2:06:a5:3d:
         d7:bc:52:1d:ca:13:51:a6:ac:72:4f:44:d3:b4:b4:e9:90:31:
         18:d5:1c:fb:e1:84:60:7b:b9:e9:73:84:5a:00:f1:0d:03:61:
         08:72:d9:d8:98:83:72:01:2e:30:10:f6:2d:dc:a9:b3:11:23:
         c5:cf:4c:e5:11:0a:ac:ba:5b:45:c4:2f:1b:97:4f:69:74:fd:
         23:2c:51:eb:bd:ba:29:77:a1:f1:5b:2e:35:ea:ca:58:11:de:
         0f:15:72:90:72:6a:3b:45:07:a7:82:57:a9:92:5c:3c:74:fb:
         02:9a:11:df
-----BEGIN CERTIFICATE-----
MIIEgjCCA2qgAwIBAgIFBDFmk+0wDQYJKoZIhvcNAQELBQAwUjELMAkGA1UEBhMC
VVMxFjAUBgNVBAoTDU1vdGhlciBOYXR1cmUxEzARBgNVBAsTCkV2ZXJ5dGhpbmcx
FjAUBgNVBAMTDU1vdGhlciBOYXR1cmUwHhcNMTAxMjMxMDAwMDAwWhcNMTMwMTAx
MDAwMDAwWjCBmTELMAkGA1UEBhMCVVMxGDAWBgNVBAoTD0V4dHJlbWUgRGlzY29y
ZDEOMAwGA1UECxMFQ2hhb3MxFDASBgNVBAcTC1RhbGxhaGFzc2VlMQswCQYDVQQI
EwJGTDEcMBoGA1UECRMTMzIxMCBIb2xseSBNaWxsIFJ1bjEOMAwGA1UEERMFMzAw
NjIxDzANBgNVBAMTBmdvdi51czCCASIwDQYJKoZIhvcNAQEBBQADggEPADCCAQoC
ggEBAN9FVFSCR93PIxJTUoaBCN38q9262Ll2j0in3RRKD5d0OSxG2auwHeo92hMH
YVfc0TNWWrszcREdog27IyopTx75HXStSDEH3CTk9FWzaC6+fOZF8yLsDhpijGAN
NYBTt5Wcrp/ZHAepZG8GC7q60vqX65Y3vy5lYtjvjREhe+cD+Z7Xs58id4ZNM++g
4qfrDlaP8sAjs+ecimTYhVCGTo+IhvE1753i3ysAp+uO68Nu5w4eq6qJrBTHbcYe
W+n3VoMmVi4gk/TV4UxHxs4EljL+PKe/nLNgno57wnCyGAM9sTF/4hzPwqwxSywU
gegvsrT/9tEI0zn8zaG9Jo2O7C8CAwEAAaOCARUwggERMA4GA1UdDwEB/wQEAwIF
oDAdBgNVHSUEFjAUBggrBgEFBQcDAgYIKwYBBQUHAwEwDAYDVR0TAQH/BAIwADAO
BgNVHSMEBzAFgAMBAgMwYgYIKwYBBQUHAQEEVjBUMCEGCCsGAQUFBzABhhVodHRw
Oi8vdGhlY2EubmV0L29jc3AwLwYIKwYBBQUHMAKGI2h0dHA6Ly90aGVjYS5uZXQv
dG90YWxseXRoZWNlcnQuY3J0MBMGA1UdIAQMMAowCAYGZ4EMAQICMA0GA1UdDgQG
BAQEAwIBMBsGA1UdEQQUMBKCCCouZ292LnVzggZnb3YudXMwHQYDVR0eAQH/BBMw
EaAPMA2CC2V4YW1wbGUuY29tMA0GCSqGSIb3DQEBCwUAA4IBAQCyiLOtuvJFNDFr
iKLgcG+8NUL/5c7lQvzQw73LBUU44KpK/zpMG9B3njTAQ+k3J5KDZpmm2d04W0pA
rtoVsjh2WSwzhCVQL6b62O0QbTEWsqAaASjxMD//VqAKh+i7abOzPx5C9T7vuXvu
+s9qftL+QOeMBflBLeWkecRYpLVZXFwgiVSrLDV1z36jXaIGpT3XvFIdyhNRpqxy
T0TTtLTpkDEY1Rz74YRge7npc4RaAPENA2EIctnYmINyAS4wEPYt3KmzESPFz0zl
EQqsultFxC8bl09pdP0jLFHrvbopd6HxWy416spYEd4PFXKQcmo7RQenglepklw8
dPsCmhHf
-----END CERTIFICATE-----
