Certificate:
    Data:
        Version: 3 (0x2)
        Serial Number: 18008675309 (0x4316693ed)
    Signature Algorithm: sha256WithRSAEncryption
        Issuer: C = US, O = Mother Nature, OU = Everything, CN = Mother Nature
        Validity
            Not Before: Dec 31 00:00:00 2010 GMT
            Not After : Jan  1 00:00:00 2013 GMT
        Subject: C = US, O = Extreme Discord, OU = Chaos, L = Tallahassee, ST = FL, street = 3210 Holly Mill Run, postalCode = 30062, CN = gov.us
        Subject Public Key Info:
            Public Key Algorithm: rsaEncryption
                Public-Key: (2048 bit)
                Modulus:
                    00:c7:45:4c:e8:25:8a:5e:62:94:18:ed:3d:47:ea:
                    65:fd:ef:78:f6:db:6c:ee:2b:f2:9c:7d:de:67:74:
                    f9:a5:fe:b1:80:f1:16:92:5e:56:99:50:30:e1:52:
                    18:47:f5:fc:bb:f6:e8:f9:18:30:06:2a:0c:3e:38:
                    06:1f:01:6f:30:ae:99:56:c7:ae:88:be:de:7d:66:
                    e3:ca:68:5e:27:f4:0d:41:ba:2c:9c:c7:3a:93:38:
                    ba:99:03:52:56:fb:61:59:76:5d:13:77:18:0a:d5:
                    07:30:0c:ef:27:27:aa:08:dc:80:ad:f5:f9:e5:7c:
                    81:f0:45:06:9d:19:2b:73:58:92:c4:81:1e:56:fc:
                    76:74:db:98:de:02:f2:74:b1:b2:16:80:04:5f:4c:
                    5e:31:23:e4:a6:15:d9:51:9e:3e:21:bb:9a:74:49:
                    f4:c5:1a:4b:10:e1:d8:f6:f0:ef:09:5e:de:82:d0:
                    1f:9e:ab:df:b8:e3:81:76:e6:ef:ed:a3:d4:7d:82:
                    66:ab:ba:26:56:14:e1:37:75:e6:e3:ab:3e:6d:66:
                    c4:ae:ee:31:8c:a2:d3:3c:23:0a:a1:fd:1c:70:fb:
                    76:7c:ec:1a:2f:6c:cd:c6:8f:11:fc:d6:67:2c:d7:
                    2c:88:54:5d:48:18:96:87:db:8c:1b:e9:91:11:b3:
                    9b:9f
                Exponent: 65537 (0x10001)
        X509v3 extensions:
            X509v3 Key Usage: critical
                Digital Signature, Key Encipherment
            X509v3 Extended Key Usage: 
                TLS Web Client Authentication, TLS Web Server Authentication
            X509v3 Basic Constraints: critical
                CA:FALSE
            X509v3 Authority Key Identifier: 
                keyid:01:02:03

            Authority Information Access: 
                OCSP - URI:http://theca.net/ocsp
                CA Issuers - URI:http://theca.net/totallythecert.crt

            X509v3 Certificate Policies: 
                Policy: 2.23.140.1.2.2

            X509v3 Subject Key Identifier: 
                04:03:02:01
            X509v3 Subject Alternative Name: 
                DNS:*.gov.us, DNS:gov.us
            X509v3 Name Constraints: 
                Permitted:
                  DNS:example.com

    Signature Algorithm: sha256WithRSAEncryption
         72:31:a2:e3:66:df:5e:07:91:cf:6f:c3:b8:89:85:b3:ed:0a:
         fb:83:3c:0f:65:a0:bc:91:b2:a7:4e:36:5a:ae:1e:69:2f:d6:
         8f:f3:52:6f:7d:47:7b:2e:9c:88:45:7d:34:be:ab:23:d3:fc:
         20:26:92:c7:c6:99:d0:cc:37:0d:63:44:58:36:e5:cc:11:1c:
         09:c0:bb:5c:52:69:a2:f9:dc:7c:34:81:42:7b:04:1d:b7:89:
         b1:da:75:5c:b4:a0:d2:5b:65:5a:5b:1d:3e:61:5a:7c:23:e5:
         23:dc:06:cf:46:12:e0:19:b9:95:9d:c9:24:fe:be:09:e3:89:
         68:de:65:48:84:1f:7b:01:8e:4b:e4:6c:47:b4:b5:d3:fd:b5:
         c4:5d:dd:3e:1d:4b:ed:dc:34:36:46:ca:25:3c:52:bb:77:1a:
         de:3b:5f:92:cb:8b:85:80:fe:4d:4e:24:18:50:9f:a0:d1:8b:
         53:45:48:f2:35:e4:68:79:30:bc:af:3e:02:69:a4:f7:c6:51:
         42:8c:83:6a:fb:7e:3d:16:ac:c3:e5:09:14:c6:0e:15:70:53:
         7f:e4:bf:e6:25:78:b7:9b:d3:90:10:af:9a:53:54:0c:9c:94:
         db:55:6e:44:81:13:18:70:32:f7:0a:07:15:3f:ab:9b:fd:5d:
         9d:fa:54:89
-----BEGIN CERTIFICATE-----
MIIEfzCCA2egAwIBAgIFBDFmk+0wDQYJKoZIhvcNAQELBQAwUjELMAkGA1UEBhMC
VVMxFjAUBgNVBAoTDU1vdGhlciBOYXR1cmUxEzARBgNVBAsTCkV2ZXJ5dGhpbmcx
FjAUBgNVBAMTDU1vdGhlciBOYXR1cmUwHhcNMTAxMjMxMDAwMDAwWhcNMTMwMTAx
MDAwMDAwWjCBmTELMAkGA1UEBhMCVVMxGDAWBgNVBAoTD0V4dHJlbWUgRGlzY29y
ZDEOMAwGA1UECxMFQ2hhb3MxFDASBgNVBAcTC1RhbGxhaGFzc2VlMQswCQYDVQQI
EwJGTDEcMBoGA1UECRMTMzIxMCBIb2xseSBNaWxsIFJ1bjEOMAwGA1UEERMFMzAw
NjIxDzANBgNVBAMTBmdvdi51czCCASIwDQYJKoZIhvcNAQEBBQADggEPADCCAQoC
ggEBAMdFTOglil5ilBjtPUfqZf3vePbbbO4r8px93md0+aX+sYDxFpJeVplQMOFS
GEf1/Lv26PkYMAYqDD44Bh8BbzCumVbHroi+3n1m48poXif0DUG6LJzHOpM4upkD
Ulb7YVl2XRN3GArVBzAM7ycnqgjcgK31+eV8gfBFBp0ZK3NYksSBHlb8dnTbmN4C
8nSxshaABF9MXjEj5KYV2VGePiG7mnRJ9MUaSxDh2Pbw7wle3oLQH56r37jjgXbm
7+2j1H2CZqu6JlYU4Td15uOrPm1mxK7uMYyi0zwjCqH9HHD7dnzsGi9szcaPEfzW
ZyzXLIhUXUgYlofbjBvpkRGzm58CAwEAAaOCARIwggEOMA4GA1UdDwEB/wQEAwIF
oDAdBgNVHSUEFjAUBggrBgEFBQcDAgYIKwYBBQUHAwEwDAYDVR0TAQH/BAIwADAO
BgNVHSMEBzAFgAMBAgMwYgYIKwYBBQUHAQEEVjBUMCEGCCsGAQUFBzABhhVodHRw
Oi8vdGhlY2EubmV0L29jc3AwLwYIKwYBBQUHMAKGI2h0dHA6Ly90aGVjYS5uZXQv
dG90YWxseXRoZWNlcnQuY3J0MBMGA1UdIAQMMAowCAYGZ4EMAQICMA0GA1UdDgQG
BAQEAwIBMBsGA1UdEQQUMBKCCCouZ292LnVzggZnb3YudXMwGgYDVR0eBBMwEaAP
MA2CC2V4YW1wbGUuY29tMA0GCSqGSIb3DQEBCwUAA4IBAQByMaLjZt9eB5HPb8O4
iYWz7Qr7gzwPZaC8kbKnTjZarh5pL9aP81JvfUd7LpyIRX00vqsj0/wgJpLHxpnQ
zDcNY0RYNuXMERwJwLtcUmmi+dx8NIFCewQdt4mx2nVctKDSW2VaWx0+YVp8I+Uj
3AbPRhLgGbmVnckk/r4J44lo3mVIhB97AY5L5GxHtLXT/bXEXd0+HUvt3DQ2Rsol
PFK7dxreO1+Sy4uFgP5NTiQYUJ+g0YtTRUjyNeRoeTC8rz4CaaT3xlFCjINq+349
FqzD5QkUxg4VcFN/5L/mJXi3m9OQEK+aU1QMnJTbVW5EgRMYcDL3CgcVP6ub/V2d
+lSJ
-----END CERTIFICATE-----
