Certificate:
    Data:
        Version: 3 (0x2)
        Serial Number: 18008675309 (0x4316693ed)
    Signature Algorithm: sha256WithRSAEncryption
        Issuer: C = US, O = Mother Nature, OU = Everything, CN = Mother Nature
        Validity
            Not Before: Dec 31 00:00:00 2010 GMT
            Not After : Jan  1 00:00:00 2013 GMT
        Subject: C = US, O = Extreme Discord, OU = Chaos, L = Tallahassee, ST = FL, street = 3210 Holly Mill Run, postalCode = 30062, CN = gov.us
        Subject Public Key Info:
            Public Key Algorithm: rsaEncryption
                Public-Key: (2048 bit)
                Modulus:
                    00:d4:c9:a6:bd:42:b0:ad:78:9b:12:83:d6:bb:ce:
                    68:4c:64:f2:49:96:5e:ac:e4:f9:bd:e4:37:72:8e:
                    54:63:b1:a5:2f:43:40:57:65:5c:24:1b:d4:86:0a:
                    41:21:cd:a8:5a:b4:76:0a:f5:ca:1c:91:9e:2c:15:
                    48:ef:15:fe:ee:9c:4f:3a:3a:ab:da:0f:ec:9a:a9:
                    c8:ff:2a:4d:e4:b4:2d:14:1d:81:82:4c:c2:17:c2:
                    22:e8:97:66:73:88:87:79:d8:c1:ed:bc:65:c8:50:
                    72:8b:13:4c:de:da:c6:56:47:aa:1c:87:88:81:69:
                    b7:f7:0b:c4:6a:e7:52:52:44:59:41:f9:8f:ab:81:
                    3f:fa:9f:a5:9e:64:6d:17:3d:53:24:30:4c:35:08:
                    cc:9f:d1:e2:1d:bc:87:a4:72:c7:15:4b:58:a2:7c:
                    60:02:a9:07:44:48:49:8e:fe:94:23:09:24:09:ae:
                    23:06:26:e4:23:f7:60:6e:28:33:cd:47:08:87:ea:
                    e6:8a:3e:e2:c9:e9:6a:28:ed:fe:82:32:b2:12:ee:
                    39:14:4d:c4:40:7e:20:82:a5:90:7b:5b:31:c8:0c:
                    64:b0:dc:96:06:20:66:76:44:20:25:f6:fd:b1:95:
                    d7:b7:5c:16:7e:aa:4b:f4:07:7d:c4:28:9d:f7:85:
                    9c:43
                Exponent: 65537 (0x10001)
        X509v3 extensions:
            X509v3 Key Usage: critical
                Digital Signature, Key Encipherment
            X509v3 Extended Key Usage: 
                TLS Web Client Authentication, TLS Web Server Authentication
            X509v3 Basic Constraints: critical
                CA:TRUE
            X509v3 Authority Key Identifier: 
                keyid:01:02:03

            Authority Information Access: 
                OCSP - URI:http://theca.net/ocsp
                CA Issuers - URI:http://theca.net/totallythecert.crt

            X509v3 Certificate Policies: 
                Policy: 2.23.140.1.2.2

            X509v3 Subject Key Identifier: 
                04:03:02:01
            X509v3 Subject Alternative Name: 
                DNS:*.gov.us, DNS:gov.us
            X509v3 Name Constraints: critical
                Permitted:
                  DNS:example.com

    Signature Algorithm: sha256WithRSAEncryption
         98:84:83:44:a8:73:71:10:09:36:e1:75:73:90:1d:07:da:0d:
         50:49:03:c2:06:90:29:de:07:69:4e:58:59:08:40:e9:aa:40:
         c9:eb:bc:5f:84:05:48:e4:9f:34:b4:d6:15:a5:c5:71:1e:63:
         6a:80:bb:ec:6a:fa:c0:8e:f7:33:0f:ac:81:91:7e:62:51:c4:
         f0:c7:01:ae:21:e8:54:2c:4b:7a:e6:f4:5c:57:d0:db:3e:6e:
         0c:85:d1:ab:75:38:c3:3f:9f:9e:fc:5b:7e:6d:56:d5:07:79:
         47:69:21:6b:22:b4:10:ab:ac:7e:2a:9f:b4:dd:8d:43:05:3e:
         23:c7:d5:79:b8:e4:54:f2:e2:3a:51:9d:73:89:37:ca:86:21:
         17:71:26:be:ba:7a:6f:d0:5f:e6:23:8d:ca:8b:06:29:8c:79:
         da:45:95:9a:22:6a:38:51:bb:b8:ff:33:1b:40:82:95:b0:f9:
         60:52:52:23:fc:c9:3c:5c:7f:62:22:ae:cb:0b:92:3b:00:7a:
         a4:5a:be:4e:b1:a3:00:1c:18:f9:60:0c:9d:5f:9d:7e:fb:52:
         11:8b:09:dc:76:bd:d6:48:1f:9d:17:57:1d:a8:e7:e2:83:4b:
         e5:36:ef:78:ab:de:0a:d8:24:6c:ec:92:a8:ea:fb:5a:32:56:
         cf:a4:c8:ee
-----BEGIN CERTIFICATE-----
MIIEhTCCA22gAwIBAgIFBDFmk+0wDQYJKoZIhvcNAQELBQAwUjELMAkGA1UEBhMC
VVMxFjAUBgNVBAoTDU1vdGhlciBOYXR1cmUxEzARBgNVBAsTCkV2ZXJ5dGhpbmcx
FjAUBgNVBAMTDU1vdGhlciBOYXR1cmUwHhcNMTAxMjMxMDAwMDAwWhcNMTMwMTAx
MDAwMDAwWjCBmTELMAkGA1UEBhMCVVMxGDAWBgNVBAoTD0V4dHJlbWUgRGlzY29y
ZDEOMAwGA1UECxMFQ2hhb3MxFDASBgNVBAcTC1RhbGxhaGFzc2VlMQswCQYDVQQI
EwJGTDEcMBoGA1UECRMTMzIxMCBIb2xseSBNaWxsIFJ1bjEOMAwGA1UEERMFMzAw
NjIxDzANBgNVBAMTBmdvdi51czCCASIwDQYJKoZIhvcNAQEBBQADggEPADCCAQoC
ggEBANTJpr1CsK14mxKD1rvOaExk8kmWXqzk+b3kN3KOVGOxpS9DQFdlXCQb1IYK
QSHNqFq0dgr1yhyRniwVSO8V/u6cTzo6q9oP7JqpyP8qTeS0LRQdgYJMwhfCIuiX
ZnOIh3nYwe28ZchQcosTTN7axlZHqhyHiIFpt/cLxGrnUlJEWUH5j6uBP/qfpZ5k
bRc9UyQwTDUIzJ/R4h28h6RyxxVLWKJ8YAKpB0RISY7+lCMJJAmuIwYm5CP3YG4o
M81HCIfq5oo+4snpaijt/oIyshLuORRNxEB+IIKlkHtbMcgMZLDclgYgZnZEICX2
/bGV17dcFn6qS/QHfcQonfeFnEMCAwEAAaOCARgwggEUMA4GA1UdDwEB/wQEAwIF
oDAdBgNVHSUEFjAUBggrBgEFBQcDAgYIKwYBBQUHAwEwDwYDVR0TAQH/BAUwAwEB
/zAOBgNVHSMEBzAFgAMBAgMwYgYIKwYBBQUHAQEEVjBUMCEGCCsGAQUFBzABhhVo
dHRwOi8vdGhlY2EubmV0L29jc3AwLwYIKwYBBQUHMAKGI2h0dHA6Ly90aGVjYS5u
ZXQvdG90YWxseXRoZWNlcnQuY3J0MBMGA1UdIAQMMAowCAYGZ4EMAQICMA0GA1Ud
DgQGBAQEAwIBMBsGA1UdEQQUMBKCCCouZ292LnVzggZnb3YudXMwHQYDVR0eAQH/
BBMwEaAPMA2CC2V4YW1wbGUuY29tMA0GCSqGSIb3DQEBCwUAA4IBAQCYhINEqHNx
EAk24XVzkB0H2g1QSQPCBpAp3gdpTlhZCEDpqkDJ67xfhAVI5J80tNYVpcVxHmNq
gLvsavrAjvczD6yBkX5iUcTwxwGuIehULEt65vRcV9DbPm4MhdGrdTjDP5+e/Ft+
bVbVB3lHaSFrIrQQq6x+Kp+03Y1DBT4jx9V5uORU8uI6UZ1ziTfKhiEXcSa+unpv
0F/mI43KiwYpjHnaRZWaImo4Ubu4/zMbQIKVsPlgUlIj/Mk8XH9iIq7LC5I7AHqk
Wr5OsaMAHBj5YAydX51++1IRiwncdr3WSB+dF1cdqOfig0vlNu94q94K2CRs7JKo
6vtaMlbPpMju
-----END CERTIFICATE-----
