Certificate:
    Data:
        Version: 3 (0x2)
        Serial Number: 18008675309 (0x4316693ed)
    Signature Algorithm: sha256WithRSAEncryption
        Issuer: C = US, O = Mother Nature, OU = Everything, CN = Mother Nature
        Validity
            Not Before: Dec  1 06:07:08 2055 GMT
            Not After : Aug 12 04:12:46 2056 GMT
        Subject: C = US, O = Extreme Discord, OU = Chaos, L = Tallahassee, ST = FL, street = 3210 Holly Mill Run, postalCode = 30062, CN = gov.us
        Subject Public Key Info:
            Public Key Algorithm: rsaEncryption
                Public-Key: (512 bit)
                Modulus:
                    00:ed:a3:c5:35:4c:58:a9:17:89:37:74:69:c8:33:
                    e1:d9:45:20:c5:4f:9b:d4:4a:5f:89:12:dc:bf:f1:
                    86:56:7f:b6:48:93:41:5c:f5:9d:ba:f0:20:4c:68:
                    25:a6:48:07:00:2d:86:35:cd:6f:a4:de:fe:28:41:
                    f4:94:6b:db:fb
                Exponent: 65537 (0x10001)
        X509v3 extensions:
            X509v3 Key Usage: critical
                Digital Signature, Key Encipherment, Certificate Sign
            X509v3 Extended Key Usage: 
                TLS Web Client Authentication, TLS Web Server Authentication
            X509v3 Basic Constraints: critical
                CA:FALSE
            X509v3 Authority Key Identifier: 
                keyid:01:02:03

            Authority Information Access: 
                OCSP - URI:http://theca.net/ocsp
                CA Issuers - URI:http://theca.net/totallythecert.crt

            X509v3 Certificate Policies: 
                Policy: 2.23.140.1.2.2

            X509v3 Name Constraints: 

            X509v3 Subject Key Identifier: 
                04:03:02:01
            X509v3 Subject Alternative Name: 
                DNS:gov.us, DNS:ˬ
            X509v3 Inhibit Any Policy: 
                ..
            Subject Information Access: 
                ..
    Signature Algorithm: sha256WithRSAEncryption
         4b:ea:1a:ac:82:e6:89:fb:6d:fa:04:af:24:c4:c1:6a:33:fe:
         d8:64:5f:b9:ef:b6:79:b1:46:d9:ce:c0:06:56:c9:7f:1a:c3:
         c8:86:3a:9a:df:32:ae:1e:30:e8:88:71:3c:72:9e:d5:99:27:
         d6:eb:71:81:40:82:50:fe:c7:9d
-----BEGIN CERTIFICATE-----
MIIC/TCCAqmgAwIBAgIFBDFmk+0wCwYJKoZIhvcNAQELMFQxCzAJBgNVBAYTAlVT
MRYwFAYDVQQKEw1Nb3RoZXIgTmF0dXJlMRMwEQYDVQQLEwpFdmVyeXRoaW5nMRYw
FAYDVQQDEw1Nb3RoZXIgTmF0dXJlMQAwIhgPMjA1NTEyMDEwNjA3MDhaGA8yMDU2
MDgxMjA0MTI0NlowgZsxCzAJBgNVBAYTAlVTMRgwFgYDVQQKEw9FeHRyZW1lIERp
c2NvcmQxDjAMBgNVBAsTBUNoYW9zMRQwEgYDVQQHEwtUYWxsYWhhc3NlZTELMAkG
A1UECBMCRkwxHDAaBgNVBAkTEzMyMTAgSG9sbHkgTWlsbCBSdW4xDjAMBgNVBBET
BTMwMDYyMQ8wDQYDVQQDEwZnb3YudXMxADBcMA0GCSqGSIb3DQEBAQUAA0sAMEgC
QQDto8U1TFipF4k3dGnIM+HZRSDFT5vUSl+JEty/8YZWf7ZIk0Fc9Z268CBMaCWm
SAcALYY1zW+k3v4oQfSUa9v7AgMBAAGjggEWMIIBEjAOBgNVHQ8BAf8EBAMCAKQw
HQYDVR0lBBYwFAYIKwYBBQUHAwIGCCsGAQUFBwMBMAwGA1UdEwEB/wQCMAAwDgYD
VR0jBAcwBYADAQIDMGIGCCsGAQUFBwEBBFYwVDAhBggrBgEFBQcwAYYVaHR0cDov
L3RoZWNhLm5ldC9vY3NwMC8GCCsGAQUFBzAChiNodHRwOi8vdGhlY2EubmV0L3Rv
dGFsbHl0aGVjZXJ0LmNydDATBgNVHSAEDDAKMAgGBmeBDAECAjAJBgNVHR4EAjAA
MA0GA1UdDgQGBAQEAwIBMBUGA1UdEQQOMAyCBmdvdi51c4ICwKgwCQYDVR02BAIC
ATAOBggrBgEFBQcBCwQCAgEwCwYJKoZIhvcNAQELA0EAS+oarILmiftt+gSvJMTB
ajP+2GRfue+2ebFG2c7ABlbJfxrDyIY6mt8yrh4w6IhxPHKe1Zkn1utxgUCCUP7H
nQ==
-----END CERTIFICATE-----
