Certificate:
    Data:
        Version: 3 (0x2)
        Serial Number: 18008675309 (0x4316693ed)
    Signature Algorithm: sha256WithRSAEncryption
        Issuer: C = US, O = Mother Nature, OU = Everything, CN = Name constraint
        Validity
            Not Before: Dec  1 06:07:08 2055 GMT
            Not After : Sep  2 01:55:16 2056 GMT
        Subject: C = US, O = Extreme Discord, OU = Chaos, L = Tallahassee, ST = FL, street = 3210 Holly Mill Run, postalCode = 30062, CN = gov.us
        Subject Public Key Info:
            Public Key Algorithm: rsaEncryption
                Public-Key: (2048 bit)
                Modulus:
                    00:cb:1f:0b:1b:c2:7b:be:da:92:1e:f5:58:fc:bc:
                    26:c0:4b:5e:9d:ac:54:30:1c:53:bf:4b:ce:dd:7d:
                    5c:e8:b3:f1:44:99:56:c2:4e:83:3f:91:39:01:fb:
                    d3:28:30:f0:f1:b8:6f:b9:7b:3e:69:09:a6:9b:65:
                    3b:ee:c6:51:36:4d:c3:bd:d4:d4:f6:c7:5b:d0:80:
                    76:37:29:3f:64:12:fc:d0:d8:fb:3a:2d:bc:19:35:
                    7e:6f:01:75:cb:94:d1:7c:8b:45:84:ee:9a:8b:e3:
                    8f:4e:61:c2:a3:14:7d:8a:88:17:c7:97:2b:ac:95:
                    eb:63:df:4e:eb:bb:84:ce:1f:55:da:1a:8f:6d:fd:
                    35:34:71:09:5f:72:4b:e9:4a:1e:a1:0a:27:32:ca:
                    16:77:ef:9b:8c:89:85:72:67:58:3d:10:9c:d9:07:
                    57:ee:ab:27:ae:f9:94:45:13:56:fd:93:94:ab:15:
                    ad:d4:f8:9e:23:7f:b0:d1:f1:1c:40:bb:c1:98:1c:
                    08:50:fb:c0:45:4a:eb:fe:6d:19:0e:64:99:fe:32:
                    e6:90:98:27:ac:1d:cd:e7:2f:fd:74:66:3f:50:a2:
                    c0:c8:21:5f:97:d0:7c:5d:2e:7d:3c:f2:d8:a2:b3:
                    cb:24:17:49:82:08:1f:59:8b:46:0b:84:b6:0a:61:
                    5b:6d
                Exponent: 65537 (0x10001)
        X509v3 extensions:
            X509v3 Key Usage: critical
                Digital Signature, Key Encipherment, Certificate Sign
            X509v3 Extended Key Usage: 
                TLS Web Client Authentication, TLS Web Server Authentication
            X509v3 Basic Constraints: critical
                CA:TRUE
            X509v3 Authority Key Identifier: 
                keyid:01:02:03

            Authority Information Access: 
                OCSP - URI:http://theca.net/ocsp
                CA Issuers - URI:http://theca.net/totallythecert.crt

            X509v3 Certificate Policies: 
                Policy: 2.23.140.1.2.2
                Policy: 1.2.3.4.5

            X509v3 Name Constraints: 
                0.....0....
..assigner....party0...email0...LulMail0.....0..1.0...U....US10...U.
..UIUC1.0
..U....ECE1.0...U....Champaign1.0...U....IL1.0...U...601 Wright St1.0...U....618201.0...U....uiuc.net1...0..
banned.com0
..........
            X509v3 Subject Alternative Name: 
                DNS:gov.us
    Signature Algorithm: sha256WithRSAEncryption
         96:41:a6:9c:76:d8:59:53:fe:cd:3e:04:0a:d3:5f:22:d3:46:
         45:33:85:cb:40:d1:d5:71:9d:bd:4c:06:4c:45:94:4c:14:51:
         ee:cf:9f:49:1d:80:33:a7:3f:72:65:bc:7e:e0:c7:27:23:14:
         0a:48:80:e1:73:eb:fc:c2:3e:d6:64:37:b2:c3:a1:05:ca:a6:
         5e:bb:80:11:5f:4e:cd:15:d1:e9:16:26:f6:cb:b0:73:79:f3:
         44:d1:56:a9:35:22:16:b3:15:12:a5:df:f0:51:bf:79:82:f3:
         49:a0:74:38:59:d1:20:44:5c:95:4d:1c:59:59:1f:3f:07:89:
         c8:fe:ac:b8:49:a2:16:6b:15:f6:e8:10:9f:68:e1:8d:f5:32:
         64:89:9e:6b:f7:89:3b:59:e2:2b:b3:55:35:9c:0d:f9:4c:a8:
         47:f1:81:a4:6e:ae:47:6f:2f:1b:e6:19:89:23:48:a1:3b:d6:
         6d:39:4e:82:f6:b4:2c:8a:0c:80:02:a0:db:0a:36:85:03:ac:
         14:ff:e1:d1:a0:fb:69:91:f2:0f:18:ac:08:93:de:7d:1f:fc:
         b8:f9:34:8c:80:e9:5b:7e:3d:63:8d:1d:ca:01:e3:09:53:70:
         24:ac:b1:fa:60:a1:8b:ce:03:74:06:aa:8c:33:2f:f7:3a:42:
         65:37:8b:e4
-----BEGIN CERTIFICATE-----
MIIFRjCCBDCgAwIBAgIFBDFmk+0wCwYJKoZIhvcNAQELMFYxCzAJBgNVBAYTAlVT
MRYwFAYDVQQKEw1Nb3RoZXIgTmF0dXJlMRMwEQYDVQQLEwpFdmVyeXRoaW5nMRgw
FgYDVQQDEw9OYW1lIGNvbnN0cmFpbnQxADAiGA8yMDU1MTIwMTA2MDcwOFoYDzIw
NTYwOTAyMDE1NTE2WjCBmzELMAkGA1UEBhMCVVMxGDAWBgNVBAoTD0V4dHJlbWUg
RGlzY29yZDEOMAwGA1UECxMFQ2hhb3MxFDASBgNVBAcTC1RhbGxhaGFzc2VlMQsw
CQYDVQQIEwJGTDEcMBoGA1UECRMTMzIxMCBIb2xseSBNaWxsIFJ1bjEOMAwGA1UE
ERMFMzAwNjIxDzANBgNVBAMTBmdvdi51czEAMIIBIjANBgkqhkiG9w0BAQEFAAOC
AQ8AMIIBCgKCAQEAyx8LG8J7vtqSHvVY/LwmwEtenaxUMBxTv0vO3X1c6LPxRJlW
wk6DP5E5AfvTKDDw8bhvuXs+aQmmm2U77sZRNk3DvdTU9sdb0IB2Nyk/ZBL80Nj7
Oi28GTV+bwF1y5TRfItFhO6ai+OPTmHCoxR9iogXx5crrJXrY99O67uEzh9V2hqP
bf01NHEJX3JL6UoeoQonMsoWd++bjImFcmdYPRCc2QdX7qsnrvmURRNW/ZOUqxWt
1PieI3+w0fEcQLvBmBwIUPvARUrr/m0ZDmSZ/jLmkJgnrB3N5y/9dGY/UKLAyCFf
l9B8XS59PPLYorPLJBdJgggfWYtGC4S2CmFbbQIDAQABo4IB0zCCAc8wDgYDVR0P
AQH/BAQDAgCkMB0GA1UdJQQWMBQGCCsGAQUFBwMCBggrBgEFBQcDATAPBgNVHRMB
Af8EBTADAQH/MA4GA1UdIwQHMAWAAwECAzBiBggrBgEFBQcBAQRWMFQwIQYIKwYB
BQUHMAGGFWh0dHA6Ly90aGVjYS5uZXQvb2NzcDAvBggrBgEFBQcwAoYjaHR0cDov
L3RoZWNhLm5ldC90b3RhbGx5dGhlY2VydC5jcnQwGwYDVR0gBBQwEjAIBgZngQwB
AgIwBgYEKgMEBTCB6AYDVR0eBIHgMIHdoIG+MBelFaAKEwhhc3NpZ25lcqEHEwVw
YXJ0eTAHgQVlbWFpbDAJgQdMdWxNYWlsMIGOpIGLMIGIMQswCQYDVQQGEwJVUzEN
MAsGA1UEChMEVUlVQzEMMAoGA1UECxMDRUNFMRIwEAYDVQQHEwlDaGFtcGFpZ24x
CzAJBgNVBAgTAklMMRYwFAYDVQQJEw02MDEgV3JpZ2h0IFN0MQ4wDAYDVQQREwU2
MTgyMDERMA8GA1UEAxMIdWl1Yy5uZXQxAKEaMAyCCmJhbm5lZC5jb20wCocIwKgB
Af//AAAwEQYDVR0RBAowCIIGZ292LnVzMAsGCSqGSIb3DQEBCwOCAQEAlkGmnHbY
WVP+zT4ECtNfItNGRTOFy0DR1XGdvUwGTEWUTBRR7s+fSR2AM6c/cmW8fuDHJyMU
CkiA4XPr/MI+1mQ3ssOhBcqmXruAEV9OzRXR6RYm9suwc3nzRNFWqTUiFrMVEqXf
8FG/eYLzSaB0OFnRIERclU0cWVkfPweJyP6suEmiFmsV9ugQn2jhjfUyZImea/eJ
O1niK7NVNZwN+UyoR/GBpG6uR28vG+YZiSNIoTvWbTlOgva0LIoMgAKg2wo2hQOs
FP/h0aD7aZHyDxisCJPefR/8uPk0jIDpW349Y40dygHjCVNwJKyx+mChi84DdAaq
jDMv9zpCZTeL5A==
-----END CERTIFICATE-----
