Certificate:
    Data:
        Version: 3 (0x2)
        Serial Number: 1 (0x1)
        Signature Algorithm: sha256WithRSAEncryption
        Issuer: 
        Validity
            Not Before: Nov  1 00:00:00 2017 GMT
            Not After : Nov  1 00:00:00 2017 GMT
        Subject: 
        Subject Public Key Info:
            Public Key Algorithm: rsaEncryption
                RSA Public-Key: (512 bit)
                Modulus:
                    00:f5:0a:1c:80:44:f6:f2:4d:9a:93:06:18:40:d2:
                    8e:ae:81:51:19:46:e1:b3:70:47:2f:c9:c9:36:5a:
                    1e:58:fb:31:f4:eb:68:2b:98:80:a4:fb:34:32:de:
                    ff:b6:f2:0d:9d:d4:42:72:fa:05:e6:10:ef:30:65:
                    e8:0f:27:eb:2b
                Exponent: 65537 (0x10001)
        X509v3 extensions:
            X509v3 Extended Key Usage: 
                TLS Web Server Authentication
            X509v3 Name Constraints: 
                Permitted:
                  IP:192.0.0.0/255.255.0.0

    Signature Algorithm: sha256WithRSAEncryption
         46:99:a2:e4:6a:96:68:5c:42:bc:fd:c9:0b:21:96:0c:24:4e:
         1c:ea:b1:e6:a5:52:5c:22:a9:da:d2:f5:07:6f:e1:c6:84:3c:
         1f:b6:64:9e:21:75:4f:b4:34:4f:2d:8c:8a:fa:5d:9f:58:88:
         35:74:91:d6:fb:2f:bd:83:fe:03
-----BEGIN CERTIFICATE-----
MIIBIDCBy6ADAgECAgEBMA0GCSqGSIb3DQEBCwUAMAAwHhcNMTcxMTAxMDAwMDAw
WhcNMTcxMTAxMDAwMDAwWjAAMFwwDQYJKoZIhvcNAQEBBQADSwAwSAJBAPUKHIBE
9vJNmpMGGEDSjq6BURlG4bNwRy/JyTZaHlj7MfTraCuYgKT7NDLe/7byDZ3UQnL6
BeYQ7zBl6A8n6ysCAwEAAaMwMC4wEwYDVR0lBAwwCgYIKwYBBQUHAwEwFwYDVR0e
BBAwDqAMMAqHCMAAAAD//wAAMA0GCSqGSIb3DQEBCwUAA0EARpmi5GqWaFxCvP3J
CyGWDCROHOqx5qVSXCKp2tL1B2/hxoQ8H7ZkniF1T7Q0Ty2Mivpdn1iINXSR1vsv
vYP+Aw==
-----END CERTIFICATE-----
