Certificate:
    Data:
        Version: 3 (0x2)
        Serial Number: 18008675309 (0x4316693ed)
    Signature Algorithm: sha256WithRSAEncryption
        Issuer: C = US, O = Mother Nature, OU = Everything, CN = Mother Nature
        Validity
            Not Before: Jun 27 22:00:34 2016 GMT
            Not After : Sep  8 22:00:34 2016 GMT
        Subject: C = US, ST = FL, L = Tallahassee, street = 3210 Holly Mill Run, postalCode = 30062, O = Extreme Discord, OU = Chaos, CN = gov.us
        Subject Public Key Info:
            Public Key Algorithm: rsaEncryption
                Public-Key: (2048 bit)
                Modulus:
                    00:aa:31:97:6d:29:3f:81:0f:ce:57:d9:bc:c5:f0:
                    3e:87:4f:ee:83:c9:ca:84:10:55:19:b3:f8:99:7f:
                    e1:ce:cc:99:e6:b8:11:6e:6b:32:7a:78:fd:c4:2f:
                    72:bd:5b:9b:cc:58:a9:82:99:62:86:61:29:57:9b:
                    c2:2a:1b:4e:1d:ba:62:94:e7:5d:cb:ec:7f:99:71:
                    4f:b5:c0:59:83:28:b9:39:ae:bd:68:ce:06:87:bc:
                    53:7f:80:39:43:d1:43:72:b1:6e:c6:88:15:7d:53:
                    83:47:d1:f4:1c:e6:71:d7:dd:74:e7:39:7f:cf:9c:
                    39:f8:de:51:1f:d2:60:24:36:18:fd:73:76:b3:82:
                    92:a4:d2:ff:3b:2e:af:24:93:25:5d:ae:0d:30:52:
                    78:47:09:ae:03:35:a6:1d:1a:87:d8:ea:aa:d7:a2:
                    27:07:78:de:db:52:05:c3:4d:ea:2c:74:51:01:db:
                    30:f5:7e:08:72:ae:84:6a:6e:62:8b:a4:d5:03:b4:
                    d2:4c:82:73:a1:a6:77:cc:a0:58:dc:31:06:bc:11:
                    3d:5d:25:a3:40:e2:a5:09:ee:97:db:46:21:e2:28:
                    e7:7f:d8:fb:e4:8a:40:62:8c:a8:96:85:63:45:8a:
                    40:ea:5d:d2:5b:da:fa:09:55:14:7b:b5:47:f4:46:
                    9e:db
                Exponent: 65537 (0x10001)
        X509v3 extensions:
            X509v3 Key Usage: critical
                Digital Signature, Key Encipherment
            X509v3 Extended Key Usage: 
                TLS Web Client Authentication, TLS Web Server Authentication
            X509v3 Basic Constraints: critical
                CA:FALSE
            X509v3 Authority Key Identifier: 
                keyid:01:02:03

            X509v3 Certificate Policies: 
                Policy: 1.3.6.1.5.5.7.13.1

            X509v3 Subject Key Identifier: 
                04:03:02:01
            X509v3 Subject Alternative Name: 
                DNS:*.gov.us, DNS:gov.us
    Signature Algorithm: sha256WithRSAEncryption
         41:31:93:12:fa:50:4f:39:f4:9a:ca:3c:92:09:d1:5a:0f:a5:
         96:e6:7d:b5:fd:b4:51:4d:b1:09:cf:91:d0:98:ac:ed:6c:cb:
         dd:2d:38:32:49:0d:bb:af:36:43:20:13:43:5a:c5:11:2c:66:
         50:f8:8c:89:66:60:9d:5d:b1:b4:10:e6:75:58:11:55:2b:85:
         84:78:8b:88:d0:07:27:1e:e4:26:70:d3:51:41:a1:dd:18:08:
         c6:af:38:d6:57:32:6f:fd:1e:fa:ff:91:54:b0:35:4d:33:cc:
         63:1b:4f:60:d5:e6:cb:03:6d:5d:10:41:ef:70:a5:6b:25:f1:
         05:4c:60:c8:d6:7a:53:e8:88:eb:ed:cc:c0:7f:9a:38:cd:b5:
         18:12:85:30:0a:a5:b6:f4:1c:bf:dd:1f:4a:ce:eb:70:12:21:
         fc:36:8d:5c:0f:77:20:00:58:25:d5:de:42:a7:6d:4d:30:2d:
         13:b0:10:5e:8c:be:22:e0:ca:e8:14:b6:59:0a:41:76:66:10:
         0b:73:58:43:68:43:9e:9a:17:a7:97:b9:b2:25:05:c0:49:f1:
         96:09:d8:c3:85:3f:38:bb:39:56:20:f7:9a:3e:31:eb:97:84:
         6a:87:3d:3a:2c:10:11:f3:0f:39:73:e0:d8:d1:e8:a7:44:f0:
         2e:a3:45:4f
-----BEGIN CERTIFICATE-----
MIID/zCCAuegAwIBAgIFBDFmk+0wDQYJKoZIhvcNAQELBQAwUjELMAkGA1UEBhMC
VVMxFjAUBgNVBAoTDU1vdGhlciBOYXR1cmUxEzARBgNVBAsTCkV2ZXJ5dGhpbmcx
FjAUBgNVBAMTDU1vdGhlciBOYXR1cmUwHhcNMTYwNjI3MjIwMDM0WhcNMTYwOTA4
MjIwMDM0WjCBmTELMAkGA1UEBhMCVVMxCzAJBgNVBAgTAkZMMRQwEgYDVQQHEwtU
YWxsYWhhc3NlZTEcMBoGA1UECRMTMzIxMCBIb2xseSBNaWxsIFJ1bjEOMAwGA1UE
ERMFMzAwNjIxGDAWBgNVBAoTD0V4dHJlbWUgRGlzY29yZDEOMAwGA1UECxMFQ2hh
b3MxDzANBgNVBAMTBmdvdi51czCCASIwDQYJKoZIhvcNAQEBBQADggEPADCCAQoC
ggEBAKoxl20pP4EPzlfZvMXwPodP7oPJyoQQVRmz+Jl/4c7Mmea4EW5rMnp4/cQv
cr1bm8xYqYKZYoZhKVebwiobTh26YpTnXcvsf5lxT7XAWYMouTmuvWjOBoe8U3+A
OUPRQ3KxbsaIFX1Tg0fR9BzmcdfddOc5f8+cOfjeUR/SYCQ2GP1zdrOCkqTS/zsu
rySTJV2uDTBSeEcJrgM1ph0ah9jqqteiJwd43ttSBcNN6ix0UQHbMPV+CHKuhGpu
Youk1QO00kyCc6Gmd8ygWNwxBrwRPV0lo0DipQnul9tGIeIo53/Y++SKQGKMqJaF
Y0WKQOpd0lva+glVFHu1R/RGntsCAwEAAaOBkzCBkDAOBgNVHQ8BAf8EBAMCBaAw
HQYDVR0lBBYwFAYIKwYBBQUHAwIGCCsGAQUFBwMBMAwGA1UdEwEB/wQCMAAwDgYD
VR0jBAcwBYADAQIDMBUGA1UdIAQOMAwwCgYIKwYBBQUHDQEwDQYDVR0OBAYEBAQD
AgEwGwYDVR0RBBQwEoIIKi5nb3YudXOCBmdvdi51czANBgkqhkiG9w0BAQsFAAOC
AQEAQTGTEvpQTzn0mso8kgnRWg+lluZ9tf20UU2xCc+R0Jis7WzL3S04MkkNu682
QyATQ1rFESxmUPiMiWZgnV2xtBDmdVgRVSuFhHiLiNAHJx7kJnDTUUGh3RgIxq84
1lcyb/0e+v+RVLA1TTPMYxtPYNXmywNtXRBB73ClayXxBUxgyNZ6U+iI6+3MwH+a
OM21GBKFMAqltvQcv90fSs7rcBIh/DaNXA93IABYJdXeQqdtTTAtE7AQXoy+IuDK
6BS2WQpBdmYQC3NYQ2hDnpoXp5e5siUFwEnxlgnYw4U/OLs5ViD3mj4x65eEaoc9
OiwQEfMPOXPg2NHop0TwLqNFTw==
-----END CERTIFICATE-----
