Certificate:
    Data:
        Version: 3 (0x2)
        Serial Number: 18008675309 (0x4316693ed)
    Signature Algorithm: sha256WithRSAEncryption
        Issuer: C = US, O = Mother Nature, OU = Everything, CN = Mother Nature
        Validity
            Not Before: Jul  1 20:30:00 2016 GMT
            Not After : Sep 13 20:30:00 2016 GMT
        Subject: C = US, O = Extreme Discord, OU = Chaos, L = Tallahassee, ST = FL, street = 3210 Holly Mill Run, postalCode = 30062, CN = gov.us
        Subject Public Key Info:
            Public Key Algorithm: rsaEncryption
                Public-Key: (1024 bit)
                Modulus:
                    00:e2:60:0d:3a:a8:38:87:3f:23:5b:e9:03:06:1c:
                    73:33:7b:2a:70:b9:dc:53:52:dc:80:3f:8e:44:32:
                    f1:80:c0:6b:d1:fa:f4:7d:17:ac:59:92:d4:d6:32:
                    42:d5:23:a0:4d:74:71:53:14:e0:0f:e8:3b:09:1c:
                    a4:b0:13:09:3f:e7:f1:53:2e:35:3a:c1:81:b6:dd:
                    4f:9c:07:dd:5a:80:4b:4d:f3:96:35:dc:6a:2f:18:
                    25:9b:47:4d:15:2f:d0:4d:c4:9d:6d:d7:67:09:46:
                    8b:4c:92:bb:bd:ff:08:6c:12:96:7f:08:56:a2:b8:
                    8c:96:a0:9f:70:2c:d2:51:25
                Exponent: 65537 (0x10001)
        X509v3 extensions:
            X509v3 Key Usage: critical
                Digital Signature, Key Encipherment
            X509v3 Extended Key Usage: 
                TLS Web Client Authentication, TLS Web Server Authentication
            X509v3 Basic Constraints: critical
                CA:FALSE
            X509v3 Authority Key Identifier: 
                keyid:01:02:03

            Authority Information Access: 
                OCSP - URI:http://theca.net/ocsp
                CA Issuers - URI:http://theca.net/totallythecert.crt

            X509v3 Certificate Policies: 
                Policy: 2.23.140.1.2.2

            X509v3 Subject Key Identifier: 
                04:03:02:01
            X509v3 Subject Alternative Name: 
                DNS:*.gov.us, DNS:gov.us
    Signature Algorithm: sha256WithRSAEncryption
         88:9f:98:50:a6:7a:90:43:a5:a0:50:b8:f8:82:b7:94:a5:f8:
         c0:8d:fc:e8:93:6c:31:40:e6:58:26:dc:ed:a6:a0:07:6e:ad:
         ef:4a:87:9c:32:de:ed:43:6d:da:b8:8f:d8:d0:50:c4:59:9b:
         44:65:d3:9d:c2:f1:55:4e:8e:8f:d8:cd:ad:50:df:5f:98:12:
         59:30:23:24:cc:65:0f:f4:d3:64:ff:da:90:14:f7:09:f8:26:
         d3:85:80:b1:14:0e:23:e7:f5:bf:8e:db:f9:39:e1:1f:67:50:
         bb:f2:ed:82:33:29:7c:dd:98:79:d7:4e:fb:ef:f6:6e:8d:52:
         96:97:28:87:96:7c:a2:cc:6f:88:04:73:b6:b9:15:5a:e9:af:
         c5:a1:b4:dd:12:98:e3:c5:45:e1:99:b7:d5:a0:54:1f:9f:36:
         71:65:cb:08:85:b3:7a:f5:4b:bd:65:e3:50:3f:7e:f0:65:9f:
         97:47:f7:e2:38:de:3c:b8:94:d6:fd:97:88:40:4f:0c:30:ec:
         72:c7:99:e0:a6:3c:e9:f2:2b:c2:d5:e6:83:7e:50:28:cb:67:
         07:10:82:27:d7:12:c8:f8:10:8e:a4:4d:4f:56:10:75:cd:d4:
         e1:2d:72:49:42:1d:b6:8a:b3:bb:b1:63:0d:e9:82:05:a1:36:
         c6:fb:6c:dd
-----BEGIN CERTIFICATE-----
MIID3TCCAsWgAwIBAgIFBDFmk+0wDQYJKoZIhvcNAQELBQAwUjELMAkGA1UEBhMC
VVMxFjAUBgNVBAoTDU1vdGhlciBOYXR1cmUxEzARBgNVBAsTCkV2ZXJ5dGhpbmcx
FjAUBgNVBAMTDU1vdGhlciBOYXR1cmUwHhcNMTYwNzAxMjAzMDAwWhcNMTYwOTEz
MjAzMDAwWjCBmTELMAkGA1UEBhMCVVMxGDAWBgNVBAoTD0V4dHJlbWUgRGlzY29y
ZDEOMAwGA1UECxMFQ2hhb3MxFDASBgNVBAcTC1RhbGxhaGFzc2VlMQswCQYDVQQI
EwJGTDEcMBoGA1UECRMTMzIxMCBIb2xseSBNaWxsIFJ1bjEOMAwGA1UEERMFMzAw
NjIxDzANBgNVBAMTBmdvdi51czCBnzANBgkqhkiG9w0BAQEFAAOBjQAwgYkCgYEA
4mANOqg4hz8jW+kDBhxzM3sqcLncU1LcgD+ORDLxgMBr0fr0fResWZLU1jJC1SOg
TXRxUxTgD+g7CRyksBMJP+fxUy41OsGBtt1PnAfdWoBLTfOWNdxqLxglm0dNFS/Q
TcSdbddnCUaLTJK7vf8IbBKWfwhWoriMlqCfcCzSUSUCAwEAAaOB9TCB8jAOBgNV
HQ8BAf8EBAMCBaAwHQYDVR0lBBYwFAYIKwYBBQUHAwIGCCsGAQUFBwMBMAwGA1Ud
EwEB/wQCMAAwDgYDVR0jBAcwBYADAQIDMGIGCCsGAQUFBwEBBFYwVDAhBggrBgEF
BQcwAYYVaHR0cDovL3RoZWNhLm5ldC9vY3NwMC8GCCsGAQUFBzAChiNodHRwOi8v
dGhlY2EubmV0L3RvdGFsbHl0aGVjZXJ0LmNydDATBgNVHSAEDDAKMAgGBmeBDAEC
AjANBgNVHQ4EBgQEBAMCATAbBgNVHREEFDASgggqLmdvdi51c4IGZ292LnVzMA0G
CSqGSIb3DQEBCwUAA4IBAQCIn5hQpnqQQ6WgULj4greUpfjAjfzok2wxQOZYJtzt
pqAHbq3vSoecMt7tQ23auI/Y0FDEWZtEZdOdwvFVTo6P2M2tUN9fmBJZMCMkzGUP
9NNk/9qQFPcJ+CbThYCxFA4j5/W/jtv5OeEfZ1C78u2CMyl83Zh510777/ZujVKW
lyiHlnyizG+IBHO2uRVa6a/FobTdEpjjxUXhmbfVoFQfnzZxZcsIhbN69Uu9ZeNQ
P37wZZ+XR/fiON48uJTW/ZeIQE8MMOxyx5ngpjzp8ivC1eaDflAoy2cHEIIn1xLI
+BCOpE1PVhB1zdThLXJJQh22irO7sWMN6YIFoTbG+2zd
-----END CERTIFICATE-----
