Certificate:
    Data:
        Version: 3 (0x2)
        Serial Number: 4739 (0x1283)
        Signature Algorithm: sha256WithRSAEncryption
        Issuer: C=DE, ST=Bayern, L=N\xC3\x83\xC2\xBCrnberg, O=Siemens AG, OU=Trustcenter, CN=OliverCA/emailAddress=oliver.stiller@siemens.com
        Validity
            Not Before: Oct  7 11:28:52 2020 GMT
            Not After : Oct  7 11:28:52 2021 GMT
        Subject: O=Dont trust me, CN=Ignore me
        Subject Public Key Info:
            Public Key Algorithm: rsaEncryption
                RSA Public-Key: (2048 bit)
                Modulus:
                    00:da:36:bf:2e:dc:71:4c:8f:77:3a:99:f6:a3:d9:
                    81:a3:1b:ee:2e:01:87:bb:f4:7e:f0:b7:97:18:7d:
                    ad:16:32:2e:25:a7:e4:84:ad:dc:45:7f:07:a7:7c:
                    c8:9d:aa:2d:23:09:e8:43:09:5c:7b:86:87:48:74:
                    a6:f9:c3:a9:1a:43:ff:e5:43:ea:6b:ac:2e:a6:e2:
                    d3:dc:52:0a:39:97:ba:73:f4:b8:fe:40:ea:46:48:
                    55:bb:b0:8d:27:6d:93:a6:fc:2e:31:2f:35:43:d8:
                    ce:91:22:38:7f:42:a5:64:48:76:1e:e9:de:da:c4:
                    e8:09:02:0d:f8:82:78:bd:7a:94:d0:2b:8e:d5:dc:
                    c9:f7:82:e8:5b:31:24:b6:50:2c:04:84:e3:4f:d2:
                    c9:99:d5:f4:0d:1f:e8:e0:ed:68:a9:34:83:05:dd:
                    94:b7:99:d9:18:8c:48:17:a8:22:24:ab:f9:b6:5c:
                    e6:c8:10:7a:26:33:7e:e3:6b:2e:8a:cf:bd:87:c6:
                    13:68:e3:b7:5b:6e:25:fb:3c:0e:7f:16:7f:c4:ca:
                    a0:62:ce:92:4f:5e:21:6c:b8:b8:de:27:6b:e9:dc:
                    fc:e0:83:80:47:97:5c:60:b6:cd:3b:70:4a:ab:2f:
                    20:73:37:27:e2:69:86:e8:00:16:60:e6:9f:53:6f:
                    8b:23
                Exponent: 65537 (0x10001)
        X509v3 extensions:
            X509v3 Extended Key Usage: 
                Any Extended Key Usage
    Signature Algorithm: sha256WithRSAEncryption
         a7:14:62:a8:fc:80:40:3d:dc:15:b8:20:28:5e:4c:dd:8e:c0:
         d0:3d:a7:7a:62:79:7d:15:3a:94:bd:50:3c:3b:b4:aa:65:a1:
         3e:68:49:b9:71:80:9d:e4:0a:e4:25:74:c2:9a:fa:16:95:bb:
         fe:5b:e2:91:5f:e6:43:0b:d9:0b:15:e3:95:32:e7:cd:2f:01:
         1e:2c:42:bd:fe:00:1e:d8:e3:45:62:1f:d9:df:98:cc:05:88:
         eb:98:1e:bf:97:c4:06:91:3b:c6:4a:56:0c:b5:94:77:32:74:
         76:82:bb:82:92:25:cd:52:0a:16:38:68:64:04:23:08:af:c0:
         d9:56:97:d0:f9:d4:1a:44:3f:13:4d:87:6b:90:58:48:f8:dd:
         eb:17:97:f2:b8:2a:c3:a8:96:4f:41:8a:1c:2e:51:6f:23:c3:
         11:1a:4b:90:76:48:e2:7b:2d:31:0f:ac:e9:74:62:dc:30:4f:
         a5:ed:3d:61:1a:ee:11:04:33:4d:37:5b:ca:c4:95:21:d8:92:
         a5:5a:1d:6f:9d:a3:9a:6d:7a:e4:b3:cd:56:33:f2:d1:6d:80:
         97:5c:f3:08:b9:c4:c6:9b:fa:8c:ac:bb:be:f5:6a:fe:4b:57:
         7a:3b:e1:6c:97:72:fe:ce:29:00:40:9a:27:ba:ed:8b:05:b8:
         c5:47:28:e5:2b:17:ac:45:db:bd:c6:de:00:74:40:63:4d:9e:
         c6:a2:a2:cd:7a:97:c6:fe:24:cc:a5:9c:a8:de:25:b8:b2:99:
         d8:b8:68:ee:71:fd:4a:2f:b4:e2:bc:65:5c:93:8f:d8:98:e4:
         24:3d:3a:d2:7a:17:4e:d6:3d:3e:55:b2:68:72:ae:2c:d1:15:
         3b:05:cf:3b:0d:ca:9c:8c:49:bc:c8:c7:48:bd:31:98:bf:2f:
         cd:84:9e:5e:b6:f0:5d:25:4f:d3:41:e8:fe:61:a7:51:56:04:
         40:b8:91:be:f5:f9:f0:d0:9a:59:ba:05:ef:01:8a:08:2f:e2:
         88:8a:c6:b2:15:87:ae:b2:78:3d:c6:f3:b7:21:e4:8e:1b:7d:
         6f:d6:81:7f:48:39:58:b8:e9:9f:53:d8:df:cf:cf:89:d3:52:
         32:ac:3b:de:0c:2f:ca:fd:8a:b1:da:84:0d:23:a9:0d:bc:e2:
         af:c8:60:62:2b:14:49:40:97:ff:03:13:c5:b6:e7:8a:05:e0:
         88:70:37:7d:d9:26:2c:02:bc:b6:56:e5:7d:5a:65:e6:ba:3b:
         44:57:d0:02:70:ee:c3:49:20:00:7f:d1:98:21:8a:e5:8f:a5:
         c9:09:61:32:07:19:be:de:72:06:ac:e4:15:51:c2:29:ae:4c:
         85:98:07:b2:b5:cc:6d:0b
-----BEGIN CERTIFICATE-----
MIIEWTCCAkGgAwIBAgICEoMwDQYJKoZIhvcNAQELBQAwgZ0xCzAJBgNVBAYTAkRF
MQ8wDQYDVQQIDAZCYXllcm4xFDASBgNVBAcMC07Dg8K8cm5iZXJnMRMwEQYDVQQK
DApTaWVtZW5zIEFHMRQwEgYDVQQLDAtUcnVzdGNlbnRlcjERMA8GA1UEAwwIT2xp
dmVyQ0ExKTAnBgkqhkiG9w0BCQEWGm9saXZlci5zdGlsbGVyQHNpZW1lbnMuY29t
MB4XDTIwMTAwNzExMjg1MloXDTIxMTAwNzExMjg1MlowLDEWMBQGA1UECgwNRG9u
dCB0cnVzdCBtZTESMBAGA1UEAwwJSWdub3JlIG1lMIIBIjANBgkqhkiG9w0BAQEF
AAOCAQ8AMIIBCgKCAQEA2ja/LtxxTI93Opn2o9mBoxvuLgGHu/R+8LeXGH2tFjIu
JafkhK3cRX8Hp3zInaotIwnoQwlce4aHSHSm+cOpGkP/5UPqa6wupuLT3FIKOZe6
c/S4/kDqRkhVu7CNJ22TpvwuMS81Q9jOkSI4f0KlZEh2Hune2sToCQIN+IJ4vXqU
0CuO1dzJ94LoWzEktlAsBITjT9LJmdX0DR/o4O1oqTSDBd2Ut5nZGIxIF6giJKv5
tlzmyBB6JjN+42suis+9h8YTaOO3W24l+zwOfxZ/xMqgYs6ST14hbLi43idr6dz8
4IOAR5dcYLbNO3BKqy8gczcn4mmG6AAWYOafU2+LIwIDAQABoxMwETAPBgNVHSUE
CDAGBgRVHSUAMA0GCSqGSIb3DQEBCwUAA4ICAQCnFGKo/IBAPdwVuCAoXkzdjsDQ
Pad6Ynl9FTqUvVA8O7SqZaE+aEm5cYCd5ArkJXTCmvoWlbv+W+KRX+ZDC9kLFeOV
MufNLwEeLEK9/gAe2ONFYh/Z35jMBYjrmB6/l8QGkTvGSlYMtZR3MnR2gruCkiXN
UgoWOGhkBCMIr8DZVpfQ+dQaRD8TTYdrkFhI+N3rF5fyuCrDqJZPQYocLlFvI8MR
GkuQdkjiey0xD6zpdGLcME+l7T1hGu4RBDNNN1vKxJUh2JKlWh1vnaOabXrks81W
M/LRbYCXXPMIucTGm/qMrLu+9Wr+S1d6O+Fsl3L+zikAQJonuu2LBbjFRyjlKxes
Rdu9xt4AdEBjTZ7GoqLNepfG/iTMpZyo3iW4spnYuGjucf1KL7TivGVck4/YmOQk
PTrSehdO1j0+VbJocq4s0RU7Bc87DcqcjEm8yMdIvTGYvy/NhJ5etvBdJU/TQej+
YadRVgRAuJG+9fnw0JpZugXvAYoIL+KIisayFYeusng9xvO3IeSOG31v1oF/SDlY
uOmfU9jfz8+J01IyrDveDC/K/Yqx2oQNI6kNvOKvyGBiKxRJQJf/AxPFtueKBeCI
cDd92SYsAry2VuV9WmXmujtEV9ACcO7DSSAAf9GYIYrlj6XJCWEyBxm+3nIGrOQV
UcIprkyFmAeytcxtCw==
-----END CERTIFICATE-----
