Certificate:
    Data:
        Version: 3 (0x2)
        Serial Number: 4768 (0x12a0)
        Signature Algorithm: sha256WithRSAEncryption
        Issuer: C=DE, ST=Bayern, L=N\xC3\x83\xC2\xBCrnberg, O=Siemens AG, OU=Trustcenter, CN=OliverCA/emailAddress=oliver.stiller@siemens.com
        Validity
            Not Before: Oct  8 11:51:23 2020 GMT
            Not After : Oct  8 11:51:23 2021 GMT
        Subject: O=Dont trust me, CN=Ignore me
        Subject Public Key Info:
            Public Key Algorithm: rsaEncryption
                RSA Public-Key: (2048 bit)
                Modulus:
                    00:ed:c7:63:f8:80:31:d2:14:a3:b2:18:31:9a:10:
                    75:fe:ca:a7:1f:3f:99:7d:97:01:4a:fa:43:4a:30:
                    01:ec:a9:79:db:bf:7d:20:70:7a:e4:64:fa:bd:f8:
                    2c:32:02:25:34:86:1f:90:fc:84:dc:52:82:5d:91:
                    7f:d2:20:20:c1:e5:21:85:b2:f0:0e:0d:eb:51:12:
                    b4:b8:0a:4f:94:32:eb:02:c1:4a:ac:01:3e:33:81:
                    e0:72:04:38:2b:92:ee:87:7c:c9:e5:d8:49:bc:06:
                    12:31:46:24:75:f9:fd:b2:d9:d2:49:a3:a2:1b:55:
                    9b:e8:b3:ea:9f:1b:15:bf:ae:74:75:32:6b:de:c4:
                    c1:8c:89:74:dd:62:d6:d1:0e:fa:5d:e1:0b:79:ce:
                    13:b7:6b:93:bf:58:2f:5d:bf:43:90:cd:1f:61:0a:
                    cc:7f:c3:6d:87:70:72:ea:6e:1a:8f:0a:46:14:b4:
                    e0:23:6d:6b:8e:ba:35:8f:18:57:56:24:ca:2a:88:
                    33:f2:03:ae:cb:5c:48:a3:55:f6:87:04:86:02:e9:
                    9b:34:2b:82:c1:e1:9a:6c:84:3e:4e:20:8b:75:b1:
                    ff:f4:bb:d6:9a:5d:a8:43:fc:f3:ad:c9:35:d6:73:
                    ac:99:88:ce:1f:08:16:d5:37:f0:a6:ac:a8:27:11:
                    f5:fd
                Exponent: 65537 (0x10001)
        X509v3 extensions:
            X509v3 Extended Key Usage: 
                OCSP Signing, TLS Web Server Authentication, Any Extended Key Usage, E-mail Protection
            OCSP No Check: 

    Signature Algorithm: sha256WithRSAEncryption
         5c:32:de:10:a1:2d:b6:4a:63:54:f6:37:25:a1:fb:14:7c:55:
         ab:73:b6:fb:c1:fc:60:0c:66:45:ad:33:d6:98:9c:bb:f7:f5:
         f3:72:c5:2b:4a:c0:91:c9:2d:9f:f6:94:e9:97:b9:5a:5d:42:
         7c:d1:e7:e4:81:84:96:a1:d5:a0:a6:a1:8f:90:14:15:e7:31:
         97:a8:c4:6c:56:b0:e0:13:e5:f2:de:58:37:8a:85:91:f2:1f:
         1e:f6:a1:31:13:cc:cc:bd:22:c5:a7:50:e7:9a:ea:01:8c:d0:
         47:d1:c7:db:e9:9f:d9:61:31:c2:f9:ba:34:b9:ed:b6:be:5f:
         d1:b1:ea:96:b7:53:74:16:71:dd:96:29:e1:16:e2:63:d7:75:
         ec:32:66:aa:79:70:d1:0d:59:00:d8:d4:ae:cb:fa:7d:a9:4e:
         dd:c9:b6:d3:30:10:2c:9d:72:78:d4:e4:72:d6:52:8f:32:33:
         48:51:d5:b2:f8:f3:84:20:03:6f:79:8d:6d:21:34:2a:e8:15:
         0b:f6:a8:c5:17:64:4e:87:ce:ad:e9:65:d7:93:0c:e0:7a:30:
         74:b0:56:d7:e1:14:8e:5b:1c:1a:43:c6:88:01:6b:a7:6d:db:
         50:04:48:8d:16:17:fe:d0:d4:7a:46:59:aa:e7:5d:39:1d:d8:
         3d:69:0e:fa:ad:c4:a7:1b:e0:55:3b:0f:42:75:09:7c:21:c0:
         a7:55:e7:8f:e3:57:e3:cb:fd:72:1b:7b:5d:d9:4c:03:6d:06:
         92:ba:30:63:c1:ce:51:12:0f:49:da:6a:4c:f8:2e:b3:1b:9e:
         ef:6d:92:bb:6d:31:5d:d1:f2:37:0e:e4:ed:44:3e:c1:d4:46:
         16:b3:ec:00:48:cb:72:b9:e7:57:73:7d:1c:27:58:87:8a:78:
         f4:fa:da:24:5d:d8:de:ad:73:be:58:d3:ef:2e:cb:29:45:71:
         c2:26:66:c3:a8:58:8e:35:9d:0e:f9:d6:c7:ca:f3:e3:ca:b2:
         e9:53:f5:2f:93:7b:11:df:11:08:d4:ba:42:5b:12:dc:c3:f8:
         dd:a0:d7:a8:af:cc:f0:0a:2b:e9:38:62:9e:99:83:6b:c6:eb:
         29:f0:54:85:60:db:5a:4e:bf:32:a3:28:1d:d5:89:96:91:eb:
         3d:5b:d6:df:82:89:b2:2c:20:02:3d:fc:3e:38:ae:ec:2b:a4:
         c3:8e:e8:54:f5:b2:83:ad:43:af:90:fa:8d:7f:77:dd:1c:ba:
         1f:39:59:09:c1:95:48:8b:74:9c:49:90:26:7a:87:31:b5:6a:
         d2:e3:e9:f3:aa:96:84:ae:5b:64:2f:6e:c8:40:1f:d0:16:20:
         35:43:67:e4:67:f3:f9:f8
-----BEGIN CERTIFICATE-----
MIIEiDCCAnCgAwIBAgICEqAwDQYJKoZIhvcNAQELBQAwgZ0xCzAJBgNVBAYTAkRF
MQ8wDQYDVQQIDAZCYXllcm4xFDASBgNVBAcMC07Dg8K8cm5iZXJnMRMwEQYDVQQK
DApTaWVtZW5zIEFHMRQwEgYDVQQLDAtUcnVzdGNlbnRlcjERMA8GA1UEAwwIT2xp
dmVyQ0ExKTAnBgkqhkiG9w0BCQEWGm9saXZlci5zdGlsbGVyQHNpZW1lbnMuY29t
MB4XDTIwMTAwODExNTEyM1oXDTIxMTAwODExNTEyM1owLDEWMBQGA1UECgwNRG9u
dCB0cnVzdCBtZTESMBAGA1UEAwwJSWdub3JlIG1lMIIBIjANBgkqhkiG9w0BAQEF
AAOCAQ8AMIIBCgKCAQEA7cdj+IAx0hSjshgxmhB1/sqnHz+ZfZcBSvpDSjAB7Kl5
2799IHB65GT6vfgsMgIlNIYfkPyE3FKCXZF/0iAgweUhhbLwDg3rURK0uApPlDLr
AsFKrAE+M4HgcgQ4K5Luh3zJ5dhJvAYSMUYkdfn9stnSSaOiG1Wb6LPqnxsVv650
dTJr3sTBjIl03WLW0Q76XeELec4Tt2uTv1gvXb9DkM0fYQrMf8Nth3By6m4ajwpG
FLTgI21rjro1jxhXViTKKogz8gOuy1xIo1X2hwSGAumbNCuCweGabIQ+TiCLdbH/
9LvWml2oQ/zzrck11nOsmYjOHwgW1TfwpqyoJxH1/QIDAQABo0IwQDAtBgNVHSUE
JjAkBggrBgEFBQcDCQYIKwYBBQUHAwEGBFUdJQAGCCsGAQUFBwMEMA8GCSsGAQUF
BzABBQQCBQAwDQYJKoZIhvcNAQELBQADggIBAFwy3hChLbZKY1T2NyWh+xR8Vatz
tvvB/GAMZkWtM9aYnLv39fNyxStKwJHJLZ/2lOmXuVpdQnzR5+SBhJah1aCmoY+Q
FBXnMZeoxGxWsOAT5fLeWDeKhZHyHx72oTETzMy9IsWnUOea6gGM0EfRx9vpn9lh
McL5ujS57ba+X9Gx6pa3U3QWcd2WKeEW4mPXdewyZqp5cNENWQDY1K7L+n2pTt3J
ttMwECydcnjU5HLWUo8yM0hR1bL484QgA295jW0hNCroFQv2qMUXZE6Hzq3pZdeT
DOB6MHSwVtfhFI5bHBpDxogBa6dt21AESI0WF/7Q1HpGWarnXTkd2D1pDvqtxKcb
4FU7D0J1CXwhwKdV54/jV+PL/XIbe13ZTANtBpK6MGPBzlESD0naakz4LrMbnu9t
krttMV3R8jcO5O1EPsHURhaz7ABIy3K551dzfRwnWIeKePT62iRd2N6tc75Y0+8u
yylFccImZsOoWI41nQ751sfK8+PKsulT9S+TexHfEQjUukJbEtzD+N2g16ivzPAK
K+k4Yp6Zg2vG6ynwVIVg21pOvzKjKB3ViZaR6z1b1t+CibIsIAI9/D44ruwrpMOO
6FT1soOtQ6+Q+o1/d90cuh85WQnBlUiLdJxJkCZ6hzG1atLj6fOqloSuW2QvbshA
H9AWIDVDZ+Rn8/n4
-----END CERTIFICATE-----
