Certificate:
    Data:
        Version: 3 (0x2)
        Serial Number: 18008675309 (0x4316693ed)
    Signature Algorithm: sha256WithRSAEncryption
        Issuer: C = US, O = Mother Nature, OU = Everything, CN = Mother Nature
        Validity
            Not Before: Jul  1 21:24:25 2016 GMT
            Not After : Sep 13 21:24:25 2016 GMT
        Subject: C = US, O = Extreme Discord, OU = Chaos, L = Tallahassee, ST = FL, street = 3210 Holly Mill Run, postalCode = 30062, CN = gov.us
        Subject Public Key Info:
            Public Key Algorithm: rsaEncryption
                Public-Key: (14 bit)
                Modulus: 12345 (0x3039)
                Exponent: 65537 (0x10001)
        X509v3 extensions:
            X509v3 Key Usage: critical
                Digital Signature, Key Encipherment
            X509v3 Extended Key Usage: 
                TLS Web Client Authentication, TLS Web Server Authentication
            X509v3 Basic Constraints: critical
                CA:FALSE
            X509v3 Authority Key Identifier: 
                keyid:01:02:03

            Authority Information Access: 
                OCSP - URI:http://theca.net/ocsp
                CA Issuers - URI:http://theca.net/totallythecert.crt

            X509v3 Certificate Policies: 
                Policy: 2.23.140.1.2.2

            X509v3 Subject Key Identifier: 
                04:03:02:01
            X509v3 Subject Alternative Name: 
                DNS:*.gov.us, DNS:gov.us
    Signature Algorithm: sha256WithRSAEncryption
         3a:93:32:f8:9a:b9:5b:f8:3b:c7:9a:da:30:a2:e7:bb:3c:e0:
         9c:88:45:be:b5:91:4a:73:58:56:f8:40:e9:9c:fd:93:a6:4c:
         17:d3:bc:9b:af:b5:a8:b5:0e:0a:e8:35:10:1f:52:73:f3:7c:
         60:19:db:ca:40:38:d8:1e:fb:7c:e2:5d:50:2a:16:ce:2a:8c:
         ce:2f:0f:03:dc:fc:5f:08:05:bb:1b:49:52:65:53:ab:85:10:
         6e:87:af:9e:24:c3:98:19:66:9d:2e:52:d6:6c:d5:0a:76:ea:
         79:02:c2:56:76:ca:5d:bc:22:45:c2:14:0c:05:06:e0:fd:a3:
         17:c6:8d:96:55:2b:f9:f7:a9:4e:cb:54:9e:02:bf:28:63:42:
         eb:84:dc:e1:4b:0b:0d:be:c0:74:87:8a:bc:9a:a2:6d:20:d3:
         ef:b2:db:65:65:90:27:09:d6:56:a1:d8:41:ec:e5:ea:99:9b:
         2c:7f:34:d9:89:6d:f9:2b:ff:2c:23:6b:05:56:f2:05:7f:6f:
         25:2e:a2:a0:ba:c9:85:32:78:03:5d:75:64:bc:a9:eb:2c:49:
         2d:34:39:b6:aa:3d:5d:7d:47:ad:f6:8b:5b:f6:72:b2:58:71:
         49:e0:ff:fd:0d:fe:ca:02:28:dc:e7:cc:b4:25:36:35:90:23:
         d9:d7:44:eb
-----BEGIN CERTIFICATE-----
MIIDWjCCAkKgAwIBAgIFBDFmk+0wDQYJKoZIhvcNAQELBQAwUjELMAkGA1UEBhMC
VVMxFjAUBgNVBAoTDU1vdGhlciBOYXR1cmUxEzARBgNVBAsTCkV2ZXJ5dGhpbmcx
FjAUBgNVBAMTDU1vdGhlciBOYXR1cmUwHhcNMTYwNzAxMjEyNDI1WhcNMTYwOTEz
MjEyNDI1WjCBmTELMAkGA1UEBhMCVVMxGDAWBgNVBAoTD0V4dHJlbWUgRGlzY29y
ZDEOMAwGA1UECxMFQ2hhb3MxFDASBgNVBAcTC1RhbGxhaGFzc2VlMQswCQYDVQQI
EwJGTDEcMBoGA1UECRMTMzIxMCBIb2xseSBNaWxsIFJ1bjEOMAwGA1UEERMFMzAw
NjIxDzANBgNVBAMTBmdvdi51czAdMA0GCSqGSIb3DQEBAQUAAwwAMAkCAjA5AgMB
AAGjgfUwgfIwDgYDVR0PAQH/BAQDAgWgMB0GA1UdJQQWMBQGCCsGAQUFBwMCBggr
BgEFBQcDATAMBgNVHRMBAf8EAjAAMA4GA1UdIwQHMAWAAwECAzBiBggrBgEFBQcB
AQRWMFQwIQYIKwYBBQUHMAGGFWh0dHA6Ly90aGVjYS5uZXQvb2NzcDAvBggrBgEF
BQcwAoYjaHR0cDovL3RoZWNhLm5ldC90b3RhbGx5dGhlY2VydC5jcnQwEwYDVR0g
BAwwCjAIBgZngQwBAgIwDQYDVR0OBAYEBAQDAgEwGwYDVR0RBBQwEoIIKi5nb3Yu
dXOCBmdvdi51czANBgkqhkiG9w0BAQsFAAOCAQEAOpMy+Jq5W/g7x5raMKLnuzzg
nIhFvrWRSnNYVvhA6Zz9k6ZMF9O8m6+1qLUOCug1EB9Sc/N8YBnbykA42B77fOJd
UCoWziqMzi8PA9z8XwgFuxtJUmVTq4UQboevniTDmBlmnS5S1mzVCnbqeQLCVnbK
XbwiRcIUDAUG4P2jF8aNllUr+fepTstUngK/KGNC64Tc4UsLDb7AdIeKvJqibSDT
77LbZWWQJwnWVqHYQezl6pmbLH802Ylt+Sv/LCNrBVbyBX9vJS6ioLrJhTJ4A111
ZLyp6yxJLTQ5tqo9XX1HrfaLW/ZyslhxSeD//Q3+ygIo3OfMtCU2NZAj2ddE6w==
-----END CERTIFICATE-----
