Certificate:
    Data:
        Version: 3 (0x2)
        Serial Number: 18008675309 (0x4316693ed)
    Signature Algorithm: sha256WithRSAEncryption
        Issuer: C = US, O = Mother Nature, OU = Everything, CN = Mother Nature
        Validity
            Not Before: Dec 31 00:00:00 2010 GMT
            Not After : Jan  1 00:00:00 2013 GMT
        Subject: C = US, O = Extreme Discord, OU = Chaos, L = Tallahassee, ST = FL, street = 3210 Holly Mill Run, postalCode = 30062, CN = gov.us
        Subject Public Key Info:
            Public Key Algorithm: rsaEncryption
                Public-Key: (1024 bit)
                Modulus:
                    00:a2:bd:34:42:ca:ce:4f:0d:bc:f6:53:22:8a:29:
                    b6:d0:d3:da:81:3f:1a:7d:eb:aa:ae:dc:38:b7:09:
                    33:6b:53:2c:27:ef:da:b7:d0:7d:a6:74:e4:3d:b2:
                    af:a1:fd:fa:bb:87:03:2d:68:89:f8:1e:09:5d:27:
                    dd:19:2d:a3:94:b3:73:8a:d7:e9:f4:05:6d:36:93:
                    2a:d6:32:57:f0:59:16:22:a9:70:0c:97:69:50:04:
                    58:9a:1b:c3:1b:56:62:04:5c:63:29:90:90:8f:7c:
                    67:e3:9d:f4:ca:c6:08:b0:a0:a1:48:07:70:0a:82:
                    71:eb:30:9b:de:33:ee:35:ab
                Exponent: 65537 (0x10001)
        X509v3 extensions:
            X509v3 Key Usage: critical
                Digital Signature, Key Encipherment
            X509v3 Extended Key Usage: 
                TLS Web Client Authentication, TLS Web Server Authentication
            X509v3 Basic Constraints: critical
                CA:FALSE
            X509v3 Authority Key Identifier: 
                keyid:01:02:03

            Authority Information Access: 
                OCSP - URI:http://theca.net/ocsp
                CA Issuers - URI:http://theca.net/totallythecert.crt

            X509v3 Certificate Policies: 
                Policy: 2.23.140.1.2.2

            X509v3 Subject Key Identifier: 
                04:03:02:01
            X509v3 Subject Alternative Name: 
                DNS:*.gov.us, DNS:gov.us
    Signature Algorithm: sha256WithRSAEncryption
         33:3d:c4:79:2c:95:08:16:f0:39:cf:2f:fd:4e:17:76:46:36:
         b8:ab:6a:6c:95:1c:0f:81:ee:8f:09:8f:52:bd:ff:a1:14:57:
         13:0e:61:2a:b0:55:5b:7e:8c:79:6d:ab:65:f4:41:63:5f:0d:
         40:72:c2:cd:11:3a:7f:17:94:1e:9b:06:1f:0a:54:b6:d9:93:
         ad:59:77:dd:a9:f1:cb:60:50:fd:ba:ef:b0:f3:ae:74:81:c4:
         f1:e1:cb:31:ee:4f:75:17:f2:f2:12:7b:80:a0:8e:e1:01:a7:
         b3:69:8e:d3:fb:a3:d8:a0:78:95:01:0b:07:1a:e3:85:d9:b0:
         27:3b
-----BEGIN CERTIFICATE-----
MIIDXDCCAsWgAwIBAgIFBDFmk+0wDQYJKoZIhvcNAQELBQAwUjELMAkGA1UEBhMC
VVMxFjAUBgNVBAoTDU1vdGhlciBOYXR1cmUxEzARBgNVBAsTCkV2ZXJ5dGhpbmcx
FjAUBgNVBAMTDU1vdGhlciBOYXR1cmUwHhcNMTAxMjMxMDAwMDAwWhcNMTMwMTAx
MDAwMDAwWjCBmTELMAkGA1UEBhMCVVMxGDAWBgNVBAoTD0V4dHJlbWUgRGlzY29y
ZDEOMAwGA1UECxMFQ2hhb3MxFDASBgNVBAcTC1RhbGxhaGFzc2VlMQswCQYDVQQI
EwJGTDEcMBoGA1UECRMTMzIxMCBIb2xseSBNaWxsIFJ1bjEOMAwGA1UEERMFMzAw
NjIxDzANBgNVBAMTBmdvdi51czCBnzANBgkqhkiG9w0BAQEFAAOBjQAwgYkCgYEA
or00QsrOTw289lMiiim20NPagT8afeuqrtw4twkza1MsJ+/at9B9pnTkPbKvof36
u4cDLWiJ+B4JXSfdGS2jlLNzitfp9AVtNpMq1jJX8FkWIqlwDJdpUARYmhvDG1Zi
BFxjKZCQj3xn4530ysYIsKChSAdwCoJx6zCb3jPuNasCAwEAAaOB9TCB8jAOBgNV
HQ8BAf8EBAMCBaAwHQYDVR0lBBYwFAYIKwYBBQUHAwIGCCsGAQUFBwMBMAwGA1Ud
EwEB/wQCMAAwDgYDVR0jBAcwBYADAQIDMGIGCCsGAQUFBwEBBFYwVDAhBggrBgEF
BQcwAYYVaHR0cDovL3RoZWNhLm5ldC9vY3NwMC8GCCsGAQUFBzAChiNodHRwOi8v
dGhlY2EubmV0L3RvdGFsbHl0aGVjZXJ0LmNydDATBgNVHSAEDDAKMAgGBmeBDAEC
AjANBgNVHQ4EBgQEBAMCATAbBgNVHREEFDASgggqLmdvdi51c4IGZ292LnVzMA0G
CSqGSIb3DQEBCwUAA4GBADM9xHkslQgW8DnPL/1OF3ZGNriramyVHA+B7o8Jj1K9
/6EUVxMOYSqwVVt+jHltq2X0QWNfDUByws0ROn8XlB6bBh8KVLbZk61Zd92p8ctg
UP2677DzrnSBxPHhyzHuT3UX8vISe4CgjuEBp7NpjtP7o9igeJUBCwca44XZsCc7
-----END CERTIFICATE-----
