Certificate:
    Data:
        Version: 3 (0x2)
        Serial Number: 1337 (0x539)
        Signature Algorithm: sha256WithRSAEncryption
        Issuer: CN = Zmap Onion CA
        Validity
            Not Before: Mar  2 20:54:40 2019 GMT
            Not After : Mar  2 20:54:40 2020 GMT
        Subject: CN = zmap.io
        Subject Public Key Info:
            Public Key Algorithm: rsaEncryption
                RSA Public-Key: (512 bit)
                Modulus:
                    00:ca:13:05:48:8f:61:de:a3:fb:0d:1f:e5:b9:81:
                    81:ae:a7:81:4e:64:e5:e2:9b:ec:e3:9b:63:c7:92:
                    3d:3e:46:63:34:1f:82:73:ea:87:0a:11:e0:97:5e:
                    51:87:f7:f6:27:47:e7:f9:15:71:e7:76:c4:6e:d4:
                    ee:9b:2c:7c:6b
                Exponent: 65537 (0x10001)
        X509v3 extensions:
            X509v3 Extended Key Usage: 
                TLS Web Server Authentication, TLS Web Client Authentication
            X509v3 Basic Constraints: critical
                CA:FALSE
            X509v3 Subject Alternative Name: 
                DNS:zmap.io, DNS:zmap.onion, DNS:missing.onion
            X509v3 Certificate Policies: 
                Policy: 1.3.6.1.4.1.36305.2

            2.23.140.1.31: 
                0F0D..https://zmap.onion0...`.H.e.....!..I..I..e\..?.>.{{}.G*.bx0q.9.f8\
    Signature Algorithm: sha256WithRSAEncryption
         09:9b:05:52:98:a3:c1:38:97:46:e9:64:71:26:5d:4c:9b:8f:
         28:64:58:c6:c6:dd:2e:c2:ba:23:dd:67:a9:1e:bc:2b:08:25:
         cd:d8:f5:da:90:02:2a:b4:45:fd:19:02:51:99:27:2e:ad:dd:
         f2:e4:32:b4:26:19:a2:d3:1f:76
-----BEGIN CERTIFICATE-----
MIIB5zCCAZGgAwIBAgICBTkwDQYJKoZIhvcNAQELBQAwGDEWMBQGA1UEAxMNWm1h
cCBPbmlvbiBDQTAeFw0xOTAzMDIyMDU0NDBaFw0yMDAzMDIyMDU0NDBaMBIxEDAO
BgNVBAMTB3ptYXAuaW8wXDANBgkqhkiG9w0BAQEFAANLADBIAkEAyhMFSI9h3qP7
DR/luYGBrqeBTmTl4pvs45tjx5I9PkZjNB+Cc+qHChHgl15Rh/f2J0fn+RVx53bE
btTumyx8awIDAQABo4HKMIHHMB0GA1UdJQQWMBQGCCsGAQUFBwMBBggrBgEFBQcD
AjAMBgNVHRMBAf8EAjAAMC0GA1UdEQQmMCSCB3ptYXAuaW+CCnptYXAub25pb26C
DW1pc3Npbmcub25pb24wFgYDVR0gBA8wDTALBgkrBgEEAYKbUQIwUQYFZ4EMAR8E
SDBGMEQMEmh0dHBzOi8vem1hcC5vbmlvbjALBglghkgBZQMEAgEDIQDHSfWySZyP
ZVwZsz/5PgN7e32+RyqsYngwcbA5uGY4XDANBgkqhkiG9w0BAQsFAANBAAmbBVKY
o8E4l0bpZHEmXUybjyhkWMbG3S7CuiPdZ6kevCsIJc3Y9dqQAiq0Rf0ZAlGZJy6t
3fLkMrQmGaLTH3Y=
-----END CERTIFICATE-----
