Certificate:
    Data:
        Version: 3 (0x2)
        Serial Number: 1337 (0x539)
        Signature Algorithm: sha256WithRSAEncryption
        Issuer: CN = Zmap Onion CA
        Validity
            Not Before: Mar  2 20:21:33 2019 GMT
            Not After : Mar  2 20:21:33 2020 GMT
        Subject: CN = zmap.io
        Subject Public Key Info:
            Public Key Algorithm: rsaEncryption
                RSA Public-Key: (512 bit)
                Modulus:
                    00:db:1d:4a:a1:60:f9:80:37:f9:94:a0:d8:8c:4c:
                    53:0d:a6:8e:7a:bb:8e:8b:f5:7d:b7:18:69:33:27:
                    85:6d:90:34:5a:c3:24:cd:a6:c2:0c:77:43:4a:c5:
                    e6:f0:27:60:08:ca:ad:10:65:a6:3a:a4:62:4e:80:
                    4c:69:c7:71:1b
                Exponent: 65537 (0x10001)
        X509v3 extensions:
            X509v3 Extended Key Usage: 
                TLS Web Server Authentication, TLS Web Client Authentication
            X509v3 Basic Constraints: critical
                CA:FALSE
            X509v3 Subject Alternative Name: 
                DNS:zmap.io, DNS:zmap.onion
            2.23.140.1.31: 
                0F0D..https://zmap.onion0...`.H.e.....!..I..I..e\..?.>.{{}.G*.bx0q.9.f8\
    Signature Algorithm: sha256WithRSAEncryption
         76:c5:d6:d0:6f:8a:4b:47:b0:76:bf:90:01:68:df:28:79:85:
         2d:8a:df:97:18:ea:1c:dd:9e:51:16:01:69:06:8d:40:fc:ce:
         51:ef:a6:ad:39:5b:64:8d:7c:3a:c8:66:f3:7d:eb:53:f6:7c:
         e4:04:f7:f2:68:69:eb:68:9d:28
-----BEGIN CERTIFICATE-----
MIIBwDCCAWqgAwIBAgICBTkwDQYJKoZIhvcNAQELBQAwGDEWMBQGA1UEAxMNWm1h
cCBPbmlvbiBDQTAeFw0xOTAzMDIyMDIxMzNaFw0yMDAzMDIyMDIxMzNaMBIxEDAO
BgNVBAMTB3ptYXAuaW8wXDANBgkqhkiG9w0BAQEFAANLADBIAkEA2x1KoWD5gDf5
lKDYjExTDaaOeruOi/V9txhpMyeFbZA0WsMkzabCDHdDSsXm8CdgCMqtEGWmOqRi
ToBMacdxGwIDAQABo4GjMIGgMB0GA1UdJQQWMBQGCCsGAQUFBwMBBggrBgEFBQcD
AjAMBgNVHRMBAf8EAjAAMB4GA1UdEQQXMBWCB3ptYXAuaW+CCnptYXAub25pb24w
UQYFZ4EMAR8ESDBGMEQMEmh0dHBzOi8vem1hcC5vbmlvbjALBglghkgBZQMEAgED
IQDHSfWySZyPZVwZsz/5PgN7e32+RyqsYngwcbA5uGY4XDANBgkqhkiG9w0BAQsF
AANBAHbF1tBviktHsHa/kAFo3yh5hS2K35cY6hzdnlEWAWkGjUD8zlHvpq05W2SN
fDrIZvN961P2fOQE9/JoaetonSg=
-----END CERTIFICATE-----
