Certificate:
    Data:
        Version: 3 (0x2)
        Serial Number: 1337 (0x539)
        Signature Algorithm: sha256WithRSAEncryption
        Issuer: CN = Zmap Onion CA
        Validity
            Not Before: Mar  2 20:54:40 2019 GMT
            Not After : Mar  2 20:54:40 2020 GMT
        Subject: CN = zmap.io
        Subject Public Key Info:
            Public Key Algorithm: rsaEncryption
                RSA Public-Key: (512 bit)
                Modulus:
                    00:ca:13:05:48:8f:61:de:a3:fb:0d:1f:e5:b9:81:
                    81:ae:a7:81:4e:64:e5:e2:9b:ec:e3:9b:63:c7:92:
                    3d:3e:46:63:34:1f:82:73:ea:87:0a:11:e0:97:5e:
                    51:87:f7:f6:27:47:e7:f9:15:71:e7:76:c4:6e:d4:
                    ee:9b:2c:7c:6b
                Exponent: 65537 (0x10001)
        X509v3 extensions:
            X509v3 Extended Key Usage: 
                TLS Web Server Authentication, TLS Web Client Authentication
            X509v3 Basic Constraints: critical
                CA:FALSE
            X509v3 Subject Alternative Name: 
                DNS:zmap.io, DNS:zmap.onion, DNS:missing.onion
            2.23.140.1.31: 
                0F0D..https://zmap.onion0...`.H.e.....!..I..I..e\..?.>.{{}.G*.bx0q.9.f8\
    Signature Algorithm: sha256WithRSAEncryption
         34:7a:85:96:cb:61:a1:04:78:17:42:e5:f9:b1:e6:0a:33:f7:
         09:4a:d3:43:d7:56:e7:97:d7:9b:ad:78:e2:16:80:66:1b:06:
         19:d9:bc:db:8d:f8:87:6b:98:5a:ef:6a:8c:4f:b1:64:e9:eb:
         c3:72:f5:30:7a:79:ac:1d:2a:06
-----BEGIN CERTIFICATE-----
MIIBzzCCAXmgAwIBAgICBTkwDQYJKoZIhvcNAQELBQAwGDEWMBQGA1UEAxMNWm1h
cCBPbmlvbiBDQTAeFw0xOTAzMDIyMDU0NDBaFw0yMDAzMDIyMDU0NDBaMBIxEDAO
BgNVBAMTB3ptYXAuaW8wXDANBgkqhkiG9w0BAQEFAANLADBIAkEAyhMFSI9h3qP7
DR/luYGBrqeBTmTl4pvs45tjx5I9PkZjNB+Cc+qHChHgl15Rh/f2J0fn+RVx53bE
btTumyx8awIDAQABo4GyMIGvMB0GA1UdJQQWMBQGCCsGAQUFBwMBBggrBgEFBQcD
AjAMBgNVHRMBAf8EAjAAMC0GA1UdEQQmMCSCB3ptYXAuaW+CCnptYXAub25pb26C
DW1pc3Npbmcub25pb24wUQYFZ4EMAR8ESDBGMEQMEmh0dHBzOi8vem1hcC5vbmlv
bjALBglghkgBZQMEAgEDIQDHSfWySZyPZVwZsz/5PgN7e32+RyqsYngwcbA5uGY4
XDANBgkqhkiG9w0BAQsFAANBADR6hZbLYaEEeBdC5fmx5goz9wlK00PXVueX15ut
eOIWgGYbBhnZvNuN+IdrmFrvaoxPsWTp68Ny9TB6eawdKgY=
-----END CERTIFICATE-----
