Certificate:
    Data:
        Version: 3 (0x2)
        Serial Number: 31337 (0x7a69)
        Signature Algorithm: sha256WithRSAEncryption
        Issuer: CN = Zmap Onion CA
        Validity
            Not Before: Jun  2 15:17:12 2017 GMT
            Not After : Mar  2 15:17:12 2018 GMT
        Subject: CN = zmap.io
        Subject Public Key Info:
            Public Key Algorithm: rsaEncryption
                RSA Public-Key: (512 bit)
                Modulus:
                    00:e7:b5:d2:75:b1:04:c6:24:e7:b2:1f:b1:22:2b:
                    30:35:e9:ae:d8:b4:40:a2:34:19:01:80:a4:2e:a8:
                    0a:de:43:49:3d:70:a2:22:0a:a8:51:bd:9b:13:fb:
                    6e:cc:60:65:88:32:fc:33:21:06:4d:a3:27:fe:b0:
                    75:80:cc:d4:df
                Exponent: 65537 (0x10001)
        X509v3 extensions:
            X509v3 Extended Key Usage: 
                TLS Web Server Authentication, TLS Web Client Authentication
            X509v3 Basic Constraints: critical
                CA:FALSE
            X509v3 Subject Alternative Name: 
                DNS:zmap.io, DNS:zmap.onion
            X509v3 Certificate Policies: 
                Policy: 1.3.6.1.4.1.36305.2

    Signature Algorithm: sha256WithRSAEncryption
         30:f7:da:b6:a8:15:e3:d9:3a:aa:56:9f:88:06:ea:ae:5e:75:
         58:d5:7c:ea:31:b7:f2:a5:fe:e8:9c:68:f8:0a:6f:64:d1:f3:
         10:53:48:56:55:c6:5c:20:04:bf:b1:44:6a:69:1d:d5:fb:8e:
         57:99:2a:87:1f:b0:d7:ae:a8:20
-----BEGIN CERTIFICATE-----
MIIBgzCCAS2gAwIBAgICemkwDQYJKoZIhvcNAQELBQAwGDEWMBQGA1UEAxMNWm1h
cCBPbmlvbiBDQTAeFw0xNzA2MDIxNTE3MTJaFw0xODAzMDIxNTE3MTJaMBIxEDAO
BgNVBAMTB3ptYXAuaW8wXDANBgkqhkiG9w0BAQEFAANLADBIAkEA57XSdbEExiTn
sh+xIiswNemu2LRAojQZAYCkLqgK3kNJPXCiIgqoUb2bE/tuzGBliDL8MyEGTaMn
/rB1gMzU3wIDAQABo2cwZTAdBgNVHSUEFjAUBggrBgEFBQcDAQYIKwYBBQUHAwIw
DAYDVR0TAQH/BAIwADAeBgNVHREEFzAVggd6bWFwLmlvggp6bWFwLm9uaW9uMBYG
A1UdIAQPMA0wCwYJKwYBBAGCm1ECMA0GCSqGSIb3DQEBCwUAA0EAMPfatqgV49k6
qlafiAbqrl51WNV86jG38qX+6Jxo+ApvZNHzEFNIVlXGXCAEv7FEamkd1fuOV5kq
hx+w166oIA==
-----END CERTIFICATE-----
