Certificate:
    Data:
        Version: 3 (0x2)
        Serial Number: 1337 (0x539)
        Signature Algorithm: sha256WithRSAEncryption
        Issuer: CN = Zmap Onion CA
        Validity
            Not Before: Mar  2 14:59:01 2019 GMT
            Not After : Mar  2 14:59:01 2020 GMT
        Subject: CN = zmap.io
        Subject Public Key Info:
            Public Key Algorithm: rsaEncryption
                RSA Public-Key: (512 bit)
                Modulus:
                    00:c1:80:78:09:b7:3d:dc:91:09:d5:fa:d4:f6:6b:
                    eb:5c:ec:c9:ba:ca:2c:37:c3:69:b3:63:82:fb:ac:
                    43:01:81:d7:65:d2:3a:f4:74:df:90:33:6f:c4:cd:
                    a6:74:2f:0d:25:ea:d8:eb:b5:ee:6b:ec:c8:85:b7:
                    a7:a2:75:3d:0b
                Exponent: 65537 (0x10001)
        X509v3 extensions:
            X509v3 Extended Key Usage: 
                TLS Web Server Authentication, TLS Web Client Authentication
            X509v3 Basic Constraints: critical
                CA:FALSE
            X509v3 Subject Alternative Name: 
                DNS:zmap.io, DNS:zmap.onion
    Signature Algorithm: sha256WithRSAEncryption
         87:43:1c:72:3a:4f:1c:54:11:77:7a:06:ef:be:00:62:ad:c2:
         84:16:a4:fb:ed:f3:aa:1f:c5:3a:89:16:ba:6d:57:13:33:82:
         9a:30:0c:1d:9e:da:2d:1a:c9:db:44:25:f0:24:44:2c:96:1f:
         fa:8a:b0:bd:86:ce:b9:2f:a7:7e
-----BEGIN CERTIFICATE-----
MIIBazCCARWgAwIBAgICBTkwDQYJKoZIhvcNAQELBQAwGDEWMBQGA1UEAxMNWm1h
cCBPbmlvbiBDQTAeFw0xOTAzMDIxNDU5MDFaFw0yMDAzMDIxNDU5MDFaMBIxEDAO
BgNVBAMTB3ptYXAuaW8wXDANBgkqhkiG9w0BAQEFAANLADBIAkEAwYB4Cbc93JEJ
1frU9mvrXOzJusosN8Nps2OC+6xDAYHXZdI69HTfkDNvxM2mdC8NJerY67Xua+zI
hbenonU9CwIDAQABo08wTTAdBgNVHSUEFjAUBggrBgEFBQcDAQYIKwYBBQUHAwIw
DAYDVR0TAQH/BAIwADAeBgNVHREEFzAVggd6bWFwLmlvggp6bWFwLm9uaW9uMA0G
CSqGSIb3DQEBCwUAA0EAh0MccjpPHFQRd3oG774AYq3ChBak++3zqh/FOokWum1X
EzOCmjAMHZ7aLRrJ20Ql8CRELJYf+oqwvYbOuS+nfg==
-----END CERTIFICATE-----
