Certificate:
    Data:
        Version: 3 (0x2)
        Serial Number: 1337 (0x539)
        Signature Algorithm: sha256WithRSAEncryption
        Issuer: CN = Zmap Onion CA
        Validity
            Not Before: Mar  2 21:25:18 2019 GMT
            Not After : Jul  2 20:25:18 2020 GMT
        Subject: CN = zmap.io
        Subject Public Key Info:
            Public Key Algorithm: rsaEncryption
                RSA Public-Key: (512 bit)
                Modulus:
                    00:e7:df:98:f5:d6:3d:3a:fe:bd:c4:68:39:07:a3:
                    fd:a6:ee:bd:c4:f6:b0:bb:f8:7d:3f:39:b4:8c:a2:
                    5f:c2:90:7b:ee:ca:b7:4d:cc:8d:8f:04:23:d6:40:
                    43:87:b6:dd:77:50:b2:2d:34:b2:7c:f1:c4:bc:cb:
                    19:42:ef:ce:75
                Exponent: 65537 (0x10001)
        X509v3 extensions:
            X509v3 Extended Key Usage: 
                TLS Web Server Authentication, TLS Web Client Authentication
            X509v3 Basic Constraints: critical
                CA:FALSE
            X509v3 Subject Alternative Name: 
                DNS:zmap.io, DNS:zmap.onion
            2.23.140.1.31: 
                0F0D..https://zmap.onion0...`.H.e.....!..I..I..e\..?.>.{{}.G*.bx0q.9.f8\
    Signature Algorithm: sha256WithRSAEncryption
         83:a0:19:b6:97:2a:c0:36:9b:2d:67:d0:15:9e:dd:b1:30:7e:
         ff:9a:ef:5b:59:fe:08:08:7a:23:7d:32:80:28:5b:95:fa:29:
         0b:c7:b4:c9:a0:28:5e:c6:68:3f:4e:69:7d:fa:5e:e1:74:0d:
         d2:95:e0:2e:1b:47:c2:51:49:fc
-----BEGIN CERTIFICATE-----
MIIBwDCCAWqgAwIBAgICBTkwDQYJKoZIhvcNAQELBQAwGDEWMBQGA1UEAxMNWm1h
cCBPbmlvbiBDQTAeFw0xOTAzMDIyMTI1MThaFw0yMDA3MDIyMDI1MThaMBIxEDAO
BgNVBAMTB3ptYXAuaW8wXDANBgkqhkiG9w0BAQEFAANLADBIAkEA59+Y9dY9Ov69
xGg5B6P9pu69xPawu/h9Pzm0jKJfwpB77sq3TcyNjwQj1kBDh7bdd1CyLTSyfPHE
vMsZQu/OdQIDAQABo4GjMIGgMB0GA1UdJQQWMBQGCCsGAQUFBwMBBggrBgEFBQcD
AjAMBgNVHRMBAf8EAjAAMB4GA1UdEQQXMBWCB3ptYXAuaW+CCnptYXAub25pb24w
UQYFZ4EMAR8ESDBGMEQMEmh0dHBzOi8vem1hcC5vbmlvbjALBglghkgBZQMEAgED
IQDHSfWySZyPZVwZsz/5PgN7e32+RyqsYngwcbA5uGY4XDANBgkqhkiG9w0BAQsF
AANBAIOgGbaXKsA2my1n0BWe3bEwfv+a71tZ/ggIeiN9MoAoW5X6KQvHtMmgKF7G
aD9OaX36XuF0DdKV4C4bR8JRSfw=
-----END CERTIFICATE-----
