Certificate:
    Data:
        Version: 3 (0x2)
        Serial Number: 1337 (0x539)
        Signature Algorithm: sha256WithRSAEncryption
        Issuer: CN = Zmap Onion CA
        Validity
            Not Before: Mar  2 21:26:02 2019 GMT
            Not After : Jun  2 20:26:02 2020 GMT
        Subject: CN = zmap.io
        Subject Public Key Info:
            Public Key Algorithm: rsaEncryption
                RSA Public-Key: (512 bit)
                Modulus:
                    00:9f:27:58:6b:8d:be:5c:13:8c:20:48:d3:8c:3e:
                    e9:3a:ca:85:d4:0e:7b:99:a4:c6:d0:8f:10:c3:46:
                    2d:1c:54:27:00:03:58:7b:51:cd:9c:90:af:a4:7d:
                    c6:50:0d:70:0d:d5:6c:48:1c:1d:02:3b:60:35:f3:
                    e1:5f:34:c1:b5
                Exponent: 65537 (0x10001)
        X509v3 extensions:
            X509v3 Extended Key Usage: 
                TLS Web Server Authentication, TLS Web Client Authentication
            X509v3 Basic Constraints: critical
                CA:FALSE
            X509v3 Subject Alternative Name: 
                DNS:zmap.io, DNS:zmap.onion
            2.23.140.1.31: 
                0F0D..https://zmap.onion0...`.H.e.....!..I..I..e\..?.>.{{}.G*.bx0q.9.f8\
    Signature Algorithm: sha256WithRSAEncryption
         35:1c:2f:01:b5:b4:7e:02:b4:c3:ed:43:f6:e9:b4:56:04:1b:
         5c:3e:80:01:41:1b:5f:ea:3d:07:a0:01:86:70:9f:7d:c0:21:
         3f:b5:41:4b:11:dd:87:35:5c:21:13:f1:eb:92:0a:bb:0b:b5:
         a6:17:5e:22:4d:4e:45:20:91:51
-----BEGIN CERTIFICATE-----
MIIBwDCCAWqgAwIBAgICBTkwDQYJKoZIhvcNAQELBQAwGDEWMBQGA1UEAxMNWm1h
cCBPbmlvbiBDQTAeFw0xOTAzMDIyMTI2MDJaFw0yMDA2MDIyMDI2MDJaMBIxEDAO
BgNVBAMTB3ptYXAuaW8wXDANBgkqhkiG9w0BAQEFAANLADBIAkEAnydYa42+XBOM
IEjTjD7pOsqF1A57maTG0I8Qw0YtHFQnAANYe1HNnJCvpH3GUA1wDdVsSBwdAjtg
NfPhXzTBtQIDAQABo4GjMIGgMB0GA1UdJQQWMBQGCCsGAQUFBwMBBggrBgEFBQcD
AjAMBgNVHRMBAf8EAjAAMB4GA1UdEQQXMBWCB3ptYXAuaW+CCnptYXAub25pb24w
UQYFZ4EMAR8ESDBGMEQMEmh0dHBzOi8vem1hcC5vbmlvbjALBglghkgBZQMEAgED
IQDHSfWySZyPZVwZsz/5PgN7e32+RyqsYngwcbA5uGY4XDANBgkqhkiG9w0BAQsF
AANBADUcLwG1tH4CtMPtQ/bptFYEG1w+gAFBG1/qPQegAYZwn33AIT+1QUsR3Yc1
XCET8euSCrsLtaYXXiJNTkUgkVE=
-----END CERTIFICATE-----
