Certificate:
    Data:
        Version: 3 (0x2)
        Serial Number: 1337 (0x539)
        Signature Algorithm: sha256WithRSAEncryption
        Issuer: CN = Zmap Onion CA
        Validity
            Not Before: Mar  2 20:49:33 2019 GMT
            Not After : Mar  2 20:49:33 2020 GMT
        Subject: CN = zmap.io
        Subject Public Key Info:
            Public Key Algorithm: rsaEncryption
                RSA Public-Key: (512 bit)
                Modulus:
                    00:dc:ab:c3:26:e2:24:32:8f:e4:60:ba:a0:d8:57:
                    72:ff:69:eb:58:0c:80:09:09:ce:ab:2d:a8:c1:da:
                    15:1d:c6:b4:68:3a:ff:31:66:cf:42:17:4b:7d:2e:
                    e0:c0:f7:51:3d:0f:07:01:22:7b:e4:5d:ce:76:cc:
                    0c:71:dc:f6:fd
                Exponent: 65537 (0x10001)
        X509v3 extensions:
            X509v3 Extended Key Usage: 
                TLS Web Server Authentication, TLS Web Client Authentication
            X509v3 Basic Constraints: critical
                CA:FALSE
            X509v3 Subject Alternative Name: 
                DNS:zmap.io, DNS:zmap.onion
            2.23.140.1.31: 
                0F0D..https://zmap.onion0...`.H.e...c.!..I..I..e\..?.>.{{}.G*.bx0q.9.f8\
    Signature Algorithm: sha256WithRSAEncryption
         2c:46:3f:0a:ef:55:96:1c:13:a5:da:bc:d6:a1:73:0f:77:d2:
         43:73:30:5e:63:3d:2f:d5:c6:92:40:31:83:b0:a5:ce:94:dc:
         bd:72:ff:71:e3:fd:91:b7:eb:4a:a3:cd:fd:4f:d5:b9:19:43:
         80:70:a9:7b:38:4b:a2:32:16:5a
-----BEGIN CERTIFICATE-----
MIIBwDCCAWqgAwIBAgICBTkwDQYJKoZIhvcNAQELBQAwGDEWMBQGA1UEAxMNWm1h
cCBPbmlvbiBDQTAeFw0xOTAzMDIyMDQ5MzNaFw0yMDAzMDIyMDQ5MzNaMBIxEDAO
BgNVBAMTB3ptYXAuaW8wXDANBgkqhkiG9w0BAQEFAANLADBIAkEA3KvDJuIkMo/k
YLqg2Fdy/2nrWAyACQnOqy2owdoVHca0aDr/MWbPQhdLfS7gwPdRPQ8HASJ75F3O
dswMcdz2/QIDAQABo4GjMIGgMB0GA1UdJQQWMBQGCCsGAQUFBwMBBggrBgEFBQcD
AjAMBgNVHRMBAf8EAjAAMB4GA1UdEQQXMBWCB3ptYXAuaW+CCnptYXAub25pb24w
UQYFZ4EMAR8ESDBGMEQMEmh0dHBzOi8vem1hcC5vbmlvbjALBglghkgBZQMEAmMD
IQDHSfWySZyPZVwZsz/5PgN7e32+RyqsYngwcbA5uGY4XDANBgkqhkiG9w0BAQsF
AANBACxGPwrvVZYcE6XavNahcw930kNzMF5jPS/VxpJAMYOwpc6U3L1y/3Hj/ZG3
60qjzf1P1bkZQ4BwqXs4S6IyFlo=
-----END CERTIFICATE-----
