Certificate:
    Data:
        Version: 3 (0x2)
        Serial Number: 18008675309 (0x4316693ed)
    Signature Algorithm: sha256WithRSAEncryption
        Issuer: C = US, O = Mother Nature, OU = Everything, CN = Mother Nature
        Validity
            Not Before: Jun 29 15:26:47 2016 GMT
            Not After : Sep 10 15:26:47 2016 GMT
        Subject: CN = gov.us
        Subject Public Key Info:
            Public Key Algorithm: rsaEncryption
                Public-Key: (2048 bit)
                Modulus:
                    00:a8:18:d9:bb:01:17:43:f4:fd:92:00:69:5b:97:
                    37:b1:21:ad:c9:e5:ae:f2:5b:e6:25:ab:b8:a4:ba:
                    87:d1:91:60:43:4c:fe:85:56:6f:d2:6c:14:e3:73:
                    df:3f:70:f8:3f:4b:b2:3b:5b:70:7b:b8:39:05:a5:
                    b3:4b:c9:cb:a9:45:92:b0:6d:cd:0c:92:88:df:5d:
                    be:bd:e7:9c:cb:d6:28:c5:9d:db:8a:f0:93:10:be:
                    18:00:52:b9:a5:91:06:67:37:c5:1a:61:29:84:9c:
                    86:65:ce:cc:16:60:f3:9c:8b:23:42:cf:c8:41:17:
                    62:d5:61:8e:07:c9:a9:6c:8e:22:e0:80:51:59:b6:
                    21:2d:0c:0e:ec:c0:ad:c4:07:c3:7c:85:e5:a3:cd:
                    68:f0:dd:ad:f5:cd:c4:05:f2:95:0c:98:ee:9d:ee:
                    61:f6:08:4d:5a:dd:1c:73:72:44:82:9c:a9:d1:1c:
                    fa:5f:e2:c5:2b:bd:e1:63:af:0e:dc:ec:34:6c:a4:
                    ef:8d:ae:65:3c:55:60:0c:5e:48:0c:39:5b:6f:4a:
                    b5:bd:2f:e2:ea:72:97:0b:fa:5a:bf:99:77:a7:ba:
                    2d:5e:aa:3b:0c:5b:06:b1:09:36:40:97:e9:b0:41:
                    4c:67:61:00:48:9b:6b:b3:7c:f8:30:36:4b:92:15:
                    2b:71
                Exponent: 65537 (0x10001)
        X509v3 extensions:
            X509v3 Key Usage: critical
                Digital Signature, Key Encipherment
            X509v3 Extended Key Usage: 
                TLS Web Client Authentication, TLS Web Server Authentication
            X509v3 Basic Constraints: critical
                CA:FALSE
            X509v3 Authority Key Identifier: 
                keyid:01:02:03

            Authority Information Access: 
                OCSP - URI:http://theca.net/ocsp
                CA Issuers - URI:http://theca.net/totallythecert.crt

            X509v3 Certificate Policies: 
                Policy: 2.23.140.1.2.2

            X509v3 Subject Key Identifier: 
                04:03:02:01
            X509v3 Subject Alternative Name: 
                DNS:*.gov.us, DNS:gov.us
    Signature Algorithm: sha256WithRSAEncryption
         a7:9f:3c:62:cc:0e:30:6a:2e:55:f4:8f:e9:ea:e4:20:2c:23:
         28:a6:0c:3b:ed:98:8d:1c:0d:5d:b4:bd:20:cc:b8:3f:07:9b:
         a3:44:e7:39:fd:fc:7d:09:e5:e8:7b:26:07:5e:f3:5b:cf:ea:
         14:b1:7a:b2:85:a1:37:9f:0c:fd:ab:17:d3:40:09:ea:bd:62:
         ed:9a:58:c3:59:4f:e2:4d:dc:c1:26:1b:5d:83:33:b6:11:d0:
         f9:f2:0f:45:8c:ee:eb:25:96:98:49:b9:87:d9:70:3c:02:e8:
         99:27:22:c3:eb:65:1f:b5:6e:00:ee:28:d9:8c:0a:a5:cc:85:
         ce:b5:e9:4b:16:a0:1a:a1:d8:c9:77:88:c0:b0:6e:40:3e:ec:
         bf:14:48:e5:8b:94:8b:8d:12:68:70:1c:96:71:48:bc:7c:7a:
         4b:df:95:90:40:d2:98:ea:da:88:a8:08:32:6f:f4:6c:fd:9b:
         07:ce:67:6e:aa:9c:ad:16:53:5d:c9:f6:7b:47:44:c1:cf:76:
         3e:68:29:b2:8d:65:d4:29:46:97:4e:59:98:9c:ca:e8:ab:08:
         e5:c6:55:31:a1:e6:b9:02:92:2d:fc:dd:b9:2e:85:ef:58:09:
         a7:b0:85:c7:ee:17:e3:48:7f:d5:85:dc:fd:c3:08:f3:6b:bf:
         e9:ff:9e:07
-----BEGIN CERTIFICATE-----
MIID2DCCAsCgAwIBAgIFBDFmk+0wDQYJKoZIhvcNAQELBQAwUjELMAkGA1UEBhMC
VVMxFjAUBgNVBAoTDU1vdGhlciBOYXR1cmUxEzARBgNVBAsTCkV2ZXJ5dGhpbmcx
FjAUBgNVBAMTDU1vdGhlciBOYXR1cmUwHhcNMTYwNjI5MTUyNjQ3WhcNMTYwOTEw
MTUyNjQ3WjARMQ8wDQYDVQQDEwZnb3YudXMwggEiMA0GCSqGSIb3DQEBAQUAA4IB
DwAwggEKAoIBAQCoGNm7ARdD9P2SAGlblzexIa3J5a7yW+Ylq7ikuofRkWBDTP6F
Vm/SbBTjc98/cPg/S7I7W3B7uDkFpbNLycupRZKwbc0MkojfXb6955zL1ijFnduK
8JMQvhgAUrmlkQZnN8UaYSmEnIZlzswWYPOciyNCz8hBF2LVYY4HyalsjiLggFFZ
tiEtDA7swK3EB8N8heWjzWjw3a31zcQF8pUMmO6d7mH2CE1a3RxzckSCnKnRHPpf
4sUrveFjrw7c7DRspO+NrmU8VWAMXkgMOVtvSrW9L+LqcpcL+lq/mXenui1eqjsM
WwaxCTZAl+mwQUxnYQBIm2uzfPgwNkuSFStxAgMBAAGjgfUwgfIwDgYDVR0PAQH/
BAQDAgWgMB0GA1UdJQQWMBQGCCsGAQUFBwMCBggrBgEFBQcDATAMBgNVHRMBAf8E
AjAAMA4GA1UdIwQHMAWAAwECAzBiBggrBgEFBQcBAQRWMFQwIQYIKwYBBQUHMAGG
FWh0dHA6Ly90aGVjYS5uZXQvb2NzcDAvBggrBgEFBQcwAoYjaHR0cDovL3RoZWNh
Lm5ldC90b3RhbGx5dGhlY2VydC5jcnQwEwYDVR0gBAwwCjAIBgZngQwBAgIwDQYD
VR0OBAYEBAQDAgEwGwYDVR0RBBQwEoIIKi5nb3YudXOCBmdvdi51czANBgkqhkiG
9w0BAQsFAAOCAQEAp588YswOMGouVfSP6erkICwjKKYMO+2YjRwNXbS9IMy4Pweb
o0TnOf38fQnl6HsmB17zW8/qFLF6soWhN58M/asX00AJ6r1i7ZpYw1lP4k3cwSYb
XYMzthHQ+fIPRYzu6yWWmEm5h9lwPALomSciw+tlH7VuAO4o2YwKpcyFzrXpSxag
GqHYyXeIwLBuQD7svxRI5YuUi40SaHAclnFIvHx6S9+VkEDSmOraiKgIMm/0bP2b
B85nbqqcrRZTXcn2e0dEwc92Pmgpso1l1ClGl05ZmJzK6KsI5cZVMaHmuQKSLfzd
uS6F71gJp7CFx+4X40h/1YXc/cMI82u/6f+eBw==
-----END CERTIFICATE-----
