Certificate:
    Data:
        Version: 3 (0x2)
        Serial Number: 18008675309 (0x4316693ed)
    Signature Algorithm: sha256WithRSAEncryption
        Issuer: C = US, O = Mother Nature, OU = Everything, CN = Mother Nature
        Validity
            Not Before: Jun 27 23:00:20 2016 GMT
            Not After : Sep  8 23:00:20 2016 GMT
        Subject: C = US, L = Tallahassee, O = Extreme Discord, OU = Chaos, CN = gov.us
        Subject Public Key Info:
            Public Key Algorithm: rsaEncryption
                Public-Key: (2048 bit)
                Modulus:
                    00:b9:e5:c1:fc:7f:4d:41:16:65:c9:1f:ff:d3:3d:
                    d6:93:37:15:6b:af:f3:71:46:2a:3b:d3:2f:3b:45:
                    45:c8:f6:ed:e9:8b:f2:2a:38:5b:2e:c6:45:f2:fe:
                    ef:63:dd:a6:59:8a:cd:f4:7d:85:ef:2f:97:44:5a:
                    28:9d:ba:1d:5a:a2:75:7f:41:f9:46:0c:fd:5b:ef:
                    77:bd:3c:6c:63:13:45:2c:f9:fa:01:00:0b:6e:0c:
                    41:e5:52:0e:47:02:c7:c8:25:8d:df:9a:d3:12:30:
                    89:73:d9:4e:df:98:e1:5a:51:66:3f:91:58:2c:1a:
                    b0:fa:f0:bc:3c:3f:25:e8:c2:c5:0c:a1:e1:6a:26:
                    b1:fe:64:39:9b:5b:31:45:d9:cb:a9:f9:31:38:b6:
                    b3:f7:10:df:12:73:60:78:94:60:66:65:98:78:7a:
                    0a:1e:87:3e:3b:e7:50:9a:22:2b:ba:e0:5d:25:56:
                    2c:60:f2:de:bb:87:20:36:40:8c:d6:0e:b3:14:15:
                    04:59:ff:c1:5b:98:5a:97:32:b9:e5:6e:8c:aa:02:
                    84:0b:60:e0:3a:07:0b:21:0e:b1:03:0c:7f:af:02:
                    e5:3b:af:7b:b9:33:83:2b:45:f2:ed:20:d6:30:b2:
                    a0:5a:a1:30:32:0e:b0:42:fd:3e:61:ec:01:b3:d8:
                    d6:27
                Exponent: 65537 (0x10001)
        X509v3 extensions:
            X509v3 Key Usage: critical
                Digital Signature, Key Encipherment
            X509v3 Extended Key Usage: 
                TLS Web Client Authentication, TLS Web Server Authentication
            X509v3 Basic Constraints: critical
                CA:FALSE
            X509v3 Authority Key Identifier: 
                keyid:01:02:03

            Authority Information Access: 
                OCSP - URI:http://theca.net/ocsp
                CA Issuers - URI:http://theca.net/totallythecert.crt

            X509v3 Certificate Policies: 
                Policy: 2.23.140.1.2.2

            X509v3 Subject Key Identifier: 
                04:03:02:01
            X509v3 Subject Alternative Name: 
                DNS:*.gov.us, DNS:gov.us
    Signature Algorithm: sha256WithRSAEncryption
         2e:cf:c1:d5:a7:f7:7f:8b:1f:98:53:7f:18:3e:18:08:94:c7:
         e3:c2:e8:54:e7:1a:dc:a9:53:4f:ed:55:db:1a:90:ab:53:01:
         72:98:c1:5d:bc:08:ab:ab:5d:22:03:70:ab:cd:fd:0d:56:45:
         78:f8:39:42:f0:d0:f6:62:81:0f:e3:b6:f7:56:5e:72:fb:06:
         df:6e:49:99:74:02:62:9c:90:fd:7f:36:41:37:8b:7d:4d:58:
         38:17:23:f7:27:0a:00:89:c3:fc:5f:7c:45:30:cc:42:e0:c3:
         ca:a4:de:c5:a0:7e:8b:a9:d3:41:db:e8:4f:9d:8b:dc:b9:ac:
         2f:0c:58:c1:61:9e:3b:1a:a9:fb:d6:ad:c7:ea:7f:b0:d3:10:
         8b:35:a4:d6:b1:83:29:e1:16:ee:f4:31:c5:d5:ef:35:f3:5b:
         54:1f:17:65:b6:b1:77:ac:15:c6:9a:7e:c4:90:a0:ee:8f:df:
         f2:af:d7:ae:ec:84:81:5f:04:0a:d9:64:93:b3:06:26:95:fb:
         38:ed:db:68:d5:86:8d:83:2c:62:23:48:d0:5a:9f:f8:ea:e9:
         5a:18:bf:16:c6:ea:c8:f8:3a:d4:4e:9b:9f:ba:ec:df:a4:7d:
         23:b6:63:3d:d8:03:46:34:8c:2a:b5:fc:18:36:1f:75:6c:a2:
         6d:b2:1d:c1
-----BEGIN CERTIFICATE-----
MIIEJTCCAw2gAwIBAgIFBDFmk+0wDQYJKoZIhvcNAQELBQAwUjELMAkGA1UEBhMC
VVMxFjAUBgNVBAoTDU1vdGhlciBOYXR1cmUxEzARBgNVBAsTCkV2ZXJ5dGhpbmcx
FjAUBgNVBAMTDU1vdGhlciBOYXR1cmUwHhcNMTYwNjI3MjMwMDIwWhcNMTYwOTA4
MjMwMDIwWjBeMQswCQYDVQQGEwJVUzEUMBIGA1UEBxMLVGFsbGFoYXNzZWUxGDAW
BgNVBAoTD0V4dHJlbWUgRGlzY29yZDEOMAwGA1UECxMFQ2hhb3MxDzANBgNVBAMT
Bmdvdi51czCCASIwDQYJKoZIhvcNAQEBBQADggEPADCCAQoCggEBALnlwfx/TUEW
Zckf/9M91pM3FWuv83FGKjvTLztFRcj27emL8io4Wy7GRfL+72PdplmKzfR9he8v
l0RaKJ26HVqidX9B+UYM/Vvvd708bGMTRSz5+gEAC24MQeVSDkcCx8gljd+a0xIw
iXPZTt+Y4VpRZj+RWCwasPrwvDw/JejCxQyh4Womsf5kOZtbMUXZy6n5MTi2s/cQ
3xJzYHiUYGZlmHh6Ch6HPjvnUJoiK7rgXSVWLGDy3ruHIDZAjNYOsxQVBFn/wVuY
WpcyueVujKoChAtg4DoHCyEOsQMMf68C5Tuve7kzgytF8u0g1jCyoFqhMDIOsEL9
PmHsAbPY1icCAwEAAaOB9TCB8jAOBgNVHQ8BAf8EBAMCBaAwHQYDVR0lBBYwFAYI
KwYBBQUHAwIGCCsGAQUFBwMBMAwGA1UdEwEB/wQCMAAwDgYDVR0jBAcwBYADAQID
MGIGCCsGAQUFBwEBBFYwVDAhBggrBgEFBQcwAYYVaHR0cDovL3RoZWNhLm5ldC9v
Y3NwMC8GCCsGAQUFBzAChiNodHRwOi8vdGhlY2EubmV0L3RvdGFsbHl0aGVjZXJ0
LmNydDATBgNVHSAEDDAKMAgGBmeBDAECAjANBgNVHQ4EBgQEBAMCATAbBgNVHREE
FDASgggqLmdvdi51c4IGZ292LnVzMA0GCSqGSIb3DQEBCwUAA4IBAQAuz8HVp/d/
ix+YU38YPhgIlMfjwuhU5xrcqVNP7VXbGpCrUwFymMFdvAirq10iA3Crzf0NVkV4
+DlC8ND2YoEP47b3Vl5y+wbfbkmZdAJinJD9fzZBN4t9TVg4FyP3JwoAicP8X3xF
MMxC4MPKpN7FoH6LqdNB2+hPnYvcuawvDFjBYZ47Gqn71q3H6n+w0xCLNaTWsYMp
4Rbu9DHF1e8181tUHxdltrF3rBXGmn7EkKDuj9/yr9eu7ISBXwQK2WSTswYmlfs4
7dto1YaNgyxiI0jQWp/46ulaGL8WxurI+DrUTpufuuzfpH0jtmM92ANGNIwqtfwY
Nh91bKJtsh3B
-----END CERTIFICATE-----
