Certificate:
    Data:
        Version: 3 (0x2)
        Serial Number: 18008675309 (0x4316693ed)
    Signature Algorithm: sha256WithRSAEncryption
        Issuer: C = US, O = Mother Nature, OU = Everything, CN = Mother Nature
        Validity
            Not Before: Jun 30 19:22:53 2016 GMT
            Not After : Sep 11 19:22:53 2016 GMT
        Subject: C = US, O = Extreme Discord, OU = Chaos, L = Tallahassee, ST = FL, street = 3210 Holly Mill Run, postalCode = 30062, CN = gov.us
        Subject Public Key Info:
            Public Key Algorithm: rsaEncryption
                Public-Key: (2048 bit)
                Modulus:
                    00:cb:93:84:74:41:d7:db:93:91:6e:f7:d8:e5:49:
                    4f:b4:8b:e6:52:2b:c8:2b:75:f8:c6:90:46:46:7d:
                    25:b6:13:9a:38:e6:7c:da:9b:30:ea:ac:56:81:b0:
                    38:e9:d0:2a:91:89:72:0a:99:5b:1b:61:94:fb:3b:
                    a0:c4:af:65:7e:a5:cc:08:dc:3a:0a:20:88:13:85:
                    0e:5f:df:f1:f3:2a:bb:36:89:3e:12:84:0f:c1:66:
                    b3:95:0c:8a:01:c2:56:fb:43:af:5f:38:c5:7b:67:
                    ee:43:bc:ae:a2:92:b6:d4:d4:22:b1:3a:7a:80:e0:
                    f9:e3:56:d8:c1:19:99:c6:98:21:75:26:79:3d:b1:
                    75:81:b8:13:dd:6e:62:f5:cb:d4:59:f2:82:e7:ea:
                    1a:cf:36:ab:4c:7a:4d:d2:46:d3:a1:8b:36:28:bb:
                    70:4b:7d:6f:37:2f:ef:10:06:6c:21:84:a5:93:22:
                    85:8e:52:db:65:dc:70:99:30:0d:0b:61:31:d9:ca:
                    8c:76:6c:cd:50:60:86:eb:46:2a:d6:be:55:f1:78:
                    a5:ee:7f:39:ca:2b:c0:d2:a4:c3:28:59:8d:b3:83:
                    4d:ee:bb:f9:ea:1b:b6:5f:ab:9e:3a:17:d0:b8:d6:
                    26:f7:23:64:aa:7c:93:59:fe:59:5e:58:07:18:86:
                    f1:bf
                Exponent: 65537 (0x10001)
        X509v3 extensions:
            X509v3 Key Usage: critical
                Digital Signature, Key Encipherment
            X509v3 Extended Key Usage: 
                TLS Web Client Authentication, TLS Web Server Authentication
            X509v3 Basic Constraints: critical
                CA:FALSE
            X509v3 Authority Key Identifier: 
                keyid:01:02:03

            Authority Information Access: 
                OCSP - URI:http://theca.net/ocsp
                CA Issuers - URI:http://theca.net/totallythecert.crt

            X509v3 Certificate Policies: 
                Policy: 2.23.140.1.2.2

            X509v3 Subject Key Identifier: 
                04:03:02:01
            X509v3 Subject Alternative Name: 
                DNS:*.gov.us, DNS:gov.us
    Signature Algorithm: sha256WithRSAEncryption
         8d:f0:3b:c7:1d:c5:c0:82:a6:ac:9d:76:d0:36:f1:dc:71:99:
         d0:5d:5c:fc:95:90:06:f3:0a:e8:58:e6:19:d3:41:51:55:ed:
         76:09:94:99:78:0b:b4:2c:8f:b8:cd:97:d8:d1:ff:8f:a7:35:
         c8:80:d5:4b:83:06:ec:12:c4:eb:08:6a:0b:05:df:22:85:68:
         44:56:ac:d9:6f:75:71:3c:d3:91:07:4b:a5:c2:af:71:7b:ae:
         bb:0d:e6:19:0c:ec:bf:41:83:cb:ba:1a:2e:31:4f:af:8f:5e:
         8d:0a:b0:2f:5f:6e:b7:dc:6c:ec:75:2d:fa:17:78:ad:86:b4:
         c6:7a:80:aa:24:18:81:37:06:b8:2b:27:1a:f4:d0:cf:0c:1b:
         b8:a2:9d:c7:1f:49:2b:6d:ca:6d:1e:1a:18:97:20:75:0e:03:
         60:53:ee:6e:0f:a5:2a:27:5b:e8:f1:fe:65:2b:fb:11:57:de:
         4d:c8:a3:3f:10:e8:19:07:2c:de:c5:c0:12:0f:36:a8:36:f4:
         87:dc:1d:e3:15:18:9b:04:1a:bb:69:50:3c:54:d6:b9:bd:7d:
         95:45:1c:5f:eb:4c:1f:e6:de:63:2b:44:5a:23:f3:7e:fd:ee:
         28:de:68:15:3b:89:53:6d:a4:52:0a:01:06:56:02:16:e6:62:
         1e:f3:b7:b4
-----BEGIN CERTIFICATE-----
MIIEYTCCA0mgAwIBAgIFBDFmk+0wDQYJKoZIhvcNAQELBQAwUjELMAkGA1UEBhMC
VVMxFjAUBgNVBAoTDU1vdGhlciBOYXR1cmUxEzARBgNVBAsTCkV2ZXJ5dGhpbmcx
FjAUBgNVBAMTDU1vdGhlciBOYXR1cmUwHhcNMTYwNjMwMTkyMjUzWhcNMTYwOTEx
MTkyMjUzWjCBmTELMAkGA1UEBhMCVVMxGDAWBgNVBAoTD0V4dHJlbWUgRGlzY29y
ZDEOMAwGA1UECxMFQ2hhb3MxFDASBgNVBAcTC1RhbGxhaGFzc2VlMQswCQYDVQQI
EwJGTDEcMBoGA1UECRMTMzIxMCBIb2xseSBNaWxsIFJ1bjEOMAwGA1UEERMFMzAw
NjIxDzANBgNVBAMTBmdvdi51czCCASIwDQYJKoZIhvcNAQEBBQADggEPADCCAQoC
ggEBAMuThHRB19uTkW732OVJT7SL5lIryCt1+MaQRkZ9JbYTmjjmfNqbMOqsVoGw
OOnQKpGJcgqZWxthlPs7oMSvZX6lzAjcOgogiBOFDl/f8fMquzaJPhKED8Fms5UM
igHCVvtDr184xXtn7kO8rqKSttTUIrE6eoDg+eNW2MEZmcaYIXUmeT2xdYG4E91u
YvXL1FnygufqGs82q0x6TdJG06GLNii7cEt9bzcv7xAGbCGEpZMihY5S22XccJkw
DQthMdnKjHZszVBghutGKta+VfF4pe5/OcorwNKkwyhZjbODTe67+eobtl+rnjoX
0LjWJvcjZKp8k1n+WV5YBxiG8b8CAwEAAaOB9TCB8jAOBgNVHQ8BAf8EBAMCBaAw
HQYDVR0lBBYwFAYIKwYBBQUHAwIGCCsGAQUFBwMBMAwGA1UdEwEB/wQCMAAwDgYD
VR0jBAcwBYADAQIDMGIGCCsGAQUFBwEBBFYwVDAhBggrBgEFBQcwAYYVaHR0cDov
L3RoZWNhLm5ldC9vY3NwMC8GCCsGAQUFBzAChiNodHRwOi8vdGhlY2EubmV0L3Rv
dGFsbHl0aGVjZXJ0LmNydDATBgNVHSAEDDAKMAgGBmeBDAECAjANBgNVHQ4EBgQE
BAMCATAbBgNVHREEFDASgggqLmdvdi51c4IGZ292LnVzMA0GCSqGSIb3DQEBCwUA
A4IBAQCN8DvHHcXAgqasnXbQNvHccZnQXVz8lZAG8wroWOYZ00FRVe12CZSZeAu0
LI+4zZfY0f+PpzXIgNVLgwbsEsTrCGoLBd8ihWhEVqzZb3VxPNORB0ulwq9xe667
DeYZDOy/QYPLuhouMU+vj16NCrAvX2633GzsdS36F3ithrTGeoCqJBiBNwa4Kyca
9NDPDBu4op3HH0krbcptHhoYlyB1DgNgU+5uD6UqJ1vo8f5lK/sRV95NyKM/EOgZ
ByzexcASDzaoNvSH3B3jFRibBBq7aVA8VNa5vX2VRRxf60wf5t5jK0RaI/N+/e4o
3mgVO4lTbaRSCgEGVgIW5mIe87e0
-----END CERTIFICATE-----
