Certificate:
    Data:
        Version: 3 (0x2)
        Serial Number: 4798 (0x12be)
        Signature Algorithm: sha256WithRSAEncryption
        Issuer: C=DE, ST=Bayern, L=N\xC3\x83\xC2\xBCrnberg, O=Siemens AG, OU=Trustcenter, CN=OliverCA/emailAddress=oliver.stiller@siemens.com
        Validity
            Not Before: Nov 27 16:11:21 2020 GMT
            Not After : Nov 27 16:11:21 2021 GMT
        Subject: O=testconstraints01, CN=testconstraints01
        Subject Public Key Info:
            Public Key Algorithm: rsaEncryption
                RSA Public-Key: (2048 bit)
                Modulus:
                    00:cc:20:af:84:3b:33:08:d9:82:5a:5d:29:29:6a:
                    25:e7:6c:e8:ec:5c:d6:15:28:e8:b0:47:b5:c1:65:
                    30:eb:93:1f:81:06:6e:ac:00:e8:a8:15:53:15:63:
                    f6:44:fa:82:76:a7:c4:f0:82:47:29:2a:af:5c:99:
                    9d:20:32:ad:0f:9f:89:52:33:85:5b:43:e6:94:f0:
                    b2:cc:18:ec:16:99:8e:6b:94:48:16:44:03:df:83:
                    cd:d3:73:a4:b2:cb:e0:99:42:45:90:ec:91:29:0c:
                    47:d2:84:2a:31:27:03:5c:d1:3f:30:96:73:07:11:
                    14:85:21:be:fc:71:d1:f1:2a:01:95:90:d1:e2:88:
                    3a:8a:80:c2:43:d7:2d:e9:4b:b3:0b:03:2b:7a:3d:
                    ef:55:6f:89:f5:45:a7:2a:2d:3e:59:d5:ec:52:a7:
                    01:6d:e4:6e:5c:e4:db:ee:e2:ed:00:07:2e:fd:ed:
                    43:26:cc:5c:8c:72:55:81:ca:bc:c5:52:50:3b:be:
                    5a:2c:e4:2a:f0:5e:e4:70:dd:cb:4f:e7:44:ad:88:
                    63:d6:f7:c9:ea:6a:23:27:57:74:a2:a4:4c:d6:63:
                    0d:7b:ba:e5:fb:df:70:ec:02:c4:ea:d3:c6:58:c6:
                    47:1d:0f:6d:51:4e:0b:b5:69:8b:9d:6c:ca:39:fa:
                    69:53
                Exponent: 65537 (0x10001)
        X509v3 extensions:
            X509v3 Extended Key Usage: 
                Any Extended Key Usage, TLS Web Server Authentication
            X509v3 Key Usage: 
                Digital Signature, Key Encipherment
            X509v3 Name Constraints: 
                Permitted:
                  URI:www.example.com
                Excluded:
                  URI:http://www.example.com/foo/bar.html

    Signature Algorithm: sha256WithRSAEncryption
         80:56:ad:23:49:2a:75:64:f0:54:0e:58:e6:ee:cc:f1:76:61:
         9e:3d:4c:37:ac:2a:5f:9f:1b:c6:d9:91:aa:ad:d8:03:55:64:
         12:29:38:1c:86:eb:c0:84:95:ec:33:0d:3b:d8:1f:56:83:b0:
         c4:89:47:1a:92:f3:81:9a:aa:8a:f7:97:8b:6e:46:a4:9c:42:
         8d:48:97:d9:37:12:87:04:f4:b1:51:9e:c8:c8:6e:f8:83:08:
         4e:2f:0a:54:c3:17:e5:06:18:35:e6:97:2b:3d:b9:51:81:08:
         84:8d:f6:f5:aa:fd:9d:71:24:11:4b:a1:c0:a9:8d:d7:c4:3f:
         f2:c7:1e:0f:91:fc:1d:fb:c9:98:4c:d9:df:90:5f:b5:05:d4:
         e2:71:86:dd:3d:c1:4a:0c:cb:a2:5c:be:59:c1:2a:3e:30:54:
         5b:b3:d3:5f:f6:6b:97:c4:91:f4:95:36:cd:d2:a9:61:37:e6:
         8d:11:8c:9e:de:4b:17:b9:53:1f:5e:28:95:4f:c7:5c:c5:d9:
         89:11:c5:e7:0b:cc:1a:77:9c:46:d3:06:90:0a:f9:12:32:ce:
         b3:21:8f:66:dd:75:01:31:59:a8:9f:49:3f:e4:51:e3:d6:ba:
         be:70:7a:15:6a:d3:e1:e0:67:c2:1f:5b:fb:ff:1c:bb:a0:82:
         78:c1:ed:ed:41:9e:0a:7d:ce:93:4b:c9:24:d1:5f:07:f5:b7:
         49:85:7f:e2:4b:64:7f:77:09:aa:43:9c:9f:84:e4:b5:35:7e:
         fd:1a:6a:d9:f1:0f:c1:dc:f8:b1:4c:b7:92:c7:ff:c3:a3:eb:
         b8:ee:6a:63:64:6e:a0:53:29:26:68:bb:f7:79:49:a6:16:4b:
         be:82:51:7b:3a:4a:05:eb:e1:23:a3:08:72:05:d4:e3:2e:cd:
         5d:6e:b2:89:57:f5:cf:8c:7f:f1:a6:a5:2a:9f:8d:b7:13:77:
         d3:8b:22:d0:48:32:c4:71:15:72:83:b5:ec:a8:fa:a1:60:3d:
         28:41:7d:39:d0:37:fe:fb:3c:c6:f6:7d:21:fb:16:52:5f:8b:
         34:31:59:e8:15:12:55:d3:ec:70:32:db:db:97:4c:29:03:7c:
         d5:fc:46:be:48:8c:e5:1f:77:2c:9d:40:94:5b:e5:f7:d6:aa:
         65:71:71:f1:1a:64:58:85:d7:48:b1:ce:85:25:7f:12:d2:90:
         98:78:a8:b9:42:58:19:28:ed:08:38:35:51:b9:ea:2d:b0:63:
         93:28:50:3e:8c:9b:ea:48:12:40:83:2f:98:f0:4c:f7:19:2b:
         0b:83:49:85:ef:12:0d:30:e4:35:2c:a0:1f:f3:3c:1c:39:33:
         90:c7:d4:82:c4:b5:04:f5
-----BEGIN CERTIFICATE-----
MIIExTCCAq2gAwIBAgICEr4wDQYJKoZIhvcNAQELBQAwgZ0xCzAJBgNVBAYTAkRF
MQ8wDQYDVQQIDAZCYXllcm4xFDASBgNVBAcMC07Dg8K8cm5iZXJnMRMwEQYDVQQK
DApTaWVtZW5zIEFHMRQwEgYDVQQLDAtUcnVzdGNlbnRlcjERMA8GA1UEAwwIT2xp
dmVyQ0ExKTAnBgkqhkiG9w0BCQEWGm9saXZlci5zdGlsbGVyQHNpZW1lbnMuY29t
MB4XDTIwMTEyNzE2MTEyMVoXDTIxMTEyNzE2MTEyMVowODEaMBgGA1UECgwRdGVz
dGNvbnN0cmFpbnRzMDExGjAYBgNVBAMMEXRlc3Rjb25zdHJhaW50czAxMIIBIjAN
BgkqhkiG9w0BAQEFAAOCAQ8AMIIBCgKCAQEAzCCvhDszCNmCWl0pKWol52zo7FzW
FSjosEe1wWUw65MfgQZurADoqBVTFWP2RPqCdqfE8IJHKSqvXJmdIDKtD5+JUjOF
W0PmlPCyzBjsFpmOa5RIFkQD34PN03OkssvgmUJFkOyRKQxH0oQqMScDXNE/MJZz
BxEUhSG+/HHR8SoBlZDR4og6ioDCQ9ct6UuzCwMrej3vVW+J9UWnKi0+WdXsUqcB
beRuXOTb7uLtAAcu/e1DJsxcjHJVgcq8xVJQO75aLOQq8F7kcN3LT+dErYhj1vfJ
6mojJ1d0oqRM1mMNe7rl+99w7ALE6tPGWMZHHQ9tUU4LtWmLnWzKOfppUwIDAQAB
o3MwcTAZBgNVHSUEEjAQBgRVHSUABggrBgEFBQcDATALBgNVHQ8EBAMCBaAwRwYD
VR0eBEAwPqATMBGGD3d3dy5leGFtcGxlLmNvbaEnMCWGI2h0dHA6Ly93d3cuZXhh
bXBsZS5jb20vZm9vL2Jhci5odG1sMA0GCSqGSIb3DQEBCwUAA4ICAQCAVq0jSSp1
ZPBUDljm7szxdmGePUw3rCpfnxvG2ZGqrdgDVWQSKTgchuvAhJXsMw072B9Wg7DE
iUcakvOBmqqK95eLbkaknEKNSJfZNxKHBPSxUZ7IyG74gwhOLwpUwxflBhg15pcr
PblRgQiEjfb1qv2dcSQRS6HAqY3XxD/yxx4Pkfwd+8mYTNnfkF+1BdTicYbdPcFK
DMuiXL5ZwSo+MFRbs9Nf9muXxJH0lTbN0qlhN+aNEYye3ksXuVMfXiiVT8dcxdmJ
EcXnC8wad5xG0waQCvkSMs6zIY9m3XUBMVmon0k/5FHj1rq+cHoVatPh4GfCH1v7
/xy7oIJ4we3tQZ4Kfc6TS8kk0V8H9bdJhX/iS2R/dwmqQ5yfhOS1NX79GmrZ8Q/B
3PixTLeSx//Do+u47mpjZG6gUykmaLv3eUmmFku+glF7OkoF6+EjowhyBdTjLs1d
brKJV/XPjH/xpqUqn423E3fTiyLQSDLEcRVyg7XsqPqhYD0oQX050Df++zzG9n0h
+xZSX4s0MVnoFRJV0+xwMtvbl0wpA3zV/Ea+SIzlH3csnUCUW+X31qplcXHxGmRY
hddIsc6FJX8S0pCYeKi5QlgZKO0IODVRueotsGOTKFA+jJvqSBJAgy+Y8Ez3GSsL
g0mF7xINMOQ1LKAf8zwcOTOQx9SCxLUE9Q==
-----END CERTIFICATE-----
