Certificate:
    Data:
        Version: 3 (0x2)
        Serial Number: 4793 (0x12b9)
        Signature Algorithm: sha256WithRSAEncryption
        Issuer: C=DE, ST=Bayern, L=N\xC3\x83\xC2\xBCrnberg, O=Siemens AG, OU=Trustcenter, CN=OliverCA/emailAddress=oliver.stiller@siemens.com
        Validity
            Not Before: Nov 26 16:06:16 2020 GMT
            Not After : Nov 26 16:06:16 2021 GMT
        Subject: O=testconstraints1, CN=testconstraints1
        Subject Public Key Info:
            Public Key Algorithm: rsaEncryption
                RSA Public-Key: (2048 bit)
                Modulus:
                    00:9b:b2:a0:5c:67:16:99:e0:3e:e4:74:93:e3:7c:
                    5a:37:c9:5a:4b:15:84:b4:2b:c2:fa:de:e9:f0:9f:
                    25:38:ff:e4:6f:58:19:49:60:27:79:1b:22:58:11:
                    63:43:91:28:9e:53:24:ba:29:0a:5c:4e:f4:03:3f:
                    e1:81:83:65:0c:17:1f:56:7a:e1:12:6a:99:e1:a6:
                    6c:4f:e7:f8:79:dd:be:47:27:9d:b5:08:b8:55:65:
                    91:4b:1c:cb:76:7b:40:8a:b2:74:1f:03:a0:de:cd:
                    d5:48:f2:3c:33:cd:66:05:b9:b3:c5:80:68:1c:f2:
                    1d:72:a1:62:f3:bc:34:be:b3:17:71:25:9e:39:e8:
                    5c:ae:4b:1c:46:43:50:23:70:3b:5c:1a:9b:be:e2:
                    b7:d6:67:80:d1:1a:3e:26:fc:e4:27:4a:b6:65:6c:
                    ed:16:1e:01:36:21:6a:72:2c:bd:8b:70:af:c0:d1:
                    83:40:ab:44:5b:76:0b:13:6b:ad:60:ee:ba:f4:69:
                    3b:84:62:65:a5:3f:a1:71:fc:c1:6b:eb:76:d7:79:
                    be:a5:d0:2b:7b:a3:34:c6:b3:e0:f4:e7:58:61:a7:
                    04:ca:ca:ff:43:19:83:9d:44:c1:57:76:bc:9f:d1:
                    37:87:a8:57:71:51:ac:27:2b:ea:9c:f0:69:eb:c8:
                    58:e3
                Exponent: 65537 (0x10001)
        X509v3 extensions:
            X509v3 Extended Key Usage: 
                Any Extended Key Usage, TLS Web Server Authentication
            X509v3 Key Usage: 
                Digital Signature, Key Encipherment
            X509v3 Name Constraints: 
                Permitted:
                  URI:example
                Excluded:
                  URI:example.com

    Signature Algorithm: sha256WithRSAEncryption
         36:81:1e:3d:ba:54:5d:7e:cf:89:bb:21:58:d4:30:52:30:5c:
         61:ef:0f:20:52:61:2e:35:4d:09:d6:ff:dc:51:83:3e:fc:21:
         af:55:00:77:ae:2c:46:23:14:cd:70:cb:1b:c0:86:56:6d:81:
         9e:7d:53:41:27:e0:0a:48:90:13:68:88:74:5c:c0:fc:a3:fe:
         a3:f7:84:e8:9f:3d:2e:1c:bc:6a:8e:f2:3f:b3:ce:84:06:05:
         4d:81:c4:03:73:55:db:78:aa:48:a2:5b:d3:c8:a7:e8:0b:1d:
         96:34:85:00:8f:4a:81:e6:ed:9b:c4:28:74:75:ce:6c:d4:ff:
         70:5d:f4:b8:a9:a8:1a:35:09:04:80:35:ec:cc:e7:1d:47:72:
         c2:8a:0c:4c:17:2c:10:f5:73:a7:84:3a:0f:92:85:49:06:25:
         01:e3:a5:7c:6a:f4:ef:f6:ae:48:39:86:8a:e9:a4:c9:47:b6:
         e8:e2:41:a1:33:5f:a9:19:05:38:fb:91:48:f7:66:6b:4e:cb:
         fd:05:bf:cf:93:dd:af:85:b0:c8:21:b9:59:3d:57:13:87:a8:
         de:81:ab:64:7a:79:f4:a8:dd:bf:19:17:7f:74:58:2f:9b:ac:
         14:f7:df:69:32:c6:5d:0c:7d:0b:86:14:67:7f:cd:bd:36:c0:
         be:87:d1:71:49:86:bf:15:dd:de:67:7a:fe:60:e7:2d:1e:13:
         e0:b2:3a:0e:09:99:6b:68:b1:92:78:02:74:5a:b0:29:76:c7:
         7b:6a:ff:fb:71:0a:3d:e3:8b:1e:a0:bc:fd:36:ee:dc:ad:0c:
         c4:52:5a:fb:b9:1e:45:07:89:dc:f0:54:48:c8:75:a4:4d:b8:
         1d:50:6e:a2:aa:b1:d3:2b:01:53:3b:db:02:f5:02:6a:e8:c5:
         b4:f1:3d:06:b2:17:6d:97:cd:2e:bb:a3:a8:30:c3:48:58:64:
         2f:89:ae:e3:5c:68:ec:c8:e2:c0:bc:51:df:8b:d6:e3:fe:bd:
         7e:42:1c:f3:be:2f:53:87:78:4e:ad:b7:ed:af:01:13:be:1e:
         cd:75:5f:72:e8:c3:09:86:75:b0:f9:a7:70:f2:87:8f:a4:23:
         7f:7e:62:c8:44:4b:cf:8c:1a:08:ad:54:8b:9b:4b:c4:ff:0b:
         8e:14:0b:6e:69:51:ff:db:27:59:1f:e1:42:1a:12:73:ff:17:
         48:1a:50:bf:9b:3f:f8:f6:23:63:cd:65:3a:c7:4b:d7:bc:f4:
         41:b5:40:e5:2a:13:e4:76:4d:8f:0c:95:e1:d7:89:33:f4:c9:
         c9:67:17:e2:90:77:5e:cb:29:0f:a3:db:d4:8f:bf:17:ba:b9:
         8c:d6:4d:22:fe:7c:c4:50
-----BEGIN CERTIFICATE-----
MIIEozCCAougAwIBAgICErkwDQYJKoZIhvcNAQELBQAwgZ0xCzAJBgNVBAYTAkRF
MQ8wDQYDVQQIDAZCYXllcm4xFDASBgNVBAcMC07Dg8K8cm5iZXJnMRMwEQYDVQQK
DApTaWVtZW5zIEFHMRQwEgYDVQQLDAtUcnVzdGNlbnRlcjERMA8GA1UEAwwIT2xp
dmVyQ0ExKTAnBgkqhkiG9w0BCQEWGm9saXZlci5zdGlsbGVyQHNpZW1lbnMuY29t
MB4XDTIwMTEyNjE2MDYxNloXDTIxMTEyNjE2MDYxNlowNjEZMBcGA1UECgwQdGVz
dGNvbnN0cmFpbnRzMTEZMBcGA1UEAwwQdGVzdGNvbnN0cmFpbnRzMTCCASIwDQYJ
KoZIhvcNAQEBBQADggEPADCCAQoCggEBAJuyoFxnFpngPuR0k+N8WjfJWksVhLQr
wvre6fCfJTj/5G9YGUlgJ3kbIlgRY0ORKJ5TJLopClxO9AM/4YGDZQwXH1Z64RJq
meGmbE/n+HndvkcnnbUIuFVlkUscy3Z7QIqydB8DoN7N1UjyPDPNZgW5s8WAaBzy
HXKhYvO8NL6zF3ElnjnoXK5LHEZDUCNwO1wam77it9ZngNEaPib85CdKtmVs7RYe
ATYhanIsvYtwr8DRg0CrRFt2CxNrrWDuuvRpO4RiZaU/oXH8wWvrdtd5vqXQK3uj
NMaz4PTnWGGnBMrK/0MZg51EwVd2vJ/RN4eoV3FRrCcr6pzwaevIWOMCAwEAAaNT
MFEwGQYDVR0lBBIwEAYEVR0lAAYIKwYBBQUHAwEwCwYDVR0PBAQDAgWgMCcGA1Ud
HgQgMB6gCzAJhgdleGFtcGxloQ8wDYYLZXhhbXBsZS5jb20wDQYJKoZIhvcNAQEL
BQADggIBADaBHj26VF1+z4m7IVjUMFIwXGHvDyBSYS41TQnW/9xRgz78Ia9VAHeu
LEYjFM1wyxvAhlZtgZ59U0En4ApIkBNoiHRcwPyj/qP3hOifPS4cvGqO8j+zzoQG
BU2BxANzVdt4qkiiW9PIp+gLHZY0hQCPSoHm7ZvEKHR1zmzU/3Bd9LipqBo1CQSA
NezM5x1HcsKKDEwXLBD1c6eEOg+ShUkGJQHjpXxq9O/2rkg5horppMlHtujiQaEz
X6kZBTj7kUj3ZmtOy/0Fv8+T3a+FsMghuVk9VxOHqN6Bq2R6efSo3b8ZF390WC+b
rBT332kyxl0MfQuGFGd/zb02wL6H0XFJhr8V3d5nev5g5y0eE+CyOg4JmWtosZJ4
AnRasCl2x3tq//txCj3jix6gvP027tytDMRSWvu5HkUHidzwVEjIdaRNuB1QbqKq
sdMrAVM72wL1AmroxbTxPQayF22XzS67o6gww0hYZC+JruNcaOzI4sC8Ud+L1uP+
vX5CHPO+L1OHeE6tt+2vARO+Hs11X3LowwmGdbD5p3Dyh4+kI39+YshES8+MGgit
VIubS8T/C44UC25pUf/bJ1kf4UIaEnP/F0gaUL+bP/j2I2PNZTrHS9e89EG1QOUq
E+R2TY8MleHXiTP0yclnF+KQd17LKQ+j29SPvxe6uYzWTSL+fMRQ
-----END CERTIFICATE-----
