Certificate:
    Data:
        Version: 3 (0x2)
        Serial Number: 18008675984 (0x431669690)
    Signature Algorithm: sha256WithRSAEncryption
        Issuer: C = US, O = Mother Nature, OU = Everything, CN = Mother Nature
        Validity
            Not Before: Jul 13 16:30:00 2016 GMT
            Not After : Sep 25 16:30:00 2016 GMT
        Subject: C = US, ST = FL, L = Tallahassee, street = 3210 Holly Mill Run, postalCode = 30062, O = Extreme Discord, OU = Chaos, CN = gov.us
        Subject Public Key Info:
            Public Key Algorithm: rsaEncryption
                Public-Key: (2048 bit)
                Modulus:
                    00:d0:5d:6b:bd:52:a7:07:44:5d:c0:9f:3f:41:6f:
                    02:27:23:00:a3:55:b4:f7:75:0a:ab:c6:96:c0:80:
                    8f:37:fa:8c:2f:8d:aa:f2:11:4e:fb:60:e1:e2:16:
                    6b:a3:c5:89:d3:7b:86:4c:4c:69:70:96:59:77:08:
                    d6:4f:51:94:97:2d:22:5e:37:58:17:15:6c:c4:45:
                    c8:9b:2c:12:40:f4:e9:71:4b:eb:69:4f:10:5f:c6:
                    ec:21:c7:d2:ec:c2:c1:87:ab:19:e3:ae:16:c7:46:
                    5e:c3:60:57:78:52:13:8c:08:96:09:65:b4:b2:41:
                    34:81:be:27:fd:cf:3b:96:90:ff:73:16:c5:94:3d:
                    25:51:bd:b3:b9:95:c2:c7:a5:d3:c3:66:8f:05:48:
                    a7:40:38:48:86:4e:6e:c6:4e:14:64:bf:1c:ec:15:
                    4c:8c:7f:34:05:86:5f:f1:4f:7b:ec:a5:33:d9:34:
                    2c:19:3a:63:d8:9a:4e:8b:fc:2e:63:13:b7:9b:ad:
                    85:56:00:28:61:71:7e:6e:a6:91:1c:b4:2f:f4:be:
                    f5:5b:d0:12:25:65:52:fb:ee:46:fa:f5:ba:a1:e9:
                    e3:83:ab:2f:ff:49:58:c0:d1:25:d3:74:0b:90:d5:
                    88:c4:ee:f2:70:04:b4:74:37:17:b5:c0:ac:19:1a:
                    9f:d3
                Exponent: 65537 (0x10001)
        X509v3 extensions:
            X509v3 Key Usage: critical
                Digital Signature, Key Encipherment, Certificate Sign
            X509v3 Extended Key Usage: 
                TLS Web Client Authentication, TLS Web Server Authentication
            X509v3 Basic Constraints: critical
                CA:TRUE
            Authority Information Access: 
                OCSP - URI:http://theca.net/ocsp
                CA Issuers - URI:http://theca.net/totallythecert.crt

            X509v3 Certificate Policies: 
                Policy: 1.3.6.1.5.5.7.13.1
                Policy: 2.23.140.1.2.2

            X509v3 Subject Key Identifier: 
                04:03:02:01
            X509v3 Subject Alternative Name: 
                DNS:*.gov.us, DNS:gov.us
            X509v3 Issuer Alternative Name: 
                DNS:allthethings.net, DNS:allthemthings.net, DNS:theca.net
            X509v3 Authority Key Identifier: 
                keyid:01:02:03:04
                serial:1C:BD:7D:87:57

            X509v3 Freshest CRL: 

                Full Name:
                  URI:http://crl.allthemthings.net/sfig2s1-17.crl

            X509v3 Policy Mappings: critical
                1.3.6.1.5.5.7.13.1:1.3.6.1.5.5.7.13.2, 2.23.140.1.2.2:1.3.6.1.5.5.7.13.3
            X509v3 Policy Constraints: critical
                0.
    Signature Algorithm: sha256WithRSAEncryption
         1e:8b:a4:d2:4e:0d:93:0a:39:f0:2a:4c:59:dc:17:32:59:d3:
         79:ad:f9:e9:d2:ac:f1:d7:ae:f2:fe:a9:50:6e:57:8d:fe:c3:
         ad:5a:00:a1:4f:78:4c:6b:96:8c:b4:b3:0b:b4:da:fb:e2:0e:
         af:48:e5:e4:d6:dd:a0:4d:3e:37:e3:53:c8:ab:69:7d:e9:63:
         78:3e:f9:d0:f6:f3:da:e0:18:87:25:48:dc:45:a3:e3:d5:60:
         19:3b:b9:83:8a:40:15:7c:76:d9:c8:39:00:f3:f6:54:23:e8:
         a2:25:f3:1a:9c:e0:c3:4c:55:9a:17:a6:06:1a:7b:34:93:ed:
         90:ea:c8:c5:10:be:32:88:fd:2d:9c:e7:c8:90:dd:40:48:72:
         dd:a6:db:a0:7a:b3:8d:21:4c:45:02:5c:ff:f3:e7:68:6b:1b:
         dc:81:35:4f:09:b8:2f:da:a4:c2:4d:e5:ba:97:2e:08:5c:1f:
         3d:d9:c6:be:59:18:c7:8a:71:3d:dc:39:80:2e:b8:e3:7c:49:
         01:b1:79:97:de:2e:32:e6:f8:a9:91:f7:ad:c6:36:db:05:5b:
         6c:ce:a1:6b:af:56:ef:23:09:13:19:af:2f:6a:a2:50:70:84:
         43:43:64:05:a8:77:9b:24:71:72:ce:5d:50:c2:1a:f2:57:e3:
         7c:a9:f2:8e
-----BEGIN CERTIFICATE-----
MIIFOTCCBCGgAwIBAgIFBDFmlpAwDQYJKoZIhvcNAQELBQAwUjELMAkGA1UEBhMC
VVMxFjAUBgNVBAoTDU1vdGhlciBOYXR1cmUxEzARBgNVBAsTCkV2ZXJ5dGhpbmcx
FjAUBgNVBAMTDU1vdGhlciBOYXR1cmUwHhcNMTYwNzEzMTYzMDAwWhcNMTYwOTI1
MTYzMDAwWjCBmTELMAkGA1UEBhMCVVMxCzAJBgNVBAgTAkZMMRQwEgYDVQQHEwtU
YWxsYWhhc3NlZTEcMBoGA1UECRMTMzIxMCBIb2xseSBNaWxsIFJ1bjEOMAwGA1UE
ERMFMzAwNjIxGDAWBgNVBAoTD0V4dHJlbWUgRGlzY29yZDEOMAwGA1UECxMFQ2hh
b3MxDzANBgNVBAMTBmdvdi51czCCASIwDQYJKoZIhvcNAQEBBQADggEPADCCAQoC
ggEBANBda71SpwdEXcCfP0FvAicjAKNVtPd1CqvGlsCAjzf6jC+NqvIRTvtg4eIW
a6PFidN7hkxMaXCWWXcI1k9RlJctIl43WBcVbMRFyJssEkD06XFL62lPEF/G7CHH
0uzCwYerGeOuFsdGXsNgV3hSE4wIlglltLJBNIG+J/3PO5aQ/3MWxZQ9JVG9s7mV
wsel08NmjwVIp0A4SIZObsZOFGS/HOwVTIx/NAWGX/FPe+ylM9k0LBk6Y9iaTov8
LmMTt5uthVYAKGFxfm6mkRy0L/S+9VvQEiVlUvvuRvr1uqHp44OrL/9JWMDRJdN0
C5DViMTu8nAEtHQ3F7XArBkan9MCAwEAAaOCAcwwggHIMA4GA1UdDwEB/wQEAwIC
pDAdBgNVHSUEFjAUBggrBgEFBQcDAgYIKwYBBQUHAwEwDwYDVR0TAQH/BAUwAwEB
/zBiBggrBgEFBQcBAQRWMFQwIQYIKwYBBQUHMAGGFWh0dHA6Ly90aGVjYS5uZXQv
b2NzcDAvBggrBgEFBQcwAoYjaHR0cDovL3RoZWNhLm5ldC90b3RhbGx5dGhlY2Vy
dC5jcnQwHwYDVR0gBBgwFjAKBggrBgEFBQcNATAIBgZngQwBAgIwDQYDVR0OBAYE
BAQDAgEwGwYDVR0RBBQwEoIIKi5nb3YudXOCBmdvdi51czA5BgNVHRIEMjAwghBh
bGx0aGV0aGluZ3MubmV0ghFhbGx0aGVtdGhpbmdzLm5ldIIJdGhlY2EubmV0MBYG
A1UdIwQPMA2ABAECAwSCBRy9fYdXMDwGA1UdLgQ1MDMwMaAvoC2GK2h0dHA6Ly9j
cmwuYWxsdGhlbXRoaW5ncy5uZXQvc2ZpZzJzMS0xNy5jcmwwNgYDVR0hAQH/BCww
KjAUBggrBgEFBQcNAQYIKwYBBQUHDQIwEgYGZ4EMAQICBggrBgEFBQcNAzAMBgNV
HSQBAf8EAjAAMA0GCSqGSIb3DQEBCwUAA4IBAQAei6TSTg2TCjnwKkxZ3BcyWdN5
rfnp0qzx167y/qlQbleN/sOtWgChT3hMa5aMtLMLtNr74g6vSOXk1t2gTT4341PI
q2l96WN4PvnQ9vPa4BiHJUjcRaPj1WAZO7mDikAVfHbZyDkA8/ZUI+iiJfManODD
TFWaF6YGGns0k+2Q6sjFEL4yiP0tnOfIkN1ASHLdptugerONIUxFAlz/8+doaxvc
gTVPCbgv2qTCTeW6ly4IXB892ca+WRjHinE93DmALrjjfEkBsXmX3i4y5vipkfet
xjbbBVtszqFrr1bvIwkTGa8vaqJQcIRDQ2QFqHebJHFyzl1QwhryV+N8qfKO
-----END CERTIFICATE-----
