Certificate:
    Data:
        Version: 3 (0x2)
        Serial Number:
            09:68:4b:c8:c3:e3:6a:6e:4c:19:16:9a:70
        Signature Algorithm: sha256WithRSAEncryption
        Issuer: CN = Lint Sub-CA, OU = Test, O = MTG, C = DE
        Validity
            Not Before: Nov 21 03:21:33 2018 GMT
            Not After : Nov 21 03:21:33 2048 GMT
        Subject: CN = www.example.com, OU = Test, O = MTG, L = Darmstadt, ST = Hessen, C = DE
        Subject Public Key Info:
            Public Key Algorithm: rsaEncryption
                RSA Public-Key: (2048 bit)
                Modulus:
                    00:b9:2b:a6:b1:95:81:d6:86:3e:f3:b4:8a:49:f1:
                    4b:ad:af:ba:f1:5f:87:a0:ff:ec:84:f0:f3:62:90:
                    52:2d:1e:4e:a7:a7:a8:08:2d:ea:34:2e:5c:62:e7:
                    72:6f:1b:e5:87:8f:85:79:31:be:c3:c2:11:2c:44:
                    8a:20:2f:ca:fb:53:19:78:69:c9:18:3a:cc:49:1c:
                    18:e0:e1:67:af:c1:45:1b:f0:70:ce:9c:cd:76:c1:
                    d1:0a:c1:9e:c1:4c:5c:4b:d0:b4:3c:c3:ad:20:3a:
                    7b:c2:da:eb:d8:d4:8b:93:b0:46:34:44:08:21:68:
                    28:3e:5e:c9:ba:96:f8:9e:01:53:30:b6:4d:34:47:
                    c1:9c:80:df:ce:e0:72:a9:56:4b:6b:a4:de:30:2b:
                    fd:97:33:c8:b9:7f:b2:c7:54:c7:88:4c:f4:52:9c:
                    cd:a1:b2:bd:f1:f4:5c:4d:04:82:af:e9:6b:6d:d3:
                    0e:ed:a9:37:63:da:6b:54:f3:96:67:b1:b9:78:c1:
                    57:9f:53:17:c2:91:1b:5f:7e:ee:16:4d:8b:2a:fc:
                    d5:f8:88:56:ef:01:78:fd:fe:4f:1b:7d:e0:57:b4:
                    5a:78:e4:e7:cc:93:03:e2:b9:94:ed:38:c7:2e:cd:
                    e2:e8:15:29:4a:5d:9e:3f:c0:7c:5b:4b:02:fc:b0:
                    df:17
                Exponent: 65537 (0x10001)
        X509v3 extensions:
            X509v3 Authority Key Identifier: 
                keyid:E2:0F:66:4C:20:2C:78:21:2A:8F:29:DB:F9:99:F6:00:86:C4:AF:E1

            X509v3 Subject Key Identifier: 
                AD:FB:9F:0F:3F:1B:CD:9D:8A:5B:13:92:B4:4A:F0:26:DE:3E:00:04
            X509v3 Key Usage: critical
                Digital Signature, Key Encipherment
            X509v3 Basic Constraints: critical
                CA:FALSE
            X509v3 Subject Alternative Name: 
                DNS:www.example.com
            Authority Information Access: 
                CA Issuers - URI:http://ca.example.com/ca.crt
                OCSP - URI:http://ocsp.example.com/ocsp

            X509v3 Certificate Policies: 
                Policy: 1.2.3.4.5

            X509v3 Extended Key Usage: 
                TLS Web Server Authentication, TLS Web Client Authentication
            qcStatements: 
                0w0......F..0V.....F..0L0$..http://example.com/en/test.pdf..n30$..http://example.com/de/test.pdf..de0......F..0......F...
    Signature Algorithm: sha256WithRSAEncryption
         25:8f:76:e6:21:9e:03:8c:6b:8b:08:9b:b8:00:78:d8:d1:96:
         50:2e:ef:20:2e:d2:64:c8:21:36:b3:f7:3e:84:36:da:52:a1:
         2f:f3:4f:83:83:a7:bd:a4:80:32:55:40:4b:5f:f1:6a:de:cf:
         fe:03:a9:3f:27:e1:6a:45:6c:1c:c4:0a:d5:f3:1f:d9:99:23:
         4f:80:91:e6:97:90:3c:22:0f:c4:c7:08:e1:53:8c:7e:55:91:
         3d:5d:e4:d2:57:49:f5:e9:36:a9:02:80:cd:f2:9b:42:06:e6:
         66:6c:38:f7:ed:02:2c:ea:e6:c9:9b:a0:4f:07:62:45:b2:5e:
         ef:81:d8:f2:87:b3:b7:ed:60:63:6c:8f:5d:e3:95:37:59:4e:
         da:05:7b:37:10:32:70:fe:aa:14:22:cc:d9:9f:b4:0e:93:3b:
         fc:52:e8:1b:e5:ea:93:f9:aa:b8:82:f4:14:f0:11:ab:95:45:
         d7:77:7a:2a:5d:6a:0e:03:91:1d:3c:07:9f:f4:7c:21:30:44:
         22:c1:78:33:bc:3b:f7:8e:b2:90:41:06:fe:4c:14:eb:d2:3e:
         73:41:2e:93:ce:de:1e:77:ca:d3:27:a9:44:7d:27:8a:16:94:
         e6:66:ac:15:3c:9e:33:fa:6f:bd:eb:00:41:73:fc:a2:2f:ad:
         27:80:84:4b
-----BEGIN CERTIFICATE-----
MIIEzjCCA7agAwIBAgINCWhLyMPjam5MGRaacDANBgkqhkiG9w0BAQsFADBAMRQw
EgYDVQQDDAtMaW50IFN1Yi1DQTENMAsGA1UECwwEVGVzdDEMMAoGA1UECgwDTVRH
MQswCQYDVQQGEwJERTAeFw0xODExMjEwMzIxMzNaFw00ODExMjEwMzIxMzNaMGkx
GDAWBgNVBAMMD3d3dy5leGFtcGxlLmNvbTENMAsGA1UECwwEVGVzdDEMMAoGA1UE
CgwDTVRHMRIwEAYDVQQHDAlEYXJtc3RhZHQxDzANBgNVBAgMBkhlc3NlbjELMAkG
A1UEBhMCREUwggEiMA0GCSqGSIb3DQEBAQUAA4IBDwAwggEKAoIBAQC5K6axlYHW
hj7ztIpJ8Uutr7rxX4eg/+yE8PNikFItHk6np6gILeo0Llxi53JvG+WHj4V5Mb7D
whEsRIogL8r7Uxl4ackYOsxJHBjg4WevwUUb8HDOnM12wdEKwZ7BTFxL0LQ8w60g
OnvC2uvY1IuTsEY0RAghaCg+Xsm6lvieAVMwtk00R8GcgN/O4HKpVktrpN4wK/2X
M8i5f7LHVMeITPRSnM2hsr3x9FxNBIKv6Wtt0w7tqTdj2mtU85Znsbl4wVefUxfC
kRtffu4WTYsq/NX4iFbvAXj9/k8bfeBXtFp45OfMkwPiuZTtOMcuzeLoFSlKXZ4/
wHxbSwL8sN8XAgMBAAGjggGcMIIBmDAfBgNVHSMEGDAWgBTiD2ZMICx4ISqPKdv5
mfYAhsSv4TAdBgNVHQ4EFgQUrfufDz8bzZ2KWxOStErwJt4+AAQwDgYDVR0PAQH/
BAQDAgWgMAwGA1UdEwEB/wQCMAAwGgYDVR0RBBMwEYIPd3d3LmV4YW1wbGUuY29t
MGIGCCsGAQUFBwEBBFYwVDAoBggrBgEFBQcwAoYcaHR0cDovL2NhLmV4YW1wbGUu
Y29tL2NhLmNydDAoBggrBgEFBQcwAYYcaHR0cDovL29jc3AuZXhhbXBsZS5jb20v
b2NzcDARBgNVHSAECjAIMAYGBCoDBAUwHQYDVR0lBBYwFAYIKwYBBQUHAwEGCCsG
AQUFBwMCMIGFBggrBgEFBQcBAwR5MHcwCAYGBACORgEBMFYGBgQAjkYBBTBMMCQW
Hmh0dHA6Ly9leGFtcGxlLmNvbS9lbi90ZXN0LnBkZhMCbjMwJBYeaHR0cDovL2V4
YW1wbGUuY29tL2RlL3Rlc3QucGRmEwJkZTATBgYEAI5GAQYwCQYHBACORgEGAzAN
BgkqhkiG9w0BAQsFAAOCAQEAJY925iGeA4xriwibuAB42NGWUC7vIC7SZMghNrP3
PoQ22lKhL/NPg4OnvaSAMlVAS1/xat7P/gOpPyfhakVsHMQK1fMf2ZkjT4CR5peQ
PCIPxMcI4VOMflWRPV3k0ldJ9ek2qQKAzfKbQgbmZmw49+0CLOrmyZugTwdiRbJe
74HY8oezt+1gY2yPXeOVN1lO2gV7NxAycP6qFCLM2Z+0DpM7/FLoG+Xqk/mquIL0
FPARq5VF13d6Kl1qDgORHTwHn/R8ITBEIsF4M7w7946ykEEG/kwU69I+c0Euk87e
HnfK0yepRH0nihaU5masFTyeM/pvvesAQXP8oi+tJ4CESw==
-----END CERTIFICATE-----
