Certificate:
    Data:
        Version: 3 (0x2)
        Serial Number:
            04:5e:59:81:f4:6c:54:e6:d0:07:64:3f:83
        Signature Algorithm: sha256WithRSAEncryption
        Issuer: CN = Lint Sub-CA, OU = Test, O = MTG, C = DE
        Validity
            Not Before: Nov 21 03:21:32 2018 GMT
            Not After : Nov 21 03:21:32 2048 GMT
        Subject: CN = www.example.com, OU = Test, O = MTG, L = Darmstadt, ST = Hessen, C = DE
        Subject Public Key Info:
            Public Key Algorithm: rsaEncryption
                RSA Public-Key: (2048 bit)
                Modulus:
                    00:99:3d:f7:35:79:33:2b:77:56:27:2e:24:b6:2d:
                    ec:0d:04:b2:de:07:5c:07:c3:9c:4d:63:0a:4f:9a:
                    6e:1c:a7:b0:1d:78:f7:38:6f:78:74:ff:f1:de:a8:
                    75:22:af:a3:43:70:a5:fe:c2:ce:e1:61:75:a9:f3:
                    63:d6:d7:9e:fc:f3:61:bc:90:dd:67:c1:47:27:50:
                    8d:0d:17:b4:89:c2:2d:84:f6:71:11:f6:7f:a5:13:
                    2c:bb:ab:63:27:4a:d1:a6:fb:80:a4:4d:50:4b:50:
                    34:c1:cc:80:25:c9:cb:a7:4e:8d:81:d9:07:04:a5:
                    7d:16:f9:9a:55:ac:b6:f3:d4:38:fc:99:34:01:b7:
                    16:a1:a6:62:2f:d7:3f:3b:e2:24:7c:1e:73:bf:59:
                    2d:51:b8:69:3c:fc:9d:d3:3b:1a:98:cc:4d:79:3e:
                    98:67:df:51:66:54:77:b3:e1:a3:75:3a:57:11:65:
                    cf:6c:c5:71:9c:ca:58:43:ea:68:48:c4:56:aa:ed:
                    e0:f9:6d:d7:f9:f7:e0:34:9a:44:18:3a:16:2a:8d:
                    b1:78:d6:8a:ab:aa:93:55:35:68:bf:1f:94:20:bd:
                    1b:03:bc:e1:df:29:fc:7b:aa:c2:1b:55:1c:08:5f:
                    88:4c:b8:2c:51:1d:c8:c0:45:6d:c3:c5:1f:db:bc:
                    f9:3b
                Exponent: 65537 (0x10001)
        X509v3 extensions:
            X509v3 Authority Key Identifier: 
                keyid:E2:0F:66:4C:20:2C:78:21:2A:8F:29:DB:F9:99:F6:00:86:C4:AF:E1

            X509v3 Subject Key Identifier: 
                3C:66:67:01:57:A1:DC:46:8C:3D:42:6D:23:94:B5:6E:FF:AD:93:1F
            X509v3 Key Usage: critical
                Digital Signature, Key Encipherment
            X509v3 Basic Constraints: critical
                CA:FALSE
            X509v3 Subject Alternative Name: 
                DNS:www.example.com
            Authority Information Access: 
                CA Issuers - URI:http://ca.example.com/ca.crt
                OCSP - URI:http://ocsp.example.com/ocsp

            X509v3 Certificate Policies: 
                Policy: 1.2.3.4.5

            X509v3 Extended Key Usage: 
                TLS Web Server Authentication, TLS Web Client Authentication
            qcStatements: 
                0.0......F..0......F..0......F...
    Signature Algorithm: sha256WithRSAEncryption
         72:79:f7:87:ff:b3:4b:fd:27:9b:1d:24:37:77:3c:75:c9:e7:
         bf:8e:f9:ed:7a:66:92:40:98:91:d5:99:a2:5a:f8:a6:28:1a:
         71:44:88:9a:7c:3c:cb:c3:d4:13:6e:05:18:d5:b6:0f:6d:82:
         84:04:67:2d:4d:b2:54:de:fd:46:3e:2f:1e:e8:3b:22:1e:e4:
         72:66:67:82:f7:3b:07:25:bb:b8:2d:61:b3:e7:21:0e:f0:f6:
         1f:b5:e3:2a:88:32:bc:30:db:a9:20:20:91:6c:4d:28:d0:92:
         0b:3f:b3:69:9f:e5:6c:24:e6:41:ed:a4:3a:75:0d:92:1b:e4:
         5c:eb:17:9b:e8:ea:d4:af:61:22:08:95:24:df:30:35:99:15:
         48:29:5b:c8:da:d5:c5:c4:b7:18:74:eb:b6:a7:63:f5:c0:60:
         3d:ff:d1:7b:a8:7f:c4:7b:2d:c4:5f:b7:0d:60:8c:4c:4e:92:
         ec:93:3a:25:46:77:3f:b1:63:e7:2b:17:d8:dc:44:dc:72:ff:
         da:40:9d:3f:f0:98:69:19:d9:26:e7:73:5e:f9:34:e7:5e:3c:
         bb:d3:98:50:f8:9d:56:b5:d1:d8:39:15:71:70:a4:3e:00:a1:
         20:2a:3c:62:24:97:c9:6e:82:25:d3:9d:d7:13:bd:6a:e8:a2:
         97:71:ba:8f
-----BEGIN CERTIFICATE-----
MIIEdTCCA12gAwIBAgINBF5ZgfRsVObQB2Q/gzANBgkqhkiG9w0BAQsFADBAMRQw
EgYDVQQDDAtMaW50IFN1Yi1DQTENMAsGA1UECwwEVGVzdDEMMAoGA1UECgwDTVRH
MQswCQYDVQQGEwJERTAeFw0xODExMjEwMzIxMzJaFw00ODExMjEwMzIxMzJaMGkx
GDAWBgNVBAMMD3d3dy5leGFtcGxlLmNvbTENMAsGA1UECwwEVGVzdDEMMAoGA1UE
CgwDTVRHMRIwEAYDVQQHDAlEYXJtc3RhZHQxDzANBgNVBAgMBkhlc3NlbjELMAkG
A1UEBhMCREUwggEiMA0GCSqGSIb3DQEBAQUAA4IBDwAwggEKAoIBAQCZPfc1eTMr
d1YnLiS2LewNBLLeB1wHw5xNYwpPmm4cp7AdePc4b3h0//HeqHUir6NDcKX+ws7h
YXWp82PW157882G8kN1nwUcnUI0NF7SJwi2E9nER9n+lEyy7q2MnStGm+4CkTVBL
UDTBzIAlycunTo2B2QcEpX0W+ZpVrLbz1Dj8mTQBtxahpmIv1z874iR8HnO/WS1R
uGk8/J3TOxqYzE15Pphn31FmVHez4aN1OlcRZc9sxXGcylhD6mhIxFaq7eD5bdf5
9+A0mkQYOhYqjbF41oqrqpNVNWi/H5QgvRsDvOHfKfx7qsIbVRwIX4hMuCxRHcjA
RW3DxR/bvPk7AgMBAAGjggFDMIIBPzAfBgNVHSMEGDAWgBTiD2ZMICx4ISqPKdv5
mfYAhsSv4TAdBgNVHQ4EFgQUPGZnAVeh3EaMPUJtI5S1bv+tkx8wDgYDVR0PAQH/
BAQDAgWgMAwGA1UdEwEB/wQCMAAwGgYDVR0RBBMwEYIPd3d3LmV4YW1wbGUuY29t
MGIGCCsGAQUFBwEBBFYwVDAoBggrBgEFBQcwAoYcaHR0cDovL2NhLmV4YW1wbGUu
Y29tL2NhLmNydDAoBggrBgEFBQcwAYYcaHR0cDovL29jc3AuZXhhbXBsZS5jb20v
b2NzcDARBgNVHSAECjAIMAYGBCoDBAUwHQYDVR0lBBYwFAYIKwYBBQUHAwEGCCsG
AQUFBwMCMC0GCCsGAQUFBwEDBCEwHzAIBgYEAI5GAQEwEwYGBACORgEGMAkGBwQA
jkYBBgMwDQYJKoZIhvcNAQELBQADggEBAHJ594f/s0v9J5sdJDd3PHXJ57+O+e16
ZpJAmJHVmaJa+KYoGnFEiJp8PMvD1BNuBRjVtg9tgoQEZy1NslTe/UY+Lx7oOyIe
5HJmZ4L3Owclu7gtYbPnIQ7w9h+14yqIMrww26kgIJFsTSjQkgs/s2mf5Wwk5kHt
pDp1DZIb5FzrF5vo6tSvYSIIlSTfMDWZFUgpW8ja1cXEtxh067anY/XAYD3/0Xuo
f8R7LcRftw1gjExOkuyTOiVGdz+xY+crF9jcRNxy/9pAnT/wmGkZ2Sbnc175NOde
PLvTmFD4nVa10dg5FXFwpD4AoSAqPGIkl8lugiXTndcTvWroopdxuo8=
-----END CERTIFICATE-----
