Certificate:
    Data:
        Version: 3 (0x2)
        Serial Number:
            05:d8:ca:5e:c3:85:b1:b2:4b:4d:6f:81:c4
        Signature Algorithm: sha256WithRSAEncryption
        Issuer: CN = Lint Sub-CA, OU = Test, O = MTG, C = DE
        Validity
            Not Before: Nov 21 03:21:30 2018 GMT
            Not After : Nov 21 03:21:30 2048 GMT
        Subject: CN = www.example.com, OU = Test, O = MTG, L = Darmstadt, ST = Hessen, C = DE
        Subject Public Key Info:
            Public Key Algorithm: rsaEncryption
                RSA Public-Key: (2048 bit)
                Modulus:
                    00:85:cb:42:f4:ff:97:89:90:cf:99:7f:d7:57:c6:
                    6d:9a:2a:00:e1:54:c4:c6:38:f3:a7:af:50:f5:67:
                    52:76:25:9d:27:8b:cf:fa:d5:21:3a:08:c2:94:78:
                    65:93:cb:99:1d:4c:68:f2:46:a5:f8:bc:11:91:7d:
                    93:27:8a:ba:d1:66:43:ce:67:b4:a8:97:c3:c5:84:
                    a1:cb:e0:a0:fd:33:f1:3d:ae:32:9c:fa:89:86:6d:
                    fe:54:97:c9:c9:15:55:3e:a6:73:07:b8:4d:29:5a:
                    61:db:e8:84:41:74:28:7f:55:d6:c4:01:6b:58:e6:
                    13:18:af:8c:11:7c:be:bd:e5:db:8e:4b:dd:62:68:
                    fe:6c:64:28:dd:f0:e6:4d:9f:ed:bd:60:a5:aa:04:
                    d8:8e:99:53:0f:b2:74:b4:40:72:9b:0f:a1:d4:1a:
                    d5:bf:ac:f6:38:ab:5e:0b:a9:9e:cc:ae:ae:96:9f:
                    b1:5c:57:53:68:e4:d0:e5:2d:97:7f:74:8e:e5:bf:
                    7b:79:b2:3b:35:95:84:56:ee:21:f2:1a:e6:1b:11:
                    0c:c4:d6:a5:9b:99:9b:ca:ad:6e:4f:e3:d4:39:c2:
                    15:91:66:a1:2f:e8:d5:98:62:a3:79:1f:43:c3:93:
                    86:19:2c:f3:a0:5d:0d:50:c1:da:37:05:25:75:2a:
                    0c:0d
                Exponent: 65537 (0x10001)
        X509v3 extensions:
            X509v3 Authority Key Identifier: 
                keyid:E2:0F:66:4C:20:2C:78:21:2A:8F:29:DB:F9:99:F6:00:86:C4:AF:E1

            X509v3 Subject Key Identifier: 
                3C:E8:C1:40:29:82:E7:F0:3C:9A:D5:3F:48:96:1C:0B:AF:4A:2B:F8
            X509v3 Key Usage: critical
                Digital Signature, Key Encipherment
            X509v3 Basic Constraints: critical
                CA:FALSE
            X509v3 Subject Alternative Name: 
                DNS:www.example.com
            Authority Information Access: 
                CA Issuers - URI:http://ca.example.com/ca.crt
                OCSP - URI:http://ocsp.example.com/ocsp

            X509v3 Certificate Policies: 
                Policy: 1.2.3.4.5

            X509v3 Extended Key Usage: 
                TLS Web Server Authentication, TLS Web Client Authentication
            qcStatements: 
                0w0......F..0V.....F..0L0$..http://example.com/en/test.pdf..en0$..http://example.com/de/test.pdf..de0......F..0......F...
    Signature Algorithm: sha256WithRSAEncryption
         a6:91:15:61:1c:36:1f:a6:79:11:3a:58:10:bc:57:77:5f:bc:
         6e:2d:87:9f:0e:15:fd:ae:8a:cf:bf:95:d6:35:ae:71:ba:86:
         dc:8d:68:c0:c3:34:3f:d5:2d:e4:a1:66:9c:70:6c:d0:ea:66:
         aa:fe:aa:ba:c8:76:ef:3c:d2:92:ea:d3:8e:9a:d4:84:1c:45:
         40:a8:8c:67:cc:af:ab:61:93:c2:85:ba:3b:b1:92:d3:bf:24:
         1a:24:a3:44:4f:07:2a:04:61:d3:9b:07:11:43:d2:0e:df:65:
         70:5a:40:10:6a:a0:81:40:2d:50:18:0e:49:6f:e1:d3:97:27:
         04:de:be:77:8b:f3:fa:75:d7:87:a8:0a:45:26:0b:3a:46:f4:
         15:c0:cf:92:14:28:49:67:42:69:ba:1c:d3:b7:7f:71:40:ff:
         8b:2a:bd:a5:bf:97:91:7b:de:91:11:12:41:08:e4:a9:cb:4b:
         0a:36:a1:8b:94:35:b2:4a:60:aa:31:ef:9a:a2:4b:74:67:2e:
         fd:41:fe:0a:5c:8d:4f:5a:15:59:5f:58:e9:45:3d:78:da:6c:
         31:4b:07:84:22:2b:82:36:e6:aa:88:53:4c:e9:ae:be:89:ec:
         17:e1:d1:6e:07:38:1a:a0:b5:17:39:36:30:9d:ad:c7:31:ba:
         ce:6e:21:9b
-----BEGIN CERTIFICATE-----
MIIEzjCCA7agAwIBAgINBdjKXsOFsbJLTW+BxDANBgkqhkiG9w0BAQsFADBAMRQw
EgYDVQQDDAtMaW50IFN1Yi1DQTENMAsGA1UECwwEVGVzdDEMMAoGA1UECgwDTVRH
MQswCQYDVQQGEwJERTAeFw0xODExMjEwMzIxMzBaFw00ODExMjEwMzIxMzBaMGkx
GDAWBgNVBAMMD3d3dy5leGFtcGxlLmNvbTENMAsGA1UECwwEVGVzdDEMMAoGA1UE
CgwDTVRHMRIwEAYDVQQHDAlEYXJtc3RhZHQxDzANBgNVBAgMBkhlc3NlbjELMAkG
A1UEBhMCREUwggEiMA0GCSqGSIb3DQEBAQUAA4IBDwAwggEKAoIBAQCFy0L0/5eJ
kM+Zf9dXxm2aKgDhVMTGOPOnr1D1Z1J2JZ0ni8/61SE6CMKUeGWTy5kdTGjyRqX4
vBGRfZMnirrRZkPOZ7Sol8PFhKHL4KD9M/E9rjKc+omGbf5Ul8nJFVU+pnMHuE0p
WmHb6IRBdCh/VdbEAWtY5hMYr4wRfL695duOS91iaP5sZCjd8OZNn+29YKWqBNiO
mVMPsnS0QHKbD6HUGtW/rPY4q14LqZ7Mrq6Wn7FcV1No5NDlLZd/dI7lv3t5sjs1
lYRW7iHyGuYbEQzE1qWbmZvKrW5P49Q5whWRZqEv6NWYYqN5H0PDk4YZLPOgXQ1Q
wdo3BSV1KgwNAgMBAAGjggGcMIIBmDAfBgNVHSMEGDAWgBTiD2ZMICx4ISqPKdv5
mfYAhsSv4TAdBgNVHQ4EFgQUPOjBQCmC5/A8mtU/SJYcC69KK/gwDgYDVR0PAQH/
BAQDAgWgMAwGA1UdEwEB/wQCMAAwGgYDVR0RBBMwEYIPd3d3LmV4YW1wbGUuY29t
MGIGCCsGAQUFBwEBBFYwVDAoBggrBgEFBQcwAoYcaHR0cDovL2NhLmV4YW1wbGUu
Y29tL2NhLmNydDAoBggrBgEFBQcwAYYcaHR0cDovL29jc3AuZXhhbXBsZS5jb20v
b2NzcDARBgNVHSAECjAIMAYGBCoDBAUwHQYDVR0lBBYwFAYIKwYBBQUHAwEGCCsG
AQUFBwMCMIGFBggrBgEFBQcBAwR5MHcwCAYGBACORgEBMFYGBgQAjkYBBTBMMCQW
Hmh0dHA6Ly9leGFtcGxlLmNvbS9lbi90ZXN0LnBkZgwCZW4wJBYeaHR0cDovL2V4
YW1wbGUuY29tL2RlL3Rlc3QucGRmEwJkZTATBgYEAI5GAQYwCQYHBACORgEGAzAN
BgkqhkiG9w0BAQsFAAOCAQEAppEVYRw2H6Z5ETpYELxXd1+8bi2Hnw4V/a6Kz7+V
1jWucbqG3I1owMM0P9Ut5KFmnHBs0Opmqv6qush27zzSkurTjprUhBxFQKiMZ8yv
q2GTwoW6O7GS078kGiSjRE8HKgRh05sHEUPSDt9lcFpAEGqggUAtUBgOSW/h05cn
BN6+d4vz+nXXh6gKRSYLOkb0FcDPkhQoSWdCaboc07d/cUD/iyq9pb+XkXvekRES
QQjkqctLCjahi5Q1skpgqjHvmqJLdGcu/UH+ClyNT1oVWV9Y6UU9eNpsMUsHhCIr
gjbmqohTTOmuvonsF+HRbgc4GqC1Fzk2MJ2txzG6zm4hmw==
-----END CERTIFICATE-----
