Certificate:
    Data:
        Version: 3 (0x2)
        Serial Number:
            04:f2:ed:70:46:be:49:5c:b7:89:56:3f:00
        Signature Algorithm: sha256WithRSAEncryption
        Issuer: CN = Lint Sub-CA, OU = Test, O = MTG, C = DE
        Validity
            Not Before: Nov 21 03:21:29 2018 GMT
            Not After : Nov 21 03:21:29 2048 GMT
        Subject: CN = www.example.com, OU = Test, O = MTG, L = Darmstadt, ST = Hessen, C = DE
        Subject Public Key Info:
            Public Key Algorithm: rsaEncryption
                RSA Public-Key: (2048 bit)
                Modulus:
                    00:94:31:9e:3b:de:a9:2e:fc:b1:9f:48:fd:40:30:
                    8e:70:cd:ab:fd:24:82:57:37:40:0c:5b:7b:40:81:
                    94:ee:26:16:c0:96:ea:3b:85:4c:42:21:2d:60:9c:
                    e1:d9:9a:bf:5d:a8:60:7d:01:c7:c9:b2:cb:33:0b:
                    58:cb:75:41:de:12:e0:5f:d5:9c:16:da:f9:d7:0f:
                    fa:05:71:59:29:79:dd:e6:f1:e5:d7:ca:98:ee:8d:
                    8d:1c:10:8c:6a:6d:48:af:9b:23:8a:4b:9b:aa:87:
                    ce:bd:96:f6:74:9a:10:8c:e6:7f:4b:aa:c9:e1:c9:
                    31:a5:54:c7:f3:37:b5:9d:91:78:fe:3b:1c:9d:4a:
                    91:ef:1d:97:34:24:6f:19:41:bd:36:28:70:59:57:
                    07:79:9d:59:a0:a0:ba:9c:b1:2a:fa:ce:c6:7f:86:
                    c4:68:8c:94:d9:f0:03:91:84:15:be:0b:96:71:37:
                    49:97:2d:23:58:63:9f:23:d3:08:1f:e8:fa:e1:d6:
                    23:3e:09:5e:a0:14:35:b8:c0:31:e5:2e:7a:07:35:
                    bc:4d:90:a7:ff:ad:2c:b0:81:fa:79:a9:b2:d7:f3:
                    d6:20:8c:65:0d:76:70:e7:37:88:e4:ed:e3:6b:73:
                    45:6b:40:7f:17:8e:7d:46:28:c4:88:ee:53:56:7d:
                    33:a1
                Exponent: 65537 (0x10001)
        X509v3 extensions:
            X509v3 Authority Key Identifier: 
                keyid:E2:0F:66:4C:20:2C:78:21:2A:8F:29:DB:F9:99:F6:00:86:C4:AF:E1

            X509v3 Subject Key Identifier: 
                0E:89:E0:BC:14:3A:FD:FE:6D:8D:2B:F8:BF:6B:AB:03:FF:4C:EB:B3
            X509v3 Key Usage: critical
                Digital Signature, Key Encipherment
            X509v3 Basic Constraints: critical
                CA:FALSE
            X509v3 Subject Alternative Name: 
                DNS:www.example.com
            Authority Information Access: 
                CA Issuers - URI:http://ca.example.com/ca.crt
                OCSP - URI:http://ocsp.example.com/ocsp

            X509v3 Certificate Policies: 
                Policy: 1.2.3.4.5

            X509v3 Extended Key Usage: 
                TLS Web Server Authentication, TLS Web Client Authentication
            qcStatements: critical
                0w0......F..0V.....F..0L0$..http://example.com/en/test.pdf..en0$..http://example.com/de/test.pdf..de0......F..0......F...
    Signature Algorithm: sha256WithRSAEncryption
         03:61:65:17:19:d9:e8:6a:e0:e8:97:bf:17:1e:a0:cc:97:ad:
         b7:b4:8a:9a:bf:cc:cc:7b:fb:ad:f8:23:c0:29:f1:ad:c0:0c:
         dd:73:b1:1a:d8:5e:6b:c8:ed:b3:20:dc:85:60:82:da:ce:b2:
         70:75:61:7c:a8:01:b8:ce:55:b5:5a:0e:49:de:40:4f:64:22:
         6b:73:72:b8:52:40:ee:21:83:dd:19:6c:6f:48:e1:21:32:3b:
         dd:b1:8e:a1:8d:c8:5e:2e:4c:ea:f2:40:64:9e:53:0f:a3:9a:
         74:e9:2e:ba:a2:d3:ef:3c:68:d5:66:3e:2a:4d:d7:fd:1e:eb:
         50:df:f5:59:76:d3:96:bf:a7:a6:b1:e2:24:a6:1a:56:31:5c:
         d1:32:c9:2d:54:0c:11:0d:ef:36:69:c7:4b:25:a7:1f:13:74:
         1f:52:f1:73:ad:46:9c:0d:2b:eb:3a:ff:ec:7b:12:2d:77:02:
         63:0b:5a:75:00:fc:cd:c7:a0:b1:94:6c:6f:b6:c5:52:21:b0:
         c8:3d:a5:fc:63:78:ff:8e:82:93:8f:b8:fd:62:8f:5f:95:e8:
         70:ac:7e:e2:7b:be:93:9f:1b:c1:2a:f1:27:66:33:0b:1f:bf:
         6c:0b:e9:22:fd:30:6a:24:6b:73:bb:a3:a4:05:6a:15:19:73:
         9a:9e:eb:bf
-----BEGIN CERTIFICATE-----
MIIE0TCCA7mgAwIBAgINBPLtcEa+SVy3iVY/ADANBgkqhkiG9w0BAQsFADBAMRQw
EgYDVQQDDAtMaW50IFN1Yi1DQTENMAsGA1UECwwEVGVzdDEMMAoGA1UECgwDTVRH
MQswCQYDVQQGEwJERTAeFw0xODExMjEwMzIxMjlaFw00ODExMjEwMzIxMjlaMGkx
GDAWBgNVBAMMD3d3dy5leGFtcGxlLmNvbTENMAsGA1UECwwEVGVzdDEMMAoGA1UE
CgwDTVRHMRIwEAYDVQQHDAlEYXJtc3RhZHQxDzANBgNVBAgMBkhlc3NlbjELMAkG
A1UEBhMCREUwggEiMA0GCSqGSIb3DQEBAQUAA4IBDwAwggEKAoIBAQCUMZ473qku
/LGfSP1AMI5wzav9JIJXN0AMW3tAgZTuJhbAluo7hUxCIS1gnOHZmr9dqGB9AcfJ
ssszC1jLdUHeEuBf1ZwW2vnXD/oFcVkped3m8eXXypjujY0cEIxqbUivmyOKS5uq
h869lvZ0mhCM5n9LqsnhyTGlVMfzN7WdkXj+OxydSpHvHZc0JG8ZQb02KHBZVwd5
nVmgoLqcsSr6zsZ/hsRojJTZ8AORhBW+C5ZxN0mXLSNYY58j0wgf6Prh1iM+CV6g
FDW4wDHlLnoHNbxNkKf/rSywgfp5qbLX89YgjGUNdnDnN4jk7eNrc0VrQH8Xjn1G
KMSI7lNWfTOhAgMBAAGjggGfMIIBmzAfBgNVHSMEGDAWgBTiD2ZMICx4ISqPKdv5
mfYAhsSv4TAdBgNVHQ4EFgQUDongvBQ6/f5tjSv4v2urA/9M67MwDgYDVR0PAQH/
BAQDAgWgMAwGA1UdEwEB/wQCMAAwGgYDVR0RBBMwEYIPd3d3LmV4YW1wbGUuY29t
MGIGCCsGAQUFBwEBBFYwVDAoBggrBgEFBQcwAoYcaHR0cDovL2NhLmV4YW1wbGUu
Y29tL2NhLmNydDAoBggrBgEFBQcwAYYcaHR0cDovL29jc3AuZXhhbXBsZS5jb20v
b2NzcDARBgNVHSAECjAIMAYGBCoDBAUwHQYDVR0lBBYwFAYIKwYBBQUHAwEGCCsG
AQUFBwMCMIGIBggrBgEFBQcBAwEB/wR5MHcwCAYGBACORgEBMFYGBgQAjkYBBTBM
MCQWHmh0dHA6Ly9leGFtcGxlLmNvbS9lbi90ZXN0LnBkZhMCZW4wJBYeaHR0cDov
L2V4YW1wbGUuY29tL2RlL3Rlc3QucGRmEwJkZTATBgYEAI5GAQYwCQYHBACORgEG
AzANBgkqhkiG9w0BAQsFAAOCAQEAA2FlFxnZ6Grg6Je/Fx6gzJett7SKmr/MzHv7
rfgjwCnxrcAM3XOxGthea8jtsyDchWCC2s6ycHVhfKgBuM5VtVoOSd5AT2Qia3Ny
uFJA7iGD3Rlsb0jhITI73bGOoY3IXi5M6vJAZJ5TD6OadOkuuqLT7zxo1WY+Kk3X
/R7rUN/1WXbTlr+nprHiJKYaVjFc0TLJLVQMEQ3vNmnHSyWnHxN0H1Lxc61GnA0r
6zr/7HsSLXcCYwtadQD8zcegsZRsb7bFUiGwyD2l/GN4/46Ck4+4/WKPX5XocKx+
4nu+k58bwSrxJ2YzCx+/bAvpIv0waiRrc7ujpAVqFRlzmp7rvw==
-----END CERTIFICATE-----
