Certificate:
    Data:
        Version: 3 (0x2)
        Serial Number:
            6e:58:90:9b:f3:bd:dd:00:5c:68:e7:9f
        Signature Algorithm: sha256WithRSAEncryption
        Issuer: CN = Lint Sub-CA, OU = Test, O = MTG, C = DE
        Validity
            Not Before: Nov 21 03:21:30 2018 GMT
            Not After : Nov 21 03:21:30 2048 GMT
        Subject: CN = www.example.com, OU = Test, O = MTG, L = Darmstadt, ST = Hessen, C = DE
        Subject Public Key Info:
            Public Key Algorithm: rsaEncryption
                RSA Public-Key: (2048 bit)
                Modulus:
                    00:a8:65:13:8e:1a:3c:01:42:e3:ed:36:e7:3c:14:
                    84:97:a2:b1:ae:4c:ee:37:6d:82:2a:4d:cd:7d:6a:
                    b2:77:ba:68:69:c4:51:73:3e:24:21:4c:eb:8e:1d:
                    13:6b:cf:ee:e9:a5:a9:dd:01:1b:54:36:46:7c:68:
                    27:37:ad:00:a4:88:cc:ba:c3:8c:20:93:27:97:ac:
                    22:22:12:e2:d4:90:c0:14:43:0b:14:b4:ec:b2:2e:
                    69:74:bb:b0:b5:66:fd:15:93:f7:a3:21:7e:9f:af:
                    01:da:c1:33:b2:a6:da:45:5d:06:97:e1:97:d2:91:
                    94:ef:2b:31:80:c6:6c:fb:25:ca:c6:ee:af:c8:04:
                    7f:62:0f:3c:cd:7b:b1:d2:60:e3:8d:d5:b6:ad:b9:
                    86:87:ac:10:42:64:99:e0:8b:65:57:54:a7:db:61:
                    87:d4:f3:f8:bd:c8:9f:ec:c9:ab:44:d5:72:42:30:
                    0d:6e:6e:8f:71:12:0f:71:82:20:6d:c3:4b:59:03:
                    98:71:c5:26:b1:72:56:70:31:17:55:10:20:e2:c6:
                    e7:d6:d1:6e:67:f0:80:de:19:db:34:32:18:c0:c6:
                    be:54:90:e0:f9:43:96:17:f8:02:f0:99:fc:f9:ea:
                    40:cd:7d:0c:83:b7:14:7c:fc:48:77:18:cd:d7:da:
                    d8:7d
                Exponent: 65537 (0x10001)
        X509v3 extensions:
            X509v3 Authority Key Identifier: 
                keyid:E2:0F:66:4C:20:2C:78:21:2A:8F:29:DB:F9:99:F6:00:86:C4:AF:E1

            X509v3 Subject Key Identifier: 
                DB:F3:30:0B:18:1A:94:B6:3D:45:E6:CA:EC:A1:13:82:DC:10:B6:91
            X509v3 Key Usage: critical
                Digital Signature, Key Encipherment
            X509v3 Basic Constraints: critical
                CA:FALSE
            X509v3 Subject Alternative Name: 
                DNS:www.example.com
            Authority Information Access: 
                CA Issuers - URI:http://ca.example.com/ca.crt
                OCSP - URI:http://ocsp.example.com/ocsp

            X509v3 Certificate Policies: 
                Policy: 1.2.3.4.5

            X509v3 Extended Key Usage: 
                TLS Web Server Authentication, TLS Web Client Authentication
            qcStatements: 
                0l0......F..0V.....F..0L0$..http://example.com/en/test.pdf..en0$..http://example.com/de/test.pdf..de0......F..
    Signature Algorithm: sha256WithRSAEncryption
         5b:31:31:f6:ea:9e:45:25:c7:e5:93:90:43:e3:9c:17:b4:46:
         48:5f:4c:53:69:a3:ba:c9:ef:77:24:ee:55:d9:f1:10:a6:6e:
         87:63:80:45:d4:e6:58:ee:06:de:64:67:b6:df:c1:a6:9c:4e:
         4e:30:22:da:0f:9d:33:45:fd:75:36:f0:2e:5c:cb:6b:b1:1d:
         bd:29:ec:66:0a:ea:d8:4c:57:f0:d4:5a:7d:73:c9:e9:75:79:
         67:40:7c:c7:39:cc:e1:50:25:76:a1:72:e0:2e:a8:ee:18:85:
         90:3e:97:3f:7e:e2:1a:ec:5f:98:0a:96:99:fd:24:f2:42:ed:
         f3:c0:2d:d9:ae:52:42:bb:29:61:ad:46:30:74:63:8e:77:ef:
         68:5e:cc:80:da:4b:b2:ca:25:de:85:8f:e5:37:d0:c2:20:d9:
         78:d4:d5:5d:35:fc:e0:5f:a3:0d:3b:b9:2a:60:a1:0a:34:4c:
         39:90:94:43:16:45:28:69:c4:f4:52:3d:30:ef:59:57:9a:ea:
         81:8c:1f:99:80:f0:ef:d5:75:c3:dc:1e:c5:5e:0b:2f:66:96:
         3c:b7:39:f7:e8:94:10:75:44:ce:25:96:b7:e9:b7:81:e7:f3:
         9f:2c:2c:ee:e9:2c:4c:e5:3b:52:b1:0d:88:c6:ac:de:b6:ef:
         a9:d8:3f:d8
-----BEGIN CERTIFICATE-----
MIIEwTCCA6mgAwIBAgIMbliQm/O93QBcaOefMA0GCSqGSIb3DQEBCwUAMEAxFDAS
BgNVBAMMC0xpbnQgU3ViLUNBMQ0wCwYDVQQLDARUZXN0MQwwCgYDVQQKDANNVEcx
CzAJBgNVBAYTAkRFMB4XDTE4MTEyMTAzMjEzMFoXDTQ4MTEyMTAzMjEzMFowaTEY
MBYGA1UEAwwPd3d3LmV4YW1wbGUuY29tMQ0wCwYDVQQLDARUZXN0MQwwCgYDVQQK
DANNVEcxEjAQBgNVBAcMCURhcm1zdGFkdDEPMA0GA1UECAwGSGVzc2VuMQswCQYD
VQQGEwJERTCCASIwDQYJKoZIhvcNAQEBBQADggEPADCCAQoCggEBAKhlE44aPAFC
4+025zwUhJeisa5M7jdtgipNzX1qsne6aGnEUXM+JCFM644dE2vP7umlqd0BG1Q2
RnxoJzetAKSIzLrDjCCTJ5esIiIS4tSQwBRDCxS07LIuaXS7sLVm/RWT96Mhfp+v
AdrBM7Km2kVdBpfhl9KRlO8rMYDGbPslysbur8gEf2IPPM17sdJg443Vtq25hoes
EEJkmeCLZVdUp9thh9Tz+L3In+zJq0TVckIwDW5uj3ESD3GCIG3DS1kDmHHFJrFy
VnAxF1UQIOLG59bRbmfwgN4Z2zQyGMDGvlSQ4PlDlhf4AvCZ/PnqQM19DIO3FHz8
SHcYzdfa2H0CAwEAAaOCAZAwggGMMB8GA1UdIwQYMBaAFOIPZkwgLHghKo8p2/mZ
9gCGxK/hMB0GA1UdDgQWBBTb8zALGBqUtj1F5srsoROC3BC2kTAOBgNVHQ8BAf8E
BAMCBaAwDAYDVR0TAQH/BAIwADAaBgNVHREEEzARgg93d3cuZXhhbXBsZS5jb20w
YgYIKwYBBQUHAQEEVjBUMCgGCCsGAQUFBzAChhxodHRwOi8vY2EuZXhhbXBsZS5j
b20vY2EuY3J0MCgGCCsGAQUFBzABhhxodHRwOi8vb2NzcC5leGFtcGxlLmNvbS9v
Y3NwMBEGA1UdIAQKMAgwBgYEKgMEBTAdBgNVHSUEFjAUBggrBgEFBQcDAQYIKwYB
BQUHAwIwegYIKwYBBQUHAQMEbjBsMAgGBgQAjkYBATBWBgYEAI5GAQUwTDAkFh5o
dHRwOi8vZXhhbXBsZS5jb20vZW4vdGVzdC5wZGYTAmVuMCQWHmh0dHA6Ly9leGFt
cGxlLmNvbS9kZS90ZXN0LnBkZhMCZGUwCAYGBACORgEGMA0GCSqGSIb3DQEBCwUA
A4IBAQBbMTH26p5FJcflk5BD45wXtEZIX0xTaaO6ye93JO5V2fEQpm6HY4BF1OZY
7gbeZGe238GmnE5OMCLaD50zRf11NvAuXMtrsR29KexmCurYTFfw1Fp9c8npdXln
QHzHOczhUCV2oXLgLqjuGIWQPpc/fuIa7F+YCpaZ/STyQu3zwC3ZrlJCuylhrUYw
dGOOd+9oXsyA2kuyyiXehY/lN9DCINl41NVdNfzgX6MNO7kqYKEKNEw5kJRDFkUo
acT0Uj0w71lXmuqBjB+ZgPDv1XXD3B7FXgsvZpY8tzn36JQQdUTOJZa36beB5/Of
LCzu6SxM5TtSsQ2Ixqzetu+p2D/Y
-----END CERTIFICATE-----
