Certificate:
    Data:
        Version: 3 (0x2)
        Serial Number:
            0b:07:02:70:d9:62:61:4f:cc:57:00:ae:11
        Signature Algorithm: sha256WithRSAEncryption
        Issuer: CN = Lint Sub-CA, OU = Test, O = MTG, C = DE
        Validity
            Not Before: Nov 21 03:21:28 2018 GMT
            Not After : Nov 21 03:21:28 2048 GMT
        Subject: CN = www.example.com, OU = Test, O = MTG, L = Darmstadt, ST = Hessen, C = DE
        Subject Public Key Info:
            Public Key Algorithm: rsaEncryption
                RSA Public-Key: (2048 bit)
                Modulus:
                    00:80:f7:08:6a:e3:85:65:47:b6:77:10:53:65:d8:
                    ba:a1:44:3b:ff:2b:0c:a9:23:69:e5:3c:dc:bc:7d:
                    94:18:d7:f1:33:48:fa:1d:3f:49:81:d9:bf:c4:77:
                    b1:5d:da:c3:b9:d0:7d:96:77:00:82:e3:76:0a:b0:
                    4e:22:e6:af:64:84:a5:0f:3e:b3:9e:04:67:d5:88:
                    b0:76:e4:80:46:c5:2b:4f:2e:03:d3:7d:cb:d0:45:
                    d2:70:9b:fa:26:0a:fb:5d:79:6a:23:70:04:0f:9f:
                    75:49:ae:47:f1:50:2c:4e:66:60:12:83:9e:9d:70:
                    4b:1f:5e:23:35:4a:a8:19:ca:a2:f0:ef:74:b0:4e:
                    6f:94:c3:50:7b:29:d5:93:8c:bb:1d:78:5f:05:2f:
                    a4:0a:ad:ba:aa:11:81:19:0c:9f:b8:33:9a:6f:97:
                    cc:31:a6:2f:c5:6b:7b:c6:6d:5b:bd:5f:77:46:41:
                    73:ed:36:70:28:8d:bf:a2:fc:31:2a:bc:26:bd:46:
                    36:6d:4b:77:d0:2a:e4:f0:10:84:59:17:98:ec:5a:
                    64:1e:d4:58:84:45:e1:62:85:11:19:c9:0b:b2:8e:
                    4d:17:ce:17:a2:e5:00:4c:9a:a4:39:23:20:eb:cc:
                    2c:59:63:69:f4:5d:18:c1:e5:ac:d9:71:cc:7e:72:
                    f0:a5
                Exponent: 65537 (0x10001)
        X509v3 extensions:
            X509v3 Authority Key Identifier: 
                keyid:E2:0F:66:4C:20:2C:78:21:2A:8F:29:DB:F9:99:F6:00:86:C4:AF:E1

            X509v3 Subject Key Identifier: 
                DF:19:8C:1A:30:02:E8:96:B3:E2:10:E5:A9:A1:92:69:7A:DB:9F:05
            X509v3 Key Usage: critical
                Digital Signature, Key Encipherment
            X509v3 Basic Constraints: critical
                CA:FALSE
            X509v3 Subject Alternative Name: 
                DNS:www.example.com
            Authority Information Access: 
                CA Issuers - URI:http://ca.example.com/ca.crt
                OCSP - URI:http://ocsp.example.com/ocsp

            X509v3 Certificate Policies: 
                Policy: 1.2.3.4.5

            X509v3 Extended Key Usage: 
                TLS Web Server Authentication, TLS Web Client Authentication
            qcStatements: 
                0.......
    Signature Algorithm: sha256WithRSAEncryption
         80:38:b7:c5:18:b9:df:c2:2d:4b:b8:fa:d5:c2:97:df:86:8f:
         2c:2b:e5:f5:f3:b8:d6:80:f3:e0:26:20:ba:08:a0:5a:55:88:
         2b:bc:ef:8b:09:24:f9:a3:65:77:6d:24:ae:7e:10:8a:b3:05:
         37:ae:0d:b2:01:71:b6:d8:34:fd:80:cc:f5:60:f1:c1:56:54:
         18:6c:c9:96:b2:e7:6b:27:3d:26:9c:64:76:66:89:f5:3a:51:
         36:9e:ed:41:0e:1a:e7:76:35:37:3f:d1:e0:21:14:92:bd:17:
         2d:23:6a:31:3b:ed:46:9a:7a:07:f2:60:9d:54:cf:e5:ad:c7:
         08:41:df:ce:45:7f:e6:63:3c:b4:6d:2e:b8:94:ce:74:f8:0c:
         88:01:e0:ce:8d:ca:80:98:3e:00:be:be:c5:ac:a0:86:7e:b5:
         1c:9c:c9:fe:a5:92:38:96:aa:5f:a4:6e:49:d9:f5:85:0b:93:
         0a:40:69:02:ef:ba:a8:6e:63:e9:95:b9:54:e9:e4:e6:4f:5e:
         c3:cd:1b:b6:9a:4b:07:ad:cd:bc:48:84:07:ae:19:d5:19:98:
         aa:3c:79:37:fb:d1:8c:80:63:7a:3c:3e:dc:77:3c:17:f5:0e:
         73:23:7d:eb:70:b8:f7:a8:f4:7e:cf:19:2c:63:5e:88:f5:f7:
         5a:56:58:f1
-----BEGIN CERTIFICATE-----
MIIEXDCCA0SgAwIBAgINCwcCcNliYU/MVwCuETANBgkqhkiG9w0BAQsFADBAMRQw
EgYDVQQDDAtMaW50IFN1Yi1DQTENMAsGA1UECwwEVGVzdDEMMAoGA1UECgwDTVRH
MQswCQYDVQQGEwJERTAeFw0xODExMjEwMzIxMjhaFw00ODExMjEwMzIxMjhaMGkx
GDAWBgNVBAMMD3d3dy5leGFtcGxlLmNvbTENMAsGA1UECwwEVGVzdDEMMAoGA1UE
CgwDTVRHMRIwEAYDVQQHDAlEYXJtc3RhZHQxDzANBgNVBAgMBkhlc3NlbjELMAkG
A1UEBhMCREUwggEiMA0GCSqGSIb3DQEBAQUAA4IBDwAwggEKAoIBAQCA9whq44Vl
R7Z3EFNl2LqhRDv/KwypI2nlPNy8fZQY1/EzSPodP0mB2b/Ed7Fd2sO50H2WdwCC
43YKsE4i5q9khKUPPrOeBGfViLB25IBGxStPLgPTfcvQRdJwm/omCvtdeWojcAQP
n3VJrkfxUCxOZmASg56dcEsfXiM1SqgZyqLw73SwTm+Uw1B7KdWTjLsdeF8FL6QK
rbqqEYEZDJ+4M5pvl8wxpi/Fa3vGbVu9X3dGQXPtNnAojb+i/DEqvCa9RjZtS3fQ
KuTwEIRZF5jsWmQe1FiEReFihREZyQuyjk0Xzhei5QBMmqQ5IyDrzCxZY2n0XRjB
5azZccx+cvClAgMBAAGjggEqMIIBJjAfBgNVHSMEGDAWgBTiD2ZMICx4ISqPKdv5
mfYAhsSv4TAdBgNVHQ4EFgQU3xmMGjAC6Jaz4hDlqaGSaXrbnwUwDgYDVR0PAQH/
BAQDAgWgMAwGA1UdEwEB/wQCMAAwGgYDVR0RBBMwEYIPd3d3LmV4YW1wbGUuY29t
MGIGCCsGAQUFBwEBBFYwVDAoBggrBgEFBQcwAoYcaHR0cDovL2NhLmV4YW1wbGUu
Y29tL2NhLmNydDAoBggrBgEFBQcwAYYcaHR0cDovL29jc3AuZXhhbXBsZS5jb20v
b2NzcDARBgNVHSAECjAIMAYGBCoDBAUwHQYDVR0lBBYwFAYIKwYBBQUHAwEGCCsG
AQUFBwMCMBQGCCsGAQUFBwEDBAgwBgEB/wIBBDANBgkqhkiG9w0BAQsFAAOCAQEA
gDi3xRi538ItS7j61cKX34aPLCvl9fO41oDz4CYgugigWlWIK7zviwkk+aNld20k
rn4QirMFN64NsgFxttg0/YDM9WDxwVZUGGzJlrLnayc9JpxkdmaJ9TpRNp7tQQ4a
53Y1Nz/R4CEUkr0XLSNqMTvtRpp6B/JgnVTP5a3HCEHfzkV/5mM8tG0uuJTOdPgM
iAHgzo3KgJg+AL6+xayghn61HJzJ/qWSOJaqX6RuSdn1hQuTCkBpAu+6qG5j6ZW5
VOnk5k9ew80btppLB63NvEiEB64Z1RmYqjx5N/vRjIBjejw+3Hc8F/UOcyN963C4
96j0fs8ZLGNeiPX3WlZY8Q==
-----END CERTIFICATE-----
