Certificate:
    Data:
        Version: 3 (0x2)
        Serial Number:
            0a:e4:f0:40:30:25:65:57:d5:68:eb:40:15
        Signature Algorithm: sha256WithRSAEncryption
        Issuer: CN = Lint Sub-CA, OU = Test, O = MTG, C = DE
        Validity
            Not Before: Nov 21 03:21:34 2018 GMT
            Not After : Nov 21 03:21:34 2048 GMT
        Subject: CN = www.example.com, OU = Test, O = MTG, L = Darmstadt, ST = Hessen, C = DE
        Subject Public Key Info:
            Public Key Algorithm: rsaEncryption
                RSA Public-Key: (2048 bit)
                Modulus:
                    00:9b:ea:f5:bd:78:97:77:dd:c5:67:ad:3e:67:50:
                    a4:ca:77:b4:44:97:4e:d4:67:af:8d:ba:42:05:fa:
                    41:28:11:18:52:fe:5c:95:e1:f7:57:1f:3e:44:c0:
                    99:da:9e:22:81:84:1b:98:db:95:bc:d3:49:5a:29:
                    00:e4:9d:8f:63:5a:b1:00:5e:2a:c4:bf:9d:66:0e:
                    18:f2:a6:7c:b7:5f:f4:96:e3:8b:27:b8:93:cc:fc:
                    2b:52:34:5b:fc:8b:ac:76:82:1e:0c:3e:8e:3b:78:
                    98:6a:35:88:c1:52:26:81:5c:e1:05:a8:e2:65:7c:
                    c6:d0:d4:00:a4:9d:2c:41:89:f2:45:6d:1d:58:c0:
                    f3:15:75:5d:b2:c3:ee:ac:c8:0a:73:19:a4:f8:c5:
                    57:19:91:ed:a7:94:9a:1e:cd:1f:54:aa:db:a3:39:
                    ab:e7:25:4a:41:f0:92:77:18:fa:ba:ef:63:7d:0b:
                    65:fe:1c:e1:f9:70:36:f8:42:4e:07:e8:47:a5:7f:
                    f1:47:16:dd:08:5b:45:e1:cc:8c:26:a8:a1:1d:f4:
                    8d:6b:5f:74:cb:94:38:4d:a6:78:69:8f:34:9e:e2:
                    e7:9f:02:06:ec:0f:a6:da:32:65:0a:df:5d:91:c3:
                    6e:43:7a:16:9b:c9:eb:52:70:ae:c8:48:95:86:3e:
                    16:27
                Exponent: 65537 (0x10001)
        X509v3 extensions:
            X509v3 Authority Key Identifier: 
                keyid:E2:0F:66:4C:20:2C:78:21:2A:8F:29:DB:F9:99:F6:00:86:C4:AF:E1

            X509v3 Subject Key Identifier: 
                C8:9B:AA:58:F3:56:57:9C:C5:71:3A:64:C1:9D:0B:5E:79:44:96:56
            X509v3 Key Usage: critical
                Digital Signature, Key Encipherment
            X509v3 Basic Constraints: critical
                CA:FALSE
            X509v3 Subject Alternative Name: 
                DNS:www.example.com
            Authority Information Access: 
                CA Issuers - URI:http://ca.example.com/ca.crt
                OCSP - URI:http://ocsp.example.com/ocsp

            X509v3 Certificate Policies: 
                Policy: 1.2.3.4.5

            X509v3 Extended Key Usage: 
                TLS Web Server Authentication, TLS Web Client Authentication
            qcStatements: 
                0w0......F..0V.....F..0L0$..http://example.com/en/test.pdf..EN0$..http://example.com/de/test.pdf..de0......F..0......F...
    Signature Algorithm: sha256WithRSAEncryption
         0a:b7:f5:a8:52:7e:47:f9:bf:e9:f9:c1:50:f1:a6:d3:81:21:
         46:84:64:fe:14:79:0f:6e:a8:50:5e:37:ab:62:37:c3:51:da:
         ea:51:aa:4a:9f:6f:60:24:cd:7d:a4:6a:b5:66:61:9d:3b:38:
         82:2c:14:85:96:b3:0c:23:35:1c:c6:bc:2e:d7:09:71:a3:7b:
         6b:45:96:d1:e0:c6:89:fb:0a:e1:76:7e:2e:83:cb:2e:d7:91:
         eb:29:15:a7:1b:da:6b:f1:f7:fc:46:85:a4:30:7a:5a:76:04:
         5e:e2:b2:f5:4a:9b:c1:54:54:c4:1d:87:9d:35:5a:a5:ec:5f:
         f6:e5:f9:ad:f3:7f:6d:29:ae:52:03:07:7e:67:ec:0b:a4:f9:
         98:76:66:f1:9f:85:19:e1:d5:de:cd:35:79:46:b2:61:c5:03:
         35:24:70:ff:ef:82:84:af:f6:6f:95:dd:31:19:be:cd:aa:f6:
         d0:41:1b:d6:4e:a8:08:db:ca:f5:fa:d6:47:77:bf:f8:5a:6a:
         e7:d8:c9:0b:57:91:1e:4d:01:4e:9e:6d:62:dd:b4:b8:b8:05:
         e9:6a:40:78:4c:c0:26:0c:99:ad:6a:72:1c:42:2b:4d:42:cf:
         63:9a:d6:b8:cf:d3:ae:11:47:e9:34:73:7e:13:5c:b8:de:c9:
         42:b7:19:b2
-----BEGIN CERTIFICATE-----
MIIEzjCCA7agAwIBAgINCuTwQDAlZVfVaOtAFTANBgkqhkiG9w0BAQsFADBAMRQw
EgYDVQQDDAtMaW50IFN1Yi1DQTENMAsGA1UECwwEVGVzdDEMMAoGA1UECgwDTVRH
MQswCQYDVQQGEwJERTAeFw0xODExMjEwMzIxMzRaFw00ODExMjEwMzIxMzRaMGkx
GDAWBgNVBAMMD3d3dy5leGFtcGxlLmNvbTENMAsGA1UECwwEVGVzdDEMMAoGA1UE
CgwDTVRHMRIwEAYDVQQHDAlEYXJtc3RhZHQxDzANBgNVBAgMBkhlc3NlbjELMAkG
A1UEBhMCREUwggEiMA0GCSqGSIb3DQEBAQUAA4IBDwAwggEKAoIBAQCb6vW9eJd3
3cVnrT5nUKTKd7REl07UZ6+NukIF+kEoERhS/lyV4fdXHz5EwJnaniKBhBuY25W8
00laKQDknY9jWrEAXirEv51mDhjypny3X/SW44snuJPM/CtSNFv8i6x2gh4MPo47
eJhqNYjBUiaBXOEFqOJlfMbQ1ACknSxBifJFbR1YwPMVdV2yw+6syApzGaT4xVcZ
ke2nlJoezR9UqtujOavnJUpB8JJ3GPq672N9C2X+HOH5cDb4Qk4H6Eelf/FHFt0I
W0XhzIwmqKEd9I1rX3TLlDhNpnhpjzSe4uefAgbsD6baMmUK312Rw25DehabyetS
cK7ISJWGPhYnAgMBAAGjggGcMIIBmDAfBgNVHSMEGDAWgBTiD2ZMICx4ISqPKdv5
mfYAhsSv4TAdBgNVHQ4EFgQUyJuqWPNWV5zFcTpkwZ0LXnlEllYwDgYDVR0PAQH/
BAQDAgWgMAwGA1UdEwEB/wQCMAAwGgYDVR0RBBMwEYIPd3d3LmV4YW1wbGUuY29t
MGIGCCsGAQUFBwEBBFYwVDAoBggrBgEFBQcwAoYcaHR0cDovL2NhLmV4YW1wbGUu
Y29tL2NhLmNydDAoBggrBgEFBQcwAYYcaHR0cDovL29jc3AuZXhhbXBsZS5jb20v
b2NzcDARBgNVHSAECjAIMAYGBCoDBAUwHQYDVR0lBBYwFAYIKwYBBQUHAwEGCCsG
AQUFBwMCMIGFBggrBgEFBQcBAwR5MHcwCAYGBACORgEBMFYGBgQAjkYBBTBMMCQW
Hmh0dHA6Ly9leGFtcGxlLmNvbS9lbi90ZXN0LnBkZhMCRU4wJBYeaHR0cDovL2V4
YW1wbGUuY29tL2RlL3Rlc3QucGRmEwJkZTATBgYEAI5GAQYwCQYHBACORgEGAzAN
BgkqhkiG9w0BAQsFAAOCAQEACrf1qFJ+R/m/6fnBUPGm04EhRoRk/hR5D26oUF43
q2I3w1Ha6lGqSp9vYCTNfaRqtWZhnTs4giwUhZazDCM1HMa8LtcJcaN7a0WW0eDG
ifsK4XZ+LoPLLteR6ykVpxvaa/H3/EaFpDB6WnYEXuKy9UqbwVRUxB2HnTVapexf
9uX5rfN/bSmuUgMHfmfsC6T5mHZm8Z+FGeHV3s01eUayYcUDNSRw/++ChK/2b5Xd
MRm+zar20EEb1k6oCNvK9frWR3e/+Fpq59jJC1eRHk0BTp5tYt20uLgF6WpAeEzA
JgyZrWpyHEIrTULPY5rWuM/TrhFH6TRzfhNcuN7JQrcZsg==
-----END CERTIFICATE-----
