Certificate:
    Data:
        Version: 3 (0x2)
        Serial Number:
            0b:a7:29:80:c7:a2:24:51:07:50:2a:90:8d
        Signature Algorithm: sha256WithRSAEncryption
        Issuer: CN = Lint Sub-CA, OU = Test, O = MTG, C = DE
        Validity
            Not Before: Nov 21 03:21:29 2018 GMT
            Not After : Nov 21 03:21:29 2048 GMT
        Subject: CN = www.example.com, OU = Test, O = MTG, L = Darmstadt, ST = Hessen, C = DE
        Subject Public Key Info:
            Public Key Algorithm: rsaEncryption
                RSA Public-Key: (2048 bit)
                Modulus:
                    00:d2:47:99:12:e5:33:bd:47:eb:a1:ba:d0:b0:21:
                    75:c5:2b:ad:5d:d1:7a:e2:0a:0e:cd:1f:42:0a:2f:
                    ff:38:74:96:d6:c1:74:85:16:2d:c1:33:c1:bf:17:
                    b8:fc:aa:2e:63:20:5d:6c:4b:89:c3:32:87:e6:28:
                    5a:15:62:58:30:22:41:9e:9c:b5:a4:ee:39:2c:98:
                    ee:90:2e:c7:e3:4f:9b:ba:d6:a8:87:a6:b3:90:50:
                    8f:53:8d:53:63:7e:da:36:df:81:10:1e:6d:dd:6d:
                    45:f8:6f:c7:45:5d:1c:66:b7:68:0d:e9:d7:e1:e0:
                    68:a6:ef:ef:50:63:18:b3:41:0e:42:9c:17:6d:d9:
                    da:65:9e:f8:3e:a0:92:d5:59:81:f3:1a:c9:f7:47:
                    32:01:48:6b:a7:ca:84:c3:a1:3b:a1:3e:d2:d9:4f:
                    c7:87:c3:08:67:8b:88:ff:87:92:c1:bc:be:48:d9:
                    cd:a3:00:ee:3d:4c:6b:50:3a:a9:fb:b2:7c:f6:35:
                    78:e6:c9:f9:9d:d4:c9:1f:63:e0:f3:6e:a2:0c:83:
                    81:2a:29:65:30:27:a1:fe:74:d8:8d:a3:68:4e:3b:
                    dd:99:15:7e:55:f4:aa:c0:f4:89:e5:3e:cf:66:ab:
                    25:69:a9:82:d5:35:08:3f:d2:b5:0c:9e:fe:43:2a:
                    62:6d
                Exponent: 65537 (0x10001)
        X509v3 extensions:
            X509v3 Authority Key Identifier: 
                keyid:E2:0F:66:4C:20:2C:78:21:2A:8F:29:DB:F9:99:F6:00:86:C4:AF:E1

            X509v3 Subject Key Identifier: 
                18:C8:77:53:F8:49:C3:57:53:F6:0D:68:96:D7:F0:A0:D2:D8:56:4B
            X509v3 Key Usage: critical
                Digital Signature, Key Encipherment
            X509v3 Basic Constraints: critical
                CA:FALSE
            X509v3 Subject Alternative Name: 
                DNS:www.example.com
            Authority Information Access: 
                CA Issuers - URI:http://ca.example.com/ca.crt
                OCSP - URI:http://ocsp.example.com/ocsp

            X509v3 Certificate Policies: 
                Policy: 1.2.3.4.5

            X509v3 Extended Key Usage: 
                TLS Web Server Authentication, TLS Web Client Authentication
            qcStatements: 
                0Q0......F..00.....F..0&0$..http://example.com/de/test.pdf..de0......F..0......F...
    Signature Algorithm: sha256WithRSAEncryption
         95:3a:a9:9e:ef:8c:a6:34:8a:08:23:01:01:85:ba:62:4c:6a:
         80:c2:d7:5e:b7:fa:84:f7:11:a7:65:5f:c5:6b:d0:d7:18:ad:
         6e:5b:d5:f6:cb:06:62:91:60:de:ed:33:ee:5f:aa:de:75:67:
         40:bb:e9:7f:a3:11:db:ed:28:b4:c6:93:9e:f6:3d:94:cb:13:
         d9:56:50:ef:5c:f7:eb:01:b8:a9:28:2e:2f:42:fb:2e:ba:9e:
         cd:74:a1:1b:dd:e6:72:6d:ef:1a:8d:49:28:6d:9a:b1:8e:e1:
         7e:6c:6d:5f:ab:26:23:25:71:3f:0f:4a:54:a9:10:7c:46:c2:
         ba:51:b1:45:82:c9:43:e7:80:af:ba:51:76:9e:2e:e1:6a:01:
         5f:7c:4a:40:ae:36:41:c0:da:fa:f7:61:ea:39:63:d0:c7:d1:
         df:82:ef:ca:a7:b3:3e:4b:36:eb:e3:e2:d6:53:71:1f:6d:1a:
         c9:40:b7:f9:eb:d4:5d:dd:d3:39:bb:a6:d9:db:f8:8a:f9:66:
         21:e2:c2:44:bf:6d:a1:94:68:d0:5c:5a:76:f1:19:61:78:b5:
         2c:0c:37:dd:c8:43:48:dd:07:27:88:e6:ac:5b:c3:a1:02:5c:
         0f:1d:76:b4:47:59:d0:6c:72:9a:bc:b3:01:a6:f1:0b:9d:86:
         64:6f:d0:9b
-----BEGIN CERTIFICATE-----
MIIEpzCCA4+gAwIBAgINC6cpgMeiJFEHUCqQjTANBgkqhkiG9w0BAQsFADBAMRQw
EgYDVQQDDAtMaW50IFN1Yi1DQTENMAsGA1UECwwEVGVzdDEMMAoGA1UECgwDTVRH
MQswCQYDVQQGEwJERTAeFw0xODExMjEwMzIxMjlaFw00ODExMjEwMzIxMjlaMGkx
GDAWBgNVBAMMD3d3dy5leGFtcGxlLmNvbTENMAsGA1UECwwEVGVzdDEMMAoGA1UE
CgwDTVRHMRIwEAYDVQQHDAlEYXJtc3RhZHQxDzANBgNVBAgMBkhlc3NlbjELMAkG
A1UEBhMCREUwggEiMA0GCSqGSIb3DQEBAQUAA4IBDwAwggEKAoIBAQDSR5kS5TO9
R+uhutCwIXXFK61d0XriCg7NH0IKL/84dJbWwXSFFi3BM8G/F7j8qi5jIF1sS4nD
MofmKFoVYlgwIkGenLWk7jksmO6QLsfjT5u61qiHprOQUI9TjVNjfto234EQHm3d
bUX4b8dFXRxmt2gN6dfh4Gim7+9QYxizQQ5CnBdt2dplnvg+oJLVWYHzGsn3RzIB
SGunyoTDoTuhPtLZT8eHwwhni4j/h5LBvL5I2c2jAO49TGtQOqn7snz2NXjmyfmd
1MkfY+DzbqIMg4EqKWUwJ6H+dNiNo2hOO92ZFX5V9KrA9InlPs9mqyVpqYLVNQg/
0rUMnv5DKmJtAgMBAAGjggF1MIIBcTAfBgNVHSMEGDAWgBTiD2ZMICx4ISqPKdv5
mfYAhsSv4TAdBgNVHQ4EFgQUGMh3U/hJw1dT9g1oltfwoNLYVkswDgYDVR0PAQH/
BAQDAgWgMAwGA1UdEwEB/wQCMAAwGgYDVR0RBBMwEYIPd3d3LmV4YW1wbGUuY29t
MGIGCCsGAQUFBwEBBFYwVDAoBggrBgEFBQcwAoYcaHR0cDovL2NhLmV4YW1wbGUu
Y29tL2NhLmNydDAoBggrBgEFBQcwAYYcaHR0cDovL29jc3AuZXhhbXBsZS5jb20v
b2NzcDARBgNVHSAECjAIMAYGBCoDBAUwHQYDVR0lBBYwFAYIKwYBBQUHAwEGCCsG
AQUFBwMCMF8GCCsGAQUFBwEDBFMwUTAIBgYEAI5GAQEwMAYGBACORgEFMCYwJBYe
aHR0cDovL2V4YW1wbGUuY29tL2RlL3Rlc3QucGRmEwJkZTATBgYEAI5GAQYwCQYH
BACORgEGAzANBgkqhkiG9w0BAQsFAAOCAQEAlTqpnu+MpjSKCCMBAYW6YkxqgMLX
Xrf6hPcRp2VfxWvQ1xitblvV9ssGYpFg3u0z7l+q3nVnQLvpf6MR2+0otMaTnvY9
lMsT2VZQ71z36wG4qSguL0L7LrqezXShG93mcm3vGo1JKG2asY7hfmxtX6smIyVx
Pw9KVKkQfEbCulGxRYLJQ+eAr7pRdp4u4WoBX3xKQK42QcDa+vdh6jlj0MfR34Lv
yqezPks26+Pi1lNxH20ayUC3+evUXd3TObum2dv4ivlmIeLCRL9toZRo0FxadvEZ
YXi1LAw33chDSN0HJ4jmrFvDoQJcDx12tEdZ0GxymryzAabxC52GZG/Qmw==
-----END CERTIFICATE-----
