Certificate:
    Data:
        Version: 3 (0x2)
        Serial Number:
            0e:92:ba:23:65:f0:cf:cd:2d:9b:31:f8:a3
        Signature Algorithm: sha256WithRSAEncryption
        Issuer: CN = Lint Sub-CA, OU = Test, O = MTG, C = DE
        Validity
            Not Before: Nov 21 03:21:33 2018 GMT
            Not After : Nov 21 03:21:33 2048 GMT
        Subject: CN = www.example.com, OU = Test, O = MTG, L = Darmstadt, ST = Hessen, C = DE
        Subject Public Key Info:
            Public Key Algorithm: rsaEncryption
                RSA Public-Key: (2048 bit)
                Modulus:
                    00:9d:7e:3d:42:8d:18:fc:05:c6:65:d8:7a:45:2c:
                    7a:25:a6:7c:83:cb:21:f8:d3:fd:42:41:24:81:53:
                    eb:59:48:d8:f8:9f:6e:ec:d0:e9:1f:b9:b9:8d:15:
                    59:96:50:46:ee:27:d9:96:af:6a:4b:c1:f3:89:a2:
                    93:be:51:ec:71:14:49:47:ce:9e:86:da:7c:a4:5b:
                    c1:cd:e3:5d:ad:56:6a:4b:4b:04:be:87:37:71:b8:
                    f7:e3:01:6d:4f:82:3b:d9:53:cf:2d:7a:58:0b:48:
                    32:50:7f:25:c1:06:e4:d0:7f:0b:0b:cc:64:18:f3:
                    fb:98:71:74:c3:33:db:94:92:4a:96:b4:bc:5c:15:
                    32:82:8d:af:ce:81:ed:37:f1:39:0a:26:4c:f2:4f:
                    30:23:8b:73:b2:6a:6f:eb:67:8c:5b:36:73:09:04:
                    19:fa:82:62:8f:0b:ae:5d:cf:11:9a:6c:13:07:43:
                    b2:e2:62:56:fa:ef:c6:fa:e4:5f:7a:e9:ba:f6:55:
                    0e:22:d0:6c:71:7d:92:39:67:00:40:f8:49:64:41:
                    41:7e:0e:b8:cf:40:cb:6d:61:2d:6d:c1:d7:b2:86:
                    d6:da:dd:98:ed:c7:7f:20:82:a3:03:a7:35:ef:72:
                    f2:96:fe:26:18:35:76:86:af:db:c6:23:26:fb:d9:
                    7c:7d
                Exponent: 65537 (0x10001)
        X509v3 extensions:
            X509v3 Authority Key Identifier: 
                keyid:E2:0F:66:4C:20:2C:78:21:2A:8F:29:DB:F9:99:F6:00:86:C4:AF:E1

            X509v3 Subject Key Identifier: 
                93:C7:34:F9:C0:AF:BC:EB:FE:90:C9:3E:74:4A:13:36:E0:40:AD:A2
            X509v3 Key Usage: critical
                Digital Signature, Key Encipherment
            X509v3 Basic Constraints: critical
                CA:FALSE
            X509v3 Subject Alternative Name: 
                DNS:www.example.com
            Authority Information Access: 
                CA Issuers - URI:http://ca.example.com/ca.crt
                OCSP - URI:http://ocsp.example.com/ocsp

            X509v3 Certificate Policies: 
                Policy: 1.2.3.4.5

            X509v3 Extended Key Usage: 
                TLS Web Server Authentication, TLS Web Client Authentication
            qcStatements: 
                0u0......F..0V.....F..0L0$..http://example.com/en/test.pdf..en0$..http://example.com/de/test.pdf..de0......F.......F...
    Signature Algorithm: sha256WithRSAEncryption
         2c:47:d5:a1:02:08:59:b5:91:6e:bb:e4:c3:24:67:cb:e9:39:
         81:31:93:8a:74:e1:ec:6c:1e:c7:d4:27:61:99:59:08:19:d8:
         21:66:9f:0c:4d:2d:2b:a0:cf:1d:02:98:f1:4c:8f:fa:29:b3:
         45:b5:76:1c:f6:de:48:f3:ac:e6:c1:6f:e7:18:f0:95:56:0a:
         ab:f9:f7:28:83:ed:a6:f7:f5:04:13:16:2f:7d:51:02:4f:c5:
         71:80:b9:45:85:1e:92:28:05:75:f0:94:d9:01:c1:b4:9d:c1:
         3f:c2:42:cc:bc:71:1e:66:04:22:3b:f2:5b:7b:12:07:ee:98:
         bd:20:d8:18:5b:c2:cf:6e:a5:0f:1b:74:bc:c5:d4:f4:c8:3f:
         b4:44:26:b0:9e:7c:e2:cf:77:50:65:5e:38:c2:7a:8e:39:d8:
         5b:5e:73:31:71:83:29:e0:c8:f2:11:5d:83:e9:12:fb:83:d1:
         ec:ae:ed:2d:f8:be:50:ff:af:fa:f1:e1:71:ba:5a:64:ce:1f:
         d9:ed:8c:a0:29:ce:1b:61:3e:e7:24:29:d1:c6:a3:13:d4:b9:
         c2:6c:84:66:be:32:ed:e8:b2:e3:94:47:9c:3a:b7:c1:da:f3:
         ad:28:19:14:ae:dc:b7:2c:7f:a9:c1:b9:16:cd:46:a0:ea:11:
         20:64:11:eb
-----BEGIN CERTIFICATE-----
MIIEzDCCA7SgAwIBAgINDpK6I2Xwz80tmzH4ozANBgkqhkiG9w0BAQsFADBAMRQw
EgYDVQQDDAtMaW50IFN1Yi1DQTENMAsGA1UECwwEVGVzdDEMMAoGA1UECgwDTVRH
MQswCQYDVQQGEwJERTAeFw0xODExMjEwMzIxMzNaFw00ODExMjEwMzIxMzNaMGkx
GDAWBgNVBAMMD3d3dy5leGFtcGxlLmNvbTENMAsGA1UECwwEVGVzdDEMMAoGA1UE
CgwDTVRHMRIwEAYDVQQHDAlEYXJtc3RhZHQxDzANBgNVBAgMBkhlc3NlbjELMAkG
A1UEBhMCREUwggEiMA0GCSqGSIb3DQEBAQUAA4IBDwAwggEKAoIBAQCdfj1CjRj8
BcZl2HpFLHolpnyDyyH40/1CQSSBU+tZSNj4n27s0OkfubmNFVmWUEbuJ9mWr2pL
wfOJopO+UexxFElHzp6G2nykW8HN412tVmpLSwS+hzdxuPfjAW1PgjvZU88telgL
SDJQfyXBBuTQfwsLzGQY8/uYcXTDM9uUkkqWtLxcFTKCja/Oge038TkKJkzyTzAj
i3Oyam/rZ4xbNnMJBBn6gmKPC65dzxGabBMHQ7LiYlb678b65F966br2VQ4i0Gxx
fZI5ZwBA+ElkQUF+DrjPQMttYS1twdeyhtba3Zjtx38ggqMDpzXvcvKW/iYYNXaG
r9vGIyb72Xx9AgMBAAGjggGaMIIBljAfBgNVHSMEGDAWgBTiD2ZMICx4ISqPKdv5
mfYAhsSv4TAdBgNVHQ4EFgQUk8c0+cCvvOv+kMk+dEoTNuBAraIwDgYDVR0PAQH/
BAQDAgWgMAwGA1UdEwEB/wQCMAAwGgYDVR0RBBMwEYIPd3d3LmV4YW1wbGUuY29t
MGIGCCsGAQUFBwEBBFYwVDAoBggrBgEFBQcwAoYcaHR0cDovL2NhLmV4YW1wbGUu
Y29tL2NhLmNydDAoBggrBgEFBQcwAYYcaHR0cDovL29jc3AuZXhhbXBsZS5jb20v
b2NzcDARBgNVHSAECjAIMAYGBCoDBAUwHQYDVR0lBBYwFAYIKwYBBQUHAwEGCCsG
AQUFBwMCMIGDBggrBgEFBQcBAwR3MHUwCAYGBACORgEBMFYGBgQAjkYBBTBMMCQW
Hmh0dHA6Ly9leGFtcGxlLmNvbS9lbi90ZXN0LnBkZhMCZW4wJBYeaHR0cDovL2V4
YW1wbGUuY29tL2RlL3Rlc3QucGRmEwJkZTARBgYEAI5GAQYGBwQAjkYBBgMwDQYJ
KoZIhvcNAQELBQADggEBACxH1aECCFm1kW675MMkZ8vpOYExk4p04exsHsfUJ2GZ
WQgZ2CFmnwxNLSugzx0CmPFMj/ops0W1dhz23kjzrObBb+cY8JVWCqv59yiD7ab3
9QQTFi99UQJPxXGAuUWFHpIoBXXwlNkBwbSdwT/CQsy8cR5mBCI78lt7EgfumL0g
2Bhbws9upQ8bdLzF1PTIP7REJrCefOLPd1BlXjjCeo452FteczFxgyngyPIRXYPp
EvuD0eyu7S34vlD/r/rx4XG6WmTOH9ntjKApzhthPuckKdHGoxPUucJshGa+Mu3o
suOUR5w6t8Ha860oGRSu3Lcsf6nBuRbNRqDqESBkEes=
-----END CERTIFICATE-----
