Certificate:
    Data:
        Version: 3 (0x2)
        Serial Number:
            1e:fd:a7:3c:4f:16:eb:57:af:70:b9:4f
        Signature Algorithm: sha256WithRSAEncryption
        Issuer: C = PK, O = Development, CN = Development Sub CA
        Validity
            Not Before: Sep 25 09:31:18 2019 GMT
            Not After : Oct 26 09:31:18 2029 GMT
        Subject: C = PK, O = Development, serialNumber = 578611675, GN = Muhammad Bilal, SN = Ashraf, CN = Muhammad Bilal Ashraf
        Subject Public Key Info:
            Public Key Algorithm: rsaEncryption
                RSA Public-Key: (2048 bit)
                Modulus:
                    00:fe:68:4a:13:03:61:d5:0c:0f:5a:fe:6a:da:af:
                    0f:b1:e5:5c:a3:13:21:c5:a2:8c:8a:94:94:9a:16:
                    50:9c:8c:9a:c8:d7:41:11:fc:10:aa:f9:fc:4f:62:
                    6b:3d:54:25:87:eb:f2:04:0b:d9:ff:18:fc:e7:16:
                    a3:0b:be:85:46:bc:ee:64:cc:c2:df:8f:fd:de:cd:
                    16:74:c5:f6:5f:5b:68:cf:0d:03:3e:01:2d:1b:b5:
                    71:1a:7b:8b:75:f6:6d:45:04:f0:e0:a3:9d:2f:74:
                    0e:ad:27:88:4a:62:ae:b0:5a:81:3c:5b:1e:35:0f:
                    81:74:e2:70:68:f7:fe:d9:c9:95:cb:7c:1f:97:52:
                    6a:50:2c:f9:76:8c:66:89:91:fa:ae:4c:61:2d:c7:
                    9a:8c:fb:0f:e9:62:3d:33:a1:28:1a:bc:b0:55:e9:
                    c3:e5:0d:25:ac:b4:57:62:86:13:c3:33:ed:97:9a:
                    10:cf:49:b0:89:83:5b:46:e6:80:a6:22:4b:ba:78:
                    0e:8f:26:2e:f5:67:5f:d5:28:c9:0e:62:97:0c:61:
                    e4:0c:c7:ee:f5:b1:80:9a:73:3c:6c:de:50:c0:38:
                    d1:4b:15:c9:a9:fa:64:41:a7:1f:b3:b8:9e:df:a7:
                    d7:b6:20:c5:15:b8:42:cf:b3:48:58:2f:ed:f3:0d:
                    4b:43
                Exponent: 65537 (0x10001)
        X509v3 extensions:
            X509v3 Key Usage: critical
                Digital Signature, Non Repudiation
            X509v3 Extended Key Usage: 
                E-mail Protection
            X509v3 Basic Constraints: critical
                CA:FALSE
            X509v3 Subject Key Identifier: 
                3B:98:64:CA:C0:14:92:2B:AA:F9:E5:1D:71:F7:43:6B:C9:F6:F7:29
            X509v3 Authority Key Identifier: 
                keyid:30:CD:83:A7:36:AC:A5:35:FF:21:1B:37:40:6E:B2:CF:5F:1C:03:2F

            Authority Information Access: 
                OCSP - URI:http://dev.com/ocsp
                CA Issuers - URI:http://dev.com/ca.crt

            X509v3 Subject Alternative Name: 
                email:bilal.ashraf@gmail.com
            X509v3 CRL Distribution Points: 

                Full Name:
                  URI:http://dev.com/ca.crl

            X509v3 Certificate Policies: 
                Policy: 1.3.7.8.9
                  CPS: https://www.dev.com/repository/

            qcStatements: 
                0..0......F..0......F....
0......F..0...EUR..
...0......F..00.....F..0&0$..https://dev.com/pds/en/pds.pdf..en0%.....F..0......F........F........F...
    Signature Algorithm: sha256WithRSAEncryption
         77:9c:08:f7:f4:0b:16:93:3a:f1:cf:fe:c6:48:12:1b:85:ac:
         db:d6:8e:7b:34:8c:c5:2a:62:9c:64:dc:27:9e:79:12:6b:4f:
         94:ea:b5:0c:bd:ab:ea:80:b7:e3:5c:9f:d7:c3:5c:a0:cf:3b:
         76:a4:93:11:0d:3b:87:ac:30:45:84:67:4f:f2:08:44:d1:6a:
         d6:f2:5f:63:95:e1:bb:38:7e:a3:3a:73:1c:a6:41:1a:f7:4a:
         36:b4:10:a1:00:c1:b2:01:5f:28:77:6b:c0:49:62:34:55:72:
         3b:f7:7c:96:6d:2c:c1:77:ed:1b:37:68:67:f0:13:c0:85:ed:
         c4:0b:19:68:42:20:dc:29:16:ae:3b:af:4a:20:dc:3d:85:38:
         b1:1f:f4:a2:96:30:e2:a0:34:10:05:87:39:60:09:1f:ba:8b:
         58:3e:34:ec:4a:1b:0e:e9:a9:ce:5e:7f:04:c5:14:6b:81:fc:
         9f:45:17:55:9d:51:ed:33:6c:25:a6:4a:6d:07:f5:09:7c:82:
         67:da:6a:30:ef:39:85:48:21:0a:91:46:fc:b2:a5:48:bd:a7:
         01:7f:c0:04:16:98:70:9c:f8:5d:aa:04:ac:90:73:9d:12:59:
         6d:2d:9c:51:b6:b1:59:53:01:50:be:02:d9:b4:17:1d:4d:f0:
         ea:1d:3b:d2
-----BEGIN CERTIFICATE-----
MIIFRjCCBC6gAwIBAgIMHv2nPE8W61evcLlPMA0GCSqGSIb3DQEBCwUAMEAxCzAJ
BgNVBAYTAlBLMRQwEgYDVQQKEwtEZXZlbG9wbWVudDEbMBkGA1UEAxMSRGV2ZWxv
cG1lbnQgU3ViIENBMB4XDTE5MDkyNTA5MzExOFoXDTI5MTAyNjA5MzExOFowgYEx
CzAJBgNVBAYTAlBLMRQwEgYDVQQKEwtEZXZlbG9wbWVudDESMBAGA1UEBRMJNTc4
NjExNjc1MRcwFQYDVQQqEw5NdWhhbW1hZCBCaWxhbDEPMA0GA1UEBBMGQXNocmFm
MR4wHAYDVQQDExVNdWhhbW1hZCBCaWxhbCBBc2hyYWYwggEiMA0GCSqGSIb3DQEB
AQUAA4IBDwAwggEKAoIBAQD+aEoTA2HVDA9a/mrarw+x5VyjEyHFooyKlJSaFlCc
jJrI10ER/BCq+fxPYms9VCWH6/IEC9n/GPznFqMLvoVGvO5kzMLfj/3ezRZ0xfZf
W2jPDQM+AS0btXEae4t19m1FBPDgo50vdA6tJ4hKYq6wWoE8Wx41D4F04nBo9/7Z
yZXLfB+XUmpQLPl2jGaJkfquTGEtx5qM+w/pYj0zoSgavLBV6cPlDSWstFdihhPD
M+2XmhDPSbCJg1tG5oCmIku6eA6PJi71Z1/VKMkOYpcMYeQMx+71sYCaczxs3lDA
ONFLFcmp+mRBpx+zuJ7fp9e2IMUVuELPs0hYL+3zDUtDAgMBAAGjggH8MIIB+DAO
BgNVHQ8BAf8EBAMCBsAwEwYDVR0lBAwwCgYIKwYBBQUHAwQwDAYDVR0TAQH/BAIw
ADAdBgNVHQ4EFgQUO5hkysAUkiuq+eUdcfdDa8n29ykwHwYDVR0jBBgwFoAUMM2D
pzaspTX/IRs3QG6yz18cAy8wUgYIKwYBBQUHAQEERjBEMB8GCCsGAQUFBzABhhNo
dHRwOi8vZGV2LmNvbS9vY3NwMCEGCCsGAQUFBzAChhVodHRwOi8vZGV2LmNvbS9j
YS5jcnQwIQYDVR0RBBowGIEWYmlsYWwuYXNocmFmQGdtYWlsLmNvbTAmBgNVHR8E
HzAdMBugGaAXhhVodHRwOi8vZGV2LmNvbS9jYS5jcmwwQAYDVR0gBDkwNzA1BgQr
BwgJMC0wKwYIKwYBBQUHAgEWH2h0dHBzOi8vd3d3LmRldi5jb20vcmVwb3NpdG9y
eS8wgaEGCCsGAQUFBwEDBIGUMIGRMAgGBgQAjkYBATALBgYEAI5GAQMCAQowFQYG
BACORgECMAsTA0VVUgIBCgIBAjAIBgYEAI5GAQQwMAYGBACORgEFMCYwJBYeaHR0
cHM6Ly9kZXYuY29tL3Bkcy9lbi9wZHMucGRmEwJlbjAlBgYEAI5GAQYwGwYHBACO
RgEGAQYHBACORgEGAgYHBACORgEGAzANBgkqhkiG9w0BAQsFAAOCAQEAd5wI9/QL
FpM68c/+xkgSG4Ws29aOezSMxSpinGTcJ555EmtPlOq1DL2r6oC341yf18NcoM87
dqSTEQ07h6wwRYRnT/IIRNFq1vJfY5Xhuzh+ozpzHKZBGvdKNrQQoQDBsgFfKHdr
wEliNFVyO/d8lm0swXftGzdoZ/ATwIXtxAsZaEIg3CkWrjuvSiDcPYU4sR/0opYw
4qA0EAWHOWAJH7qLWD407EobDumpzl5/BMUUa4H8n0UXVZ1R7TNsJaZKbQf1CXyC
Z9pqMO85hUghCpFG/LKlSL2nAX/ABBaYcJz4XaoErJBznRJZbS2cUbaxWVMBUL4C
2bQXHU3w6h070g==
-----END CERTIFICATE-----
