Certificate:
    Data:
        Version: 3 (0x2)
        Serial Number:
            08:78:3d:db:ab:92:a9:da:7f:21:f8:b5:c9
        Signature Algorithm: sha256WithRSAEncryption
        Issuer: CN = Lint Sub-CA, OU = Test, O = MTG, C = DE
        Validity
            Not Before: Nov 21 03:21:33 2018 GMT
            Not After : Nov 21 03:21:33 2048 GMT
        Subject: CN = www.example.com, OU = Test, O = MTG, L = Darmstadt, ST = Hessen, C = DE
        Subject Public Key Info:
            Public Key Algorithm: rsaEncryption
                RSA Public-Key: (2048 bit)
                Modulus:
                    00:a4:67:f9:93:03:19:6c:da:4d:4b:0c:d3:9b:e8:
                    43:19:d9:f0:fc:b1:65:52:9f:87:41:90:42:36:40:
                    b2:61:f0:ca:0a:10:d2:be:f6:8a:76:59:85:f7:2a:
                    c1:9b:75:c3:f5:81:78:7e:05:bf:1f:f1:3b:40:55:
                    c8:c6:02:e8:5f:9d:3f:cd:09:0e:58:61:ee:31:f0:
                    e8:91:b2:dc:a9:9c:62:15:2d:73:57:53:57:2f:44:
                    74:7b:bb:bc:36:f5:e6:22:bc:85:ac:54:0e:9a:d3:
                    22:f6:b1:7a:74:1b:19:54:2a:d3:ff:25:b4:6a:be:
                    bd:77:94:52:de:e8:95:14:8b:f2:44:b4:97:8c:fa:
                    7c:8a:47:51:0c:c1:8b:28:ed:9b:ad:92:d0:9b:80:
                    12:f4:4d:ca:23:4b:e4:85:40:2b:63:41:39:23:35:
                    72:03:a6:0b:75:77:3e:0b:24:52:d5:4e:52:d8:84:
                    e2:b2:26:f0:ec:c9:40:ff:4a:a2:92:75:e5:62:70:
                    a8:f6:8b:c1:1e:f1:59:e6:13:2d:2f:32:0c:26:79:
                    9e:08:bc:14:01:da:d4:74:e4:41:0c:d3:cc:56:1a:
                    0a:6b:2a:44:2a:43:79:48:1c:3c:c2:0e:8d:0f:f2:
                    a3:6f:37:67:01:a1:67:b2:d0:ba:6e:4d:53:4e:22:
                    ea:d5
                Exponent: 65537 (0x10001)
        X509v3 extensions:
            X509v3 Authority Key Identifier: 
                keyid:E2:0F:66:4C:20:2C:78:21:2A:8F:29:DB:F9:99:F6:00:86:C4:AF:E1

            X509v3 Subject Key Identifier: 
                6C:ED:36:B9:B2:01:77:DC:12:4A:93:DA:90:9C:66:E1:20:C5:13:AC
            X509v3 Key Usage: critical
                Digital Signature, Key Encipherment
            X509v3 Basic Constraints: critical
                CA:FALSE
            X509v3 Subject Alternative Name: 
                DNS:www.example.com
            Authority Information Access: 
                CA Issuers - URI:http://ca.example.com/ca.crt
                OCSP - URI:http://ocsp.example.com/ocsp

            X509v3 Certificate Policies: 
                Policy: 1.2.3.4.5

            X509v3 Extended Key Usage: 
                TLS Web Server Authentication, TLS Web Client Authentication
            qcStatements: 
                0.0......F.......F..0V.....F..0L0$..http://example.com/en/test.pdf..en0$..http://example.com/de/test.pdf..de0......F..0......F...
    Signature Algorithm: sha256WithRSAEncryption
         6b:a1:1a:50:64:2b:e2:e4:11:d0:81:dc:f3:96:db:75:09:4b:
         30:23:df:9d:f8:b3:4d:ef:4c:a5:75:0f:71:13:02:4d:73:57:
         cb:49:13:bc:52:fc:e2:0b:8a:6c:99:e7:0e:89:79:42:40:6e:
         68:bb:c9:bf:f2:18:97:7f:eb:de:fa:53:3e:ec:6b:1d:2e:46:
         c1:0b:cd:b6:8f:02:3f:0f:d2:de:e5:09:e2:52:a4:6e:e1:e1:
         c8:69:3f:98:f8:94:27:5a:c0:0f:37:c4:2c:d5:94:24:d7:62:
         ca:19:da:45:0b:f0:42:12:14:70:ab:1f:2e:69:78:80:65:ef:
         d2:bc:13:7a:4f:28:fa:e4:7b:b9:af:a9:91:24:a4:88:ab:3d:
         fb:96:e7:fb:93:20:bd:cd:bd:e5:5a:5f:83:ab:ac:05:79:f7:
         bc:de:20:82:0c:66:4b:6b:f5:33:76:7a:b6:50:d4:d5:55:a8:
         1a:62:85:25:ec:ff:54:de:87:fe:42:8d:aa:5a:24:a2:26:44:
         9f:d6:82:bd:c9:68:09:cb:d6:87:1b:e5:d1:2e:4c:a5:ea:22:
         f4:80:a7:aa:60:1b:0c:ad:5e:1c:86:49:78:2c:f9:0d:74:7f:
         ce:a1:20:77:0b:98:6f:65:66:31:82:74:39:3d:46:29:b7:6a:
         8d:8c:93:f6
-----BEGIN CERTIFICATE-----
MIIE1zCCA7+gAwIBAgINCHg926uSqdp/Ifi1yTANBgkqhkiG9w0BAQsFADBAMRQw
EgYDVQQDDAtMaW50IFN1Yi1DQTENMAsGA1UECwwEVGVzdDEMMAoGA1UECgwDTVRH
MQswCQYDVQQGEwJERTAeFw0xODExMjEwMzIxMzNaFw00ODExMjEwMzIxMzNaMGkx
GDAWBgNVBAMMD3d3dy5leGFtcGxlLmNvbTENMAsGA1UECwwEVGVzdDEMMAoGA1UE
CgwDTVRHMRIwEAYDVQQHDAlEYXJtc3RhZHQxDzANBgNVBAgMBkhlc3NlbjELMAkG
A1UEBhMCREUwggEiMA0GCSqGSIb3DQEBAQUAA4IBDwAwggEKAoIBAQCkZ/mTAxls
2k1LDNOb6EMZ2fD8sWVSn4dBkEI2QLJh8MoKENK+9op2WYX3KsGbdcP1gXh+Bb8f
8TtAVcjGAuhfnT/NCQ5YYe4x8OiRstypnGIVLXNXU1cvRHR7u7w29eYivIWsVA6a
0yL2sXp0GxlUKtP/JbRqvr13lFLe6JUUi/JEtJeM+nyKR1EMwYso7ZutktCbgBL0
TcojS+SFQCtjQTkjNXIDpgt1dz4LJFLVTlLYhOKyJvDsyUD/SqKSdeVicKj2i8Ee
8VnmEy0vMgwmeZ4IvBQB2tR05EEM08xWGgprKkQqQ3lIHDzCDo0P8qNvN2cBoWey
0LpuTVNOIurVAgMBAAGjggGlMIIBoTAfBgNVHSMEGDAWgBTiD2ZMICx4ISqPKdv5
mfYAhsSv4TAdBgNVHQ4EFgQUbO02ubIBd9wSSpPakJxm4SDFE6wwDgYDVR0PAQH/
BAQDAgWgMAwGA1UdEwEB/wQCMAAwGgYDVR0RBBMwEYIPd3d3LmV4YW1wbGUuY29t
MGIGCCsGAQUFBwEBBFYwVDAoBggrBgEFBQcwAoYcaHR0cDovL2NhLmV4YW1wbGUu
Y29tL2NhLmNydDAoBggrBgEFBQcwAYYcaHR0cDovL29jc3AuZXhhbXBsZS5jb20v
b2NzcDARBgNVHSAECjAIMAYGBCoDBAUwHQYDVR0lBBYwFAYIKwYBBQUHAwEGCCsG
AQUFBwMCMIGOBggrBgEFBQcBAwSBgTB/MBAGBgQAjkYBAQYGBACORgEBMFYGBgQA
jkYBBTBMMCQWHmh0dHA6Ly9leGFtcGxlLmNvbS9lbi90ZXN0LnBkZhMCZW4wJBYe
aHR0cDovL2V4YW1wbGUuY29tL2RlL3Rlc3QucGRmEwJkZTATBgYEAI5GAQYwCQYH
BACORgEGAzANBgkqhkiG9w0BAQsFAAOCAQEAa6EaUGQr4uQR0IHc85bbdQlLMCPf
nfizTe9MpXUPcRMCTXNXy0kTvFL84guKbJnnDol5QkBuaLvJv/IYl3/r3vpTPuxr
HS5GwQvNto8CPw/S3uUJ4lKkbuHhyGk/mPiUJ1rADzfELNWUJNdiyhnaRQvwQhIU
cKsfLml4gGXv0rwTek8o+uR7ua+pkSSkiKs9+5bn+5Mgvc295Vpfg6usBXn3vN4g
ggxmS2v1M3Z6tlDU1VWoGmKFJez/VN6H/kKNqlokoiZEn9aCvcloCcvWhxvl0S5M
peoi9ICnqmAbDK1eHIZJeCz5DXR/zqEgdwuYb2VmMYJ0OT1GKbdqjYyT9g==
-----END CERTIFICATE-----
