Certificate:
    Data:
        Version: 3 (0x2)
        Serial Number:
            09:5e:77:d0:1c:3f:f2:13:28:52:4b:73:05
        Signature Algorithm: sha256WithRSAEncryption
        Issuer: CN = Lint Sub-CA, OU = Test, O = MTG, C = DE
        Validity
            Not Before: Nov 21 03:21:29 2018 GMT
            Not After : Nov 21 03:21:29 2048 GMT
        Subject: CN = www.example.com, OU = Test, O = MTG, L = Darmstadt, ST = Hessen, C = DE
        Subject Public Key Info:
            Public Key Algorithm: rsaEncryption
                RSA Public-Key: (2048 bit)
                Modulus:
                    00:d5:b4:45:92:89:1f:03:e8:a6:3f:95:f4:01:5a:
                    57:b8:d8:cc:09:dd:0a:10:60:bf:6c:86:cd:1f:94:
                    be:f0:91:27:24:b6:d3:ba:47:72:88:a9:91:3f:2c:
                    d7:19:38:72:c7:1d:d7:31:69:69:d2:65:01:8c:74:
                    1d:77:82:9d:87:35:f8:21:0f:0b:14:2d:19:9d:18:
                    00:fd:93:65:04:bb:24:d3:8d:61:0e:d6:85:e0:b6:
                    0d:f8:5f:19:4c:3f:b7:b0:b8:88:21:56:62:09:de:
                    12:70:e1:ff:ba:93:2d:da:0c:29:83:83:82:9a:c9:
                    7a:7e:00:2a:63:b0:b6:b8:1c:b2:b9:2a:41:8d:59:
                    aa:57:39:e8:46:ef:ef:9a:d8:70:6c:1e:81:af:7a:
                    1d:d2:2b:e6:c3:2f:4c:f2:51:7f:64:f7:09:ab:d1:
                    22:f0:8c:1e:05:e4:44:cd:14:15:45:ce:60:30:70:
                    8b:20:3a:5a:6a:66:37:5a:04:fa:ec:42:6a:a3:77:
                    84:9d:e9:de:2b:d8:89:5d:d3:94:d0:9f:fe:77:6b:
                    85:3a:e9:b2:4e:22:11:ea:5c:d1:99:81:65:b1:1a:
                    63:9f:c8:75:f5:83:33:35:13:d5:40:7e:a7:78:cd:
                    9f:ad:3e:af:b3:a9:8c:77:6c:ca:67:00:1e:c7:9b:
                    71:5f
                Exponent: 65537 (0x10001)
        X509v3 extensions:
            X509v3 Authority Key Identifier: 
                keyid:E2:0F:66:4C:20:2C:78:21:2A:8F:29:DB:F9:99:F6:00:86:C4:AF:E1

            X509v3 Subject Key Identifier: 
                F4:9A:6B:96:8C:7B:4B:6C:63:B6:D1:69:75:6E:3A:87:9F:A7:99:BD
            X509v3 Key Usage: critical
                Digital Signature, Key Encipherment
            X509v3 Basic Constraints: critical
                CA:FALSE
            X509v3 Subject Alternative Name: 
                DNS:www.example.com
            Authority Information Access: 
                CA Issuers - URI:http://ca.example.com/ca.crt
                OCSP - URI:http://ocsp.example.com/ocsp

            X509v3 Certificate Policies: 
                Policy: 1.2.3.4.5

            X509v3 Extended Key Usage: 
                TLS Web Server Authentication, TLS Web Client Authentication
            qcStatements: 
                0w0......F..0V.....F..0L0$..http://example.com/en/test.pdf..en0$..http://example.com/de/test.pdf..de0......F..0......F...
    Signature Algorithm: sha256WithRSAEncryption
         83:70:76:50:a1:11:8e:7b:00:27:45:1e:13:d3:f3:e2:97:9c:
         5f:da:45:db:8b:cf:d3:a0:c5:b7:04:ab:ae:8b:3c:0b:d5:c9:
         62:f6:3d:61:26:c6:35:4f:31:7b:97:a6:a0:ac:ea:bc:a9:a8:
         76:80:0d:28:17:88:4a:0b:f1:7b:f7:2d:5a:22:4c:72:9e:75:
         50:16:6a:c1:c0:f4:e4:5e:fc:35:95:1c:29:89:f1:fc:92:1a:
         1b:e7:55:d8:47:cb:c7:be:1e:df:d2:e4:71:10:4b:88:44:7e:
         72:bb:1c:cd:ab:f1:62:c9:d2:ba:15:58:fa:f7:aa:f1:59:94:
         80:a5:d1:73:71:ce:a5:b7:8b:99:5e:84:af:73:d4:ed:ca:c7:
         62:66:80:6b:e2:66:e3:29:b2:05:7e:b5:7e:72:2c:d7:1c:50:
         9c:e7:56:dc:28:5e:44:d0:c3:b4:db:ca:80:e4:77:5d:7b:5b:
         23:f1:90:c1:ed:b1:4b:f2:0c:9a:5c:c5:40:a1:77:36:94:92:
         74:c8:36:e0:f2:27:73:40:65:c4:d4:eb:75:ad:ff:98:11:34:
         79:6e:95:31:30:ae:60:3c:75:72:81:72:d9:b2:da:79:49:34:
         69:41:02:9f:45:0a:7d:bd:35:52:1d:97:60:44:8b:55:49:2b:
         31:4e:95:a3
-----BEGIN CERTIFICATE-----
MIIEzjCCA7agAwIBAgINCV530Bw/8hMoUktzBTANBgkqhkiG9w0BAQsFADBAMRQw
EgYDVQQDDAtMaW50IFN1Yi1DQTENMAsGA1UECwwEVGVzdDEMMAoGA1UECgwDTVRH
MQswCQYDVQQGEwJERTAeFw0xODExMjEwMzIxMjlaFw00ODExMjEwMzIxMjlaMGkx
GDAWBgNVBAMMD3d3dy5leGFtcGxlLmNvbTENMAsGA1UECwwEVGVzdDEMMAoGA1UE
CgwDTVRHMRIwEAYDVQQHDAlEYXJtc3RhZHQxDzANBgNVBAgMBkhlc3NlbjELMAkG
A1UEBhMCREUwggEiMA0GCSqGSIb3DQEBAQUAA4IBDwAwggEKAoIBAQDVtEWSiR8D
6KY/lfQBWle42MwJ3QoQYL9shs0flL7wkSckttO6R3KIqZE/LNcZOHLHHdcxaWnS
ZQGMdB13gp2HNfghDwsULRmdGAD9k2UEuyTTjWEO1oXgtg34XxlMP7ewuIghVmIJ
3hJw4f+6ky3aDCmDg4KayXp+ACpjsLa4HLK5KkGNWapXOehG7++a2HBsHoGveh3S
K+bDL0zyUX9k9wmr0SLwjB4F5ETNFBVFzmAwcIsgOlpqZjdaBPrsQmqjd4Sd6d4r
2Ild05TQn/53a4U66bJOIhHqXNGZgWWxGmOfyHX1gzM1E9VAfqd4zZ+tPq+zqYx3
bMpnAB7Hm3FfAgMBAAGjggGcMIIBmDAfBgNVHSMEGDAWgBTiD2ZMICx4ISqPKdv5
mfYAhsSv4TAdBgNVHQ4EFgQU9Jprlox7S2xjttFpdW46h5+nmb0wDgYDVR0PAQH/
BAQDAgWgMAwGA1UdEwEB/wQCMAAwGgYDVR0RBBMwEYIPd3d3LmV4YW1wbGUuY29t
MGIGCCsGAQUFBwEBBFYwVDAoBggrBgEFBQcwAoYcaHR0cDovL2NhLmV4YW1wbGUu
Y29tL2NhLmNydDAoBggrBgEFBQcwAYYcaHR0cDovL29jc3AuZXhhbXBsZS5jb20v
b2NzcDARBgNVHSAECjAIMAYGBCoDBAUwHQYDVR0lBBYwFAYIKwYBBQUHAwEGCCsG
AQUFBwMCMIGFBggrBgEFBQcBAwR5MHcwCAYGBACORgEBMFYGBgQAjkYBBTBMMCQW
Hmh0dHA6Ly9leGFtcGxlLmNvbS9lbi90ZXN0LnBkZhMCZW4wJBYeaHR0cDovL2V4
YW1wbGUuY29tL2RlL3Rlc3QucGRmEwJkZTATBgYEAI5GAQYwCQYHBACORgEGAzAN
BgkqhkiG9w0BAQsFAAOCAQEAg3B2UKERjnsAJ0UeE9Pz4pecX9pF24vP06DFtwSr
ros8C9XJYvY9YSbGNU8xe5emoKzqvKmodoANKBeISgvxe/ctWiJMcp51UBZqwcD0
5F78NZUcKYnx/JIaG+dV2EfLx74e39LkcRBLiER+crsczavxYsnSuhVY+veq8VmU
gKXRc3HOpbeLmV6Er3PU7crHYmaAa+Jm4ymyBX61fnIs1xxQnOdW3CheRNDDtNvK
gOR3XXtbI/GQwe2xS/IMmlzFQKF3NpSSdMg24PInc0BlxNTrda3/mBE0eW6VMTCu
YDx1coFy2bLaeUk0aUECn0UKfb01Uh2XYESLVUkrMU6Vow==
-----END CERTIFICATE-----
