Certificate:
    Data:
        Version: 3 (0x2)
        Serial Number:
            08:7f:28:a7:36:ab:27:3a:c3:8f:96:43:2e
        Signature Algorithm: sha256WithRSAEncryption
        Issuer: CN = Lint Sub-CA, OU = Test, O = MTG, C = DE
        Validity
            Not Before: Nov 21 03:21:30 2018 GMT
            Not After : Nov 21 03:21:30 2048 GMT
        Subject: CN = www.example.com, OU = Test, O = MTG, L = Darmstadt, ST = Hessen, C = DE
        Subject Public Key Info:
            Public Key Algorithm: rsaEncryption
                RSA Public-Key: (2048 bit)
                Modulus:
                    00:ab:22:d5:29:63:de:f9:76:0a:2b:79:43:44:06:
                    1f:59:11:50:03:52:78:5c:cc:d4:31:37:4c:0b:ab:
                    1c:d0:11:b8:e2:80:96:03:c1:5d:8a:69:53:c0:d4:
                    40:04:8d:60:dd:c2:a1:e3:1f:15:f4:24:d3:59:85:
                    c0:67:18:64:d1:71:0a:c5:7a:1a:4e:54:e3:18:86:
                    74:29:a1:94:ec:21:be:27:8b:98:44:74:8b:40:84:
                    4c:ed:d2:81:84:f4:e6:07:24:67:e7:a4:02:b2:82:
                    75:b3:34:42:2e:bb:e2:c2:d8:65:89:e5:da:0b:00:
                    f9:30:1a:96:02:cc:8a:bc:9c:d9:54:0a:b9:a2:76:
                    ce:88:3c:87:7a:01:5d:34:09:cd:bd:02:bb:4e:d1:
                    96:9c:15:4a:74:41:50:b6:86:6d:5f:1d:3f:4c:c2:
                    2a:3a:0e:39:bb:a5:75:69:e0:95:71:a7:ec:ce:84:
                    5f:9f:08:33:e3:d5:ea:04:12:3f:4e:1c:6b:05:5a:
                    ed:f2:65:fc:bd:d7:80:72:23:1a:1d:ca:52:f6:1b:
                    7a:75:51:0a:4b:69:a1:95:f4:c9:dc:1a:e6:7a:a9:
                    0e:e4:d2:ed:39:43:20:08:ce:23:86:9b:3e:4c:8f:
                    66:6c:88:5e:c8:19:09:9a:00:12:11:e6:6a:51:5d:
                    49:a1
                Exponent: 65537 (0x10001)
        X509v3 extensions:
            X509v3 Authority Key Identifier: 
                keyid:E2:0F:66:4C:20:2C:78:21:2A:8F:29:DB:F9:99:F6:00:86:C4:AF:E1

            X509v3 Subject Key Identifier: 
                A7:C6:14:07:3C:47:2F:B9:B9:CC:CF:17:74:5A:A3:23:15:56:A4:9D
            X509v3 Key Usage: critical
                Digital Signature, Key Encipherment
            X509v3 Basic Constraints: critical
                CA:FALSE
            X509v3 Subject Alternative Name: 
                DNS:www.example.com
            Authority Information Access: 
                CA Issuers - URI:http://ca.example.com/ca.crt
                OCSP - URI:http://ocsp.example.com/ocsp

            X509v3 Certificate Policies: 
                Policy: 1.2.3.4.5

            X509v3 Extended Key Usage: 
                TLS Web Server Authentication, TLS Web Client Authentication
            qcStatements: 
                0m0......F..0V.....F..0L0$..http://example.com/en/test.pdf..en0$..http://example.com/de/test.pdf..de0......F...
    Signature Algorithm: sha256WithRSAEncryption
         32:c2:20:06:2a:33:2c:0f:97:e2:cc:e7:dc:53:1f:43:05:31:
         d2:d4:9c:72:e9:78:7f:76:cc:b2:c0:be:2e:85:dd:f4:d3:42:
         7a:dd:b8:d2:d3:f0:57:39:98:86:af:79:65:12:fd:48:fe:c4:
         ba:71:01:b8:04:fb:f9:2e:20:a6:27:94:be:3b:46:44:87:46:
         89:4e:02:41:01:99:a0:58:f8:cf:70:3f:94:a4:39:54:77:62:
         ee:17:3f:27:52:cf:ed:06:68:cd:c5:a1:2a:ef:ae:8a:97:4b:
         2a:5d:81:f4:18:0f:38:76:0a:14:fc:4b:2a:a2:67:a7:39:ef:
         90:36:e4:23:65:1c:eb:8c:de:27:5a:23:17:40:b7:12:4e:b9:
         91:db:2a:8e:e1:8a:ee:63:fc:07:c1:b2:45:1f:aa:bb:8f:48:
         6b:c9:e1:06:2d:c7:44:b5:cf:52:a6:cb:7f:d8:ef:e4:60:54:
         69:ec:eb:96:86:be:a3:93:8c:15:ca:db:dd:aa:47:a9:02:ad:
         2a:f4:fa:a1:83:3a:3b:43:d2:96:bc:12:b0:db:e2:dc:b7:15:
         fd:01:56:14:5e:3a:0c:7a:62:02:9b:87:f3:b3:30:c6:3d:52:
         b2:fb:80:00:5c:50:6e:99:ed:12:c9:56:b4:e4:14:96:d5:83:
         8e:b5:e3:e0
-----BEGIN CERTIFICATE-----
MIIEwzCCA6ugAwIBAgINCH8opzarJzrDj5ZDLjANBgkqhkiG9w0BAQsFADBAMRQw
EgYDVQQDDAtMaW50IFN1Yi1DQTENMAsGA1UECwwEVGVzdDEMMAoGA1UECgwDTVRH
MQswCQYDVQQGEwJERTAeFw0xODExMjEwMzIxMzBaFw00ODExMjEwMzIxMzBaMGkx
GDAWBgNVBAMMD3d3dy5leGFtcGxlLmNvbTENMAsGA1UECwwEVGVzdDEMMAoGA1UE
CgwDTVRHMRIwEAYDVQQHDAlEYXJtc3RhZHQxDzANBgNVBAgMBkhlc3NlbjELMAkG
A1UEBhMCREUwggEiMA0GCSqGSIb3DQEBAQUAA4IBDwAwggEKAoIBAQCrItUpY975
dgoreUNEBh9ZEVADUnhczNQxN0wLqxzQEbjigJYDwV2KaVPA1EAEjWDdwqHjHxX0
JNNZhcBnGGTRcQrFehpOVOMYhnQpoZTsIb4ni5hEdItAhEzt0oGE9OYHJGfnpAKy
gnWzNEIuu+LC2GWJ5doLAPkwGpYCzIq8nNlUCrmids6IPId6AV00Cc29ArtO0Zac
FUp0QVC2hm1fHT9Mwio6Djm7pXVp4JVxp+zOhF+fCDPj1eoEEj9OHGsFWu3yZfy9
14ByIxodylL2G3p1UQpLaaGV9MncGuZ6qQ7k0u05QyAIziOGmz5Mj2ZsiF7IGQma
ABIR5mpRXUmhAgMBAAGjggGRMIIBjTAfBgNVHSMEGDAWgBTiD2ZMICx4ISqPKdv5
mfYAhsSv4TAdBgNVHQ4EFgQUp8YUBzxHL7m5zM8XdFqjIxVWpJ0wDgYDVR0PAQH/
BAQDAgWgMAwGA1UdEwEB/wQCMAAwGgYDVR0RBBMwEYIPd3d3LmV4YW1wbGUuY29t
MGIGCCsGAQUFBwEBBFYwVDAoBggrBgEFBQcwAoYcaHR0cDovL2NhLmV4YW1wbGUu
Y29tL2NhLmNydDAoBggrBgEFBQcwAYYcaHR0cDovL29jc3AuZXhhbXBsZS5jb20v
b2NzcDARBgNVHSAECjAIMAYGBCoDBAUwHQYDVR0lBBYwFAYIKwYBBQUHAwEGCCsG
AQUFBwMCMHsGCCsGAQUFBwEDBG8wbTAIBgYEAI5GAQEwVgYGBACORgEFMEwwJBYe
aHR0cDovL2V4YW1wbGUuY29tL2VuL3Rlc3QucGRmEwJlbjAkFh5odHRwOi8vZXhh
bXBsZS5jb20vZGUvdGVzdC5wZGYTAmRlMAkGBwQAjkYBBgMwDQYJKoZIhvcNAQEL
BQADggEBADLCIAYqMywPl+LM59xTH0MFMdLUnHLpeH92zLLAvi6F3fTTQnrduNLT
8Fc5mIaveWUS/Uj+xLpxAbgE+/kuIKYnlL47RkSHRolOAkEBmaBY+M9wP5SkOVR3
Yu4XPydSz+0GaM3FoSrvroqXSypdgfQYDzh2ChT8SyqiZ6c575A25CNlHOuM3ida
IxdAtxJOuZHbKo7hiu5j/AfBskUfqruPSGvJ4QYtx0S1z1Kmy3/Y7+RgVGns65aG
vqOTjBXK292qR6kCrSr0+qGDOjtD0pa8ErDb4ty3Ff0BVhReOgx6YgKbh/OzMMY9
UrL7gABcUG6Z7RLJVrTkFJbVg4614+A=
-----END CERTIFICATE-----
