Certificate:
    Data:
        Version: 3 (0x2)
        Serial Number:
            01:fe:6b:47:c7:09:10:a9:aa:fb:72:3e:37
        Signature Algorithm: sha256WithRSAEncryption
        Issuer: CN = Lint Sub-CA, OU = Test, O = MTG, C = DE
        Validity
            Not Before: Nov 21 03:21:29 2018 GMT
            Not After : Nov 21 03:21:29 2048 GMT
        Subject: CN = www.example.com, OU = Test, O = MTG, L = Darmstadt, ST = Hessen, C = DE
        Subject Public Key Info:
            Public Key Algorithm: rsaEncryption
                RSA Public-Key: (2048 bit)
                Modulus:
                    00:bb:4f:7d:3c:11:46:52:c0:fc:4f:b3:00:5e:6f:
                    d2:7d:dc:3d:58:1c:79:5a:d3:e0:c9:87:62:a8:e4:
                    75:9f:47:38:ac:02:bb:3d:9a:03:08:e7:13:69:0e:
                    4c:59:2a:f6:20:c5:60:35:44:51:d3:c2:28:5c:78:
                    6e:88:59:f7:7a:4a:13:e9:8a:b1:51:68:d2:10:9e:
                    be:fd:c2:e3:27:60:d2:ab:a4:df:27:b9:9d:df:44:
                    dc:93:30:40:16:ee:f4:f7:bb:3e:fd:b8:c7:1b:ad:
                    80:6d:4b:71:cc:82:73:a0:cf:3b:d7:ac:53:a7:f1:
                    05:68:0d:8a:0c:5d:55:4a:c0:09:71:36:36:ac:03:
                    49:94:97:ee:7c:cf:21:a3:7b:aa:85:81:e0:ee:c6:
                    7c:f2:aa:d4:a4:dc:f8:7b:49:fe:b2:b6:5c:af:fd:
                    ad:92:41:6f:33:18:52:28:51:d0:76:0b:d7:5f:86:
                    b7:f8:b6:c5:88:fe:fd:e0:81:44:01:75:7e:60:9d:
                    66:6b:c7:85:08:78:7b:aa:1d:31:77:24:8d:10:d5:
                    34:d3:63:2b:1c:30:00:02:c3:ad:b2:17:c7:02:36:
                    0f:98:6e:c4:bb:81:c7:b9:4f:19:d5:38:a7:5e:30:
                    78:53:9b:b7:00:a6:24:00:c9:4e:53:9d:6c:1a:2c:
                    02:55
                Exponent: 65537 (0x10001)
        X509v3 extensions:
            X509v3 Authority Key Identifier: 
                keyid:E2:0F:66:4C:20:2C:78:21:2A:8F:29:DB:F9:99:F6:00:86:C4:AF:E1

            X509v3 Subject Key Identifier: 
                FC:90:7C:0F:39:F4:67:D1:E2:89:F2:EE:03:E6:3D:B9:76:C9:42:FA
            X509v3 Key Usage: critical
                Digital Signature, Key Encipherment
            X509v3 Basic Constraints: critical
                CA:FALSE
            X509v3 Subject Alternative Name: 
                DNS:www.example.com
            Authority Information Access: 
                CA Issuers - URI:http://ca.example.com/ca.crt
                OCSP - URI:http://ocsp.example.com/ocsp

            X509v3 Certificate Policies: 
                Policy: 1.2.3.4.5

            X509v3 Extended Key Usage: 
                TLS Web Server Authentication, TLS Web Client Authentication
            qcStatements: 
                0w0......F..0V.....F..0L0$..http://example.com/en/test.pdf..en0$..http://example.com/de/test.pdf..de0......F..0......F...
    Signature Algorithm: sha256WithRSAEncryption
         5d:f9:41:ed:47:62:33:07:2e:9e:77:50:4b:a2:98:29:53:f7:
         df:2c:e8:23:ef:00:d9:d7:ff:65:d8:92:72:fa:0f:cd:d9:63:
         e5:29:bd:7a:e9:4d:2c:e5:ca:d7:4c:30:e0:4f:1d:03:82:12:
         2b:1c:1d:49:44:a9:41:4b:3e:be:20:7c:50:e5:23:2b:5a:06:
         b1:3b:18:7d:dd:3a:c3:20:0e:b2:b3:e4:f8:91:4b:35:e4:3e:
         c4:79:32:99:b5:66:b2:be:fb:f1:86:3b:3c:f5:b6:3c:c4:3f:
         85:ca:05:cf:92:a6:6b:43:dd:af:ca:17:74:0e:7e:ea:8c:64:
         e4:68:2a:54:d5:25:81:e5:89:8b:83:54:8f:c8:8c:e7:a3:90:
         44:ca:3e:12:a2:a5:e4:f2:e0:07:6d:e7:42:9e:df:b9:2e:89:
         6d:24:67:8e:30:7e:e6:33:1a:f5:6f:56:b5:d8:89:9e:b3:1d:
         46:fa:7d:3f:fd:fb:37:bb:0d:5a:36:66:20:a1:68:79:eb:95:
         01:b6:9e:84:46:fe:e3:1b:da:ac:1a:57:a9:d3:5c:50:7a:4a:
         67:58:e0:7c:45:36:90:1d:0b:c1:bf:86:0d:90:00:79:8e:ec:
         7c:c0:06:0b:96:2f:be:91:20:f9:bc:2e:24:e2:50:19:d3:ee:
         5d:99:fa:da
-----BEGIN CERTIFICATE-----
MIIEzjCCA7agAwIBAgINAf5rR8cJEKmq+3I+NzANBgkqhkiG9w0BAQsFADBAMRQw
EgYDVQQDDAtMaW50IFN1Yi1DQTENMAsGA1UECwwEVGVzdDEMMAoGA1UECgwDTVRH
MQswCQYDVQQGEwJERTAeFw0xODExMjEwMzIxMjlaFw00ODExMjEwMzIxMjlaMGkx
GDAWBgNVBAMMD3d3dy5leGFtcGxlLmNvbTENMAsGA1UECwwEVGVzdDEMMAoGA1UE
CgwDTVRHMRIwEAYDVQQHDAlEYXJtc3RhZHQxDzANBgNVBAgMBkhlc3NlbjELMAkG
A1UEBhMCREUwggEiMA0GCSqGSIb3DQEBAQUAA4IBDwAwggEKAoIBAQC7T308EUZS
wPxPswBeb9J93D1YHHla0+DJh2Ko5HWfRzisArs9mgMI5xNpDkxZKvYgxWA1RFHT
wihceG6IWfd6ShPpirFRaNIQnr79wuMnYNKrpN8nuZ3fRNyTMEAW7vT3uz79uMcb
rYBtS3HMgnOgzzvXrFOn8QVoDYoMXVVKwAlxNjasA0mUl+58zyGje6qFgeDuxnzy
qtSk3Ph7Sf6ytlyv/a2SQW8zGFIoUdB2C9dfhrf4tsWI/v3ggUQBdX5gnWZrx4UI
eHuqHTF3JI0Q1TTTYyscMAACw62yF8cCNg+YbsS7gce5TxnVOKdeMHhTm7cApiQA
yU5TnWwaLAJVAgMBAAGjggGcMIIBmDAfBgNVHSMEGDAWgBTiD2ZMICx4ISqPKdv5
mfYAhsSv4TAdBgNVHQ4EFgQU/JB8Dzn0Z9HiifLuA+Y9uXbJQvowDgYDVR0PAQH/
BAQDAgWgMAwGA1UdEwEB/wQCMAAwGgYDVR0RBBMwEYIPd3d3LmV4YW1wbGUuY29t
MGIGCCsGAQUFBwEBBFYwVDAoBggrBgEFBQcwAoYcaHR0cDovL2NhLmV4YW1wbGUu
Y29tL2NhLmNydDAoBggrBgEFBQcwAYYcaHR0cDovL29jc3AuZXhhbXBsZS5jb20v
b2NzcDARBgNVHSAECjAIMAYGBCoDBAUwHQYDVR0lBBYwFAYIKwYBBQUHAwEGCCsG
AQUFBwMCMIGFBggrBgEFBQcBAwR5MHcwCAYGBACORgEBMFYGBgQAjkYBBTBMMCQW
Hmh0dHA6Ly9leGFtcGxlLmNvbS9lbi90ZXN0LnBkZhMCZW4wJBYeaHR0cDovL2V4
YW1wbGUuY29tL2RlL3Rlc3QucGRmEwJkZTATBgYEAI5GAQYwCQYHBACORgEGAjAN
BgkqhkiG9w0BAQsFAAOCAQEAXflB7UdiMwcunndQS6KYKVP33yzoI+8A2df/ZdiS
cvoPzdlj5Sm9eulNLOXK10ww4E8dA4ISKxwdSUSpQUs+viB8UOUjK1oGsTsYfd06
wyAOsrPk+JFLNeQ+xHkymbVmsr778YY7PPW2PMQ/hcoFz5Kma0Pdr8oXdA5+6oxk
5GgqVNUlgeWJi4NUj8iM56OQRMo+EqKl5PLgB23nQp7fuS6JbSRnjjB+5jMa9W9W
tdiJnrMdRvp9P/37N7sNWjZmIKFoeeuVAbaehEb+4xvarBpXqdNcUHpKZ1jgfEU2
kB0Lwb+GDZAAeY7sfMAGC5YvvpEg+bwuJOJQGdPuXZn62g==
-----END CERTIFICATE-----
