Certificate:
    Data:
        Version: 3 (0x2)
        Serial Number:
            0f:80:26:50:61:46:19:e4:0d:b7:97:a0:4e
        Signature Algorithm: sha256WithRSAEncryption
        Issuer: CN = Lint Sub-CA, OU = Test, O = MTG, C = DE
        Validity
            Not Before: Nov 21 03:21:31 2018 GMT
            Not After : Nov 21 03:21:31 2048 GMT
        Subject: CN = www.example.com, OU = Test, O = MTG, L = Darmstadt, ST = Hessen, C = DE
        Subject Public Key Info:
            Public Key Algorithm: rsaEncryption
                RSA Public-Key: (2048 bit)
                Modulus:
                    00:bc:6d:e2:cd:64:8f:fb:af:61:08:3f:1d:8b:ca:
                    6b:be:e0:cf:38:aa:96:5a:5f:e1:08:08:1b:14:89:
                    0e:5f:38:f7:28:93:ed:65:2f:2f:03:9e:7c:e2:b5:
                    1f:f6:e3:8e:d9:68:d7:29:92:90:3e:43:c6:7a:46:
                    e9:85:b3:55:e6:ea:b8:0f:65:aa:87:fc:56:f9:18:
                    c7:4b:e8:bd:d5:e2:be:0b:f7:41:07:51:e2:80:fe:
                    85:8a:3c:e3:19:59:dc:5e:91:5e:b2:43:d8:ac:b6:
                    b5:1e:bb:13:57:67:f8:3e:0d:fa:55:9d:4b:0a:82:
                    4f:c8:dc:37:4b:b4:4a:46:ac:2a:68:eb:a4:b4:7a:
                    c2:09:f2:af:e3:d2:62:b5:b1:ea:1a:2c:18:74:e0:
                    16:3d:ec:05:82:de:73:50:a1:91:3f:49:02:ee:ea:
                    af:e3:fa:13:ae:a3:ed:ed:a9:2a:18:69:5d:42:7e:
                    65:d3:c7:b7:5e:de:da:56:99:48:90:a0:34:7b:cf:
                    6a:74:ca:b3:b4:ef:34:74:8e:e8:24:d7:14:cc:81:
                    0a:77:03:45:5f:7d:b6:9b:38:bc:ef:56:5c:44:b0:
                    a1:b4:6c:6b:5d:82:af:7b:5e:26:18:7a:ce:c8:c0:
                    de:17:5a:ec:b2:06:dd:8f:d8:05:2b:6f:87:72:30:
                    ad:4b
                Exponent: 65537 (0x10001)
        X509v3 extensions:
            X509v3 Authority Key Identifier: 
                keyid:E2:0F:66:4C:20:2C:78:21:2A:8F:29:DB:F9:99:F6:00:86:C4:AF:E1

            X509v3 Subject Key Identifier: 
                3A:8F:8B:B7:F2:ED:CC:79:45:0F:D4:6B:F8:8C:1B:DF:85:D1:02:91
            X509v3 Key Usage: critical
                Digital Signature, Key Encipherment
            X509v3 Basic Constraints: critical
                CA:FALSE
            X509v3 Subject Alternative Name: 
                DNS:www.example.com
            Authority Information Access: 
                CA Issuers - URI:http://ca.example.com/ca.crt
                OCSP - URI:http://ocsp.example.com/ocsp

            X509v3 Certificate Policies: 
                Policy: 1.2.3.4.5

            X509v3 Extended Key Usage: 
                TLS Web Server Authentication, TLS Web Client Authentication
            qcStatements: 
                0..0......F..0|.....F..0r0$..http://example.com/en/test.pdf..en0$..http://example.com/de/test.pdf..de0$..http://example.com/en/test.pdf..en0......F..0......F...
    Signature Algorithm: sha256WithRSAEncryption
         3c:ed:22:93:62:54:ed:b1:e6:5e:4b:71:e9:cd:77:96:c3:c4:
         70:da:53:12:d5:38:27:05:1d:41:b2:4f:28:bf:a0:c7:70:45:
         31:7f:c8:98:ca:9d:7d:f6:6a:fb:1d:4a:ba:62:1c:07:3b:c5:
         36:e2:34:4e:a2:ef:1a:17:d8:28:0d:40:31:ba:93:1a:ba:96:
         0c:52:24:48:c0:8b:30:62:ec:e4:99:8f:18:1d:c1:4b:f9:08:
         d1:aa:50:f4:1e:4d:17:35:b4:e5:1f:1e:d8:0e:51:4e:67:13:
         7d:a7:c7:33:17:24:86:30:e4:18:f9:d3:86:1d:eb:11:38:d1:
         69:af:34:1d:2f:6b:26:42:3e:0c:49:b0:a3:8d:b0:dc:3b:50:
         c5:c9:28:97:a8:90:06:ea:25:7a:7c:2f:4e:9b:94:7c:8e:4f:
         e8:0c:aa:b0:26:6e:4f:07:74:cc:73:b2:20:1c:40:15:b9:e0:
         9f:a3:81:f7:ea:31:ed:08:5c:02:03:9f:da:9b:2d:7d:1b:f4:
         23:0e:76:aa:33:d1:fb:84:81:83:60:dc:89:b9:2d:61:c6:0b:
         65:e4:90:12:ad:05:e3:e2:10:3d:61:5b:0f:b5:17:d2:54:0f:
         be:76:0a:f4:18:d1:01:89:04:1c:da:82:68:94:dc:9b:9c:74:
         cf:b7:5c:33
-----BEGIN CERTIFICATE-----
MIIE9jCCA96gAwIBAgIND4AmUGFGGeQNt5egTjANBgkqhkiG9w0BAQsFADBAMRQw
EgYDVQQDDAtMaW50IFN1Yi1DQTENMAsGA1UECwwEVGVzdDEMMAoGA1UECgwDTVRH
MQswCQYDVQQGEwJERTAeFw0xODExMjEwMzIxMzFaFw00ODExMjEwMzIxMzFaMGkx
GDAWBgNVBAMMD3d3dy5leGFtcGxlLmNvbTENMAsGA1UECwwEVGVzdDEMMAoGA1UE
CgwDTVRHMRIwEAYDVQQHDAlEYXJtc3RhZHQxDzANBgNVBAgMBkhlc3NlbjELMAkG
A1UEBhMCREUwggEiMA0GCSqGSIb3DQEBAQUAA4IBDwAwggEKAoIBAQC8beLNZI/7
r2EIPx2Lymu+4M84qpZaX+EICBsUiQ5fOPcok+1lLy8DnnzitR/2447ZaNcpkpA+
Q8Z6RumFs1Xm6rgPZaqH/Fb5GMdL6L3V4r4L90EHUeKA/oWKPOMZWdxekV6yQ9is
trUeuxNXZ/g+DfpVnUsKgk/I3DdLtEpGrCpo66S0esIJ8q/j0mK1seoaLBh04BY9
7AWC3nNQoZE/SQLu6q/j+hOuo+3tqSoYaV1CfmXTx7de3tpWmUiQoDR7z2p0yrO0
7zR0jugk1xTMgQp3A0VffbabOLzvVlxEsKG0bGtdgq97XiYYes7IwN4XWuyyBt2P
2AUrb4dyMK1LAgMBAAGjggHEMIIBwDAfBgNVHSMEGDAWgBTiD2ZMICx4ISqPKdv5
mfYAhsSv4TAdBgNVHQ4EFgQUOo+Lt/LtzHlFD9Rr+Iwb34XRApEwDgYDVR0PAQH/
BAQDAgWgMAwGA1UdEwEB/wQCMAAwGgYDVR0RBBMwEYIPd3d3LmV4YW1wbGUuY29t
MGIGCCsGAQUFBwEBBFYwVDAoBggrBgEFBQcwAoYcaHR0cDovL2NhLmV4YW1wbGUu
Y29tL2NhLmNydDAoBggrBgEFBQcwAYYcaHR0cDovL29jc3AuZXhhbXBsZS5jb20v
b2NzcDARBgNVHSAECjAIMAYGBCoDBAUwHQYDVR0lBBYwFAYIKwYBBQUHAwEGCCsG
AQUFBwMCMIGtBggrBgEFBQcBAwSBoDCBnTAIBgYEAI5GAQEwfAYGBACORgEFMHIw
JBYeaHR0cDovL2V4YW1wbGUuY29tL2VuL3Rlc3QucGRmEwJlbjAkFh5odHRwOi8v
ZXhhbXBsZS5jb20vZGUvdGVzdC5wZGYTAmRlMCQWHmh0dHA6Ly9leGFtcGxlLmNv
bS9lbi90ZXN0LnBkZhMCZW4wEwYGBACORgEGMAkGBwQAjkYBBgMwDQYJKoZIhvcN
AQELBQADggEBADztIpNiVO2x5l5LcenNd5bDxHDaUxLVOCcFHUGyTyi/oMdwRTF/
yJjKnX32avsdSrpiHAc7xTbiNE6i7xoX2CgNQDG6kxq6lgxSJEjAizBi7OSZjxgd
wUv5CNGqUPQeTRc1tOUfHtgOUU5nE32nxzMXJIYw5Bj504Yd6xE40WmvNB0vayZC
PgxJsKONsNw7UMXJKJeokAbqJXp8L06blHyOT+gMqrAmbk8HdMxzsiAcQBW54J+j
gffqMe0IXAIDn9qbLX0b9CMOdqoz0fuEgYNg3Im5LWHGC2XkkBKtBePiED1hWw+1
F9JUD752CvQY0QGJBBzagmiU3JucdM+3XDM=
-----END CERTIFICATE-----
