Certificate:
    Data:
        Version: 3 (0x2)
        Serial Number:
            04:ea:44:0d:3b:51:aa:72:75:84:67:7b:d9
        Signature Algorithm: sha256WithRSAEncryption
        Issuer: CN = Lint Sub-CA, OU = Test, O = MTG, C = DE
        Validity
            Not Before: Nov 21 03:21:34 2018 GMT
            Not After : Nov 21 03:21:34 2048 GMT
        Subject: CN = www.example.com, OU = Test, O = MTG, L = Darmstadt, ST = Hessen, C = DE
        Subject Public Key Info:
            Public Key Algorithm: rsaEncryption
                RSA Public-Key: (2048 bit)
                Modulus:
                    00:81:17:44:61:72:a2:06:83:4e:a4:7d:01:2b:51:
                    61:ec:ef:40:8f:0b:59:cc:99:20:27:9f:a3:5c:27:
                    ec:73:02:4c:8d:3a:25:3f:17:b6:5c:e9:f0:aa:3c:
                    ac:ae:c7:d9:7b:c8:8c:c8:55:9e:e0:10:d7:3d:24:
                    72:4c:8b:e9:9e:f4:8a:19:76:c0:3a:5e:e5:12:d2:
                    cd:cf:45:88:8d:ef:c4:97:a8:7f:13:0e:3c:7d:01:
                    2a:05:0d:5a:e0:50:09:96:3a:c6:c6:45:cc:dd:a7:
                    60:fc:fb:91:de:de:1c:d4:26:7e:7d:6a:f8:1e:94:
                    1b:1f:e9:fd:14:7b:08:fc:4b:db:2b:75:64:c7:ad:
                    63:c5:65:25:64:b8:cb:ee:7a:a5:63:96:5b:2a:03:
                    cc:a2:a9:0a:31:c5:9a:56:a8:0f:be:c8:d7:ae:a1:
                    39:d9:2f:59:21:cf:d8:86:06:c0:1b:08:8e:8d:c1:
                    08:43:ca:d5:c5:3f:5c:ab:fa:51:a2:83:1b:17:71:
                    08:e5:a4:ec:44:0a:e7:9e:ec:43:64:42:44:1d:81:
                    50:8d:36:07:da:3a:57:94:b0:2f:33:21:3a:f4:b9:
                    77:31:dc:19:b4:18:50:c3:e1:87:a1:80:a6:1c:66:
                    7b:d6:e3:ac:ee:58:7e:9b:e7:a0:16:a2:0a:8c:6f:
                    57:ff
                Exponent: 65537 (0x10001)
        X509v3 extensions:
            X509v3 Authority Key Identifier: 
                keyid:E2:0F:66:4C:20:2C:78:21:2A:8F:29:DB:F9:99:F6:00:86:C4:AF:E1

            X509v3 Subject Key Identifier: 
                9F:97:0A:A1:7D:D5:B3:07:3A:F4:71:C7:CF:1C:DC:09:B4:2A:41:FA
            X509v3 Key Usage: critical
                Digital Signature, Key Encipherment
            X509v3 Basic Constraints: critical
                CA:FALSE
            X509v3 Subject Alternative Name: 
                DNS:www.example.com
            Authority Information Access: 
                CA Issuers - URI:http://ca.example.com/ca.crt
                OCSP - URI:http://ocsp.example.com/ocsp

            X509v3 Certificate Policies: 
                Policy: 1.2.3.4.5

            X509v3 Extended Key Usage: 
                TLS Web Server Authentication, TLS Web Client Authentication
    Signature Algorithm: sha256WithRSAEncryption
         37:96:32:9d:81:e0:1f:c4:e0:cc:dc:6d:19:a6:3d:84:aa:3e:
         c3:bf:22:d8:4d:1c:14:2d:68:06:c1:b9:08:6d:c0:63:12:5d:
         ee:67:8a:cb:8c:cf:b7:22:f8:42:1e:7b:2b:3a:38:f3:4e:eb:
         e2:14:08:05:8d:01:2e:cb:11:1b:21:c7:7f:ce:9a:5f:f3:8c:
         84:53:98:5f:6f:73:30:37:38:28:8d:5f:8a:b5:fe:f9:c4:9f:
         20:db:37:a9:6f:6d:7d:d6:3c:c0:4d:da:e9:7a:12:75:70:64:
         fd:2e:22:2b:51:93:a3:ba:f4:1d:32:73:77:c0:44:b2:b1:11:
         64:18:95:3c:6f:f1:fa:8c:2e:8b:d2:b9:72:23:e2:5d:12:4d:
         14:b6:5b:86:35:c5:23:6f:e2:c1:68:b5:7c:51:a6:68:91:b8:
         56:39:11:88:fa:95:41:d9:d4:a8:7d:be:70:a4:62:0b:92:a8:
         63:65:0c:78:70:25:cd:91:68:1c:94:da:04:eb:c1:36:50:7d:
         6c:01:fa:4a:12:86:da:40:35:37:75:15:da:26:35:2a:df:8c:
         d1:7f:81:5b:4b:01:a7:41:88:dc:45:c1:5b:d8:91:07:46:98:
         3e:a7:88:0d:5d:b9:57:3b:a8:7c:69:fb:3e:b8:95:52:d1:56:
         98:46:62:df
-----BEGIN CERTIFICATE-----
MIIERjCCAy6gAwIBAgINBOpEDTtRqnJ1hGd72TANBgkqhkiG9w0BAQsFADBAMRQw
EgYDVQQDDAtMaW50IFN1Yi1DQTENMAsGA1UECwwEVGVzdDEMMAoGA1UECgwDTVRH
MQswCQYDVQQGEwJERTAeFw0xODExMjEwMzIxMzRaFw00ODExMjEwMzIxMzRaMGkx
GDAWBgNVBAMMD3d3dy5leGFtcGxlLmNvbTENMAsGA1UECwwEVGVzdDEMMAoGA1UE
CgwDTVRHMRIwEAYDVQQHDAlEYXJtc3RhZHQxDzANBgNVBAgMBkhlc3NlbjELMAkG
A1UEBhMCREUwggEiMA0GCSqGSIb3DQEBAQUAA4IBDwAwggEKAoIBAQCBF0RhcqIG
g06kfQErUWHs70CPC1nMmSAnn6NcJ+xzAkyNOiU/F7Zc6fCqPKyux9l7yIzIVZ7g
ENc9JHJMi+me9IoZdsA6XuUS0s3PRYiN78SXqH8TDjx9ASoFDVrgUAmWOsbGRczd
p2D8+5He3hzUJn59avgelBsf6f0Uewj8S9srdWTHrWPFZSVkuMvueqVjllsqA8yi
qQoxxZpWqA++yNeuoTnZL1khz9iGBsAbCI6NwQhDytXFP1yr+lGigxsXcQjlpOxE
Cuee7ENkQkQdgVCNNgfaOleUsC8zITr0uXcx3Bm0GFDD4YehgKYcZnvW46zuWH6b
56AWogqMb1f/AgMBAAGjggEUMIIBEDAfBgNVHSMEGDAWgBTiD2ZMICx4ISqPKdv5
mfYAhsSv4TAdBgNVHQ4EFgQUn5cKoX3Vswc69HHHzxzcCbQqQfowDgYDVR0PAQH/
BAQDAgWgMAwGA1UdEwEB/wQCMAAwGgYDVR0RBBMwEYIPd3d3LmV4YW1wbGUuY29t
MGIGCCsGAQUFBwEBBFYwVDAoBggrBgEFBQcwAoYcaHR0cDovL2NhLmV4YW1wbGUu
Y29tL2NhLmNydDAoBggrBgEFBQcwAYYcaHR0cDovL29jc3AuZXhhbXBsZS5jb20v
b2NzcDARBgNVHSAECjAIMAYGBCoDBAUwHQYDVR0lBBYwFAYIKwYBBQUHAwEGCCsG
AQUFBwMCMA0GCSqGSIb3DQEBCwUAA4IBAQA3ljKdgeAfxODM3G0Zpj2Eqj7DvyLY
TRwULWgGwbkIbcBjEl3uZ4rLjM+3IvhCHnsrOjjzTuviFAgFjQEuyxEbIcd/zppf
84yEU5hfb3MwNzgojV+Ktf75xJ8g2zepb2191jzATdrpehJ1cGT9LiIrUZOjuvQd
MnN3wESysRFkGJU8b/H6jC6L0rlyI+JdEk0UtluGNcUjb+LBaLV8UaZokbhWORGI
+pVB2dSofb5wpGILkqhjZQx4cCXNkWgclNoE68E2UH1sAfpKEobaQDU3dRXaJjUq
34zRf4FbSwGnQYjcRcFb2JEHRpg+p4gNXblXO6h8afs+uJVS0VaYRmLf
-----END CERTIFICATE-----
