Certificate:
    Data:
        Version: 3 (0x2)
        Serial Number:
            0e:48:53:dc:1f:ac:d7:db:f0:bc:da:45:12
        Signature Algorithm: sha256WithRSAEncryption
        Issuer: CN = Lint Sub-CA, OU = Test, O = MTG, C = DE
        Validity
            Not Before: Nov 21 03:21:33 2018 GMT
            Not After : Nov 21 03:21:33 2048 GMT
        Subject: CN = www.example.com, OU = Test, O = MTG, L = Darmstadt, ST = Hessen, C = DE
        Subject Public Key Info:
            Public Key Algorithm: rsaEncryption
                RSA Public-Key: (2048 bit)
                Modulus:
                    00:95:21:db:46:5a:0f:c7:d4:f8:20:b6:44:33:b8:
                    96:2a:16:56:28:ee:b4:41:f0:3b:26:32:f8:ec:5e:
                    23:80:be:b9:a2:a1:65:c8:4a:c3:07:d5:39:82:80:
                    40:0b:a2:2b:aa:0e:6a:54:2a:6e:2e:56:8f:4d:e5:
                    cd:dd:d7:57:8d:38:c9:58:b2:ef:6c:ee:54:c1:59:
                    e6:a6:46:c1:fc:0d:19:31:68:cb:3f:92:c4:72:31:
                    32:1f:4f:02:5e:fa:60:d5:0b:06:86:ab:be:fb:7c:
                    6a:1d:18:ec:a1:73:ab:56:d2:3a:21:d2:33:19:de:
                    79:21:25:e7:d7:d3:c0:c4:1c:1a:70:21:6f:5f:1a:
                    e0:a9:c1:72:b4:91:d8:f9:b4:ea:67:fd:39:9e:58:
                    8e:3a:1e:8b:69:5a:36:6a:78:e4:36:08:fa:d5:3e:
                    84:f6:f5:94:e0:33:59:bc:fc:e6:e6:38:4c:27:a0:
                    47:a2:09:00:33:d7:45:b6:79:ba:40:0c:09:48:aa:
                    b5:be:47:10:7f:f1:78:1a:63:40:f5:f1:8d:57:7f:
                    f5:34:7e:42:d1:0d:05:77:9e:3e:31:0c:51:9b:9e:
                    fb:54:ad:a0:ca:f6:16:e7:01:ae:99:c3:59:55:32:
                    24:f7:91:df:1a:00:7e:50:86:d3:e4:cf:27:8f:c8:
                    40:95
                Exponent: 65537 (0x10001)
        X509v3 extensions:
            X509v3 Authority Key Identifier: 
                keyid:E2:0F:66:4C:20:2C:78:21:2A:8F:29:DB:F9:99:F6:00:86:C4:AF:E1

            X509v3 Subject Key Identifier: 
                55:F9:9A:11:F8:2D:A8:F3:73:83:B7:1D:03:BB:C4:43:10:B1:2D:90
            X509v3 Key Usage: critical
                Digital Signature, Key Encipherment
            X509v3 Basic Constraints: critical
                CA:FALSE
            X509v3 Subject Alternative Name: 
                DNS:www.example.com
            Authority Information Access: 
                CA Issuers - URI:http://ca.example.com/ca.crt
                OCSP - URI:http://ocsp.example.com/ocsp

            X509v3 Certificate Policies: 
                Policy: 1.2.3.4.5

            X509v3 Extended Key Usage: 
                TLS Web Server Authentication, TLS Web Client Authentication
            qcStatements: 
                0w0......F..0V.....F..0L0$..http://example.com/en/test.pdf..en0$..http://example.com/de/test.pdf..de0......F..0......F...
    Signature Algorithm: sha256WithRSAEncryption
         4e:27:fe:10:d2:79:70:f4:bf:96:fd:76:f2:df:e3:7e:f1:d7:
         23:f2:36:0d:e4:56:b6:b1:80:7d:6d:1f:f3:b4:e3:9a:f9:ca:
         74:b6:6c:45:9c:49:c7:2d:3d:ba:1d:7c:99:e4:8b:f4:b6:24:
         74:50:fa:29:85:fd:e1:ca:6d:cb:7f:b1:d7:49:12:69:b1:d0:
         c3:91:1f:c4:fe:53:b1:96:55:f6:23:de:0a:d9:f1:bc:d1:ab:
         8c:a5:1d:4f:ac:ab:39:05:7f:c3:9e:be:8e:31:d3:eb:0c:95:
         6b:a5:48:f0:7a:51:46:3d:04:74:a9:5a:8f:3e:dd:95:74:68:
         c6:d1:a9:34:99:34:c7:ab:eb:ba:c0:d5:8a:86:7a:4c:31:ce:
         a4:c6:6c:aa:8f:be:d3:cc:43:25:ec:8f:94:55:d3:a0:96:51:
         0a:c3:26:f9:6e:a6:73:f8:92:fd:ba:25:e9:a2:a6:25:74:cc:
         e3:14:0f:6d:0b:ae:c4:62:36:5f:e2:03:ca:a4:be:bc:32:4a:
         65:12:4a:6b:67:d6:8b:04:48:a7:e4:02:09:be:63:89:10:49:
         3f:1c:2c:8a:99:2e:0b:dc:c8:f7:9b:15:11:a1:72:9d:97:ab:
         6c:2c:e0:13:09:d9:dd:66:77:db:23:a4:52:a5:62:cc:66:0c:
         c1:04:1d:6e
-----BEGIN CERTIFICATE-----
MIIEzjCCA7agAwIBAgINDkhT3B+s19vwvNpFEjANBgkqhkiG9w0BAQsFADBAMRQw
EgYDVQQDDAtMaW50IFN1Yi1DQTENMAsGA1UECwwEVGVzdDEMMAoGA1UECgwDTVRH
MQswCQYDVQQGEwJERTAeFw0xODExMjEwMzIxMzNaFw00ODExMjEwMzIxMzNaMGkx
GDAWBgNVBAMMD3d3dy5leGFtcGxlLmNvbTENMAsGA1UECwwEVGVzdDEMMAoGA1UE
CgwDTVRHMRIwEAYDVQQHDAlEYXJtc3RhZHQxDzANBgNVBAgMBkhlc3NlbjELMAkG
A1UEBhMCREUwggEiMA0GCSqGSIb3DQEBAQUAA4IBDwAwggEKAoIBAQCVIdtGWg/H
1PggtkQzuJYqFlYo7rRB8DsmMvjsXiOAvrmioWXISsMH1TmCgEALoiuqDmpUKm4u
Vo9N5c3d11eNOMlYsu9s7lTBWeamRsH8DRkxaMs/ksRyMTIfTwJe+mDVCwaGq777
fGodGOyhc6tW0joh0jMZ3nkhJefX08DEHBpwIW9fGuCpwXK0kdj5tOpn/TmeWI46
HotpWjZqeOQ2CPrVPoT29ZTgM1m8/ObmOEwnoEeiCQAz10W2ebpADAlIqrW+RxB/
8XgaY0D18Y1Xf/U0fkLRDQV3nj4xDFGbnvtUraDK9hbnAa6Zw1lVMiT3kd8aAH5Q
htPkzyePyECVAgMBAAGjggGcMIIBmDAfBgNVHSMEGDAWgBTiD2ZMICx4ISqPKdv5
mfYAhsSv4TAdBgNVHQ4EFgQUVfmaEfgtqPNzg7cdA7vEQxCxLZAwDgYDVR0PAQH/
BAQDAgWgMAwGA1UdEwEB/wQCMAAwGgYDVR0RBBMwEYIPd3d3LmV4YW1wbGUuY29t
MGIGCCsGAQUFBwEBBFYwVDAoBggrBgEFBQcwAoYcaHR0cDovL2NhLmV4YW1wbGUu
Y29tL2NhLmNydDAoBggrBgEFBQcwAYYcaHR0cDovL29jc3AuZXhhbXBsZS5jb20v
b2NzcDARBgNVHSAECjAIMAYGBCoDBAUwHQYDVR0lBBYwFAYIKwYBBQUHAwEGCCsG
AQUFBwMCMIGFBggrBgEFBQcBAwR5MHcwCIAGBACORgEBMFYGBgQAjkYBBTBMMCQW
Hmh0dHA6Ly9leGFtcGxlLmNvbS9lbi90ZXN0LnBkZhMCZW4wJBYeaHR0cDovL2V4
YW1wbGUuY29tL2RlL3Rlc3QucGRmEwJkZTATBgYEAI5GAQYwCQYHBACORgEGAzAN
BgkqhkiG9w0BAQsFAAOCAQEATif+ENJ5cPS/lv128t/jfvHXI/I2DeRWtrGAfW0f
87TjmvnKdLZsRZxJxy09uh18meSL9LYkdFD6KYX94cpty3+x10kSabHQw5EfxP5T
sZZV9iPeCtnxvNGrjKUdT6yrOQV/w56+jjHT6wyVa6VI8HpRRj0EdKlajz7dlXRo
xtGpNJk0x6vrusDVioZ6TDHOpMZsqo++08xDJeyPlFXToJZRCsMm+W6mc/iS/bol
6aKmJXTM4xQPbQuuxGI2X+IDyqS+vDJKZRJKa2fWiwRIp+QCCb5jiRBJPxwsipku
C9zI95sVEaFynZerbCzgEwnZ3WZ32yOkUqVizGYMwQQdbg==
-----END CERTIFICATE-----
