Certificate:
    Data:
        Version: 3 (0x2)
        Serial Number:
            1c:a4:45:11:ed:86:d7:8c:4f:7b:0b:ca:9d:6e:43:57
    Signature Algorithm: sha256WithRSAEncryption
        Issuer: CN = Distec Corporate Enterprise Root CA
        Validity
            Not Before: Oct 13 13:36:07 2016 GMT
            Not After : Oct 13 13:46:03 2036 GMT
        Subject: CN = Distec Corporate Enterprise Root CA
        Subject Public Key Info:
            Public Key Algorithm: rsaEncryption
                Public-Key: (4096 bit)
                Modulus:
                    00:cb:21:18:20:ee:b4:c6:0f:49:83:5e:cc:71:67:
                    bc:6d:31:7b:a6:85:b0:b5:46:df:2b:d3:3b:55:33:
                    23:f7:aa:af:5d:2e:0a:70:6c:d0:23:02:86:16:b6:
                    ad:d0:77:43:ae:fe:e7:72:7b:e7:91:47:14:cd:a8:
                    0c:97:7b:dc:bf:aa:52:53:4c:2b:4e:32:62:cc:15:
                    a7:55:0f:ab:76:91:c8:0e:8b:21:b0:d5:7d:12:8e:
                    c9:70:74:3f:54:46:84:68:c3:c5:90:84:d4:a5:a7:
                    c7:9c:17:c5:b4:d5:0a:d4:72:a3:b3:65:f1:9d:20:
                    76:44:d6:5c:13:84:52:06:ef:2b:00:6f:fd:0b:96:
                    96:66:79:d0:51:46:1c:e6:d4:3b:e2:7f:30:be:65:
                    23:4b:8a:5f:e1:d9:35:d6:42:2a:8e:9e:dd:4a:a6:
                    1a:5b:d3:28:b4:02:ac:a4:ee:49:9d:74:9e:74:4f:
                    ec:a8:64:1c:6c:0a:88:7a:1e:fc:6d:ea:6e:f9:4b:
                    26:d8:9f:70:cc:5e:a1:2e:2f:5e:2a:c1:c3:5a:37:
                    9b:47:9b:3e:00:4f:f8:f1:3e:c4:08:c0:8e:4f:2a:
                    7b:02:de:77:db:aa:68:fc:ed:a5:a0:ea:6c:ec:98:
                    8d:ea:90:29:1d:61:9b:b2:74:5c:c3:3b:c2:8f:1b:
                    61:68:d3:77:25:f1:08:ef:69:2c:a6:4b:36:02:1c:
                    e1:c8:ed:33:3f:89:fe:27:b7:89:b2:21:29:b9:73:
                    61:4f:69:6e:14:5c:99:ef:77:0f:b5:a3:f0:55:81:
                    8b:d6:96:03:70:87:62:1d:c4:41:cc:a0:98:1a:31:
                    c8:0c:d1:bd:0b:af:d9:b5:cf:1f:78:ce:8c:9b:3a:
                    cd:3a:ea:69:6c:b1:ef:5f:cf:e8:d1:a1:84:6e:f1:
                    b6:7c:9a:59:41:5a:dc:b2:e8:20:ec:e6:19:3f:82:
                    82:73:cf:da:7b:3e:2d:6d:a1:fc:0e:a2:34:7b:80:
                    9e:a0:26:81:14:2a:d5:f4:7b:40:c3:f0:6d:bc:da:
                    bd:aa:dc:05:60:71:8c:84:39:e5:00:9f:86:46:4b:
                    8d:14:e4:70:08:f1:5c:b0:7f:5d:73:fe:5e:98:48:
                    ba:8f:94:f3:10:4c:8d:ae:fd:39:d6:d0:0e:f7:b1:
                    cb:0e:09:37:92:2e:0c:1d:b4:aa:e1:21:9c:f9:c8:
                    20:0b:3f:1b:7f:2c:ae:29:81:c0:d5:d3:f6:d1:09:
                    f6:04:9c:b4:cf:09:73:e7:b3:dc:16:22:e8:e8:51:
                    c7:f2:07:31:5d:0f:29:e5:84:5b:1b:0b:99:2a:68:
                    32:b8:34:d6:38:6a:fe:fb:57:90:c4:67:29:92:a1:
                    bc:47:7d
                Exponent: 65537 (0x10001)
        X509v3 extensions:
            X509v3 Key Usage: 
                Digital Signature, Certificate Sign, CRL Sign
            X509v3 Basic Constraints: critical
                CA:TRUE
            X509v3 Subject Key Identifier: 
                97:B6:5F:AC:6A:F5:72:28:7E:A2:4C:E4:FC:BC:E4:AA:C9:6C:2F:99
            1.3.6.1.4.1.311.21.1: 
                ...
            X509v3 Certificate Policies: 
                Policy: 1.2.3.4.1455.67.89.5
                  User Notice:
                    Explicit Text: 
                  CPS: http://ca.distec.co.uk/pki/cps.txt

    Signature Algorithm: sha256WithRSAEncryption
         12:7d:90:03:5c:7e:cd:f4:09:54:07:c6:92:76:f3:75:0b:9c:
         e8:5a:8c:f8:e1:5a:24:fd:f7:a6:f5:83:70:b3:ce:eb:bf:8d:
         69:4d:90:25:1d:ff:bd:0c:46:d6:b2:16:74:77:96:bd:c5:07:
         5a:46:01:ea:2f:3f:f3:13:5e:3b:ed:ca:51:7d:af:4a:0b:30:
         90:93:cc:56:ab:2a:76:73:8d:21:c7:78:52:0d:2e:ad:d0:3b:
         7d:29:fd:50:dc:f0:b3:2d:c2:8c:2b:56:c8:d1:36:fb:33:b8:
         de:32:f7:82:11:86:ec:21:f8:37:37:58:0f:74:16:97:d1:d3:
         ff:a4:b4:bd:86:24:a4:e7:5a:31:a2:01:fb:90:a2:b8:8a:da:
         f5:e2:10:d0:99:a6:95:fa:7c:8b:42:ee:d6:e7:ed:74:38:d2:
         de:eb:3e:21:f0:54:fe:e3:c2:58:e3:f1:e2:60:5f:da:b0:12:
         4a:00:c8:7f:7d:19:4c:c7:6f:08:cc:ec:05:f0:24:19:08:c8:
         9d:74:d1:14:05:4f:a5:7f:a9:d6:f1:8e:47:62:0b:0e:f1:bc:
         38:aa:6c:fa:8e:9f:34:74:2f:24:9d:5a:b1:2e:9f:90:c9:38:
         01:7e:6e:db:78:b9:f1:ef:cd:05:a7:d1:22:dd:90:17:c8:f3:
         8f:db:7b:88:cd:a2:66:aa:ef:38:24:ee:2e:82:4f:a8:ab:27:
         00:3d:76:5c:6a:02:d6:fc:2f:6b:d9:74:f6:7f:2e:31:20:d6:
         4d:a4:c3:56:81:9e:23:eb:82:f6:cd:81:ea:bb:13:ed:05:c3:
         a2:76:d7:a5:f3:d4:ea:aa:bc:51:15:d9:20:b5:9b:3e:42:84:
         b3:22:fe:6b:0b:da:75:b4:0d:87:f7:74:b3:4e:11:d2:f8:8a:
         ce:18:bf:17:6b:34:f8:67:52:d4:33:a5:70:8a:ea:25:a7:03:
         92:6c:d8:e6:cb:54:40:a0:82:a9:80:77:07:21:f1:dd:d7:01:
         b7:57:45:df:58:7a:1e:ed:da:57:95:cf:15:ad:e4:39:46:21:
         f6:fb:84:80:2b:95:a4:2a:a1:79:7d:1b:e8:5c:af:cf:4b:fb:
         15:99:c5:d1:2a:36:12:ea:56:38:c7:27:c9:a7:49:d8:2c:b9:
         fd:d9:6d:80:25:68:36:3c:dd:53:5c:26:72:c5:d0:50:33:cf:
         a6:13:1e:6e:cc:c2:6d:8a:dc:8a:e8:9d:3b:f0:4e:ae:07:b4:
         ea:c9:1d:43:85:6f:dc:a9:07:15:cd:80:d0:31:4b:4b:ea:91:
         74:56:f0:7c:8e:b8:8f:39:48:6c:5c:ab:5a:6b:8e:20:f3:18:
         80:e2:41:23:18:43:fb:27
-----BEGIN CERTIFICATE-----
MIIFwDCCA6igAwIBAgIQHKRFEe2G14xPewvKnW5DVzANBgkqhkiG9w0BAQsFADAu
MSwwKgYDVQQDEyNEaXN0ZWMgQ29ycG9yYXRlIEVudGVycHJpc2UgUm9vdCBDQTAe
Fw0xNjEwMTMxMzM2MDdaFw0zNjEwMTMxMzQ2MDNaMC4xLDAqBgNVBAMTI0Rpc3Rl
YyBDb3Jwb3JhdGUgRW50ZXJwcmlzZSBSb290IENBMIICIjANBgkqhkiG9w0BAQEF
AAOCAg8AMIICCgKCAgEAyyEYIO60xg9Jg17McWe8bTF7poWwtUbfK9M7VTMj96qv
XS4KcGzQIwKGFrat0HdDrv7ncnvnkUcUzagMl3vcv6pSU0wrTjJizBWnVQ+rdpHI
DoshsNV9Eo7JcHQ/VEaEaMPFkITUpafHnBfFtNUK1HKjs2XxnSB2RNZcE4RSBu8r
AG/9C5aWZnnQUUYc5tQ74n8wvmUjS4pf4dk11kIqjp7dSqYaW9MotAKspO5JnXSe
dE/sqGQcbAqIeh78bepu+Usm2J9wzF6hLi9eKsHDWjebR5s+AE/48T7ECMCOTyp7
At5326po/O2loOps7JiN6pApHWGbsnRcwzvCjxthaNN3JfEI72kspks2AhzhyO0z
P4n+J7eJsiEpuXNhT2luFFyZ73cPtaPwVYGL1pYDcIdiHcRBzKCYGjHIDNG9C6/Z
tc8feM6MmzrNOuppbLHvX8/o0aGEbvG2fJpZQVrcsugg7OYZP4KCc8/aez4tbaH8
DqI0e4CeoCaBFCrV9HtAw/BtvNq9qtwFYHGMhDnlAJ+GRkuNFORwCPFcsH9dc/5e
mEi6j5TzEEyNrv051tAO97HLDgk3ki4MHbSq4SGc+cggCz8bfyyuKYHA1dP20Qn2
BJy0zwlz57PcFiLo6FHH8gcxXQ8p5YRbGwuZKmgyuDTWOGr++1eQxGcpkqG8R30C
AwEAAaOB2TCB1jALBgNVHQ8EBAMCAYYwDwYDVR0TAQH/BAUwAwEB/zAdBgNVHQ4E
FgQUl7ZfrGr1cih+okzk/LzkqslsL5kwEAYJKwYBBAGCNxUBBAMCAQAwgYQGA1Ud
IAR9MHsweQYIKgMEiy9DWQUwbTA6BggrBgEFBQcCAjAuHiwATABlAGcAYQBsACAA
UABvAGwAaQBjAHkAIABTAHQAYQB0AGUAbQBlAG4AdDAvBggrBgEFBQcCARYjaHR0
cDovL2NhLmRpc3RlYy5jby51ay9wa2kvY3BzLnR4dAAwDQYJKoZIhvcNAQELBQAD
ggIBABJ9kANcfs30CVQHxpJ283ULnOhajPjhWiT996b1g3Czzuu/jWlNkCUd/70M
RtayFnR3lr3FB1pGAeovP/MTXjvtylF9r0oLMJCTzFarKnZzjSHHeFINLq3QO30p
/VDc8LMtwowrVsjRNvszuN4y94IRhuwh+Dc3WA90FpfR0/+ktL2GJKTnWjGiAfuQ
oriK2vXiENCZppX6fItC7tbn7XQ40t7rPiHwVP7jwljj8eJgX9qwEkoAyH99GUzH
bwjM7AXwJBkIyJ100RQFT6V/qdbxjkdiCw7xvDiqbPqOnzR0LySdWrEun5DJOAF+
btt4ufHvzQWn0SLdkBfI84/be4jNomaq7zgk7i6CT6irJwA9dlxqAtb8L2vZdPZ/
LjEg1k2kw1aBniPrgvbNgeq7E+0Fw6J216Xz1OqqvFEV2SC1mz5ChLMi/msL2nW0
DYf3dLNOEdL4is4YvxdrNPhnUtQzpXCK6iWnA5Js2ObLVECggqmAdwch8d3XAbdX
Rd9Yeh7t2leVzxWt5DlGIfb7hIArlaQqoXl9G+hcr89L+xWZxdEqNhLqVjjHJ8mn
Sdgsuf3ZbYAlaDY83VNcJnLF0FAzz6YTHm7Mwm2K3IronTvwTq4HtOrJHUOFb9yp
BxXNgNAxS0vqkXRW8HyOuI85SGxcq1prjiDzGIDiQSMYQ/sn
-----END CERTIFICATE-----
