Certificate:
    Data:
        Version: 3 (0x2)
        Serial Number:
            2d:d7:20:91:05:b3:d0:06:30:01:2d:c2
        Signature Algorithm: sha256WithRSAEncryption
        Issuer: C = BE, O = GlobalSign nv-sa, CN = AlphaSSL CA - SHA256 - G2
        Validity
            Not Before: Dec 10 11:07:33 2018 GMT
            Not After : Jan 29 13:34:15 2020 GMT
        Subject: C = NL, OU = Domain Control Validated, CN = www.shorearchief.com
        Subject Public Key Info:
            Public Key Algorithm: rsaEncryption
                RSA Public-Key: (2048 bit)
                Modulus:
                    00:b5:d0:25:96:79:a1:c6:8b:a5:7b:8e:5c:07:21:
                    49:8c:8b:98:89:17:b9:62:59:4a:d1:15:98:67:c4:
                    3d:c1:e8:63:95:84:c2:75:ee:5f:3a:d7:0c:8a:0b:
                    6b:60:25:21:78:1e:cc:7f:5e:f7:9b:ec:6b:a7:c2:
                    08:db:75:9f:34:ae:c2:20:a9:50:53:0b:8d:f9:b9:
                    4f:a7:e9:6f:c6:11:10:17:9a:7e:29:a0:2d:d0:e3:
                    e7:9b:95:8a:73:ae:c3:c3:1c:ba:af:0c:ed:37:83:
                    ba:fa:60:49:a6:5b:8a:60:53:47:11:3f:1a:ba:4b:
                    3c:db:66:92:14:7d:db:bd:a8:0b:79:b5:16:c5:32:
                    0d:c6:5e:91:7d:e3:34:5b:b6:df:64:30:bc:8b:e0:
                    da:45:fc:46:ae:08:e0:cf:7a:64:a3:ba:20:fe:ac:
                    b8:0e:9d:2b:32:f1:56:61:23:c2:4f:f3:2c:a5:74:
                    77:28:ea:d6:2e:ba:98:f9:6a:1a:f1:ed:99:0f:3e:
                    53:ca:61:18:cd:03:c5:ee:12:5a:ec:a8:99:31:02:
                    87:c8:eb:fb:13:28:2d:77:b6:df:88:a3:2d:d1:11:
                    fe:bf:ea:e3:d1:8e:ee:51:2c:5d:2f:f8:30:15:bb:
                    18:c0:2c:e1:43:0f:f9:7c:61:63:1f:12:ef:57:38:
                    64:07
                Exponent: 65537 (0x10001)
        X509v3 extensions:
            X509v3 Key Usage: critical
                Digital Signature, Key Encipherment
            Authority Information Access: 
                CA Issuers - URI:http://secure2.alphassl.com/cacert/gsalphasha2g2r1.crt
                OCSP - URI:http://ocsp2.globalsign.com/gsalphasha2g2

            X509v3 Certificate Policies: 
                Policy: 1.3.6.1.4.1.4146.1.10.10
                  CPS: https://www.globalsign.com/repository/
                Policy: 2.23.140.1.2.1

            X509v3 Basic Constraints: 
                CA:FALSE
            X509v3 CRL Distribution Points: 

                Full Name:
                  URI:http://crl2.alphassl.com/gs/gsalphasha2g2.crl

            X509v3 Subject Alternative Name: 
                DNS:www.shorearchief.com, DNS:shorearchief.com
            X509v3 Extended Key Usage: 
                TLS Web Server Authentication, TLS Web Client Authentication
            X509v3 Subject Key Identifier: 
                98:45:A2:FE:F7:3C:FC:8D:00:EE:9F:89:36:95:59:AA:14:9E:59:6D
            X509v3 Authority Key Identifier: 
                keyid:F5:CD:D5:3C:08:50:F9:6A:4F:3A:B7:97:DA:56:83:E6:69:D2:68:F7

            CT Precertificate Poison: critical
                NULL
    Signature Algorithm: sha256WithRSAEncryption
         1e:57:6a:1a:79:7e:6c:04:f5:14:cc:14:68:6b:83:29:7e:86:
         7c:89:c0:1d:cd:ec:f2:fd:9d:43:10:4f:86:98:ca:80:c9:ad:
         51:14:bd:83:08:c9:36:ac:f5:f5:df:76:07:a4:2d:e9:5a:40:
         cc:76:5e:a0:9a:bc:f9:28:e0:ff:d3:cd:1e:50:8b:3f:54:4f:
         6e:9c:3d:73:50:fb:c7:4c:0f:5a:f8:1a:24:cf:f4:69:ae:a8:
         fd:be:ad:15:52:e1:88:d4:2a:7b:c6:56:31:b3:e8:00:bf:46:
         53:35:c8:60:b0:6e:c5:6e:ec:33:f7:ad:8a:64:05:01:97:39:
         ff:c7:47:3e:bd:79:8a:73:3d:2c:40:97:6d:6f:69:e7:fa:fb:
         a9:a9:1d:2b:08:fd:0d:02:12:9d:34:c6:91:c6:03:84:66:e6:
         63:d4:80:28:80:dc:01:78:d5:15:70:86:86:2b:13:38:b0:e3:
         b0:74:1f:c3:8c:c5:2f:4c:79:f4:c2:14:d3:af:5e:e0:80:03:
         d8:6f:7d:f0:ed:53:7b:9b:4b:8d:b3:94:61:1c:64:27:01:77:
         6f:2c:63:92:91:ea:81:5a:a6:1d:b2:73:49:88:5b:f2:4b:77:
         14:eb:e3:ec:77:a3:03:51:e2:95:34:0d:26:3f:26:16:e2:96:
         e1:2d:f0:01
-----BEGIN CERTIFICATE-----
MIIFDDCCA/SgAwIBAgIMLdcgkQWz0AYwAS3CMA0GCSqGSIb3DQEBCwUAMEwxCzAJ
BgNVBAYTAkJFMRkwFwYDVQQKExBHbG9iYWxTaWduIG52LXNhMSIwIAYDVQQDExlB
bHBoYVNTTCBDQSAtIFNIQTI1NiAtIEcyMB4XDTE4MTIxMDExMDczM1oXDTIwMDEy
OTEzMzQxNVowTzELMAkGA1UEBhMCTkwxITAfBgNVBAsTGERvbWFpbiBDb250cm9s
IFZhbGlkYXRlZDEdMBsGA1UEAxMUd3d3LnNob3JlYXJjaGllZi5jb20wggEgMAsG
CSqGSIb3DQEBAQOCAQ8AMIIBCgKCAQEAtdAllnmhxoule45cByFJjIuYiRe5YllK
0RWYZ8Q9wehjlYTCde5fOtcMigtrYCUheB7Mf173m+xrp8II23WfNK7CIKlQUwuN
+blPp+lvxhEQF5p+KaAt0OPnm5WKc67Dwxy6rwztN4O6+mBJpluKYFNHET8auks8
22aSFH3bvagLebUWxTINxl6RfeM0W7bfZDC8i+DaRfxGrgjgz3pko7og/qy4Dp0r
MvFWYSPCT/MspXR3KOrWLrqY+Woa8e2ZDz5TymEYzQPF7hJa7KiZMQKHyOv7Eygt
d7bfiKMt0RH+v+rj0Y7uUSxdL/gwFbsYwCzhQw/5fGFjHxLvVzhkBwIDAQABo4IB
6zCCAecwDgYDVR0PAQH/BAQDAgWgMIGJBggrBgEFBQcBAQR9MHswQgYIKwYBBQUH
MAKGNmh0dHA6Ly9zZWN1cmUyLmFscGhhc3NsLmNvbS9jYWNlcnQvZ3NhbHBoYXNo
YTJnMnIxLmNydDA1BggrBgEFBQcwAYYpaHR0cDovL29jc3AyLmdsb2JhbHNpZ24u
Y29tL2dzYWxwaGFzaGEyZzIwVwYDVR0gBFAwTjBCBgorBgEEAaAyAQoKMDQwMgYI
KwYBBQUHAgEWJmh0dHBzOi8vd3d3Lmdsb2JhbHNpZ24uY29tL3JlcG9zaXRvcnkv
MAgGBmeBDAECATAJBgNVHRMEAjAAMD4GA1UdHwQ3MDUwM6AxoC+GLWh0dHA6Ly9j
cmwyLmFscGhhc3NsLmNvbS9ncy9nc2FscGhhc2hhMmcyLmNybDAxBgNVHREEKjAo
ghR3d3cuc2hvcmVhcmNoaWVmLmNvbYIQc2hvcmVhcmNoaWVmLmNvbTAdBgNVHSUE
FjAUBggrBgEFBQcDAQYIKwYBBQUHAwIwHQYDVR0OBBYEFJhFov73PPyNAO6fiTaV
WaoUnlltMB8GA1UdIwQYMBaAFPXN1TwIUPlqTzq3l9pWg+Zp0mj3MBMGCisGAQQB
1nkCBAMBAf8EAgUAMA0GCSqGSIb3DQEBCwUAA4IBAQAeV2oaeX5sBPUUzBRoa4Mp
foZ8icAdzezy/Z1DEE+GmMqAya1RFL2DCMk2rPX133YHpC3pWkDMdl6gmrz5KOD/
080eUIs/VE9unD1zUPvHTA9a+Bokz/Rprqj9vq0VUuGI1Cp7xlYxs+gAv0ZTNchg
sG7Fbuwz962KZAUBlzn/x0c+vXmKcz0sQJdtb2nn+vupqR0rCP0NAhKdNMaRxgOE
ZuZj1IAogNwBeNUVcIaGKxM4sOOwdB/DjMUvTHn0whTTr17ggAPYb33w7VN7m0uN
s5RhHGQnAXdvLGOSkeqBWqYdsnNJiFvyS3cU6+Psd6MDUeKVNA0mPyYW4pbhLfAB
-----END CERTIFICATE-----