Certificate:
    Data:
        Version: 3 (0x2)
        Serial Number: 256 (0x100)
        Signature Algorithm: rsassaPss
         Hash Algorithm: sha256
         Mask Algorithm: mgf1 with sha256
          Salt Length: 0x20
         Trailer Field: 0xBC (default)
        Issuer: CN = Lint CA, OU = Test, O = MTG, C = DE
        Validity
            Not Before: Jan  2 09:00:00 2020 GMT
            Not After : Jan  2 09:00:00 2022 GMT
        Subject: CN = PSS Certificate, C = DE
        Subject Public Key Info:
            Public Key Algorithm: rsassaPss
            Unable to load Public Key
25769803792:error:040A4095:rsa routines:rsa_param_decode:invalid pss parameters:crypto/rsa/rsa_ameth.c:66:
25769803792:error:0B09407D:x509 certificate routines:x509_pubkey_decode:public key decode error:crypto/x509/x_pubkey.c:125:
    Signature Algorithm: rsassaPss
         Hash Algorithm: sha256
         Mask Algorithm: mgf1 with sha256
          Salt Length: 0x20
         Trailer Field: 0xBC (default)

         a4:dd:ac:d5:3a:7c:2d:00:09:a9:43:f2:91:63:ea:6a:89:1d:
         03:19:12:75:1d:27:19:9d:f0:6a:fe:11:d0:32:d4:f8:57:53:
         f4:13:3e:7b:1d:cc:ea:46:cb:53:2c:78:b6:17:7c:25:b8:1b:
         62:9d:46:6c:fe:a0:4c:7f:bc:3a:56:71:d5:28:02:02:5b:97:
         1a:8e:17:c9:82:3f:1c:60:e2:56:02:96:e1:f1:64:88:e9:06:
         6d:b5:b7:fb:31:c2:da:96:1e:8d:3f:c1:7e:32:8b:1d:b9:e3:
         d7:3c:35:9b:c1:dd:42:21:4d:c2:b3:d5:9a:5f:df:78:92:7c:
         4f:da:da:0c:8e:a8:17:10:50:e6:c3:b4:6a:8d:4d:86:6e:7f:
         11:71:5f:50:6a:80:12:07:d4:50:b1:d6:26:5e:00:ff:e8:c6:
         d1:de:be:93:a4:1e:7a:cb:23:c9:67:2d:a0:74:49:cd:a2:c0:
         15:24:dc:47:4f:fc:c4:84:80:08:82:f6:e0:17:2e:0f:74:fb:
         20:ff:62:4e:2f:60:15:20:68:dd:df:05:e9:af:c6:27:82:6d:
         96:b9:78:a4:e0:a7:9e:b5:e5:a1:94:9f:d6:62:ca:9e:f6:cc:
         20:98:bd:bb:a8:95:6f:0d:ca:00:e9:dd:29:fd:51:98:e4:9b:
         11:9a:29:52
-----BEGIN CERTIFICATE-----
MIIDRTCCAfmgAwIBAgICAQAwQQYJKoZIhvcNAQEKMDSgDzANBglghkgBZQMEAgEF
AKEcMBoGCSqGSIb3DQEBCDANBglghkgBZQMEAgEFAKIDAgEgMDwxEDAOBgNVBAMM
B0xpbnQgQ0ExDTALBgNVBAsMBFRlc3QxDDAKBgNVBAoMA01URzELMAkGA1UEBhMC
REUwHhcNMjAwMTAyMDkwMDAwWhcNMjIwMTAyMDkwMDAwWjAnMRgwFgYDVQQDDA9Q
U1MgQ2VydGlmaWNhdGUxCzAJBgNVBAYTAkRFMIIBIjANBgkqhkiG9w0BAQoFAAOC
AQ8AMIIBCgKCAQEAgaQLShaQdxHtfnh9ejAjfSvmZ/U4Y1LU6FwdwI4R/2WHrRQk
w0aJ9qE2F8rKvFBdZvB0LQfI6znVr+OvZPI8Uu9E7INOs0Zfx/eWWgx0EQbXPOAP
QNMRwAh7fPVSC0pkPIivwd/4MP+ty5CIFr2sBhF8Dc6wIUNjqgbPPV7FK2i4ASvJ
Xq+xWUrhloOSHYUklQ3wfwBLmoBzbNEzLittskMfgp6gAehOffxshupJRnK9jNKY
4/1eJTjl6fsLUJdExRT5/LbOOBOrJmPZE1zi7MSt/6g8FjuN7daDIiS/gwRR1vXx
pGs83V4rsmWSK98rkFysnUhgFgPY43rdvQ4BJQIDAQABMEEGCSqGSIb3DQEBCjA0
oA8wDQYJYIZIAWUDBAIBBQChHDAaBgkqhkiG9w0BAQgwDQYJYIZIAWUDBAIBBQCi
AwIBIAOCAQEApN2s1Tp8LQAJqUPykWPqaokdAxkSdR0nGZ3wav4R0DLU+FdT9BM+
ex3M6kbLUyx4thd8JbgbYp1GbP6gTH+8OlZx1SgCAluXGo4XyYI/HGDiVgKW4fFk
iOkGbbW3+zHC2pYejT/BfjKLHbnj1zw1m8HdQiFNwrPVml/feJJ8T9raDI6oFxBQ
5sO0ao1Nhm5/EXFfUGqAEgfUULHWJl4A/+jG0d6+k6QeessjyWctoHRJzaLAFSTc
R0/8xISACIL24BcuD3T7IP9iTi9gFSBo3d8F6a/GJ4Jtlrl4pOCnnrXloZSf1mLK
nvbMIJi9u6iVbw3KAOndKf1RmOSbEZopUg==
-----END CERTIFICATE-----