Certificate:
    Data:
        Version: 3 (0x2)
        Serial Number: 256 (0x100)
        Signature Algorithm: rsassaPss         
         Hash Algorithm: sha384
         Mask Algorithm: mgf1 with sha384
          Salt Length: 0x30
         Trailer Field: 0xBC (default)
        Issuer: CN = Lint CA, OU = Test, O = MTG, C = DE
        Validity
            Not Before: Jan  2 09:00:00 2020 GMT
            Not After : Jan  2 09:00:00 2022 GMT
        Subject: CN = PSS Certificate, C = DE
        Subject Public Key Info:
            Public Key Algorithm: rsaEncryption
                RSA Public-Key: (2048 bit)
                Modulus:
                    00:b9:dd:2b:e2:8b:65:79:dd:2b:ba:fe:b4:a5:18:
                    e6:d5:a3:e3:b3:6a:f6:80:fd:d0:9f:c5:ed:6b:a6:
                    2b:e0:85:3e:80:d4:be:4a:ec:cd:0b:29:0e:d0:b5:
                    9c:56:e3:de:e5:1c:5d:28:56:6a:e4:79:56:52:3a:
                    15:ea:5e:a2:4c:4e:01:ce:c3:8c:6b:af:8b:b2:43:
                    07:5d:d3:9a:8b:4e:e0:6b:51:36:f5:ef:34:cf:aa:
                    55:34:32:e4:b7:ea:ef:ec:f3:35:4d:3b:56:5e:04:
                    3d:c0:31:78:a3:f5:78:79:18:5c:db:d2:18:40:a4:
                    16:54:80:3b:40:cf:76:f0:0f:76:dd:08:1c:83:51:
                    9d:03:85:31:1d:fe:78:b1:30:82:2c:fb:ad:ed:71:
                    4b:78:84:7c:17:ef:2d:7e:7a:d3:62:5c:a8:84:d4:
                    5f:b0:0e:bc:ad:56:b2:7e:93:48:27:d1:6d:2c:de:
                    3a:21:02:b5:85:1b:78:35:37:6c:c1:57:0a:73:03:
                    58:33:b2:f4:9e:51:98:dc:1b:7d:12:b9:3e:c3:25:
                    6f:92:a0:03:39:09:93:6c:0d:e2:ea:d8:ed:8e:87:
                    86:14:2e:16:88:eb:0f:f3:d2:e6:db:55:65:1e:7f:
                    93:22:df:d0:ed:bb:f3:bd:ca:c2:51:3c:4c:8b:89:
                    e3:5b
                Exponent: 65537 (0x10001)
    Signature Algorithm: rsassaPss         
         Hash Algorithm: sha384
         Mask Algorithm: mgf1 with sha384
          Salt Length: 0x30
         Trailer Field: 0xBC (default)

         44:ca:d4:f9:99:4c:b7:84:59:ba:09:64:e5:92:ec:18:e7:9c:
         10:ea:6e:5e:9b:ff:96:12:88:14:7a:ab:4d:c6:7e:3f:14:4c:
         c4:ea:c9:ad:24:60:34:68:70:76:b3:ac:e5:ce:d2:e0:28:f7:
         9b:46:b7:60:90:8c:75:f4:4b:fd:e9:58:c0:87:2e:a9:77:e4:
         0f:84:5e:13:d7:22:ee:e9:03:1a:79:ac:35:68:38:ff:aa:c8:
         7c:6f:86:30:86:cf:49:99:2b:62:64:47:48:69:8c:9d:c4:a3:
         52:92:c7:e7:a5:26:70:df:45:4a:e8:0a:4b:92:e4:73:1b:69:
         7b:06:43:62:68:46:f1:16:db:08:e5:23:a7:41:83:d9:36:24:
         31:42:2b:59:cb:78:22:18:11:e4:74:6e:f9:e5:3a:34:0e:ea:
         48:6a:fb:fc:03:fd:b0:f0:8f:2e:4c:1c:dc:78:1d:0d:fb:3a:
         f5:d2:b1:ab:51:37:63:f7:48:82:a5:ca:fe:bc:b9:ae:03:38:
         43:1c:5a:7c:80:5b:d0:6a:fb:44:40:74:41:11:08:76:4e:9a:
         54:2f:7e:dd:ec:75:55:eb:b7:65:a9:ec:c6:fb:b5:1a:ad:00:
         1d:7b:41:e5:74:b9:84:1a:11:4d:14:a3:37:22:f8:15:3c:e6:
         6a:bf:33:73
-----BEGIN CERTIFICATE-----
MIIDPTCCAfWgAwIBAgICAQAwPQYJKoZIhvcNAQEKMDCgDTALBglghkgBZQMEAgKh
GjAYBgkqhkiG9w0BAQgwCwYJYIZIAWUDBAICogMCATAwPDEQMA4GA1UEAwwHTGlu
dCBDQTENMAsGA1UECwwEVGVzdDEMMAoGA1UECgwDTVRHMQswCQYDVQQGEwJERTAe
Fw0yMDAxMDIwOTAwMDBaFw0yMjAxMDIwOTAwMDBaMCcxGDAWBgNVBAMMD1BTUyBD
ZXJ0aWZpY2F0ZTELMAkGA1UEBhMCREUwggEiMA0GCSqGSIb3DQEBAQUAA4IBDwAw
ggEKAoIBAQC53Svii2V53Su6/rSlGObVo+OzavaA/dCfxe1rpivghT6A1L5K7M0L
KQ7QtZxW497lHF0oVmrkeVZSOhXqXqJMTgHOw4xrr4uyQwdd05qLTuBrUTb17zTP
qlU0MuS36u/s8zVNO1ZeBD3AMXij9Xh5GFzb0hhApBZUgDtAz3bwD3bdCByDUZ0D
hTEd/nixMIIs+63tcUt4hHwX7y1+etNiXKiE1F+wDrytVrJ+k0gn0W0s3johArWF
G3g1N2zBVwpzA1gzsvSeUZjcG30SuT7DJW+SoAM5CZNsDeLq2O2Oh4YULhaI6w/z
0ubbVWUef5Mi39Dtu/O9ysJRPEyLieNbAgMBAAEwPQYJKoZIhvcNAQEKMDCgDTAL
BglghkgBZQMEAgKhGjAYBgkqhkiG9w0BAQgwCwYJYIZIAWUDBAICogMCATADggEB
AETK1PmZTLeEWboJZOWS7BjnnBDqbl6b/5YSiBR6q03Gfj8UTMTqya0kYDRocHaz
rOXO0uAo95tGt2CQjHX0S/3pWMCHLql35A+EXhPXIu7pAxp5rDVoOP+qyHxvhjCG
z0mZK2JkR0hpjJ3Eo1KSx+elJnDfRUroCkuS5HMbaXsGQ2JoRvEW2wjlI6dBg9k2
JDFCK1nLeCIYEeR0bvnlOjQO6khq+/wD/bDwjy5MHNx4HQ37OvXSsatRN2P3SIKl
yv68ua4DOEMcWnyAW9Bq+0RAdEERCHZOmlQvft3sdVXrt2Wp7Mb7tRqtAB17QeV0
uYQaEU0Uozci+BU85mq/M3M=
-----END CERTIFICATE-----
