Certificate:
    Data:
        Version: 3 (0x2)
        Serial Number: 256 (0x100)
        Signature Algorithm: rsassaPss
         Hash Algorithm: sha256
         Mask Algorithm: mgf1 with sha256
          Salt Length: 0x20
         Trailer Field: 0xBC (default)
        Issuer: CN = Lint CA, OU = Test, O = MTG, C = DE
        Validity
            Not Before: Jan  2 09:00:00 2020 GMT
            Not After : Jan  2 09:00:00 2022 GMT
        Subject: CN = PSS Certificate, C = DE
        Subject Public Key Info:
            Public Key Algorithm: rsaEncryption
                RSA Public-Key: (2048 bit)
                Modulus:
                    00:a5:db:87:00:57:d5:d3:0d:9f:8e:bf:9f:00:fb:
                    98:8c:72:27:2c:f8:2e:24:3e:40:9c:62:0b:d6:ac:
                    2e:77:76:67:6e:9e:70:51:fc:75:0a:63:8b:8c:fd:
                    a5:ec:74:56:39:25:63:95:00:92:f9:00:35:01:9d:
                    9d:98:f6:fd:4e:2d:69:7d:24:de:a0:55:33:1e:95:
                    59:13:17:ff:00:bb:1a:ee:1d:c4:32:44:52:5a:d7:
                    0e:e4:47:f2:f5:88:8b:65:dc:53:d1:f7:8d:b8:3f:
                    6e:17:78:af:73:4a:c0:0a:b6:3f:e6:b1:77:e1:09:
                    a4:5d:4b:db:50:69:1d:ac:2e:b5:f2:6c:0d:fa:ae:
                    a3:4a:89:d3:ec:59:f4:fa:f6:e4:66:81:b6:09:88:
                    c1:01:56:e4:e4:d6:2b:ad:b2:14:e1:72:db:5e:9c:
                    b6:5b:5b:6b:a3:ed:f5:43:91:ca:20:55:24:c7:1c:
                    c3:1c:e8:25:79:9d:77:1a:52:23:45:cd:4a:98:f4:
                    24:06:6e:62:04:8e:31:79:9e:93:1a:58:43:6c:95:
                    29:81:19:3c:1d:2c:43:0f:b0:9d:98:49:21:21:22:
                    85:07:54:93:cc:d2:c3:9e:f2:7c:79:f6:c7:e7:18:
                    62:54:14:34:af:1b:b9:97:35:0b:af:db:e0:b5:cf:
                    98:d3
                Exponent: 65537 (0x10001)
    Signature Algorithm: rsassaPss
         Hash Algorithm: sha256
         Mask Algorithm: mgf1 with sha256
          Salt Length: 0x20
         Trailer Field: 0xBC (default)

         49:d5:ab:eb:7e:2f:20:1c:b9:05:78:40:a8:04:ae:0a:f3:66:
         2f:99:6c:01:ae:67:8a:a2:e0:4b:42:be:2b:d3:cb:58:b9:9a:
         8d:c3:a6:fa:5c:d8:16:21:37:f0:92:1d:20:23:0b:b0:94:2f:
         e5:e4:c0:34:92:0a:b0:09:6e:97:ff:f4:a0:73:a3:51:4f:81:
         81:61:58:43:a5:32:61:e1:58:a1:6a:93:15:5f:c3:6e:68:ac:
         6d:25:39:30:f9:5f:ce:76:eb:ba:b3:16:0c:d5:07:e3:53:dd:
         db:26:d8:1a:17:c7:b2:2d:aa:98:b8:fd:c7:0c:ce:2c:21:3f:
         57:ee:e2:0d:b5:63:e5:d2:a2:31:14:fc:0e:29:87:d0:9a:8f:
         33:ae:32:6a:af:a5:dc:ae:90:fa:13:c8:4c:be:a2:fe:cc:0a:
         d5:3d:52:f2:d6:6a:92:db:21:dc:99:17:28:e3:d0:0b:eb:fa:
         5c:a4:f4:e9:f7:5e:53:c6:02:1c:e7:35:f8:ce:59:27:98:26:
         4d:e7:ee:4f:b1:c0:16:a7:d2:fe:4c:38:b4:0a:ef:8e:39:68:
         42:ca:de:07:1d:09:68:ba:8c:f8:b7:f1:b0:bd:81:7d:9d:c7:
         8c:46:37:2a:5e:c9:14:04:f9:e0:3e:fb:46:32:e6:5c:8e:ac:
         72:11:2c:8e
-----BEGIN CERTIFICATE-----
MIIDRTCCAfmgAwIBAgICAQAwQQYJKoZIhvcNAQEKMDSgDzANBglghkgBZQMEAgEF
AKEcMBoGCSqGSIb3DQEBCDANBglghkgBZQMEAgEFAKIDAgEgMDwxEDAOBgNVBAMM
B0xpbnQgQ0ExDTALBgNVBAsMBFRlc3QxDDAKBgNVBAoMA01URzELMAkGA1UEBhMC
REUwHhcNMjAwMTAyMDkwMDAwWhcNMjIwMTAyMDkwMDAwWjAnMRgwFgYDVQQDDA9Q
U1MgQ2VydGlmaWNhdGUxCzAJBgNVBAYTAkRFMIIBIjANBgkqhkiG9w0BAQEFAAOC
AQ8AMIIBCgKCAQEApduHAFfV0w2fjr+fAPuYjHInLPguJD5AnGIL1qwud3Znbp5w
Ufx1CmOLjP2l7HRWOSVjlQCS+QA1AZ2dmPb9Ti1pfSTeoFUzHpVZExf/ALsa7h3E
MkRSWtcO5Efy9YiLZdxT0feNuD9uF3ivc0rACrY/5rF34QmkXUvbUGkdrC618mwN
+q6jSonT7Fn0+vbkZoG2CYjBAVbk5NYrrbIU4XLbXpy2W1tro+31Q5HKIFUkxxzD
HOgleZ13GlIjRc1KmPQkBm5iBI4xeZ6TGlhDbJUpgRk8HSxDD7CdmEkhISKFB1ST
zNLDnvJ8efbH5xhiVBQ0rxu5lzULr9vgtc+Y0wIDAQABMEEGCSqGSIb3DQEBCjA0
oA8wDQYJYIZIAWUDBAIBBQChHDAaBgkqhkiG9w0BAQgwDQYJYIZIAWUDBAIBBQCi
AwIBIAOCAQEASdWr634vIBy5BXhAqASuCvNmL5lsAa5niqLgS0K+K9PLWLmajcOm
+lzYFiE38JIdICMLsJQv5eTANJIKsAlul//0oHOjUU+BgWFYQ6UyYeFYoWqTFV/D
bmisbSU5MPlfznbrurMWDNUH41Pd2ybYGhfHsi2qmLj9xwzOLCE/V+7iDbVj5dKi
MRT8DimH0JqPM64yaq+l3K6Q+hPITL6i/swK1T1S8tZqktsh3JkXKOPQC+v6XKT0
6fdeU8YCHOc1+M5ZJ5gmTefuT7HAFqfS/kw4tArvjjloQsreBx0JaLqM+LfxsL2B
fZ3HjEY3Kl7JFAT54D77RjLmXI6schEsjg==
-----END CERTIFICATE-----