Certificate:
    Data:
        Version: 3 (0x2)
        Serial Number: 256 (0x100)
        Signature Algorithm: rsassaPss         
         Hash Algorithm: sha512
         Mask Algorithm: mgf1 with sha512
          Salt Length: 0x40
         Trailer Field: 0xBC (default)
        Issuer: CN = Lint CA, OU = Test, O = MTG, C = DE
        Validity
            Not Before: Jan  2 09:00:00 2020 GMT
            Not After : Jan  2 09:00:00 2022 GMT
        Subject: CN = PSS Certificate, C = DE
        Subject Public Key Info:
            Public Key Algorithm: rsaEncryption
                RSA Public-Key: (2048 bit)
                Modulus:
                    00:80:64:93:6f:f0:66:e8:57:f2:9a:9b:14:8d:c2:
                    7f:eb:dc:34:64:2d:1b:4e:bb:17:f1:a0:ff:87:5e:
                    69:fe:5c:ee:d3:32:79:de:e0:12:b9:99:5b:ab:fa:
                    12:e7:c0:3d:94:a3:c0:5e:5f:6c:ac:18:a9:98:42:
                    47:99:ff:0e:2f:8c:a1:e3:4a:0e:9d:36:ea:03:49:
                    d2:17:b9:a9:47:c5:65:36:f7:01:38:ce:79:70:4e:
                    d4:46:45:98:a7:a1:9c:4f:b6:ce:87:ad:42:69:1e:
                    5d:3b:15:fc:f3:ae:38:90:ea:bb:56:ae:6c:d8:dc:
                    53:cd:41:c5:53:ae:da:01:e4:44:41:d2:02:d7:4b:
                    bc:7e:24:aa:4e:9e:ec:52:e5:13:de:58:90:2d:94:
                    8c:73:11:88:4f:29:58:92:8a:b2:54:dd:c6:28:a7:
                    bc:a6:33:f5:08:9d:78:5b:7b:dc:af:e7:01:42:34:
                    24:b5:ae:bc:dc:56:b5:80:7d:1c:d3:cb:01:28:15:
                    b4:08:99:ee:d4:9c:7e:57:1c:d6:ad:62:80:c1:eb:
                    df:c1:f9:a3:d3:06:38:51:cc:26:e6:aa:ad:8f:2e:
                    b1:db:4f:c7:4a:72:6d:77:38:3f:79:8b:e1:45:fa:
                    78:91:9c:7f:55:1f:0f:40:6e:07:6a:c4:44:2a:e8:
                    1c:71
                Exponent: 65537 (0x10001)
    Signature Algorithm: rsassaPss         
         Hash Algorithm: sha512
         Mask Algorithm: mgf1 with sha512
          Salt Length: 0x40
         Trailer Field: 0xBC (default)

         b6:07:1e:ae:68:f7:d4:56:87:5e:67:ce:c6:0f:5d:78:3e:4d:
         e5:22:4e:2c:a7:46:92:e1:19:9c:48:89:34:83:57:4f:8c:64:
         de:c3:05:34:aa:3e:24:18:40:92:0d:a1:f4:25:4a:ff:b6:3b:
         f7:14:8c:8a:c3:fa:df:3e:23:c4:2e:78:77:28:a3:2a:aa:12:
         81:d5:bb:cc:18:91:47:f5:9f:fe:d9:10:69:a0:12:64:39:1a:
         22:df:d2:81:04:b9:9a:52:21:e9:af:22:cb:50:d5:2e:2d:c0:
         af:ff:52:ce:dd:43:0a:ee:07:67:a9:da:38:b9:1e:b0:a9:99:
         87:0b:99:63:36:48:79:39:84:e4:94:24:d3:c1:19:07:ca:1e:
         a1:c9:ab:85:45:57:7d:ce:2e:8c:eb:70:e2:99:9b:01:eb:07:
         ce:db:f8:9b:41:4d:81:dc:da:c5:0c:cf:c7:6e:a9:30:d8:a8:
         7b:21:88:96:46:9c:bd:36:c9:82:63:22:7b:ac:4d:18:63:0f:
         52:a4:c2:b6:f8:49:4e:fd:89:30:c1:22:d5:b8:58:da:d6:05:
         ae:d2:48:ac:2f:bb:42:44:0a:6d:db:df:d7:1e:87:51:d3:5a:
         ed:26:ff:57:e9:f0:ce:b8:9b:5b:22:0d:47:14:95:36:00:be:
         54:1b:b3:cc
-----BEGIN CERTIFICATE-----
MIIDRTCCAfmgAwIBAgICAQAwQQYJKoZIhvcNAQEKMDSgDzANBglghkgBZQMEAgMF
AKEcMBoGCSqGSIb3DQEBCDANBglghkgBZQMEAgMFAKIDAgFAMDwxEDAOBgNVBAMM
B0xpbnQgQ0ExDTALBgNVBAsMBFRlc3QxDDAKBgNVBAoMA01URzELMAkGA1UEBhMC
REUwHhcNMjAwMTAyMDkwMDAwWhcNMjIwMTAyMDkwMDAwWjAnMRgwFgYDVQQDDA9Q
U1MgQ2VydGlmaWNhdGUxCzAJBgNVBAYTAkRFMIIBIjANBgkqhkiG9w0BAQEFAAOC
AQ8AMIIBCgKCAQEAgGSTb/Bm6FfympsUjcJ/69w0ZC0bTrsX8aD/h15p/lzu0zJ5
3uASuZlbq/oS58A9lKPAXl9srBipmEJHmf8OL4yh40oOnTbqA0nSF7mpR8VlNvcB
OM55cE7URkWYp6GcT7bOh61CaR5dOxX88644kOq7Vq5s2NxTzUHFU67aAeREQdIC
10u8fiSqTp7sUuUT3liQLZSMcxGITylYkoqyVN3GKKe8pjP1CJ14W3vcr+cBQjQk
ta683Fa1gH0c08sBKBW0CJnu1Jx+VxzWrWKAwevfwfmj0wY4Ucwm5qqtjy6x20/H
SnJtdzg/eYvhRfp4kZx/VR8PQG4HasREKugccQIDAQABMEEGCSqGSIb3DQEBCjA0
oA8wDQYJYIZIAWUDBAIDBQChHDAaBgkqhkiG9w0BAQgwDQYJYIZIAWUDBAIDBQCi
AwIBQAOCAQEAtgcermj31FaHXmfOxg9deD5N5SJOLKdGkuEZnEiJNINXT4xk3sMF
NKo+JBhAkg2h9CVK/7Y79xSMisP63z4jxC54dyijKqoSgdW7zBiRR/Wf/tkQaaAS
ZDkaIt/SgQS5mlIh6a8iy1DVLi3Ar/9Szt1DCu4HZ6naOLkesKmZhwuZYzZIeTmE
5JQk08EZB8oeocmrhUVXfc4ujOtw4pmbAesHztv4m0FNgdzaxQzPx26pMNioeyGI
lkacvTbJgmMie6xNGGMPUqTCtvhJTv2JMMEi1bhY2tYFrtJIrC+7QkQKbdvf1x6H
UdNa7Sb/V+nwzribWyINRxSVNgC+VBuzzA==
-----END CERTIFICATE-----
