Certificate:
    Data:
        Version: 3 (0x2)
        Serial Number:
            f9:e5:5c:0f:a6:16:b7:59
    Signature Algorithm: sha1WithRSAEncryption
        Issuer: CN = 62.93.9.5
        Validity
            Not Before: Apr 25 23:09:43 2016 GMT
            Not After : Jan 15 23:09:43 2038 GMT
        Subject: CN = 62.93.9.5
        Subject Public Key Info:
            Public Key Algorithm: rsaEncryption
                Public-Key: (2048 bit)
                Modulus:
                    00:bd:7c:90:e1:05:65:f5:e8:2a:04:1f:f4:f9:6a:
                    da:35:48:f9:71:33:da:f2:ca:cc:f5:8b:d8:3f:c1:
                    46:85:4b:ce:02:10:57:20:bb:b7:d0:a2:e3:c9:e2:
                    4f:7a:38:e9:20:d3:d0:8f:07:50:88:0a:9f:de:79:
                    7f:0b:10:d2:a3:62:dc:ea:60:62:fc:5e:e1:92:18:
                    81:1b:1f:8e:43:68:97:61:95:61:92:71:d3:fd:25:
                    4b:b8:45:15:05:f4:46:98:e8:72:94:23:1f:55:67:
                    64:5d:e3:99:76:6e:0a:b0:39:d2:e3:f8:74:21:4e:
                    e1:90:df:1d:9b:b9:f0:0b:ea:8b:73:83:7c:9b:df:
                    07:11:22:47:42:38:dd:2e:43:c0:2d:7d:39:d0:7b:
                    3d:72:27:e9:5d:df:aa:43:f5:7b:a3:c7:60:fe:fb:
                    75:b7:87:58:ab:7e:39:be:17:49:3e:1d:25:2c:5f:
                    71:dc:23:63:c8:43:00:e0:fc:30:60:6b:0d:7d:38:
                    5e:6d:01:e8:fb:7d:17:45:d8:b5:52:d3:87:f5:e1:
                    62:33:dc:b0:b5:9b:c4:56:02:37:3e:2c:f3:af:9d:
                    76:32:17:a8:9c:7e:ce:6d:fa:73:ac:28:40:ef:06:
                    6d:5c:4d:c2:39:f5:9d:d3:4b:a0:c9:f5:83:4b:f2:
                    f5:01
                Exponent: 65537 (0x10001)
        X509v3 extensions:
            X509v3 Subject Key Identifier: 
                02:37:23:F0:25:51:B3:4B:2D:08:82:71:BE:2D:45:C1:95:44:1D:27
            X509v3 Authority Key Identifier: 
                keyid:02:37:23:F0:25:51:B3:4B:2D:08:82:71:BE:2D:45:C1:95:44:1D:27
                DirName:/CN=62.93.9.5
                serial:F9:E5:5C:0F:A6:16:B7:59

            X509v3 Basic Constraints: 
                CA:TRUE
            X509v3 Subject Alternative Name: critical
                IP Address:62.93.9.5, DNS:fritz.box, DNS:www.fritz.box, DNS:myfritz.box, DNS:www.myfritz.box, DNS:fritz.nas, DNS:www.fritz.nas
    Signature Algorithm: sha1WithRSAEncryption
         16:b6:f1:0a:af:e6:22:6a:e8:07:af:af:62:51:9b:4c:61:e9:
         c3:3f:47:45:5f:c8:2e:7a:cb:ab:77:3c:b4:15:85:53:31:67:
         ce:00:cc:b0:07:6b:de:4c:93:20:82:66:94:38:de:96:e4:8b:
         82:c2:02:63:9d:1d:03:24:91:06:9c:26:6f:ff:f5:5a:93:41:
         d2:01:67:c6:06:03:fe:af:11:57:07:57:33:d8:41:ef:dc:a4:
         c6:9b:4e:53:f1:c7:ac:53:18:1d:f9:68:57:1b:38:96:a4:66:
         3d:ae:17:94:9a:0c:fe:df:50:84:ec:e5:c1:0c:66:bd:a0:29:
         9e:68:76:7c:d0:70:53:4b:2c:71:0b:a8:8b:6e:6b:60:a9:d2:
         9f:a5:19:c0:86:4f:15:fb:c5:63:5a:f6:1a:c7:4f:e2:f6:9a:
         a0:12:2b:99:e4:3e:01:95:e2:a5:80:cf:c2:db:2a:0e:a2:ac:
         af:10:8f:22:29:f1:1b:25:0c:11:cd:22:22:53:f4:9d:62:53:
         b9:08:52:56:1a:12:93:6f:d0:8d:89:4f:dd:b9:5b:d6:ef:33:
         3b:5f:f1:72:09:7b:0d:89:fa:19:12:6d:0c:ba:51:33:95:6d:
         52:34:20:2d:bd:01:d7:34:2f:0a:a5:7c:8a:1a:07:fb:14:45:
         1a:75:a4:1c
-----BEGIN CERTIFICATE-----
MIIDiDCCAnCgAwIBAgIJAPnlXA+mFrdZMA0GCSqGSIb3DQEBBQUAMBQxEjAQBgNV
BAMTCTYyLjkzLjkuNTAeFw0xNjA0MjUyMzA5NDNaFw0zODAxMTUyMzA5NDNaMBQx
EjAQBgNVBAMTCTYyLjkzLjkuNTCCASIwDQYJKoZIhvcNAQEBBQADggEPADCCAQoC
ggEBAL18kOEFZfXoKgQf9Plq2jVI+XEz2vLKzPWL2D/BRoVLzgIQVyC7t9Ci48ni
T3o46SDT0I8HUIgKn955fwsQ0qNi3OpgYvxe4ZIYgRsfjkNol2GVYZJx0/0lS7hF
FQX0RpjocpQjH1VnZF3jmXZuCrA50uP4dCFO4ZDfHZu58Avqi3ODfJvfBxEiR0I4
3S5DwC19OdB7PXIn6V3fqkP1e6PHYP77dbeHWKt+Ob4XST4dJSxfcdwjY8hDAOD8
MGBrDX04Xm0B6Pt9F0XYtVLTh/XhYjPcsLWbxFYCNz4s86+ddjIXqJx+zm36c6wo
QO8GbVxNwjn1ndNLoMn1g0vy9QECAwEAAaOB3DCB2TAdBgNVHQ4EFgQUAjcj8CVR
s0stCIJxvi1FwZVEHScwRAYDVR0jBD0wO4AUAjcj8CVRs0stCIJxvi1FwZVEHSeh
GKQWMBQxEjAQBgNVBAMTCTYyLjkzLjkuNYIJAPnlXA+mFrdZMAwGA1UdEwQFMAMB
Af8wZAYDVR0RAQH/BFowWIcEPl0JBYIJZnJpdHouYm94gg13d3cuZnJpdHouYm94
ggtteWZyaXR6LmJveIIPd3d3Lm15ZnJpdHouYm94gglmcml0ei5uYXOCDXd3dy5m
cml0ei5uYXMwDQYJKoZIhvcNAQEFBQADggEBABa28Qqv5iJq6Aevr2JRm0xh6cM/
R0VfyC56y6t3PLQVhVMxZ84AzLAHa95MkyCCZpQ43pbki4LCAmOdHQMkkQacJm//
9VqTQdIBZ8YGA/6vEVcHVzPYQe/cpMabTlPxx6xTGB35aFcbOJakZj2uF5SaDP7f
UITs5cEMZr2gKZ5odnzQcFNLLHELqItua2Cp0p+lGcCGTxX7xWNa9hrHT+L2mqAS
K5nkPgGV4qWAz8LbKg6irK8QjyIp8RslDBHNIiJT9J1iU7kIUlYaEpNv0I2JT925
W9bvMztf8XIJew2J+hkSbQy6UTOVbVI0IC29Adc0LwqlfIoaB/sURRp1pBw=
-----END CERTIFICATE-----
