Certificate:
    Data:
        Version: 3 (0x2)
        Serial Number:
            b6:9b:ee:92:1b:f4:7f:aa
    Signature Algorithm: sha1WithRSAEncryption
        Issuer: CN = 77.2.3.34
        Validity
            Not Before: Dec 14 02:57:13 2015 GMT
            Not After : Jan 16 02:57:13 2038 GMT
        Subject: CN = 77.2.3.34
        Subject Public Key Info:
            Public Key Algorithm: rsaEncryption
                Public-Key: (2048 bit)
                Modulus:
                    00:a1:ae:2f:50:58:07:16:f2:aa:65:e7:dd:5d:5d:
                    50:03:d8:3b:46:05:75:c0:49:b9:c4:04:c0:b7:fb:
                    d0:e4:35:a0:15:8e:c9:32:a7:15:42:af:a0:64:bb:
                    49:8a:4e:53:e0:c2:4a:a2:d3:78:31:86:b5:62:f6:
                    bc:72:50:fb:aa:19:1e:d4:53:a6:1b:3d:b4:b1:b5:
                    c3:d4:c9:39:aa:95:64:c0:cd:47:2f:b9:aa:2c:9b:
                    44:b1:2b:ab:de:91:ba:27:78:4d:9d:a3:a7:1b:05:
                    63:23:3e:54:a4:7a:3f:ab:28:f5:90:8a:b2:77:4a:
                    f4:16:ab:31:85:b7:77:60:ce:03:7d:19:2c:fb:26:
                    0e:f9:f9:ff:1e:3d:7a:3f:42:6f:e8:2a:3f:85:43:
                    96:82:f0:7a:62:1f:fd:07:a7:5f:12:d4:54:4f:42:
                    10:03:fb:b3:4b:79:b4:9a:6c:6b:c6:78:12:ed:77:
                    c1:ce:9a:8e:e8:4c:55:3c:74:e3:8c:62:6f:ab:ba:
                    61:69:0d:4e:ff:e3:3d:8f:cc:5c:1a:f6:89:ea:34:
                    bd:7d:0f:01:6e:1b:11:2c:51:e7:c4:01:47:91:a4:
                    6c:da:f6:61:2f:55:67:d7:78:9e:52:8e:bb:68:46:
                    d2:0c:9a:bf:02:94:63:39:e4:7f:0a:1e:02:3f:87:
                    7e:77
                Exponent: 65537 (0x10001)
        X509v3 extensions:
            X509v3 Subject Key Identifier: 
                92:19:DD:F2:2A:8D:62:E8:94:A7:8E:C0:C7:79:F1:39:45:BC:8F:37
            X509v3 Authority Key Identifier: 
                keyid:92:19:DD:F2:2A:8D:62:E8:94:A7:8E:C0:C7:79:F1:39:45:BC:8F:37
                DirName:/CN=77.2.3.34
                serial:B6:9B:EE:92:1B:F4:7F:AA

            X509v3 Basic Constraints: 
                CA:TRUE
            X509v3 Subject Alternative Name: critical
                IP Address:77.2.3.34, DNS:fritz.box, DNS:www.fritz.box, DNS:myfritz.box, DNS:www.myfritz.box, DNS:Minol, DNS:fritz.nas, DNS:www.fritz.nas
    Signature Algorithm: sha1WithRSAEncryption
         18:f1:eb:09:23:db:19:c6:0f:44:d9:f8:1e:75:26:2b:d2:f9:
         1b:ae:bc:5f:36:f5:f6:c8:c0:32:f2:bb:af:22:f0:64:28:1d:
         fd:f7:2d:29:d4:aa:08:ff:51:9e:c7:fd:0e:3c:15:1d:15:55:
         6b:72:b3:bc:ff:50:9f:89:1d:55:f8:6c:10:e5:08:5a:ac:95:
         6e:28:ba:95:3c:1e:b5:da:45:39:5d:b0:93:7b:18:32:3e:1d:
         ea:6a:3b:bf:4a:b4:e7:c8:19:e4:71:74:86:8e:52:3d:2d:11:
         42:76:4c:ca:0b:d6:f2:ab:e7:e4:68:32:42:8b:bb:cf:67:dd:
         36:29:f0:2f:46:ca:2d:e5:59:a8:73:74:66:d9:d9:a8:2d:03:
         ad:3f:fb:84:3c:37:89:96:70:a7:70:4a:99:ab:16:ef:90:55:
         76:b1:12:e9:55:f2:21:81:9c:bf:f9:b3:1f:ca:75:86:2f:87:
         17:84:5d:b0:c2:c5:1c:8a:29:9d:88:61:9b:95:98:e0:d0:64:
         d5:a2:7c:e4:86:cc:32:1b:1b:7e:42:7e:ef:01:ba:e9:61:07:
         c6:30:86:d3:f0:80:39:79:8b:0a:7e:d6:d8:fd:46:52:6a:c6:
         23:c6:95:b9:37:d2:b1:74:51:ea:ca:ef:60:55:b7:47:5d:2e:
         ff:a4:2e:4f
-----BEGIN CERTIFICATE-----
MIIDjzCCAnegAwIBAgIJALab7pIb9H+qMA0GCSqGSIb3DQEBBQUAMBQxEjAQBgNV
BAMTCTc3LjIuMy4zNDAeFw0xNTEyMTQwMjU3MTNaFw0zODAxMTYwMjU3MTNaMBQx
EjAQBgNVBAMTCTc3LjIuMy4zNDCCASIwDQYJKoZIhvcNAQEBBQADggEPADCCAQoC
ggEBAKGuL1BYBxbyqmXn3V1dUAPYO0YFdcBJucQEwLf70OQ1oBWOyTKnFUKvoGS7
SYpOU+DCSqLTeDGGtWL2vHJQ+6oZHtRTphs9tLG1w9TJOaqVZMDNRy+5qiybRLEr
q96Ruid4TZ2jpxsFYyM+VKR6P6so9ZCKsndK9BarMYW3d2DOA30ZLPsmDvn5/x49
ej9Cb+gqP4VDloLwemIf/QenXxLUVE9CEAP7s0t5tJpsa8Z4Eu13wc6ajuhMVTx0
44xib6u6YWkNTv/jPY/MXBr2ieo0vX0PAW4bESxR58QBR5GkbNr2YS9VZ9d4nlKO
u2hG0gyavwKUYznkfwoeAj+HfncCAwEAAaOB4zCB4DAdBgNVHQ4EFgQUkhnd8iqN
YuiUp47Ax3nxOUW8jzcwRAYDVR0jBD0wO4AUkhnd8iqNYuiUp47Ax3nxOUW8jzeh
GKQWMBQxEjAQBgNVBAMTCTc3LjIuMy4zNIIJALab7pIb9H+qMAwGA1UdEwQFMAMB
Af8wawYDVR0RAQH/BGEwX4cETQIDIoIJZnJpdHouYm94gg13d3cuZnJpdHouYm94
ggtteWZyaXR6LmJveIIPd3d3Lm15ZnJpdHouYm94ggVNaW5vbIIJZnJpdHoubmFz
gg13d3cuZnJpdHoubmFzMA0GCSqGSIb3DQEBBQUAA4IBAQAY8esJI9sZxg9E2fge
dSYr0vkbrrxfNvX2yMAy8ruvIvBkKB399y0p1KoI/1Gex/0OPBUdFVVrcrO8/1Cf
iR1V+GwQ5QharJVuKLqVPB612kU5XbCTexgyPh3qaju/SrTnyBnkcXSGjlI9LRFC
dkzKC9byq+fkaDJCi7vPZ902KfAvRsot5Vmoc3Rm2dmoLQOtP/uEPDeJlnCncEqZ
qxbvkFV2sRLpVfIhgZy/+bMfynWGL4cXhF2wwsUciimdiGGblZjg0GTVonzkhswy
Gxt+Qn7vAbrpYQfGMIbT8IA5eYsKftbY/UZSasYjxpW5N9KxdFHqyu9gVbdHXS7/
pC5P
-----END CERTIFICATE-----
