Certificate:
    Data:
        Version: 3 (0x2)
        Serial Number: 18008675309 (0x4316693ed)
    Signature Algorithm: sha256WithRSAEncryption
        Issuer: C = US, O = Mother Nature, OU = Everything, CN = Mother Nature
        Validity
            Not Before: Jun 29 18:13:56 2016 GMT
            Not After : Sep 10 18:13:56 2016 GMT
        Subject: C = US, ST = FL, L = Tallahassee, street = 3210 Holly Mill Run, postalCode = 30062, O = Extreme Discord, OU = Chaos, CN = gov.us
        Subject Public Key Info:
            Public Key Algorithm: rsaEncryption
                Public-Key: (2048 bit)
                Modulus:
                    00:f8:93:02:1a:1f:b7:4c:23:02:f9:f6:09:52:05:
                    92:19:92:51:44:45:4e:f7:cf:1a:26:2d:35:07:8c:
                    2b:e6:3b:1a:66:1a:9b:c8:7f:c0:b2:b6:21:f1:48:
                    72:b2:de:60:66:41:ef:68:e9:af:57:02:47:c2:66:
                    63:05:7a:9e:d9:b7:26:12:c4:5f:7d:44:04:a0:d9:
                    0d:72:f3:76:e2:e3:25:8b:9f:a3:3c:46:71:b0:26:
                    89:cb:3e:54:c8:fd:ee:5b:d1:f8:27:70:bb:bc:7e:
                    5c:bb:ad:79:ca:38:ac:99:38:47:1c:fa:0f:7a:3e:
                    cb:a6:2d:0b:0c:41:5e:8b:39:84:d4:70:7b:0f:12:
                    60:45:5e:26:84:73:55:62:eb:54:43:ec:fc:a0:74:
                    13:7c:d9:88:15:45:7e:78:63:73:fd:43:90:71:4f:
                    50:d1:a1:b8:6d:e8:b6:2a:8a:02:1d:c5:17:a3:ee:
                    2d:d9:67:db:92:a2:4a:80:d4:04:ef:a7:26:3f:22:
                    cc:60:aa:1c:b5:6e:d4:fc:6a:76:48:97:85:d6:cb:
                    f3:fe:a7:df:8a:ac:fe:b8:31:48:ca:ed:2a:ca:44:
                    8c:cc:d3:13:51:82:5b:02:29:e6:8b:3c:8b:71:ad:
                    d5:f5:bc:03:4f:b1:a2:49:88:fa:33:40:4e:b7:82:
                    ba:cf
                Exponent: 65537 (0x10001)
        X509v3 extensions:
            X509v3 Key Usage: critical
                Digital Signature, Key Encipherment
            X509v3 Extended Key Usage: 
                TLS Web Client Authentication, TLS Web Server Authentication
            X509v3 Basic Constraints: critical
                CA:TRUE
            X509v3 Authority Key Identifier: 
                keyid:01:02:03

            Authority Information Access: 
                OCSP - URI:http://theca.net/ocsp
                CA Issuers - URI:http://theca.net/totallythecert.crt

            X509v3 Certificate Policies: 
                Policy: 2.23.140.1.2.2

            X509v3 Subject Key Identifier: 
                04:03:02:01
            X509v3 Subject Alternative Name: 
                DNS:*.gov.us, DNS:gov.us
    Signature Algorithm: sha256WithRSAEncryption
         0c:fb:5c:b3:b0:e8:54:03:8a:51:1e:57:47:4a:8a:aa:a3:54:
         7d:8c:44:64:06:f1:26:20:03:03:f2:42:71:71:80:d1:a5:ac:
         6a:ab:93:7a:f4:2a:d6:c0:e9:b6:8e:a9:8c:c7:78:b1:60:09:
         a8:8a:45:28:4b:a7:75:b3:20:53:a9:d4:55:0d:ec:fe:15:71:
         d7:73:ee:6e:46:db:a3:38:1b:fb:b8:5e:c2:4f:d0:d2:13:b3:
         b6:83:c1:0d:2f:a0:a2:c1:16:9e:cc:25:ae:d4:0d:f1:a8:ef:
         1c:70:82:06:8b:5b:c1:d5:65:35:2e:7d:52:27:f2:11:9b:cb:
         3f:1b:5b:db:f3:24:e6:89:0a:c0:9a:70:62:a4:7e:7a:cd:6f:
         b5:64:e4:72:25:c6:12:51:bf:5c:27:bd:d5:07:ad:15:f7:09:
         9d:46:b8:90:ee:f6:23:ed:32:2a:01:43:cd:4a:ed:15:01:ce:
         40:9d:da:0c:02:49:6a:16:a6:c0:fe:30:f8:ec:02:d0:80:4e:
         c9:27:7f:a1:94:4a:86:3e:4f:ea:46:3e:7a:c1:ff:b5:59:7a:
         57:e6:ae:97:d8:75:1a:88:50:96:6d:ff:be:50:ff:31:ac:df:
         45:26:ce:26:97:a6:d3:87:00:c5:92:f0:86:a1:ff:2d:68:9c:
         c9:1a:4e:5b
-----BEGIN CERTIFICATE-----
MIIEZDCCA0ygAwIBAgIFBDFmk+0wDQYJKoZIhvcNAQELBQAwUjELMAkGA1UEBhMC
VVMxFjAUBgNVBAoTDU1vdGhlciBOYXR1cmUxEzARBgNVBAsTCkV2ZXJ5dGhpbmcx
FjAUBgNVBAMTDU1vdGhlciBOYXR1cmUwHhcNMTYwNjI5MTgxMzU2WhcNMTYwOTEw
MTgxMzU2WjCBmTELMAkGA1UEBhMCVVMxCzAJBgNVBAgTAkZMMRQwEgYDVQQHEwtU
YWxsYWhhc3NlZTEcMBoGA1UECRMTMzIxMCBIb2xseSBNaWxsIFJ1bjEOMAwGA1UE
ERMFMzAwNjIxGDAWBgNVBAoTD0V4dHJlbWUgRGlzY29yZDEOMAwGA1UECxMFQ2hh
b3MxDzANBgNVBAMTBmdvdi51czCCASIwDQYJKoZIhvcNAQEBBQADggEPADCCAQoC
ggEBAPiTAhoft0wjAvn2CVIFkhmSUURFTvfPGiYtNQeMK+Y7GmYam8h/wLK2IfFI
crLeYGZB72jpr1cCR8JmYwV6ntm3JhLEX31EBKDZDXLzduLjJYufozxGcbAmics+
VMj97lvR+Cdwu7x+XLuteco4rJk4Rxz6D3o+y6YtCwxBXos5hNRwew8SYEVeJoRz
VWLrVEPs/KB0E3zZiBVFfnhjc/1DkHFPUNGhuG3otiqKAh3FF6PuLdln25KiSoDU
BO+nJj8izGCqHLVu1PxqdkiXhdbL8/6n34qs/rgxSMrtKspEjMzTE1GCWwIp5os8
i3Gt1fW8A0+xokmI+jNATreCus8CAwEAAaOB+DCB9TAOBgNVHQ8BAf8EBAMCBaAw
HQYDVR0lBBYwFAYIKwYBBQUHAwIGCCsGAQUFBwMBMA8GA1UdEwEB/wQFMAMBAf8w
DgYDVR0jBAcwBYADAQIDMGIGCCsGAQUFBwEBBFYwVDAhBggrBgEFBQcwAYYVaHR0
cDovL3RoZWNhLm5ldC9vY3NwMC8GCCsGAQUFBzAChiNodHRwOi8vdGhlY2EubmV0
L3RvdGFsbHl0aGVjZXJ0LmNydDATBgNVHSAEDDAKMAgGBmeBDAECAjANBgNVHQ4E
BgQEBAMCATAbBgNVHREEFDASgggqLmdvdi51c4IGZ292LnVzMA0GCSqGSIb3DQEB
CwUAA4IBAQAM+1yzsOhUA4pRHldHSoqqo1R9jERkBvEmIAMD8kJxcYDRpaxqq5N6
9CrWwOm2jqmMx3ixYAmoikUoS6d1syBTqdRVDez+FXHXc+5uRtujOBv7uF7CT9DS
E7O2g8ENL6CiwRaezCWu1A3xqO8ccIIGi1vB1WU1Ln1SJ/IRm8s/G1vb8yTmiQrA
mnBipH56zW+1ZORyJcYSUb9cJ73VB60V9wmdRriQ7vYj7TIqAUPNSu0VAc5AndoM
AklqFqbA/jD47ALQgE7JJ3+hlEqGPk/qRj56wf+1WXpX5q6X2HUaiFCWbf++UP8x
rN9FJs4ml6bThwDFkvCGof8taJzJGk5b
-----END CERTIFICATE-----
