Certificate:
    Data:
        Version: 3 (0x2)
        Serial Number: 18008675984 (0x431669690)
    Signature Algorithm: sha256WithRSAEncryption
        Issuer: C = US, O = Mother Nature, OU = Everything, CN = Mother Nature
        Validity
            Not Before: Jul  2 22:29:52 2016 GMT
            Not After : Sep 14 22:29:52 2016 GMT
        Subject: GN = Alexander, SN = Washington
        Subject Public Key Info:
            Public Key Algorithm: rsaEncryption
                Public-Key: (2048 bit)
                Modulus:
                    00:cf:2f:22:60:27:d2:74:f7:87:ab:a6:3d:f0:bd:
                    ac:02:d3:86:c5:6d:20:3d:85:60:a9:f2:2b:45:3f:
                    4b:18:88:b9:b8:30:88:22:b4:f0:5e:43:e8:c7:77:
                    6d:8f:59:d7:52:40:2b:50:42:88:04:ff:80:37:82:
                    4a:9c:fa:da:14:72:00:5c:10:2a:8b:80:e4:a7:79:
                    ca:ff:a8:57:6d:32:a6:80:87:83:ed:dd:7f:fd:bc:
                    4f:a9:1f:cf:52:0f:b4:7f:b9:75:03:e7:d6:85:e9:
                    38:82:6b:84:1f:2e:0d:9a:7e:ea:94:8d:de:62:49:
                    44:6d:21:e9:eb:00:d8:86:94:8b:8d:72:0f:e3:08:
                    0d:5a:5d:4f:6a:8d:53:10:04:71:e3:54:82:09:b7:
                    3f:08:e5:ca:0c:c9:66:30:d0:12:4f:0a:e8:9c:fe:
                    30:26:1c:11:bf:6f:a9:ab:58:27:26:9b:4c:e7:62:
                    90:c0:b2:fd:a2:85:70:1c:2e:9b:e7:0d:2f:38:17:
                    b8:1c:81:80:de:56:cd:75:74:1f:5a:01:f2:81:3e:
                    92:26:23:71:43:81:8f:28:d4:e8:ff:d2:01:79:2d:
                    ea:c0:6c:28:dd:19:d1:b0:b0:3d:7c:15:c2:fc:cd:
                    c3:c1:0f:96:c8:55:3c:ff:e0:7c:54:09:56:bc:21:
                    de:4b
                Exponent: 65537 (0x10001)
        X509v3 extensions:
            X509v3 Key Usage: critical
                Digital Signature, Key Encipherment
            X509v3 Extended Key Usage: 
                TLS Web Client Authentication, TLS Web Server Authentication
            X509v3 Basic Constraints: critical
                CA:FALSE
            X509v3 Authority Key Identifier: 
                keyid:01:02:03

            Authority Information Access: 
                OCSP - URI:http://theca.net/ocsp
                CA Issuers - URI:http://theca.net/totallythecert.crt

            X509v3 Certificate Policies: 
                Policy: 1.3.6.1.5.5.7.13.1

            X509v3 Subject Key Identifier: 
                04:03:02:01
            X509v3 Subject Alternative Name: critical
                DNS:*.gov.us, DNS:gov.us
            X509v3 Issuer Alternative Name: 
                DNS:allthethings.net, DNS:theca.net
    Signature Algorithm: sha256WithRSAEncryption
         11:c2:51:e2:87:97:ec:1e:e7:d9:3a:42:02:22:83:38:b2:32:
         85:7b:42:55:e3:8f:79:fb:d6:b9:4c:13:7e:93:e4:4e:e6:70:
         50:f9:b2:56:eb:4f:18:61:a3:f4:41:69:34:d9:3b:0a:ee:69:
         e6:17:ad:66:60:21:01:b4:5f:f9:95:bd:85:05:88:93:6c:b9:
         66:7e:31:2b:92:03:e9:6d:7c:14:8a:5a:6f:34:4a:09:94:4f:
         5c:5b:c2:07:cf:4f:d4:67:18:74:82:a9:24:a2:44:84:6f:e2:
         03:40:30:b6:ed:bb:13:22:3a:37:db:20:af:19:7a:d2:10:40:
         19:a6:17:ee:a9:9e:bc:f9:d7:86:c5:4f:7c:92:2c:2d:09:26:
         41:28:89:dd:8f:90:5b:e3:9c:9a:d8:38:be:5d:64:f0:e5:d0:
         03:4b:57:a2:92:d2:a7:bf:f3:99:3d:1d:e2:0a:5f:d8:75:e4:
         35:03:af:d9:d4:a5:ae:07:52:7e:1b:be:aa:14:77:d5:8e:3f:
         ed:da:d9:63:8b:2a:1b:74:6c:63:e5:53:0e:55:61:cf:a4:ce:
         0f:0a:ad:d3:79:4b:c4:b9:5f:16:02:05:23:58:f8:75:4e:68:
         90:f3:0b:8b:d4:68:4f:d1:69:92:59:b2:4b:e3:7b:52:29:48:
         a3:00:15:af
-----BEGIN CERTIFICATE-----
MIIEHzCCAwegAwIBAgIFBDFmlpAwDQYJKoZIhvcNAQELBQAwUjELMAkGA1UEBhMC
VVMxFjAUBgNVBAoTDU1vdGhlciBOYXR1cmUxEzARBgNVBAsTCkV2ZXJ5dGhpbmcx
FjAUBgNVBAMTDU1vdGhlciBOYXR1cmUwHhcNMTYwNzAyMjIyOTUyWhcNMTYwOTE0
MjIyOTUyWjApMRIwEAYDVQQqEwlBbGV4YW5kZXIxEzARBgNVBAQTCldhc2hpbmd0
b24wggEiMA0GCSqGSIb3DQEBAQUAA4IBDwAwggEKAoIBAQDPLyJgJ9J094erpj3w
vawC04bFbSA9hWCp8itFP0sYiLm4MIgitPBeQ+jHd22PWddSQCtQQogE/4A3gkqc
+toUcgBcECqLgOSnecr/qFdtMqaAh4Pt3X/9vE+pH89SD7R/uXUD59aF6TiCa4Qf
Lg2afuqUjd5iSURtIenrANiGlIuNcg/jCA1aXU9qjVMQBHHjVIIJtz8I5coMyWYw
0BJPCuic/jAmHBG/b6mrWCcmm0znYpDAsv2ihXAcLpvnDS84F7gcgYDeVs11dB9a
AfKBPpImI3FDgY8o1Oj/0gF5LerAbCjdGdGwsD18FcL8zcPBD5bIVTz/4HxUCVa8
Id5LAgMBAAGjggEjMIIBHzAOBgNVHQ8BAf8EBAMCBaAwHQYDVR0lBBYwFAYIKwYB
BQUHAwIGCCsGAQUFBwMBMAwGA1UdEwEB/wQCMAAwDgYDVR0jBAcwBYADAQIDMGIG
CCsGAQUFBwEBBFYwVDAhBggrBgEFBQcwAYYVaHR0cDovL3RoZWNhLm5ldC9vY3Nw
MC8GCCsGAQUFBzAChiNodHRwOi8vdGhlY2EubmV0L3RvdGFsbHl0aGVjZXJ0LmNy
dDAVBgNVHSAEDjAMMAoGCCsGAQUFBw0BMA0GA1UdDgQGBAQEAwIBMB4GA1UdEQEB
/wQUMBKCCCouZ292LnVzggZnb3YudXMwJgYDVR0SBB8wHYIQYWxsdGhldGhpbmdz
Lm5ldIIJdGhlY2EubmV0MA0GCSqGSIb3DQEBCwUAA4IBAQARwlHih5fsHufZOkIC
IoM4sjKFe0JV4495+9a5TBN+k+RO5nBQ+bJW608YYaP0QWk02TsK7mnmF61mYCEB
tF/5lb2FBYiTbLlmfjErkgPpbXwUilpvNEoJlE9cW8IHz0/UZxh0gqkkokSEb+ID
QDC27bsTIjo32yCvGXrSEEAZphfuqZ68+deGxU98kiwtCSZBKIndj5Bb45ya2Di+
XWTw5dADS1eiktKnv/OZPR3iCl/YdeQ1A6/Z1KWuB1J+G76qFHfVjj/t2tljiyob
dGxj5VMOVWHPpM4PCq3TeUvEuV8WAgUjWPh1TmiQ8wuL1GhP0WmSWbJL43tSKUij
ABWv
-----END CERTIFICATE-----
