Certificate:
    Data:
        Version: 3 (0x2)
        Serial Number: 18008675984 (0x431669690)
    Signature Algorithm: sha256WithRSAEncryption
        Issuer: C = US, O = Mother Nature, OU = Everything, CN = Mother Nature
        Validity
            Not Before: Jul  7 20:55:35 2016 GMT
            Not After : Sep 19 20:55:35 2016 GMT
        Subject: C = US, ST = FL, L = Tallahassee, street = 3210 Holly Mill Run, postalCode = 30062, O = Extreme Discord, OU = Chaos, CN = gov.us
        Subject Public Key Info:
            Public Key Algorithm: rsaEncryption
                Public-Key: (2048 bit)
                Modulus:
                    00:bb:b4:fc:e7:40:0a:24:32:fb:ac:a0:88:8e:3b:
                    fe:37:07:1c:35:3a:f6:35:b2:93:ae:3d:ee:c3:a2:
                    58:19:b1:02:cd:91:49:14:02:9d:41:94:4c:4d:0e:
                    f2:dc:e6:58:ec:6f:cb:73:f2:1c:0d:22:14:a5:ed:
                    68:a8:95:24:c8:54:5c:1d:7c:99:9a:93:25:4e:76:
                    90:a0:a5:06:0f:ed:76:8f:6e:dc:e2:64:4b:d7:9e:
                    65:27:4b:f3:a7:37:67:c7:af:ec:8d:69:06:bf:36:
                    39:e5:2f:30:89:30:95:32:8a:d2:5a:ba:de:40:19:
                    e1:ac:a5:d8:bb:b0:46:76:f6:db:c4:8c:c7:16:04:
                    37:52:1e:2c:1c:82:08:38:d2:f9:c4:b9:c7:0b:ed:
                    de:15:5f:5d:1c:9b:16:02:ad:4c:9c:ba:ce:b7:c4:
                    81:42:38:89:97:d6:d0:3f:6c:00:f0:20:87:30:8b:
                    37:a9:cd:8f:79:b5:8e:21:dc:5b:a7:45:38:a9:5c:
                    3f:c5:2a:6a:87:96:64:15:bc:a9:6b:a0:93:1f:1d:
                    7c:96:a6:b6:d1:05:f9:8e:ce:df:e3:87:86:c3:c5:
                    bc:ef:e6:6e:84:06:2e:f9:bf:fb:8b:c7:85:19:f6:
                    21:52:8d:da:e4:09:c1:84:ef:0b:45:fc:11:75:54:
                    5b:41
                Exponent: 65537 (0x10001)
        X509v3 extensions:
            X509v3 Key Usage: critical
                Digital Signature, Key Encipherment
            X509v3 Extended Key Usage: 
                TLS Web Client Authentication, TLS Web Server Authentication
            X509v3 Basic Constraints: critical
                CA:TRUE
            Authority Information Access: 
                OCSP - URI:http://theca.net/ocsp
                CA Issuers - URI:http://theca.net/totallythecert.crt

            X509v3 Certificate Policies: 
                Policy: 1.3.6.1.5.5.7.13.1
                Policy: 2.23.140.1.2.2

            X509v3 Subject Key Identifier: 
                04:03:02:01
            X509v3 Subject Alternative Name: 
                DirName:/O=Extreme Discord, DNS:*.gov.us, DNS:gov.us
            X509v3 Issuer Alternative Name: 
                DNS:allthethings.net, DNS:theca.net
            X509v3 Authority Key Identifier: 
                keyid:01:02:03:04
                serial:1C:BD:7D:87:57

    Signature Algorithm: sha256WithRSAEncryption
         25:4b:54:b8:a2:2e:91:6a:8a:88:b8:b2:f0:80:0c:64:e5:de:
         10:b7:5a:15:40:54:87:d1:ce:26:e3:49:4a:96:c9:74:13:3d:
         07:d6:7f:ef:16:c8:12:9e:54:79:c6:15:25:09:09:d6:e2:63:
         a8:66:3f:9f:7d:c0:44:e9:10:b0:fa:7a:3f:c5:cc:e5:eb:cb:
         2d:c2:23:6c:b6:c7:10:ee:5a:b5:17:c5:fd:51:47:65:85:f1:
         26:a9:2b:26:61:5e:59:c8:94:65:74:9a:47:e6:0d:74:8b:50:
         95:84:90:60:eb:46:c0:52:2d:88:e2:fd:b5:fb:1b:1b:d1:e9:
         ac:f2:39:bc:d4:73:c6:a3:e4:8e:8a:f5:b5:00:b9:4a:e3:be:
         a1:6b:7a:c4:7d:d9:5f:96:e7:d6:a3:2f:78:ef:3f:c1:a9:ea:
         25:ca:b4:5f:b6:de:8d:78:66:35:be:55:11:d3:ed:12:2d:0b:
         82:25:ac:8f:07:58:73:00:1a:2a:35:7a:7c:9b:16:0f:e1:6d:
         f3:dc:3d:1e:76:c6:c6:62:e7:ac:88:e3:40:e8:f5:e1:c7:96:
         c1:f8:49:1e:30:b1:e7:4f:ad:0d:f5:c3:0b:e3:00:96:c0:75:
         3b:11:30:fe:5a:b6:dc:48:cd:b8:60:09:25:9e:b0:b8:56:13:
         92:42:7b:23
-----BEGIN CERTIFICATE-----
MIIEwDCCA6igAwIBAgIFBDFmlpAwDQYJKoZIhvcNAQELBQAwUjELMAkGA1UEBhMC
VVMxFjAUBgNVBAoTDU1vdGhlciBOYXR1cmUxEzARBgNVBAsTCkV2ZXJ5dGhpbmcx
FjAUBgNVBAMTDU1vdGhlciBOYXR1cmUwHhcNMTYwNzA3MjA1NTM1WhcNMTYwOTE5
MjA1NTM1WjCBmTELMAkGA1UEBhMCVVMxCzAJBgNVBAgTAkZMMRQwEgYDVQQHEwtU
YWxsYWhhc3NlZTEcMBoGA1UECRMTMzIxMCBIb2xseSBNaWxsIFJ1bjEOMAwGA1UE
ERMFMzAwNjIxGDAWBgNVBAoTD0V4dHJlbWUgRGlzY29yZDEOMAwGA1UECxMFQ2hh
b3MxDzANBgNVBAMTBmdvdi51czCCASIwDQYJKoZIhvcNAQEBBQADggEPADCCAQoC
ggEBALu0/OdACiQy+6ygiI47/jcHHDU69jWyk6497sOiWBmxAs2RSRQCnUGUTE0O
8tzmWOxvy3PyHA0iFKXtaKiVJMhUXB18mZqTJU52kKClBg/tdo9u3OJkS9eeZSdL
86c3Z8ev7I1pBr82OeUvMIkwlTKK0lq63kAZ4ayl2LuwRnb228SMxxYEN1IeLByC
CDjS+cS5xwvt3hVfXRybFgKtTJy6zrfEgUI4iZfW0D9sAPAghzCLN6nNj3m1jiHc
W6dFOKlcP8UqaoeWZBW8qWugkx8dfJamttEF+Y7O3+OHhsPFvO/mboQGLvm/+4vH
hRn2IVKN2uQJwYTvC0X8EXVUW0ECAwEAAaOCAVMwggFPMA4GA1UdDwEB/wQEAwIF
oDAdBgNVHSUEFjAUBggrBgEFBQcDAgYIKwYBBQUHAwEwDwYDVR0TAQH/BAUwAwEB
/zBiBggrBgEFBQcBAQRWMFQwIQYIKwYBBQUHMAGGFWh0dHA6Ly90aGVjYS5uZXQv
b2NzcDAvBggrBgEFBQcwAoYjaHR0cDovL3RoZWNhLm5ldC90b3RhbGx5dGhlY2Vy
dC5jcnQwHwYDVR0gBBgwFjAKBggrBgEFBQcNATAIBgZngQwBAgIwDQYDVR0OBAYE
BAQDAgEwOQYDVR0RBDIwMKQcMBoxGDAWBgNVBAoTD0V4dHJlbWUgRGlzY29yZIII
Ki5nb3YudXOCBmdvdi51czAmBgNVHRIEHzAdghBhbGx0aGV0aGluZ3MubmV0ggl0
aGVjYS5uZXQwFgYDVR0jBA8wDYAEAQIDBIIFHL19h1cwDQYJKoZIhvcNAQELBQAD
ggEBACVLVLiiLpFqioi4svCADGTl3hC3WhVAVIfRzibjSUqWyXQTPQfWf+8WyBKe
VHnGFSUJCdbiY6hmP599wETpELD6ej/FzOXryy3CI2y2xxDuWrUXxf1RR2WF8Sap
KyZhXlnIlGV0mkfmDXSLUJWEkGDrRsBSLYji/bX7GxvR6azyObzUc8aj5I6K9bUA
uUrjvqFresR92V+W59ajL3jvP8Gp6iXKtF+23o14ZjW+VRHT7RItC4IlrI8HWHMA
Gio1enybFg/hbfPcPR52xsZi56yI40Do9eHHlsH4SR4wsedPrQ31wwvjAJbAdTsR
MP5attxIzbhgCSWesLhWE5JCeyM=
-----END CERTIFICATE-----
