Certificate:
    Data:
        Version: 3 (0x2)
        Serial Number: 18008675309 (0x4316693ed)
    Signature Algorithm: sha256WithRSAEncryption
        Issuer: C = US, O = Mother Nature, OU = Everything, CN = Mother Nature
        Validity
            Not Before: Mar 17 20:12:37 2017 GMT
            Not After : May 29 20:12:37 2017 GMT
        Subject: C = US, ST = FL, L = Tallahassee, street = 3210 Holly Mill Run, postalCode = 30062, O = Extreme Discord, OU = Chaos, CN = gov.us
        Subject Public Key Info:
            Public Key Algorithm: rsaEncryption
                Public-Key: (2048 bit)
                Modulus:
                    00:df:fc:c9:28:61:92:a8:a0:af:99:a8:e6:18:d8:
                    0f:d4:de:6a:4d:a7:32:91:39:9a:23:19:f5:88:42:
                    9a:32:ea:d8:d5:98:0b:25:f6:53:ed:f7:58:f5:db:
                    cb:7d:32:5d:e9:26:e8:ea:8f:93:2f:d2:4d:3d:fe:
                    58:90:0e:ce:51:28:21:7c:12:95:10:c2:63:08:fc:
                    6a:86:48:94:d8:89:89:d1:2d:30:c8:f8:c0:f5:f7:
                    5d:f2:fe:61:b1:03:04:15:b3:b3:09:6f:04:8f:3a:
                    d0:36:18:dc:bd:c5:98:fe:69:33:d8:b8:03:e8:f6:
                    b0:06:0e:ca:c2:b7:92:d6:75:a1:d3:61:a4:55:d6:
                    a3:01:b0:b5:ae:39:73:10:13:c4:57:26:c3:ae:4c:
                    78:91:d5:f5:e3:44:5c:4f:da:73:17:ee:01:20:df:
                    89:dd:fc:a5:8b:6d:f4:f5:1f:03:ca:07:22:56:e0:
                    14:eb:c4:ba:33:ac:a4:8d:46:f8:6a:41:4c:a6:8f:
                    d8:f3:0a:8b:d7:3b:63:25:08:07:f1:8f:29:cc:bc:
                    02:58:de:3a:58:87:fd:f5:62:01:fe:18:d3:b8:83:
                    f2:96:2c:4e:56:c2:8b:7a:fe:4f:69:ef:3e:9c:10:
                    f4:2f:66:09:de:d3:dc:73:ba:f4:5c:fe:42:15:aa:
                    b1:45
                Exponent: 65537 (0x10001)
        X509v3 extensions:
            X509v3 Key Usage: critical
                Digital Signature, Key Encipherment
            X509v3 Extended Key Usage: 
                TLS Web Client Authentication, TLS Web Server Authentication
            X509v3 Basic Constraints: critical
                CA:FALSE
            X509v3 Authority Key Identifier: 
                keyid:01:02:03

            Authority Information Access: 
                OCSP - URI:http://theca.net/ocsp
                CA Issuers - URI:http://theca.net/totallythecert.crt

            X509v3 Subject Alternative Name: 
                DNS:*.example.com
            X509v3 Certificate Policies: 
                Policy: 2.23.140.1.2.2

    Signature Algorithm: sha256WithRSAEncryption
         24:8f:ab:17:b7:a8:8f:32:36:ab:1b:43:3a:81:b5:7d:c8:88:
         df:f1:b1:4a:80:07:67:e2:ce:d3:18:9a:5f:e0:1a:b4:98:e1:
         e2:27:a4:f6:ac:c9:85:0b:30:ed:11:48:de:b0:0a:64:82:1c:
         c1:42:15:aa:9e:ec:89:ec:01:da:16:80:94:b9:c2:ea:27:c3:
         4f:c8:e1:db:61:12:3b:c3:19:e7:dd:b7:b6:68:5c:dc:7a:a8:
         85:20:80:23:f6:c4:a5:b4:e1:f1:12:c8:ca:fc:c2:27:dd:ec:
         c3:91:2b:dc:2b:62:1d:a3:90:bc:5d:62:d3:b0:57:a6:eb:94:
         b1:bf:ed:27:4c:45:41:e6:b3:82:f7:00:db:5f:be:e0:c8:ea:
         76:57:67:3f:ee:c0:f5:f3:ca:db:8a:3d:63:9c:0a:61:a6:2c:
         7c:ef:5d:a7:65:ba:e4:a7:12:54:d9:25:56:45:e4:ff:e2:b1:
         2e:4d:7a:52:27:a0:14:12:2d:7d:a5:f8:58:a7:26:0e:03:e0:
         8f:ae:a0:9b:a1:0f:64:21:9c:58:4a:4c:25:20:49:2e:e6:96:
         47:9f:4d:b6:3f:ea:3a:1c:78:20:b2:f5:f8:4b:06:b7:d2:b3:
         28:9b:88:8b:c0:99:4a:0f:03:ac:e2:29:ce:49:aa:01:f2:7b:
         3b:80:76:54
-----BEGIN CERTIFICATE-----
MIIETzCCAzegAwIBAgIFBDFmk+0wDQYJKoZIhvcNAQELBQAwUjELMAkGA1UEBhMC
VVMxFjAUBgNVBAoTDU1vdGhlciBOYXR1cmUxEzARBgNVBAsTCkV2ZXJ5dGhpbmcx
FjAUBgNVBAMTDU1vdGhlciBOYXR1cmUwHhcNMTcwMzE3MjAxMjM3WhcNMTcwNTI5
MjAxMjM3WjCBmTELMAkGA1UEBhMCVVMxCzAJBgNVBAgTAkZMMRQwEgYDVQQHEwtU
YWxsYWhhc3NlZTEcMBoGA1UECRMTMzIxMCBIb2xseSBNaWxsIFJ1bjEOMAwGA1UE
ERMFMzAwNjIxGDAWBgNVBAoTD0V4dHJlbWUgRGlzY29yZDEOMAwGA1UECxMFQ2hh
b3MxDzANBgNVBAMTBmdvdi51czCCASIwDQYJKoZIhvcNAQEBBQADggEPADCCAQoC
ggEBAN/8yShhkqigr5mo5hjYD9Teak2nMpE5miMZ9YhCmjLq2NWYCyX2U+33WPXb
y30yXekm6OqPky/STT3+WJAOzlEoIXwSlRDCYwj8aoZIlNiJidEtMMj4wPX3XfL+
YbEDBBWzswlvBI860DYY3L3FmP5pM9i4A+j2sAYOysK3ktZ1odNhpFXWowGwta45
cxATxFcmw65MeJHV9eNEXE/acxfuASDfid38pYtt9PUfA8oHIlbgFOvEujOspI1G
+GpBTKaP2PMKi9c7YyUIB/GPKcy8AljeOliH/fViAf4Y07iD8pYsTlbCi3r+T2nv
PpwQ9C9mCd7T3HO69Fz+QhWqsUUCAwEAAaOB4zCB4DAOBgNVHQ8BAf8EBAMCBaAw
HQYDVR0lBBYwFAYIKwYBBQUHAwIGCCsGAQUFBwMBMAwGA1UdEwEB/wQCMAAwDgYD
VR0jBAcwBYADAQIDMGIGCCsGAQUFBwEBBFYwVDAhBggrBgEFBQcwAYYVaHR0cDov
L3RoZWNhLm5ldC9vY3NwMC8GCCsGAQUFBzAChiNodHRwOi8vdGhlY2EubmV0L3Rv
dGFsbHl0aGVjZXJ0LmNydDAYBgNVHREEETAPgg0qLmV4YW1wbGUuY29tMBMGA1Ud
IAQMMAowCAYGZ4EMAQICMA0GCSqGSIb3DQEBCwUAA4IBAQAkj6sXt6iPMjarG0M6
gbV9yIjf8bFKgAdn4s7TGJpf4Bq0mOHiJ6T2rMmFCzDtEUjesApkghzBQhWqnuyJ
7AHaFoCUucLqJ8NPyOHbYRI7wxnn3be2aFzceqiFIIAj9sSltOHxEsjK/MIn3ezD
kSvcK2Ido5C8XWLTsFem65Sxv+0nTEVB5rOC9wDbX77gyOp2V2c/7sD188rbij1j
nAphpix8712nZbrkpxJU2SVWReT/4rEuTXpSJ6AUEi19pfhYpyYOA+CPrqCboQ9k
IZxYSkwlIEku5pZHn022P+o6HHggsvX4Swa30rMom4iLwJlKDwOs4inOSaoB8ns7
gHZU
-----END CERTIFICATE-----
