Certificate:
    Data:
        Version: 3 (0x2)
        Serial Number: 18008675309 (0x4316693ed)
    Signature Algorithm: sha256WithRSAEncryption
        Issuer: C = US, O = Mother Nature, OU = Everything, CN = Mother Nature
        Validity
            Not Before: Jun 15 17:13:30 2016 GMT
            Not After : Jun 27 17:13:30 2016 GMT
        Subject: C = US, ST = FL, O = Extremly Hot Metal, CN = liquidtungsten.us
        Subject Public Key Info:
            Public Key Algorithm: rsaEncryption
                Public-Key: (2048 bit)
                Modulus:
                    00:e9:39:e1:88:73:80:8b:4c:72:a5:34:6a:ca:b1:
                    73:39:66:0c:ea:b3:db:57:5e:4d:e9:80:ef:dc:3d:
                    8d:a4:e4:62:ff:12:8c:e2:b7:4a:b6:6f:9f:56:4b:
                    1f:1b:aa:34:91:5e:57:40:7f:52:1e:44:f8:46:99:
                    41:27:fa:0d:4e:ed:b1:a0:25:9c:86:ba:a3:32:4f:
                    b6:a9:56:6e:e1:92:1d:fd:6e:b7:0f:34:4f:61:4b:
                    d8:bd:ba:11:c3:c6:97:10:b1:75:e9:9c:ab:1f:c9:
                    8c:5f:aa:ed:63:e7:f1:8d:67:86:30:74:f6:23:76:
                    ab:6a:4a:84:91:3a:d4:57:ba:f2:06:b1:f2:84:9c:
                    49:4e:6a:9e:6d:28:d4:8d:69:32:ac:d2:12:68:af:
                    a5:f7:a2:c5:06:cf:88:c5:fb:0b:32:35:62:f4:99:
                    65:a4:1f:cf:13:b8:63:78:72:fd:d5:49:e6:60:f3:
                    cb:eb:f0:e0:3f:e7:4f:c7:29:72:8e:3c:f3:1b:8c:
                    ed:7d:0d:65:79:dc:dd:ef:d1:c3:b7:e9:56:24:38:
                    b2:8a:7a:67:0e:98:fd:93:20:96:87:c6:e5:dd:d1:
                    e5:b6:35:df:07:7b:89:0c:44:96:ed:5f:3d:99:64:
                    56:06:bc:39:c4:59:5e:04:8c:36:9e:9b:aa:92:cc:
                    dc:a9
                Exponent: 65537 (0x10001)
        X509v3 extensions:
            X509v3 Key Usage: critical
                Digital Signature, Key Encipherment
            X509v3 Extended Key Usage: 
                TLS Web Client Authentication, TLS Web Server Authentication
            X509v3 Basic Constraints: critical
                CA:FALSE
            X509v3 Authority Key Identifier: 
                keyid:01:02:03

            X509v3 Subject Alternative Name: 
                DNS:liquidtungsten.us, DNS:www.liquidtungsten.us, email:admin@liquidtungsten.us
    Signature Algorithm: sha256WithRSAEncryption
         51:93:dc:8f:2c:23:1b:af:20:94:ba:15:47:26:22:08:c3:56:
         57:ca:67:47:3e:33:04:2e:05:db:bd:52:c7:1b:0c:31:86:e9:
         da:d2:43:50:6a:88:a9:00:13:5d:7a:69:b5:f9:2d:4d:81:4f:
         93:f5:fa:ab:be:a4:03:de:fa:59:b5:39:93:ed:fd:5e:5f:ac:
         9d:ef:2a:40:e3:61:ff:28:85:33:09:f7:8a:f7:66:5b:4e:70:
         5c:20:ac:38:7e:1d:84:7d:f8:83:00:b3:f3:33:b1:a6:38:74:
         ae:ae:df:48:82:32:a9:b2:8c:0e:08:3a:58:78:aa:ff:2f:73:
         74:9c:06:b7:e0:dc:b9:41:ab:d7:9e:ce:82:2c:b2:0e:39:4c:
         5a:55:48:e4:0d:c6:37:b2:ce:74:26:e2:a7:2a:d0:23:65:93:
         33:af:c6:88:c9:bf:53:ed:af:62:6c:35:08:d5:f0:5f:55:53:
         d6:3f:07:77:7c:d1:7d:3e:72:01:2e:8c:d3:d7:9a:67:cb:1c:
         92:58:3a:27:7b:55:60:33:9a:cf:25:cb:3b:b6:9b:23:78:e1:
         b9:08:7f:18:73:37:86:83:60:54:5a:e7:01:8c:86:cf:40:6a:
         f8:3b:5f:97:94:66:57:4f:0a:e9:90:89:5a:b6:62:47:37:80:
         e9:6b:f5:3f
-----BEGIN CERTIFICATE-----
MIIDwzCCAqugAwIBAgIFBDFmk+0wDQYJKoZIhvcNAQELBQAwUjELMAkGA1UEBhMC
VVMxFjAUBgNVBAoTDU1vdGhlciBOYXR1cmUxEzARBgNVBAsTCkV2ZXJ5dGhpbmcx
FjAUBgNVBAMTDU1vdGhlciBOYXR1cmUwHhcNMTYwNjE1MTcxMzMwWhcNMTYwNjI3
MTcxMzMwWjBTMQswCQYDVQQGEwJVUzELMAkGA1UECBMCRkwxGzAZBgNVBAoTEkV4
dHJlbWx5IEhvdCBNZXRhbDEaMBgGA1UEAxMRbGlxdWlkdHVuZ3N0ZW4udXMwggEi
MA0GCSqGSIb3DQEBAQUAA4IBDwAwggEKAoIBAQDpOeGIc4CLTHKlNGrKsXM5Zgzq
s9tXXk3pgO/cPY2k5GL/Eozit0q2b59WSx8bqjSRXldAf1IeRPhGmUEn+g1O7bGg
JZyGuqMyT7apVm7hkh39brcPNE9hS9i9uhHDxpcQsXXpnKsfyYxfqu1j5/GNZ4Yw
dPYjdqtqSoSROtRXuvIGsfKEnElOap5tKNSNaTKs0hJor6X3osUGz4jF+wsyNWL0
mWWkH88TuGN4cv3VSeZg88vr8OA/50/HKXKOPPMbjO19DWV53N3v0cO36VYkOLKK
emcOmP2TIJaHxuXd0eW2Nd8He4kMRJbtXz2ZZFYGvDnEWV4EjDaem6qSzNypAgMB
AAGjgZ4wgZswDgYDVR0PAQH/BAQDAgWgMB0GA1UdJQQWMBQGCCsGAQUFBwMCBggr
BgEFBQcDATAMBgNVHRMBAf8EAjAAMA4GA1UdIwQHMAWAAwECAzBMBgNVHREERTBD
ghFsaXF1aWR0dW5nc3Rlbi51c4IVd3d3LmxpcXVpZHR1bmdzdGVuLnVzgRdhZG1p
bkBsaXF1aWR0dW5nc3Rlbi51czANBgkqhkiG9w0BAQsFAAOCAQEAUZPcjywjG68g
lLoVRyYiCMNWV8pnRz4zBC4F271SxxsMMYbp2tJDUGqIqQATXXpptfktTYFPk/X6
q76kA976WbU5k+39Xl+sne8qQONh/yiFMwn3ivdmW05wXCCsOH4dhH34gwCz8zOx
pjh0rq7fSIIyqbKMDgg6WHiq/y9zdJwGt+DcuUGr157OgiyyDjlMWlVI5A3GN7LO
dCbipyrQI2WTM6/GiMm/U+2vYmw1CNXwX1VT1j8Hd3zRfT5yAS6M09eaZ8scklg6
J3tVYDOazyXLO7abI3jhuQh/GHM3hoNgVFrnAYyGz0Bq+Dtfl5RmV08K6ZCJWrZi
RzeA6Wv1Pw==
-----END CERTIFICATE-----
