Certificate:
    Data:
        Version: 3 (0x2)
        Serial Number:
            e8:f8:ad:9e:a1:86:8b:d9
        Signature Algorithm: sha1WithRSAEncryption
        Issuer: CN=Testroot
        Validity
            Not Before: Jan 12 19:21:11 2018 GMT
            Not After : Jan 10 19:21:11 2028 GMT
        Subject: CN=SANURIHostFQDN
        Subject Public Key Info:
            Public Key Algorithm: rsaEncryption
                Public-Key: (2048 bit)
                Modulus:
                    00:f7:13:f3:34:fc:14:cc:c9:cd:50:68:e7:9d:58:
                    2d:35:9b:b4:0f:12:4d:ae:22:41:a3:c7:c6:6f:1a:
                    05:08:6c:80:0c:1c:cf:c5:df:0a:20:55:7b:9b:f6:
                    f7:25:f5:63:f8:89:92:d1:3a:e2:98:81:75:d6:1e:
                    49:5d:b0:2c:37:50:5e:50:35:f0:ca:83:77:d0:e3:
                    bf:d1:18:1b:c7:19:62:0a:52:66:d8:74:e6:a7:ee:
                    fd:27:57:ea:df:61:96:44:81:6a:fc:dd:7f:f7:15:
                    e6:66:0c:74:cb:66:12:1e:9c:34:dc:29:55:fc:e8:
                    b4:d2:f8:5c:e5:e1:8b:3e:06:4c:0b:c7:0c:14:73:
                    44:b6:40:20:37:0e:39:de:8e:04:7a:55:9f:5b:ef:
                    13:34:cd:81:1a:54:5b:bd:a2:af:c7:25:ed:a0:bd:
                    f2:6b:7b:f9:78:8d:0f:bb:9a:6e:be:64:2f:aa:44:
                    19:b6:b0:7d:4e:1e:d0:b0:3c:cd:95:6c:11:f3:3b:
                    92:93:e7:cf:22:c8:77:7b:ef:35:9e:cc:96:28:fb:
                    67:bb:a9:0c:e7:97:5d:de:25:8f:0b:eb:45:0b:07:
                    a5:0b:62:b5:76:5c:8b:0d:f5:43:57:2d:44:0e:c3:
                    66:ba:5b:f7:ad:ef:b0:ea:76:63:da:fb:af:23:ad:
                    1c:d5
                Exponent: 65537 (0x10001)
        X509v3 extensions:
            X509v3 Subject Alternative Name: 
                DNS:*.example.com, URI:test://user@www.example.com:1337/test
    Signature Algorithm: sha1WithRSAEncryption
        77:35:1e:a4:19:49:b3:e7:ec:24:92:db:e4:8a:7d:e7:a8:28:
        c5:e9:4d:9b:86:b3:a4:39:33:ca:3d:46:ce:24:52:b9:8d:0a:
        c3:8e:ff:97:29:5f:1f:b0:d4:97:1d:ab:bb:a0:02:83:53:6f:
        28:2e:96:b7:c8:c7:df:3e:10:9a:da:03:5b:fa:2d:b5:9e:b7:
        9c:76:47:27:fe:e6:77:0c:ca:3b:f5:91:59:03:14:0f:62:7a:
        d0:4c:9d:a3:10:2c:37:2a:1c:99:d6:bb:b1:e2:30:97:fe:45:
        f4:34:b3:dc:16:50:d1:f3:17:e9:28:a5:50:89:d5:f1:d7:fc:
        30:ca:74:82:ff:d0:39:61:6b:9d:c9:89:51:74:36:55:dc:ee:
        3b:9d:65:fd:62:78:8f:4d:a0:0a:1f:04:83:57:91:7b:d9:30:
        97:c0:1b:fc:b0:71:82:26:81:c8:c1:3d:29:a9:82:c3:31:c9:
        63:f5:f1:d9:c0:a1:b3:18:9f:e5:56:30:fe:32:9e:e5:2f:4e:
        e9:f5:2e:50:a4:91:61:00:99:4f:09:11:ab:74:1f:6d:19:ce:
        ea:43:4c:a5:b8:cb:08:93:7c:bf:fc:bc:72:91:3b:b4:ba:dd:
        98:0b:dc:16:c5:f8:dd:ed:71:9b:03:4b:ab:93:e0:98:e7:57:
        77:ea:de:9b
-----BEGIN CERTIFICATE-----
MIIC8jCCAdqgAwIBAgIJAOj4rZ6hhovZMA0GCSqGSIb3DQEBBQUAMBMxETAPBgNV
BAMTCFRlc3Ryb290MB4XDTE4MDExMjE5MjExMVoXDTI4MDExMDE5MjExMVowGTEX
MBUGA1UEAxMOU0FOVVJJSG9zdEZRRE4wggEiMA0GCSqGSIb3DQEBAQUAA4IBDwAw
ggEKAoIBAQD3E/M0/BTMyc1QaOedWC01m7QPEk2uIkGjx8ZvGgUIbIAMHM/F3wog
VXub9vcl9WP4iZLROuKYgXXWHkldsCw3UF5QNfDKg3fQ47/RGBvHGWIKUmbYdOan
7v0nV+rfYZZEgWr83X/3FeZmDHTLZhIenDTcKVX86LTS+Fzl4Ys+BkwLxwwUc0S2
QCA3DjnejgR6VZ9b7xM0zYEaVFu9oq/HJe2gvfJre/l4jQ+7mm6+ZC+qRBm2sH1O
HtCwPM2VbBHzO5KT588iyHd77zWezJYo+2e7qQznl13eJY8L60ULB6ULYrV2XIsN
9UNXLUQOw2a6W/et77DqdmPa+68jrRzVAgMBAAGjQzBBMD8GA1UdEQQ4MDaCDSou
ZXhhbXBsZS5jb22GJXRlc3Q6Ly91c2VyQHd3dy5leGFtcGxlLmNvbToxMzM3L3Rl
c3QwDQYJKoZIhvcNAQEFBQADggEBAHc1HqQZSbPn7CSS2+SKfeeoKMXpTZuGs6Q5
M8o9Rs4kUrmNCsOO/5cpXx+w1Jcdq7ugAoNTbygulrfIx98+EJraA1v6LbWet5x2
Ryf+5ncMyjv1kVkDFA9ietBMnaMQLDcqHJnWu7HiMJf+RfQ0s9wWUNHzF+kopVCJ
1fHX/DDKdIL/0Dlha53JiVF0NlXc7judZf1ieI9NoAofBINXkXvZMJfAG/ywcYIm
gcjBPSmpgsMxyWP18dnAobMYn+VWMP4ynuUvTun1LlCkkWEAmU8JEat0H20ZzupD
TKW4ywiTfL/8vHKRO7S63ZgL3BbF+N3tcZsDS6uT4JjnV3fq3ps=
-----END CERTIFICATE-----
