Certificate:
    Data:
        Version: 3 (0x2)
        Serial Number: 18008675309 (0x4316693ed)
    Signature Algorithm: sha256WithRSAEncryption
        Issuer: C = US, O = Mother Nature, OU = Everything, CN = Mother Nature
        Validity
            Not Before: Jun 29 16:38:20 2016 GMT
            Not After : Sep 10 16:38:20 2016 GMT
        Subject: C = US, ST = FL, L = Tallahassee, street = 3210 Holly Mill Run, postalCode = 30062, O = Extreme Discord, OU = Chaos, CN = gov.us
        Subject Public Key Info:
            Public Key Algorithm: rsaEncryption
                Public-Key: (2048 bit)
                Modulus:
                    00:c2:04:01:c8:67:62:e4:c3:92:ff:82:14:bb:e2:
                    f2:a1:87:e1:06:39:f8:7e:9a:57:37:f8:83:bf:da:
                    20:b8:b0:ed:94:d7:fb:5a:3f:73:85:e4:92:76:30:
                    09:dd:f8:23:2e:50:c7:30:64:e2:38:c9:e1:c6:17:
                    7b:27:f8:1a:c3:2b:5c:8b:27:19:e7:18:35:6d:16:
                    15:46:61:f7:79:75:db:89:3c:e8:bf:9b:87:48:71:
                    30:79:6f:a3:22:bd:09:ee:dc:7e:8d:92:e5:cc:51:
                    ac:03:02:66:15:40:f5:9f:c9:02:c6:6c:31:a9:b0:
                    75:ab:bf:7d:a2:07:c0:00:76:df:13:58:db:4b:78:
                    c4:1e:52:6c:e4:04:c1:f9:1b:2f:c2:b8:d4:c8:a3:
                    4c:d1:16:cd:6f:be:58:bc:02:ea:3f:41:08:1b:71:
                    6f:43:c4:b5:36:ba:45:02:b7:25:af:ef:a4:fb:e3:
                    ca:72:65:78:74:f0:de:1e:b3:25:72:19:43:03:13:
                    b1:d1:e2:a1:e8:e1:5e:c1:fb:fb:58:ff:ec:d8:1e:
                    d0:2a:8e:22:ee:65:f4:b7:4d:81:61:46:2c:ed:ea:
                    14:7e:cb:22:40:15:bf:6e:6a:d7:fb:20:83:c9:bc:
                    2a:14:19:d0:82:40:8e:94:48:76:7d:06:a7:8b:3d:
                    f6:65
                Exponent: 65537 (0x10001)
        X509v3 extensions:
            X509v3 Key Usage: critical
                Digital Signature, Key Encipherment
            X509v3 Extended Key Usage: 
                TLS Web Client Authentication, TLS Web Server Authentication
            X509v3 Basic Constraints: critical
                CA:FALSE
            X509v3 Authority Key Identifier: 
                keyid:01:02:03

            Authority Information Access: 
                OCSP - URI:http://theca.net/ocsp
                CA Issuers - URI:http://theca.net/totallythecert.crt

            X509v3 Certificate Policies: 
                Policy: 2.23.140.1.2.2

            X509v3 Subject Key Identifier: 
                04:03:02:01
            X509v3 Subject Alternative Name: 
                URI:http://gov.us, DNS:*.gov.us, DNS:gov.us
    Signature Algorithm: sha256WithRSAEncryption
         61:26:37:75:20:9f:90:90:7d:55:a5:27:d9:c4:02:d8:da:e5:
         25:50:d2:d7:2c:c6:c1:89:f3:63:b6:37:62:8f:dd:65:b0:6e:
         88:a9:8f:34:29:7f:c4:d9:26:35:2e:b5:57:b4:f0:de:da:bb:
         28:3b:03:d4:55:8c:22:ea:b2:dc:55:12:89:95:bb:c2:1c:e1:
         f5:4b:15:b0:b0:eb:e6:aa:09:34:96:09:b5:c7:9e:14:42:ca:
         92:e2:be:df:c9:22:d4:3d:cf:c0:d7:28:15:ff:92:5f:4e:2f:
         30:5d:f8:c1:eb:9c:cb:b9:f7:16:f7:75:0a:f9:ff:71:db:21:
         a2:6f:a7:7b:62:76:10:dc:0d:58:17:45:2c:d4:61:e7:b0:6f:
         94:f1:31:d8:ff:28:89:63:14:74:39:a1:5d:3a:c0:8e:14:4d:
         60:e5:0a:f1:3a:36:38:a5:87:fd:af:55:4f:82:44:e6:2b:0f:
         d7:06:02:1d:6b:48:e1:4f:b7:d7:ae:9c:5d:8d:e6:48:b3:7d:
         4f:d8:fa:31:67:ea:4e:4f:d4:e6:3a:5a:0a:f6:b5:27:3e:d8:
         88:86:8d:6a:23:a6:d1:fc:11:aa:6d:e1:25:f1:2e:8e:57:5a:
         c7:39:1f:9a:a1:7e:95:d8:c2:cc:2e:03:6e:27:21:88:10:a2:
         97:af:d8:81
-----BEGIN CERTIFICATE-----
MIIEcjCCA1qgAwIBAgIFBDFmk+0wDQYJKoZIhvcNAQELBQAwUjELMAkGA1UEBhMC
VVMxFjAUBgNVBAoTDU1vdGhlciBOYXR1cmUxEzARBgNVBAsTCkV2ZXJ5dGhpbmcx
FjAUBgNVBAMTDU1vdGhlciBOYXR1cmUwHhcNMTYwNjI5MTYzODIwWhcNMTYwOTEw
MTYzODIwWjCBmTELMAkGA1UEBhMCVVMxCzAJBgNVBAgTAkZMMRQwEgYDVQQHEwtU
YWxsYWhhc3NlZTEcMBoGA1UECRMTMzIxMCBIb2xseSBNaWxsIFJ1bjEOMAwGA1UE
ERMFMzAwNjIxGDAWBgNVBAoTD0V4dHJlbWUgRGlzY29yZDEOMAwGA1UECxMFQ2hh
b3MxDzANBgNVBAMTBmdvdi51czCCASIwDQYJKoZIhvcNAQEBBQADggEPADCCAQoC
ggEBAMIEAchnYuTDkv+CFLvi8qGH4QY5+H6aVzf4g7/aILiw7ZTX+1o/c4XkknYw
Cd34Iy5QxzBk4jjJ4cYXeyf4GsMrXIsnGecYNW0WFUZh93l124k86L+bh0hxMHlv
oyK9Ce7cfo2S5cxRrAMCZhVA9Z/JAsZsMamwdau/faIHwAB23xNY20t4xB5SbOQE
wfkbL8K41MijTNEWzW++WLwC6j9BCBtxb0PEtTa6RQK3Ja/vpPvjynJleHTw3h6z
JXIZQwMTsdHioejhXsH7+1j/7Nge0CqOIu5l9LdNgWFGLO3qFH7LIkAVv25q1/sg
g8m8KhQZ0IJAjpRIdn0Gp4s99mUCAwEAAaOCAQUwggEBMA4GA1UdDwEB/wQEAwIF
oDAdBgNVHSUEFjAUBggrBgEFBQcDAgYIKwYBBQUHAwEwDAYDVR0TAQH/BAIwADAO
BgNVHSMEBzAFgAMBAgMwYgYIKwYBBQUHAQEEVjBUMCEGCCsGAQUFBzABhhVodHRw
Oi8vdGhlY2EubmV0L29jc3AwLwYIKwYBBQUHMAKGI2h0dHA6Ly90aGVjYS5uZXQv
dG90YWxseXRoZWNlcnQuY3J0MBMGA1UdIAQMMAowCAYGZ4EMAQICMA0GA1UdDgQG
BAQEAwIBMCoGA1UdEQQjMCGGDWh0dHA6Ly9nb3YudXOCCCouZ292LnVzggZnb3Yu
dXMwDQYJKoZIhvcNAQELBQADggEBAGEmN3Ugn5CQfVWlJ9nEAtja5SVQ0tcsxsGJ
82O2N2KP3WWwboipjzQpf8TZJjUutVe08N7auyg7A9RVjCLqstxVEomVu8Ic4fVL
FbCw6+aqCTSWCbXHnhRCypLivt/JItQ9z8DXKBX/kl9OLzBd+MHrnMu59xb3dQr5
/3HbIaJvp3tidhDcDVgXRSzUYeewb5TxMdj/KIljFHQ5oV06wI4UTWDlCvE6Njil
h/2vVU+CROYrD9cGAh1rSOFPt9eunF2N5kizfU/Y+jFn6k5P1OY6Wgr2tSc+2IiG
jWojptH8Eapt4SXxLo5XWsc5H5qhfpXYwswuA24nIYgQopev2IE=
-----END CERTIFICATE-----
