Certificate:
    Data:
        Version: 3 (0x2)
        Serial Number: 18008675309 (0x4316693ed)
    Signature Algorithm: sha256WithRSAEncryption
        Issuer: C = US, O = Mother Nature, OU = Everything, CN = Mother Nature
        Validity
            Not Before: Aug 25 14:37:48 2016 GMT
            Not After : Nov  6 15:37:48 2016 GMT
        Subject: C = US, O = Extreme Discord, OU = Chaos, L = Tallahassee, ST = FL, street = 3210 Holly Mill Run, postalCode = 30062, CN = gov.us
        Subject Public Key Info:
            Public Key Algorithm: rsaEncryption
                Public-Key: (2048 bit)
                Modulus:
                    00:f1:3b:01:81:51:e3:8d:55:bd:f6:82:f5:14:b3:
                    5d:28:ca:ec:cd:1d:73:da:c6:6a:4a:a3:73:d5:de:
                    0c:71:8c:44:02:d3:52:99:85:51:6c:ce:5c:3a:60:
                    2a:b2:e5:c4:60:88:86:65:55:d4:4f:e1:01:b8:27:
                    5a:d6:b9:6a:15:a4:21:0f:88:42:76:72:fb:ed:d0:
                    16:0f:8d:3a:c6:ea:5b:20:b3:a7:76:31:db:99:d7:
                    bc:5b:ce:0a:5f:e0:e1:4a:e1:6b:49:e4:fd:b8:16:
                    03:1d:0a:12:d6:91:dc:37:57:24:dc:eb:7c:8d:f9:
                    31:f1:e8:a4:78:de:f7:c2:ac:e5:58:53:61:90:d0:
                    11:73:49:ad:d0:41:f1:d2:af:42:f7:0c:e5:0e:1a:
                    34:54:69:68:4f:e4:28:4c:26:bc:23:1f:64:c0:dc:
                    bb:91:d9:51:25:ab:6f:ba:38:39:12:e0:a2:80:d6:
                    ba:76:00:2b:aa:b7:d5:f3:80:b5:f5:8a:8a:c5:a1:
                    d4:73:d0:97:82:cc:80:a2:50:05:35:09:78:9e:4e:
                    88:32:b2:8d:68:7e:91:e6:52:52:2c:1f:95:90:85:
                    b2:2b:76:39:51:7d:d6:10:d3:3d:d0:73:e4:e3:52:
                    43:b6:4a:45:d1:c3:e3:31:51:1a:63:e2:8b:08:a6:
                    f9:ef
                Exponent: 65537 (0x10001)
        X509v3 extensions:
            X509v3 Key Usage: critical
                Digital Signature, Key Encipherment
            X509v3 Extended Key Usage: 
                TLS Web Client Authentication, TLS Web Server Authentication
            X509v3 Basic Constraints: critical
                CA:FALSE
            X509v3 Authority Key Identifier: 
                keyid:01:02:03

            Authority Information Access: 
                OCSP - URI:http://theca.net/ocsp
                CA Issuers - URI:http://theca.net/totallythecert.crt

            X509v3 Certificate Policies: 
                Policy: 2.23.140.1.2.2

            X509v3 Subject Key Identifier: 
                04:03:02:01
            X509v3 Subject Alternative Name: 
                DNS:*.gov.us, DNS:gov.us, URI:www.ಠ_ಠ.com
    Signature Algorithm: sha256WithRSAEncryption
         27:49:31:6a:d1:7f:0f:8a:e5:70:44:bd:80:2f:e0:77:8f:72:
         75:1a:bf:8a:c5:24:28:e6:e4:ba:09:fc:ec:ab:02:db:90:e5:
         72:10:b6:2f:03:40:a1:34:38:c2:20:59:49:fc:f2:91:0e:8d:
         72:80:f0:fc:be:ef:37:9f:59:f1:30:ac:66:01:8e:40:99:36:
         6d:f0:3b:42:16:13:a5:76:b1:db:e5:89:9a:bc:b0:e6:3f:45:
         4c:20:3d:d0:82:60:1a:e8:48:1d:cf:64:66:d0:9f:56:26:8d:
         dc:cb:4b:89:4d:69:80:f7:69:9b:35:c9:9d:88:5c:56:f5:5c:
         62:7a:5f:46:a3:e7:21:da:29:7c:92:ef:39:21:06:df:f6:66:
         7e:0b:2b:04:39:d8:18:d3:9d:30:64:0e:0b:4b:b6:d7:08:5b:
         c2:0b:01:8d:bb:d8:8b:eb:94:66:21:e1:98:08:ba:ce:bb:48:
         6f:77:c2:c7:8f:23:a0:b4:38:32:4c:c4:a0:87:5a:b8:f3:40:
         f9:c0:c0:0f:3b:af:86:ba:a6:09:44:69:33:80:15:48:2e:7a:
         5a:5d:8a:d5:83:03:37:46:21:74:b7:39:c2:2b:4b:35:fd:68:
         9c:f9:f5:b2:52:b3:b4:2d:49:b4:35:c7:74:59:14:30:82:5b:
         7c:93:5f:0c
-----BEGIN CERTIFICATE-----
MIIEdDCCA16gAwIBAgIFBDFmk+0wCwYJKoZIhvcNAQELMFQxCzAJBgNVBAYTAlVT
MRYwFAYDVQQKEw1Nb3RoZXIgTmF0dXJlMRMwEQYDVQQLEwpFdmVyeXRoaW5nMRYw
FAYDVQQDEw1Nb3RoZXIgTmF0dXJlMQAwHhcNMTYwODI1MTQzNzQ4WhcNMTYxMTA2
MTUzNzQ4WjCBmzELMAkGA1UEBhMCVVMxGDAWBgNVBAoTD0V4dHJlbWUgRGlzY29y
ZDEOMAwGA1UECxMFQ2hhb3MxFDASBgNVBAcTC1RhbGxhaGFzc2VlMQswCQYDVQQI
EwJGTDEcMBoGA1UECRMTMzIxMCBIb2xseSBNaWxsIFJ1bjEOMAwGA1UEERMFMzAw
NjIxDzANBgNVBAMTBmdvdi51czEAMIIBIjANBgkqhkiG9w0BAQEFAAOCAQ8AMIIB
CgKCAQEA8TsBgVHjjVW99oL1FLNdKMrszR1z2sZqSqNz1d4McYxEAtNSmYVRbM5c
OmAqsuXEYIiGZVXUT+EBuCda1rlqFaQhD4hCdnL77dAWD406xupbILOndjHbmde8
W84KX+DhSuFrSeT9uBYDHQoS1pHcN1ck3Ot8jfkx8eikeN73wqzlWFNhkNARc0mt
0EHx0q9C9wzlDho0VGloT+QoTCa8Ix9kwNy7kdlRJatvujg5EuCigNa6dgArqrfV
84C19YqKxaHUc9CXgsyAolAFNQl4nk6IMrKNaH6R5lJSLB+VkIWyK3Y5UX3WENM9
0HPk41JDtkpF0cPjMVEaY+KLCKb57wIDAQABo4IBBzCCAQMwDgYDVR0PAQH/BAQD
AgCgMB0GA1UdJQQWMBQGCCsGAQUFBwMCBggrBgEFBQcDATAMBgNVHRMBAf8EAjAA
MA4GA1UdIwQHMAWAAwECAzBiBggrBgEFBQcBAQRWMFQwIQYIKwYBBQUHMAGGFWh0
dHA6Ly90aGVjYS5uZXQvb2NzcDAvBggrBgEFBQcwAoYjaHR0cDovL3RoZWNhLm5l
dC90b3RhbGx5dGhlY2VydC5jcnQwEwYDVR0gBAwwCjAIBgZngQwBAgIwDQYDVR0O
BAYEBAQDAgEwLAYDVR0RBCUwI4IIKi5nb3YudXOCBmdvdi51c4YPd3d3LuCyoF/g
sqAuY29tMAsGCSqGSIb3DQEBCwOCAQEAJ0kxatF/D4rlcES9gC/gd49ydRq/isUk
KObkugn87KsC25DlchC2LwNAoTQ4wiBZSfzykQ6NcoDw/L7vN59Z8TCsZgGOQJk2
bfA7QhYTpXax2+WJmryw5j9FTCA90IJgGuhIHc9kZtCfViaN3MtLiU1pgPdpmzXJ
nYhcVvVcYnpfRqPnIdopfJLvOSEG3/ZmfgsrBDnYGNOdMGQOC0u21whbwgsBjbvY
i+uUZiHhmAi6zrtIb3fCx48joLQ4MkzEoIdauPNA+cDADzuvhrqmCURpM4AVSC56
Wl2K1YMDN0YhdLc5witLNf1onPn1slKztC1JtDXHdFkUMIJbfJNfDA==
-----END CERTIFICATE-----
