Certificate:
    Data:
        Version: 3 (0x2)
        Serial Number: 18008675309 (0x4316693ed)
    Signature Algorithm: sha256WithRSAEncryption
        Issuer: C = US, O = Mother Nature, OU = Everything, CN = Mother Nature
        Validity
            Not Before: Aug 25 19:59:51 2016 GMT
            Not After : Nov  6 20:59:51 2016 GMT
        Subject: C = US, O = Extreme Discord, OU = Chaos, L = Tallahassee, ST = FL, street = 3210 Holly Mill Run, postalCode = 30062, CN = gov.us
        Subject Public Key Info:
            Public Key Algorithm: rsaEncryption
                Public-Key: (2048 bit)
                Modulus:
                    00:c4:f0:a4:2e:2d:36:2d:fb:df:a7:ef:b4:e6:29:
                    a2:17:59:11:80:ed:83:25:ea:5d:e3:59:11:26:ea:
                    39:ad:b3:04:ac:6c:fa:1d:cb:2c:ca:8a:6b:75:16:
                    75:a3:b7:13:62:a1:a9:5c:a7:1b:06:a4:93:16:fc:
                    29:ef:27:98:06:77:3d:c2:be:dc:86:3a:f0:94:f7:
                    d2:ad:a8:69:5e:00:ff:e8:23:8b:2e:b6:56:0a:db:
                    6c:8d:3e:2c:ab:6e:7e:c8:62:95:ff:5b:23:c5:02:
                    02:64:ca:9a:99:74:f8:28:8a:36:b7:46:b5:dc:2a:
                    6b:ba:a6:c7:7a:27:70:e2:d5:d4:3d:9d:74:92:b6:
                    a1:33:8c:ea:a0:cd:4a:24:dd:45:f6:e8:a2:3e:95:
                    0e:92:ed:64:6f:8b:86:cf:2d:4e:58:c3:41:30:82:
                    11:9c:6f:fb:25:86:c6:a4:0a:9e:3c:0f:9a:05:45:
                    07:76:de:ac:5d:38:e4:09:7b:05:02:ab:f6:fa:76:
                    35:6c:0c:76:a5:9a:ce:52:58:84:e4:58:4b:5b:63:
                    a0:33:52:5a:e8:67:d4:4d:38:82:73:b8:56:3c:92:
                    9d:e6:d6:76:82:e4:f6:b3:b3:3d:ae:37:64:6c:3f:
                    17:04:3b:8d:59:c2:11:9e:4e:3f:f3:a7:f0:7c:6e:
                    25:91
                Exponent: 65537 (0x10001)
        X509v3 extensions:
            X509v3 Key Usage: critical
                Digital Signature, Key Encipherment
            X509v3 Extended Key Usage: 
                TLS Web Client Authentication, TLS Web Server Authentication
            X509v3 Basic Constraints: critical
                CA:FALSE
            X509v3 Authority Key Identifier: 
                keyid:01:02:03

            Authority Information Access: 
                OCSP - URI:http://theca.net/ocsp
                CA Issuers - URI:http://theca.net/totallythecert.crt

            X509v3 Certificate Policies: 
                Policy: 2.23.140.1.2.2

            X509v3 Subject Key Identifier: 
                04:03:02:01
            X509v3 Subject Alternative Name: 
                DNS:*.gov.us, DNS:gov.us, URI:www.google.com
    Signature Algorithm: sha256WithRSAEncryption
         9c:8d:fe:42:1e:1d:97:68:6b:5c:10:6a:00:91:67:8e:e8:41:
         fd:f5:44:8b:9a:c0:7e:f6:f5:0c:10:37:57:2e:4c:2f:63:e1:
         36:ad:15:83:52:90:92:04:72:68:ce:44:51:10:97:68:65:34:
         6f:93:68:66:34:07:80:00:f4:12:cd:37:dc:b6:8b:ba:82:ad:
         96:8a:bb:06:c8:0c:3d:13:9f:5e:fa:8e:0e:04:0c:59:98:04:
         5f:89:a8:a8:10:78:e9:c2:40:79:73:6a:4f:e5:66:0c:9e:ab:
         69:29:ad:df:70:b0:e6:1d:ea:92:7f:a3:83:33:41:2e:3a:02:
         56:58:f8:f4:e9:2f:fb:f1:94:49:db:b0:82:3f:91:96:ec:8b:
         d6:c8:b3:f6:44:f5:0e:b7:38:aa:e8:63:d0:20:36:28:66:07:
         e5:d6:5f:aa:a7:d5:ca:0e:f1:38:b7:24:28:42:0d:65:5f:5e:
         42:50:3c:73:34:e9:c2:9f:cd:69:49:28:65:58:c0:83:3b:4a:
         69:44:1f:8a:bd:24:04:37:3b:5d:ca:f3:68:ed:98:71:3d:85:
         f6:25:7b:b4:9f:14:b1:52:e1:f2:6f:4a:21:da:68:9b:5a:78:
         97:d8:c1:66:32:cd:a1:18:68:a3:4e:6d:80:09:2e:e0:f3:da:
         93:65:c6:ae
-----BEGIN CERTIFICATE-----
MIIEczCCA12gAwIBAgIFBDFmk+0wCwYJKoZIhvcNAQELMFQxCzAJBgNVBAYTAlVT
MRYwFAYDVQQKEw1Nb3RoZXIgTmF0dXJlMRMwEQYDVQQLEwpFdmVyeXRoaW5nMRYw
FAYDVQQDEw1Nb3RoZXIgTmF0dXJlMQAwHhcNMTYwODI1MTk1OTUxWhcNMTYxMTA2
MjA1OTUxWjCBmzELMAkGA1UEBhMCVVMxGDAWBgNVBAoTD0V4dHJlbWUgRGlzY29y
ZDEOMAwGA1UECxMFQ2hhb3MxFDASBgNVBAcTC1RhbGxhaGFzc2VlMQswCQYDVQQI
EwJGTDEcMBoGA1UECRMTMzIxMCBIb2xseSBNaWxsIFJ1bjEOMAwGA1UEERMFMzAw
NjIxDzANBgNVBAMTBmdvdi51czEAMIIBIjANBgkqhkiG9w0BAQEFAAOCAQ8AMIIB
CgKCAQEAxPCkLi02Lfvfp++05imiF1kRgO2DJepd41kRJuo5rbMErGz6Hcssyopr
dRZ1o7cTYqGpXKcbBqSTFvwp7yeYBnc9wr7chjrwlPfSrahpXgD/6COLLrZWCtts
jT4sq25+yGKV/1sjxQICZMqamXT4KIo2t0a13CpruqbHeidw4tXUPZ10krahM4zq
oM1KJN1F9uiiPpUOku1kb4uGzy1OWMNBMIIRnG/7JYbGpAqePA+aBUUHdt6sXTjk
CXsFAqv2+nY1bAx2pZrOUliE5FhLW2OgM1Ja6GfUTTiCc7hWPJKd5tZ2guT2s7M9
rjdkbD8XBDuNWcIRnk4/86fwfG4lkQIDAQABo4IBBjCCAQIwDgYDVR0PAQH/BAQD
AgCgMB0GA1UdJQQWMBQGCCsGAQUFBwMCBggrBgEFBQcDATAMBgNVHRMBAf8EAjAA
MA4GA1UdIwQHMAWAAwECAzBiBggrBgEFBQcBAQRWMFQwIQYIKwYBBQUHMAGGFWh0
dHA6Ly90aGVjYS5uZXQvb2NzcDAvBggrBgEFBQcwAoYjaHR0cDovL3RoZWNhLm5l
dC90b3RhbGx5dGhlY2VydC5jcnQwEwYDVR0gBAwwCjAIBgZngQwBAgIwDQYDVR0O
BAYEBAQDAgEwKwYDVR0RBCQwIoIIKi5nb3YudXOCBmdvdi51c4YOd3d3Lmdvb2ds
ZS5jb20wCwYJKoZIhvcNAQELA4IBAQCcjf5CHh2XaGtcEGoAkWeO6EH99USLmsB+
9vUMEDdXLkwvY+E2rRWDUpCSBHJozkRREJdoZTRvk2hmNAeAAPQSzTfctou6gq2W
irsGyAw9E59e+o4OBAxZmARfiaioEHjpwkB5c2pP5WYMnqtpKa3fcLDmHeqSf6OD
M0EuOgJWWPj06S/78ZRJ27CCP5GW7IvWyLP2RPUOtziq6GPQIDYoZgfl1l+qp9XK
DvE4tyQoQg1lX15CUDxzNOnCn81pSShlWMCDO0ppRB+KvSQENztdyvNo7ZhxPYX2
JXu0nxSxUuHyb0oh2mibWniX2MFmMs2hGGijTm2ACS7g89qTZcau
-----END CERTIFICATE-----
