Certificate:
    Data:
        Version: 3 (0x2)
        Serial Number: 18008675309 (0x4316693ed)
    Signature Algorithm: sha256WithRSAEncryption
        Issuer: C = US, O = Mother Nature, OU = Everything, CN = Mother Nature
        Validity
            Not Before: Jul  1 15:39:47 2016 GMT
            Not After : Sep 13 15:39:47 2016 GMT
        Subject: C = US, ST = FL, L = Tallahassee, street = 3210 Holly Mill Run, postalCode = 30062, O = Extreme Discord, OU = Chaos, CN = gov.us
        Subject Public Key Info:
            Public Key Algorithm: rsaEncryption
                Public-Key: (2048 bit)
                Modulus:
                    00:bb:f8:e2:2e:5d:5e:e8:b7:10:b5:c1:93:44:61:
                    4e:45:b9:f2:f8:f9:19:44:89:76:6c:b8:51:88:bc:
                    ec:46:49:a6:b8:3d:fc:cf:4b:2a:0c:90:1a:c2:8f:
                    35:d3:4e:38:4f:d6:fb:01:59:9f:9a:c4:21:05:ea:
                    cb:92:72:6b:e3:20:a9:6d:bb:2d:66:a2:4f:27:c4:
                    56:e8:98:f9:5a:70:7c:c2:48:4d:03:3a:03:6c:32:
                    c3:79:18:67:80:2a:9c:db:52:6f:b5:a6:97:93:a9:
                    0c:9d:5e:9d:99:1f:05:fb:d2:17:85:ad:02:90:df:
                    61:66:1f:11:4d:cc:f0:92:5d:55:34:6e:ff:09:00:
                    38:48:41:90:5e:d4:fd:97:1d:fd:b8:ca:17:9d:0b:
                    33:45:81:39:f1:36:ee:46:98:a3:9c:2d:2c:8c:6d:
                    f5:2f:d3:65:19:2e:15:36:15:26:29:9b:75:bd:33:
                    8b:76:1b:fc:9c:dd:75:af:69:35:fe:5e:92:50:ea:
                    68:b1:04:c9:e7:70:ee:55:17:78:b1:34:8d:2c:62:
                    d3:14:4f:97:71:ea:0b:f3:23:87:03:18:f0:fa:7b:
                    43:fa:6f:d8:13:ba:29:24:4a:9d:57:f0:f9:7f:f0:
                    2c:b5:9e:9b:70:b4:4e:91:30:07:56:19:fb:ee:67:
                    b4:47
                Exponent: 65537 (0x10001)
        X509v3 extensions:
            X509v3 Key Usage: critical
                Digital Signature, Key Encipherment
            X509v3 Extended Key Usage: 
                TLS Web Client Authentication, TLS Web Server Authentication
            X509v3 Basic Constraints: critical
                CA:FALSE
            X509v3 Authority Key Identifier: 
                keyid:01:02:03

            Authority Information Access: 
                OCSP - URI:http://theca.net/ocsp
                CA Issuers - URI:http://theca.net/totallythecert.crt

            X509v3 Certificate Policies: 
                Policy: 1.3.6.1.5.5.7.13.1
                Policy: 2.23.140.1.2.2

            X509v3 Subject Key Identifier: 
                04:03:02:01
            X509v3 Subject Alternative Name: 
                DNS:*.gov.us, DNS:gov.us, DNS: 
            X509v3 Issuer Alternative Name: 
                DNS:allthethings.net, DNS:theca.net
    Signature Algorithm: sha256WithRSAEncryption
         38:05:e6:2e:07:fb:26:85:2a:5d:f1:4f:23:24:0e:14:d6:ae:
         fd:d6:b4:7a:45:7b:d5:dc:d3:99:d3:de:a0:96:a5:de:4f:46:
         30:f4:d7:2f:d8:84:7a:30:8d:5d:e8:0f:28:40:4b:3b:c3:50:
         e7:23:9a:f0:3f:e8:84:41:88:69:6b:6f:9d:3d:43:b8:c2:1a:
         9d:f1:27:ab:f6:8a:4d:0a:08:2f:07:52:cc:7d:33:5c:0e:4a:
         f4:ad:2f:6d:4a:54:13:36:55:0b:f0:35:70:36:95:bd:49:00:
         24:2a:f2:ca:97:bb:0b:30:9d:11:fe:22:1f:fe:0e:a8:10:6c:
         46:24:0a:d0:e3:ad:84:bc:e1:5e:17:99:81:4c:84:b0:bb:75:
         5b:c6:06:e3:b8:25:85:ce:89:f4:91:d0:ca:d4:14:a8:0c:87:
         c8:a9:5f:71:32:82:fa:1e:d3:87:28:ae:a5:8b:39:d0:7b:72:
         ee:4f:e8:01:26:2b:ee:4d:9a:60:a1:01:d3:50:b5:a1:34:72:
         8f:74:89:5f:fb:8d:83:4b:e8:8b:50:9b:7e:cb:94:b8:ce:17:
         9c:7d:dd:fb:70:37:12:f8:cc:d2:69:01:39:3f:d8:67:df:88:
         03:1f:c1:fc:ad:14:16:99:ec:99:e8:29:18:8f:b4:13:d7:99:
         52:0b:b4:d4
-----BEGIN CERTIFICATE-----
MIIEmjCCA4KgAwIBAgIFBDFmk+0wDQYJKoZIhvcNAQELBQAwUjELMAkGA1UEBhMC
VVMxFjAUBgNVBAoTDU1vdGhlciBOYXR1cmUxEzARBgNVBAsTCkV2ZXJ5dGhpbmcx
FjAUBgNVBAMTDU1vdGhlciBOYXR1cmUwHhcNMTYwNzAxMTUzOTQ3WhcNMTYwOTEz
MTUzOTQ3WjCBmTELMAkGA1UEBhMCVVMxCzAJBgNVBAgTAkZMMRQwEgYDVQQHEwtU
YWxsYWhhc3NlZTEcMBoGA1UECRMTMzIxMCBIb2xseSBNaWxsIFJ1bjEOMAwGA1UE
ERMFMzAwNjIxGDAWBgNVBAoTD0V4dHJlbWUgRGlzY29yZDEOMAwGA1UECxMFQ2hh
b3MxDzANBgNVBAMTBmdvdi51czCCASIwDQYJKoZIhvcNAQEBBQADggEPADCCAQoC
ggEBALv44i5dXui3ELXBk0RhTkW58vj5GUSJdmy4UYi87EZJprg9/M9LKgyQGsKP
NdNOOE/W+wFZn5rEIQXqy5Jya+MgqW27LWaiTyfEVuiY+VpwfMJITQM6A2wyw3kY
Z4AqnNtSb7Wml5OpDJ1enZkfBfvSF4WtApDfYWYfEU3M8JJdVTRu/wkAOEhBkF7U
/Zcd/bjKF50LM0WBOfE27kaYo5wtLIxt9S/TZRkuFTYVJimbdb0zi3Yb/Jzdda9p
Nf5eklDqaLEEyedw7lUXeLE0jSxi0xRPl3HqC/MjhwMY8Pp7Q/pv2BO6KSRKnVfw
+X/wLLWem3C0TpEwB1YZ++5ntEcCAwEAAaOCAS0wggEpMA4GA1UdDwEB/wQEAwIF
oDAdBgNVHSUEFjAUBggrBgEFBQcDAgYIKwYBBQUHAwEwDAYDVR0TAQH/BAIwADAO
BgNVHSMEBzAFgAMBAgMwYgYIKwYBBQUHAQEEVjBUMCEGCCsGAQUFBzABhhVodHRw
Oi8vdGhlY2EubmV0L29jc3AwLwYIKwYBBQUHMAKGI2h0dHA6Ly90aGVjYS5uZXQv
dG90YWxseXRoZWNlcnQuY3J0MB8GA1UdIAQYMBYwCgYIKwYBBQUHDQEwCAYGZ4EM
AQICMA0GA1UdDgQGBAQEAwIBMB4GA1UdEQQXMBWCCCouZ292LnVzggZnb3YudXOC
ASAwJgYDVR0SBB8wHYIQYWxsdGhldGhpbmdzLm5ldIIJdGhlY2EubmV0MA0GCSqG
SIb3DQEBCwUAA4IBAQA4BeYuB/smhSpd8U8jJA4U1q791rR6RXvV3NOZ096glqXe
T0Yw9Ncv2IR6MI1d6A8oQEs7w1DnI5rwP+iEQYhpa2+dPUO4whqd8Ser9opNCggv
B1LMfTNcDkr0rS9tSlQTNlUL8DVwNpW9SQAkKvLKl7sLMJ0R/iIf/g6oEGxGJArQ
462EvOFeF5mBTISwu3VbxgbjuCWFzon0kdDK1BSoDIfIqV9xMoL6HtOHKK6liznQ
e3LuT+gBJivuTZpgoQHTULWhNHKPdIlf+42DS+iLUJt+y5S4zhecfd37cDcS+MzS
aQE5P9hn34gDH8H8rRQWmeyZ6CkYj7QT15lSC7TU
-----END CERTIFICATE-----
