Certificate:
    Data:
        Version: 3 (0x2)
        Serial Number: 18008675309 (0x4316693ed)
    Signature Algorithm: sha256WithRSAEncryption
        Issuer: C = US, O = Mother Nature, OU = Everything, CN = Mother Nature
        Validity
            Not Before: Jul  1 15:41:44 2016 GMT
            Not After : Sep 13 15:41:44 2016 GMT
        Subject: C = US, ST = FL, L = Tallahassee, street = 3210 Holly Mill Run, postalCode = 30062, O = Extreme Discord, OU = Chaos, CN = gov.us
        Subject Public Key Info:
            Public Key Algorithm: rsaEncryption
                Public-Key: (2048 bit)
                Modulus:
                    00:d4:c0:d7:6b:be:6e:bd:86:fb:ba:e0:43:f7:4a:
                    f0:8a:e6:63:c3:d8:3f:4a:da:70:f7:59:a6:f7:c3:
                    cf:79:99:df:b7:12:60:61:3c:a8:30:ae:cc:bd:9b:
                    01:22:2f:9c:88:2d:7e:d7:75:37:35:bb:20:dd:f2:
                    97:19:45:dc:69:af:7b:2a:30:b0:a5:e3:2d:50:5f:
                    41:c7:8a:47:c1:27:25:bb:c1:2e:b7:e1:b8:98:6f:
                    b0:14:6e:9c:89:2b:c6:36:f7:61:0c:ee:87:17:a2:
                    0b:ba:66:b6:86:6b:b7:b9:78:ad:83:37:4d:a6:63:
                    d6:fb:1a:5f:e0:7c:71:14:17:ea:ba:ee:17:99:03:
                    86:76:1c:08:c3:97:18:dc:6f:b8:99:51:c1:02:2a:
                    2c:30:22:67:9c:73:18:12:2b:94:a5:91:03:e7:c5:
                    a5:e4:ed:26:a6:63:86:97:69:8a:52:0f:ce:df:94:
                    9b:c6:a6:a2:50:e0:3a:6b:2c:d0:c4:4d:ad:05:01:
                    a4:f9:6e:88:9b:e5:8f:6f:22:2c:34:da:b3:f8:e6:
                    ad:e0:25:c7:67:72:1b:b9:34:f3:8a:76:5b:79:a0:
                    c1:c9:32:72:29:5f:57:15:61:2f:af:a7:c4:9c:4a:
                    0f:b2:7f:83:21:13:f5:2a:ee:0e:bc:15:7f:df:cb:
                    e0:8d
                Exponent: 65537 (0x10001)
        X509v3 extensions:
            X509v3 Key Usage: critical
                Digital Signature, Key Encipherment
            X509v3 Extended Key Usage: 
                TLS Web Client Authentication, TLS Web Server Authentication
            X509v3 Basic Constraints: critical
                CA:FALSE
            X509v3 Authority Key Identifier: 
                keyid:01:02:03

            Authority Information Access: 
                OCSP - URI:http://theca.net/ocsp
                CA Issuers - URI:http://theca.net/totallythecert.crt

            X509v3 Certificate Policies: 
                Policy: 1.3.6.1.5.5.7.13.1
                Policy: 2.23.140.1.2.2

            X509v3 Subject Key Identifier: 
                04:03:02:01
            X509v3 Subject Alternative Name: 
                DNS:*.gov.us, email: , DNS:gov.us
            X509v3 Issuer Alternative Name: 
                DNS:allthethings.net, DNS:theca.net
    Signature Algorithm: sha256WithRSAEncryption
         53:58:c5:8f:1a:07:f7:7b:c9:1e:73:ba:12:bf:3b:6f:18:63:
         9c:5e:53:9d:96:03:0e:4b:dd:33:fc:f6:a7:39:df:a0:21:9d:
         65:29:b5:b8:82:61:40:1d:2f:bb:2b:5b:ea:d5:b4:ce:92:d5:
         94:2d:21:5d:3c:36:4f:85:b4:ac:ff:0a:ad:a8:e7:59:39:fe:
         27:3f:e8:fe:43:9f:26:1c:4b:1f:1d:31:7e:16:90:f3:74:2a:
         94:02:a5:34:21:9c:0a:6e:e9:1f:94:e3:8d:47:96:93:6d:52:
         2d:a3:6c:d9:4f:6e:b8:f9:9d:8f:fc:38:c8:36:4c:98:cb:49:
         4c:79:8d:71:a7:d0:c6:1a:e4:76:5a:02:47:60:b0:6d:53:1b:
         35:b3:fb:bd:74:15:ef:44:ab:46:81:49:a7:13:04:72:c8:1c:
         53:f7:f9:3d:a3:c1:9d:df:de:c8:7d:3c:b6:2e:7c:b9:d1:3f:
         bb:63:39:84:47:fe:57:3b:52:23:e2:bb:c2:b8:e5:67:67:f6:
         58:22:94:4e:1c:32:a2:64:83:c1:95:73:5f:47:f0:55:d9:d9:
         10:ab:2f:ab:8b:eb:96:ea:a1:d1:cb:c2:f3:a3:48:3a:2e:b6:
         1c:46:a9:87:df:94:e9:bc:2d:fa:b5:d6:e4:61:d8:7a:19:7e:
         63:d9:49:0a
-----BEGIN CERTIFICATE-----
MIIEmjCCA4KgAwIBAgIFBDFmk+0wDQYJKoZIhvcNAQELBQAwUjELMAkGA1UEBhMC
VVMxFjAUBgNVBAoTDU1vdGhlciBOYXR1cmUxEzARBgNVBAsTCkV2ZXJ5dGhpbmcx
FjAUBgNVBAMTDU1vdGhlciBOYXR1cmUwHhcNMTYwNzAxMTU0MTQ0WhcNMTYwOTEz
MTU0MTQ0WjCBmTELMAkGA1UEBhMCVVMxCzAJBgNVBAgTAkZMMRQwEgYDVQQHEwtU
YWxsYWhhc3NlZTEcMBoGA1UECRMTMzIxMCBIb2xseSBNaWxsIFJ1bjEOMAwGA1UE
ERMFMzAwNjIxGDAWBgNVBAoTD0V4dHJlbWUgRGlzY29yZDEOMAwGA1UECxMFQ2hh
b3MxDzANBgNVBAMTBmdvdi51czCCASIwDQYJKoZIhvcNAQEBBQADggEPADCCAQoC
ggEBANTA12u+br2G+7rgQ/dK8IrmY8PYP0racPdZpvfDz3mZ37cSYGE8qDCuzL2b
ASIvnIgtftd1NzW7IN3ylxlF3GmveyowsKXjLVBfQceKR8EnJbvBLrfhuJhvsBRu
nIkrxjb3YQzuhxeiC7pmtoZrt7l4rYM3TaZj1vsaX+B8cRQX6rruF5kDhnYcCMOX
GNxvuJlRwQIqLDAiZ5xzGBIrlKWRA+fFpeTtJqZjhpdpilIPzt+Um8amolDgOmss
0MRNrQUBpPluiJvlj28iLDTas/jmreAlx2dyG7k084p2W3mgwckycilfVxVhL6+n
xJxKD7J/gyET9SruDrwVf9/L4I0CAwEAAaOCAS0wggEpMA4GA1UdDwEB/wQEAwIF
oDAdBgNVHSUEFjAUBggrBgEFBQcDAgYIKwYBBQUHAwEwDAYDVR0TAQH/BAIwADAO
BgNVHSMEBzAFgAMBAgMwYgYIKwYBBQUHAQEEVjBUMCEGCCsGAQUFBzABhhVodHRw
Oi8vdGhlY2EubmV0L29jc3AwLwYIKwYBBQUHMAKGI2h0dHA6Ly90aGVjYS5uZXQv
dG90YWxseXRoZWNlcnQuY3J0MB8GA1UdIAQYMBYwCgYIKwYBBQUHDQEwCAYGZ4EM
AQICMA0GA1UdDgQGBAQEAwIBMB4GA1UdEQQXMBWCCCouZ292LnVzgQEgggZnb3Yu
dXMwJgYDVR0SBB8wHYIQYWxsdGhldGhpbmdzLm5ldIIJdGhlY2EubmV0MA0GCSqG
SIb3DQEBCwUAA4IBAQBTWMWPGgf3e8kec7oSvztvGGOcXlOdlgMOS90z/PanOd+g
IZ1lKbW4gmFAHS+7K1vq1bTOktWULSFdPDZPhbSs/wqtqOdZOf4nP+j+Q58mHEsf
HTF+FpDzdCqUAqU0IZwKbukflOONR5aTbVIto2zZT264+Z2P/DjINkyYy0lMeY1x
p9DGGuR2WgJHYLBtUxs1s/u9dBXvRKtGgUmnEwRyyBxT9/k9o8Gd397IfTy2Lny5
0T+7YzmER/5XO1Ij4rvCuOVnZ/ZYIpROHDKiZIPBlXNfR/BV2dkQqy+ri+uW6qHR
y8Lzo0g6LrYcRqmH35TpvC36tdbkYdh6GX5j2UkK
-----END CERTIFICATE-----
