Certificate:
    Data:
        Version: 3 (0x2)
        Serial Number: 18008675309 (0x4316693ed)
    Signature Algorithm: sha256WithRSAEncryption
        Issuer: C = US, O = Mother Nature, OU = Everything, CN = Mother Nature
        Validity
            Not Before: Jan  1 00:00:00 2010 GMT
            Not After : Jan  1 00:00:00 2013 GMT
        Subject: C = US, O = Extreme Discord, OU = Chaos, L = Tallahassee, ST = FL, street = 3210 Holly Mill Run, postalCode = 30062, CN = gov.us
        Subject Public Key Info:
            Public Key Algorithm: rsaEncryption
                Public-Key: (512 bit)
                Modulus:
                    00:ac:3d:84:d7:ee:8f:85:a6:56:de:96:b7:80:0a:
                    12:0b:b7:cb:8b:b2:01:ab:a1:1b:63:bc:b0:15:ea:
                    cc:03:eb:d7:84:5d:14:ce:9a:4a:e9:e3:ff:91:b9:
                    bd:f8:6b:49:52:e2:ea:89:81:45:27:42:1e:da:6a:
                    70:11:31:81:59
                Exponent: 65537 (0x10001)
        X509v3 extensions:
            X509v3 Key Usage: critical
                Digital Signature, Key Encipherment
            X509v3 Extended Key Usage: 
                TLS Web Client Authentication, TLS Web Server Authentication
            X509v3 Basic Constraints: critical
                CA:TRUE
            X509v3 Authority Key Identifier: 
                keyid:01:02:03

            Authority Information Access: 
                OCSP - URI:http://theca.net/ocsp
                CA Issuers - URI:http://theca.net/totallythecert.crt

            X509v3 Certificate Policies: 
                Policy: 2.23.140.1.2.2

            X509v3 Subject Key Identifier: 
                04:03:02:01
            X509v3 Subject Alternative Name: 
                DNS: , DNS:gov.us
            X509v3 Inhibit Any Policy: 
                ..
    Signature Algorithm: sha256WithRSAEncryption
         6c:e5:f6:26:b2:74:1e:c6:74:42:90:f0:4a:09:51:f3:a0:93:
         44:2f:b5:a5:fb:ca:83:72:47:67:51:ce:8b:50:ce:a4:87:cd:
         4f:89:85:6b:f0:19:87:e5:86:d9:f2:33:ba:9f:81:ac:79:af:
         81:a6:a1:0a:cf:38:e1:85:70:21
-----BEGIN CERTIFICATE-----
MIIC3jCCAoigAwIBAgIFBDFmk+0wDQYJKoZIhvcNAQELBQAwUjELMAkGA1UEBhMC
VVMxFjAUBgNVBAoTDU1vdGhlciBOYXR1cmUxEzARBgNVBAsTCkV2ZXJ5dGhpbmcx
FjAUBgNVBAMTDU1vdGhlciBOYXR1cmUwHhcNMTAwMTAxMDAwMDAwWhcNMTMwMTAx
MDAwMDAwWjCBmTELMAkGA1UEBhMCVVMxGDAWBgNVBAoTD0V4dHJlbWUgRGlzY29y
ZDEOMAwGA1UECxMFQ2hhb3MxFDASBgNVBAcTC1RhbGxhaGFzc2VlMQswCQYDVQQI
EwJGTDEcMBoGA1UECRMTMzIxMCBIb2xseSBNaWxsIFJ1bjEOMAwGA1UEERMFMzAw
NjIxDzANBgNVBAMTBmdvdi51czBcMA0GCSqGSIb3DQEBAQUAA0sAMEgCQQCsPYTX
7o+FplbelreAChILt8uLsgGroRtjvLAV6swD69eEXRTOmkrp4/+Rub34a0lS4uqJ
gUUnQh7aanARMYFZAgMBAAGjgfwwgfkwDgYDVR0PAQH/BAQDAgWgMB0GA1UdJQQW
MBQGCCsGAQUFBwMCBggrBgEFBQcDATAPBgNVHRMBAf8EBTADAQH/MA4GA1UdIwQH
MAWAAwECAzBiBggrBgEFBQcBAQRWMFQwIQYIKwYBBQUHMAGGFWh0dHA6Ly90aGVj
YS5uZXQvb2NzcDAvBggrBgEFBQcwAoYjaHR0cDovL3RoZWNhLm5ldC90b3RhbGx5
dGhlY2VydC5jcnQwEwYDVR0gBAwwCjAIBgZngQwBAgIwDQYDVR0OBAYEBAQDAgEw
FAYDVR0RBA0wC4IBIIIGZ292LnVzMAkGA1UdNgQCAgEwDQYJKoZIhvcNAQELBQAD
QQBs5fYmsnQexnRCkPBKCVHzoJNEL7Wl+8qDckdnUc6LUM6kh81PiYVr8BmH5YbZ
8jO6n4Gsea+BpqEKzzjhhXAh
-----END CERTIFICATE-----
