Certificate:
    Data:
        Version: 3 (0x2)
        Serial Number: 18008675309 (0x4316693ed)
    Signature Algorithm: sha256WithRSAEncryption
        Issuer: C = US, O = Mother Nature, OU = Everything, CN = Mother Nature
        Validity
            Not Before: Jul  1 15:40:13 2016 GMT
            Not After : Sep 13 15:40:13 2016 GMT
        Subject: C = US, ST = FL, L = Tallahassee, street = 3210 Holly Mill Run, postalCode = 30062, O = Extreme Discord, OU = Chaos, CN = gov.us
        Subject Public Key Info:
            Public Key Algorithm: rsaEncryption
                Public-Key: (2048 bit)
                Modulus:
                    00:94:43:b2:7d:3a:03:d7:3f:98:07:b5:c5:f1:68:
                    1a:7b:11:02:80:14:f8:3b:58:38:16:27:a1:f6:33:
                    71:0f:81:9a:fa:eb:6f:56:32:2f:a0:b2:f8:2b:db:
                    21:54:8a:cd:40:e0:b3:46:45:fe:b9:86:7c:c5:41:
                    71:99:a8:40:63:f5:db:70:a2:f9:14:b6:bc:0d:14:
                    08:c2:02:54:bf:4f:2f:7a:5c:89:37:06:0e:df:08:
                    57:7f:ee:de:6d:a5:da:d8:0c:8c:cd:4b:02:a7:6c:
                    aa:34:b9:79:b3:36:a4:af:2d:83:35:0b:db:18:5a:
                    35:30:47:97:7b:93:bf:e5:56:a8:cb:15:e2:32:5f:
                    55:1a:21:7f:27:d8:ed:bc:d9:6f:6e:2d:59:70:d9:
                    d8:ad:c5:30:61:68:55:5c:88:72:f5:49:3f:ad:b3:
                    1f:e1:c4:26:20:29:fb:57:39:35:14:8f:b5:9b:bb:
                    2c:17:5b:85:07:68:7f:3f:ae:65:51:3b:2a:0d:6e:
                    35:f2:98:ef:dc:7d:9c:48:96:34:1a:f4:73:d4:b7:
                    2a:bd:b0:69:18:78:7c:4b:59:53:00:a6:da:e9:21:
                    3c:6f:76:b8:03:c6:3c:97:4a:72:e7:1f:c3:66:d9:
                    6b:05:f7:05:0b:7e:e0:5d:af:3b:de:4e:86:a4:3a:
                    28:d5
                Exponent: 65537 (0x10001)
        X509v3 extensions:
            X509v3 Key Usage: critical
                Digital Signature, Key Encipherment
            X509v3 Extended Key Usage: 
                TLS Web Client Authentication, TLS Web Server Authentication
            X509v3 Basic Constraints: critical
                CA:FALSE
            X509v3 Authority Key Identifier: 
                keyid:01:02:03

            Authority Information Access: 
                OCSP - URI:http://theca.net/ocsp
                CA Issuers - URI:http://theca.net/totallythecert.crt

            X509v3 Certificate Policies: 
                Policy: 1.3.6.1.5.5.7.13.1
                Policy: 2.23.140.1.2.2

            X509v3 Subject Key Identifier: 
                04:03:02:01
            X509v3 Subject Alternative Name: 
                DNS: , DNS:*.gov.us, DNS:gov.us
            X509v3 Issuer Alternative Name: 
                DNS:allthethings.net, DNS:theca.net
    Signature Algorithm: sha256WithRSAEncryption
         9f:c6:6c:ff:9a:04:41:17:19:1f:74:04:f6:67:d7:29:84:72:
         59:cd:d5:b2:e2:b4:f9:73:ae:17:e5:5c:18:0b:64:5b:16:1b:
         de:11:83:fd:0b:89:94:1d:88:4c:cb:62:ea:93:a9:c2:f3:d4:
         19:a7:4c:28:af:c7:69:96:68:e9:06:12:92:34:43:fe:21:71:
         5b:2e:a5:6c:67:d9:1e:6d:69:fd:25:05:3b:c9:3e:6a:19:44:
         06:fd:e9:3d:1e:0e:60:44:af:ba:6c:39:5e:75:d2:13:ae:b2:
         8e:e1:ec:f9:b8:36:33:40:39:2b:ba:12:7d:e5:02:3e:3f:6f:
         a7:d8:e1:df:db:45:e2:b6:4b:72:ed:3d:fe:a8:84:93:26:3e:
         79:bb:d8:19:84:a3:86:70:eb:17:73:6a:61:74:97:75:12:6f:
         0e:e7:50:61:f2:0c:06:19:56:9f:67:93:3b:76:7b:2b:ac:22:
         7c:b2:f5:74:f6:6b:b9:a0:f1:e4:d8:25:30:2b:3f:6b:c1:19:
         df:bb:0b:45:7e:42:a6:90:8b:4d:74:10:32:09:7e:bb:5d:c5:
         a2:56:24:ca:fa:76:a0:86:b2:5e:92:3e:17:60:59:d0:a0:72:
         e3:08:b8:34:ac:72:65:53:f6:9b:68:6d:06:d3:e8:d4:21:85:
         a4:28:f5:22
-----BEGIN CERTIFICATE-----
MIIEmjCCA4KgAwIBAgIFBDFmk+0wDQYJKoZIhvcNAQELBQAwUjELMAkGA1UEBhMC
VVMxFjAUBgNVBAoTDU1vdGhlciBOYXR1cmUxEzARBgNVBAsTCkV2ZXJ5dGhpbmcx
FjAUBgNVBAMTDU1vdGhlciBOYXR1cmUwHhcNMTYwNzAxMTU0MDEzWhcNMTYwOTEz
MTU0MDEzWjCBmTELMAkGA1UEBhMCVVMxCzAJBgNVBAgTAkZMMRQwEgYDVQQHEwtU
YWxsYWhhc3NlZTEcMBoGA1UECRMTMzIxMCBIb2xseSBNaWxsIFJ1bjEOMAwGA1UE
ERMFMzAwNjIxGDAWBgNVBAoTD0V4dHJlbWUgRGlzY29yZDEOMAwGA1UECxMFQ2hh
b3MxDzANBgNVBAMTBmdvdi51czCCASIwDQYJKoZIhvcNAQEBBQADggEPADCCAQoC
ggEBAJRDsn06A9c/mAe1xfFoGnsRAoAU+DtYOBYnofYzcQ+Bmvrrb1YyL6Cy+Cvb
IVSKzUDgs0ZF/rmGfMVBcZmoQGP123Ci+RS2vA0UCMICVL9PL3pciTcGDt8IV3/u
3m2l2tgMjM1LAqdsqjS5ebM2pK8tgzUL2xhaNTBHl3uTv+VWqMsV4jJfVRohfyfY
7bzZb24tWXDZ2K3FMGFoVVyIcvVJP62zH+HEJiAp+1c5NRSPtZu7LBdbhQdofz+u
ZVE7Kg1uNfKY79x9nEiWNBr0c9S3Kr2waRh4fEtZUwCm2ukhPG92uAPGPJdKcucf
w2bZawX3BQt+4F2vO95OhqQ6KNUCAwEAAaOCAS0wggEpMA4GA1UdDwEB/wQEAwIF
oDAdBgNVHSUEFjAUBggrBgEFBQcDAgYIKwYBBQUHAwEwDAYDVR0TAQH/BAIwADAO
BgNVHSMEBzAFgAMBAgMwYgYIKwYBBQUHAQEEVjBUMCEGCCsGAQUFBzABhhVodHRw
Oi8vdGhlY2EubmV0L29jc3AwLwYIKwYBBQUHMAKGI2h0dHA6Ly90aGVjYS5uZXQv
dG90YWxseXRoZWNlcnQuY3J0MB8GA1UdIAQYMBYwCgYIKwYBBQUHDQEwCAYGZ4EM
AQICMA0GA1UdDgQGBAQEAwIBMB4GA1UdEQQXMBWCASCCCCouZ292LnVzggZnb3Yu
dXMwJgYDVR0SBB8wHYIQYWxsdGhldGhpbmdzLm5ldIIJdGhlY2EubmV0MA0GCSqG
SIb3DQEBCwUAA4IBAQCfxmz/mgRBFxkfdAT2Z9cphHJZzdWy4rT5c64X5VwYC2Rb
FhveEYP9C4mUHYhMy2Lqk6nC89QZp0wor8dplmjpBhKSNEP+IXFbLqVsZ9kebWn9
JQU7yT5qGUQG/ek9Hg5gRK+6bDleddITrrKO4ez5uDYzQDkruhJ95QI+P2+n2OHf
20Xitkty7T3+qISTJj55u9gZhKOGcOsXc2phdJd1Em8O51Bh8gwGGVafZ5M7dnsr
rCJ8svV09mu5oPHk2CUwKz9rwRnfuwtFfkKmkItNdBAyCX67XcWiViTK+naghrJe
kj4XYFnQoHLjCLg0rHJlU/abaG0G0+jUIYWkKPUi
-----END CERTIFICATE-----
