Certificate:
    Data:
        Version: 3 (0x2)
        Serial Number: 18008675309 (0x4316693ed)
    Signature Algorithm: sha256WithRSAEncryption
        Issuer: C = US, O = Mother Nature, OU = Everything, CN = Mother Nature
        Validity
            Not Before: Jul  1 15:40:38 2016 GMT
            Not After : Sep 13 15:40:38 2016 GMT
        Subject: C = US, ST = FL, L = Tallahassee, street = 3210 Holly Mill Run, postalCode = 30062, O = Extreme Discord, OU = Chaos, CN = gov.us
        Subject Public Key Info:
            Public Key Algorithm: rsaEncryption
                Public-Key: (2048 bit)
                Modulus:
                    00:bd:22:56:1c:54:7f:d7:70:57:70:ef:2a:7f:43:
                    07:bd:e8:1d:cc:6b:1d:30:3f:55:c5:72:f9:e6:ad:
                    33:92:06:6d:68:a6:73:a4:ad:04:02:d5:8b:3d:58:
                    7f:ac:8c:d5:83:43:d8:bd:d9:67:76:ad:c5:4d:cd:
                    e2:26:0d:21:a2:af:9c:bc:04:07:01:0d:07:a0:66:
                    fd:75:43:c6:d3:ea:63:28:48:ab:80:63:c2:11:d7:
                    50:e1:96:8b:c7:fd:12:96:28:db:51:48:96:f1:9a:
                    a6:ea:e0:3e:40:24:25:9a:19:98:71:a4:ee:ed:b0:
                    d0:09:49:ea:f1:9b:ae:76:8c:6e:18:f2:1e:39:8e:
                    fd:4c:31:d8:84:f0:0a:a9:07:1c:9f:62:6a:b9:f2:
                    0a:b2:ba:9c:21:f8:e0:2b:31:ed:a4:82:17:17:dd:
                    0a:b6:a3:cc:d1:6f:31:3a:a7:0b:1b:00:64:a7:a1:
                    71:80:c9:e1:0d:c7:57:6d:78:03:74:2c:e0:5e:ef:
                    6f:16:96:c7:fe:f4:87:00:a2:e3:f6:0b:1a:cd:55:
                    83:fb:85:91:fb:d4:68:76:97:71:58:6a:0e:53:90:
                    b0:dd:5b:4a:3b:54:8a:4f:be:48:3f:79:63:c5:4e:
                    11:38:ac:4e:9c:95:08:9b:25:43:5f:95:60:a4:87:
                    cc:23
                Exponent: 65537 (0x10001)
        X509v3 extensions:
            X509v3 Key Usage: critical
                Digital Signature, Key Encipherment
            X509v3 Extended Key Usage: 
                TLS Web Client Authentication, TLS Web Server Authentication
            X509v3 Basic Constraints: critical
                CA:FALSE
            X509v3 Authority Key Identifier: 
                keyid:01:02:03

            Authority Information Access: 
                OCSP - URI:http://theca.net/ocsp
                CA Issuers - URI:http://theca.net/totallythecert.crt

            X509v3 Certificate Policies: 
                Policy: 1.3.6.1.5.5.7.13.1
                Policy: 2.23.140.1.2.2

            X509v3 Subject Key Identifier: 
                04:03:02:01
            X509v3 Subject Alternative Name: 
                DNS:*.gov.us, DNS: , DNS:gov.us
            X509v3 Issuer Alternative Name: 
                DNS:allthethings.net, DNS:theca.net
    Signature Algorithm: sha256WithRSAEncryption
         0d:bd:42:f4:96:76:3c:bf:9d:36:70:be:df:e7:ac:c4:89:14:
         1e:cd:e3:ff:eb:52:54:99:4d:68:bc:30:9c:6e:11:c3:75:ce:
         26:23:76:93:25:39:c7:bf:23:22:b0:a0:54:82:ae:5e:4c:20:
         ac:75:d6:39:e1:2b:eb:be:e5:43:ca:06:d9:23:7c:97:94:20:
         e9:49:74:23:eb:18:af:ac:99:d6:20:61:2a:d7:ff:f2:38:84:
         98:16:44:b7:dd:64:90:ff:63:46:9a:c8:f2:55:32:8f:6b:32:
         da:47:cc:d5:23:5d:41:3e:c5:f8:18:11:14:1a:2f:e0:44:83:
         c0:d1:1b:15:2f:71:83:f7:27:d2:17:0b:f0:1c:02:dc:36:3e:
         09:9a:2d:ff:8a:a6:62:8e:63:b0:82:50:e7:07:a0:e1:87:48:
         32:76:6f:de:02:fe:91:6a:03:87:4d:4d:1b:f7:f3:f4:7a:0c:
         2f:91:4b:7e:1c:4b:c3:76:6a:85:c0:54:ff:a7:25:24:43:94:
         9f:75:00:3d:86:87:64:84:07:6d:53:4d:2f:48:c7:a7:af:2e:
         a0:a2:b6:f8:79:83:4e:9c:c3:52:65:7a:e0:1a:8b:02:3c:15:
         10:57:f5:59:d2:12:bd:6e:fe:80:f2:fb:b4:8c:0c:d4:ed:cf:
         23:85:e0:60
-----BEGIN CERTIFICATE-----
MIIEmjCCA4KgAwIBAgIFBDFmk+0wDQYJKoZIhvcNAQELBQAwUjELMAkGA1UEBhMC
VVMxFjAUBgNVBAoTDU1vdGhlciBOYXR1cmUxEzARBgNVBAsTCkV2ZXJ5dGhpbmcx
FjAUBgNVBAMTDU1vdGhlciBOYXR1cmUwHhcNMTYwNzAxMTU0MDM4WhcNMTYwOTEz
MTU0MDM4WjCBmTELMAkGA1UEBhMCVVMxCzAJBgNVBAgTAkZMMRQwEgYDVQQHEwtU
YWxsYWhhc3NlZTEcMBoGA1UECRMTMzIxMCBIb2xseSBNaWxsIFJ1bjEOMAwGA1UE
ERMFMzAwNjIxGDAWBgNVBAoTD0V4dHJlbWUgRGlzY29yZDEOMAwGA1UECxMFQ2hh
b3MxDzANBgNVBAMTBmdvdi51czCCASIwDQYJKoZIhvcNAQEBBQADggEPADCCAQoC
ggEBAL0iVhxUf9dwV3DvKn9DB73oHcxrHTA/VcVy+eatM5IGbWimc6StBALViz1Y
f6yM1YND2L3ZZ3atxU3N4iYNIaKvnLwEBwENB6Bm/XVDxtPqYyhIq4BjwhHXUOGW
i8f9EpYo21FIlvGapurgPkAkJZoZmHGk7u2w0AlJ6vGbrnaMbhjyHjmO/Uwx2ITw
CqkHHJ9iarnyCrK6nCH44Csx7aSCFxfdCrajzNFvMTqnCxsAZKehcYDJ4Q3HV214
A3Qs4F7vbxaWx/70hwCi4/YLGs1Vg/uFkfvUaHaXcVhqDlOQsN1bSjtUik++SD95
Y8VOETisTpyVCJslQ1+VYKSHzCMCAwEAAaOCAS0wggEpMA4GA1UdDwEB/wQEAwIF
oDAdBgNVHSUEFjAUBggrBgEFBQcDAgYIKwYBBQUHAwEwDAYDVR0TAQH/BAIwADAO
BgNVHSMEBzAFgAMBAgMwYgYIKwYBBQUHAQEEVjBUMCEGCCsGAQUFBzABhhVodHRw
Oi8vdGhlY2EubmV0L29jc3AwLwYIKwYBBQUHMAKGI2h0dHA6Ly90aGVjYS5uZXQv
dG90YWxseXRoZWNlcnQuY3J0MB8GA1UdIAQYMBYwCgYIKwYBBQUHDQEwCAYGZ4EM
AQICMA0GA1UdDgQGBAQEAwIBMB4GA1UdEQQXMBWCCCouZ292LnVzggEgggZnb3Yu
dXMwJgYDVR0SBB8wHYIQYWxsdGhldGhpbmdzLm5ldIIJdGhlY2EubmV0MA0GCSqG
SIb3DQEBCwUAA4IBAQANvUL0lnY8v502cL7f56zEiRQezeP/61JUmU1ovDCcbhHD
dc4mI3aTJTnHvyMisKBUgq5eTCCsddY54SvrvuVDygbZI3yXlCDpSXQj6xivrJnW
IGEq1//yOISYFkS33WSQ/2NGmsjyVTKPazLaR8zVI11BPsX4GBEUGi/gRIPA0RsV
L3GD9yfSFwvwHALcNj4Jmi3/iqZijmOwglDnB6Dhh0gydm/eAv6RagOHTU0b9/P0
egwvkUt+HEvDdmqFwFT/pyUkQ5SfdQA9hodkhAdtU00vSMenry6gorb4eYNOnMNS
ZXrgGosCPBUQV/VZ0hK9bv6A8vu0jAzU7c8jheBg
-----END CERTIFICATE-----
