Certificate:
    Data:
        Version: 3 (0x2)
        Serial Number: -18008675309 (-0x4316693ed)
    Signature Algorithm: sha256WithRSAEncryption
        Issuer: C = US, O = Mother Nature, OU = Everything, CN = Mother Nature
        Validity
            Not Before: Jul  6 18:34:06 2016 GMT
            Not After : Sep 18 18:34:06 2016 GMT
        Subject: C = US, ST = FL, L = Tallahassee, street = 3210 Holly Mill Run, postalCode = 30062, O = Extreme Discord, OU = Chaos, CN = gov.us
        Subject Public Key Info:
            Public Key Algorithm: rsaEncryption
                Public-Key: (2048 bit)
                Modulus:
                    00:cb:ba:54:7f:c9:bd:c1:bf:7e:83:5e:97:94:77:
                    34:7c:ff:39:e2:3d:7e:a1:f2:a0:f0:7a:77:fc:10:
                    d6:4f:da:54:63:68:b5:2c:d5:68:30:89:3d:8d:c9:
                    c6:6a:f5:28:29:cd:8f:31:a6:56:2b:9a:2d:7c:99:
                    59:91:0c:ba:6d:91:f0:3d:3e:2d:7d:4f:1c:14:25:
                    da:f6:eb:5d:23:8c:0e:ef:7b:73:7d:b7:40:e7:53:
                    53:03:18:0b:62:e6:68:53:f7:7d:ae:52:57:94:3e:
                    f3:ee:1f:fc:1f:7b:c1:71:31:3a:3a:75:cf:9c:fb:
                    55:a7:d8:8f:63:28:63:bd:86:8a:da:12:7c:9f:cb:
                    ae:42:84:92:c7:b2:7d:37:e5:57:12:84:bd:9a:96:
                    df:05:0d:e8:5d:8a:8f:82:68:d4:de:39:62:6f:a5:
                    22:bc:ff:55:02:83:39:2a:5c:fe:9d:1d:27:53:e0:
                    84:36:59:d9:dd:9b:de:2b:a3:e6:b0:8c:4f:0f:79:
                    df:75:92:df:0b:9e:61:f9:fb:d2:32:58:f4:32:a8:
                    16:3f:4b:cb:a0:06:d0:00:76:a3:b7:2a:4e:ff:23:
                    fb:7b:25:55:f0:11:de:e7:f0:83:2c:76:72:45:03:
                    05:60:99:69:97:67:85:1c:5a:8f:f1:bd:30:c6:06:
                    11:5d
                Exponent: 65537 (0x10001)
        X509v3 extensions:
            X509v3 Basic Constraints: critical
                CA:TRUE
            X509v3 Authority Key Identifier: 
                keyid:01:02:03

            X509v3 Subject Key Identifier: 
                04:03:02:01
            X509v3 Subject Alternative Name: 
                DNS:*.gov.us, DNS:gov.us
            X509v3 Key Usage: 
                Digital Signature, Certificate Sign, CRL Sign
            X509v3 Extended Key Usage: critical
                TLS Web Server Authentication, TLS Web Client Authentication
            X509v3 CRL Distribution Points: critical

                Full Name:
                  URI:http://crl.starfieldtech.com/sfig2s1-17.crl

    Signature Algorithm: sha256WithRSAEncryption
         6d:fa:98:ce:d4:e4:24:f4:4f:00:9d:56:22:d9:94:dd:16:48:
         19:1c:75:56:40:80:06:8b:80:a2:be:ad:54:7e:b0:19:50:b0:
         5a:06:86:f2:58:ba:02:e8:c7:31:f6:2f:cb:a4:14:3e:18:48:
         c8:d8:d3:7b:6d:67:7b:bd:81:63:55:d7:77:d8:5a:19:d3:30:
         5e:d5:02:35:f7:86:05:72:ac:47:d1:0d:d2:40:f2:38:05:c6:
         65:68:f7:16:aa:6e:4b:d5:a3:96:e3:c0:8d:05:87:16:84:70:
         95:00:52:c4:25:6e:46:02:2b:8d:78:49:9d:db:d6:f7:24:80:
         68:8e:75:7a:94:40:af:99:30:ca:5b:d3:0f:ba:b2:df:ad:c2:
         c4:30:0d:c7:95:d5:14:49:2d:72:52:36:e4:34:ab:c6:68:89:
         c9:ac:15:18:58:e7:c1:a6:01:15:37:b6:64:83:68:66:fb:3a:
         f0:41:25:d5:bd:7c:f9:51:85:db:57:bd:04:04:06:95:cb:08:
         7d:b0:c0:00:44:05:27:ee:40:fa:8f:33:cb:d3:3b:09:5b:0d:
         56:0c:37:4d:12:5b:8d:54:d9:48:48:39:3c:01:17:fb:70:b9:
         57:ac:33:ad:08:b5:9e:ac:da:35:af:f9:0f:11:96:20:b7:a5:
         65:c9:60:bc
-----BEGIN CERTIFICATE-----
MIIELDCCAxSgAwIBAgIF+86ZbBMwDQYJKoZIhvcNAQELBQAwUjELMAkGA1UEBhMC
VVMxFjAUBgNVBAoTDU1vdGhlciBOYXR1cmUxEzARBgNVBAsTCkV2ZXJ5dGhpbmcx
FjAUBgNVBAMTDU1vdGhlciBOYXR1cmUwHhcNMTYwNzA2MTgzNDA2WhcNMTYwOTE4
MTgzNDA2WjCBmTELMAkGA1UEBhMCVVMxCzAJBgNVBAgTAkZMMRQwEgYDVQQHEwtU
YWxsYWhhc3NlZTEcMBoGA1UECRMTMzIxMCBIb2xseSBNaWxsIFJ1bjEOMAwGA1UE
ERMFMzAwNjIxGDAWBgNVBAoTD0V4dHJlbWUgRGlzY29yZDEOMAwGA1UECxMFQ2hh
b3MxDzANBgNVBAMTBmdvdi51czCCASIwDQYJKoZIhvcNAQEBBQADggEPADCCAQoC
ggEBAMu6VH/JvcG/foNel5R3NHz/OeI9fqHyoPB6d/wQ1k/aVGNotSzVaDCJPY3J
xmr1KCnNjzGmViuaLXyZWZEMum2R8D0+LX1PHBQl2vbrXSOMDu97c323QOdTUwMY
C2LmaFP3fa5SV5Q+8+4f/B97wXExOjp1z5z7VafYj2MoY72GitoSfJ/LrkKEksey
fTflVxKEvZqW3wUN6F2Kj4Jo1N45Ym+lIrz/VQKDOSpc/p0dJ1PghDZZ2d2b3iuj
5rCMTw9533WS3wueYfn70jJY9DKoFj9Ly6AG0AB2o7cqTv8j+3slVfAR3ufwgyx2
ckUDBWCZaZdnhRxaj/G9MMYGEV0CAwEAAaOBwDCBvTAPBgNVHRMBAf8EBTADAQH/
MA4GA1UdIwQHMAWAAwECAzANBgNVHQ4EBgQEBAMCATAbBgNVHREEFDASgggqLmdv
di51c4IGZ292LnVzMAsGA1UdDwQEAwIBhjAgBgNVHSUBAf8EFjAUBggrBgEFBQcD
AQYIKwYBBQUHAwIwPwYDVR0fAQH/BDUwMzAxoC+gLYYraHR0cDovL2NybC5zdGFy
ZmllbGR0ZWNoLmNvbS9zZmlnMnMxLTE3LmNybDANBgkqhkiG9w0BAQsFAAOCAQEA
bfqYztTkJPRPAJ1WItmU3RZIGRx1VkCABouAor6tVH6wGVCwWgaG8li6AujHMfYv
y6QUPhhIyNjTe21ne72BY1XXd9haGdMwXtUCNfeGBXKsR9EN0kDyOAXGZWj3Fqpu
S9WjluPAjQWHFoRwlQBSxCVuRgIrjXhJndvW9ySAaI51epRAr5kwylvTD7qy363C
xDANx5XVFEktclI25DSrxmiJyawVGFjnwaYBFTe2ZINoZvs68EEl1b18+VGF21e9
BAQGlcsIfbDAAEQFJ+5A+o8zy9M7CVsNVgw3TRJbjVTZSEg5PAEX+3C5V6wzrQi1
nqzaNa/5DxGWILelZclgvA==
-----END CERTIFICATE-----
