Certificate:
    Data:
        Version: 3 (0x2)
        Serial Number: 18008675309 (0x4316693ed)
    Signature Algorithm: sha256WithRSAEncryption
        Issuer: C = US, O = Mother Nature, OU = Everything, CN = Mother Nature
        Validity
            Not Before: Jul  6 18:33:46 2016 GMT
            Not After : Sep 18 18:33:46 2016 GMT
        Subject: C = US, ST = FL, L = Tallahassee, street = 3210 Holly Mill Run, postalCode = 30062, O = Extreme Discord, OU = Chaos, CN = gov.us
        Subject Public Key Info:
            Public Key Algorithm: rsaEncryption
                Public-Key: (2048 bit)
                Modulus:
                    00:bb:ce:45:01:9a:0d:f9:a2:5b:59:55:29:73:b6:
                    ea:be:31:a1:7f:20:00:96:2b:d1:24:c8:14:67:af:
                    d2:01:a4:0d:80:6a:b3:f1:04:48:5a:b0:d4:35:c6:
                    84:65:76:b7:97:b9:f0:d1:de:57:3e:9c:89:eb:1d:
                    7c:c7:ef:93:d3:9d:a6:5f:ae:45:fd:bc:67:1a:d4:
                    36:46:07:a0:be:0f:8a:d8:41:9b:1d:09:70:eb:fa:
                    2c:e6:ca:30:5c:f6:92:80:68:76:0b:ee:37:ec:a5:
                    2e:b3:5d:0e:0b:be:53:65:1b:5b:68:08:4b:fb:5f:
                    7d:6a:44:a1:2f:f3:a4:8a:0e:b5:13:9d:06:9f:6c:
                    48:e4:12:05:79:66:94:29:95:30:ed:9e:b9:3f:2f:
                    4e:99:eb:16:52:15:c4:63:cd:c4:ea:98:1c:3a:96:
                    5d:f7:9c:6d:46:6e:37:c0:b6:94:a0:80:fd:15:98:
                    eb:6b:36:04:db:2c:15:fc:73:0f:f4:9a:76:5e:f5:
                    94:e9:3c:11:e0:f8:45:6d:17:56:bd:5d:e9:0e:13:
                    35:4c:07:bd:d9:5b:9c:f6:5b:43:19:05:6f:06:a5:
                    cd:73:4c:fa:4d:c5:f3:7d:39:89:57:63:71:45:30:
                    4e:87:c1:23:be:73:fb:7b:62:77:f8:f3:7d:d2:d2:
                    68:51
                Exponent: 65537 (0x10001)
        X509v3 extensions:
            X509v3 Basic Constraints: critical
                CA:TRUE
            X509v3 Authority Key Identifier: 
                keyid:01:02:03

            X509v3 Subject Key Identifier: 
                04:03:02:01
            X509v3 Subject Alternative Name: 
                DNS:*.gov.us, DNS:gov.us
            X509v3 Key Usage: 
                Digital Signature, Certificate Sign, CRL Sign
            X509v3 Extended Key Usage: critical
                TLS Web Server Authentication, TLS Web Client Authentication
            X509v3 CRL Distribution Points: critical

                Full Name:
                  URI:http://crl.starfieldtech.com/sfig2s1-17.crl

    Signature Algorithm: sha256WithRSAEncryption
         56:f6:85:1d:64:4a:f1:2e:ca:00:f2:be:5e:cd:a5:2b:fb:e1:
         23:82:92:85:b3:94:33:58:97:61:87:75:91:ee:48:62:66:36:
         95:b4:20:7b:05:87:db:fa:8b:fa:3f:40:dd:5c:0e:ac:2b:01:
         37:a9:af:77:2f:b4:61:10:76:9a:a3:d8:b8:7c:51:b7:b8:9e:
         97:26:a0:a7:b7:cb:0c:8b:2f:44:84:9d:a9:d2:83:3e:7e:ce:
         a2:e3:6a:02:08:e0:75:94:49:b2:36:0a:51:49:1d:1d:fd:bf:
         d3:e4:19:79:09:80:44:47:6e:9b:88:39:14:55:29:ce:aa:27:
         e8:8c:84:78:d1:7c:9f:59:5c:ac:87:d9:46:84:2a:90:f3:be:
         64:21:ae:40:6b:d2:e7:9d:35:36:29:f1:59:2a:34:60:00:04:
         5e:4e:2d:65:f6:fc:23:65:4f:31:4c:ef:43:5e:af:6a:47:1c:
         62:d8:90:4e:35:75:c6:84:d9:b2:01:c8:c0:a8:4e:e6:c4:71:
         f0:86:08:41:c9:66:42:69:d0:09:74:66:4e:c0:53:a3:68:e4:
         53:df:e2:c9:ab:96:7b:29:85:5e:0a:f8:6c:15:71:53:ee:2c:
         d4:e4:b8:38:d8:2f:f9:fd:33:b4:f2:8b:43:1a:3a:ff:47:6f:
         44:eb:ef:d8
-----BEGIN CERTIFICATE-----
MIIELDCCAxSgAwIBAgIFBDFmk+0wDQYJKoZIhvcNAQELBQAwUjELMAkGA1UEBhMC
VVMxFjAUBgNVBAoTDU1vdGhlciBOYXR1cmUxEzARBgNVBAsTCkV2ZXJ5dGhpbmcx
FjAUBgNVBAMTDU1vdGhlciBOYXR1cmUwHhcNMTYwNzA2MTgzMzQ2WhcNMTYwOTE4
MTgzMzQ2WjCBmTELMAkGA1UEBhMCVVMxCzAJBgNVBAgTAkZMMRQwEgYDVQQHEwtU
YWxsYWhhc3NlZTEcMBoGA1UECRMTMzIxMCBIb2xseSBNaWxsIFJ1bjEOMAwGA1UE
ERMFMzAwNjIxGDAWBgNVBAoTD0V4dHJlbWUgRGlzY29yZDEOMAwGA1UECxMFQ2hh
b3MxDzANBgNVBAMTBmdvdi51czCCASIwDQYJKoZIhvcNAQEBBQADggEPADCCAQoC
ggEBALvORQGaDfmiW1lVKXO26r4xoX8gAJYr0STIFGev0gGkDYBqs/EESFqw1DXG
hGV2t5e58NHeVz6ciesdfMfvk9Odpl+uRf28ZxrUNkYHoL4PithBmx0JcOv6LObK
MFz2koBodgvuN+ylLrNdDgu+U2UbW2gIS/tffWpEoS/zpIoOtROdBp9sSOQSBXlm
lCmVMO2euT8vTpnrFlIVxGPNxOqYHDqWXfecbUZuN8C2lKCA/RWY62s2BNssFfxz
D/Sadl71lOk8EeD4RW0XVr1d6Q4TNUwHvdlbnPZbQxkFbwalzXNM+k3F8305iVdj
cUUwTofBI75z+3tid/jzfdLSaFECAwEAAaOBwDCBvTAPBgNVHRMBAf8EBTADAQH/
MA4GA1UdIwQHMAWAAwECAzANBgNVHQ4EBgQEBAMCATAbBgNVHREEFDASgggqLmdv
di51c4IGZ292LnVzMAsGA1UdDwQEAwIBhjAgBgNVHSUBAf8EFjAUBggrBgEFBQcD
AQYIKwYBBQUHAwIwPwYDVR0fAQH/BDUwMzAxoC+gLYYraHR0cDovL2NybC5zdGFy
ZmllbGR0ZWNoLmNvbS9zZmlnMnMxLTE3LmNybDANBgkqhkiG9w0BAQsFAAOCAQEA
VvaFHWRK8S7KAPK+Xs2lK/vhI4KShbOUM1iXYYd1ke5IYmY2lbQgewWH2/qL+j9A
3VwOrCsBN6mvdy+0YRB2mqPYuHxRt7ielyagp7fLDIsvRISdqdKDPn7OouNqAgjg
dZRJsjYKUUkdHf2/0+QZeQmAREdum4g5FFUpzqon6IyEeNF8n1lcrIfZRoQqkPO+
ZCGuQGvS5501NinxWSo0YAAEXk4tZfb8I2VPMUzvQ16vakccYtiQTjV1xoTZsgHI
wKhO5sRx8IYIQclmQmnQCXRmTsBTo2jkU9/iyauWeymFXgr4bBVxU+4s1OS4ONgv
+f0ztPKLQxo6/0dvROvv2A==
-----END CERTIFICATE-----
