Certificate:
    Data:
        Version: 3 (0x2)
        Serial Number: 18008675309 (0x4316693ed)
    Signature Algorithm: sha256WithRSAEncryption
        Issuer: C = US, O = Mother Nature, OU = Everything, CN = Mother Nature
        Validity
            Not Before: Jan  1 00:00:00 2010 GMT
            Not After : Jan  1 00:00:00 2013 GMT
        Subject: C = US, O = Extreme Discord, OU = Chaos, L = Tallahassee, ST = FL, street = 3210 Holly Mill Run, postalCode = 30062, CN = gov.us
        Subject Public Key Info:
            Public Key Algorithm: rsaEncryption
                Public-Key: (512 bit)
                Modulus:
                    00:a8:40:7c:b1:18:19:d3:32:0e:2e:be:0e:8a:03:
                    23:50:02:32:b4:53:d5:91:86:d4:45:37:22:02:73:
                    2f:2b:50:0b:4e:76:f0:3f:a5:94:d2:0b:1a:28:08:
                    31:fa:92:3c:5e:d3:73:98:48:53:f8:f9:ba:13:27:
                    67:81:44:fa:3b
                Exponent: 65537 (0x10001)
        X509v3 extensions:
            X509v3 Key Usage: critical
                Digital Signature, Key Encipherment
            X509v3 Extended Key Usage: 
                TLS Web Client Authentication, TLS Web Server Authentication
            X509v3 Authority Key Identifier: 
                keyid:01:02:03

            Authority Information Access: 
                OCSP - URI:http://theca.net/ocsp
                CA Issuers - URI:http://theca.net/totallythecert.crt

            X509v3 Certificate Policies: 
                Policy: 2.23.140.1.2.2

            X509v3 Subject Key Identifier: 
                04:03:02:01
            X509v3 Subject Alternative Name: 
                URI:, DNS:ˬ
            X509v3 Inhibit Any Policy: 
                ..
            Subject Information Access: critical
                ..
    Signature Algorithm: sha256WithRSAEncryption
         37:3e:01:12:b7:ae:92:59:fe:bc:66:61:16:b0:56:81:fe:40:
         51:8c:ee:37:8f:3e:7b:b6:df:c6:55:2c:0b:4b:c4:62:5b:33:
         05:a6:68:09:32:a9:a9:e7:8a:61:5d:d7:27:4c:69:55:41:82:
         fe:3e:79:a1:93:1f:01:e2:74:d1
-----BEGIN CERTIFICATE-----
MIIC2zCCAoWgAwIBAgIFBDFmk+0wDQYJKoZIhvcNAQELBQAwUjELMAkGA1UEBhMC
VVMxFjAUBgNVBAoTDU1vdGhlciBOYXR1cmUxEzARBgNVBAsTCkV2ZXJ5dGhpbmcx
FjAUBgNVBAMTDU1vdGhlciBOYXR1cmUwHhcNMTAwMTAxMDAwMDAwWhcNMTMwMTAx
MDAwMDAwWjCBmTELMAkGA1UEBhMCVVMxGDAWBgNVBAoTD0V4dHJlbWUgRGlzY29y
ZDEOMAwGA1UECxMFQ2hhb3MxFDASBgNVBAcTC1RhbGxhaGFzc2VlMQswCQYDVQQI
EwJGTDEcMBoGA1UECRMTMzIxMCBIb2xseSBNaWxsIFJ1bjEOMAwGA1UEERMFMzAw
NjIxDzANBgNVBAMTBmdvdi51czBcMA0GCSqGSIb3DQEBAQUAA0sAMEgCQQCoQHyx
GBnTMg4uvg6KAyNQAjK0U9WRhtRFNyICcy8rUAtOdvA/pZTSCxooCDH6kjxe03OY
SFP4+boTJ2eBRPo7AgMBAAGjgfkwgfYwDgYDVR0PAQH/BAQDAgWgMB0GA1UdJQQW
MBQGCCsGAQUFBwMCBggrBgEFBQcDATAOBgNVHSMEBzAFgAMBAgMwYgYIKwYBBQUH
AQEEVjBUMCEGCCsGAQUFBzABhhVodHRwOi8vdGhlY2EubmV0L29jc3AwLwYIKwYB
BQUHMAKGI2h0dHA6Ly90aGVjYS5uZXQvdG90YWxseXRoZWNlcnQuY3J0MBMGA1Ud
IAQMMAowCAYGZ4EMAQICMA0GA1UdDgQGBAQEAwIBMA8GA1UdEQQIMAaGAIICwKgw
CQYDVR02BAICATARBggrBgEFBQcBCwEB/wQCAgEwDQYJKoZIhvcNAQELBQADQQA3
PgESt66SWf68ZmEWsFaB/kBRjO43jz57tt/GVSwLS8RiWzMFpmgJMqmp54phXdcn
TGlVQYL+Pnmhkx8B4nTR
-----END CERTIFICATE-----
