Certificate:
    Data:
        Version: 3 (0x2)
        Serial Number: 18008675309 (0x4316693ed)
    Signature Algorithm: sha256WithRSAEncryption
        Issuer: C = US, O = Mother Nature, OU = Everything, CN = Mother Nature
        Validity
            Not Before: Jul  8 04:47:15 2016 GMT
            Not After : Sep 20 04:47:15 2016 GMT
        Subject: C = US, ST = FL, L = Tallahassee, street = 3210 Holly Mill Run, postalCode = 30062, O = Extreme Discord, OU = Chaos, CN = gov.us
        Subject Public Key Info:
            Public Key Algorithm: rsaEncryption
                Public-Key: (2048 bit)
                Modulus:
                    00:b5:75:37:39:f6:9c:69:91:a0:41:48:87:89:d3:
                    38:06:dd:72:3d:c7:de:8a:27:15:b8:e6:2e:f9:ca:
                    04:cb:ac:7f:3f:67:a3:d6:2d:85:86:9d:7c:33:76:
                    ff:81:ca:1e:c6:23:ce:65:6f:bb:00:90:e5:3d:61:
                    17:f8:50:46:ca:13:b2:97:cc:86:08:e0:99:59:d3:
                    53:a0:b7:b4:15:79:e8:7c:26:73:09:06:e6:82:c3:
                    1b:99:56:05:18:80:27:c2:96:f4:e0:87:7c:c5:a6:
                    1b:4a:d2:b2:50:b4:1d:be:15:cb:81:0c:50:13:28:
                    25:10:2e:32:32:97:9c:26:7b:44:15:bb:72:44:da:
                    7f:92:ba:af:52:04:1b:c5:14:b1:82:5c:08:52:73:
                    c6:ba:2c:a5:f5:6b:90:3d:18:ac:c4:25:fd:fd:5f:
                    d5:18:c1:b2:4c:ad:61:ed:ae:ae:8f:b5:e6:2b:80:
                    3b:ac:82:88:3f:1e:9a:38:a1:eb:f3:3d:94:3c:b1:
                    4c:dd:0d:75:43:19:73:1d:1f:cc:fd:ba:87:66:89:
                    49:04:ca:0a:89:5c:1f:c0:3a:08:5a:54:7c:c8:95:
                    48:13:8a:fa:6b:1e:83:38:24:78:eb:ce:5c:a0:1a:
                    a3:b6:0a:c3:d8:76:d4:da:39:2e:e0:c7:2f:96:c8:
                    c9:99
                Exponent: 65537 (0x10001)
        X509v3 extensions:
            X509v3 Key Usage: critical
                Digital Signature, Key Encipherment
            X509v3 Extended Key Usage: 
                TLS Web Client Authentication, TLS Web Server Authentication
            X509v3 Basic Constraints: critical
                CA:TRUE
            X509v3 Authority Key Identifier: 
                keyid:01:02:03

            Authority Information Access: 
                OCSP - URI:http://theca.net/ocsp
                CA Issuers - URI:http://theca.net/totallythecert.crt

            X509v3 Certificate Policies: 
                Policy: 2.23.140.1.2.2

            X509v3 Subject Key Identifier: critical
                04:03:02:01
            X509v3 Subject Alternative Name: 
                DNS:*.gov.us, DNS:gov.us
    Signature Algorithm: sha256WithRSAEncryption
         b9:42:8e:53:40:56:15:3e:8e:ee:fb:7a:1d:2d:9f:59:25:52:
         93:47:96:00:a1:52:e2:3a:c9:9b:69:d1:a3:ef:7a:5a:7f:a5:
         96:ba:71:66:9d:63:1b:0b:27:18:aa:cd:7e:41:20:de:92:c0:
         92:8d:8c:40:9d:f7:9f:ab:60:d5:60:4c:79:98:51:3f:d4:1e:
         4b:0a:96:ba:a1:e0:66:00:01:66:0c:c1:53:a7:1a:a4:87:73:
         4a:41:af:a8:25:1b:68:73:bb:01:c7:75:0e:d4:8d:97:e5:e4:
         3b:a9:fc:de:0d:d8:ba:e5:e2:01:da:85:20:c0:12:70:2c:70:
         5b:da:df:63:ae:cd:c1:5b:a1:89:3b:68:d7:c6:75:b2:1c:fa:
         37:21:ff:3f:36:17:09:51:6b:bc:a5:c6:e6:da:2f:46:e8:51:
         00:cb:5c:72:6c:02:94:1a:5b:9f:20:b4:26:86:23:64:75:81:
         b8:ec:28:c7:e1:70:36:f4:07:68:43:d7:57:ba:ca:05:1a:51:
         7d:ca:3d:47:dc:91:36:65:45:d3:33:d4:03:c2:c8:d6:1f:1d:
         f5:76:79:01:fa:d7:12:16:df:eb:9e:71:3d:fb:60:3e:f2:d1:
         e3:c8:55:64:dd:4c:00:94:82:4f:62:4b:92:41:6a:b4:a8:21:
         f0:2c:7e:9c
-----BEGIN CERTIFICATE-----
MIIEZzCCA0+gAwIBAgIFBDFmk+0wDQYJKoZIhvcNAQELBQAwUjELMAkGA1UEBhMC
VVMxFjAUBgNVBAoTDU1vdGhlciBOYXR1cmUxEzARBgNVBAsTCkV2ZXJ5dGhpbmcx
FjAUBgNVBAMTDU1vdGhlciBOYXR1cmUwHhcNMTYwNzA4MDQ0NzE1WhcNMTYwOTIw
MDQ0NzE1WjCBmTELMAkGA1UEBhMCVVMxCzAJBgNVBAgTAkZMMRQwEgYDVQQHEwtU
YWxsYWhhc3NlZTEcMBoGA1UECRMTMzIxMCBIb2xseSBNaWxsIFJ1bjEOMAwGA1UE
ERMFMzAwNjIxGDAWBgNVBAoTD0V4dHJlbWUgRGlzY29yZDEOMAwGA1UECxMFQ2hh
b3MxDzANBgNVBAMTBmdvdi51czCCASIwDQYJKoZIhvcNAQEBBQADggEPADCCAQoC
ggEBALV1Nzn2nGmRoEFIh4nTOAbdcj3H3oonFbjmLvnKBMusfz9no9YthYadfDN2
/4HKHsYjzmVvuwCQ5T1hF/hQRsoTspfMhgjgmVnTU6C3tBV56HwmcwkG5oLDG5lW
BRiAJ8KW9OCHfMWmG0rSslC0Hb4Vy4EMUBMoJRAuMjKXnCZ7RBW7ckTaf5K6r1IE
G8UUsYJcCFJzxrospfVrkD0YrMQl/f1f1RjBskytYe2uro+15iuAO6yCiD8emjih
6/M9lDyxTN0NdUMZcx0fzP26h2aJSQTKColcH8A6CFpUfMiVSBOK+msegzgkeOvO
XKAao7YKw9h21No5LuDHL5bIyZkCAwEAAaOB+zCB+DAOBgNVHQ8BAf8EBAMCBaAw
HQYDVR0lBBYwFAYIKwYBBQUHAwIGCCsGAQUFBwMBMA8GA1UdEwEB/wQFMAMBAf8w
DgYDVR0jBAcwBYADAQIDMGIGCCsGAQUFBwEBBFYwVDAhBggrBgEFBQcwAYYVaHR0
cDovL3RoZWNhLm5ldC9vY3NwMC8GCCsGAQUFBzAChiNodHRwOi8vdGhlY2EubmV0
L3RvdGFsbHl0aGVjZXJ0LmNydDATBgNVHSAEDDAKMAgGBmeBDAECAjAQBgNVHQ4B
Af8EBgQEBAMCATAbBgNVHREEFDASgggqLmdvdi51c4IGZ292LnVzMA0GCSqGSIb3
DQEBCwUAA4IBAQC5Qo5TQFYVPo7u+3odLZ9ZJVKTR5YAoVLiOsmbadGj73paf6WW
unFmnWMbCycYqs1+QSDeksCSjYxAnfefq2DVYEx5mFE/1B5LCpa6oeBmAAFmDMFT
pxqkh3NKQa+oJRtoc7sBx3UO1I2X5eQ7qfzeDdi65eIB2oUgwBJwLHBb2t9jrs3B
W6GJO2jXxnWyHPo3If8/NhcJUWu8pcbm2i9G6FEAy1xybAKUGlufILQmhiNkdYG4
7CjH4XA29AdoQ9dXusoFGlF9yj1H3JE2ZUXTM9QDwsjWHx31dnkB+tcSFt/rnnE9
+2A+8tHjyFVk3UwAlIJPYkuSQWq0qCHwLH6c
-----END CERTIFICATE-----
