Certificate:
    Data:
        Version: 3 (0x2)
        Serial Number: 18008675309 (0x4316693ed)
    Signature Algorithm: sha256WithRSAEncryption
        Issuer: C = US, O = Mother Nature, OU = Everything, CN = Mother Nature
        Validity
            Not Before: Jun 30 19:50:04 2016 GMT
            Not After : Sep 11 19:50:04 2016 GMT
        Subject: C = US, O = Extreme Discord, OU = Chaos, L = Tallahassee, ST = FL, street = 3210 Holly Mill Run, postalCode = 30062, CN = gov.us
        Subject Public Key Info:
            Public Key Algorithm: rsaEncryption
                Public-Key: (2048 bit)
                Modulus:
                    00:bb:4f:ab:a7:32:4e:4c:10:c6:f1:31:09:60:02:
                    c2:9a:b9:40:bb:8e:df:5c:52:a8:be:03:26:3e:f7:
                    c2:d8:57:78:64:1a:14:fe:7f:0a:c4:b8:a8:ff:a2:
                    4a:84:fb:f7:5c:98:18:66:56:af:85:c1:f3:d2:40:
                    7d:9f:be:1a:c8:df:14:a1:1f:05:a0:d7:17:8b:d0:
                    46:1f:e3:7c:db:59:9b:47:29:60:0e:35:20:00:34:
                    54:2e:c3:f1:98:3e:52:26:16:01:c6:69:da:9e:92:
                    c0:28:77:c0:0f:10:c6:94:ad:37:68:69:65:ac:42:
                    03:50:fc:26:13:7e:d6:53:b0:3e:5a:3f:e5:cb:24:
                    3d:92:04:f6:1f:2d:e9:d6:7e:b9:79:7a:90:ca:71:
                    0a:40:cf:fe:e7:90:58:2a:20:7b:5e:aa:94:93:f1:
                    62:df:59:d4:2d:f1:d1:83:61:24:a3:bb:cc:85:6b:
                    db:2a:75:e1:a6:b8:72:39:90:0d:68:5b:0a:93:7f:
                    1e:61:42:6a:a2:60:3e:8e:67:26:6f:16:1e:64:c9:
                    1e:7c:c9:d5:2a:cf:76:de:ea:99:8c:e5:d7:3c:64:
                    ab:77:da:70:cf:c2:3c:0d:24:53:68:44:67:e2:34:
                    15:f2:d5:7d:cd:0c:cf:9c:8b:f9:cc:41:5f:14:5d:
                    7a:09
                Exponent: 65537 (0x10001)
        X509v3 extensions:
            X509v3 Key Usage: critical
                Digital Signature, Key Encipherment
            X509v3 Extended Key Usage: 
                TLS Web Client Authentication, TLS Web Server Authentication
            X509v3 Basic Constraints: critical
                CA:FALSE
            X509v3 Authority Key Identifier: 
                keyid:01:02:03

            Authority Information Access: 
                OCSP - URI:http://theca.net/ocsp
                CA Issuers - URI:http://theca.net/totallythecert.crt

            X509v3 Certificate Policies: 
                Policy: 2.23.140.1.2.2

            X509v3 Subject Key Identifier: 
                04:03:02:01
            X509v3 Subject Alternative Name: 
                DNS:*.gov.us, DNS:gov.us
    Signature Algorithm: sha256WithRSAEncryption
         cb:0b:0d:ac:c4:7c:e2:ce:f2:75:66:e7:90:fc:a4:b5:70:81:
         26:32:05:98:05:11:d8:72:d3:6a:50:e9:32:33:c6:16:e4:65:
         a0:6f:8d:68:cf:eb:16:7a:df:73:d4:8d:e7:1b:cf:b7:b9:f9:
         59:5d:d4:a2:f5:87:da:c6:da:56:b1:05:5e:15:9d:da:3b:77:
         e4:bc:f1:ad:24:01:94:39:bb:9b:5d:f1:80:5a:5f:0e:90:6d:
         d3:55:cd:83:a6:ed:fb:61:89:9f:c7:44:1d:64:7a:dd:c9:dc:
         04:5c:dd:ae:29:f1:d5:b0:c4:ba:a2:1e:6c:35:e7:52:ee:52:
         a6:46:16:f8:2b:6a:34:8b:5c:7a:72:f1:3b:87:ca:89:d0:1f:
         0e:7a:3f:1f:29:c0:e0:f0:98:e3:e8:b2:1f:ef:89:7f:06:2e:
         1c:70:84:67:05:ec:31:a2:82:4e:67:91:a9:88:56:e6:38:da:
         b5:f5:46:6d:9f:1c:43:36:91:2a:ab:2f:df:7b:d7:d5:43:8e:
         55:29:a6:76:a1:a3:b5:1b:c1:b3:97:c2:5f:89:0d:18:a9:c3:
         7c:bc:4c:fa:4b:78:07:f2:2e:9a:06:8e:3e:44:02:2f:da:ee:
         94:36:27:f9:ef:8e:5d:2f:00:d9:47:97:05:fa:d5:b9:69:d5:
         32:e3:20:d0
-----BEGIN CERTIFICATE-----
MIIEYTCCA0mgAwIBAgIFBDFmk+0wDQYJKoZIhvcNAQELBQAwUjELMAkGA1UEBhMC
VVMxFjAUBgNVBAoTDU1vdGhlciBOYXR1cmUxEzARBgNVBAsTCkV2ZXJ5dGhpbmcx
FjAUBgNVBAMTDU1vdGhlciBOYXR1cmUwHhcNMTYwNjMwMTk1MDA0WhcNMTYwOTEx
MTk1MDA0WjCBmTELMAkGA1UEBhMCVVMxGDAWBgNVBAoTD0V4dHJlbWUgRGlzY29y
ZDEOMAwGA1UECxMFQ2hhb3MxFDASBgNVBAcTC1RhbGxhaGFzc2VlMQswCQYDVQQI
EwJGTDEcMBoGA1UECRMTMzIxMCBIb2xseSBNaWxsIFJ1bjEOMAwGA1UEERMFMzAw
NjIxDzANBgNVBAMTBmdvdi51czCCASIwDQYJKoZIhvcNAQEBBQADggEPADCCAQoC
ggEBALtPq6cyTkwQxvExCWACwpq5QLuO31xSqL4DJj73wthXeGQaFP5/CsS4qP+i
SoT791yYGGZWr4XB89JAfZ++GsjfFKEfBaDXF4vQRh/jfNtZm0cpYA41IAA0VC7D
8Zg+UiYWAcZp2p6SwCh3wA8QxpStN2hpZaxCA1D8JhN+1lOwPlo/5cskPZIE9h8t
6dZ+uXl6kMpxCkDP/ueQWCoge16qlJPxYt9Z1C3x0YNhJKO7zIVr2yp14aa4cjmQ
DWhbCpN/HmFCaqJgPo5nJm8WHmTJHnzJ1SrPdt7qmYzl1zxkq3facM/CPA0kU2hE
Z+I0FfLVfc0Mz5yL+cxBXxRdegkCAwEAAaOB9TCB8jAOBgNVHQ8BAf8EBAMCBaAw
HQYDVR0lBBYwFAYIKwYBBQUHAwIGCCsGAQUFBwMBMAwGA1UdEwEB/wQCMAAwDgYD
VR0jBAcwBYADAQIDMGIGCCsGAQUFBwEBBFYwVDAhBggrBgEFBQcwAYYVaHR0cDov
L3RoZWNhLm5ldC9vY3NwMC8GCCsGAQUFBzAChiNodHRwOi8vdGhlY2EubmV0L3Rv
dGFsbHl0aGVjZXJ0LmNydDATBgNVHSAEDDAKMAgGBmeBDAECAjANBgNVHQ4EBgQE
BAMCATAbBgNVHREEFDASgggqLmdvdi51c4IGZ292LnVzMA0GCSqGSIb3DQEBCwUA
A4IBAQDLCw2sxHzizvJ1ZueQ/KS1cIEmMgWYBRHYctNqUOkyM8YW5GWgb41oz+sW
et9z1I3nG8+3uflZXdSi9YfaxtpWsQVeFZ3aO3fkvPGtJAGUObubXfGAWl8OkG3T
Vc2Dpu37YYmfx0QdZHrdydwEXN2uKfHVsMS6oh5sNedS7lKmRhb4K2o0i1x6cvE7
h8qJ0B8Oej8fKcDg8Jjj6LIf74l/Bi4ccIRnBewxooJOZ5GpiFbmONq19UZtnxxD
NpEqqy/fe9fVQ45VKaZ2oaO1G8Gzl8JfiQ0YqcN8vEz6S3gH8i6aBo4+RAIv2u6U
Nif5745dLwDZR5cF+tW5adUy4yDQ
-----END CERTIFICATE-----
