Certificate:
    Data:
        Version: 3 (0x2)
        Serial Number: 18008675309 (0x4316693ed)
    Signature Algorithm: sha256WithRSAEncryption
        Issuer: C = US, O = Mother Nature, OU = Everything, CN = Mother Nature
        Validity
            Not Before: Jun 30 19:49:53 2016 GMT
            Not After : Sep 11 19:49:53 2016 GMT
        Subject: C = US, OU = Chaos, L = Tallahassee, ST = FL, street = 3210 Holly Mill Run, postalCode = 30062, CN = gov.us
        Subject Public Key Info:
            Public Key Algorithm: rsaEncryption
                Public-Key: (2048 bit)
                Modulus:
                    00:be:a0:a8:be:54:c7:78:88:d4:98:4a:e3:cc:8a:
                    7d:b5:50:15:cb:f9:4c:2a:6f:e1:79:fc:b0:41:5f:
                    4b:9a:3b:1a:cc:a7:84:1e:24:db:41:af:94:25:8e:
                    e2:cd:5a:ed:27:21:52:16:24:0a:2c:f4:4c:3a:44:
                    88:57:4f:c8:d2:47:d9:10:46:4f:d9:ba:d8:6b:4e:
                    31:f1:af:13:e0:2c:05:22:72:c4:9d:8b:c5:49:f3:
                    64:3f:b2:c5:94:d8:c2:46:8c:bb:e9:26:e3:cd:69:
                    95:cf:58:20:e7:a4:22:44:89:0a:9b:7b:0a:8e:b0:
                    a9:6c:15:85:3d:2c:12:42:5d:b6:a5:e1:8f:0b:c2:
                    4a:96:7b:b5:18:25:c0:62:bc:f6:78:05:97:69:b8:
                    91:fe:92:2e:fd:18:46:c3:cb:b6:ac:a6:a9:87:bd:
                    c1:a5:59:fa:aa:12:1a:95:d5:3e:e4:1d:23:ec:07:
                    c1:01:84:22:d6:02:d5:5a:1a:8e:cd:ba:b9:d9:5e:
                    89:9b:b8:33:b2:1a:68:de:68:ad:0f:00:95:30:38:
                    b0:a4:53:00:e0:20:de:82:16:51:06:af:7a:37:0d:
                    1a:ff:fe:9e:80:3f:2e:0c:fc:23:82:59:22:a9:a1:
                    b9:d1:8e:8c:b5:21:cf:a9:9f:2f:c1:96:b7:93:3f:
                    05:ff
                Exponent: 65537 (0x10001)
        X509v3 extensions:
            X509v3 Key Usage: critical
                Digital Signature, Key Encipherment
            X509v3 Extended Key Usage: 
                TLS Web Client Authentication, TLS Web Server Authentication
            X509v3 Basic Constraints: critical
                CA:FALSE
            X509v3 Authority Key Identifier: 
                keyid:01:02:03

            Authority Information Access: 
                OCSP - URI:http://theca.net/ocsp
                CA Issuers - URI:http://theca.net/totallythecert.crt

            X509v3 Certificate Policies: 
                Policy: 2.23.140.1.2.2

            X509v3 Subject Key Identifier: 
                04:03:02:01
            X509v3 Subject Alternative Name: 
                DNS:*.gov.us, DNS:gov.us
    Signature Algorithm: sha256WithRSAEncryption
         e3:e0:c0:42:4a:b1:91:2b:17:1f:fb:c1:72:2d:17:9c:97:e1:
         be:99:4e:86:12:7d:34:fe:36:f2:a2:e7:b2:3a:96:5b:14:da:
         d0:e4:49:57:c3:4f:39:ca:98:46:dc:4d:fa:60:f6:6c:bb:60:
         14:96:f6:1a:fd:7d:67:c7:24:a3:e7:7e:c5:36:d6:13:9e:a5:
         52:c0:c3:35:9a:9a:82:7c:c1:e0:36:78:f4:53:d7:f4:d4:ee:
         8a:d6:4a:f6:c1:d8:d2:c3:73:f3:f3:60:e2:5d:0f:2a:a1:a7:
         29:3d:38:f1:97:13:d6:00:a4:23:8e:14:88:bd:d0:11:8f:2f:
         2d:f7:f3:72:87:57:5a:3d:5f:fd:a1:e7:6c:8a:78:d9:e6:74:
         dc:c2:9d:47:9b:50:9c:4f:fe:71:4d:3c:13:6c:a7:56:40:d4:
         41:4b:a5:ef:cb:43:ac:61:0e:0d:0b:51:3a:f2:c1:d8:88:15:
         0f:16:c1:4a:df:7a:0d:41:89:fb:c4:dd:5f:a7:3e:8b:31:da:
         98:ff:95:c9:64:df:b7:7f:ab:e0:e0:7e:5a:ce:a3:a7:b9:cc:
         c9:29:78:83:95:6a:ae:2b:bd:44:f9:9f:9a:7e:f1:7d:ca:50:
         42:c6:56:3a:96:d1:3a:34:1e:2e:b1:a7:ff:69:86:ac:45:68:
         3c:b2:fe:ac
-----BEGIN CERTIFICATE-----
MIIERjCCAy6gAwIBAgIFBDFmk+0wDQYJKoZIhvcNAQELBQAwUjELMAkGA1UEBhMC
VVMxFjAUBgNVBAoTDU1vdGhlciBOYXR1cmUxEzARBgNVBAsTCkV2ZXJ5dGhpbmcx
FjAUBgNVBAMTDU1vdGhlciBOYXR1cmUwHhcNMTYwNjMwMTk0OTUzWhcNMTYwOTEx
MTk0OTUzWjB/MQswCQYDVQQGEwJVUzEOMAwGA1UECxMFQ2hhb3MxFDASBgNVBAcT
C1RhbGxhaGFzc2VlMQswCQYDVQQIEwJGTDEcMBoGA1UECRMTMzIxMCBIb2xseSBN
aWxsIFJ1bjEOMAwGA1UEERMFMzAwNjIxDzANBgNVBAMTBmdvdi51czCCASIwDQYJ
KoZIhvcNAQEBBQADggEPADCCAQoCggEBAL6gqL5Ux3iI1JhK48yKfbVQFcv5TCpv
4Xn8sEFfS5o7GsynhB4k20GvlCWO4s1a7SchUhYkCiz0TDpEiFdPyNJH2RBGT9m6
2GtOMfGvE+AsBSJyxJ2LxUnzZD+yxZTYwkaMu+km481plc9YIOekIkSJCpt7Co6w
qWwVhT0sEkJdtqXhjwvCSpZ7tRglwGK89ngFl2m4kf6SLv0YRsPLtqymqYe9waVZ
+qoSGpXVPuQdI+wHwQGEItYC1Voajs26udleiZu4M7IaaN5orQ8AlTA4sKRTAOAg
3oIWUQavejcNGv/+noA/Lgz8I4JZIqmhudGOjLUhz6mfL8GWt5M/Bf8CAwEAAaOB
9TCB8jAOBgNVHQ8BAf8EBAMCBaAwHQYDVR0lBBYwFAYIKwYBBQUHAwIGCCsGAQUF
BwMBMAwGA1UdEwEB/wQCMAAwDgYDVR0jBAcwBYADAQIDMGIGCCsGAQUFBwEBBFYw
VDAhBggrBgEFBQcwAYYVaHR0cDovL3RoZWNhLm5ldC9vY3NwMC8GCCsGAQUFBzAC
hiNodHRwOi8vdGhlY2EubmV0L3RvdGFsbHl0aGVjZXJ0LmNydDATBgNVHSAEDDAK
MAgGBmeBDAECAjANBgNVHQ4EBgQEBAMCATAbBgNVHREEFDASgggqLmdvdi51c4IG
Z292LnVzMA0GCSqGSIb3DQEBCwUAA4IBAQDj4MBCSrGRKxcf+8FyLRecl+G+mU6G
En00/jbyoueyOpZbFNrQ5ElXw085yphG3E36YPZsu2AUlvYa/X1nxySj537FNtYT
nqVSwMM1mpqCfMHgNnj0U9f01O6K1kr2wdjSw3Pz82DiXQ8qoacpPTjxlxPWAKQj
jhSIvdARjy8t9/Nyh1daPV/9oedsinjZ5nTcwp1Hm1CcT/5xTTwTbKdWQNRBS6Xv
y0OsYQ4NC1E68sHYiBUPFsFK33oNQYn7xN1fpz6LMdqY/5XJZN+3f6vg4H5azqOn
uczJKXiDlWquK71E+Z+afvF9ylBCxlY6ltE6NB4usaf/aYasRWg8sv6s
-----END CERTIFICATE-----
