Certificate:
    Data:
        Version: 3 (0x2)
        Serial Number: 18008675309 (0x4316693ed)
    Signature Algorithm: sha256WithRSAEncryption
        Issuer: C = US, O = Mother Nature, OU = Everything, CN = Mother Nature
        Validity
            Not Before: Jul  8 04:40:53 2016 GMT
            Not After : Sep 20 04:40:53 2016 GMT
        Subject: C = US, ST = FL, L = Tallahassee, street = 3210 Holly Mill Run, postalCode = 30062, O = Extreme Discord, OU = Chaos, CN = gov.us
        Subject Public Key Info:
            Public Key Algorithm: rsaEncryption
                Public-Key: (2048 bit)
                Modulus:
                    00:bc:a0:32:81:c0:0d:36:56:ca:e4:f5:73:2b:5d:
                    fe:9d:48:7b:28:46:89:fd:cd:aa:09:12:2a:0b:13:
                    28:6c:8b:23:28:3b:6c:5c:3e:10:62:21:21:c9:8e:
                    56:59:88:8b:a7:49:a2:92:be:bf:db:a5:9d:48:4c:
                    5f:cd:99:29:b7:9b:29:35:89:c5:72:eb:77:0a:60:
                    12:00:20:9b:71:26:5d:5b:57:fd:8f:4b:ba:a7:14:
                    60:d7:23:cf:a1:01:cb:0b:8a:73:09:52:4b:4a:08:
                    b9:40:bb:b4:b8:32:9f:6e:3b:6c:5c:74:73:12:a0:
                    6c:a2:a4:9e:48:95:39:ae:4f:b7:3f:bc:18:3d:97:
                    dc:e5:04:2f:00:69:78:b0:1b:ae:53:6e:fe:50:26:
                    d0:12:f2:5d:51:35:d5:cd:70:32:0b:6e:07:a8:ba:
                    51:72:9a:ff:33:c7:0e:b5:d6:1b:f2:9f:14:1f:21:
                    c7:12:35:35:2a:8d:33:d7:e5:b1:6a:1e:5b:7f:a8:
                    cd:b6:ab:ee:42:12:74:f8:a2:3f:be:91:ae:fc:0f:
                    b5:f7:60:b5:3e:d1:44:fb:18:07:7c:68:08:cf:d7:
                    8a:12:49:42:b7:70:cb:57:e9:30:54:9e:d6:fa:5d:
                    1f:f7:c6:3e:a6:9b:b2:a5:cc:fe:8d:72:3a:e9:c1:
                    41:c1
                Exponent: 65537 (0x10001)
        X509v3 extensions:
            X509v3 Key Usage: critical
                Digital Signature, Key Encipherment
            X509v3 Extended Key Usage: 
                TLS Web Client Authentication, TLS Web Server Authentication
            X509v3 Basic Constraints: critical
                CA:TRUE
            X509v3 Authority Key Identifier: 
                keyid:01:02:03

            Authority Information Access: 
                OCSP - URI:http://theca.net/ocsp
                CA Issuers - URI:http://theca.net/totallythecert.crt

            X509v3 Certificate Policies: 
                Policy: 2.23.140.1.2.2

            X509v3 Subject Alternative Name: 
                DNS:*.gov.us, DNS:gov.us
    Signature Algorithm: sha256WithRSAEncryption
         83:41:17:08:6d:25:fc:2d:d7:14:8d:ec:fe:4e:7a:14:c4:1e:
         26:e0:2b:13:32:4d:0c:c4:2a:66:2b:da:94:f4:46:26:f6:0c:
         43:ca:de:8e:b0:2a:76:66:37:0a:de:2b:44:d2:48:84:df:2c:
         58:44:36:92:04:1c:30:83:ea:cf:30:0d:0b:23:f3:8e:f3:c0:
         79:19:43:5a:f3:3b:3a:86:ed:15:c8:ad:62:ab:4c:d5:ad:76:
         ae:69:0d:85:eb:10:26:7d:e1:b8:b3:c9:cc:ad:76:55:75:85:
         6f:42:a2:f6:b0:0b:56:5b:a9:77:95:2e:b1:5f:fb:d6:69:ec:
         db:c4:dd:64:94:2c:be:9f:78:47:ec:18:bb:aa:36:ac:87:9d:
         a2:f6:13:b7:ba:f8:40:b9:89:a7:4f:96:7c:84:05:86:7e:85:
         89:ab:be:69:de:45:9c:8b:62:a6:66:38:c0:16:a0:09:21:86:
         5c:6b:5b:53:63:d7:7c:e9:29:71:57:ec:1b:c5:ef:3d:b9:a6:
         9e:c5:b6:db:b4:c6:5a:ad:34:b0:72:a3:e4:a6:66:7e:ab:de:
         8b:3b:16:01:7d:10:e0:c7:89:6f:0e:07:82:40:f9:4b:3e:68:
         5e:99:54:d5:5c:7b:9d:ed:f5:a2:dc:12:aa:05:d5:aa:bb:09:
         d9:a9:4b:99
-----BEGIN CERTIFICATE-----
MIIEVTCCAz2gAwIBAgIFBDFmk+0wDQYJKoZIhvcNAQELBQAwUjELMAkGA1UEBhMC
VVMxFjAUBgNVBAoTDU1vdGhlciBOYXR1cmUxEzARBgNVBAsTCkV2ZXJ5dGhpbmcx
FjAUBgNVBAMTDU1vdGhlciBOYXR1cmUwHhcNMTYwNzA4MDQ0MDUzWhcNMTYwOTIw
MDQ0MDUzWjCBmTELMAkGA1UEBhMCVVMxCzAJBgNVBAgTAkZMMRQwEgYDVQQHEwtU
YWxsYWhhc3NlZTEcMBoGA1UECRMTMzIxMCBIb2xseSBNaWxsIFJ1bjEOMAwGA1UE
ERMFMzAwNjIxGDAWBgNVBAoTD0V4dHJlbWUgRGlzY29yZDEOMAwGA1UECxMFQ2hh
b3MxDzANBgNVBAMTBmdvdi51czCCASIwDQYJKoZIhvcNAQEBBQADggEPADCCAQoC
ggEBALygMoHADTZWyuT1cytd/p1IeyhGif3NqgkSKgsTKGyLIyg7bFw+EGIhIcmO
VlmIi6dJopK+v9ulnUhMX82ZKbebKTWJxXLrdwpgEgAgm3EmXVtX/Y9LuqcUYNcj
z6EBywuKcwlSS0oIuUC7tLgyn247bFx0cxKgbKKknkiVOa5Ptz+8GD2X3OUELwBp
eLAbrlNu/lAm0BLyXVE11c1wMgtuB6i6UXKa/zPHDrXWG/KfFB8hxxI1NSqNM9fl
sWoeW3+ozbar7kISdPiiP76RrvwPtfdgtT7RRPsYB3xoCM/XihJJQrdwy1fpMFSe
1vpdH/fGPqabsqXM/o1yOunBQcECAwEAAaOB6TCB5jAOBgNVHQ8BAf8EBAMCBaAw
HQYDVR0lBBYwFAYIKwYBBQUHAwIGCCsGAQUFBwMBMA8GA1UdEwEB/wQFMAMBAf8w
DgYDVR0jBAcwBYADAQIDMGIGCCsGAQUFBwEBBFYwVDAhBggrBgEFBQcwAYYVaHR0
cDovL3RoZWNhLm5ldC9vY3NwMC8GCCsGAQUFBzAChiNodHRwOi8vdGhlY2EubmV0
L3RvdGFsbHl0aGVjZXJ0LmNydDATBgNVHSAEDDAKMAgGBmeBDAECAjAbBgNVHREE
FDASgggqLmdvdi51c4IGZ292LnVzMA0GCSqGSIb3DQEBCwUAA4IBAQCDQRcIbSX8
LdcUjez+TnoUxB4m4CsTMk0MxCpmK9qU9EYm9gxDyt6OsCp2ZjcK3itE0kiE3yxY
RDaSBBwwg+rPMA0LI/OO88B5GUNa8zs6hu0VyK1iq0zVrXauaQ2F6xAmfeG4s8nM
rXZVdYVvQqL2sAtWW6l3lS6xX/vWaezbxN1klCy+n3hH7Bi7qjash52i9hO3uvhA
uYmnT5Z8hAWGfoWJq75p3kWci2KmZjjAFqAJIYZca1tTY9d86SlxV+wbxe89uaae
xbbbtMZarTSwcqPkpmZ+q96LOxYBfRDgx4lvDgeCQPlLPmhemVTVXHud7fWi3BKq
BdWquwnZqUuZ
-----END CERTIFICATE-----
