Certificate:
    Data:
        Version: 1 (0x0)
        Serial Number:
            e8:f8:ad:9e:a1:86:8b:d3
        Signature Algorithm: sha1WithRSAEncryption
        Issuer: CN=Testroot
        Validity
            Not Before: Mar  2 15:49:33 2018 GMT
            Not After : Jun  6 15:49:33 2020 GMT
        Subject: CN=827Bad
        Subject Public Key Info:
            Public Key Algorithm: rsaEncryption
                Public-Key: (2048 bit)
                Modulus:
                    00:a7:df:9b:d3:5d:de:ba:f2:8b:01:b9:e0:48:69:
                    f7:26:71:49:92:1a:be:9e:ba:c9:f6:d9:89:74:42:
                    49:95:32:10:62:fc:b9:19:ea:7a:ea:8b:ef:3d:dc:
                    cc:19:f7:d9:69:0a:7d:6f:6b:39:19:d0:c7:14:f0:
                    56:d0:3a:c7:36:5a:2d:00:e0:23:8c:e8:fb:37:4d:
                    5d:0c:16:e3:2c:1a:df:5a:cf:da:f5:06:55:ee:17:
                    90:23:b3:66:c6:2d:6b:14:af:0f:f5:27:9b:f9:3e:
                    09:18:3e:e1:34:97:db:ef:fc:43:a2:9e:48:5b:c7:
                    7f:9e:67:bc:98:c4:e7:8b:f7:8a:7c:2f:3c:7c:ad:
                    52:f5:37:e8:24:c9:5c:93:cc:ed:94:05:f8:c9:8f:
                    f4:b8:9f:11:77:b6:17:21:53:2f:e1:a3:19:ef:36:
                    85:6b:7a:e8:09:b7:57:a9:0c:a3:30:dc:d4:0a:3f:
                    3b:03:96:68:fc:12:f4:5f:07:ff:44:38:5e:3b:c1:
                    53:92:58:e8:d9:f6:be:06:6f:2c:e4:42:2b:ee:ef:
                    e5:d3:83:b2:31:cf:cc:c4:6f:d1:5a:14:5e:30:78:
                    f8:2e:9e:1c:c2:16:0f:c0:f3:d5:b2:ba:19:be:28:
                    3e:f3:7a:c6:95:73:84:36:64:6b:db:50:6d:b9:17:
                    29:e9
                Exponent: 65537 (0x10001)
    Signature Algorithm: sha1WithRSAEncryption
        b6:68:74:30:cf:70:60:5d:86:bc:aa:9a:68:0b:58:48:fb:85:
        d2:c3:ae:01:f0:68:ad:c3:f7:76:b2:76:07:6b:05:7f:e5:12:
        f0:3d:f6:17:d3:54:3b:5c:ec:50:af:bc:81:0a:53:44:46:9c:
        2a:ce:8a:38:94:c7:07:96:e5:fc:dd:d0:03:ba:d0:08:52:06:
        c9:2e:b1:e4:a4:0a:c7:fe:f1:b9:72:be:bd:9e:60:87:95:cb:
        88:0c:56:eb:8a:42:65:56:18:ac:30:66:ca:85:27:a0:90:a1:
        a2:16:10:b8:7e:4a:a9:11:33:74:49:b7:bd:0c:af:2e:1d:7c:
        d4:18:2a:15:f1:2d:47:7c:46:79:6e:98:20:5a:50:e0:83:6b:
        70:14:d8:bc:9a:1e:44:b7:63:1d:c2:19:02:a7:3b:9e:44:05:
        32:8b:8f:12:61:08:e3:87:d0:81:60:a2:82:6c:f9:03:cf:5a:
        c4:8a:65:50:eb:72:e3:61:55:55:7a:54:ab:87:c2:a2:43:28:
        b0:80:d3:6a:c7:e6:76:0b:bb:97:00:ed:97:e5:9c:8d:fe:92:
        d3:d9:21:9a:47:38:9b:41:7c:c7:68:9c:78:45:b9:30:e2:1b:
        62:9a:14:d0:b2:8b:ca:8f:c2:07:94:07:96:e7:14:21:5d:8a:
        51:24:1a:75
-----BEGIN CERTIFICATE-----
MIICoDCCAYgCCQDo+K2eoYaL0zANBgkqhkiG9w0BAQUFADATMREwDwYDVQQDEwhU
ZXN0cm9vdDAeFw0xODAzMDIxNTQ5MzNaFw0yMDA2MDYxNTQ5MzNaMBExDzANBgNV
BAMTBjgyN0JhZDCCASIwDQYJKoZIhvcNAQEBBQADggEPADCCAQoCggEBAKffm9Nd
3rryiwG54Ehp9yZxSZIavp66yfbZiXRCSZUyEGL8uRnqeuqL7z3czBn32WkKfW9r
ORnQxxTwVtA6xzZaLQDgI4zo+zdNXQwW4ywa31rP2vUGVe4XkCOzZsYtaxSvD/Un
m/k+CRg+4TSX2+/8Q6KeSFvHf55nvJjE54v3inwvPHytUvU36CTJXJPM7ZQF+MmP
9LifEXe2FyFTL+GjGe82hWt66Am3V6kMozDc1Ao/OwOWaPwS9F8H/0Q4XjvBU5JY
6Nn2vgZvLORCK+7v5dODsjHPzMRv0VoUXjB4+C6eHMIWD8Dz1bK6Gb4oPvN6xpVz
hDZka9tQbbkXKekCAwEAATANBgkqhkiG9w0BAQUFAAOCAQEAtmh0MM9wYF2GvKqa
aAtYSPuF0sOuAfBorcP3drJ2B2sFf+US8D32F9NUO1zsUK+8gQpTREacKs6KOJTH
B5bl/N3QA7rQCFIGyS6x5KQKx/7xuXK+vZ5gh5XLiAxW64pCZVYYrDBmyoUnoJCh
ohYQuH5KqREzdEm3vQyvLh181BgqFfEtR3xGeW6YIFpQ4INrcBTYvJoeRLdjHcIZ
Aqc7nkQFMouPEmEI44fQgWCigmz5A89axIplUOty42FVVXpUq4fCokMosIDTasfm
dgu7lwDtl+Wcjf6S09khmkc4m0F8x2iceEW5MOIbYpoU0LKLyo/CB5QHlucUIV2K
USQadQ==
-----END CERTIFICATE-----
