Certificate:
    Data:
        Version: 3 (0x2)
        Serial Number: 18008675309 (0x4316693ed)
        Signature Algorithm: sha256WithRSAEncryption
        Issuer: CN = Mother Nature, OU = Everything, O = Mother Nature, C = US
        Validity
            Not Before: Aug 24 03:45:36 2017 GMT
            Not After : Nov  5 03:45:36 2017 GMT
        Subject: CN = gov.us, OU = Chaos, street = 3210 Holly Mill Run, ST = province, postalCode = 30062, C = US
        Subject Public Key Info:
            Public Key Algorithm: rsaEncryption
                RSA Public-Key: (2048 bit)
                Modulus:
                    00:d3:94:ac:e4:53:92:3d:21:0a:8e:73:ff:9c:2d:
                    3c:e5:d5:30:7f:2f:73:d6:57:7a:0d:02:18:87:f6:
                    d5:71:a0:0b:66:21:03:38:f7:7f:8b:22:7b:41:12:
                    12:e0:82:78:10:b0:99:d2:f1:2c:8f:e5:00:91:ba:
                    c1:2c:63:9e:dd:8c:f3:ac:59:7a:b1:b5:14:23:4e:
                    4a:74:4f:16:89:d6:ce:ec:13:45:a4:14:00:00:74:
                    82:be:91:a7:e2:de:da:80:bb:f6:c0:34:23:dc:f8:
                    81:f7:75:df:ff:f0:fb:b3:5b:81:6f:a4:b6:41:2d:
                    4d:b3:74:61:52:13:a7:f3:98:b4:81:b9:55:6d:25:
                    c4:8c:f2:eb:c9:bb:0b:3b:42:69:79:a9:ea:29:c9:
                    db:3f:bb:8a:69:83:cf:16:f9:c9:d8:57:5b:e1:2a:
                    45:05:46:b2:36:d4:06:70:29:29:49:ee:31:33:59:
                    46:20:63:2e:fd:12:eb:38:73:93:6a:d4:6d:9f:a4:
                    fe:6e:ea:3b:0c:eb:9b:fe:75:09:9e:21:8d:fe:32:
                    fc:eb:02:d1:7f:e6:98:cf:dc:4a:e5:4a:ec:b6:06:
                    d6:29:8b:bb:ce:7d:36:fe:a4:5e:3f:30:b5:c9:1c:
                    7f:49:27:fa:96:67:94:92:fa:f0:46:54:36:5f:6a:
                    cd:3d
                Exponent: 65537 (0x10001)
        X509v3 extensions:
            X509v3 Key Usage: critical
                Digital Signature, Key Encipherment
            X509v3 Extended Key Usage: 
                TLS Web Client Authentication, TLS Web Server Authentication
            X509v3 Basic Constraints: critical
                CA:FALSE
            X509v3 Authority Key Identifier: 
                keyid:01:02:03

            X509v3 Certificate Policies: 
                Policy: 2.23.140.1.2.3

            Authority Information Access: critical
                OCSP - URI:http://ss.symcd.com
                CA Issuers - URI:http://ss.symcb.com/ss.crt

    Signature Algorithm: sha256WithRSAEncryption
         09:f1:0c:3b:f9:6d:29:66:8b:35:79:6b:92:15:54:75:0a:10:
         ac:d0:1c:08:05:45:bc:9d:d9:09:da:bc:91:85:4d:45:d7:c5:
         0d:ee:d2:28:68:59:93:3e:5c:90:e9:25:64:4b:15:85:97:39:
         d3:34:25:c0:bb:d0:38:cb:cf:6c:c4:7c:79:82:fc:cb:39:cf:
         22:82:a2:8e:4a:c2:a2:46:4e:31:0d:05:0c:7d:cd:c0:83:78:
         58:d0:ef:d6:6e:a6:ce:b5:4e:3f:55:c4:d5:a0:a9:d0:5d:0b:
         ae:86:f7:59:11:f8:d1:23:fe:3e:fa:ac:ce:a3:a1:f9:8d:de:
         59:2f:18:a1:0a:c8:69:2b:dc:31:0d:f4:d3:db:b8:19:8c:21:
         7e:c6:b4:f9:ab:a6:e8:82:4c:99:c1:5c:4f:41:ba:51:e4:ef:
         2b:2d:e0:11:41:9e:3f:72:1c:17:a8:ab:ef:80:70:c0:1c:69:
         69:b8:47:17:b2:63:7a:75:26:e9:8c:c9:60:f8:1d:05:c6:8d:
         84:fb:ca:3b:8e:2a:50:c1:73:87:66:12:0a:fd:9a:73:36:0a:
         44:c0:de:4c:3b:72:40:28:5a:73:28:63:57:6b:2e:c9:06:b9:
         5d:9b:86:e8:96:8d:ce:8e:1c:b4:35:9b:84:c6:ef:e8:b4:3a:
         20:73:24:ae
-----BEGIN CERTIFICATE-----
MIIEAjCCAuygAwIBAgIFBDFmk+0wCwYJKoZIhvcNAQELMFQxFjAUBgNVBAMTDU1v
dGhlciBOYXR1cmUxEzARBgNVBAsTCkV2ZXJ5dGhpbmcxFjAUBgNVBAoTDU1vdGhl
ciBOYXR1cmUxCzAJBgNVBAYTAlVTMQAwHhcNMTcwODI0MDM0NTM2WhcNMTcxMTA1
MDM0NTM2WjBxMQ8wDQYDVQQDEwZnb3YudXMxDjAMBgNVBAsTBUNoYW9zMRwwGgYD
VQQJExMzMjEwIEhvbGx5IE1pbGwgUnVuMREwDwYDVQQIEwhwcm92aW5jZTEOMAwG
A1UEERMFMzAwNjIxCzAJBgNVBAYTAlVTMQAwggEiMA0GCSqGSIb3DQEBAQUAA4IB
DwAwggEKAoIBAQDTlKzkU5I9IQqOc/+cLTzl1TB/L3PWV3oNAhiH9tVxoAtmIQM4
93+LIntBEhLggngQsJnS8SyP5QCRusEsY57djPOsWXqxtRQjTkp0TxaJ1s7sE0Wk
FAAAdIK+kafi3tqAu/bANCPc+IH3dd//8PuzW4FvpLZBLU2zdGFSE6fzmLSBuVVt
JcSM8uvJuws7Qml5qeopyds/u4ppg88W+cnYV1vhKkUFRrI21AZwKSlJ7jEzWUYg
Yy79Eus4c5Nq1G2fpP5u6jsM65v+dQmeIY3+MvzrAtF/5pjP3ErlSuy2BtYpi7vO
fTb+pF4/MLXJHH9JJ/qWZ5SS+vBGVDZfas09AgMBAAGjgcEwgb4wDgYDVR0PAQH/
BAQDAgCgMB0GA1UdJQQWMBQGCCsGAQUFBwMCBggrBgEFBQcDATAMBgNVHRMBAf8E
AjAAMA4GA1UdIwQHMAWAAwECAzATBgNVHSAEDDAKMAgGBmeBDAECAzBaBggrBgEF
BQcBAQEB/wRLMEkwHwYIKwYBBQUHMAGGE2h0dHA6Ly9zcy5zeW1jZC5jb20wJgYI
KwYBBQUHMAKGGmh0dHA6Ly9zcy5zeW1jYi5jb20vc3MuY3J0MAsGCSqGSIb3DQEB
CwOCAQEACfEMO/ltKWaLNXlrkhVUdQoQrNAcCAVFvJ3ZCdq8kYVNRdfFDe7SKGhZ
kz5ckOklZEsVhZc50zQlwLvQOMvPbMR8eYL8yznPIoKijkrCokZOMQ0FDH3NwIN4
WNDv1m6mzrVOP1XE1aCp0F0Lrob3WRH40SP+PvqszqOh+Y3eWS8YoQrIaSvcMQ30
09u4GYwhfsa0+aum6IJMmcFcT0G6UeTvKy3gEUGeP3IcF6ir74BwwBxpabhHF7Jj
enUm6YzJYPgdBcaNhPvKO44qUMFzh2YSCv2aczYKRMDeTDtyQChacyhjV2suyQa5
XZuG6JaNzo4ctDWbhMbv6LQ6IHMkrg==
-----END CERTIFICATE-----
-----BEGIN CERTIFICATE-----
MIIEAjCCAuygAwIBAgIFBDFmk+0wCwYJKoZIhvcNAQELMFQxFjAUBgNVBAMTDU1v
dGhlciBOYXR1cmUxEzARBgNVBAsTCkV2ZXJ5dGhpbmcxFjAUBgNVBAoTDU1vdGhl
ciBOYXR1cmUxCzAJBgNVBAYTAlVTMQAwHhcNMTcwODI0MDM0NTM2WhcNMTcxMTA1
MDM0NTM2WjBxMQ8wDQYDVQQDEwZnb3YudXMxDjAMBgNVBAsTBUNoYW9zMRwwGgYD
VQQJExMzMjEwIEhvbGx5IE1pbGwgUnVuMREwDwYDVQQIEwhwcm92aW5jZTEOMAwG
A1UEERMFMzAwNjIxCzAJBgNVBAYTAlVTMQAwggEiMA0GCSqGSIb3DQEBAQUAA4IB
DwAwggEKAoIBAQDTlKzkU5I9IQqOc/+cLTzl1TB/L3PWV3oNAhiH9tVxoAtmIQM4
93+LIntBEhLggngQsJnS8SyP5QCRusEsY57djPOsWXqxtRQjTkp0TxaJ1s7sE0Wk
FAAAdIK+kafi3tqAu/bANCPc+IH3dd//8PuzW4FvpLZBLU2zdGFSE6fzmLSBuVVt
JcSM8uvJuws7Qml5qeopyds/u4ppg88W+cnYV1vhKkUFRrI21AZwKSlJ7jEzWUYg
Yy79Eus4c5Nq1G2fpP5u6jsM65v+dQmeIY3+MvzrAtF/5pjP3ErlSuy2BtYpi7vO
fTb+pF4/MLXJHH9JJ/qWZ5SS+vBGVDZfas09AgMBAAGjgcEwgb4wDgYDVR0PAQH/
BAQDAgCgMB0GA1UdJQQWMBQGCCsGAQUFBwMCBggrBgEFBQcDATAMBgNVHRMBAf8E
AjAAMA4GA1UdIwQHMAWAAwECAzATBgNVHSAEDDAKMAgGBmeBDAECAzBaBggrBgEF
BQcBAQEB/wRLMEkwHwYIKwYBBQUHMAGGE2h0dHA6Ly9zcy5zeW1jZC5jb20wJgYI
KwYBBQUHMAKGGmh0dHA6Ly9zcy5zeW1jYi5jb20vc3MuY3J0MAsGCSqGSIb3DQEB
CwOCAQEACfEMO/ltKWaLNXlrkhVUdQoQrNAcCAVFvJ3ZCdq8kYVNRdfFDe7SKGhZ
kz5ckOklZEsVhZc50zQlwLvQOMvPbMR8eYL8yznPIoKijkrCokZOMQ0FDH3NwIN4
WNDv1m6mzrVOP1XE1aCp0F0Lrob3WRH40SP+PvqszqOh+Y3eWS8YoQrIaSvcMQ30
09u4GYwhfsa0+aum6IJMmcFcT0G6UeTvKy3gEUGeP3IcF6ir74BwwBxpabhHF7Jj
enUm6YzJYPgdBcaNhPvKO44qUMFzh2YSCv2aczYKRMDeTDtyQChacyhjV2suyQa5
XZuG6JaNzo4ctDWbhMbv6LQ6IHMkrg==
-----END CERTIFICATE-----
