Certificate:
    Data:
        Version: 3 (0x2)
        Serial Number: 18008675309 (0x4316693ed)
    Signature Algorithm: sha256WithRSAEncryption
        Issuer: C = US, O = Mother Nature, OU = Everything, CN = Mother Nature
        Validity
            Not Before: Jul  6 14:40:16 2016 GMT
            Not After : Sep 18 14:40:16 2016 GMT
        Subject: C = US, ST = FL, L = Tallahassee, street = 3210 Holly Mill Run, postalCode = 30062, O = Extreme Discord, OU = Chaos, CN = gov.us
        Subject Public Key Info:
            Public Key Algorithm: rsaEncryption
                Public-Key: (2048 bit)
                Modulus:
                    00:b8:bc:81:2e:25:31:21:bf:6f:98:c8:1b:e9:c9:
                    d5:15:45:14:31:d8:ef:be:45:81:f6:35:f4:57:6a:
                    ab:07:2b:05:1b:9c:28:1f:34:1e:5f:15:94:e6:95:
                    ff:c9:6a:24:50:f2:e8:96:54:07:5d:f8:6b:20:fc:
                    0b:07:76:ce:67:d5:c5:d2:a2:d2:23:fc:09:f6:a6:
                    cf:b9:ee:f2:3d:20:f2:23:5b:5c:1f:20:d9:a4:94:
                    0f:78:aa:7b:52:d7:c2:74:09:de:e0:0d:ae:87:34:
                    52:3c:74:3b:54:46:da:fd:c4:34:f0:88:8f:e7:4b:
                    4b:95:c4:9b:06:33:95:f5:5c:b6:86:0b:39:9c:b1:
                    a9:2d:7b:10:b1:18:82:d4:48:62:9e:42:29:49:88:
                    25:15:ae:8e:13:a1:00:02:db:41:94:6e:76:cb:ea:
                    05:da:b0:7f:3e:33:31:95:4b:71:eb:04:8c:1d:bf:
                    d7:8b:7a:ae:9d:70:f9:48:6e:52:b8:15:dc:68:9d:
                    9e:41:d1:ff:56:3e:02:f5:62:d8:37:be:a5:16:fd:
                    e1:da:8a:1b:ba:cf:d1:3b:9d:ec:cd:50:0d:de:5c:
                    82:ef:b2:b7:a1:bf:ff:94:45:ea:4c:ad:b0:ff:32:
                    09:94:fc:2a:4c:31:78:8e:4e:74:b2:d5:44:89:0f:
                    7a:2b
                Exponent: 65537 (0x10001)
        X509v3 extensions:
            X509v3 Basic Constraints: critical
                CA:TRUE
            X509v3 Authority Key Identifier: 
                keyid:01:02:03

            X509v3 Subject Key Identifier: 
                04:03:02:01
            X509v3 Subject Alternative Name: 
                DNS:*.gov.us, DNS:gov.us
            X509v3 Key Usage: 
                Digital Signature, Certificate Sign, CRL Sign
            X509v3 Name Constraints: 
                Permitted:
                  DNS:xn--Hkkinen-5wa.fi
                  DNS:iki.fi

    Signature Algorithm: sha256WithRSAEncryption
         3f:4e:bf:84:74:79:68:7e:ac:11:94:05:9f:db:36:ea:e3:4a:
         22:90:90:1c:4d:9c:ff:02:91:d8:c1:c7:d0:ed:87:97:79:4e:
         be:19:77:95:e8:e7:03:76:6b:f5:ca:5e:b4:5c:aa:4d:16:b0:
         43:91:b1:e6:b7:d2:f7:7e:4a:54:d2:82:c2:42:29:89:cb:92:
         dd:6f:dc:8e:45:44:0e:b8:bd:48:b6:78:19:ab:9f:d6:ce:bd:
         b1:f1:3c:72:30:a5:ed:e6:f2:35:01:02:0f:98:84:a1:84:75:
         80:6f:5b:17:b7:e4:27:c8:84:bb:fe:d7:e2:a0:cd:3f:de:c7:
         6b:13:88:34:e3:27:5d:dc:07:56:dd:aa:17:63:58:06:c2:49:
         1b:d0:80:4f:25:d4:f3:c8:59:73:c4:58:63:ac:89:82:2e:89:
         5a:80:ca:61:dd:74:90:27:61:9b:17:39:46:1c:57:be:ff:44:
         6b:4f:55:cb:75:6c:55:1a:b7:7a:82:a4:d5:53:89:fb:8e:f8:
         5e:6c:df:29:5b:da:bd:3f:7f:17:9b:b5:3d:df:ba:07:10:fe:
         ee:14:ec:85:74:9d:55:22:c8:e8:43:d6:66:58:6d:72:30:e2:
         44:c4:31:0e:bf:05:05:79:f6:c1:26:28:13:90:c2:b3:55:b3:
         f3:5a:5c:f6
-----BEGIN CERTIFICATE-----
MIID9jCCAt6gAwIBAgIFBDFmk+0wDQYJKoZIhvcNAQELBQAwUjELMAkGA1UEBhMC
VVMxFjAUBgNVBAoTDU1vdGhlciBOYXR1cmUxEzARBgNVBAsTCkV2ZXJ5dGhpbmcx
FjAUBgNVBAMTDU1vdGhlciBOYXR1cmUwHhcNMTYwNzA2MTQ0MDE2WhcNMTYwOTE4
MTQ0MDE2WjCBmTELMAkGA1UEBhMCVVMxCzAJBgNVBAgTAkZMMRQwEgYDVQQHEwtU
YWxsYWhhc3NlZTEcMBoGA1UECRMTMzIxMCBIb2xseSBNaWxsIFJ1bjEOMAwGA1UE
ERMFMzAwNjIxGDAWBgNVBAoTD0V4dHJlbWUgRGlzY29yZDEOMAwGA1UECxMFQ2hh
b3MxDzANBgNVBAMTBmdvdi51czCCASIwDQYJKoZIhvcNAQEBBQADggEPADCCAQoC
ggEBALi8gS4lMSG/b5jIG+nJ1RVFFDHY775FgfY19FdqqwcrBRucKB80Hl8VlOaV
/8lqJFDy6JZUB134ayD8Cwd2zmfVxdKi0iP8Cfamz7nu8j0g8iNbXB8g2aSUD3iq
e1LXwnQJ3uANroc0Ujx0O1RG2v3ENPCIj+dLS5XEmwYzlfVctoYLOZyxqS17ELEY
gtRIYp5CKUmIJRWujhOhAALbQZRudsvqBdqwfz4zMZVLcesEjB2/14t6rp1w+Uhu
UrgV3GidnkHR/1Y+AvVi2De+pRb94dqKG7rP0Tud7M1QDd5cgu+yt6G//5RF6kyt
sP8yCZT8KkwxeI5OdLLVRIkPeisCAwEAAaOBijCBhzAPBgNVHRMBAf8EBTADAQH/
MA4GA1UdIwQHMAWAAwECAzANBgNVHQ4EBgQEBAMCATAbBgNVHREEFDASgggqLmdv
di51c4IGZ292LnVzMAsGA1UdDwQEAwIBhjArBgNVHR4EJDAioCAwFIISeG4tLUhr
a2luZW4tNXdhLmZpMAiCBmlraS5maTANBgkqhkiG9w0BAQsFAAOCAQEAP06/hHR5
aH6sEZQFn9s26uNKIpCQHE2c/wKR2MHH0O2Hl3lOvhl3lejnA3Zr9cpetFyqTRaw
Q5Gx5rfS935KVNKCwkIpicuS3W/cjkVEDri9SLZ4Gauf1s69sfE8cjCl7ebyNQEC
D5iEoYR1gG9bF7fkJ8iEu/7X4qDNP97HaxOINOMnXdwHVt2qF2NYBsJJG9CATyXU
88hZc8RYY6yJgi6JWoDKYd10kCdhmxc5RhxXvv9Ea09Vy3VsVRq3eoKk1VOJ+474
XmzfKVvavT9/F5u1Pd+6BxD+7hTshXSdVSLI6EPWZlhtcjDiRMQxDr8FBXn2wSYo
E5DCs1Wz81pc9g==
-----END CERTIFICATE-----
