Certificate:
    Data:
        Version: 3 (0x2)
        Serial Number: 14615016 (0xdf01e8)
    Signature Algorithm: sha256WithRSAEncryption
        Issuer: C = US, O = Mother Nature, OU = Everything, CN = Mother Nature
        Validity
            Not Before: Jul 11 19:22:59 2016 GMT
            Not After : Sep 23 19:22:59 2016 GMT
        Subject: C = US, ST = FL, L = Tallahassee, street = 3210 Holly Mill Run, postalCode = 30062, O = Extreme Discord, OU = Chaos, CN = gov.us
        Subject Public Key Info:
            Public Key Algorithm: id-ecPublicKey
                Public-Key: (224 bit)
                pub:
                    04:e4:f4:99:8a:e8:89:6b:65:89:12:66:4e:d8:f2:
                    23:8f:aa:ce:09:98:16:56:40:d3:08:d8:ff:49:f4:
                    8f:7c:77:ed:6e:ad:b2:9e:05:c9:a5:de:6d:b0:5d:
                    bb:e1:6a:18:8a:53:92:36:77:2c:21:1b
                ASN1 OID: secp224r1
                NIST CURVE: P-224
        X509v3 extensions:
            X509v3 Basic Constraints: critical
                CA:FALSE
            X509v3 Authority Key Identifier: 
                keyid:01:02:03

            X509v3 CRL Distribution Points: 

                Full Name:
                  URI:http://theca.net/crlpoint

            X509v3 Subject Key Identifier: 
                04:03:02:01
            X509v3 Subject Alternative Name: 
                DNS:*.gov.us, DNS:gov.us
            X509v3 Key Usage: 
                Data Encipherment, Key Agreement
            X509v3 Extended Key Usage: 
                TLS Web Server Authentication, 1.2.840.113635.100.4.3, Signing KDC Response, Any Extended Key Usage
    Signature Algorithm: sha256WithRSAEncryption
         19:2c:62:f4:56:8e:5b:59:92:3c:a9:fa:61:cf:8d:fe:9f:07:
         fe:b7:78:8a:56:0e:b9:ef:61:1a:e7:73:7b:ad:8c:e7:82:16:
         79:8d:aa:1d:f9:22:6a:af:f3:14:df:77:33:e0:3d:aa:cb:dc:
         00:59:73:09:bb:f6:cc:f9:42:41:8b:7b:77:7b:f0:3d:e2:f7:
         c1:07:5c:7c:ff:79:f7:87:e7:16:7d:a8:97:b2:bf:27:09:22:
         54:01:6d:a7:ca:e3:21:06:0a:ff:df:7f:7a:25:84:6e:c0:a2:
         45:00:e2:2b:02:b0:38:a0:2c:e4:4a:74:c3:44:d7:6a:d4:b7:
         c4:bd:31:32:27:ff:36:25:8a:6d:77:17:03:46:4d:0b:9d:ca:
         aa:4e:ef:a9:82:a3:15:ea:4f:0b:0b:0e:cf:58:ce:2e:7b:f9:
         fd:09:6f:f5:6b:81:6f:c5:f3:16:6c:a9:37:d9:31:9d:8c:2d:
         1a:4d:3e:4f:a4:ad:fc:68:ca:99:ef:62:f0:df:df:e8:eb:91:
         4c:1e:d0:79:d8:e4:a1:c3:c9:41:0c:26:a4:0a:70:3e:2e:8e:
         86:b1:75:ce:64:60:a5:db:ca:ca:d9:56:ed:c9:a2:35:a1:68:
         92:8e:65:9c:09:7a:c1:0e:d3:bf:2b:82:f5:e4:cc:94:c8:2e:
         23:96:79:4c
-----BEGIN CERTIFICATE-----
MIIDSjCCAjKgAwIBAgIEAN8B6DANBgkqhkiG9w0BAQsFADBSMQswCQYDVQQGEwJV
UzEWMBQGA1UEChMNTW90aGVyIE5hdHVyZTETMBEGA1UECxMKRXZlcnl0aGluZzEW
MBQGA1UEAxMNTW90aGVyIE5hdHVyZTAeFw0xNjA3MTExOTIyNTlaFw0xNjA5MjMx
OTIyNTlaMIGZMQswCQYDVQQGEwJVUzELMAkGA1UECBMCRkwxFDASBgNVBAcTC1Rh
bGxhaGFzc2VlMRwwGgYDVQQJExMzMjEwIEhvbGx5IE1pbGwgUnVuMQ4wDAYDVQQR
EwUzMDA2MjEYMBYGA1UEChMPRXh0cmVtZSBEaXNjb3JkMQ4wDAYDVQQLEwVDaGFv
czEPMA0GA1UEAxMGZ292LnVzME4wEAYHKoZIzj0CAQYFK4EEACEDOgAE5PSZiuiJ
a2WJEmZO2PIjj6rOCZgWVkDTCNj/SfSPfHftbq2yngXJpd5tsF274WoYilOSNncs
IRujgbUwgbIwDAYDVR0TAQH/BAIwADAOBgNVHSMEBzAFgAMBAgMwKgYDVR0fBCMw
ITAfoB2gG4YZaHR0cDovL3RoZWNhLm5ldC9jcmxwb2ludDANBgNVHQ4EBgQEBAMC
ATAbBgNVHREEFDASgggqLmdvdi51c4IGZ292LnVzMAsGA1UdDwQEAwIBGDAtBgNV
HSUEJjAkBggrBgEFBQcDAQYJKoZIhvdjZAQDBgcrBgEFAgMFBgRVHSUAMA0GCSqG
SIb3DQEBCwUAA4IBAQAZLGL0Vo5bWZI8qfphz43+nwf+t3iKVg6572Ea53N7rYzn
ghZ5jaod+SJqr/MU33cz4D2qy9wAWXMJu/bM+UJBi3t3e/A94vfBB1x8/3n3h+cW
faiXsr8nCSJUAW2nyuMhBgr/3396JYRuwKJFAOIrArA4oCzkSnTDRNdq1LfEvTEy
J/82JYptdxcDRk0LncqqTu+pgqMV6k8LCw7PWM4ue/n9CW/1a4FvxfMWbKk32TGd
jC0aTT5PpK38aMqZ72Lw39/o65FMHtB52OShw8lBDCakCnA+Lo6GsXXOZGCl28rK
2VbtyaI1oWiSjmWcCXrBDtO/K4L15MyUyC4jlnlM
-----END CERTIFICATE-----
