Certificate:
    Data:
        Version: 3 (0x2)
        Serial Number: 18008675309 (0x4316693ed)
    Signature Algorithm: sha256WithRSAEncryption
        Issuer: C = US, O = Mother Nature, OU = Everything, CN = Mother Nature
        Validity
            Not Before: Jul  8 04:40:35 2016 GMT
            Not After : Sep 20 04:40:35 2016 GMT
        Subject: C = US, ST = FL, L = Tallahassee, street = 3210 Holly Mill Run, postalCode = 30062, O = Extreme Discord, OU = Chaos, CN = gov.us
        Subject Public Key Info:
            Public Key Algorithm: rsaEncryption
                Public-Key: (2048 bit)
                Modulus:
                    00:cf:1c:7d:9b:cc:40:fe:d1:6f:47:2a:c4:65:47:
                    e6:28:9b:f8:1b:02:93:9e:04:7f:2b:96:cb:55:b7:
                    b5:e7:48:db:52:09:57:27:6c:3b:dd:95:1a:f6:69:
                    20:21:d7:66:19:b1:0d:65:eb:06:7e:77:48:03:3a:
                    a2:a7:73:32:61:e5:ff:6b:c0:af:61:5a:62:e1:84:
                    95:a6:2b:54:7f:17:e7:b3:83:b3:98:21:ec:4f:d6:
                    77:ba:da:9d:52:01:80:b3:73:ce:4e:e8:2a:ef:6b:
                    26:50:9c:9c:f8:54:e2:c0:a2:1c:1a:ca:f0:0d:45:
                    55:62:39:e1:27:09:5f:d0:34:19:a2:4d:44:b4:59:
                    9a:2a:08:c2:47:d3:8c:6e:63:11:38:76:c9:15:83:
                    41:cf:44:e6:41:99:1c:3c:fb:f3:68:68:fc:a9:cd:
                    a2:64:2c:ff:3e:92:fa:b6:fe:ee:5e:de:5a:48:90:
                    e2:0f:cd:72:8f:e6:3e:24:d6:27:97:92:c1:a9:94:
                    46:a8:96:f2:58:05:96:b6:17:5a:80:51:42:ba:c3:
                    16:47:83:9c:cf:6f:db:da:1f:ea:4f:37:63:22:83:
                    81:bb:16:70:6d:c4:6f:59:d2:7b:08:13:72:9a:4d:
                    a8:88:b2:32:33:7e:bf:af:af:28:ac:ae:05:f5:eb:
                    a7:19
                Exponent: 65537 (0x10001)
        X509v3 extensions:
            X509v3 Key Usage: critical
                Digital Signature, Key Encipherment
            X509v3 Extended Key Usage: 
                TLS Web Client Authentication, TLS Web Server Authentication
            X509v3 Basic Constraints: critical
                CA:FALSE
            X509v3 Authority Key Identifier: 
                keyid:01:02:03

            Authority Information Access: 
                OCSP - URI:http://theca.net/ocsp
                CA Issuers - URI:http://theca.net/totallythecert.crt

            X509v3 Certificate Policies: 
                Policy: 2.23.140.1.2.2

            X509v3 Subject Alternative Name: 
                DNS:*.gov.us, DNS:gov.us
    Signature Algorithm: sha256WithRSAEncryption
         2a:16:c8:be:99:85:50:c9:07:46:b4:e3:3f:d6:fa:3f:3a:a2:
         38:3f:a2:32:c5:50:12:3d:b5:d8:b0:99:21:da:d1:2e:3c:23:
         0b:d7:3a:99:9a:e7:71:5f:b7:33:25:9f:ee:cc:13:74:1b:8e:
         2c:01:dc:19:91:20:17:62:ad:ef:65:a0:49:6e:31:99:8d:61:
         fb:5a:b9:0b:a0:ac:7c:72:bd:13:ae:a7:79:1f:14:a0:c9:64:
         05:29:a3:1a:28:44:69:2d:62:fc:c1:0b:19:7f:5e:02:f3:c2:
         90:4b:b6:95:94:fa:53:b5:8a:e8:1f:12:2a:73:7d:45:49:6b:
         74:de:ad:f5:e3:73:2c:04:a4:e3:b3:0b:07:32:e2:e4:e1:e5:
         3a:a3:8f:49:6d:2b:c7:b9:cb:f5:6c:70:ab:ae:a7:76:63:3d:
         2c:dd:be:6b:8e:ef:d6:72:ea:38:ca:48:67:32:35:5c:27:1e:
         dd:a2:35:ff:f2:16:83:fb:db:09:77:ba:bb:fa:52:83:b5:2e:
         cb:d1:73:bf:75:89:c6:d6:d8:ca:1c:8e:22:67:c2:f9:09:12:
         64:45:e6:f6:99:78:1b:ce:30:0f:3b:4e:af:c9:56:ed:8f:c4:
         75:59:25:34:31:1f:34:2c:86:c4:fd:fc:f3:ca:59:d9:a4:3b:
         40:af:0c:28
-----BEGIN CERTIFICATE-----
MIIEUjCCAzqgAwIBAgIFBDFmk+0wDQYJKoZIhvcNAQELBQAwUjELMAkGA1UEBhMC
VVMxFjAUBgNVBAoTDU1vdGhlciBOYXR1cmUxEzARBgNVBAsTCkV2ZXJ5dGhpbmcx
FjAUBgNVBAMTDU1vdGhlciBOYXR1cmUwHhcNMTYwNzA4MDQ0MDM1WhcNMTYwOTIw
MDQ0MDM1WjCBmTELMAkGA1UEBhMCVVMxCzAJBgNVBAgTAkZMMRQwEgYDVQQHEwtU
YWxsYWhhc3NlZTEcMBoGA1UECRMTMzIxMCBIb2xseSBNaWxsIFJ1bjEOMAwGA1UE
ERMFMzAwNjIxGDAWBgNVBAoTD0V4dHJlbWUgRGlzY29yZDEOMAwGA1UECxMFQ2hh
b3MxDzANBgNVBAMTBmdvdi51czCCASIwDQYJKoZIhvcNAQEBBQADggEPADCCAQoC
ggEBAM8cfZvMQP7Rb0cqxGVH5iib+BsCk54EfyuWy1W3tedI21IJVydsO92VGvZp
ICHXZhmxDWXrBn53SAM6oqdzMmHl/2vAr2FaYuGElaYrVH8X57ODs5gh7E/Wd7ra
nVIBgLNzzk7oKu9rJlCcnPhU4sCiHBrK8A1FVWI54ScJX9A0GaJNRLRZmioIwkfT
jG5jETh2yRWDQc9E5kGZHDz782ho/KnNomQs/z6S+rb+7l7eWkiQ4g/Nco/mPiTW
J5eSwamURqiW8lgFlrYXWoBRQrrDFkeDnM9v29of6k83YyKDgbsWcG3Eb1nSewgT
cppNqIiyMjN+v6+vKKyuBfXrpxkCAwEAAaOB5jCB4zAOBgNVHQ8BAf8EBAMCBaAw
HQYDVR0lBBYwFAYIKwYBBQUHAwIGCCsGAQUFBwMBMAwGA1UdEwEB/wQCMAAwDgYD
VR0jBAcwBYADAQIDMGIGCCsGAQUFBwEBBFYwVDAhBggrBgEFBQcwAYYVaHR0cDov
L3RoZWNhLm5ldC9vY3NwMC8GCCsGAQUFBzAChiNodHRwOi8vdGhlY2EubmV0L3Rv
dGFsbHl0aGVjZXJ0LmNydDATBgNVHSAEDDAKMAgGBmeBDAECAjAbBgNVHREEFDAS
gggqLmdvdi51c4IGZ292LnVzMA0GCSqGSIb3DQEBCwUAA4IBAQAqFsi+mYVQyQdG
tOM/1vo/OqI4P6IyxVASPbXYsJkh2tEuPCML1zqZmudxX7czJZ/uzBN0G44sAdwZ
kSAXYq3vZaBJbjGZjWH7WrkLoKx8cr0Trqd5HxSgyWQFKaMaKERpLWL8wQsZf14C
88KQS7aVlPpTtYroHxIqc31FSWt03q3143MsBKTjswsHMuLk4eU6o49JbSvHucv1
bHCrrqd2Yz0s3b5rju/Wcuo4ykhnMjVcJx7dojX/8haD+9sJd7q7+lKDtS7L0XO/
dYnG1tjKHI4iZ8L5CRJkReb2mXgbzjAPO06vyVbtj8R1WSU0MR80LIbE/fzzylnZ
pDtArwwo
-----END CERTIFICATE-----
