Certificate:
    Data:
        Version: 3 (0x2)
        Serial Number: 18008675309 (0x4316693ed)
    Signature Algorithm: sha256WithRSAEncryption
        Issuer: C = US, O = Mother Nature, OU = Everything, CN = Mother Nature
        Validity
            Not Before: Jul  5 21:27:10 2016 GMT
            Not After : Sep 17 21:27:10 2016 GMT
        Subject: C = US, ST = FL, L = Tallahassee, street = 3210 Holly Mill Run, postalCode = 30062, O = Extreme Discord, OU = Chaos, CN = gov.us
        Subject Public Key Info:
            Public Key Algorithm: rsaEncryption
                Public-Key: (2048 bit)
                Modulus:
                    00:d9:17:78:af:bd:9b:58:5e:6d:01:08:94:89:8c:
                    d5:0c:57:13:2d:bb:35:e6:32:b5:b1:94:9f:f8:aa:
                    75:36:20:74:b5:9f:f5:a6:74:d1:29:de:ca:3c:0b:
                    8e:86:fc:b1:bf:4b:74:1f:c4:48:27:38:d7:07:02:
                    10:1b:1d:31:51:d0:00:56:5c:e6:3b:7b:bd:da:4e:
                    94:09:d6:d8:a8:d9:93:d2:93:84:65:0a:54:26:76:
                    75:ff:77:14:b3:54:b9:ed:85:77:ab:c9:3e:3c:48:
                    ed:75:af:18:74:cd:c3:aa:3a:a3:3f:03:b8:a6:4b:
                    89:1f:e6:6f:86:89:d4:00:87:6a:1a:68:75:fc:20:
                    25:86:ef:78:4a:25:88:8c:e6:7b:bd:b1:63:e2:67:
                    cd:cb:44:8a:c8:55:9f:52:2c:c7:d0:6d:a3:54:f4:
                    1a:06:76:51:b3:6b:a3:bb:18:54:74:c2:cf:68:f9:
                    08:19:07:48:d8:e5:7f:48:4f:3b:a6:2f:cd:0f:d1:
                    dc:93:0c:95:87:04:22:78:8a:ce:84:a8:51:b3:33:
                    a6:1a:fa:91:23:1a:f9:bd:98:c0:eb:1f:2d:0f:24:
                    42:c9:6b:15:a4:3f:29:21:fb:6c:e0:da:49:ea:d0:
                    a6:21:4d:7e:3e:10:89:a6:de:a8:64:4b:3d:31:f1:
                    42:e7
                Exponent: 65537 (0x10001)
        X509v3 extensions:
            X509v3 Basic Constraints: critical
                CA:TRUE
            X509v3 Authority Key Identifier: 
                keyid:01:02:03

            X509v3 Subject Key Identifier: 
                04:03:02:01
            X509v3 Subject Alternative Name: 
                DNS:*.gov.us, DNS:gov.us
            X509v3 Key Usage: 
                Digital Signature, Certificate Sign, CRL Sign
            X509v3 CRL Distribution Points: 

                Full Name:
                  URI:http://crl.starfieldtech.com/sfig2s1-17.crl

    Signature Algorithm: sha256WithRSAEncryption
         41:a1:32:87:fb:97:ea:bc:ea:d3:bf:1e:f9:73:c4:f2:e7:c6:
         75:1c:9c:82:2f:09:b6:64:58:37:28:8a:56:52:89:db:64:b4:
         21:43:f0:b1:59:58:78:c3:43:33:41:3f:99:92:34:a1:52:78:
         7f:5b:a9:e9:ef:47:4f:42:ea:9e:68:7d:4d:fc:9f:8a:cb:d8:
         7f:e5:cb:9d:aa:de:fd:61:12:50:79:1d:09:a9:8d:01:42:ff:
         0a:eb:ca:53:8f:72:0b:86:6f:78:0c:7d:34:c9:0b:31:53:9c:
         50:1f:98:cb:9d:15:5e:f9:6b:51:ad:23:27:49:53:d6:7a:7a:
         72:f0:79:f4:d9:75:0b:a4:39:64:4f:ba:04:92:99:6c:f7:fc:
         bb:f6:1f:b5:a9:b3:d9:08:95:29:81:44:3d:b4:01:ce:bb:7f:
         30:10:94:ed:90:67:9e:83:16:12:56:a9:a9:f3:58:2e:86:f8:
         1b:ae:b9:cd:f7:84:83:66:96:d9:5e:bb:2a:ad:13:dc:f3:70:
         c9:f1:6d:62:36:08:78:ca:d9:15:6f:91:2b:f5:7b:0c:7d:69:
         e9:f9:6a:0c:85:60:55:01:42:82:ec:5a:06:62:ba:1e:e9:bf:
         cc:43:8c:ea:48:8e:e4:63:b4:30:9a:de:87:15:c4:9f:e7:23:
         65:23:4d:ad
-----BEGIN CERTIFICATE-----
MIIEBzCCAu+gAwIBAgIFBDFmk+0wDQYJKoZIhvcNAQELBQAwUjELMAkGA1UEBhMC
VVMxFjAUBgNVBAoTDU1vdGhlciBOYXR1cmUxEzARBgNVBAsTCkV2ZXJ5dGhpbmcx
FjAUBgNVBAMTDU1vdGhlciBOYXR1cmUwHhcNMTYwNzA1MjEyNzEwWhcNMTYwOTE3
MjEyNzEwWjCBmTELMAkGA1UEBhMCVVMxCzAJBgNVBAgTAkZMMRQwEgYDVQQHEwtU
YWxsYWhhc3NlZTEcMBoGA1UECRMTMzIxMCBIb2xseSBNaWxsIFJ1bjEOMAwGA1UE
ERMFMzAwNjIxGDAWBgNVBAoTD0V4dHJlbWUgRGlzY29yZDEOMAwGA1UECxMFQ2hh
b3MxDzANBgNVBAMTBmdvdi51czCCASIwDQYJKoZIhvcNAQEBBQADggEPADCCAQoC
ggEBANkXeK+9m1hebQEIlImM1QxXEy27NeYytbGUn/iqdTYgdLWf9aZ00SneyjwL
job8sb9LdB/ESCc41wcCEBsdMVHQAFZc5jt7vdpOlAnW2KjZk9KThGUKVCZ2df93
FLNUue2Fd6vJPjxI7XWvGHTNw6o6oz8DuKZLiR/mb4aJ1ACHahpodfwgJYbveEol
iIzme72xY+JnzctEishVn1Isx9Bto1T0GgZ2UbNro7sYVHTCz2j5CBkHSNjlf0hP
O6YvzQ/R3JMMlYcEIniKzoSoUbMzphr6kSMa+b2YwOsfLQ8kQslrFaQ/KSH7bODa
SerQpiFNfj4QiabeqGRLPTHxQucCAwEAAaOBmzCBmDAPBgNVHRMBAf8EBTADAQH/
MA4GA1UdIwQHMAWAAwECAzANBgNVHQ4EBgQEBAMCATAbBgNVHREEFDASgggqLmdv
di51c4IGZ292LnVzMAsGA1UdDwQEAwIBhjA8BgNVHR8ENTAzMDGgL6AthitodHRw
Oi8vY3JsLnN0YXJmaWVsZHRlY2guY29tL3NmaWcyczEtMTcuY3JsMA0GCSqGSIb3
DQEBCwUAA4IBAQBBoTKH+5fqvOrTvx75c8Ty58Z1HJyCLwm2ZFg3KIpWUonbZLQh
Q/CxWVh4w0MzQT+ZkjShUnh/W6np70dPQuqeaH1N/J+Ky9h/5cudqt79YRJQeR0J
qY0BQv8K68pTj3ILhm94DH00yQsxU5xQH5jLnRVe+WtRrSMnSVPWenpy8Hn02XUL
pDlkT7oEkpls9/y79h+1qbPZCJUpgUQ9tAHOu38wEJTtkGeegxYSVqmp81guhvgb
rrnN94SDZpbZXrsqrRPc83DJ8W1iNgh4ytkVb5Er9XsMfWnp+WoMhWBVAUKC7FoG
Yroe6b/MQ4zqSI7kY7Qwmt6HFcSf5yNlI02t
-----END CERTIFICATE-----
