Certificate:
    Data:
        Version: 3 (0x2)
        Serial Number: 18008675309 (0x4316693ed)
    Signature Algorithm: sha256WithRSAEncryption
        Issuer: C=US, O=Mother Nature, OU=Everything, CN=Mother Nature
        Validity
            Not Before: Aug 23 21:48:58 2017 GMT
            Not After : Nov  4 21:48:58 2017 GMT
        Subject: C=US, ST=FL, L=Tallahassee/street=3210 Holly Mill Run/postalCode=30062, O=Extreme Discord, OU=Chaos, CN=gov.us
        Subject Public Key Info:
            Public Key Algorithm: rsaEncryption
                Public-Key: (2048 bit)
                Modulus:
                    00:c3:ba:33:10:4b:cd:00:ee:bd:00:e1:6c:71:f8:
                    7c:68:36:44:e8:a5:d9:0d:97:42:a8:a8:7a:6d:dc:
                    aa:6c:d0:14:1b:c7:74:8d:9b:d2:13:e9:37:29:25:
                    ee:96:32:f5:87:bd:22:b5:27:25:10:61:29:16:47:
                    3a:eb:04:42:fb:d8:0f:7c:f6:14:df:69:67:9c:b6:
                    0f:0f:29:71:f5:e8:f9:a0:75:e7:2a:73:f1:a6:c1:
                    69:5a:a3:63:7e:38:52:0a:64:83:b5:41:dd:51:36:
                    b0:80:b2:3b:95:0a:c4:c8:a6:f2:d8:54:dc:06:6a:
                    90:6a:87:f7:d3:3a:37:56:f2:0b:b2:78:0f:d8:6a:
                    8c:dc:ee:99:e5:aa:26:d8:99:05:87:88:d2:66:46:
                    0f:b6:f1:b7:76:ac:e2:60:1a:9c:e8:05:48:d9:ec:
                    c9:d1:a3:93:4a:8f:b5:b7:7b:55:59:c9:47:f6:5a:
                    9c:f3:39:fc:b1:b1:7d:43:31:d1:58:f0:22:9c:96:
                    d0:9d:c2:38:27:ba:27:82:07:ec:62:07:6e:e5:11:
                    3f:ed:fd:20:80:90:83:af:37:d9:93:7b:46:b8:e6:
                    39:58:0d:97:ab:26:41:84:f3:f0:9f:8c:fb:17:c6:
                    5b:8c:8c:db:05:c1:18:ff:6b:d1:14:3e:7a:82:6b:
                    b6:b9
                Exponent: 65537 (0x10001)
        X509v3 extensions:
            X509v3 Key Usage: critical
                Digital Signature, Key Encipherment
            X509v3 Extended Key Usage: 
                TLS Web Client Authentication, TLS Web Server Authentication
            X509v3 Basic Constraints: critical
                CA:FALSE
            X509v3 Authority Key Identifier: 
                keyid:01:02:03

            X509v3 Certificate Policies: 
                Policy: 2.23.140.1.2.2

            Authority Information Access: critical
                OCSP - URI:http://ss.symcd.com
                CA Issuers - URI:http://ss.symcb.com/ss.crt

    Signature Algorithm: sha256WithRSAEncryption
         4f:61:fa:86:6c:66:df:fa:08:89:ec:23:ab:62:a4:5c:af:00:
         7c:da:a1:35:c8:08:e0:ed:ef:84:c4:e3:3b:34:a0:68:3a:07:
         59:33:3f:4d:d4:22:75:46:18:15:c4:dc:e9:8a:b4:0d:6a:83:
         38:2f:bf:74:0a:39:16:e6:18:05:06:fc:01:50:e4:53:24:9b:
         a1:03:58:88:e1:ee:5f:7a:8e:22:dc:e5:d4:73:6c:1f:1a:09:
         2a:f3:3a:86:ad:1c:88:d9:29:74:44:4b:58:e1:6d:a3:90:1c:
         0c:25:37:78:61:fd:ce:81:42:7a:7c:f6:0d:59:98:63:28:b3:
         77:bd:0f:b0:7f:73:b4:04:88:29:b5:29:26:88:f6:35:21:7a:
         0f:80:d8:2f:e6:5c:56:db:f1:25:55:91:36:69:a6:9b:13:d3:
         5e:cf:92:05:66:1d:4d:4c:b3:b2:ef:03:ab:9d:02:37:7b:21:
         79:c1:42:00:56:59:23:73:17:ef:77:70:f0:c7:c6:92:aa:24:
         11:f6:8f:b3:12:3c:16:c6:42:ec:27:ec:28:eb:e8:de:56:b2:
         94:25:25:03:a1:75:30:4f:91:99:99:82:5a:29:b3:bd:47:64:
         fd:ee:92:71:70:7e:c9:b6:69:42:04:4f:df:32:12:b2:ef:44:
         79:a6:5a:a3
-----BEGIN CERTIFICATE-----
MIIELTCCAxWgAwIBAgIFBDFmk+0wDQYJKoZIhvcNAQELBQAwUjELMAkGA1UEBhMC
VVMxFjAUBgNVBAoTDU1vdGhlciBOYXR1cmUxEzARBgNVBAsTCkV2ZXJ5dGhpbmcx
FjAUBgNVBAMTDU1vdGhlciBOYXR1cmUwHhcNMTcwODIzMjE0ODU4WhcNMTcxMTA0
MjE0ODU4WjCBmTELMAkGA1UEBhMCVVMxCzAJBgNVBAgTAkZMMRQwEgYDVQQHEwtU
YWxsYWhhc3NlZTEcMBoGA1UECRMTMzIxMCBIb2xseSBNaWxsIFJ1bjEOMAwGA1UE
ERMFMzAwNjIxGDAWBgNVBAoTD0V4dHJlbWUgRGlzY29yZDEOMAwGA1UECxMFQ2hh
b3MxDzANBgNVBAMTBmdvdi51czCCASIwDQYJKoZIhvcNAQEBBQADggEPADCCAQoC
ggEBAMO6MxBLzQDuvQDhbHH4fGg2ROil2Q2XQqioem3cqmzQFBvHdI2b0hPpNykl
7pYy9Ye9IrUnJRBhKRZHOusEQvvYD3z2FN9pZ5y2Dw8pcfXo+aB15ypz8abBaVqj
Y344Ugpkg7VB3VE2sICyO5UKxMim8thU3AZqkGqH99M6N1byC7J4D9hqjNzumeWq
JtiZBYeI0mZGD7bxt3as4mAanOgFSNnsydGjk0qPtbd7VVnJR/ZanPM5/LGxfUMx
0VjwIpyW0J3COCe6J4IH7GIHbuURP+39IICQg6832ZN7RrjmOVgNl6smQYTz8J+M
+xfGW4yM2wXBGP9r0RQ+eoJrtrkCAwEAAaOBwTCBvjAOBgNVHQ8BAf8EBAMCBaAw
HQYDVR0lBBYwFAYIKwYBBQUHAwIGCCsGAQUFBwMBMAwGA1UdEwEB/wQCMAAwDgYD
VR0jBAcwBYADAQIDMBMGA1UdIAQMMAowCAYGZ4EMAQICMFoGCCsGAQUFBwEBAQH/
BEswSTAfBggrBgEFBQcwAYYTaHR0cDovL3NzLnN5bWNkLmNvbTAmBggrBgEFBQcw
AoYaaHR0cDovL3NzLnN5bWNiLmNvbS9zcy5jcnQwDQYJKoZIhvcNAQELBQADggEB
AE9h+oZsZt/6CInsI6tipFyvAHzaoTXICODt74TE4zs0oGg6B1kzP03UInVGGBXE
3OmKtA1qgzgvv3QKORbmGAUG/AFQ5FMkm6EDWIjh7l96jiLc5dRzbB8aCSrzOoat
HIjZKXRES1jhbaOQHAwlN3hh/c6BQnp89g1ZmGMos3e9D7B/c7QEiCm1KSaI9jUh
eg+A2C/mXFbb8SVVkTZpppsT017PkgVmHU1Ms7LvA6udAjd7IXnBQgBWWSNzF+93
cPDHxpKqJBH2j7MSPBbGQuwn7Cjr6N5WspQlJQOhdTBPkZmZglops71HZP3uknFw
fsm2aUIET98yErLvRHmmWqM=
-----END CERTIFICATE-----
