Certificate:
    Data:
        Version: 3 (0x2)
        Serial Number: 18008675309 (0x4316693ed)
    Signature Algorithm: sha256WithRSAEncryption
        Issuer: C = US, O = Mother Nature, OU = Everything, CN = Mother Nature
        Validity
            Not Before: Jul  5 15:02:08 2016 GMT
            Not After : Sep 17 15:02:08 2016 GMT
        Subject: C = US, ST = FL, L = Tallahassee, street = 3210 Holly Mill Run, postalCode = 30062, O = Extreme Discord, OU = Chaos, CN = gov.us
        Subject Public Key Info:
            Public Key Algorithm: rsaEncryption
                Public-Key: (2048 bit)
                Modulus:
                    00:ac:ff:82:54:a0:c7:14:4e:2f:79:8c:70:28:ab:
                    67:97:ef:c0:5d:4a:d8:e2:fa:80:96:91:dc:12:39:
                    41:93:af:67:75:de:34:80:b9:cc:ef:ad:58:bc:ae:
                    91:e4:e7:25:60:6b:73:32:64:67:fb:57:13:c4:6d:
                    00:c6:f9:fb:40:95:f8:de:5f:c5:0d:e1:01:e8:15:
                    00:d5:b0:64:ce:b1:77:94:a0:f4:0c:e9:a1:42:7d:
                    33:60:84:a2:a9:5e:65:e4:1f:9b:46:4b:84:fd:3c:
                    a3:8f:32:53:94:36:db:8c:74:53:17:f9:89:71:24:
                    de:bf:3b:c1:5b:c8:d0:a9:7c:31:16:40:6d:f5:aa:
                    7c:c3:52:ea:07:b6:f8:25:7e:1c:ab:b3:2a:65:8b:
                    52:8e:ab:d3:40:3f:ca:f5:1a:9b:0f:28:e8:4d:6c:
                    62:70:e0:a1:93:97:5e:95:77:19:1a:ed:8e:e3:91:
                    a1:80:22:da:31:4e:b6:d0:c8:a8:5f:56:2f:f7:98:
                    80:d3:5d:69:3b:68:d6:12:dc:8f:4d:b0:f4:47:17:
                    09:52:a9:a3:74:f0:e6:69:df:1c:a2:c1:f2:77:89:
                    39:62:fb:46:d7:d4:4b:56:29:4f:69:74:8a:e2:23:
                    76:bd:f2:40:98:22:44:3f:f1:a4:98:03:b1:88:c1:
                    07:01
                Exponent: 65537 (0x10001)
        X509v3 extensions:
            X509v3 Basic Constraints: critical
                CA:FALSE
            X509v3 Authority Key Identifier: 
                keyid:01:02:03

            X509v3 Subject Key Identifier: 
                04:03:02:01
            X509v3 Subject Alternative Name: 
                DNS:*.gov.us, DNS:gov.us
            X509v3 Key Usage: 
                Digital Signature, Certificate Sign, CRL Sign
    Signature Algorithm: sha256WithRSAEncryption
         68:28:a8:05:d9:63:df:47:2f:0f:75:92:5e:cf:60:aa:da:4a:
         ac:99:62:73:ca:ad:cd:26:55:ed:42:32:a2:0c:66:cd:28:cc:
         46:b8:13:ff:bf:4d:e2:99:c8:2b:dd:0c:36:98:fc:c6:3d:50:
         58:bd:3f:a5:51:c4:d3:10:51:ef:36:70:19:98:6f:1f:1d:06:
         62:22:6f:47:96:6b:58:13:8a:cc:a3:22:f7:a5:6e:50:98:43:
         38:4a:9f:cc:26:2d:5c:83:0a:e2:70:7d:ae:a0:b0:50:ab:76:
         a9:92:c2:5e:54:3a:e7:64:79:4f:7d:75:44:67:93:5c:be:2f:
         e1:8e:75:03:80:85:9f:67:4f:53:7f:0b:28:c6:59:1c:f0:05:
         9a:64:1b:e0:db:b3:1f:f0:31:e7:5d:15:2b:1e:c5:4e:ca:ae:
         09:8b:c0:d5:5b:45:c1:9b:0f:62:3e:1c:2f:c6:08:50:67:5a:
         5b:f7:c5:99:9e:af:cc:a7:c0:ef:92:37:54:80:db:3a:5a:5f:
         43:54:3d:58:5e:aa:3b:73:34:e3:1d:a9:a0:19:7d:6d:6b:b5:
         85:c5:72:8b:d8:97:31:a8:fc:41:2a:78:46:6a:7a:3b:a5:c1:
         c6:fb:40:09:ba:d9:1c:b1:23:1d:5f:96:bb:f2:ad:0b:a6:d2:
         16:db:46:5f
-----BEGIN CERTIFICATE-----
MIIDxDCCAqygAwIBAgIFBDFmk+0wDQYJKoZIhvcNAQELBQAwUjELMAkGA1UEBhMC
VVMxFjAUBgNVBAoTDU1vdGhlciBOYXR1cmUxEzARBgNVBAsTCkV2ZXJ5dGhpbmcx
FjAUBgNVBAMTDU1vdGhlciBOYXR1cmUwHhcNMTYwNzA1MTUwMjA4WhcNMTYwOTE3
MTUwMjA4WjCBmTELMAkGA1UEBhMCVVMxCzAJBgNVBAgTAkZMMRQwEgYDVQQHEwtU
YWxsYWhhc3NlZTEcMBoGA1UECRMTMzIxMCBIb2xseSBNaWxsIFJ1bjEOMAwGA1UE
ERMFMzAwNjIxGDAWBgNVBAoTD0V4dHJlbWUgRGlzY29yZDEOMAwGA1UECxMFQ2hh
b3MxDzANBgNVBAMTBmdvdi51czCCASIwDQYJKoZIhvcNAQEBBQADggEPADCCAQoC
ggEBAKz/glSgxxROL3mMcCirZ5fvwF1K2OL6gJaR3BI5QZOvZ3XeNIC5zO+tWLyu
keTnJWBrczJkZ/tXE8RtAMb5+0CV+N5fxQ3hAegVANWwZM6xd5Sg9AzpoUJ9M2CE
oqleZeQfm0ZLhP08o48yU5Q224x0Uxf5iXEk3r87wVvI0Kl8MRZAbfWqfMNS6ge2
+CV+HKuzKmWLUo6r00A/yvUamw8o6E1sYnDgoZOXXpV3GRrtjuORoYAi2jFOttDI
qF9WL/eYgNNdaTto1hLcj02w9EcXCVKpo3Tw5mnfHKLB8neJOWL7RtfUS1YpT2l0
iuIjdr3yQJgiRD/xpJgDsYjBBwECAwEAAaNZMFcwDAYDVR0TAQH/BAIwADAOBgNV
HSMEBzAFgAMBAgMwDQYDVR0OBAYEBAQDAgEwGwYDVR0RBBQwEoIIKi5nb3YudXOC
Bmdvdi51czALBgNVHQ8EBAMCAYYwDQYJKoZIhvcNAQELBQADggEBAGgoqAXZY99H
Lw91kl7PYKraSqyZYnPKrc0mVe1CMqIMZs0ozEa4E/+/TeKZyCvdDDaY/MY9UFi9
P6VRxNMQUe82cBmYbx8dBmIib0eWa1gTisyjIvelblCYQzhKn8wmLVyDCuJwfa6g
sFCrdqmSwl5UOudkeU99dURnk1y+L+GOdQOAhZ9nT1N/CyjGWRzwBZpkG+Dbsx/w
MeddFSsexU7KrgmLwNVbRcGbD2I+HC/GCFBnWlv3xZmer8ynwO+SN1SA2zpaX0NU
PVheqjtzNOMdqaAZfW1rtYXFcovYlzGo/EEqeEZqejulwcb7QAm62RyxIx1flrvy
rQum0hbbRl8=
-----END CERTIFICATE-----
