Certificate:
    Data:
        Version: 3 (0x2)
        Serial Number: 18008675309 (0x4316693ed)
    Signature Algorithm: sha256WithRSAEncryption
        Issuer: C = US, O = Mother Nature, OU = Everything, CN = Mother Nature
        Validity
            Not Before: Jul  5 21:27:28 2016 GMT
            Not After : Sep 17 21:27:28 2016 GMT
        Subject: C = US, ST = FL, L = Tallahassee, street = 3210 Holly Mill Run, postalCode = 30062, O = Extreme Discord, OU = Chaos, CN = gov.us
        Subject Public Key Info:
            Public Key Algorithm: rsaEncryption
                Public-Key: (2048 bit)
                Modulus:
                    00:ac:bc:6b:a4:c5:d6:3e:d6:76:f7:c3:31:c6:bc:
                    98:0d:a0:72:8d:5c:ee:c9:41:e5:59:6d:54:9b:50:
                    f1:fc:7d:7b:bf:c7:6f:0c:95:bc:22:62:b1:b7:b4:
                    4c:aa:d1:43:48:f4:3f:4a:ac:cb:17:01:c1:7e:e0:
                    aa:f8:7b:93:df:54:cd:d5:13:b8:e0:c5:e4:77:a4:
                    29:53:10:18:a0:32:be:49:e4:bd:22:16:db:53:92:
                    b7:0a:bd:1b:6f:ff:37:f7:78:4c:ac:f9:5c:d9:b9:
                    f2:e9:9a:46:43:09:95:89:18:28:53:30:44:0f:b1:
                    a4:a6:a0:46:2f:d5:e8:28:79:ea:c1:12:0c:06:0e:
                    09:c5:c6:aa:e4:b4:a8:05:30:e1:be:d1:bb:f9:9a:
                    04:08:97:bb:79:2d:2a:97:c1:10:82:25:07:fd:c7:
                    b7:81:d4:0b:c6:c6:b9:52:22:32:d9:88:90:52:d2:
                    28:00:9a:f5:a5:e8:2b:ba:6b:ea:a6:71:76:d8:96:
                    8e:b0:31:84:cb:67:87:14:b0:be:5e:ec:7d:a1:8a:
                    66:5b:f9:09:cd:de:6c:f6:11:d4:f0:fc:3a:2c:22:
                    a7:e3:3d:21:36:42:80:25:df:e3:ae:0d:6c:0b:06:
                    02:bb:30:2a:7d:92:5d:ad:19:43:3d:18:82:02:2a:
                    f9:53
                Exponent: 65537 (0x10001)
        X509v3 extensions:
            X509v3 Basic Constraints: critical
                CA:TRUE
            X509v3 Authority Key Identifier: 
                keyid:01:02:03

            X509v3 Subject Key Identifier: 
                04:03:02:01
            X509v3 Subject Alternative Name: 
                DNS:*.gov.us, DNS:gov.us
            X509v3 Key Usage: 
                Digital Signature, Certificate Sign, CRL Sign
            X509v3 CRL Distribution Points: critical

                Full Name:
                  URI:http://crl.starfieldtech.com/sfig2s1-17.crl

    Signature Algorithm: sha256WithRSAEncryption
         8c:fc:7d:6e:fe:5b:a7:39:45:70:4e:9d:f5:48:f3:7d:93:e9:
         6e:ee:2f:5c:ae:31:5c:6b:9a:6a:d5:a5:a9:15:d2:15:a6:df:
         20:79:e0:ff:43:13:cf:26:b1:e8:dd:e4:74:f4:35:57:a3:78:
         83:a5:6c:72:5b:b2:60:ce:68:61:9f:67:13:d4:9e:75:ae:3e:
         9e:1d:46:da:a5:ca:f5:5b:93:fc:44:ad:01:73:14:84:9c:72:
         81:d7:fb:c7:14:c5:f6:29:78:e8:f6:2f:2f:d9:5b:5f:a8:3f:
         22:41:6a:51:23:82:45:be:f5:0f:c6:f6:24:34:21:c4:04:16:
         f8:7e:ad:91:ea:67:81:88:7f:32:03:f6:46:06:8c:a6:70:28:
         fb:c3:b1:c9:db:40:7e:5b:8f:c5:b2:e3:4f:e3:72:31:47:0a:
         dd:3e:03:62:7e:b7:b3:c9:43:57:90:4a:a7:55:4f:6e:f2:4c:
         27:06:cd:63:c0:29:e8:a6:50:3e:2a:61:96:b0:d1:30:c0:36:
         e0:af:40:4c:81:df:77:32:e3:12:28:7e:cb:53:d5:c4:03:0a:
         98:1d:d7:38:00:45:70:45:41:85:01:81:fe:0e:69:62:7b:8a:
         20:9c:6c:50:ee:25:98:d4:21:14:94:0c:ee:16:6e:39:59:45:
         73:be:1a:ba
-----BEGIN CERTIFICATE-----
MIIECjCCAvKgAwIBAgIFBDFmk+0wDQYJKoZIhvcNAQELBQAwUjELMAkGA1UEBhMC
VVMxFjAUBgNVBAoTDU1vdGhlciBOYXR1cmUxEzARBgNVBAsTCkV2ZXJ5dGhpbmcx
FjAUBgNVBAMTDU1vdGhlciBOYXR1cmUwHhcNMTYwNzA1MjEyNzI4WhcNMTYwOTE3
MjEyNzI4WjCBmTELMAkGA1UEBhMCVVMxCzAJBgNVBAgTAkZMMRQwEgYDVQQHEwtU
YWxsYWhhc3NlZTEcMBoGA1UECRMTMzIxMCBIb2xseSBNaWxsIFJ1bjEOMAwGA1UE
ERMFMzAwNjIxGDAWBgNVBAoTD0V4dHJlbWUgRGlzY29yZDEOMAwGA1UECxMFQ2hh
b3MxDzANBgNVBAMTBmdvdi51czCCASIwDQYJKoZIhvcNAQEBBQADggEPADCCAQoC
ggEBAKy8a6TF1j7WdvfDMca8mA2gco1c7slB5VltVJtQ8fx9e7/HbwyVvCJisbe0
TKrRQ0j0P0qsyxcBwX7gqvh7k99UzdUTuODF5HekKVMQGKAyvknkvSIW21OStwq9
G2//N/d4TKz5XNm58umaRkMJlYkYKFMwRA+xpKagRi/V6Ch56sESDAYOCcXGquS0
qAUw4b7Ru/maBAiXu3ktKpfBEIIlB/3Ht4HUC8bGuVIiMtmIkFLSKACa9aXoK7pr
6qZxdtiWjrAxhMtnhxSwvl7sfaGKZlv5Cc3ebPYR1PD8Oiwip+M9ITZCgCXf464N
bAsGArswKn2SXa0ZQz0YggIq+VMCAwEAAaOBnjCBmzAPBgNVHRMBAf8EBTADAQH/
MA4GA1UdIwQHMAWAAwECAzANBgNVHQ4EBgQEBAMCATAbBgNVHREEFDASgggqLmdv
di51c4IGZ292LnVzMAsGA1UdDwQEAwIBhjA/BgNVHR8BAf8ENTAzMDGgL6Athito
dHRwOi8vY3JsLnN0YXJmaWVsZHRlY2guY29tL3NmaWcyczEtMTcuY3JsMA0GCSqG
SIb3DQEBCwUAA4IBAQCM/H1u/lunOUVwTp31SPN9k+lu7i9crjFca5pq1aWpFdIV
pt8geeD/QxPPJrHo3eR09DVXo3iDpWxyW7Jgzmhhn2cT1J51rj6eHUbapcr1W5P8
RK0BcxSEnHKB1/vHFMX2KXjo9i8v2VtfqD8iQWpRI4JFvvUPxvYkNCHEBBb4fq2R
6meBiH8yA/ZGBoymcCj7w7HJ20B+W4/FsuNP43IxRwrdPgNifrezyUNXkEqnVU9u
8kwnBs1jwCnoplA+KmGWsNEwwDbgr0BMgd93MuMSKH7LU9XEAwqYHdc4AEVwRUGF
AYH+Dmlie4ognGxQ7iWY1CEUlAzuFm45WUVzvhq6
-----END CERTIFICATE-----
