Certificate:
    Data:
        Version: 3 (0x2)
        Serial Number: 18008675309 (0x4316693ed)
    Signature Algorithm: sha256WithRSAEncryption
        Issuer: C = US, O = Mother Nature, OU = Everything, CN = Mother Nature
        Validity
            Not Before: Jul  5 21:06:59 2016 GMT
            Not After : Sep 17 21:06:59 2016 GMT
        Subject: C = US, ST = FL, L = Tallahassee, street = 3210 Holly Mill Run, postalCode = 30062, O = Extreme Discord, OU = Chaos, CN = gov.us
        Subject Public Key Info:
            Public Key Algorithm: rsaEncryption
                Public-Key: (2048 bit)
                Modulus:
                    00:a7:50:86:c8:1f:c9:2d:bb:ef:32:8c:23:9d:a6:
                    be:7a:29:9f:f9:21:dc:18:3b:59:72:bd:90:20:66:
                    37:58:d1:dd:8e:44:80:38:7c:69:b6:04:e0:bf:3e:
                    a2:2b:e9:bc:65:5d:7d:6e:9f:69:58:d8:0a:f2:cb:
                    e0:af:1a:f9:69:ed:f8:cf:f5:81:16:19:cf:73:23:
                    de:c3:d8:44:b1:3d:73:09:30:0c:0f:b7:ff:64:95:
                    e5:a6:e4:1e:55:d1:7b:87:73:42:17:3c:03:ec:f3:
                    4e:38:11:3e:44:b0:75:60:4c:2e:99:1a:f6:4e:7d:
                    ff:07:4f:17:5d:d0:82:84:4d:21:31:11:d9:7d:74:
                    ef:4a:97:96:40:d1:e7:3b:80:15:14:19:cf:2c:49:
                    26:c5:ad:e8:9e:39:34:05:c5:b7:d2:3b:e0:19:44:
                    7b:c7:19:62:d4:2c:e5:52:fb:4f:8f:99:36:a9:9b:
                    00:f5:00:7a:f6:c9:d3:fb:f1:3a:1a:d5:c4:00:04:
                    80:47:5d:0a:a2:02:2a:16:e4:87:4f:0c:5f:0b:bc:
                    b0:c8:f8:f2:96:db:45:cc:dd:ab:43:27:91:13:64:
                    4d:89:a5:15:4f:23:71:52:05:2d:67:df:a3:85:0e:
                    26:55:84:aa:61:88:67:ef:8f:12:61:33:3e:18:5b:
                    35:3d
                Exponent: 65537 (0x10001)
        X509v3 extensions:
            X509v3 Basic Constraints: critical
                CA:TRUE
            X509v3 Authority Key Identifier: 
                keyid:01:02:03

            X509v3 Subject Key Identifier: 
                04:03:02:01
            X509v3 Subject Alternative Name: 
                DNS:*.gov.us, DNS:gov.us
            X509v3 Key Usage: 
                Digital Signature, Certificate Sign, CRL Sign
            X509v3 Certificate Policies: 
                Policy: 2.16.840.1.114414.1.7.23.1
                  CPS: http://certificates.starfieldtech.com/repository/

    Signature Algorithm: sha256WithRSAEncryption
         55:c1:3b:d5:f9:ae:77:0c:a4:f6:04:27:6f:0d:b4:59:b8:af:
         57:21:60:b6:6f:23:3d:79:6a:b3:7b:9e:ea:55:f5:cd:2c:72:
         84:e4:17:80:c5:3d:03:98:df:ba:1c:3d:b9:dc:70:8f:d4:85:
         ab:f2:98:0c:5e:70:0b:a9:a0:2a:4f:a9:61:ea:13:c5:dc:cf:
         aa:dd:cd:b6:fa:c5:e7:74:a3:a5:6e:91:0f:51:08:35:4a:ec:
         d5:9b:e5:56:df:bc:68:c0:7e:e3:9a:32:b7:f5:cf:9b:e6:3d:
         8f:e1:f0:94:1b:04:e1:35:3c:c6:5a:f4:b6:36:88:da:4e:29:
         6f:3f:06:5a:c7:d4:b9:7b:14:b0:a3:47:4f:88:4f:a3:12:f5:
         c4:a3:34:e6:59:bc:fe:16:e3:10:2e:27:5d:34:d0:e9:10:80:
         03:00:24:44:37:c2:50:de:88:25:d1:3b:e2:87:fa:8e:a4:67:
         63:66:e3:6e:fd:73:7d:14:30:d2:9a:35:c0:7c:a3:76:20:87:
         93:88:e1:28:3a:a1:63:c4:c5:e4:f7:da:6f:2a:a9:d3:fd:8a:
         c9:08:62:79:4e:28:50:e5:48:55:ec:b1:8c:2b:30:9d:22:62:
         ee:df:37:ba:e4:f8:cb:b0:43:66:eb:6c:2f:ab:e3:42:d0:3e:
         46:51:4e:b7
-----BEGIN CERTIFICATE-----
MIIEJDCCAwygAwIBAgIFBDFmk+0wDQYJKoZIhvcNAQELBQAwUjELMAkGA1UEBhMC
VVMxFjAUBgNVBAoTDU1vdGhlciBOYXR1cmUxEzARBgNVBAsTCkV2ZXJ5dGhpbmcx
FjAUBgNVBAMTDU1vdGhlciBOYXR1cmUwHhcNMTYwNzA1MjEwNjU5WhcNMTYwOTE3
MjEwNjU5WjCBmTELMAkGA1UEBhMCVVMxCzAJBgNVBAgTAkZMMRQwEgYDVQQHEwtU
YWxsYWhhc3NlZTEcMBoGA1UECRMTMzIxMCBIb2xseSBNaWxsIFJ1bjEOMAwGA1UE
ERMFMzAwNjIxGDAWBgNVBAoTD0V4dHJlbWUgRGlzY29yZDEOMAwGA1UECxMFQ2hh
b3MxDzANBgNVBAMTBmdvdi51czCCASIwDQYJKoZIhvcNAQEBBQADggEPADCCAQoC
ggEBAKdQhsgfyS277zKMI52mvnopn/kh3Bg7WXK9kCBmN1jR3Y5EgDh8abYE4L8+
oivpvGVdfW6faVjYCvLL4K8a+Wnt+M/1gRYZz3Mj3sPYRLE9cwkwDA+3/2SV5abk
HlXRe4dzQhc8A+zzTjgRPkSwdWBMLpka9k59/wdPF13QgoRNITER2X1070qXlkDR
5zuAFRQZzyxJJsWt6J45NAXFt9I74BlEe8cZYtQs5VL7T4+ZNqmbAPUAevbJ0/vx
OhrVxAAEgEddCqICKhbkh08MXwu8sMj48pbbRczdq0MnkRNkTYmlFU8jcVIFLWff
o4UOJlWEqmGIZ++PEmEzPhhbNT0CAwEAAaOBuDCBtTAPBgNVHRMBAf8EBTADAQH/
MA4GA1UdIwQHMAWAAwECAzANBgNVHQ4EBgQEBAMCATAbBgNVHREEFDASgggqLmdv
di51c4IGZ292LnVzMAsGA1UdDwQEAwIBhjBZBgNVHSAEUjBQME4GC2CGSAGG/W4B
BxcBMD8wPQYIKwYBBQUHAgEWMWh0dHA6Ly9jZXJ0aWZpY2F0ZXMuc3RhcmZpZWxk
dGVjaC5jb20vcmVwb3NpdG9yeS8wDQYJKoZIhvcNAQELBQADggEBAFXBO9X5rncM
pPYEJ28NtFm4r1chYLZvIz15arN7nupV9c0scoTkF4DFPQOY37ocPbnccI/Uhavy
mAxecAupoCpPqWHqE8Xcz6rdzbb6xed0o6VukQ9RCDVK7NWb5VbfvGjAfuOaMrf1
z5vmPY/h8JQbBOE1PMZa9LY2iNpOKW8/BlrH1Ll7FLCjR0+IT6MS9cSjNOZZvP4W
4xAuJ1000OkQgAMAJEQ3wlDeiCXRO+KH+o6kZ2Nm4279c30UMNKaNcB8o3Ygh5OI
4Sg6oWPExeT32m8qqdP9iskIYnlOKFDlSFXssYwrMJ0iYu7fN7rk+MuwQ2brbC+r
40LQPkZRTrc=
-----END CERTIFICATE-----
