Certificate:
    Data:
        Version: 3 (0x2)
        Serial Number: 18008675309 (0x4316693ed)
    Signature Algorithm: sha256WithRSAEncryption
        Issuer: CN=Mother Nature, OU=Everything, O=Mother Nature, C=US
        Validity
            Not Before: Aug 24 03:32:10 2017 GMT
            Not After : Nov  5 03:32:10 2017 GMT
        Subject: CN=gov.us, OU=Chaos/street=3210 Holly Mill Run/postalCode=30062, C=US, GN=givenanme
        Subject Public Key Info:
            Public Key Algorithm: rsaEncryption
                Public-Key: (2048 bit)
                Modulus:
                    00:d7:55:ad:bc:a9:e7:07:1f:ec:cb:e0:2b:67:cb:
                    53:4d:0f:d5:1a:ef:bc:32:37:e7:f2:7e:7b:74:cd:
                    f7:85:e7:83:23:25:b1:59:fa:b6:96:a9:ba:d3:52:
                    a9:0e:f7:99:f3:4a:4b:7d:bf:ec:ef:d3:b9:84:d9:
                    3d:bc:f9:e5:2a:2f:c6:cf:bf:5c:7a:4a:d1:84:de:
                    d0:ae:63:f3:00:52:e0:4d:d3:41:d6:8d:09:4c:3c:
                    b8:7b:5a:29:79:14:fa:7c:f9:3c:60:fc:94:15:b0:
                    90:ee:14:b5:e0:b6:f5:93:d2:a9:45:9e:1b:3d:36:
                    fd:1e:9a:6f:38:d0:f4:55:ce:aa:eb:e5:7b:77:bf:
                    d4:2f:af:cd:e0:25:e8:2b:5a:36:ca:8f:46:eb:c7:
                    a2:6b:6f:e7:6f:2d:5b:49:72:71:96:3f:b2:e7:1f:
                    20:fe:ec:f9:e9:6a:f8:00:96:4e:04:d4:b2:e4:73:
                    fc:10:d1:01:97:99:27:6b:a8:01:99:a8:fe:95:ab:
                    64:5e:5f:bd:8e:98:8d:46:5e:73:7e:ba:06:53:59:
                    96:73:3c:00:0f:f2:d3:9d:35:96:0b:30:d8:8f:2e:
                    8b:0b:0a:f4:6d:97:47:c5:d5:14:e5:3a:01:ed:90:
                    86:a4:02:35:49:9a:d3:6a:c9:9a:e1:74:b1:df:a5:
                    1f:0b
                Exponent: 65537 (0x10001)
        X509v3 extensions:
            X509v3 Key Usage: critical
                Digital Signature, Key Encipherment
            X509v3 Extended Key Usage: 
                TLS Web Client Authentication, TLS Web Server Authentication
            X509v3 Basic Constraints: critical
                CA:FALSE
            X509v3 Authority Key Identifier: 
                keyid:01:02:03

            X509v3 Certificate Policies: 
                Policy: 2.23.140.1.2.3

            Authority Information Access: critical
                OCSP - URI:http://ss.symcd.com
                CA Issuers - URI:http://ss.symcb.com/ss.crt

    Signature Algorithm: sha256WithRSAEncryption
         48:67:62:ef:05:9e:74:ee:60:b1:2e:6b:d4:72:d6:f2:87:87:
         7b:a9:b2:0b:5f:d9:04:1a:ad:59:31:92:db:f8:7c:61:11:3d:
         a3:a5:53:3e:6b:ae:06:5b:66:b7:19:97:2e:59:e9:b9:3e:0b:
         d0:03:b2:f3:3d:17:10:5e:1d:cb:37:01:91:05:24:a1:4b:78:
         67:a0:55:a5:bd:6a:b4:61:da:20:e4:b5:8f:85:80:ed:c1:f7:
         66:1a:22:a7:4e:37:b8:8f:01:e1:cb:09:f8:0a:4d:0f:99:41:
         85:e9:a7:3b:90:98:70:97:76:c2:80:16:6e:8b:49:60:28:10:
         b9:10:be:d3:e8:b0:05:80:19:38:d9:8d:f9:95:3a:08:15:05:
         69:f3:8c:ba:dc:34:a0:1b:d3:b6:27:00:4b:e7:47:3e:6f:17:
         9c:77:2c:a1:bc:c5:fd:17:52:9a:e1:e9:9c:75:5d:b0:cb:8d:
         53:ec:70:9a:e7:cb:c4:f1:12:74:bc:be:8f:3d:8b:a8:e6:5f:
         41:f9:f6:5d:0c:4b:e3:fa:34:91:a4:18:e4:3d:83:1c:b3:5f:
         08:cd:bc:a9:31:b0:68:27:d7:32:66:c4:d2:c6:19:43:ba:9b:
         93:90:e6:f5:27:df:6b:d3:b7:05:87:be:ef:df:be:75:bc:c6:
         22:ea:b6:4e
-----BEGIN CERTIFICATE-----
MIIEAzCCAu2gAwIBAgIFBDFmk+0wCwYJKoZIhvcNAQELMFQxFjAUBgNVBAMTDU1v
dGhlciBOYXR1cmUxEzARBgNVBAsTCkV2ZXJ5dGhpbmcxFjAUBgNVBAoTDU1vdGhl
ciBOYXR1cmUxCzAJBgNVBAYTAlVTMQAwHhcNMTcwODI0MDMzMjEwWhcNMTcxMTA1
MDMzMjEwWjByMQ8wDQYDVQQDEwZnb3YudXMxDjAMBgNVBAsTBUNoYW9zMRwwGgYD
VQQJExMzMjEwIEhvbGx5IE1pbGwgUnVuMQ4wDAYDVQQREwUzMDA2MjELMAkGA1UE
BhMCVVMxEjAQBgNVBCoTCWdpdmVuYW5tZTEAMIIBIjANBgkqhkiG9w0BAQEFAAOC
AQ8AMIIBCgKCAQEA11WtvKnnBx/sy+ArZ8tTTQ/VGu+8Mjfn8n57dM33heeDIyWx
Wfq2lqm601KpDveZ80pLfb/s79O5hNk9vPnlKi/Gz79cekrRhN7QrmPzAFLgTdNB
1o0JTDy4e1opeRT6fPk8YPyUFbCQ7hS14Lb1k9KpRZ4bPTb9HppvOND0Vc6q6+V7
d7/UL6/N4CXoK1o2yo9G68eia2/nby1bSXJxlj+y5x8g/uz56Wr4AJZOBNSy5HP8
ENEBl5kna6gBmaj+latkXl+9jpiNRl5zfroGU1mWczwAD/LTnTWWCzDYjy6LCwr0
bZdHxdUU5ToB7ZCGpAI1SZrTasma4XSx36UfCwIDAQABo4HBMIG+MA4GA1UdDwEB
/wQEAwIAoDAdBgNVHSUEFjAUBggrBgEFBQcDAgYIKwYBBQUHAwEwDAYDVR0TAQH/
BAIwADAOBgNVHSMEBzAFgAMBAgMwEwYDVR0gBAwwCjAIBgZngQwBAgMwWgYIKwYB
BQUHAQEBAf8ESzBJMB8GCCsGAQUFBzABhhNodHRwOi8vc3Muc3ltY2QuY29tMCYG
CCsGAQUFBzAChhpodHRwOi8vc3Muc3ltY2IuY29tL3NzLmNydDALBgkqhkiG9w0B
AQsDggEBAEhnYu8FnnTuYLEua9Ry1vKHh3upsgtf2QQarVkxktv4fGERPaOlUz5r
rgZbZrcZly5Z6bk+C9ADsvM9FxBeHcs3AZEFJKFLeGegVaW9arRh2iDktY+FgO3B
92YaIqdON7iPAeHLCfgKTQ+ZQYXppzuQmHCXdsKAFm6LSWAoELkQvtPosAWAGTjZ
jfmVOggVBWnzjLrcNKAb07YnAEvnRz5vF5x3LKG8xf0XUprh6Zx1XbDLjVPscJrn
y8TxEnS8vo89i6jmX0H59l0MS+P6NJGkGOQ9gxyzXwjNvKkxsGgn1zJmxNLGGUO6
m5OQ5vUn32vTtwWHvu/fvnW8xiLqtk4=
-----END CERTIFICATE-----
