Certificate:
    Data:
        Version: 3 (0x2)
        Serial Number: 18008675309 (0x4316693ed)
    Signature Algorithm: sha256WithRSAEncryption
        Issuer: C = US, O = Mother Nature, OU = Everything, CN = Mother Nature
        Validity
            Not Before: Jul  5 21:07:22 2016 GMT
            Not After : Sep 17 21:07:22 2016 GMT
        Subject: C = US, ST = FL, L = Tallahassee, street = 3210 Holly Mill Run, postalCode = 30062, O = Extreme Discord, OU = Chaos, CN = gov.us
        Subject Public Key Info:
            Public Key Algorithm: rsaEncryption
                Public-Key: (2048 bit)
                Modulus:
                    00:e0:5d:92:ca:9d:2f:e4:68:18:05:25:ce:e8:39:
                    8e:e9:94:df:e4:a7:ab:67:a5:f8:31:de:57:f7:b2:
                    89:89:9d:88:97:75:0a:1f:94:79:21:a7:ba:65:3f:
                    98:e2:ed:b7:13:f2:45:04:05:c3:78:23:9b:06:eb:
                    cf:88:fa:a0:32:7b:8f:19:ed:3d:fe:31:2c:73:ec:
                    42:18:00:9c:59:22:b6:95:2f:db:c1:4b:62:6f:07:
                    ab:ed:da:bf:38:9a:2f:03:0b:28:83:fa:4f:2b:1e:
                    d3:4b:87:ba:fc:c7:1f:03:9b:f2:c7:25:30:d2:46:
                    39:63:5f:cd:2c:f9:ef:66:61:37:3b:4e:07:d6:62:
                    f0:1b:b7:db:d9:e6:c9:6d:f7:d2:14:51:b2:f1:43:
                    62:09:c3:0a:5e:36:9b:6d:68:5d:0f:95:d3:2d:54:
                    be:62:d7:4f:8c:70:68:64:36:28:91:65:c3:75:d5:
                    20:e1:af:b2:28:f3:a4:2e:e1:a3:94:2a:e0:bd:36:
                    d5:a0:5b:51:18:01:bb:b3:3c:b9:6f:2e:7c:36:d5:
                    30:d5:e5:8b:14:e3:59:45:79:d0:3c:2e:aa:4c:e2:
                    02:dc:88:8a:ee:14:f1:60:0e:4e:11:7a:27:c8:f9:
                    cf:f5:8d:c0:29:11:d7:3f:b0:e6:0d:76:cf:b1:1e:
                    d3:0f
                Exponent: 65537 (0x10001)
        X509v3 extensions:
            X509v3 Basic Constraints: critical
                CA:TRUE
            X509v3 Authority Key Identifier: 
                keyid:01:02:03

            X509v3 Subject Key Identifier: 
                04:03:02:01
            X509v3 Subject Alternative Name: 
                DNS:*.gov.us, DNS:gov.us
            X509v3 Key Usage: 
                Digital Signature, Certificate Sign, CRL Sign
            X509v3 Certificate Policies: critical
                Policy: 2.16.840.1.114414.1.7.23.1
                  CPS: http://certificates.starfieldtech.com/repository/

    Signature Algorithm: sha256WithRSAEncryption
         5e:68:0b:07:e6:e9:92:a3:f6:28:62:23:59:56:de:68:f1:f7:
         2f:24:28:60:00:e9:6f:fc:6d:b3:3d:8d:60:e9:30:3f:0a:90:
         4f:9c:96:54:b0:f2:66:de:3a:a9:03:22:f7:bd:59:53:20:c8:
         a0:a4:28:a5:0c:a3:7a:89:47:25:4d:13:b4:12:bd:8a:a2:47:
         13:c4:2d:e7:79:14:1a:8b:00:ff:a7:b2:51:e8:ff:42:64:3c:
         32:07:fe:72:fb:11:0b:18:7e:a7:73:2a:8d:2f:01:09:d6:9b:
         1d:38:cb:bd:a0:11:71:96:4e:6f:3c:7d:05:2f:b1:71:53:94:
         aa:ac:c9:55:c3:1e:a6:d3:3b:e3:d8:99:ac:49:3a:b9:eb:ee:
         7d:07:79:e7:1f:1d:66:bd:7d:fb:af:03:b3:e4:d7:56:f9:48:
         a2:5a:e8:1b:53:32:30:5d:9f:a2:cc:3d:af:71:42:5a:42:a9:
         a2:27:f7:cb:c1:bd:98:6b:7a:5a:f1:f1:ad:b0:16:b4:0f:86:
         dc:3f:6f:00:24:b2:d0:d6:39:83:2d:0c:dc:ec:a9:5e:32:ee:
         82:75:e8:dc:b3:96:bd:78:64:b8:59:5c:b8:69:1b:6d:be:10:
         5a:3b:ae:c5:a2:86:2b:1a:df:94:48:c6:f9:7d:fd:42:a5:ab:
         b5:80:ae:68
-----BEGIN CERTIFICATE-----
MIIEJzCCAw+gAwIBAgIFBDFmk+0wDQYJKoZIhvcNAQELBQAwUjELMAkGA1UEBhMC
VVMxFjAUBgNVBAoTDU1vdGhlciBOYXR1cmUxEzARBgNVBAsTCkV2ZXJ5dGhpbmcx
FjAUBgNVBAMTDU1vdGhlciBOYXR1cmUwHhcNMTYwNzA1MjEwNzIyWhcNMTYwOTE3
MjEwNzIyWjCBmTELMAkGA1UEBhMCVVMxCzAJBgNVBAgTAkZMMRQwEgYDVQQHEwtU
YWxsYWhhc3NlZTEcMBoGA1UECRMTMzIxMCBIb2xseSBNaWxsIFJ1bjEOMAwGA1UE
ERMFMzAwNjIxGDAWBgNVBAoTD0V4dHJlbWUgRGlzY29yZDEOMAwGA1UECxMFQ2hh
b3MxDzANBgNVBAMTBmdvdi51czCCASIwDQYJKoZIhvcNAQEBBQADggEPADCCAQoC
ggEBAOBdksqdL+RoGAUlzug5jumU3+Snq2el+DHeV/eyiYmdiJd1Ch+UeSGnumU/
mOLttxPyRQQFw3gjmwbrz4j6oDJ7jxntPf4xLHPsQhgAnFkitpUv28FLYm8Hq+3a
vziaLwMLKIP6Tyse00uHuvzHHwOb8sclMNJGOWNfzSz572ZhNztOB9Zi8Bu329nm
yW330hRRsvFDYgnDCl42m21oXQ+V0y1UvmLXT4xwaGQ2KJFlw3XVIOGvsijzpC7h
o5Qq4L021aBbURgBu7M8uW8ufDbVMNXlixTjWUV50DwuqkziAtyIiu4U8WAOThF6
J8j5z/WNwCkR1z+w5g12z7Ee0w8CAwEAAaOBuzCBuDAPBgNVHRMBAf8EBTADAQH/
MA4GA1UdIwQHMAWAAwECAzANBgNVHQ4EBgQEBAMCATAbBgNVHREEFDASgggqLmdv
di51c4IGZ292LnVzMAsGA1UdDwQEAwIBhjBcBgNVHSABAf8EUjBQME4GC2CGSAGG
/W4BBxcBMD8wPQYIKwYBBQUHAgEWMWh0dHA6Ly9jZXJ0aWZpY2F0ZXMuc3RhcmZp
ZWxkdGVjaC5jb20vcmVwb3NpdG9yeS8wDQYJKoZIhvcNAQELBQADggEBAF5oCwfm
6ZKj9ihiI1lW3mjx9y8kKGAA6W/8bbM9jWDpMD8KkE+cllSw8mbeOqkDIve9WVMg
yKCkKKUMo3qJRyVNE7QSvYqiRxPELed5FBqLAP+nslHo/0JkPDIH/nL7EQsYfqdz
Ko0vAQnWmx04y72gEXGWTm88fQUvsXFTlKqsyVXDHqbTO+PYmaxJOrnr7n0Heecf
HWa9ffuvA7Pk11b5SKJa6BtTMjBdn6LMPa9xQlpCqaIn98vBvZhrelrx8a2wFrQP
htw/bwAkstDWOYMtDNzsqV4y7oJ16Nyzlr14ZLhZXLhpG22+EFo7rsWihisa35RI
xvl9/UKlq7WArmg=
-----END CERTIFICATE-----
