Certificate:
    Data:
        Version: 3 (0x2)
        Serial Number: 18008675309 (0x4316693ed)
    Signature Algorithm: sha256WithRSAEncryption
        Issuer: C=US, O=Mother Nature, OU=Everything, CN=Mother Nature
        Validity
            Not Before: Aug 22 21:25:43 2017 GMT
            Not After : Nov  3 21:25:43 2017 GMT
        Subject: C=US, ST=FL, L=Tallahassee/street=3210 Holly Mill Run/postalCode=30062, O=Extreme Discord, OU=Chaos, CN=gov.us
        Subject Public Key Info:
            Public Key Algorithm: rsaEncryption
                Public-Key: (2048 bit)
                Modulus:
                    00:d5:f1:de:1c:14:f7:e6:1e:11:f8:d8:09:17:4f:
                    12:10:d8:19:c4:b4:95:cb:47:24:c9:e6:c2:eb:a1:
                    90:59:28:c2:13:f9:bc:e7:a2:85:d2:0b:6f:41:e3:
                    54:49:63:0a:4f:47:b2:eb:4a:3f:37:56:f1:f4:fd:
                    7f:bf:4a:06:dc:8d:75:6d:09:27:ef:67:ad:2c:29:
                    c8:4c:54:ae:17:b4:55:17:8d:3f:c4:7d:a5:3d:c7:
                    0b:2c:44:d9:66:bf:b3:a6:61:14:8e:41:1c:0b:b1:
                    6e:0d:1a:a2:f9:da:6f:ba:2a:47:45:e6:44:fd:8d:
                    9c:c2:9d:f7:0b:57:16:33:9f:49:25:bc:bb:ba:47:
                    1a:0b:7f:67:22:db:13:4e:ac:cf:3d:96:86:a4:f2:
                    e4:46:0f:02:8d:2c:a2:3b:36:62:99:30:38:a8:2a:
                    13:e6:fd:12:19:c9:aa:d6:74:e3:95:13:6e:f1:8a:
                    47:af:c1:56:32:04:cc:92:19:d2:b9:f6:70:23:49:
                    4f:11:e9:d1:ae:9e:f7:76:ff:1d:dc:26:06:fd:ba:
                    ec:f4:c4:a4:79:38:80:b9:65:13:13:11:b8:b4:59:
                    da:49:16:c3:28:57:72:0b:29:70:7a:08:e6:1e:89:
                    91:2b:7c:e7:fc:47:b6:70:1f:60:f3:d7:c4:f8:6f:
                    f4:79
                Exponent: 65537 (0x10001)
        X509v3 extensions:
            X509v3 Key Usage: critical
                Digital Signature, Key Encipherment
            X509v3 Extended Key Usage: 
                Code Signing
            X509v3 Basic Constraints: critical
                CA:TRUE
            X509v3 Authority Key Identifier: 
                keyid:01:02:03

            Authority Information Access: 
                OCSP - URI:http://theca.net/ocsp
                CA Issuers - URI:http://theca.net/totallythecert.crt

            X509v3 Certificate Policies: 
                Policy: 2.23.140.1.2.2

    Signature Algorithm: sha256WithRSAEncryption
         6c:eb:04:7e:5f:b8:bd:e7:2e:d3:03:82:14:59:27:fa:aa:c5:
         8f:b5:5e:88:7e:cd:62:af:8f:c9:ec:a5:cf:cf:06:6b:6f:ba:
         62:f0:d3:62:b4:c4:f5:d9:48:3a:94:44:42:f8:8c:5b:ee:90:
         66:8b:24:05:22:47:9d:f7:d7:fc:43:2b:e1:f1:0b:b5:88:63:
         1e:2c:61:66:6a:db:6e:20:a6:6e:52:11:dd:48:53:0c:d3:b8:
         29:68:b7:d8:0d:48:95:1f:05:3e:db:cf:13:0c:d8:09:20:2a:
         3b:71:66:28:2b:72:fe:38:e0:fb:53:aa:1f:b5:68:68:79:d4:
         19:42:e9:1f:73:c1:c2:29:9b:58:74:1d:04:e0:23:09:98:32:
         57:ef:0e:58:60:6b:9b:2f:2d:a9:c0:de:74:c1:34:65:8e:b7:
         e9:7b:d8:df:3c:87:7c:15:f6:2c:f1:0b:01:8c:7d:b9:27:94:
         8d:73:23:ab:ac:d5:3f:70:66:77:38:de:97:26:6c:02:d9:64:
         ec:dd:cf:3b:7c:fd:40:15:a9:f0:7e:2a:5c:92:2b:96:e8:ed:
         32:cb:6a:0e:01:f8:db:25:41:c4:30:70:39:23:6c:80:21:ff:
         ad:d7:a3:bd:e1:c1:81:f7:8d:8e:be:c3:1d:54:3f:59:4e:e8:
         ec:1c:d5:88
-----BEGIN CERTIFICATE-----
MIIELjCCAxagAwIBAgIFBDFmk+0wDQYJKoZIhvcNAQELBQAwUjELMAkGA1UEBhMC
VVMxFjAUBgNVBAoTDU1vdGhlciBOYXR1cmUxEzARBgNVBAsTCkV2ZXJ5dGhpbmcx
FjAUBgNVBAMTDU1vdGhlciBOYXR1cmUwHhcNMTcwODIyMjEyNTQzWhcNMTcxMTAz
MjEyNTQzWjCBmTELMAkGA1UEBhMCVVMxCzAJBgNVBAgTAkZMMRQwEgYDVQQHEwtU
YWxsYWhhc3NlZTEcMBoGA1UECRMTMzIxMCBIb2xseSBNaWxsIFJ1bjEOMAwGA1UE
ERMFMzAwNjIxGDAWBgNVBAoTD0V4dHJlbWUgRGlzY29yZDEOMAwGA1UECxMFQ2hh
b3MxDzANBgNVBAMTBmdvdi51czCCASIwDQYJKoZIhvcNAQEBBQADggEPADCCAQoC
ggEBANXx3hwU9+YeEfjYCRdPEhDYGcS0lctHJMnmwuuhkFkowhP5vOeihdILb0Hj
VEljCk9HsutKPzdW8fT9f79KBtyNdW0JJ+9nrSwpyExUrhe0VReNP8R9pT3HCyxE
2Wa/s6ZhFI5BHAuxbg0aovnab7oqR0XmRP2NnMKd9wtXFjOfSSW8u7pHGgt/ZyLb
E06szz2WhqTy5EYPAo0sojs2YpkwOKgqE+b9EhnJqtZ045UTbvGKR6/BVjIEzJIZ
0rn2cCNJTxHp0a6e93b/HdwmBv267PTEpHk4gLllExMRuLRZ2kkWwyhXcgspcHoI
5h6JkSt85/xHtnAfYPPXxPhv9HkCAwEAAaOBwjCBvzAOBgNVHQ8BAf8EBAMCBaAw
EwYDVR0lBAwwCgYIKwYBBQUHAwMwDwYDVR0TAQH/BAUwAwEB/zAOBgNVHSMEBzAF
gAMBAgMwYgYIKwYBBQUHAQEEVjBUMCEGCCsGAQUFBzABhhVodHRwOi8vdGhlY2Eu
bmV0L29jc3AwLwYIKwYBBQUHMAKGI2h0dHA6Ly90aGVjYS5uZXQvdG90YWxseXRo
ZWNlcnQuY3J0MBMGA1UdIAQMMAowCAYGZ4EMAQICMA0GCSqGSIb3DQEBCwUAA4IB
AQBs6wR+X7i95y7TA4IUWSf6qsWPtV6Ifs1ir4/J7KXPzwZrb7pi8NNitMT12Ug6
lERC+Ixb7pBmiyQFIked99f8Qyvh8Qu1iGMeLGFmattuIKZuUhHdSFMM07gpaLfY
DUiVHwU+288TDNgJICo7cWYoK3L+OOD7U6oftWhoedQZQukfc8HCKZtYdB0E4CMJ
mDJX7w5YYGubLy2pwN50wTRljrfpe9jfPId8FfYs8QsBjH25J5SNcyOrrNU/cGZ3
ON6XJmwC2WTs3c87fP1AFanwfipckiuW6O0yy2oOAfjbJUHEMHA5I2yAIf+t16O9
4cGB942OvsMdVD9ZTujsHNWI
-----END CERTIFICATE-----
