Certificate:
    Data:
        Version: 3 (0x2)
        Serial Number: 18008675309 (0x4316693ed)
        Signature Algorithm: sha256WithRSAEncryption
        Issuer: CN = Mother Nature, OU = Everything, O = Mother Nature, C = US
        Validity
            Not Before: Aug 24 03:18:47 2017 GMT
            Not After : Nov  5 03:18:47 2017 GMT
        Subject: CN = gov.us, OU = Chaos, street = 3210 Holly Mill Run, postalCode = 30062, C = US, GN = givenname
        Subject Public Key Info:
            Public Key Algorithm: rsaEncryption
                RSA Public-Key: (2048 bit)
                Modulus:
                    00:bb:43:53:50:31:67:26:64:ec:06:23:29:59:58:
                    38:54:b7:95:9e:00:98:e5:a0:47:5d:18:54:97:c5:
                    60:e1:61:f3:2b:e1:d7:22:ba:89:59:96:88:a5:72:
                    14:61:7a:92:70:81:15:95:41:87:1d:9b:1e:88:a6:
                    d4:b9:f4:46:d0:c7:11:31:1a:3a:5e:c5:96:72:96:
                    cc:50:d6:65:f9:13:8a:88:a3:81:f6:4a:8c:9b:64:
                    a4:3f:89:5b:2e:5f:3a:d3:1f:7a:8e:db:1e:a3:77:
                    0d:ce:f6:95:26:9d:46:1a:11:06:67:93:88:eb:6a:
                    66:4a:54:49:bf:0c:65:28:57:a7:d1:a6:28:87:b1:
                    37:b3:2d:13:3c:f7:00:e3:59:1b:f9:f6:92:8b:a8:
                    ae:85:54:a2:0a:a2:33:cd:8f:a8:ca:8e:13:ff:9c:
                    b4:61:62:94:92:9e:4c:ee:f7:04:db:0e:01:4a:16:
                    43:53:11:ae:67:af:50:fe:64:3d:31:08:87:99:e3:
                    12:75:35:87:a0:1e:00:75:bc:6e:85:21:a4:0e:06:
                    38:26:fb:34:49:d7:78:3a:b3:61:f8:61:91:8e:fe:
                    20:bb:ed:66:e4:1a:a0:2e:14:b2:d3:1a:66:32:4d:
                    89:ef:7c:e4:2c:c6:99:b1:8b:ab:d2:23:02:a3:44:
                    5b:45
                Exponent: 65537 (0x10001)
        X509v3 extensions:
            X509v3 Key Usage: critical
                Digital Signature, Key Encipherment
            X509v3 Extended Key Usage: 
                TLS Web Client Authentication, TLS Web Server Authentication
            X509v3 Basic Constraints: critical
                CA:FALSE
            X509v3 Authority Key Identifier: 
                keyid:01:02:03

            X509v3 Certificate Policies: 
                Policy: 2.23.140.1.2.3

            Authority Information Access: critical
                OCSP - URI:http://ss.symcd.com
                CA Issuers - URI:http://ss.symcb.com/ss.crt

    Signature Algorithm: sha256WithRSAEncryption
         e1:e2:e0:57:31:46:68:51:23:98:97:93:a3:5d:7d:cc:d1:42:
         f3:c0:87:dc:a6:e1:76:54:49:99:9a:91:09:e4:20:4a:a0:4a:
         bb:05:8d:d7:a0:87:cc:c9:0a:9a:50:6e:85:8b:63:66:1e:c9:
         b2:48:45:9e:52:28:48:0b:5e:62:ec:0f:3b:e2:71:fe:37:ee:
         df:d2:1d:67:59:a1:5c:c6:38:6f:78:ea:a3:cb:43:ac:6e:ce:
         63:bd:f6:35:98:e4:7c:49:9e:a0:80:67:0f:b8:ae:88:02:04:
         10:ba:ad:c4:35:97:04:0d:59:4e:ee:1a:07:34:a5:55:ae:5f:
         fc:5a:e3:65:f3:d6:6a:ba:4b:61:7c:41:dd:9a:e7:c7:19:a0:
         71:a3:3e:f3:14:c5:7e:ec:ec:73:59:e8:df:16:90:c5:59:ce:
         2c:fc:7b:36:2d:24:2f:ac:39:ef:5e:2c:12:58:93:2f:bd:3a:
         bd:7b:1a:2b:52:9e:43:25:f1:5f:56:63:91:36:89:26:4f:8b:
         8d:f9:10:a9:32:ef:e9:97:7c:87:7c:d7:34:f2:ff:ad:c2:89:
         21:bc:61:bf:ac:cb:50:3d:e4:50:3e:8b:cd:48:58:7d:d8:35:
         d8:c3:84:51:c3:b6:a0:29:10:5b:6f:41:ec:cb:e4:24:63:90:
         b2:a1:19:6a
-----BEGIN CERTIFICATE-----
MIIEAzCCAu2gAwIBAgIFBDFmk+0wCwYJKoZIhvcNAQELMFQxFjAUBgNVBAMTDU1v
dGhlciBOYXR1cmUxEzARBgNVBAsTCkV2ZXJ5dGhpbmcxFjAUBgNVBAoTDU1vdGhl
ciBOYXR1cmUxCzAJBgNVBAYTAlVTMQAwHhcNMTcwODI0MDMxODQ3WhcNMTcxMTA1
MDMxODQ3WjByMQ8wDQYDVQQDEwZnb3YudXMxDjAMBgNVBAsTBUNoYW9zMRwwGgYD
VQQJExMzMjEwIEhvbGx5IE1pbGwgUnVuMQ4wDAYDVQQREwUzMDA2MjELMAkGA1UE
BhMCVVMxEjAQBgNVBCoTCWdpdmVubmFtZTEAMIIBIjANBgkqhkiG9w0BAQEFAAOC
AQ8AMIIBCgKCAQEAu0NTUDFnJmTsBiMpWVg4VLeVngCY5aBHXRhUl8Vg4WHzK+HX
IrqJWZaIpXIUYXqScIEVlUGHHZseiKbUufRG0McRMRo6XsWWcpbMUNZl+ROKiKOB
9kqMm2SkP4lbLl860x96jtseo3cNzvaVJp1GGhEGZ5OI62pmSlRJvwxlKFen0aYo
h7E3sy0TPPcA41kb+faSi6iuhVSiCqIzzY+oyo4T/5y0YWKUkp5M7vcE2w4BShZD
UxGuZ69Q/mQ9MQiHmeMSdTWHoB4AdbxuhSGkDgY4Jvs0Sdd4OrNh+GGRjv4gu+1m
5BqgLhSy0xpmMk2J73zkLMaZsYur0iMCo0RbRQIDAQABo4HBMIG+MA4GA1UdDwEB
/wQEAwIAoDAdBgNVHSUEFjAUBggrBgEFBQcDAgYIKwYBBQUHAwEwDAYDVR0TAQH/
BAIwADAOBgNVHSMEBzAFgAMBAgMwEwYDVR0gBAwwCjAIBgZngQwBAgMwWgYIKwYB
BQUHAQEBAf8ESzBJMB8GCCsGAQUFBzABhhNodHRwOi8vc3Muc3ltY2QuY29tMCYG
CCsGAQUFBzAChhpodHRwOi8vc3Muc3ltY2IuY29tL3NzLmNydDALBgkqhkiG9w0B
AQsDggEBAOHi4FcxRmhRI5iXk6NdfczRQvPAh9ym4XZUSZmakQnkIEqgSrsFjdeg
h8zJCppQboWLY2YeybJIRZ5SKEgLXmLsDzvicf437t/SHWdZoVzGOG946qPLQ6xu
zmO99jWY5HxJnqCAZw+4rogCBBC6rcQ1lwQNWU7uGgc0pVWuX/xa42Xz1mq6S2F8
Qd2a58cZoHGjPvMUxX7s7HNZ6N8WkMVZziz8ezYtJC+sOe9eLBJYky+9Or17GitS
nkMl8V9WY5E2iSZPi435EKky7+mXfId81zTy/63CiSG8Yb+sy1A95FA+i81IWH3Y
NdjDhFHDtqApEFtvQezL5CRjkLKhGWo=
-----END CERTIFICATE-----
-----BEGIN CERTIFICATE-----
MIIEAzCCAu2gAwIBAgIFBDFmk+0wCwYJKoZIhvcNAQELMFQxFjAUBgNVBAMTDU1v
dGhlciBOYXR1cmUxEzARBgNVBAsTCkV2ZXJ5dGhpbmcxFjAUBgNVBAoTDU1vdGhl
ciBOYXR1cmUxCzAJBgNVBAYTAlVTMQAwHhcNMTcwODI0MDMxODQ3WhcNMTcxMTA1
MDMxODQ3WjByMQ8wDQYDVQQDEwZnb3YudXMxDjAMBgNVBAsTBUNoYW9zMRwwGgYD
VQQJExMzMjEwIEhvbGx5IE1pbGwgUnVuMQ4wDAYDVQQREwUzMDA2MjELMAkGA1UE
BhMCVVMxEjAQBgNVBCoTCWdpdmVubmFtZTEAMIIBIjANBgkqhkiG9w0BAQEFAAOC
AQ8AMIIBCgKCAQEAu0NTUDFnJmTsBiMpWVg4VLeVngCY5aBHXRhUl8Vg4WHzK+HX
IrqJWZaIpXIUYXqScIEVlUGHHZseiKbUufRG0McRMRo6XsWWcpbMUNZl+ROKiKOB
9kqMm2SkP4lbLl860x96jtseo3cNzvaVJp1GGhEGZ5OI62pmSlRJvwxlKFen0aYo
h7E3sy0TPPcA41kb+faSi6iuhVSiCqIzzY+oyo4T/5y0YWKUkp5M7vcE2w4BShZD
UxGuZ69Q/mQ9MQiHmeMSdTWHoB4AdbxuhSGkDgY4Jvs0Sdd4OrNh+GGRjv4gu+1m
5BqgLhSy0xpmMk2J73zkLMaZsYur0iMCo0RbRQIDAQABo4HBMIG+MA4GA1UdDwEB
/wQEAwIAoDAdBgNVHSUEFjAUBggrBgEFBQcDAgYIKwYBBQUHAwEwDAYDVR0TAQH/
BAIwADAOBgNVHSMEBzAFgAMBAgMwEwYDVR0gBAwwCjAIBgZngQwBAgMwWgYIKwYB
BQUHAQEBAf8ESzBJMB8GCCsGAQUFBzABhhNodHRwOi8vc3Muc3ltY2QuY29tMCYG
CCsGAQUFBzAChhpodHRwOi8vc3Muc3ltY2IuY29tL3NzLmNydDALBgkqhkiG9w0B
AQsDggEBAOHi4FcxRmhRI5iXk6NdfczRQvPAh9ym4XZUSZmakQnkIEqgSrsFjdeg
h8zJCppQboWLY2YeybJIRZ5SKEgLXmLsDzvicf437t/SHWdZoVzGOG946qPLQ6xu
zmO99jWY5HxJnqCAZw+4rogCBBC6rcQ1lwQNWU7uGgc0pVWuX/xa42Xz1mq6S2F8
Qd2a58cZoHGjPvMUxX7s7HNZ6N8WkMVZziz8ezYtJC+sOe9eLBJYky+9Or17GitS
nkMl8V9WY5E2iSZPi435EKky7+mXfId81zTy/63CiSG8Yb+sy1A95FA+i81IWH3Y
NdjDhFHDtqApEFtvQezL5CRjkLKhGWo=
-----END CERTIFICATE-----
