Certificate:
    Data:
        Version: 3 (0x2)
        Serial Number: 1 (0x1)
    Signature Algorithm: sha256WithRSAEncryption
        Issuer: CN=Mother Nature, OU=Everything, O=Mother Nature/postalCode=postalcode, C=US, GN=givenname, SN=surname
        Validity
            Not Before: Aug 31 02:10:54 2017 GMT
            Not After : Dec  2 03:10:54 2020 GMT
        Subject: CN=gov.us, OU=Chaos, O=org/street=3210 Holly Mill Run, ST=province/postalCode=30062, GN=hello, SN=surname
        Subject Public Key Info:
            Public Key Algorithm: rsaEncryption
                Public-Key: (2048 bit)
                Modulus:
                    00:ce:d7:7a:e3:ed:ce:8b:b3:e9:74:4b:62:e5:67:
                    6a:20:f7:38:3f:e6:fc:fc:cf:2e:21:0c:3d:72:0b:
                    80:d2:c7:ae:54:d0:1b:6a:e0:07:ec:b7:0a:ab:63:
                    fa:9a:a5:89:fc:08:6c:4f:7e:f9:2c:ad:69:59:15:
                    e3:9d:9f:5f:cd:04:4c:24:1c:1b:4a:8b:f4:cf:bd:
                    8e:99:ac:e0:3b:ea:04:9f:df:b7:04:50:de:73:04:
                    28:6d:0c:eb:f1:8f:bc:a1:8a:59:12:9f:d5:0c:39:
                    e3:eb:e0:cd:ba:28:86:1b:d7:3b:d4:7e:f1:47:db:
                    90:e1:20:4b:e2:13:06:d2:91:66:8b:4d:57:d3:f3:
                    90:f2:4f:98:07:52:95:fc:e9:0a:68:63:7c:88:78:
                    26:0a:78:41:23:f8:53:dd:a8:85:63:5c:48:1f:3e:
                    fd:2f:e1:0a:22:83:4d:0c:3e:af:6b:ac:8a:c7:f6:
                    94:75:3e:78:aa:14:54:e7:ec:ce:a5:9c:30:71:89:
                    f0:ad:ac:56:42:59:e3:dd:c8:ef:45:08:f2:6e:dc:
                    8f:91:71:b5:e0:7d:18:19:19:56:94:31:5a:1d:21:
                    4d:bd:d5:c1:0c:c0:ce:72:44:40:7b:38:2e:e1:b2:
                    59:6d:d8:7f:f9:b5:bc:79:aa:24:e0:64:4b:b5:69:
                    50:43
                Exponent: 65537 (0x10001)
        X509v3 extensions:
            X509v3 Key Usage: critical
                Digital Signature, Key Encipherment, Certificate Sign
            X509v3 Extended Key Usage: 
                TLS Web Client Authentication, TLS Web Server Authentication
            X509v3 Basic Constraints: critical
                CA:FALSE
            X509v3 Authority Key Identifier: 
                keyid:01:02:03

            Authority Information Access: 
                OCSP - URI:http://theca.net/ocsp
                CA Issuers - URI:http://theca.net/totallythecert.crt

            X509v3 Subject Alternative Name: 
                DNS:hell,o.com.uk
            X509v3 Certificate Policies: 
                Policy: X509v3 Any Policy

    Signature Algorithm: sha256WithRSAEncryption
         4d:22:14:c1:4f:a5:90:84:80:ee:7b:ab:c2:1f:3b:d0:04:43:
         0f:51:0e:0b:c4:cc:ac:d3:13:3e:cc:d2:73:48:c8:b1:cc:0a:
         72:d6:38:5c:50:7c:28:33:9c:0f:cc:b2:a6:e4:02:70:21:32:
         52:04:04:dc:9e:53:bc:2f:96:5e:4b:4a:87:37:94:02:9a:d2:
         9d:d1:9f:8e:2b:f9:3a:27:3c:09:ae:a0:c8:bd:e3:c9:46:d6:
         d6:da:36:b3:a3:e9:43:44:c8:b1:3f:52:dd:a6:34:a5:d3:cb:
         8c:94:d3:ae:39:c2:1e:ce:7b:03:a8:7f:19:99:00:4f:79:91:
         cf:f8:42:48:a0:4b:d4:9a:af:36:7c:ec:0e:1f:1e:65:95:7a:
         05:0e:38:a4:18:36:ea:6c:64:57:e6:96:32:27:3f:28:f7:13:
         4c:51:7d:05:2c:cb:0a:39:d4:b6:94:44:59:a6:2a:21:56:d5:
         dc:92:d3:45:5c:41:53:a7:c9:bb:e1:88:07:36:60:3d:61:12:
         fe:cd:bd:87:fa:60:59:43:20:76:44:c7:c3:12:cb:aa:3e:1d:
         0f:18:0d:89:0c:da:69:3a:ff:8e:f2:5c:ce:0f:78:b5:7c:d5:
         c8:00:9b:4e:8f:9d:46:36:20:2a:4f:df:53:e7:a5:4a:36:98:
         fb:11:26:0e
-----BEGIN CERTIFICATE-----
MIIEfjCCA2igAwIBAgIBATALBgkqhkiG9w0BAQswgY8xFjAUBgNVBAMTDU1vdGhl
ciBOYXR1cmUxEzARBgNVBAsTCkV2ZXJ5dGhpbmcxFjAUBgNVBAoTDU1vdGhlciBO
YXR1cmUxEzARBgNVBBETCnBvc3RhbGNvZGUxCzAJBgNVBAYTAlVTMRIwEAYDVQQq
EwlnaXZlbm5hbWUxEDAOBgNVBAQTB3N1cm5hbWUxADAeFw0xNzA4MzEwMjEwNTRa
Fw0yMDEyMDIwMzEwNTRaMIGUMQ8wDQYDVQQDEwZnb3YudXMxDjAMBgNVBAsTBUNo
YW9zMQwwCgYDVQQKEwNvcmcxHDAaBgNVBAkTEzMyMTAgSG9sbHkgTWlsbCBSdW4x
ETAPBgNVBAgTCHByb3ZpbmNlMQ4wDAYDVQQREwUzMDA2MjEOMAwGA1UEKhMFaGVs
bG8xEDAOBgNVBAQTB3N1cm5hbWUxADCCASIwDQYJKoZIhvcNAQEBBQADggEPADCC
AQoCggEBAM7XeuPtzouz6XRLYuVnaiD3OD/m/PzPLiEMPXILgNLHrlTQG2rgB+y3
Cqtj+pqlifwIbE9++SytaVkV452fX80ETCQcG0qL9M+9jpms4DvqBJ/ftwRQ3nME
KG0M6/GPvKGKWRKf1Qw54+vgzboohhvXO9R+8UfbkOEgS+ITBtKRZotNV9PzkPJP
mAdSlfzpCmhjfIh4Jgp4QSP4U92ohWNcSB8+/S/hCiKDTQw+r2usisf2lHU+eKoU
VOfszqWcMHGJ8K2sVkJZ493I70UI8m7cj5FxteB9GBkZVpQxWh0hTb3VwQzAznJE
QHs4LuGyWW3Yf/m1vHmqJOBkS7VpUEMCAwEAAaOB4TCB3jAOBgNVHQ8BAf8EBAMC
AKQwHQYDVR0lBBYwFAYIKwYBBQUHAwIGCCsGAQUFBwMBMAwGA1UdEwEB/wQCMAAw
DgYDVR0jBAcwBYADAQIDMGIGCCsGAQUFBwEBBFYwVDAhBggrBgEFBQcwAYYVaHR0
cDovL3RoZWNhLm5ldC9vY3NwMC8GCCsGAQUFBzAChiNodHRwOi8vdGhlY2EubmV0
L3RvdGFsbHl0aGVjZXJ0LmNydDAYBgNVHREEETAPgg1oZWxsLG8uY29tLnVrMBEG
A1UdIAQKMAgwBgYEVR0gADALBgkqhkiG9w0BAQsDggEBAE0iFMFPpZCEgO57q8If
O9AEQw9RDgvEzKzTEz7M0nNIyLHMCnLWOFxQfCgznA/MsqbkAnAhMlIEBNyeU7wv
ll5LSoc3lAKa0p3Rn44r+TonPAmuoMi948lG1tbaNrOj6UNEyLE/Ut2mNKXTy4yU
0645wh7OewOofxmZAE95kc/4QkigS9SarzZ87A4fHmWVegUOOKQYNupsZFfmljIn
Pyj3E0xRfQUsywo51LaURFmmKiFW1dyS00VcQVOnybvhiAc2YD1hEv7NvYf6YFlD
IHZEx8MSy6o+HQ8YDYkM2mk6/47yXM4PeLV81cgAm06PnUY2ICpP31PnpUo2mPsR
Jg4=
-----END CERTIFICATE-----
