Certificate:
    Data:
        Version: 3 (0x2)
        Serial Number: 18008675309 (0x4316693ed)
    Signature Algorithm: sha256WithRSAEncryption
        Issuer: C=US, O=Mother Nature, OU=Everything, CN=Mother Nature
        Validity
            Not Before: Aug 22 16:32:21 2017 GMT
            Not After : Nov  3 16:32:21 2017 GMT
        Subject: C=US, ST=FL, L=Tallahassee/street=3210 Holly Mill Run/postalCode=30062, O=Extreme Discord, OU=Chaos, CN=gov.us
        Subject Public Key Info:
            Public Key Algorithm: rsaEncryption
                Public-Key: (2048 bit)
                Modulus:
                    00:bf:58:05:bf:d7:d1:6c:7c:c2:53:23:ce:52:9d:
                    d8:cc:32:5c:e5:92:05:b0:cf:34:7d:a9:af:88:99:
                    b7:28:f6:6a:d0:70:84:8e:d9:f0:5d:6d:8c:80:35:
                    20:39:73:e3:ce:b1:ae:28:20:19:84:49:7b:2c:3d:
                    7d:11:5b:31:8c:b2:82:04:2f:a2:8d:e8:8f:92:14:
                    2a:c4:b2:08:9c:f4:d5:49:70:57:cd:2d:bd:50:bf:
                    af:cd:58:cb:ad:a4:b9:f3:b0:08:34:28:6f:fa:35:
                    da:1e:ff:e7:e6:ed:51:dd:98:2a:b9:91:91:ee:db:
                    0e:ee:7e:f3:50:a8:5d:c4:74:b6:5c:7c:13:4b:d1:
                    25:57:b2:4e:e9:48:7d:a8:39:75:fd:95:80:a4:d5:
                    cf:8a:33:64:4c:a2:bf:e7:a9:f6:d7:18:6f:83:50:
                    ae:6c:8e:90:af:67:a5:d5:a2:70:d7:17:ca:5b:0d:
                    e8:56:a0:ec:96:8a:45:9d:4d:66:06:9c:ac:75:9f:
                    5d:c8:cb:c4:d5:de:b6:31:12:eb:40:9c:c1:28:60:
                    18:57:df:8b:81:1f:71:ce:d5:b8:2e:e6:57:57:fd:
                    4a:3d:5e:9c:99:be:19:de:69:de:b3:82:01:3c:c5:
                    dd:73:c1:28:98:92:8e:63:10:fe:44:55:ae:fe:84:
                    77:c5
                Exponent: 65537 (0x10001)
        X509v3 extensions:
            X509v3 Key Usage: critical
                Digital Signature, Key Encipherment
            X509v3 Basic Constraints: critical
                CA:TRUE
            X509v3 Authority Key Identifier: 
                keyid:01:02:03

            Authority Information Access: 
                OCSP - URI:http://theca.net/ocsp
                CA Issuers - URI:http://theca.net/totallythecert.crt

            X509v3 Certificate Policies: 
                Policy: 2.23.140.1.2.2

            X509v3 Extended Key Usage: 
                TLS Web Server Authentication, TLS Web Client Authentication
    Signature Algorithm: sha256WithRSAEncryption
         59:f9:01:68:f3:b4:70:09:6d:f4:43:a5:43:20:68:eb:cc:b5:
         c4:09:cc:a0:71:ab:23:cf:e9:09:08:57:25:64:d3:8c:02:35:
         99:95:cb:d4:79:6c:8a:25:c2:47:c4:ba:63:b2:d1:d9:2c:cb:
         70:bf:46:1e:7b:8b:77:93:a3:e8:31:cf:c0:ba:1f:32:7b:3d:
         4e:62:1c:ab:c9:0b:4b:23:30:b7:92:b9:41:17:c4:40:68:c5:
         bf:9d:54:ef:35:e6:2a:17:f6:b6:78:78:c0:3a:01:75:6d:12:
         9d:81:4d:61:1a:25:64:27:4a:b4:ba:69:a5:75:3d:27:90:85:
         1b:a3:e3:c1:c3:4d:3d:fa:99:ae:e3:8f:f2:26:97:de:22:9f:
         f8:d6:31:4c:db:58:d2:e2:52:46:79:25:e9:26:63:6f:86:7f:
         d2:f3:4f:3c:82:99:06:f6:18:46:9d:e0:c7:66:05:6d:69:6e:
         d5:c3:7a:c1:94:eb:cd:dd:c8:7e:c4:c0:45:cb:e7:cf:55:56:
         e8:b5:ce:22:c9:e2:7f:1a:95:b6:2f:33:9d:7e:75:a3:a4:2e:
         89:74:8b:7f:7f:6b:23:0a:89:67:e9:13:60:90:1b:df:cb:22:
         0d:29:91:6e:c0:9d:4a:c6:b1:85:e9:a5:a5:4d:d4:24:cc:ba:
         13:f0:2d:75
-----BEGIN CERTIFICATE-----
MIIEODCCAyCgAwIBAgIFBDFmk+0wDQYJKoZIhvcNAQELBQAwUjELMAkGA1UEBhMC
VVMxFjAUBgNVBAoTDU1vdGhlciBOYXR1cmUxEzARBgNVBAsTCkV2ZXJ5dGhpbmcx
FjAUBgNVBAMTDU1vdGhlciBOYXR1cmUwHhcNMTcwODIyMTYzMjIxWhcNMTcxMTAz
MTYzMjIxWjCBmTELMAkGA1UEBhMCVVMxCzAJBgNVBAgTAkZMMRQwEgYDVQQHEwtU
YWxsYWhhc3NlZTEcMBoGA1UECRMTMzIxMCBIb2xseSBNaWxsIFJ1bjEOMAwGA1UE
ERMFMzAwNjIxGDAWBgNVBAoTD0V4dHJlbWUgRGlzY29yZDEOMAwGA1UECxMFQ2hh
b3MxDzANBgNVBAMTBmdvdi51czCCASIwDQYJKoZIhvcNAQEBBQADggEPADCCAQoC
ggEBAL9YBb/X0Wx8wlMjzlKd2MwyXOWSBbDPNH2pr4iZtyj2atBwhI7Z8F1tjIA1
IDlz486xriggGYRJeyw9fRFbMYyyggQvoo3oj5IUKsSyCJz01UlwV80tvVC/r81Y
y62kufOwCDQob/o12h7/5+btUd2YKrmRke7bDu5+81CoXcR0tlx8E0vRJVeyTulI
fag5df2VgKTVz4ozZEyiv+ep9tcYb4NQrmyOkK9npdWicNcXylsN6Fag7JaKRZ1N
ZgacrHWfXcjLxNXetjES60CcwShgGFffi4Efcc7VuC7mV1f9Sj1enJm+Gd5p3rOC
ATzF3XPBKJiSjmMQ/kRVrv6Ed8UCAwEAAaOBzDCByTAOBgNVHQ8BAf8EBAMCBaAw
DwYDVR0TAQH/BAUwAwEB/zAOBgNVHSMEBzAFgAMBAgMwYgYIKwYBBQUHAQEEVjBU
MCEGCCsGAQUFBzABhhVodHRwOi8vdGhlY2EubmV0L29jc3AwLwYIKwYBBQUHMAKG
I2h0dHA6Ly90aGVjYS5uZXQvdG90YWxseXRoZWNlcnQuY3J0MBMGA1UdIAQMMAow
CAYGZ4EMAQICMB0GA1UdJQQWMBQGCCsGAQUFBwMBBggrBgEFBQcDAjANBgkqhkiG
9w0BAQsFAAOCAQEAWfkBaPO0cAlt9EOlQyBo68y1xAnMoHGrI8/pCQhXJWTTjAI1
mZXL1HlsiiXCR8S6Y7LR2SzLcL9GHnuLd5Oj6DHPwLofMns9TmIcq8kLSyMwt5K5
QRfEQGjFv51U7zXmKhf2tnh4wDoBdW0SnYFNYRolZCdKtLpppXU9J5CFG6PjwcNN
PfqZruOP8iaX3iKf+NYxTNtY0uJSRnkl6SZjb4Z/0vNPPIKZBvYYRp3gx2YFbWlu
1cN6wZTrzd3IfsTARcvnz1VW6LXOIsnifxqVti8znX51o6QuiXSLf39rIwqJZ+kT
YJAb38siDSmRbsCdSsaxhemlpU3UJMy6E/AtdQ==
-----END CERTIFICATE-----
