Certificate:
    Data:
        Version: 3 (0x2)
        Serial Number: 14615016 (0xdf01e8)
    Signature Algorithm: sha256WithRSAEncryption
        Issuer: C = US, O = Mother Nature, OU = Everything, CN = Mother Nature
        Validity
            Not Before: Jul 14 17:20:46 2016 GMT
            Not After : Sep 26 17:20:46 2016 GMT
        Subject: C = US, ST = FL, L = Tallahassee, street = 3210 Holly Mill Run, postalCode = 30062, O = Extreme Discord, OU = Chaos, CN = gov.us
        Subject Public Key Info:
            Public Key Algorithm: id-ecPublicKey
                Public-Key: (224 bit)
                pub:
                    04:b1:81:3e:58:4a:52:f0:42:ee:22:85:80:44:76:
                    ec:b9:84:d0:b1:04:bb:8b:46:da:a7:ab:60:82:3a:
                    08:f8:4e:b2:00:24:1f:e5:98:71:84:d1:78:65:7c:
                    ac:53:db:9f:25:b6:52:9d:74:5d:73:c8
                ASN1 OID: secp224r1
                NIST CURVE: P-224
        X509v3 extensions:
            X509v3 Basic Constraints: critical
                CA:FALSE
            X509v3 Authority Key Identifier: 
                keyid:01:02:03

            X509v3 CRL Distribution Points: 

                Full Name:
                  URI:theca.net/crlpoint

            X509v3 Subject Key Identifier: 
                04:03:02:01
            X509v3 Subject Alternative Name: 
                DNS:*.gov.us, DNS:gov.us
            X509v3 Key Usage: 
                Data Encipherment, Key Agreement
    Signature Algorithm: sha256WithRSAEncryption
         74:50:94:7f:37:15:4a:50:86:53:6f:4e:2c:dd:e8:bb:83:16:
         48:8f:fb:1e:22:5a:0b:71:88:04:f8:c4:b9:67:a2:20:ca:88:
         8f:52:ba:da:65:90:c8:b0:42:7f:33:39:6b:39:04:ff:68:eb:
         cc:12:38:ac:7f:4b:09:e0:7e:34:1c:ec:e0:96:c2:64:0b:6d:
         7f:8d:dd:6e:0d:7a:58:81:91:6f:6a:1e:b1:f7:1c:d6:90:ba:
         79:21:7e:0f:cf:fc:bb:e1:fa:5a:2b:00:fb:74:cb:a3:b5:6d:
         04:3f:5d:5b:18:fa:dd:c5:bd:90:71:4f:e5:7e:0a:3c:9d:4c:
         cb:95:86:fe:6b:28:8b:07:a9:94:ce:42:92:99:39:e9:ef:dd:
         43:ce:d2:93:f8:6a:72:a5:c6:93:de:b1:1e:59:72:06:5f:51:
         49:00:67:96:ab:df:03:41:18:5e:b6:1c:a8:4d:be:2d:0d:33:
         1f:ed:11:f8:40:b3:49:ea:30:f4:11:cf:e7:a5:91:ec:94:6b:
         42:c4:cd:ca:8d:2d:b5:c8:ea:36:9b:0a:8b:14:11:54:e2:b6:
         32:d3:cf:59:bf:cc:bc:0f:a2:8e:b6:04:f4:46:08:f3:48:d9:
         a3:43:4f:47:f7:74:1c:08:25:21:5e:9e:12:ea:16:8b:6e:4b:
         81:53:97:38
-----BEGIN CERTIFICATE-----
MIIDEjCCAfqgAwIBAgIEAN8B6DANBgkqhkiG9w0BAQsFADBSMQswCQYDVQQGEwJV
UzEWMBQGA1UEChMNTW90aGVyIE5hdHVyZTETMBEGA1UECxMKRXZlcnl0aGluZzEW
MBQGA1UEAxMNTW90aGVyIE5hdHVyZTAeFw0xNjA3MTQxNzIwNDZaFw0xNjA5MjYx
NzIwNDZaMIGZMQswCQYDVQQGEwJVUzELMAkGA1UECBMCRkwxFDASBgNVBAcTC1Rh
bGxhaGFzc2VlMRwwGgYDVQQJExMzMjEwIEhvbGx5IE1pbGwgUnVuMQ4wDAYDVQQR
EwUzMDA2MjEYMBYGA1UEChMPRXh0cmVtZSBEaXNjb3JkMQ4wDAYDVQQLEwVDaGFv
czEPMA0GA1UEAxMGZ292LnVzME4wEAYHKoZIzj0CAQYFK4EEACEDOgAEsYE+WEpS
8ELuIoWARHbsuYTQsQS7i0bap6tggjoI+E6yACQf5ZhxhNF4ZXysU9ufJbZSnXRd
c8ijfjB8MAwGA1UdEwEB/wQCMAAwDgYDVR0jBAcwBYADAQIDMCMGA1UdHwQcMBow
GKAWoBSGEnRoZWNhLm5ldC9jcmxwb2ludDANBgNVHQ4EBgQEBAMCATAbBgNVHREE
FDASgggqLmdvdi51c4IGZ292LnVzMAsGA1UdDwQEAwIBGDANBgkqhkiG9w0BAQsF
AAOCAQEAdFCUfzcVSlCGU29OLN3ou4MWSI/7HiJaC3GIBPjEuWeiIMqIj1K62mWQ
yLBCfzM5azkE/2jrzBI4rH9LCeB+NBzs4JbCZAttf43dbg16WIGRb2oesfcc1pC6
eSF+D8/8u+H6WisA+3TLo7VtBD9dWxj63cW9kHFP5X4KPJ1My5WG/msoiweplM5C
kpk56e/dQ87Sk/hqcqXGk96xHllyBl9RSQBnlqvfA0EYXrYcqE2+LQ0zH+0R+ECz
Seow9BHP56WR7JRrQsTNyo0ttcjqNpsKixQRVOK2MtPPWb/MvA+ijrYE9EYI80jZ
o0NPR/d0HAglIV6eEuoWi25LgVOXOA==
-----END CERTIFICATE-----
