Certificate:
    Data:
        Version: 3 (0x2)
        Serial Number: 18008675309 (0x4316693ed)
    Signature Algorithm: sha256WithRSAEncryption
        Issuer: C=US, O=Mother Nature, OU=Everything, CN=Mother Nature
        Validity
            Not Before: Aug 23 21:48:23 2017 GMT
            Not After : Nov  4 21:48:23 2017 GMT
        Subject: C=US, ST=FL, L=Tallahassee/street=3210 Holly Mill Run/postalCode=30062, O=Extreme Discord, OU=Chaos, CN=gov.us
        Subject Public Key Info:
            Public Key Algorithm: rsaEncryption
                Public-Key: (2048 bit)
                Modulus:
                    00:a7:95:cb:9e:30:99:cd:e8:2c:43:62:14:66:aa:
                    51:d1:eb:82:a9:9f:10:e2:8a:1e:46:5b:fe:2e:0d:
                    51:69:8c:08:b7:1e:43:ef:f9:c2:2b:0b:a4:ed:21:
                    a7:7a:c2:63:02:5e:f3:f8:6a:41:bc:30:cd:71:04:
                    d2:d1:b6:aa:ea:10:14:05:33:b6:a4:61:09:a3:86:
                    dd:b4:1a:07:fd:02:b2:7f:0a:15:7f:67:9a:98:00:
                    ae:0d:49:d1:5b:49:57:83:c8:1d:3c:98:d9:c1:43:
                    3b:96:3e:66:89:fc:93:ba:31:99:a1:12:cf:9d:a6:
                    ca:fc:63:97:ff:93:33:9c:83:e8:f6:a5:dd:6b:04:
                    dd:f4:67:81:29:67:18:99:24:28:48:b2:71:77:b1:
                    2c:da:99:17:90:66:33:a8:b8:ea:c1:d3:9f:71:a0:
                    f8:bf:37:f7:18:4b:85:8a:de:bd:92:cc:6f:b8:3c:
                    05:7e:8b:96:1d:4a:9d:3f:63:d7:2c:ab:ec:1e:8d:
                    34:f9:cf:f5:5e:9b:7c:42:dd:d8:19:73:5b:bf:ef:
                    ee:95:2d:6d:5f:77:91:6d:a9:f0:5a:73:36:98:a5:
                    5e:a5:d0:7f:59:01:46:e4:74:8b:e9:38:a0:13:9a:
                    21:42:7b:9f:a4:f2:d4:74:60:82:42:bd:38:af:3c:
                    0d:75
                Exponent: 65537 (0x10001)
        X509v3 extensions:
            X509v3 Key Usage: critical
                Digital Signature, Key Encipherment
            X509v3 Extended Key Usage: 
                TLS Web Client Authentication, TLS Web Server Authentication
            X509v3 Basic Constraints: critical
                CA:FALSE
            X509v3 Authority Key Identifier: 
                keyid:01:02:03

            X509v3 Certificate Policies: 
                Policy: 2.23.140.1.2.2

            Authority Information Access: 
                OCSP - URI:http://ss.symcd.com
                CA Issuers - URI:http://ss.symcb.com/ss.crt

    Signature Algorithm: sha256WithRSAEncryption
         6c:b3:eb:13:b9:40:ee:8c:8d:72:a0:92:39:87:f8:0a:a0:59:
         ae:8d:e0:eb:6f:ff:35:be:54:5e:e2:05:c3:c4:e4:45:12:90:
         d6:6b:ec:3f:f0:89:67:12:3e:6c:c9:05:d1:42:c9:29:c1:4d:
         df:ef:39:2c:17:f8:8a:15:71:32:03:02:f0:89:1f:a3:14:5f:
         09:5b:06:be:e8:85:6d:45:db:67:e1:a9:ee:3b:e6:2a:02:35:
         c0:f4:10:e1:45:85:b1:b4:68:4b:46:42:94:62:56:c7:49:59:
         09:fd:0e:fb:df:13:d1:cc:22:a2:ae:f3:79:81:7a:ec:15:a1:
         aa:39:82:b3:e8:69:bc:c8:73:87:55:9d:91:77:4f:1a:f1:86:
         6f:ce:ff:e1:37:63:19:ef:a0:12:77:3d:12:ea:13:7a:bc:8d:
         86:c4:41:89:6e:e9:f9:c7:58:44:c2:b5:ac:69:5d:63:a5:b1:
         fc:14:e4:de:81:e1:13:7a:41:2e:32:b0:3d:eb:8e:e0:ca:0a:
         06:cb:3f:08:fa:c5:58:32:a4:f1:4b:85:e4:73:66:8c:c8:3e:
         b1:df:a0:5f:6c:7b:d9:22:27:e2:30:bb:c6:68:91:45:c5:55:
         58:23:7f:da:ed:57:ad:32:da:7a:8d:3a:43:b1:6b:78:40:c1:
         66:e4:42:46
-----BEGIN CERTIFICATE-----
MIIEKjCCAxKgAwIBAgIFBDFmk+0wDQYJKoZIhvcNAQELBQAwUjELMAkGA1UEBhMC
VVMxFjAUBgNVBAoTDU1vdGhlciBOYXR1cmUxEzARBgNVBAsTCkV2ZXJ5dGhpbmcx
FjAUBgNVBAMTDU1vdGhlciBOYXR1cmUwHhcNMTcwODIzMjE0ODIzWhcNMTcxMTA0
MjE0ODIzWjCBmTELMAkGA1UEBhMCVVMxCzAJBgNVBAgTAkZMMRQwEgYDVQQHEwtU
YWxsYWhhc3NlZTEcMBoGA1UECRMTMzIxMCBIb2xseSBNaWxsIFJ1bjEOMAwGA1UE
ERMFMzAwNjIxGDAWBgNVBAoTD0V4dHJlbWUgRGlzY29yZDEOMAwGA1UECxMFQ2hh
b3MxDzANBgNVBAMTBmdvdi51czCCASIwDQYJKoZIhvcNAQEBBQADggEPADCCAQoC
ggEBAKeVy54wmc3oLENiFGaqUdHrgqmfEOKKHkZb/i4NUWmMCLceQ+/5wisLpO0h
p3rCYwJe8/hqQbwwzXEE0tG2quoQFAUztqRhCaOG3bQaB/0Csn8KFX9nmpgArg1J
0VtJV4PIHTyY2cFDO5Y+Zon8k7oxmaESz52myvxjl/+TM5yD6Pal3WsE3fRngSln
GJkkKEiycXexLNqZF5BmM6i46sHTn3Gg+L839xhLhYrevZLMb7g8BX6Llh1KnT9j
1yyr7B6NNPnP9V6bfELd2BlzW7/v7pUtbV93kW2p8FpzNpilXqXQf1kBRuR0i+k4
oBOaIUJ7n6Ty1HRggkK9OK88DXUCAwEAAaOBvjCBuzAOBgNVHQ8BAf8EBAMCBaAw
HQYDVR0lBBYwFAYIKwYBBQUHAwIGCCsGAQUFBwMBMAwGA1UdEwEB/wQCMAAwDgYD
VR0jBAcwBYADAQIDMBMGA1UdIAQMMAowCAYGZ4EMAQICMFcGCCsGAQUFBwEBBEsw
STAfBggrBgEFBQcwAYYTaHR0cDovL3NzLnN5bWNkLmNvbTAmBggrBgEFBQcwAoYa
aHR0cDovL3NzLnN5bWNiLmNvbS9zcy5jcnQwDQYJKoZIhvcNAQELBQADggEBAGyz
6xO5QO6MjXKgkjmH+AqgWa6N4Otv/zW+VF7iBcPE5EUSkNZr7D/wiWcSPmzJBdFC
ySnBTd/vOSwX+IoVcTIDAvCJH6MUXwlbBr7ohW1F22fhqe475ioCNcD0EOFFhbG0
aEtGQpRiVsdJWQn9DvvfE9HMIqKu83mBeuwVoao5grPoabzIc4dVnZF3Txrxhm/O
/+E3YxnvoBJ3PRLqE3q8jYbEQYlu6fnHWETCtaxpXWOlsfwU5N6B4RN6QS4ysD3r
juDKCgbLPwj6xVgypPFLheRzZozIPrHfoF9se9kiJ+Iwu8ZokUXFVVgjf9rtV60y
2nqNOkOxa3hAwWbkQkY=
-----END CERTIFICATE-----
