Certificate:
    Data:
        Version: 3 (0x2)
        Serial Number: 1 (0x1)
        Signature Algorithm: sha256WithRSAEncryption
        Issuer: CN = Mother Nature, OU = Everything, O = Mother Nature, postalCode = postalcode, C = US, GN = givenname, SN = surname
        Validity
            Not Before: Aug 29 21:13:52 2017 GMT
            Not After : Nov 10 22:13:52 2017 GMT
        Subject: CN = gov.us, OU = Chaos, O = org, street = 3210 Holly Mill Run, ST = province, postalCode = 30062, GN = hello, SN = surname
        Subject Public Key Info:
            Public Key Algorithm: rsaEncryption
                RSA Public-Key: (2048 bit)
                Modulus:
                    00:94:08:e9:e8:d8:6f:7b:c0:ac:55:cc:ed:21:48:
                    d0:01:5e:b1:27:4a:77:c8:9a:65:ef:29:6c:31:ef:
                    b9:04:3e:65:c7:d8:31:e6:af:b5:bd:3a:18:ef:b7:
                    1e:ac:d9:90:c5:e8:cd:17:0c:68:08:76:2b:ea:50:
                    dd:f8:8f:c6:e7:02:ea:a3:36:d6:bb:81:6f:02:72:
                    2c:76:12:f6:51:9e:92:a9:eb:cd:a6:01:2c:14:06:
                    2b:0a:10:9a:fb:68:98:26:0c:06:5e:5e:48:18:6f:
                    d9:08:78:14:56:62:bb:b6:dd:69:63:66:a5:dc:49:
                    14:2a:07:7e:92:e5:b9:44:04:e4:21:bc:43:67:b4:
                    21:5f:da:f7:ca:16:ac:f6:53:ea:3a:43:d0:d3:cd:
                    2c:d9:57:5b:61:b3:cc:e3:f8:34:92:a4:67:3b:a6:
                    9b:b5:d2:fe:5c:fe:40:fb:e8:34:8f:7e:f3:f2:34:
                    28:68:b6:20:63:6c:09:67:0c:16:74:42:a2:d1:76:
                    bd:89:a2:f9:4d:30:74:fa:85:48:c6:52:c8:77:9a:
                    22:71:28:dd:fc:80:0c:ec:f4:ff:c7:83:f0:8c:65:
                    5d:44:b9:81:ac:62:f0:12:69:43:73:d2:eb:55:7c:
                    d7:56:c6:60:52:82:33:2f:76:0a:5d:3a:e5:9d:87:
                    b7:59
                Exponent: 65537 (0x10001)
        X509v3 extensions:
            X509v3 Key Usage: critical
                Digital Signature, Key Encipherment
            X509v3 Extended Key Usage: 
                TLS Web Client Authentication, TLS Web Server Authentication
            X509v3 Basic Constraints: critical
                CA:FALSE
            X509v3 Authority Key Identifier: 
                keyid:01:02:03

            Authority Information Access: 
                OCSP - URI:http://theca.net/ocsp
                CA Issuers - URI:http://theca.net/totallythecert.crt

            X509v3 Subject Alternative Name: 
                DNS:hell,o.com.uk
            X509v3 Certificate Policies: 
                Policy: X509v3 Any Policy

    Signature Algorithm: sha256WithRSAEncryption
         9c:88:27:94:ed:6e:db:11:1a:bf:a1:56:ce:c6:0d:0b:d4:7e:
         e4:ac:67:b5:32:76:39:cc:66:2e:69:86:15:67:b2:0f:a5:56:
         8f:bf:3e:56:97:1c:c5:ae:1a:2a:ed:53:28:b2:a6:f9:ef:d1:
         7d:23:18:ed:a8:c1:d8:18:ca:06:f3:44:26:05:b1:30:aa:e1:
         c2:f3:ec:74:9b:14:bf:23:da:81:45:73:53:1e:3f:54:8d:2e:
         7e:a7:2d:7b:be:08:4c:93:01:90:db:75:93:aa:87:9a:21:e3:
         2d:70:d4:b5:4a:be:4b:6e:cc:b0:2c:c7:5c:fe:3d:40:38:7e:
         1d:98:37:c2:24:2a:42:70:11:4d:2a:99:15:a9:f5:86:5d:41:
         cf:29:f3:c4:b1:7b:79:af:45:10:5e:c3:58:1e:6a:fc:9e:05:
         2a:e4:a6:86:c9:5a:bb:ed:c4:5a:19:e4:80:0d:02:4e:05:8a:
         bb:e2:74:89:a9:0d:b2:72:15:f6:0f:42:f4:94:f5:6f:f3:42:
         0d:f0:18:31:55:fa:06:0d:c6:1d:fc:8d:60:b7:90:b2:5b:0e:
         df:59:f3:7c:9e:a6:4f:00:e7:0f:e6:76:b9:de:0f:83:92:7d:
         0d:18:ae:88:40:96:9f:ca:2b:a5:01:ba:e6:c2:0d:af:f1:19:
         c4:54:f9:fe
-----BEGIN CERTIFICATE-----
MIIEfjCCA2igAwIBAgIBATALBgkqhkiG9w0BAQswgY8xFjAUBgNVBAMTDU1vdGhl
ciBOYXR1cmUxEzARBgNVBAsTCkV2ZXJ5dGhpbmcxFjAUBgNVBAoTDU1vdGhlciBO
YXR1cmUxEzARBgNVBBETCnBvc3RhbGNvZGUxCzAJBgNVBAYTAlVTMRIwEAYDVQQq
EwlnaXZlbm5hbWUxEDAOBgNVBAQTB3N1cm5hbWUxADAeFw0xNzA4MjkyMTEzNTJa
Fw0xNzExMTAyMjEzNTJaMIGUMQ8wDQYDVQQDEwZnb3YudXMxDjAMBgNVBAsTBUNo
YW9zMQwwCgYDVQQKEwNvcmcxHDAaBgNVBAkTEzMyMTAgSG9sbHkgTWlsbCBSdW4x
ETAPBgNVBAgTCHByb3ZpbmNlMQ4wDAYDVQQREwUzMDA2MjEOMAwGA1UEKhMFaGVs
bG8xEDAOBgNVBAQTB3N1cm5hbWUxADCCASIwDQYJKoZIhvcNAQEBBQADggEPADCC
AQoCggEBAJQI6ejYb3vArFXM7SFI0AFesSdKd8iaZe8pbDHvuQQ+ZcfYMeavtb06
GO+3HqzZkMXozRcMaAh2K+pQ3fiPxucC6qM21ruBbwJyLHYS9lGekqnrzaYBLBQG
KwoQmvtomCYMBl5eSBhv2Qh4FFZiu7bdaWNmpdxJFCoHfpLluUQE5CG8Q2e0IV/a
98oWrPZT6jpD0NPNLNlXW2GzzOP4NJKkZzumm7XS/lz+QPvoNI9+8/I0KGi2IGNs
CWcMFnRCotF2vYmi+U0wdPqFSMZSyHeaInEo3fyADOz0/8eD8IxlXUS5gaxi8BJp
Q3PS61V811bGYFKCMy92Cl065Z2Ht1kCAwEAAaOB4TCB3jAOBgNVHQ8BAf8EBAMC
AKAwHQYDVR0lBBYwFAYIKwYBBQUHAwIGCCsGAQUFBwMBMAwGA1UdEwEB/wQCMAAw
DgYDVR0jBAcwBYADAQIDMGIGCCsGAQUFBwEBBFYwVDAhBggrBgEFBQcwAYYVaHR0
cDovL3RoZWNhLm5ldC9vY3NwMC8GCCsGAQUFBzAChiNodHRwOi8vdGhlY2EubmV0
L3RvdGFsbHl0aGVjZXJ0LmNydDAYBgNVHREEETAPgg1oZWxsLG8uY29tLnVrMBEG
A1UdIAQKMAgwBgYEVR0gADALBgkqhkiG9w0BAQsDggEBAJyIJ5TtbtsRGr+hVs7G
DQvUfuSsZ7UydjnMZi5phhVnsg+lVo+/PlaXHMWuGirtUyiypvnv0X0jGO2owdgY
ygbzRCYFsTCq4cLz7HSbFL8j2oFFc1MeP1SNLn6nLXu+CEyTAZDbdZOqh5oh4y1w
1LVKvktuzLAsx1z+PUA4fh2YN8IkKkJwEU0qmRWp9YZdQc8p88Sxe3mvRRBew1ge
avyeBSrkpobJWrvtxFoZ5IANAk4FirvidImpDbJyFfYPQvSU9W/zQg3wGDFV+gYN
xh38jWC3kLJbDt9Z83yepk8A5w/mdrneD4OSfQ0YrohAlp/KK6UBuubCDa/xGcRU
+f4=
-----END CERTIFICATE-----
