Certificate:
    Data:
        Version: 3 (0x2)
        Serial Number: 18008675309 (0x4316693ed)
    Signature Algorithm: sha256WithRSAEncryption
        Issuer: CN=Mother Nature, OU=Everything, O=Mother Nature, C=US
        Validity
            Not Before: Aug 24 03:26:23 2017 GMT
            Not After : Nov  5 03:26:23 2017 GMT
        Subject: CN=gov.us, OU=Chaos/street=3210 Holly Mill Run, L=localility/postalCode=30062, C=US, GN=givenanme
        Subject Public Key Info:
            Public Key Algorithm: rsaEncryption
                Public-Key: (2048 bit)
                Modulus:
                    00:99:c6:62:be:ab:2c:a5:3e:fc:bf:f7:ba:ea:fd:
                    c7:d1:e7:ac:13:44:73:53:77:27:5e:5a:20:ae:b6:
                    d2:2a:4c:91:73:a1:b0:47:e2:bc:1a:53:cb:40:20:
                    e4:88:32:88:6b:21:68:e5:5c:04:dc:3b:43:07:ff:
                    0a:52:93:d7:57:aa:69:39:0f:85:7a:e4:bf:4f:7a:
                    c9:35:86:c7:f7:37:cf:00:a0:a6:4d:1b:de:64:e1:
                    df:ac:90:3b:1e:60:34:35:37:87:7a:55:bb:ac:63:
                    f1:3e:e4:f2:62:23:9d:2c:d2:54:c4:83:ab:cb:4d:
                    1f:56:85:a3:46:dc:3a:38:7a:2e:14:36:e4:1e:02:
                    76:b9:d3:cf:c5:17:fc:00:76:0e:c9:20:91:4d:54:
                    57:98:3c:99:a6:8d:86:6b:1f:bb:3a:24:d4:08:09:
                    04:b2:7e:7f:30:f4:d2:ba:0b:af:07:00:2b:ae:e8:
                    3f:98:48:93:ca:d2:6e:45:61:8b:21:3e:74:e7:91:
                    67:1c:b1:60:c4:8c:8f:55:58:a2:44:b7:0f:1c:63:
                    3e:08:eb:13:ae:66:18:b2:53:ce:92:a1:de:1e:9d:
                    9d:f7:e7:81:6c:95:0d:c3:56:79:f1:6f:89:3c:9a:
                    dc:13:87:cd:eb:e3:1d:93:b5:e0:35:92:b2:b0:1c:
                    84:19
                Exponent: 65537 (0x10001)
        X509v3 extensions:
            X509v3 Key Usage: critical
                Digital Signature, Key Encipherment
            X509v3 Extended Key Usage: 
                TLS Web Client Authentication, TLS Web Server Authentication
            X509v3 Basic Constraints: critical
                CA:FALSE
            X509v3 Authority Key Identifier: 
                keyid:01:02:03

            X509v3 Certificate Policies: 
                Policy: 2.23.140.1.2.3

            Authority Information Access: critical
                OCSP - URI:http://ss.symcd.com
                CA Issuers - URI:http://ss.symcb.com/ss.crt

    Signature Algorithm: sha256WithRSAEncryption
         0f:48:40:c4:00:6e:23:72:66:83:16:f5:56:be:68:4b:61:77:
         68:12:71:27:3f:df:ce:a7:fb:5c:0b:08:bc:2f:a9:84:45:71:
         44:1c:b6:de:d9:82:f7:f2:07:17:91:a9:b6:34:dd:bb:01:d2:
         dd:62:33:f3:c6:71:c8:a4:9b:2f:bd:f9:16:50:fb:7c:aa:73:
         17:5f:c2:92:4c:f3:61:71:91:d7:90:43:61:ad:4c:64:44:08:
         03:ea:41:41:56:79:4c:76:21:c1:d4:c4:70:18:54:d8:92:b1:
         39:07:ee:2e:fb:fe:6c:85:85:7b:cb:f9:69:ae:45:96:c3:44:
         2b:60:6b:cc:4d:f4:46:09:83:3a:77:7e:4f:90:cc:69:4e:03:
         b6:93:be:b6:fe:c5:97:82:aa:1c:9f:6b:45:82:70:2a:06:76:
         59:f6:f4:46:91:8b:e0:40:41:25:ea:eb:e7:4d:8a:ab:0d:41:
         ea:91:a2:fe:ef:db:8e:70:62:b4:f1:3c:09:01:ca:79:78:8f:
         91:09:04:0f:6a:f4:2c:90:7c:39:6b:d1:99:f8:4a:14:27:95:
         7f:72:35:84:63:bf:f7:bf:61:9a:17:1b:d9:ca:61:5d:bd:35:
         90:ac:28:26:d2:ed:4d:98:04:a0:bb:05:0d:32:9e:5e:59:de:
         fa:c4:51:dc
-----BEGIN CERTIFICATE-----
MIIEGTCCAwOgAwIBAgIFBDFmk+0wCwYJKoZIhvcNAQELMFQxFjAUBgNVBAMTDU1v
dGhlciBOYXR1cmUxEzARBgNVBAsTCkV2ZXJ5dGhpbmcxFjAUBgNVBAoTDU1vdGhl
ciBOYXR1cmUxCzAJBgNVBAYTAlVTMQAwHhcNMTcwODI0MDMyNjIzWhcNMTcxMTA1
MDMyNjIzWjCBhzEPMA0GA1UEAxMGZ292LnVzMQ4wDAYDVQQLEwVDaGFvczEcMBoG
A1UECRMTMzIxMCBIb2xseSBNaWxsIFJ1bjETMBEGA1UEBxMKbG9jYWxpbGl0eTEO
MAwGA1UEERMFMzAwNjIxCzAJBgNVBAYTAlVTMRIwEAYDVQQqEwlnaXZlbmFubWUx
ADCCASIwDQYJKoZIhvcNAQEBBQADggEPADCCAQoCggEBAJnGYr6rLKU+/L/3uur9
x9HnrBNEc1N3J15aIK620ipMkXOhsEfivBpTy0Ag5IgyiGshaOVcBNw7Qwf/ClKT
11eqaTkPhXrkv096yTWGx/c3zwCgpk0b3mTh36yQOx5gNDU3h3pVu6xj8T7k8mIj
nSzSVMSDq8tNH1aFo0bcOjh6LhQ25B4CdrnTz8UX/AB2DskgkU1UV5g8maaNhmsf
uzok1AgJBLJ+fzD00roLrwcAK67oP5hIk8rSbkVhiyE+dOeRZxyxYMSMj1VYokS3
DxxjPgjrE65mGLJTzpKh3h6dnffngWyVDcNWefFviTya3BOHzevjHZO14DWSsrAc
hBkCAwEAAaOBwTCBvjAOBgNVHQ8BAf8EBAMCAKAwHQYDVR0lBBYwFAYIKwYBBQUH
AwIGCCsGAQUFBwMBMAwGA1UdEwEB/wQCMAAwDgYDVR0jBAcwBYADAQIDMBMGA1Ud
IAQMMAowCAYGZ4EMAQIDMFoGCCsGAQUFBwEBAQH/BEswSTAfBggrBgEFBQcwAYYT
aHR0cDovL3NzLnN5bWNkLmNvbTAmBggrBgEFBQcwAoYaaHR0cDovL3NzLnN5bWNi
LmNvbS9zcy5jcnQwCwYJKoZIhvcNAQELA4IBAQAPSEDEAG4jcmaDFvVWvmhLYXdo
EnEnP9/Op/tcCwi8L6mERXFEHLbe2YL38gcXkam2NN27AdLdYjPzxnHIpJsvvfkW
UPt8qnMXX8KSTPNhcZHXkENhrUxkRAgD6kFBVnlMdiHB1MRwGFTYkrE5B+4u+/5s
hYV7y/lprkWWw0QrYGvMTfRGCYM6d35PkMxpTgO2k762/sWXgqocn2tFgnAqBnZZ
9vRGkYvgQEEl6uvnTYqrDUHqkaL+79uOcGK08TwJAcp5eI+RCQQPavQskHw5a9GZ
+EoUJ5V/cjWEY7/3v2GaFxvZymFdvTWQrCgm0u1NmASguwUNMp5eWd76xFHc
-----END CERTIFICATE-----
