Certificate:
    Data:
        Version: 3 (0x2)
        Serial Number: 18008675309 (0x4316693ed)
        Signature Algorithm: sha256WithRSAEncryption
        Issuer: CN = Mother Nature, OU = Everything, O = Mother Nature, C = US
        Validity
            Not Before: Aug 24 03:06:53 2017 GMT
            Not After : Nov  5 03:06:53 2017 GMT
        Subject: CN = gov.us, OU = Chaos, street = 3210 Holly Mill Run, postalCode = 30062, C = US, GN = givenname
        Subject Public Key Info:
            Public Key Algorithm: rsaEncryption
                RSA Public-Key: (2048 bit)
                Modulus:
                    00:ce:2c:d4:27:40:48:d4:f4:6f:a1:1c:d4:4d:84:
                    9f:bc:87:56:e6:2d:69:7b:50:aa:8a:ef:6e:9f:21:
                    aa:03:85:e6:19:b1:ea:4a:fe:9c:09:9b:70:aa:65:
                    cb:e3:df:de:49:85:19:8c:4d:9d:08:98:67:d0:f7:
                    11:d7:e2:eb:cb:9d:c5:c0:8c:58:6c:24:6c:53:07:
                    87:3a:3c:8c:4f:62:82:7e:db:69:3d:88:6e:c4:e4:
                    57:b6:e3:4d:e6:f0:ef:62:02:57:b2:8b:02:f5:34:
                    e4:60:94:70:53:83:c7:7a:2c:6e:ae:f0:c7:6b:2e:
                    c8:b0:9d:fc:cf:00:a5:68:db:94:d2:fe:25:18:64:
                    42:74:22:2a:d7:b7:ce:bd:d4:76:50:b8:c8:6c:38:
                    4c:69:2b:54:ad:18:c4:16:bc:19:49:a7:07:f5:38:
                    9f:8d:73:4d:23:f6:51:3d:2d:8e:6e:c3:83:ac:82:
                    bc:57:02:20:18:22:a1:7f:ca:76:85:61:3d:c7:e6:
                    d2:8e:23:a2:ce:8e:77:d3:c6:32:05:e6:ca:41:e4:
                    f2:d5:be:53:2d:45:29:ff:90:fd:6b:fb:96:0b:52:
                    9b:7e:49:26:16:e8:10:a2:27:c8:a5:fc:dc:74:d6:
                    66:b1:06:e0:6f:15:fc:b8:3b:b4:80:a5:98:67:df:
                    17:3f
                Exponent: 65537 (0x10001)
        X509v3 extensions:
            X509v3 Key Usage: critical
                Digital Signature, Key Encipherment
            X509v3 Extended Key Usage: 
                TLS Web Client Authentication, TLS Web Server Authentication
            X509v3 Basic Constraints: critical
                CA:FALSE
            X509v3 Authority Key Identifier: 
                keyid:01:02:03

            X509v3 Certificate Policies: 
                Policy: 2.23.140.1.2.3

            Authority Information Access: critical
                OCSP - URI:http://ss.symcd.com
                CA Issuers - URI:http://ss.symcb.com/ss.crt

    Signature Algorithm: sha256WithRSAEncryption
         71:b9:93:1b:7c:c8:87:9c:fa:da:7e:33:87:63:94:6a:05:34:
         69:ed:2d:82:e5:b0:0f:fe:45:cd:d8:84:67:30:a9:39:1c:f7:
         bd:f3:7f:23:b1:89:e2:dd:53:a1:a9:1d:12:84:86:11:62:17:
         12:51:35:bb:e5:c6:cf:1e:ae:2d:fc:2d:da:4a:03:30:d2:d6:
         f2:0d:29:12:55:f6:9d:11:3e:8e:d0:00:ec:9f:be:20:4a:cb:
         2a:d0:86:d9:e0:6a:7a:e5:00:9b:b5:fc:02:5d:d9:4c:88:29:
         b0:fc:33:a8:8b:40:72:4f:4f:c8:ff:3d:7d:4d:e2:3a:45:8e:
         ae:45:9c:e9:8f:a3:65:16:de:e6:66:75:ed:fc:0b:37:e8:af:
         9e:1d:2d:86:eb:10:36:94:60:53:53:b5:f0:1f:33:67:90:4c:
         5b:24:c6:32:61:b2:08:d0:f3:98:fa:bf:fb:da:53:4e:f0:2d:
         89:7f:b2:6e:46:c9:e0:18:a1:1e:c6:cf:26:04:f8:af:df:07:
         b1:f7:5b:a3:ab:ef:11:56:30:4b:f9:1c:11:48:18:5f:95:12:
         31:54:db:f1:b3:f6:71:61:60:0e:ca:7d:3a:39:4a:ae:d3:7a:
         d5:b9:a5:3e:d3:98:7c:20:d5:93:0c:28:d0:21:e2:e1:79:8b:
         1d:17:ec:8c
-----BEGIN CERTIFICATE-----
MIIEAzCCAu2gAwIBAgIFBDFmk+0wCwYJKoZIhvcNAQELMFQxFjAUBgNVBAMTDU1v
dGhlciBOYXR1cmUxEzARBgNVBAsTCkV2ZXJ5dGhpbmcxFjAUBgNVBAoTDU1vdGhl
ciBOYXR1cmUxCzAJBgNVBAYTAlVTMQAwHhcNMTcwODI0MDMwNjUzWhcNMTcxMTA1
MDMwNjUzWjByMQ8wDQYDVQQDEwZnb3YudXMxDjAMBgNVBAsTBUNoYW9zMRwwGgYD
VQQJExMzMjEwIEhvbGx5IE1pbGwgUnVuMQ4wDAYDVQQREwUzMDA2MjELMAkGA1UE
BhMCVVMxEjAQBgNVBCoTCWdpdmVubmFtZTEAMIIBIjANBgkqhkiG9w0BAQEFAAOC
AQ8AMIIBCgKCAQEAzizUJ0BI1PRvoRzUTYSfvIdW5i1pe1Cqiu9unyGqA4XmGbHq
Sv6cCZtwqmXL49/eSYUZjE2dCJhn0PcR1+Lry53FwIxYbCRsUweHOjyMT2KCfttp
PYhuxORXtuNN5vDvYgJXsosC9TTkYJRwU4PHeixurvDHay7IsJ38zwClaNuU0v4l
GGRCdCIq17fOvdR2ULjIbDhMaStUrRjEFrwZSacH9TifjXNNI/ZRPS2ObsODrIK8
VwIgGCKhf8p2hWE9x+bSjiOizo5308YyBebKQeTy1b5TLUUp/5D9a/uWC1Kbfkkm
FugQoifIpfzcdNZmsQbgbxX8uDu0gKWYZ98XPwIDAQABo4HBMIG+MA4GA1UdDwEB
/wQEAwIAoDAdBgNVHSUEFjAUBggrBgEFBQcDAgYIKwYBBQUHAwEwDAYDVR0TAQH/
BAIwADAOBgNVHSMEBzAFgAMBAgMwEwYDVR0gBAwwCjAIBgZngQwBAgMwWgYIKwYB
BQUHAQEBAf8ESzBJMB8GCCsGAQUFBzABhhNodHRwOi8vc3Muc3ltY2QuY29tMCYG
CCsGAQUFBzAChhpodHRwOi8vc3Muc3ltY2IuY29tL3NzLmNydDALBgkqhkiG9w0B
AQsDggEBAHG5kxt8yIec+tp+M4djlGoFNGntLYLlsA/+Rc3YhGcwqTkc973zfyOx
ieLdU6GpHRKEhhFiFxJRNbvlxs8eri38LdpKAzDS1vINKRJV9p0RPo7QAOyfviBK
yyrQhtnganrlAJu1/AJd2UyIKbD8M6iLQHJPT8j/PX1N4jpFjq5FnOmPo2UW3uZm
de38Czfor54dLYbrEDaUYFNTtfAfM2eQTFskxjJhsgjQ85j6v/vaU07wLYl/sm5G
yeAYoR7GzyYE+K/fB7H3W6Or7xFWMEv5HBFIGF+VEjFU2/Gz9nFhYA7KfTo5Sq7T
etW5pT7TmHwg1ZMMKNAh4uF5ix0X7Iw=
-----END CERTIFICATE-----
-----BEGIN CERTIFICATE-----
MIIEAzCCAu2gAwIBAgIFBDFmk+0wCwYJKoZIhvcNAQELMFQxFjAUBgNVBAMTDU1v
dGhlciBOYXR1cmUxEzARBgNVBAsTCkV2ZXJ5dGhpbmcxFjAUBgNVBAoTDU1vdGhl
ciBOYXR1cmUxCzAJBgNVBAYTAlVTMQAwHhcNMTcwODI0MDMwNjUzWhcNMTcxMTA1
MDMwNjUzWjByMQ8wDQYDVQQDEwZnb3YudXMxDjAMBgNVBAsTBUNoYW9zMRwwGgYD
VQQJExMzMjEwIEhvbGx5IE1pbGwgUnVuMQ4wDAYDVQQREwUzMDA2MjELMAkGA1UE
BhMCVVMxEjAQBgNVBCoTCWdpdmVubmFtZTEAMIIBIjANBgkqhkiG9w0BAQEFAAOC
AQ8AMIIBCgKCAQEAzizUJ0BI1PRvoRzUTYSfvIdW5i1pe1Cqiu9unyGqA4XmGbHq
Sv6cCZtwqmXL49/eSYUZjE2dCJhn0PcR1+Lry53FwIxYbCRsUweHOjyMT2KCfttp
PYhuxORXtuNN5vDvYgJXsosC9TTkYJRwU4PHeixurvDHay7IsJ38zwClaNuU0v4l
GGRCdCIq17fOvdR2ULjIbDhMaStUrRjEFrwZSacH9TifjXNNI/ZRPS2ObsODrIK8
VwIgGCKhf8p2hWE9x+bSjiOizo5308YyBebKQeTy1b5TLUUp/5D9a/uWC1Kbfkkm
FugQoifIpfzcdNZmsQbgbxX8uDu0gKWYZ98XPwIDAQABo4HBMIG+MA4GA1UdDwEB
/wQEAwIAoDAdBgNVHSUEFjAUBggrBgEFBQcDAgYIKwYBBQUHAwEwDAYDVR0TAQH/
BAIwADAOBgNVHSMEBzAFgAMBAgMwEwYDVR0gBAwwCjAIBgZngQwBAgMwWgYIKwYB
BQUHAQEBAf8ESzBJMB8GCCsGAQUFBzABhhNodHRwOi8vc3Muc3ltY2QuY29tMCYG
CCsGAQUFBzAChhpodHRwOi8vc3Muc3ltY2IuY29tL3NzLmNydDALBgkqhkiG9w0B
AQsDggEBAHG5kxt8yIec+tp+M4djlGoFNGntLYLlsA/+Rc3YhGcwqTkc973zfyOx
ieLdU6GpHRKEhhFiFxJRNbvlxs8eri38LdpKAzDS1vINKRJV9p0RPo7QAOyfviBK
yyrQhtnganrlAJu1/AJd2UyIKbD8M6iLQHJPT8j/PX1N4jpFjq5FnOmPo2UW3uZm
de38Czfor54dLYbrEDaUYFNTtfAfM2eQTFskxjJhsgjQ85j6v/vaU07wLYl/sm5G
yeAYoR7GzyYE+K/fB7H3W6Or7xFWMEv5HBFIGF+VEjFU2/Gz9nFhYA7KfTo5Sq7T
etW5pT7TmHwg1ZMMKNAh4uF5ix0X7Iw=
-----END CERTIFICATE-----
