Certificate:
    Data:
        Version: 3 (0x2)
        Serial Number: 14615016 (0xdf01e8)
    Signature Algorithm: sha256WithRSAEncryption
        Issuer: C = US, O = Mother Nature, OU = Everything, CN = Mother Nature
        Validity
            Not Before: Jul 11 20:40:34 2016 GMT
            Not After : Sep 23 20:40:34 2016 GMT
        Subject: C = US, ST = FL, L = Tallahassee, street = 3210 Holly Mill Run, postalCode = 30062, O = Extreme Discord, OU = Chaos, CN = gov.us
        Subject Public Key Info:
            Public Key Algorithm: id-ecPublicKey
                Public-Key: (224 bit)
                pub:
                    04:81:34:25:81:4a:88:c5:fe:ab:4e:a3:c7:4d:2d:
                    66:da:11:3e:84:2d:6b:5a:c0:fa:7e:c4:24:1c:05:
                    49:30:0c:77:3d:27:92:dc:55:0a:a0:4b:b3:ba:0d:
                    dc:7b:a1:3b:e9:d7:76:5f:bc:1f:b0:87
                ASN1 OID: secp224r1
                NIST CURVE: P-224
        X509v3 extensions:
            X509v3 Basic Constraints: critical
                CA:FALSE
            X509v3 Authority Key Identifier: 
                keyid:01:02:03

            X509v3 Subject Key Identifier: 
                04:03:02:01
            X509v3 Subject Alternative Name: 
                DNS:*.gov.us, DNS:gov.us
            X509v3 Key Usage: 
                Data Encipherment, Key Agreement
    Signature Algorithm: sha256WithRSAEncryption
         75:aa:73:ab:c7:6b:0e:1d:cb:91:51:7c:ea:bf:9c:ce:29:03:
         ec:ec:1e:68:62:02:e4:3b:d0:82:50:ca:be:6b:36:f8:a3:46:
         4d:54:f6:cb:87:3a:97:57:81:72:80:b8:27:3e:cd:9a:84:40:
         12:c1:75:ca:16:db:0b:a4:8d:e1:0a:05:32:e7:62:7b:b4:65:
         dc:d0:3b:2c:d2:0c:e0:11:85:b5:c2:ae:44:ce:50:67:23:7e:
         dd:15:cb:26:fc:fc:1b:01:7c:9f:83:61:bd:3d:ab:6e:a6:62:
         f1:be:bf:cc:2d:d3:27:03:68:d7:d3:6a:ca:06:4b:0d:64:00:
         22:9c:46:3a:79:85:4c:d2:97:0a:3d:54:f1:38:c9:a3:00:08:
         a9:c5:d3:37:49:1a:71:d5:ba:39:89:5e:56:d5:20:54:19:60:
         71:3b:f0:d6:e5:ed:00:28:34:3f:ef:3d:af:79:1d:6b:bd:7f:
         97:b4:f6:fa:c3:66:bd:f6:c0:d4:1b:6f:21:7c:05:06:73:e8:
         96:2e:f8:cc:91:f6:71:6b:59:e6:28:ed:0e:20:88:ce:5e:df:
         52:6e:f3:a1:cf:95:fb:01:09:9b:60:f2:7c:03:9f:32:bf:c9:
         3f:03:59:23:74:fa:4f:78:78:12:fb:8b:62:ce:15:94:f3:5c:
         13:f4:9d:4b
-----BEGIN CERTIFICATE-----
MIIC7TCCAdWgAwIBAgIEAN8B6DANBgkqhkiG9w0BAQsFADBSMQswCQYDVQQGEwJV
UzEWMBQGA1UEChMNTW90aGVyIE5hdHVyZTETMBEGA1UECxMKRXZlcnl0aGluZzEW
MBQGA1UEAxMNTW90aGVyIE5hdHVyZTAeFw0xNjA3MTEyMDQwMzRaFw0xNjA5MjMy
MDQwMzRaMIGZMQswCQYDVQQGEwJVUzELMAkGA1UECBMCRkwxFDASBgNVBAcTC1Rh
bGxhaGFzc2VlMRwwGgYDVQQJExMzMjEwIEhvbGx5IE1pbGwgUnVuMQ4wDAYDVQQR
EwUzMDA2MjEYMBYGA1UEChMPRXh0cmVtZSBEaXNjb3JkMQ4wDAYDVQQLEwVDaGFv
czEPMA0GA1UEAxMGZ292LnVzME4wEAYHKoZIzj0CAQYFK4EEACEDOgAEgTQlgUqI
xf6rTqPHTS1m2hE+hC1rWsD6fsQkHAVJMAx3PSeS3FUKoEuzug3ce6E76dd2X7wf
sIejWTBXMAwGA1UdEwEB/wQCMAAwDgYDVR0jBAcwBYADAQIDMA0GA1UdDgQGBAQE
AwIBMBsGA1UdEQQUMBKCCCouZ292LnVzggZnb3YudXMwCwYDVR0PBAQDAgEYMA0G
CSqGSIb3DQEBCwUAA4IBAQB1qnOrx2sOHcuRUXzqv5zOKQPs7B5oYgLkO9CCUMq+
azb4o0ZNVPbLhzqXV4FygLgnPs2ahEASwXXKFtsLpI3hCgUy52J7tGXc0Dss0gzg
EYW1wq5EzlBnI37dFcsm/PwbAXyfg2G9PatupmLxvr/MLdMnA2jX02rKBksNZAAi
nEY6eYVM0pcKPVTxOMmjAAipxdM3SRpx1bo5iV5W1SBUGWBxO/DW5e0AKDQ/7z2v
eR1rvX+XtPb6w2a99sDUG28hfAUGc+iWLvjMkfZxa1nmKO0OIIjOXt9SbvOhz5X7
AQmbYPJ8A58yv8k/A1kjdPpPeHgS+4tizhWU81wT9J1L
-----END CERTIFICATE-----
