Certificate:
    Data:
        Version: 3 (0x2)
        Serial Number: 14615016 (0xdf01e8)
    Signature Algorithm: sha256WithRSAEncryption
        Issuer: C = US, O = Mother Nature, OU = Everything, CN = Mother Nature
        Validity
            Not Before: Apr 25 18:44:14 2017 GMT
            Not After : Jul  7 18:44:14 2017 GMT
        Subject: C = US, O = 01234567890123456789012345678901234567890123456789012345678901234, OU = Chaos, L = Locality, ST = Florida, street = 3210 Holly Mill Run, postalCode = 30062, CN = Fake common name
        Subject Public Key Info:
            Public Key Algorithm: rsaEncryption
                Public-Key: (2048 bit)
                Modulus:
                    00:e4:a1:b8:55:13:36:08:4b:4a:aa:15:1f:eb:ac:
                    be:8e:12:06:e8:12:40:2c:51:19:a9:b1:f8:c3:0a:
                    7a:d7:05:45:9a:e8:85:01:43:e1:45:3b:47:0e:3c:
                    46:3f:a0:22:eb:0d:3f:9e:dc:31:cb:6f:b2:6b:22:
                    14:60:ed:45:a0:68:c4:83:93:d6:7b:09:56:ab:14:
                    02:31:a3:1d:03:02:12:cf:60:70:6f:28:16:64:55:
                    cb:ce:e8:61:23:2d:8a:13:0d:d6:3f:36:df:92:09:
                    f5:af:9e:ba:a1:4d:86:51:95:8d:bf:ff:a7:dd:f3:
                    c1:b3:a6:e9:63:68:28:a2:59:b8:15:f2:1b:f1:13:
                    9f:6f:f3:60:26:51:16:a9:cf:43:01:ec:08:01:a9:
                    8a:96:03:e1:fd:63:d5:f3:cd:c2:03:05:b8:44:2d:
                    bb:d6:a1:61:e8:f6:5f:da:59:5b:8a:ff:fd:f4:6e:
                    51:86:8c:cd:df:88:44:e6:4f:42:0e:1e:c4:43:1a:
                    64:eb:d6:e0:39:5e:f1:50:02:1b:b8:55:02:63:9f:
                    57:7f:b5:40:f2:22:95:63:97:c1:d3:10:7e:db:95:
                    8e:08:e8:fb:eb:bb:4b:c6:77:a0:f7:1e:02:01:76:
                    3a:31:ec:0c:8a:4e:dc:2e:19:49:d4:6f:86:ae:27:
                    1c:d1
                Exponent: 65537 (0x10001)
        X509v3 extensions:
            X509v3 Basic Constraints: critical
                CA:FALSE
            X509v3 Authority Key Identifier: 
                keyid:01:02:03

            Authority Information Access: 
                OCSP - URI:http://theca.net/ocsp
                CA Issuers - URI:theca.net/totallythecert.crt

            X509v3 Subject Alternative Name: 
                DNS:Not a dns, IP Address:128.168.45.1
            X509v3 CRL Distribution Points: 

                Full Name:
                  URI:ldap://theca.net/crlpoint

            X509v3 Subject Key Identifier: 
                04:03:02:01
            X509v3 Key Usage: 
                Data Encipherment, Key Agreement
            X509v3 Extended Key Usage: 
                TLS Web Server Authentication, 1.2.840.113635.100.4.3, Signing KDC Response, Any Extended Key Usage
            X509v3 Certificate Policies: 
                Policy: 2.16.840.1.114414.1.7.23.1
                  CPS: http://certificates.starfieldtech.com/repository/

    Signature Algorithm: sha256WithRSAEncryption
         63:68:76:57:e2:d4:24:93:3f:4f:a0:90:65:03:fa:94:ac:d5:
         46:d7:bf:cb:22:b6:c7:2a:3c:00:21:82:66:f5:e2:e4:98:b1:
         e2:91:5b:7e:e9:d5:d1:a8:fe:bf:fc:78:e4:f1:04:46:87:93:
         be:af:3e:f6:61:e5:a5:36:8f:7c:3e:b2:54:8e:95:66:7b:17:
         a7:3c:3a:41:9d:b4:70:ff:ed:32:0c:05:7a:14:e6:e6:39:a6:
         b0:fc:ee:ba:a5:26:19:5c:a7:01:22:e0:c2:10:30:44:c5:d6:
         82:2d:a7:35:f3:bc:51:70:5a:ff:71:0c:f9:81:67:08:c0:17:
         3d:5c:06:ac:0f:9a:f7:3f:4d:eb:81:18:4f:57:4b:62:c1:ca:
         2c:2e:92:3f:96:12:63:58:e2:c7:85:dd:14:bc:4f:49:a2:e1:
         a2:db:b3:62:46:74:59:3b:43:cc:c8:27:ca:3e:f1:44:af:82:
         56:88:2e:f9:9c:5b:09:c0:f1:f3:f0:00:b2:e0:c8:0b:f8:02:
         15:e9:92:ac:8a:9a:c0:5c:00:73:d4:ea:8d:e2:14:d8:7c:39:
         e1:08:3f:d5:29:da:fa:7c:f2:d4:04:a8:f5:7c:90:7c:0f:6b:
         af:6d:39:b4:4d:22:ba:12:e5:64:1b:30:09:e6:6a:64:33:1a:
         cd:63:38:c2
-----BEGIN CERTIFICATE-----
MIIFFzCCBAGgAwIBAgIEAN8B6DALBgkqhkiG9w0BAQswVDELMAkGA1UEBhMCVVMx
FjAUBgNVBAoTDU1vdGhlciBOYXR1cmUxEzARBgNVBAsTCkV2ZXJ5dGhpbmcxFjAU
BgNVBAMTDU1vdGhlciBOYXR1cmUxADAeFw0xNzA0MjUxODQ0MTRaFw0xNzA3MDcx
ODQ0MTRaMIHZMQswCQYDVQQGEwJVUzFKMEgGA1UEChNBMDEyMzQ1Njc4OTAxMjM0
NTY3ODkwMTIzNDU2Nzg5MDEyMzQ1Njc4OTAxMjM0NTY3ODkwMTIzNDU2Nzg5MDEy
MzQxDjAMBgNVBAsTBUNoYW9zMREwDwYDVQQHEwhMb2NhbGl0eTEQMA4GA1UECBMH
RmxvcmlkYTEcMBoGA1UECRMTMzIxMCBIb2xseSBNaWxsIFJ1bjEOMAwGA1UEERMF
MzAwNjIxGTAXBgNVBAMTEEZha2UgY29tbW9uIG5hbWUxADCCASIwDQYJKoZIhvcN
AQEBBQADggEPADCCAQoCggEBAOShuFUTNghLSqoVH+usvo4SBugSQCxRGamx+MMK
etcFRZrohQFD4UU7Rw48Rj+gIusNP57cMctvsmsiFGDtRaBoxIOT1nsJVqsUAjGj
HQMCEs9gcG8oFmRVy87oYSMtihMN1j8235IJ9a+euqFNhlGVjb//p93zwbOm6WNo
KKJZuBXyG/ETn2/zYCZRFqnPQwHsCAGpipYD4f1j1fPNwgMFuEQtu9ahYej2X9pZ
W4r//fRuUYaMzd+IROZPQg4exEMaZOvW4Dle8VACG7hVAmOfV3+1QPIilWOXwdMQ
ftuVjgjo++u7S8Z3oPceAgF2OjHsDIpO3C4ZSdRvhq4nHNECAwEAAaOCAW0wggFp
MAwGA1UdEwEB/wQCMAAwDgYDVR0jBAcwBYADAQIDMFsGCCsGAQUFBwEBBE8wTTAh
BggrBgEFBQcwAYYVaHR0cDovL3RoZWNhLm5ldC9vY3NwMCgGCCsGAQUFBzAChhx0
aGVjYS5uZXQvdG90YWxseXRoZWNlcnQuY3J0MBoGA1UdEQQTMBGCCU5vdCBhIGRu
c4cEgKgtATAqBgNVHR8EIzAhMB+gHaAbhhlsZGFwOi8vdGhlY2EubmV0L2NybHBv
aW50MA0GA1UdDgQGBAQEAwIBMAsGA1UdDwQEAwIBGDAtBgNVHSUEJjAkBggrBgEF
BQcDAQYJKoZIhvdjZAQDBgcrBgEFAgMFBgRVHSUAMFkGA1UdIARSMFAwTgYLYIZI
AYb9bgEHFwEwPzA9BggrBgEFBQcCARYxaHR0cDovL2NlcnRpZmljYXRlcy5zdGFy
ZmllbGR0ZWNoLmNvbS9yZXBvc2l0b3J5LzALBgkqhkiG9w0BAQsDggEBAGNodlfi
1CSTP0+gkGUD+pSs1UbXv8sitscqPAAhgmb14uSYseKRW37p1dGo/r/8eOTxBEaH
k76vPvZh5aU2j3w+slSOlWZ7F6c8OkGdtHD/7TIMBXoU5uY5prD87rqlJhlcpwEi
4MIQMETF1oItpzXzvFFwWv9xDPmBZwjAFz1cBqwPmvc/TeuBGE9XS2LByiwukj+W
EmNY4seF3RS8T0mi4aLbs2JGdFk7Q8zIJ8o+8USvglaILvmcWwnA8fPwALLgyAv4
AhXpkqyKmsBcAHPU6o3iFNh8OeEIP9Up2vp88tQEqPV8kHwPa69tObRNIroS5WQb
MAnmamQzGs1jOMI=
-----END CERTIFICATE-----
