Certificate:
    Data:
        Version: 3 (0x2)
        Serial Number: 18008675309 (0x4316693ed)
    Signature Algorithm: sha256WithRSAEncryption
        Issuer: C = US, O = Mother Nature, OU = Everything, CN = Mother Nature
        Validity
            Not Before: Jun 29 18:58:04 2016 GMT
            Not After : Sep 10 18:58:04 2016 GMT
        Subject: C = CN, O = Extreme Discord, OU = Chaos, L = Tallahassee, ST = FL, street = 3210 Holly Mill Run, postalCode = 30062, CN = gov.us
        Subject Public Key Info:
            Public Key Algorithm: rsaEncryption
                Public-Key: (2048 bit)
                Modulus:
                    00:b8:b9:4b:42:82:64:6c:7a:91:35:15:64:df:55:
                    ec:7d:9d:c1:ec:ba:10:9b:c1:1e:08:69:f1:6f:a6:
                    84:8e:66:45:cc:42:fb:17:a3:08:05:c2:da:31:bc:
                    a8:4e:8c:33:4a:25:22:97:8c:25:e4:ed:70:83:5d:
                    f2:06:5c:5e:d1:87:e8:2b:fd:72:f4:52:50:b8:f9:
                    c6:b6:9b:73:6a:db:fb:b6:f6:50:26:51:40:03:42:
                    5f:26:45:67:73:ef:a9:e9:8d:fc:fe:a1:61:42:89:
                    84:24:be:c8:7b:4a:12:3c:76:2d:1b:28:63:b3:eb:
                    29:2e:89:7c:0f:be:12:75:2a:e2:ce:8e:59:84:8d:
                    7d:89:05:36:fe:91:2a:76:d8:f3:54:6a:45:81:6b:
                    9b:e5:4e:89:9f:70:a8:7c:6c:64:42:4f:36:d5:81:
                    c2:03:5d:8f:b2:ae:d9:62:26:24:fc:d7:6b:cf:a5:
                    0c:a8:cd:35:e2:65:18:e8:3a:71:c5:41:bf:ed:19:
                    e2:7d:de:24:0d:dc:90:6a:dc:4b:ea:9e:fe:55:82:
                    0c:7f:49:52:17:60:8e:64:a0:a4:68:3b:61:5e:e8:
                    4b:45:94:7e:7e:0a:b1:41:2a:06:b6:fa:f1:4d:87:
                    a1:56:d0:74:63:0b:92:c7:77:48:99:9e:c8:10:6a:
                    e9:7b
                Exponent: 65537 (0x10001)
        X509v3 extensions:
            X509v3 Key Usage: critical
                Digital Signature, Key Encipherment
            X509v3 Extended Key Usage: 
                TLS Web Client Authentication, TLS Web Server Authentication
            X509v3 Basic Constraints: critical
                CA:FALSE
            X509v3 Authority Key Identifier: 
                keyid:01:02:03

            Authority Information Access: 
                OCSP - URI:http://theca.net/ocsp
                CA Issuers - URI:http://theca.net/totallythecert.crt

            X509v3 Certificate Policies: 
                Policy: 2.23.140.1.2.2

            X509v3 Subject Key Identifier: 
                04:03:02:01
            X509v3 Subject Alternative Name: 
                DNS:*.gov.us, DNS:gov.us
    Signature Algorithm: sha256WithRSAEncryption
         63:52:88:df:d5:88:d5:d7:6b:a5:71:c7:1d:4c:12:d4:e1:50:
         11:01:c4:10:13:d2:23:14:f0:d4:9e:5a:85:ba:8d:b0:93:d0:
         b5:53:9a:da:27:67:65:13:c5:ab:b3:cb:17:b6:85:1e:f8:48:
         79:5c:4f:78:c4:03:f2:13:4d:e0:1d:ea:9b:07:09:2a:22:79:
         96:55:67:02:59:d2:10:8f:f3:86:1c:27:bf:ae:0a:fc:7b:04:
         7b:28:74:12:f6:21:50:94:d4:aa:ea:57:43:37:ee:86:c5:01:
         8a:0b:38:5d:aa:36:09:6c:6a:f1:77:59:3b:7f:87:32:2a:63:
         8b:20:b3:b8:ba:3f:6e:12:91:1e:ab:72:3e:77:d0:82:97:b0:
         59:17:25:21:a4:fe:59:e4:77:fc:d0:12:6c:88:ee:4e:62:f6:
         cf:ce:d0:87:b1:ea:17:88:c9:9b:f3:6c:51:7d:6c:a1:af:96:
         db:1a:4f:ad:b2:f1:07:6c:2f:e6:a5:8c:22:f5:3f:86:9c:eb:
         27:2c:db:12:9a:b9:fe:bf:f8:24:9e:1c:c7:05:5d:c0:eb:b4:
         76:2b:5f:fe:93:3e:67:58:41:b8:fd:b1:94:7a:05:6b:d2:7d:
         b6:da:75:5e:74:f6:3c:9e:c3:de:23:88:05:37:b7:d7:fa:9a:
         5c:96:1a:7d
-----BEGIN CERTIFICATE-----
MIIEYTCCA0mgAwIBAgIFBDFmk+0wDQYJKoZIhvcNAQELBQAwUjELMAkGA1UEBhMC
VVMxFjAUBgNVBAoTDU1vdGhlciBOYXR1cmUxEzARBgNVBAsTCkV2ZXJ5dGhpbmcx
FjAUBgNVBAMTDU1vdGhlciBOYXR1cmUwHhcNMTYwNjI5MTg1ODA0WhcNMTYwOTEw
MTg1ODA0WjCBmTELMAkGA1UEBhMCQ04xGDAWBgNVBAoTD0V4dHJlbWUgRGlzY29y
ZDEOMAwGA1UECxMFQ2hhb3MxFDASBgNVBAcTC1RhbGxhaGFzc2VlMQswCQYDVQQI
EwJGTDEcMBoGA1UECRMTMzIxMCBIb2xseSBNaWxsIFJ1bjEOMAwGA1UEERMFMzAw
NjIxDzANBgNVBAMTBmdvdi51czCCASIwDQYJKoZIhvcNAQEBBQADggEPADCCAQoC
ggEBALi5S0KCZGx6kTUVZN9V7H2dwey6EJvBHghp8W+mhI5mRcxC+xejCAXC2jG8
qE6MM0olIpeMJeTtcINd8gZcXtGH6Cv9cvRSULj5xrabc2rb+7b2UCZRQANCXyZF
Z3PvqemN/P6hYUKJhCS+yHtKEjx2LRsoY7PrKS6JfA++EnUq4s6OWYSNfYkFNv6R
KnbY81RqRYFrm+VOiZ9wqHxsZEJPNtWBwgNdj7Ku2WImJPzXa8+lDKjNNeJlGOg6
ccVBv+0Z4n3eJA3ckGrcS+qe/lWCDH9JUhdgjmSgpGg7YV7oS0WUfn4KsUEqBrb6
8U2HoVbQdGMLksd3SJmeyBBq6XsCAwEAAaOB9TCB8jAOBgNVHQ8BAf8EBAMCBaAw
HQYDVR0lBBYwFAYIKwYBBQUHAwIGCCsGAQUFBwMBMAwGA1UdEwEB/wQCMAAwDgYD
VR0jBAcwBYADAQIDMGIGCCsGAQUFBwEBBFYwVDAhBggrBgEFBQcwAYYVaHR0cDov
L3RoZWNhLm5ldC9vY3NwMC8GCCsGAQUFBzAChiNodHRwOi8vdGhlY2EubmV0L3Rv
dGFsbHl0aGVjZXJ0LmNydDATBgNVHSAEDDAKMAgGBmeBDAECAjANBgNVHQ4EBgQE
BAMCATAbBgNVHREEFDASgggqLmdvdi51c4IGZ292LnVzMA0GCSqGSIb3DQEBCwUA
A4IBAQBjUojf1YjV12ulcccdTBLU4VARAcQQE9IjFPDUnlqFuo2wk9C1U5raJ2dl
E8Wrs8sXtoUe+Eh5XE94xAPyE03gHeqbBwkqInmWVWcCWdIQj/OGHCe/rgr8ewR7
KHQS9iFQlNSq6ldDN+6GxQGKCzhdqjYJbGrxd1k7f4cyKmOLILO4uj9uEpEeq3I+
d9CCl7BZFyUhpP5Z5Hf80BJsiO5OYvbPztCHseoXiMmb82xRfWyhr5bbGk+tsvEH
bC/mpYwi9T+GnOsnLNsSmrn+v/gknhzHBV3A67R2K1/+kz5nWEG4/bGUegVr0n22
2nVedPY8nsPeI4gFN7fX+ppclhp9
-----END CERTIFICATE-----
