Certificate:
    Data:
        Version: 3 (0x2)
        Serial Number: 18008675984 (0x431669690)
    Signature Algorithm: sha256WithRSAEncryption
        Issuer: C = US, O = Mother Nature, OU = Everything, CN = Mother Nature
        Validity
            Not Before: Jul  1 23:11:45 2016 GMT
            Not After : Sep 13 23:11:45 2016 GMT
        Subject: 
        Subject Public Key Info:
            Public Key Algorithm: rsaEncryption
                Public-Key: (2048 bit)
                Modulus:
                    00:c1:fd:6f:5b:df:b9:13:a6:9d:4c:c6:0f:c1:ef:
                    bc:34:46:a4:e1:d8:63:ef:3a:b9:c9:5c:bc:f7:32:
                    11:3f:17:a3:53:d7:92:5c:5a:18:c0:fb:97:4a:7e:
                    b6:5d:00:08:cd:98:99:36:c8:49:2e:a9:fe:c2:2a:
                    db:89:b8:16:df:50:ab:5f:7e:72:64:8f:36:6a:25:
                    e7:a9:62:6b:cb:cf:de:f4:b1:ed:b8:9a:5e:2f:89:
                    3b:93:1b:34:10:55:02:1a:60:02:1a:4f:be:03:24:
                    d6:59:f2:9f:55:2f:2b:04:70:68:de:21:b8:e2:ee:
                    2a:6d:d0:9d:a0:b8:ab:ef:70:ce:5e:0d:94:6d:53:
                    1c:c2:7d:0e:66:7d:be:df:90:bf:16:76:57:a8:57:
                    5d:c0:d9:f2:f4:98:d7:cc:5d:d7:62:95:96:5d:c9:
                    f9:70:30:ad:75:04:b4:5a:09:3f:2d:1c:c0:24:d0:
                    fc:bb:c8:57:2f:5c:fa:0f:3e:49:2a:09:71:7e:3f:
                    ee:3e:f4:10:2d:45:13:97:2a:5e:3e:2b:f2:44:b3:
                    56:80:9a:0f:c7:b1:a0:56:63:8e:2e:81:99:47:6b:
                    eb:6e:ee:9e:b5:cc:31:35:a4:60:ba:37:17:8a:1b:
                    33:2a:9a:88:63:49:c1:eb:9c:77:2a:1c:d9:d5:47:
                    f0:c7
                Exponent: 65537 (0x10001)
        X509v3 extensions:
            X509v3 Key Usage: critical
                Digital Signature, Key Encipherment
            X509v3 Extended Key Usage: 
                TLS Web Client Authentication, TLS Web Server Authentication
            X509v3 Basic Constraints: critical
                CA:FALSE
            X509v3 Authority Key Identifier: 
                keyid:01:02:03

            Authority Information Access: 
                OCSP - URI:http://theca.net/ocsp
                CA Issuers - URI:http://theca.net/totallythecert.crt

            X509v3 Certificate Policies: 
                Policy: 1.3.6.1.5.5.7.13.1

            X509v3 Subject Key Identifier: 
                04:03:02:01
            X509v3 Issuer Alternative Name: 
                DNS:allthethings.net, DNS:theca.net
    Signature Algorithm: sha256WithRSAEncryption
         7e:02:c1:2c:04:98:f7:66:bc:a0:8e:41:4c:c0:9b:b9:81:fe:
         79:77:4e:72:db:5e:72:82:3a:36:8c:41:0f:51:92:7e:76:e3:
         91:97:45:a9:bc:9c:fb:cc:c2:22:23:cb:b3:04:02:99:6f:6b:
         12:b3:c7:e7:ce:e6:57:12:33:3a:e1:ae:88:d3:b5:54:14:95:
         c6:51:ed:24:34:d6:37:98:d7:d4:de:d9:f0:78:a7:98:84:25:
         fc:92:a9:30:08:9a:5c:86:90:d5:03:f9:d6:a3:f9:79:2f:d1:
         3c:17:e8:98:16:f8:d6:d5:f9:e8:f8:27:c8:5e:8d:4c:e4:a8:
         e3:e7:e8:37:ab:8f:eb:67:c5:94:0a:5d:c6:8f:5f:aa:0f:e3:
         94:90:ad:de:1f:1e:71:ea:e8:be:7c:12:f7:4f:23:c7:08:b7:
         40:fe:ff:6b:43:0c:0c:e5:49:d2:c8:b9:5a:3a:07:37:28:84:
         9d:f7:c3:2d:10:bd:2b:bb:be:03:f1:d6:4e:73:69:e3:05:90:
         51:84:f7:a3:61:03:77:e8:ee:93:28:ed:01:ce:b3:6b:ac:60:
         cf:c4:9d:7e:84:41:8d:a7:8f:00:92:56:18:10:40:4a:8f:09:
         f1:1b:ca:77:b3:bf:95:7d:92:c4:c3:64:e1:3f:bd:9e:96:15:
         3c:79:24:a3
-----BEGIN CERTIFICATE-----
MIID1TCCAr2gAwIBAgIFBDFmlpAwDQYJKoZIhvcNAQELBQAwUjELMAkGA1UEBhMC
VVMxFjAUBgNVBAoTDU1vdGhlciBOYXR1cmUxEzARBgNVBAsTCkV2ZXJ5dGhpbmcx
FjAUBgNVBAMTDU1vdGhlciBOYXR1cmUwHhcNMTYwNzAxMjMxMTQ1WhcNMTYwOTEz
MjMxMTQ1WjAAMIIBIjANBgkqhkiG9w0BAQEFAAOCAQ8AMIIBCgKCAQEAwf1vW9+5
E6adTMYPwe+8NEak4dhj7zq5yVy89zIRPxejU9eSXFoYwPuXSn62XQAIzZiZNshJ
Lqn+wirbibgW31CrX35yZI82aiXnqWJry8/e9LHtuJpeL4k7kxs0EFUCGmACGk++
AyTWWfKfVS8rBHBo3iG44u4qbdCdoLir73DOXg2UbVMcwn0OZn2+35C/FnZXqFdd
wNny9JjXzF3XYpWWXcn5cDCtdQS0Wgk/LRzAJND8u8hXL1z6Dz5JKglxfj/uPvQQ
LUUTlypePivyRLNWgJoPx7GgVmOOLoGZR2vrbu6etcwxNaRgujcXihszKpqIY0nB
65x3KhzZ1UfwxwIDAQABo4IBAjCB/zAOBgNVHQ8BAf8EBAMCBaAwHQYDVR0lBBYw
FAYIKwYBBQUHAwIGCCsGAQUFBwMBMAwGA1UdEwEB/wQCMAAwDgYDVR0jBAcwBYAD
AQIDMGIGCCsGAQUFBwEBBFYwVDAhBggrBgEFBQcwAYYVaHR0cDovL3RoZWNhLm5l
dC9vY3NwMC8GCCsGAQUFBzAChiNodHRwOi8vdGhlY2EubmV0L3RvdGFsbHl0aGVj
ZXJ0LmNydDAVBgNVHSAEDjAMMAoGCCsGAQUFBw0BMA0GA1UdDgQGBAQEAwIBMCYG
A1UdEgQfMB2CEGFsbHRoZXRoaW5ncy5uZXSCCXRoZWNhLm5ldDANBgkqhkiG9w0B
AQsFAAOCAQEAfgLBLASY92a8oI5BTMCbuYH+eXdOcttecoI6NoxBD1GSfnbjkZdF
qbyc+8zCIiPLswQCmW9rErPH587mVxIzOuGuiNO1VBSVxlHtJDTWN5jX1N7Z8Hin
mIQl/JKpMAiaXIaQ1QP51qP5eS/RPBfomBb41tX56PgnyF6NTOSo4+foN6uP62fF
lApdxo9fqg/jlJCt3h8ecerovnwS908jxwi3QP7/a0MMDOVJ0si5WjoHNyiEnffD
LRC9K7u+A/HWTnNp4wWQUYT3o2EDd+jukyjtAc6za6xgz8SdfoRBjaePAJJWGBBA
So8J8RvKd7O/lX2SxMNk4T+9npYVPHkkow==
-----END CERTIFICATE-----
