Certificate:
    Data:
        Version: 3 (0x2)
        Serial Number: 14615016 (0xdf01e8)
    Signature Algorithm: sha256WithRSAEncryption
        Issuer: C = US, O = Mother Nature, OU = Everything, CN = Mother Nature
        Validity
            Not Before: May  3 03:35:35 2017 GMT
            Not After : Jul 15 03:35:35 2017 GMT
        Subject: C = US, O = TotallyGoogle, OU = Google's Umbrella Corp, L = Locality, ST = Florida, street = 3210 Holly Mill Run, postalCode = 30062, CN = Fake common name
        Subject Public Key Info:
            Public Key Algorithm: rsaEncryption
                Public-Key: (2048 bit)
                Modulus:
                    00:f5:fd:5d:98:b5:b2:92:e2:51:81:7b:07:5a:1a:
                    b4:98:23:cb:9e:06:0c:8c:68:2d:34:ce:63:2d:c9:
                    1f:1f:67:30:0a:46:6f:36:b3:a6:24:1b:0d:04:23:
                    8c:92:e4:4b:c1:72:6b:c4:4d:d5:37:5e:2a:27:88:
                    08:1d:98:7c:3e:8e:00:50:9f:5c:13:ab:53:da:33:
                    88:1e:ea:f7:1b:8f:bb:08:0b:d6:ba:ce:1b:98:f3:
                    02:89:1d:ca:b1:f0:c3:80:bd:29:1e:ec:80:3e:bd:
                    66:d0:3a:17:3e:7c:9a:c7:ac:b9:69:c5:c8:a0:26:
                    95:66:85:1b:59:aa:cc:e8:13:74:44:c3:e4:73:05:
                    9f:e0:bc:ee:e0:d6:94:11:d8:ce:02:3b:ce:f0:92:
                    3d:e2:23:e5:d8:ce:03:3e:6d:96:8d:75:bc:94:e7:
                    f3:6f:5d:a3:87:73:25:65:95:ab:2f:62:2e:44:50:
                    d8:15:ae:c7:07:59:fc:1f:f9:a1:e9:fc:f9:ad:67:
                    96:7b:32:d7:73:96:cb:c4:c0:27:72:c1:d3:fe:cc:
                    d8:98:75:3b:fe:8e:ff:ea:bc:b7:f6:91:24:8d:9c:
                    63:68:93:0e:6d:4f:77:e1:39:ea:f9:31:d7:03:8b:
                    22:34:17:a1:34:5a:97:b5:c4:33:b4:60:fd:41:f6:
                    1d:3d
                Exponent: 65537 (0x10001)
        X509v3 extensions:
            X509v3 Basic Constraints: critical
                CA:FALSE
            X509v3 Authority Key Identifier: 
                keyid:01:02:03

            Authority Information Access: 
                OCSP - URI:http://theca.net/ocsp
                CA Issuers - URI:theca.net/totallythecert.crt

            X509v3 Subject Alternative Name: 
                DNS:Not a dns, IP Address:128.168.45.1
            X509v3 CRL Distribution Points: 

                Full Name:
                  URI:ldap://theca.net/crlpoint

            X509v3 Subject Key Identifier: 
                04:03:02:01
            X509v3 Key Usage: 
                Data Encipherment, Key Agreement
            X509v3 Extended Key Usage: 
                TLS Web Server Authentication, 1.2.840.113635.100.4.3, Signing KDC Response, Any Extended Key Usage
            X509v3 Certificate Policies: 
                Policy: 2.16.840.1.114414.1.7.23.1
                  CPS: http://certificates.starfieldtech.com/repository/

    Signature Algorithm: sha256WithRSAEncryption
         81:11:9b:76:19:49:39:10:48:17:6d:c5:00:96:bb:b1:c9:bc:
         07:5c:a1:5a:68:eb:5b:c6:21:dd:36:9d:42:ed:d6:f1:84:76:
         0c:cd:f8:02:69:0b:0f:cd:2f:1f:87:c0:a9:95:00:b7:df:b2:
         b8:14:68:7d:24:c6:5d:49:5f:94:d1:98:bf:f8:a6:4f:6d:29:
         af:13:95:75:01:6c:6c:65:ef:5c:ea:d0:50:63:ea:b3:4a:94:
         8c:3a:03:2d:ca:6a:0c:03:4f:f4:42:44:06:cd:83:14:76:73:
         c5:b8:95:24:0c:9b:47:e8:e6:06:81:8a:20:41:0f:fb:79:03:
         d9:01:79:e8:09:ba:a8:24:f4:ba:e8:fa:1f:71:8c:1f:fd:a7:
         62:55:23:b9:6f:c6:fd:06:ed:13:df:09:d3:85:25:d8:2d:43:
         8d:77:a1:f8:eb:be:06:e0:73:5d:94:2d:9f:a2:49:70:36:47:
         4a:92:10:ff:cc:3d:aa:bc:72:b6:a5:cf:df:a1:38:0e:da:a4:
         1a:ec:e8:cb:57:28:ee:c4:cf:09:1e:bd:f1:c9:19:c0:b5:d4:
         c4:67:b2:aa:b7:1b:f1:dc:40:48:f1:e5:44:c7:63:0a:0b:8e:
         31:cb:0f:50:e8:15:53:f5:8c:49:c1:46:0e:2b:c9:52:94:a4:
         d8:9b:45:d8
-----BEGIN CERTIFICATE-----
MIIE9DCCA96gAwIBAgIEAN8B6DALBgkqhkiG9w0BAQswVDELMAkGA1UEBhMCVVMx
FjAUBgNVBAoTDU1vdGhlciBOYXR1cmUxEzARBgNVBAsTCkV2ZXJ5dGhpbmcxFjAU
BgNVBAMTDU1vdGhlciBOYXR1cmUxADAeFw0xNzA1MDMwMzM1MzVaFw0xNzA3MTUw
MzM1MzVaMIG2MQswCQYDVQQGEwJVUzEWMBQGA1UEChMNVG90YWxseUdvb2dsZTEf
MB0GA1UECxMWR29vZ2xlJ3MgVW1icmVsbGEgQ29ycDERMA8GA1UEBxMITG9jYWxp
dHkxEDAOBgNVBAgTB0Zsb3JpZGExHDAaBgNVBAkTEzMyMTAgSG9sbHkgTWlsbCBS
dW4xDjAMBgNVBBETBTMwMDYyMRkwFwYDVQQDExBGYWtlIGNvbW1vbiBuYW1lMQAw
ggEiMA0GCSqGSIb3DQEBAQUAA4IBDwAwggEKAoIBAQD1/V2YtbKS4lGBewdaGrSY
I8ueBgyMaC00zmMtyR8fZzAKRm82s6YkGw0EI4yS5EvBcmvETdU3XioniAgdmHw+
jgBQn1wTq1PaM4ge6vcbj7sIC9a6zhuY8wKJHcqx8MOAvSke7IA+vWbQOhc+fJrH
rLlpxcigJpVmhRtZqszoE3REw+RzBZ/gvO7g1pQR2M4CO87wkj3iI+XYzgM+bZaN
dbyU5/NvXaOHcyVllasvYi5EUNgVrscHWfwf+aHp/PmtZ5Z7MtdzlsvEwCdywdP+
zNiYdTv+jv/qvLf2kSSNnGNokw5tT3fhOer5MdcDiyI0F6E0Wpe1xDO0YP1B9h09
AgMBAAGjggFtMIIBaTAMBgNVHRMBAf8EAjAAMA4GA1UdIwQHMAWAAwECAzBbBggr
BgEFBQcBAQRPME0wIQYIKwYBBQUHMAGGFWh0dHA6Ly90aGVjYS5uZXQvb2NzcDAo
BggrBgEFBQcwAoYcdGhlY2EubmV0L3RvdGFsbHl0aGVjZXJ0LmNydDAaBgNVHREE
EzARgglOb3QgYSBkbnOHBICoLQEwKgYDVR0fBCMwITAfoB2gG4YZbGRhcDovL3Ro
ZWNhLm5ldC9jcmxwb2ludDANBgNVHQ4EBgQEBAMCATALBgNVHQ8EBAMCARgwLQYD
VR0lBCYwJAYIKwYBBQUHAwEGCSqGSIb3Y2QEAwYHKwYBBQIDBQYEVR0lADBZBgNV
HSAEUjBQME4GC2CGSAGG/W4BBxcBMD8wPQYIKwYBBQUHAgEWMWh0dHA6Ly9jZXJ0
aWZpY2F0ZXMuc3RhcmZpZWxkdGVjaC5jb20vcmVwb3NpdG9yeS8wCwYJKoZIhvcN
AQELA4IBAQCBEZt2GUk5EEgXbcUAlruxybwHXKFaaOtbxiHdNp1C7dbxhHYMzfgC
aQsPzS8fh8CplQC337K4FGh9JMZdSV+U0Zi/+KZPbSmvE5V1AWxsZe9c6tBQY+qz
SpSMOgMtymoMA0/0QkQGzYMUdnPFuJUkDJtH6OYGgYogQQ/7eQPZAXnoCbqoJPS6
6PofcYwf/adiVSO5b8b9Bu0T3wnThSXYLUONd6H4674G4HNdlC2foklwNkdKkhD/
zD2qvHK2pc/foTgO2qQa7OjLVyjuxM8JHr3xyRnAtdTEZ7Kqtxvx3EBI8eVEx2MK
C44xyw9Q6BVT9YxJwUYOK8lSlKTYm0XY
-----END CERTIFICATE-----
