Certificate:
    Data:
        Version: 3 (0x2)
        Serial Number: 14615016 (0xdf01e8)
    Signature Algorithm: sha256WithRSAEncryption
        Issuer: C = US, O = Mother Nature, OU = Everything, CN = Mother Nature
        Validity
            Not Before: Apr 25 18:43:30 2017 GMT
            Not After : Jul  7 18:43:30 2017 GMT
        Subject: C = US, O = Extreme Discord, OU = Chaos, L = Locality, ST = Florida, street = 3210 Holly Mill Run, postalCode = 30062, CN = Fake common name
        Subject Public Key Info:
            Public Key Algorithm: rsaEncryption
                Public-Key: (2048 bit)
                Modulus:
                    00:a3:6a:50:8b:63:aa:2f:1e:3b:b8:28:25:9e:f9:
                    13:c3:2a:10:5f:25:51:82:36:e0:bc:3c:98:e7:c9:
                    e6:56:0b:81:ff:06:89:3c:43:89:a2:9d:e8:38:42:
                    69:b9:5a:08:04:44:c9:0a:9c:82:fe:4c:91:87:c8:
                    a8:a0:3b:24:30:50:fa:f8:f7:76:74:8e:ac:50:ef:
                    9c:ba:8f:c8:bf:cd:94:41:5f:12:4b:2f:23:9b:40:
                    0b:f0:61:f1:30:30:0a:3a:b5:c7:9e:e0:e4:c3:64:
                    a0:84:d6:55:43:6d:4d:5e:ea:53:f6:14:f4:f7:46:
                    75:56:83:78:f9:3d:aa:e0:80:c4:8e:48:15:be:6d:
                    be:92:26:9e:36:33:44:a5:f7:15:99:9d:9c:86:d3:
                    f2:27:c0:59:e3:11:0b:b0:ce:a2:1c:96:7a:c7:5c:
                    49:66:25:db:50:dd:71:6a:61:4f:d5:8c:52:dd:22:
                    45:b7:28:90:72:85:82:56:ef:9b:99:e3:44:08:f8:
                    88:9c:28:e2:26:cc:6d:ef:1e:79:9f:63:09:aa:24:
                    1b:ad:9a:d0:79:41:db:f1:5d:7b:fa:e7:7b:33:c6:
                    26:c2:f4:d6:15:0c:24:e8:c8:0c:fd:e7:c2:a3:f7:
                    0f:d1:de:90:d8:f2:b8:bb:18:f6:dd:88:df:55:36:
                    8b:b5
                Exponent: 65537 (0x10001)
        X509v3 extensions:
            X509v3 Basic Constraints: critical
                CA:FALSE
            X509v3 Authority Key Identifier: 
                keyid:01:02:03

            Authority Information Access: 
                OCSP - URI:http://theca.net/ocsp
                CA Issuers - URI:theca.net/totallythecert.crt

            X509v3 Subject Alternative Name: 
                DNS:Not a dns, IP Address:128.168.45.1
            X509v3 CRL Distribution Points: 

                Full Name:
                  URI:ldap://theca.net/crlpoint

            X509v3 Subject Key Identifier: 
                04:03:02:01
            X509v3 Key Usage: 
                Data Encipherment, Key Agreement
            X509v3 Extended Key Usage: 
                TLS Web Server Authentication, 1.2.840.113635.100.4.3, Signing KDC Response, Any Extended Key Usage
            X509v3 Certificate Policies: 
                Policy: 2.16.840.1.114414.1.7.23.1
                  CPS: http://certificates.starfieldtech.com/repository/

    Signature Algorithm: sha256WithRSAEncryption
         8e:1e:21:15:97:54:a4:96:88:5e:76:11:b3:c2:08:00:71:96:
         6e:85:e9:b1:0b:30:ea:3e:a7:d3:33:43:83:58:c8:30:fb:ea:
         bf:1e:3f:f6:e8:6c:a8:7f:4d:f2:70:14:a0:70:00:54:22:90:
         c5:86:1f:bf:bf:c8:89:81:4c:f7:5c:c9:12:d2:43:fa:5d:eb:
         bb:60:a8:f3:f1:39:0b:01:e9:f9:f0:f2:de:00:2d:f3:58:36:
         33:14:cf:6d:a6:49:92:b4:d7:e9:bc:ee:67:90:67:56:43:ef:
         0b:8a:ea:0b:b7:d5:11:5e:64:9f:db:d0:a3:61:cb:0a:e2:24:
         31:d5:22:0f:84:a0:75:13:2e:d2:51:14:a8:fb:fa:b3:e6:22:
         5a:75:1c:85:15:88:f6:75:60:38:2f:a3:26:7d:54:53:a0:77:
         74:47:12:bd:44:a9:8f:79:60:41:28:98:98:32:7f:8b:91:a2:
         92:8f:c6:97:a9:43:df:0b:5b:88:d9:a1:84:1f:b4:fb:d7:b4:
         c2:46:14:66:cc:30:2d:56:ee:22:fd:df:c0:5f:2e:ad:08:f6:
         3a:17:f4:0d:e6:95:9a:e5:26:62:63:44:e0:ff:d5:26:7a:e7:
         d3:bc:0c:34:67:70:8d:07:93:3c:de:e8:a6:72:e3:c5:7a:cb:
         f9:29:18:94
-----BEGIN CERTIFICATE-----
MIIE5TCCA8+gAwIBAgIEAN8B6DALBgkqhkiG9w0BAQswVDELMAkGA1UEBhMCVVMx
FjAUBgNVBAoTDU1vdGhlciBOYXR1cmUxEzARBgNVBAsTCkV2ZXJ5dGhpbmcxFjAU
BgNVBAMTDU1vdGhlciBOYXR1cmUxADAeFw0xNzA0MjUxODQzMzBaFw0xNzA3MDcx
ODQzMzBaMIGnMQswCQYDVQQGEwJVUzEYMBYGA1UEChMPRXh0cmVtZSBEaXNjb3Jk
MQ4wDAYDVQQLEwVDaGFvczERMA8GA1UEBxMITG9jYWxpdHkxEDAOBgNVBAgTB0Zs
b3JpZGExHDAaBgNVBAkTEzMyMTAgSG9sbHkgTWlsbCBSdW4xDjAMBgNVBBETBTMw
MDYyMRkwFwYDVQQDExBGYWtlIGNvbW1vbiBuYW1lMQAwggEiMA0GCSqGSIb3DQEB
AQUAA4IBDwAwggEKAoIBAQCjalCLY6ovHju4KCWe+RPDKhBfJVGCNuC8PJjnyeZW
C4H/Bok8Q4mineg4Qmm5WggERMkKnIL+TJGHyKigOyQwUPr493Z0jqxQ75y6j8i/
zZRBXxJLLyObQAvwYfEwMAo6tcee4OTDZKCE1lVDbU1e6lP2FPT3RnVWg3j5Parg
gMSOSBW+bb6SJp42M0Sl9xWZnZyG0/InwFnjEQuwzqIclnrHXElmJdtQ3XFqYU/V
jFLdIkW3KJByhYJW75uZ40QI+IicKOImzG3vHnmfYwmqJButmtB5QdvxXXv653sz
xibC9NYVDCToyAz958Kj9w/R3pDY8ri7GPbdiN9VNou1AgMBAAGjggFtMIIBaTAM
BgNVHRMBAf8EAjAAMA4GA1UdIwQHMAWAAwECAzBbBggrBgEFBQcBAQRPME0wIQYI
KwYBBQUHMAGGFWh0dHA6Ly90aGVjYS5uZXQvb2NzcDAoBggrBgEFBQcwAoYcdGhl
Y2EubmV0L3RvdGFsbHl0aGVjZXJ0LmNydDAaBgNVHREEEzARgglOb3QgYSBkbnOH
BICoLQEwKgYDVR0fBCMwITAfoB2gG4YZbGRhcDovL3RoZWNhLm5ldC9jcmxwb2lu
dDANBgNVHQ4EBgQEBAMCATALBgNVHQ8EBAMCARgwLQYDVR0lBCYwJAYIKwYBBQUH
AwEGCSqGSIb3Y2QEAwYHKwYBBQIDBQYEVR0lADBZBgNVHSAEUjBQME4GC2CGSAGG
/W4BBxcBMD8wPQYIKwYBBQUHAgEWMWh0dHA6Ly9jZXJ0aWZpY2F0ZXMuc3RhcmZp
ZWxkdGVjaC5jb20vcmVwb3NpdG9yeS8wCwYJKoZIhvcNAQELA4IBAQCOHiEVl1Sk
lohedhGzwggAcZZuhemxCzDqPqfTM0ODWMgw++q/Hj/26Gyof03ycBSgcABUIpDF
hh+/v8iJgUz3XMkS0kP6Xeu7YKjz8TkLAen58PLeAC3zWDYzFM9tpkmStNfpvO5n
kGdWQ+8LiuoLt9URXmSf29CjYcsK4iQx1SIPhKB1Ey7SURSo+/qz5iJadRyFFYj2
dWA4L6MmfVRToHd0RxK9RKmPeWBBKJiYMn+LkaKSj8aXqUPfC1uI2aGEH7T717TC
RhRmzDAtVu4i/d/AXy6tCPY6F/QN5pWa5SZiY0Tg/9UmeufTvAw0Z3CNB5M83uim
cuPFesv5KRiU
-----END CERTIFICATE-----
