Certificate:
    Data:
        Version: 3 (0x2)
        Serial Number: 14615016 (0xdf01e8)
    Signature Algorithm: sha256WithRSAEncryption
        Issuer: C = US, O = Mother Nature, OU = Everything, CN = Mother Nature
        Validity
            Not Before: Apr 25 17:58:30 2017 GMT
            Not After : Jul  7 17:58:30 2017 GMT
        Subject: C = US, O = Extreme Discord, OU = Chaos, L = 012345678901234567890123456789012345678901234567890123456789012345678901234567890123456789012345678901234567890123456789012345678, ST = FL, street = 3210 Holly Mill Run, postalCode = 30062, CN = Fake common name
        Subject Public Key Info:
            Public Key Algorithm: rsaEncryption
                Public-Key: (2048 bit)
                Modulus:
                    00:a5:83:26:7a:0a:6a:c3:54:26:3d:55:be:79:8c:
                    76:13:3f:94:59:0c:18:dd:0c:53:0b:6d:a2:f7:83:
                    73:b5:02:6c:67:fe:af:64:ab:1a:c8:59:43:93:ab:
                    07:91:df:85:b6:a2:01:89:e0:ec:51:0a:69:cb:7e:
                    66:e5:d8:25:22:04:cb:56:f7:df:42:fd:64:a0:52:
                    3f:63:4d:98:4e:a7:1b:77:67:f2:64:6b:14:0e:c0:
                    7f:59:61:fa:ea:82:66:48:ed:37:f5:d6:cf:50:ba:
                    15:06:12:28:4b:75:96:79:3a:88:e7:37:9b:39:0d:
                    f7:79:ca:f8:1e:b2:d5:ba:45:72:a6:d3:c0:47:d3:
                    55:f8:03:52:98:56:87:d0:31:55:b4:26:18:46:35:
                    79:bb:d5:d5:d5:e7:15:96:4b:44:fb:d0:f1:f8:6b:
                    1d:fa:64:48:8e:1d:87:3c:7b:54:03:47:90:dc:17:
                    1e:8a:97:a3:b0:e4:e1:a4:d1:fb:7a:f8:65:aa:6c:
                    b1:5e:58:c1:b5:e7:6b:1c:76:6b:97:80:b0:5d:9e:
                    b4:5f:4c:7b:3d:2d:1d:9e:b4:65:d5:63:1f:e6:91:
                    cc:e4:e4:08:65:85:17:60:0b:14:af:b7:b3:d5:b7:
                    62:1a:ef:a0:4d:cb:b5:67:3f:1d:e1:4a:77:b7:ab:
                    e8:0b
                Exponent: 65537 (0x10001)
        X509v3 extensions:
            X509v3 Basic Constraints: critical
                CA:FALSE
            X509v3 Authority Key Identifier: 
                keyid:01:02:03

            Authority Information Access: 
                OCSP - URI:http://theca.net/ocsp
                CA Issuers - URI:theca.net/totallythecert.crt

            X509v3 Subject Alternative Name: 
                DNS:Not a dns, IP Address:128.168.45.1
            X509v3 CRL Distribution Points: 

                Full Name:
                  URI:ldap://theca.net/crlpoint

            X509v3 Subject Key Identifier: 
                04:03:02:01
            X509v3 Key Usage: 
                Data Encipherment, Key Agreement
            X509v3 Extended Key Usage: 
                TLS Web Server Authentication, 1.2.840.113635.100.4.3, Signing KDC Response, Any Extended Key Usage
            X509v3 Certificate Policies: 
                Policy: 2.16.840.1.114414.1.7.23.1
                  CPS: http://certificates.starfieldtech.com/repository/

    Signature Algorithm: sha256WithRSAEncryption
         43:b5:05:5b:0c:6d:0b:ae:c3:11:2d:7a:6d:fb:a6:7a:ba:dc:
         ea:18:af:b0:a9:98:ab:8f:8a:ad:ec:93:42:6f:40:ed:f2:10:
         89:77:df:c9:e8:7b:f8:40:a0:fe:ca:a9:db:69:17:f7:3a:55:
         f1:4c:53:f2:22:80:9b:eb:d9:6e:0b:5f:80:d7:21:0b:39:37:
         14:f5:e9:5f:ad:6f:55:39:e3:b6:a8:5e:93:21:e9:1a:7e:8d:
         5f:26:fb:50:bb:09:64:d7:1b:7c:ce:12:40:a9:d9:ef:05:be:
         f0:c8:1e:73:e3:6f:fb:65:ed:2a:ae:dd:84:f8:fc:70:79:a1:
         82:88:b3:a0:64:0c:5c:7d:eb:53:cb:73:4d:93:7e:2e:fd:bf:
         0f:4d:94:a7:76:c5:3a:4c:09:97:ee:63:20:61:a8:0e:7f:a1:
         fe:1a:30:3e:fd:b6:29:93:87:2a:a5:cc:0b:b5:69:c4:48:22:
         7f:e9:d3:01:85:58:d5:95:92:b1:50:28:81:eb:d7:f0:e3:ae:
         dc:bf:2f:35:e9:1b:db:d2:d9:7d:94:94:23:1e:4d:03:2e:46:
         c4:89:22:db:9d:63:0b:cb:43:9c:b2:dd:8c:ad:f6:ed:d1:52:
         74:91:4e:bd:ed:40:2c:c2:83:8d:47:6c:d8:32:b4:45:e7:fc:
         30:96:7e:92
-----BEGIN CERTIFICATE-----
MIIFXTCCBEegAwIBAgIEAN8B6DALBgkqhkiG9w0BAQswVDELMAkGA1UEBhMCVVMx
FjAUBgNVBAoTDU1vdGhlciBOYXR1cmUxEzARBgNVBAsTCkV2ZXJ5dGhpbmcxFjAU
BgNVBAMTDU1vdGhlciBOYXR1cmUxADAeFw0xNzA0MjUxNzU4MzBaFw0xNzA3MDcx
NzU4MzBaMIIBHjELMAkGA1UEBhMCVVMxGDAWBgNVBAoTD0V4dHJlbWUgRGlzY29y
ZDEOMAwGA1UECxMFQ2hhb3MxgYwwgYkGA1UEBxOBgTAxMjM0NTY3ODkwMTIzNDU2
Nzg5MDEyMzQ1Njc4OTAxMjM0NTY3ODkwMTIzNDU2Nzg5MDEyMzQ1Njc4OTAxMjM0
NTY3ODkwMTIzNDU2Nzg5MDEyMzQ1Njc4OTAxMjM0NTY3ODkwMTIzNDU2Nzg5MDEy
MzQ1Njc4OTAxMjM0NTY3ODELMAkGA1UECBMCRkwxHDAaBgNVBAkTEzMyMTAgSG9s
bHkgTWlsbCBSdW4xDjAMBgNVBBETBTMwMDYyMRkwFwYDVQQDExBGYWtlIGNvbW1v
biBuYW1lMQAwggEiMA0GCSqGSIb3DQEBAQUAA4IBDwAwggEKAoIBAQClgyZ6CmrD
VCY9Vb55jHYTP5RZDBjdDFMLbaL3g3O1Amxn/q9kqxrIWUOTqweR34W2ogGJ4OxR
CmnLfmbl2CUiBMtW999C/WSgUj9jTZhOpxt3Z/JkaxQOwH9ZYfrqgmZI7Tf11s9Q
uhUGEihLdZZ5OojnN5s5Dfd5yvgestW6RXKm08BH01X4A1KYVofQMVW0JhhGNXm7
1dXV5xWWS0T70PH4ax36ZEiOHYc8e1QDR5DcFx6Kl6Ow5OGk0ft6+GWqbLFeWMG1
52scdmuXgLBdnrRfTHs9LR2etGXVYx/mkczk5AhlhRdgCxSvt7PVt2Ia76BNy7Vn
Px3hSne3q+gLAgMBAAGjggFtMIIBaTAMBgNVHRMBAf8EAjAAMA4GA1UdIwQHMAWA
AwECAzBbBggrBgEFBQcBAQRPME0wIQYIKwYBBQUHMAGGFWh0dHA6Ly90aGVjYS5u
ZXQvb2NzcDAoBggrBgEFBQcwAoYcdGhlY2EubmV0L3RvdGFsbHl0aGVjZXJ0LmNy
dDAaBgNVHREEEzARgglOb3QgYSBkbnOHBICoLQEwKgYDVR0fBCMwITAfoB2gG4YZ
bGRhcDovL3RoZWNhLm5ldC9jcmxwb2ludDANBgNVHQ4EBgQEBAMCATALBgNVHQ8E
BAMCARgwLQYDVR0lBCYwJAYIKwYBBQUHAwEGCSqGSIb3Y2QEAwYHKwYBBQIDBQYE
VR0lADBZBgNVHSAEUjBQME4GC2CGSAGG/W4BBxcBMD8wPQYIKwYBBQUHAgEWMWh0
dHA6Ly9jZXJ0aWZpY2F0ZXMuc3RhcmZpZWxkdGVjaC5jb20vcmVwb3NpdG9yeS8w
CwYJKoZIhvcNAQELA4IBAQBDtQVbDG0LrsMRLXpt+6Z6utzqGK+wqZirj4qt7JNC
b0Dt8hCJd9/J6Hv4QKD+yqnbaRf3OlXxTFPyIoCb69luC1+A1yELOTcU9elfrW9V
OeO2qF6TIekafo1fJvtQuwlk1xt8zhJAqdnvBb7wyB5z42/7Ze0qrt2E+PxweaGC
iLOgZAxcfetTy3NNk34u/b8PTZSndsU6TAmX7mMgYagOf6H+GjA+/bYpk4cqpcwL
tWnESCJ/6dMBhVjVlZKxUCiB69fw467cvy816Rvb0tl9lJQjHk0DLkbEiSLbnWML
y0Ocst2Mrfbt0VJ0kU697UAswoONR2zYMrRF5/wwln6S
-----END CERTIFICATE-----
