Certificate:
    Data:
        Version: 3 (0x2)
        Serial Number: 1337 (0x539)
        Signature Algorithm: sha256WithRSAEncryption
        Issuer: 
        Validity
            Not Before: Feb 27 13:58:15 2019 GMT
            Not After : Feb 24 14:58:15 2029 GMT
        Subject: 
        Subject Public Key Info:
            Public Key Algorithm: rsaEncryption
                RSA Public-Key: (512 bit)
                Modulus:
                    00:db:d3:8f:ab:1a:f5:3c:4e:9a:20:91:1c:31:39:
                    6f:ef:fb:01:89:b8:b7:9c:2b:29:37:89:e8:ec:64:
                    13:7f:2c:44:f3:b4:ee:de:62:32:7a:9d:eb:56:28:
                    39:96:f1:d9:3e:64:ed:f1:cd:8e:b6:cd:07:f3:17:
                    0f:a2:da:bc:6d
                Exponent: 65537 (0x10001)
        X509v3 extensions:
            X509v3 Extended Key Usage: 
                TLS Web Server Authentication, TLS Web Client Authentication
            X509v3 Basic Constraints: critical
                CA:FALSE
            X509v3 Subject Alternative Name: critical
                DNS:zmap.io, DNS:a.9.8.7.6.5.0.4.0.0.0.3.0.0.0.2.0.0.0.1.0.0.0.0.0.0.0.1.2.3.4.ip6.arpa
    Signature Algorithm: sha256WithRSAEncryption
         a4:e0:a3:18:b7:70:4e:83:55:b2:49:97:04:05:4e:e1:d8:6f:
         2d:56:9f:a4:53:34:23:2a:6b:50:bc:dc:06:e5:3c:ba:9a:0e:
         4b:62:a4:d8:63:6e:15:67:0a:ea:c3:d2:bf:1e:4b:3f:57:d8:
         ae:72:b7:f3:f0:b8:8f:00:ac:24
-----BEGIN CERTIFICATE-----
MIIBgjCCASygAwIBAgICBTkwDQYJKoZIhvcNAQELBQAwADAeFw0xOTAyMjcxMzU4
MTVaFw0yOTAyMjQxNDU4MTVaMAAwXDANBgkqhkiG9w0BAQEFAANLADBIAkEA29OP
qxr1PE6aIJEcMTlv7/sBibi3nCspN4no7GQTfyxE87Tu3mIyep3rVig5lvHZPmTt
8c2Ots0H8xcPotq8bQIDAQABo4GPMIGMMB0GA1UdJQQWMBQGCCsGAQUFBwMBBggr
BgEFBQcDAjAMBgNVHRMBAf8EAjAAMF0GA1UdEQEB/wRTMFGCB3ptYXAuaW+CRmEu
OS44LjcuNi41LjAuNC4wLjAuMC4zLjAuMC4wLjIuMC4wLjAuMS4wLjAuMC4wLjAu
MC4wLjEuMi4zLjQuaXA2LmFycGEwDQYJKoZIhvcNAQELBQADQQCk4KMYt3BOg1Wy
SZcEBU7h2G8tVp+kUzQjKmtQvNwG5Ty6mg5LYqTYY24VZwrqw9K/Hks/V9iucrfz
8LiPAKwk
-----END CERTIFICATE-----
