Certificate:
    Data:
        Version: 3 (0x2)
        Serial Number: 1337 (0x539)
        Signature Algorithm: sha256WithRSAEncryption
        Issuer: 
        Validity
            Not Before: Feb 27 16:35:26 2019 GMT
            Not After : Feb 24 17:35:26 2029 GMT
        Subject: 
        Subject Public Key Info:
            Public Key Algorithm: rsaEncryption
                RSA Public-Key: (512 bit)
                Modulus:
                    00:b9:be:cd:60:56:dd:66:68:a5:66:1c:7a:cb:d2:
                    5e:12:f5:40:22:94:bc:1a:08:d5:f2:bc:82:c5:58:
                    cb:e0:74:3b:6d:d2:8b:08:61:65:73:ca:f7:6f:5b:
                    ba:eb:a8:66:3c:3f:95:bb:c2:1d:b0:8f:e1:84:6f:
                    cd:c6:8c:9f:65
                Exponent: 65537 (0x10001)
        X509v3 extensions:
            X509v3 Extended Key Usage: 
                TLS Web Server Authentication, TLS Web Client Authentication
            X509v3 Basic Constraints: critical
                CA:FALSE
            X509v3 Subject Alternative Name: critical
                DNS:zmap.io, DNS:1.0.0.0.0.0.0.0.0.0.0.0.0.0.0.0.0.0.0.0.0.0.0.0.0.0.0.0.0.8.e.f.ip6.arpa
    Signature Algorithm: sha256WithRSAEncryption
         b9:6f:08:4e:35:93:f6:3e:ad:1e:e8:fd:73:ca:f9:13:a1:6c:
         5c:18:cb:be:cb:66:08:48:af:74:70:fb:97:88:2d:a8:26:fb:
         2f:5d:a6:7e:18:3a:27:bc:a1:eb:fb:c8:f8:81:54:4d:46:bb:
         65:60:d3:0e:68:46:8e:78:1e:ce
-----BEGIN CERTIFICATE-----
MIIBhDCCAS6gAwIBAgICBTkwDQYJKoZIhvcNAQELBQAwADAeFw0xOTAyMjcxNjM1
MjZaFw0yOTAyMjQxNzM1MjZaMAAwXDANBgkqhkiG9w0BAQEFAANLADBIAkEAub7N
YFbdZmilZhx6y9JeEvVAIpS8GgjV8ryCxVjL4HQ7bdKLCGFlc8r3b1u666hmPD+V
u8IdsI/hhG/NxoyfZQIDAQABo4GRMIGOMB0GA1UdJQQWMBQGCCsGAQUFBwMBBggr
BgEFBQcDAjAMBgNVHRMBAf8EAjAAMF8GA1UdEQEB/wRVMFOCB3ptYXAuaW+CSDEu
MC4wLjAuMC4wLjAuMC4wLjAuMC4wLjAuMC4wLjAuMC4wLjAuMC4wLjAuMC4wLjAu
MC4wLjAuMC44LmUuZi5pcDYuYXJwYTANBgkqhkiG9w0BAQsFAANBALlvCE41k/Y+
rR7o/XPK+ROhbFwYy77LZghIr3Rw+5eILagm+y9dpn4YOie8oev7yPiBVE1Gu2Vg
0w5oRo54Hs4=
-----END CERTIFICATE-----
