Certificate:
    Data:
        Version: 3 (0x2)
        Serial Number: 14615016 (0xdf01e8)
    Signature Algorithm: sha256WithRSAEncryption
        Issuer: C = US, O = Mother Nature, OU = Everything, CN = Mother Nature
        Validity
            Not Before: Apr 25 18:29:29 2017 GMT
            Not After : Jul  7 18:29:29 2017 GMT
        Subject: C = US, O = Extreme Discord, OU = Chaos, L = Locality, ST = 012345678901234567890123456789012345678901234567890123456789012345678901234567890123456789012345678901234567890123456789012345678, street = 3210 Holly Mill Run, postalCode = 30062, CN = Fake common name
        Subject Public Key Info:
            Public Key Algorithm: rsaEncryption
                Public-Key: (2048 bit)
                Modulus:
                    00:aa:d7:31:56:d1:6a:7a:1e:90:eb:2d:98:7f:a0:
                    51:19:4b:3b:ff:e8:3a:85:ae:f2:cb:0d:f7:ec:0f:
                    78:65:41:d0:8f:b1:39:d1:f4:a9:44:7a:14:08:7e:
                    e1:8e:14:8b:45:c3:c7:03:07:c1:7d:1a:eb:0c:c9:
                    ab:75:3a:69:ea:16:32:c7:e1:2e:dc:1f:05:2c:51:
                    10:9f:e7:a6:98:27:46:dc:62:11:b2:4f:7c:f7:00:
                    c8:25:23:52:93:f7:62:9c:af:4b:4d:bd:4d:f8:47:
                    95:d4:43:01:2e:5c:c9:5d:ab:00:f7:47:1c:b3:19:
                    5b:a1:77:84:b0:f4:63:41:2b:dd:7a:b7:38:a1:ee:
                    63:db:00:1f:39:6f:fb:ec:00:3d:58:b6:5b:94:18:
                    d0:7e:35:c0:84:3a:44:6a:72:e2:6a:4b:f2:0d:e2:
                    50:4c:1d:dc:3b:56:b2:0a:ea:4f:73:90:cf:4f:b9:
                    96:e3:48:26:9a:be:2f:8e:fe:95:12:65:01:49:5f:
                    ce:dd:0f:62:aa:be:38:e3:82:e4:d8:62:5d:19:ab:
                    a6:51:76:01:b2:66:5b:b9:d3:35:2d:42:bb:21:7f:
                    a1:98:cc:30:3d:e8:eb:35:53:85:0d:0f:76:d5:b7:
                    01:f0:db:5d:47:a6:9d:20:fb:8d:92:c6:b1:85:83:
                    0e:05
                Exponent: 65537 (0x10001)
        X509v3 extensions:
            X509v3 Basic Constraints: critical
                CA:FALSE
            X509v3 Authority Key Identifier: 
                keyid:01:02:03

            Authority Information Access: 
                OCSP - URI:http://theca.net/ocsp
                CA Issuers - URI:theca.net/totallythecert.crt

            X509v3 Subject Alternative Name: 
                DNS:Not a dns, IP Address:128.168.45.1
            X509v3 CRL Distribution Points: 

                Full Name:
                  URI:ldap://theca.net/crlpoint

            X509v3 Subject Key Identifier: 
                04:03:02:01
            X509v3 Key Usage: 
                Data Encipherment, Key Agreement
            X509v3 Extended Key Usage: 
                TLS Web Server Authentication, 1.2.840.113635.100.4.3, Signing KDC Response, Any Extended Key Usage
            X509v3 Certificate Policies: 
                Policy: 2.16.840.1.114414.1.7.23.1
                  CPS: http://certificates.starfieldtech.com/repository/

    Signature Algorithm: sha256WithRSAEncryption
         32:8b:98:b7:e1:8d:d8:df:dc:dd:bf:71:1a:af:49:a1:92:9e:
         23:59:17:4d:ed:ab:e2:a3:26:0f:11:49:bf:43:98:63:3b:20:
         1d:07:bc:c5:14:f9:21:a5:bc:d1:ec:47:11:46:d0:44:61:81:
         08:1c:f1:77:18:7e:af:53:24:2f:23:44:50:57:91:f0:01:ae:
         5b:5e:1a:3d:36:3f:76:82:e5:2d:3a:76:18:65:86:5c:df:b6:
         7a:be:99:8c:c9:e2:48:f9:34:43:92:2e:f9:50:af:87:d3:f4:
         58:2f:bf:46:9e:ed:1b:48:9a:ff:d9:1c:89:16:f0:24:69:9b:
         fd:7e:e4:f3:c0:b0:0f:15:1d:4f:f7:5a:c3:e1:dd:82:84:8b:
         7b:5b:e1:ca:42:f8:c0:68:74:d1:a7:9b:56:d1:fb:56:5b:52:
         8d:67:d3:53:75:e8:42:4e:ea:c5:8b:1f:29:aa:3a:00:54:7d:
         79:b3:f9:74:5c:f3:4e:4b:99:7e:7b:1c:76:e8:b3:7b:89:9a:
         7d:73:45:25:a5:95:a2:92:00:39:1e:d5:ea:50:9f:25:fb:e9:
         e3:28:d0:df:26:d0:54:f3:de:91:f2:50:85:fa:b5:a8:95:53:
         dc:a3:13:b6:99:e3:0f:a5:08:a5:30:45:75:9c:58:11:06:41:
         61:9e:bf:b3
-----BEGIN CERTIFICATE-----
MIIFYzCCBE2gAwIBAgIEAN8B6DALBgkqhkiG9w0BAQswVDELMAkGA1UEBhMCVVMx
FjAUBgNVBAoTDU1vdGhlciBOYXR1cmUxEzARBgNVBAsTCkV2ZXJ5dGhpbmcxFjAU
BgNVBAMTDU1vdGhlciBOYXR1cmUxADAeFw0xNzA0MjUxODI5MjlaFw0xNzA3MDcx
ODI5MjlaMIIBJDELMAkGA1UEBhMCVVMxGDAWBgNVBAoTD0V4dHJlbWUgRGlzY29y
ZDEOMAwGA1UECxMFQ2hhb3MxETAPBgNVBAcTCExvY2FsaXR5MYGMMIGJBgNVBAgT
gYEwMTIzNDU2Nzg5MDEyMzQ1Njc4OTAxMjM0NTY3ODkwMTIzNDU2Nzg5MDEyMzQ1
Njc4OTAxMjM0NTY3ODkwMTIzNDU2Nzg5MDEyMzQ1Njc4OTAxMjM0NTY3ODkwMTIz
NDU2Nzg5MDEyMzQ1Njc4OTAxMjM0NTY3ODkwMTIzNDU2NzgxHDAaBgNVBAkTEzMy
MTAgSG9sbHkgTWlsbCBSdW4xDjAMBgNVBBETBTMwMDYyMRkwFwYDVQQDExBGYWtl
IGNvbW1vbiBuYW1lMQAwggEiMA0GCSqGSIb3DQEBAQUAA4IBDwAwggEKAoIBAQCq
1zFW0Wp6HpDrLZh/oFEZSzv/6DqFrvLLDffsD3hlQdCPsTnR9KlEehQIfuGOFItF
w8cDB8F9GusMyat1OmnqFjLH4S7cHwUsURCf56aYJ0bcYhGyT3z3AMglI1KT92Kc
r0tNvU34R5XUQwEuXMldqwD3RxyzGVuhd4Sw9GNBK916tzih7mPbAB85b/vsAD1Y
tluUGNB+NcCEOkRqcuJqS/IN4lBMHdw7VrIK6k9zkM9PuZbjSCaavi+O/pUSZQFJ
X87dD2KqvjjjguTYYl0Zq6ZRdgGyZlu50zUtQrshf6GYzDA96Os1U4UND3bVtwHw
211Hpp0g+42SxrGFgw4FAgMBAAGjggFtMIIBaTAMBgNVHRMBAf8EAjAAMA4GA1Ud
IwQHMAWAAwECAzBbBggrBgEFBQcBAQRPME0wIQYIKwYBBQUHMAGGFWh0dHA6Ly90
aGVjYS5uZXQvb2NzcDAoBggrBgEFBQcwAoYcdGhlY2EubmV0L3RvdGFsbHl0aGVj
ZXJ0LmNydDAaBgNVHREEEzARgglOb3QgYSBkbnOHBICoLQEwKgYDVR0fBCMwITAf
oB2gG4YZbGRhcDovL3RoZWNhLm5ldC9jcmxwb2ludDANBgNVHQ4EBgQEBAMCATAL
BgNVHQ8EBAMCARgwLQYDVR0lBCYwJAYIKwYBBQUHAwEGCSqGSIb3Y2QEAwYHKwYB
BQIDBQYEVR0lADBZBgNVHSAEUjBQME4GC2CGSAGG/W4BBxcBMD8wPQYIKwYBBQUH
AgEWMWh0dHA6Ly9jZXJ0aWZpY2F0ZXMuc3RhcmZpZWxkdGVjaC5jb20vcmVwb3Np
dG9yeS8wCwYJKoZIhvcNAQELA4IBAQAyi5i34Y3Y39zdv3Ear0mhkp4jWRdN7avi
oyYPEUm/Q5hjOyAdB7zFFPkhpbzR7EcRRtBEYYEIHPF3GH6vUyQvI0RQV5HwAa5b
Xho9Nj92guUtOnYYZYZc37Z6vpmMyeJI+TRDki75UK+H0/RYL79Gnu0bSJr/2RyJ
FvAkaZv9fuTzwLAPFR1P91rD4d2ChIt7W+HKQvjAaHTRp5tW0ftWW1KNZ9NTdehC
TurFix8pqjoAVH15s/l0XPNOS5l+exx26LN7iZp9c0UlpZWikgA5HtXqUJ8l++nj
KNDfJtBU896R8lCF+rWolVPcoxO2meMPpQilMEV1nFgRBkFhnr+z
-----END CERTIFICATE-----
