Certificate:
    Data:
        Version: 3 (0x2)
        Serial Number: 1337 (0x539)
        Signature Algorithm: sha256WithRSAEncryption
        Issuer: 
        Validity
            Not Before: Feb 27 13:58:15 2019 GMT
            Not After : Feb 24 14:58:15 2029 GMT
        Subject: 
        Subject Public Key Info:
            Public Key Algorithm: rsaEncryption
                RSA Public-Key: (512 bit)
                Modulus:
                    00:db:d3:8f:ab:1a:f5:3c:4e:9a:20:91:1c:31:39:
                    6f:ef:fb:01:89:b8:b7:9c:2b:29:37:89:e8:ec:64:
                    13:7f:2c:44:f3:b4:ee:de:62:32:7a:9d:eb:56:28:
                    39:96:f1:d9:3e:64:ed:f1:cd:8e:b6:cd:07:f3:17:
                    0f:a2:da:bc:6d
                Exponent: 65537 (0x10001)
        X509v3 extensions:
            X509v3 Extended Key Usage: 
                TLS Web Server Authentication, TLS Web Client Authentication
            X509v3 Basic Constraints: critical
                CA:FALSE
            X509v3 Subject Alternative Name: critical
                DNS:zmap.io, DNS:a.b.c.d.in-addr.arpa
    Signature Algorithm: sha256WithRSAEncryption
         92:d4:4f:65:cb:f9:4b:c9:b2:d5:aa:d3:ac:4d:71:d4:ac:6d:
         97:6f:82:5c:c7:9c:29:c8:1f:7c:cb:b1:59:20:f5:64:c4:00:
         4b:04:af:c8:94:cd:ca:87:65:31:94:53:f0:37:85:fc:5b:22:
         b0:b5:2a:51:4d:11:02:f8:fd:aa
-----BEGIN CERTIFICATE-----
MIIBTTCB+KADAgECAgIFOTANBgkqhkiG9w0BAQsFADAAMB4XDTE5MDIyNzEzNTgx
NVoXDTI5MDIyNDE0NTgxNVowADBcMA0GCSqGSIb3DQEBAQUAA0sAMEgCQQDb04+r
GvU8TpogkRwxOW/v+wGJuLecKyk3iejsZBN/LETztO7eYjJ6netWKDmW8dk+ZO3x
zY62zQfzFw+i2rxtAgMBAAGjXDBaMB0GA1UdJQQWMBQGCCsGAQUFBwMBBggrBgEF
BQcDAjAMBgNVHRMBAf8EAjAAMCsGA1UdEQEB/wQhMB+CB3ptYXAuaW+CFGEuYi5j
LmQuaW4tYWRkci5hcnBhMA0GCSqGSIb3DQEBCwUAA0EAktRPZcv5S8my1arTrE1x
1Kxtl2+CXMecKcgffMuxWSD1ZMQASwSvyJTNyodlMZRT8DeF/FsisLUqUU0RAvj9
qg==
-----END CERTIFICATE-----
