Certificate:
    Data:
        Version: 3 (0x2)
        Serial Number: 1337 (0x539)
        Signature Algorithm: sha256WithRSAEncryption
        Issuer: 
        Validity
            Not Before: Feb 27 13:58:15 2019 GMT
            Not After : Feb 24 14:58:15 2029 GMT
        Subject: 
        Subject Public Key Info:
            Public Key Algorithm: rsaEncryption
                RSA Public-Key: (512 bit)
                Modulus:
                    00:db:d3:8f:ab:1a:f5:3c:4e:9a:20:91:1c:31:39:
                    6f:ef:fb:01:89:b8:b7:9c:2b:29:37:89:e8:ec:64:
                    13:7f:2c:44:f3:b4:ee:de:62:32:7a:9d:eb:56:28:
                    39:96:f1:d9:3e:64:ed:f1:cd:8e:b6:cd:07:f3:17:
                    0f:a2:da:bc:6d
                Exponent: 65537 (0x10001)
        X509v3 extensions:
            X509v3 Extended Key Usage: 
                TLS Web Server Authentication, TLS Web Client Authentication
            X509v3 Basic Constraints: critical
                CA:FALSE
            X509v3 Subject Alternative Name: critical
                DNS:zmap.io, DNS:8.8.8.8.0.0.0.0.0.0.0.0.0.0.0.0.0.0.0.0.0.6.8.4.0.6.8.4.1.0.0.2.ip6.arpa
    Signature Algorithm: sha256WithRSAEncryption
         aa:0d:46:a0:db:bb:8b:d8:67:46:85:65:13:1b:19:71:68:b8:
         e5:8c:d9:09:e3:59:18:f9:32:65:1c:ac:34:e6:c5:a6:7d:2e:
         0c:72:17:c7:81:e1:f7:fe:79:41:43:f5:66:ac:67:b7:eb:85:
         ae:fd:13:3a:43:4e:a7:9f:13:cd
-----BEGIN CERTIFICATE-----
MIIBhDCCAS6gAwIBAgICBTkwDQYJKoZIhvcNAQELBQAwADAeFw0xOTAyMjcxMzU4
MTVaFw0yOTAyMjQxNDU4MTVaMAAwXDANBgkqhkiG9w0BAQEFAANLADBIAkEA29OP
qxr1PE6aIJEcMTlv7/sBibi3nCspN4no7GQTfyxE87Tu3mIyep3rVig5lvHZPmTt
8c2Ots0H8xcPotq8bQIDAQABo4GRMIGOMB0GA1UdJQQWMBQGCCsGAQUFBwMBBggr
BgEFBQcDAjAMBgNVHRMBAf8EAjAAMF8GA1UdEQEB/wRVMFOCB3ptYXAuaW+CSDgu
OC44LjguMC4wLjAuMC4wLjAuMC4wLjAuMC4wLjAuMC4wLjAuMC4wLjYuOC40LjAu
Ni44LjQuMS4wLjAuMi5pcDYuYXJwYTANBgkqhkiG9w0BAQsFAANBAKoNRqDbu4vY
Z0aFZRMbGXFouOWM2QnjWRj5MmUcrDTmxaZ9LgxyF8eB4ff+eUFD9WasZ7frha79
EzpDTqefE80=
-----END CERTIFICATE-----
