Certificate:
    Data:
        Version: 3 (0x2)
        Serial Number: 1337 (0x539)
        Signature Algorithm: sha256WithRSAEncryption
        Issuer: 
        Validity
            Not Before: Feb 27 13:58:15 2019 GMT
            Not After : Feb 24 14:58:15 2029 GMT
        Subject: 
        Subject Public Key Info:
            Public Key Algorithm: rsaEncryption
                RSA Public-Key: (512 bit)
                Modulus:
                    00:db:d3:8f:ab:1a:f5:3c:4e:9a:20:91:1c:31:39:
                    6f:ef:fb:01:89:b8:b7:9c:2b:29:37:89:e8:ec:64:
                    13:7f:2c:44:f3:b4:ee:de:62:32:7a:9d:eb:56:28:
                    39:96:f1:d9:3e:64:ed:f1:cd:8e:b6:cd:07:f3:17:
                    0f:a2:da:bc:6d
                Exponent: 65537 (0x10001)
        X509v3 extensions:
            X509v3 Extended Key Usage: 
                TLS Web Server Authentication, TLS Web Client Authentication
            X509v3 Basic Constraints: critical
                CA:FALSE
            X509v3 Subject Alternative Name: critical
                DNS:zmap.io, DNS:1.1.168.192.in-addr.arpa
    Signature Algorithm: sha256WithRSAEncryption
         c7:c0:4b:37:63:e1:75:36:91:e3:48:40:e4:68:99:aa:30:42:
         23:34:76:0d:a1:6f:40:4f:e3:9b:f4:d9:f3:f2:da:2c:9f:50:
         78:e9:06:7e:6f:b6:ce:da:33:93:7c:f7:85:71:cb:04:26:88:
         78:29:f1:c2:ca:9d:28:1b:87:92
-----BEGIN CERTIFICATE-----
MIIBUTCB/KADAgECAgIFOTANBgkqhkiG9w0BAQsFADAAMB4XDTE5MDIyNzEzNTgx
NVoXDTI5MDIyNDE0NTgxNVowADBcMA0GCSqGSIb3DQEBAQUAA0sAMEgCQQDb04+r
GvU8TpogkRwxOW/v+wGJuLecKyk3iejsZBN/LETztO7eYjJ6netWKDmW8dk+ZO3x
zY62zQfzFw+i2rxtAgMBAAGjYDBeMB0GA1UdJQQWMBQGCCsGAQUFBwMBBggrBgEF
BQcDAjAMBgNVHRMBAf8EAjAAMC8GA1UdEQEB/wQlMCOCB3ptYXAuaW+CGDEuMS4x
NjguMTkyLmluLWFkZHIuYXJwYTANBgkqhkiG9w0BAQsFAANBAMfASzdj4XU2keNI
QORomaowQiM0dg2hb0BP45v02fPy2iyfUHjpBn5vts7aM5N894VxywQmiHgp8cLK
nSgbh5I=
-----END CERTIFICATE-----
