Certificate:
    Data:
        Version: 3 (0x2)
        Serial Number: 18008675309 (0x4316693ed)
    Signature Algorithm: sha256WithRSAEncryption
        Issuer: C = US, O = Mother Nature, OU = Everything, CN = Mother Nature
        Validity
            Not Before: Jun 29 18:21:24 2016 GMT
            Not After : Sep 10 18:21:24 2016 GMT
        Subject: C = , O = Extreme Discord, OU = Chaos, L = Tallahassee, ST = FL, street = 3210 Holly Mill Run, postalCode = 30062, CN = gov.us
        Subject Public Key Info:
            Public Key Algorithm: rsaEncryption
                Public-Key: (2048 bit)
                Modulus:
                    00:dc:34:25:2f:02:ce:ff:4e:be:11:8d:bf:8e:75:
                    d0:7c:91:87:4b:bc:8d:65:c1:25:52:a5:b6:5d:07:
                    7b:bc:c6:c6:8c:02:71:1b:a7:a7:1b:c0:35:66:fe:
                    8a:31:f5:67:ac:54:91:4f:3a:45:bb:13:c1:4b:34:
                    67:ef:4d:87:01:39:1a:6b:49:1e:ec:ec:cc:c0:6b:
                    0e:23:49:d9:c5:6e:78:6d:97:23:96:81:0c:1a:b4:
                    88:82:e6:d9:9f:70:12:d6:dc:54:c3:a3:5e:95:60:
                    9e:2b:49:01:16:82:d5:7b:0b:87:ff:43:24:e6:55:
                    90:85:ac:f8:0e:af:e6:8c:04:97:18:b5:85:c2:cb:
                    cc:fa:07:24:5c:78:9a:9c:27:8a:a8:c7:9d:5b:4e:
                    9e:b4:7f:43:3b:2d:dc:b5:50:f0:98:fa:d9:36:7a:
                    f3:d7:4b:84:70:e7:09:0c:fa:46:ce:52:50:cc:a4:
                    85:b2:68:f9:f5:69:dd:de:2a:6a:4f:2d:30:48:dd:
                    15:bc:3e:bd:f8:aa:52:df:f3:f8:7e:c1:11:f0:68:
                    e0:70:6e:aa:8d:e8:79:8a:1b:cb:05:66:f9:e2:14:
                    15:5f:b9:fc:5a:aa:6e:b3:ee:8f:24:36:6f:c5:65:
                    8a:f2:23:b5:28:72:f8:ae:6b:82:a2:0d:ce:ef:ba:
                    e3:71
                Exponent: 65537 (0x10001)
        X509v3 extensions:
            X509v3 Key Usage: critical
                Digital Signature, Key Encipherment
            X509v3 Extended Key Usage: 
                TLS Web Client Authentication, TLS Web Server Authentication
            X509v3 Basic Constraints: critical
                CA:FALSE
            X509v3 Authority Key Identifier: 
                keyid:01:02:03

            Authority Information Access: 
                OCSP - URI:http://theca.net/ocsp
                CA Issuers - URI:http://theca.net/totallythecert.crt

            X509v3 Certificate Policies: 
                Policy: 2.23.140.1.2.2

            X509v3 Subject Key Identifier: 
                04:03:02:01
            X509v3 Subject Alternative Name: 
                DNS:*.gov.us, DNS:gov.us
    Signature Algorithm: sha256WithRSAEncryption
         89:16:26:35:4b:c3:a4:99:e4:57:f5:85:6f:4a:a7:9f:0a:ac:
         56:a5:e8:89:9c:66:0d:49:7b:56:ad:11:ec:49:d2:d6:b1:ec:
         29:44:c1:40:54:c8:55:1f:6e:5f:68:e0:66:7a:f3:e3:79:ea:
         7f:6b:1e:8e:33:31:32:1b:bb:76:ce:6f:b9:83:66:fe:d8:34:
         da:16:1b:3d:02:78:3e:91:0c:81:e1:c2:3a:59:cd:0e:96:f3:
         43:cf:29:61:3d:9a:42:bb:62:a7:41:37:c5:ca:48:16:e2:75:
         7e:f3:7a:e4:36:b2:7d:77:cc:bc:13:38:20:8b:7c:51:97:41:
         cb:35:fa:9c:96:ec:1b:6d:48:a6:e4:54:c0:b8:af:0c:c2:0e:
         96:fc:4c:43:19:dc:4a:4c:57:62:ff:76:09:72:6d:d1:48:00:
         ac:5f:55:98:08:84:9a:a4:b7:ec:94:50:a9:34:93:60:75:f2:
         04:72:dc:b4:cb:d6:02:3a:a3:40:ca:42:cf:ab:e9:6b:68:52:
         88:a6:91:45:48:8d:2f:9a:b9:41:43:f5:76:43:f3:37:3b:07:
         ce:e3:ec:1e:b8:c4:6c:29:61:cf:3e:62:61:02:92:bb:69:af:
         ab:ca:dc:5e:cc:f1:25:47:79:cd:c0:8f:8d:a0:2c:72:3e:62:
         bb:ef:0f:af
-----BEGIN CERTIFICATE-----
MIIEXzCCA0egAwIBAgIFBDFmk+0wDQYJKoZIhvcNAQELBQAwUjELMAkGA1UEBhMC
VVMxFjAUBgNVBAoTDU1vdGhlciBOYXR1cmUxEzARBgNVBAsTCkV2ZXJ5dGhpbmcx
FjAUBgNVBAMTDU1vdGhlciBOYXR1cmUwHhcNMTYwNjI5MTgyMTI0WhcNMTYwOTEw
MTgyMTI0WjCBlzEJMAcGA1UEBhMAMRgwFgYDVQQKEw9FeHRyZW1lIERpc2NvcmQx
DjAMBgNVBAsTBUNoYW9zMRQwEgYDVQQHEwtUYWxsYWhhc3NlZTELMAkGA1UECBMC
RkwxHDAaBgNVBAkTEzMyMTAgSG9sbHkgTWlsbCBSdW4xDjAMBgNVBBETBTMwMDYy
MQ8wDQYDVQQDEwZnb3YudXMwggEiMA0GCSqGSIb3DQEBAQUAA4IBDwAwggEKAoIB
AQDcNCUvAs7/Tr4Rjb+OddB8kYdLvI1lwSVSpbZdB3u8xsaMAnEbp6cbwDVm/oox
9WesVJFPOkW7E8FLNGfvTYcBORprSR7s7MzAaw4jSdnFbnhtlyOWgQwatIiC5tmf
cBLW3FTDo16VYJ4rSQEWgtV7C4f/QyTmVZCFrPgOr+aMBJcYtYXCy8z6ByRceJqc
J4qox51bTp60f0M7Ldy1UPCY+tk2evPXS4Rw5wkM+kbOUlDMpIWyaPn1ad3eKmpP
LTBI3RW8Pr34qlLf8/h+wRHwaOBwbqqN6HmKG8sFZvniFBVfufxaqm6z7o8kNm/F
ZYryI7Uocviua4KiDc7vuuNxAgMBAAGjgfUwgfIwDgYDVR0PAQH/BAQDAgWgMB0G
A1UdJQQWMBQGCCsGAQUFBwMCBggrBgEFBQcDATAMBgNVHRMBAf8EAjAAMA4GA1Ud
IwQHMAWAAwECAzBiBggrBgEFBQcBAQRWMFQwIQYIKwYBBQUHMAGGFWh0dHA6Ly90
aGVjYS5uZXQvb2NzcDAvBggrBgEFBQcwAoYjaHR0cDovL3RoZWNhLm5ldC90b3Rh
bGx5dGhlY2VydC5jcnQwEwYDVR0gBAwwCjAIBgZngQwBAgIwDQYDVR0OBAYEBAQD
AgEwGwYDVR0RBBQwEoIIKi5nb3YudXOCBmdvdi51czANBgkqhkiG9w0BAQsFAAOC
AQEAiRYmNUvDpJnkV/WFb0qnnwqsVqXoiZxmDUl7Vq0R7EnS1rHsKUTBQFTIVR9u
X2jgZnrz43nqf2sejjMxMhu7ds5vuYNm/tg02hYbPQJ4PpEMgeHCOlnNDpbzQ88p
YT2aQrtip0E3xcpIFuJ1fvN65DayfXfMvBM4IIt8UZdByzX6nJbsG21IpuRUwLiv
DMIOlvxMQxncSkxXYv92CXJt0UgArF9VmAiEmqS37JRQqTSTYHXyBHLctMvWAjqj
QMpCz6vpa2hSiKaRRUiNL5q5QUP1dkPzNzsHzuPsHrjEbClhzz5iYQKSu2mvq8rc
XszxJUd5zcCPjaAscj5iu+8Prw==
-----END CERTIFICATE-----
