Certificate:
    Data:
        Version: 3 (0x2)
        Serial Number: 1337 (0x539)
        Signature Algorithm: sha256WithRSAEncryption
        Issuer: 
        Validity
            Not Before: Feb 27 13:58:15 2019 GMT
            Not After : Feb 24 14:58:15 2029 GMT
        Subject: 
        Subject Public Key Info:
            Public Key Algorithm: rsaEncryption
                RSA Public-Key: (512 bit)
                Modulus:
                    00:db:d3:8f:ab:1a:f5:3c:4e:9a:20:91:1c:31:39:
                    6f:ef:fb:01:89:b8:b7:9c:2b:29:37:89:e8:ec:64:
                    13:7f:2c:44:f3:b4:ee:de:62:32:7a:9d:eb:56:28:
                    39:96:f1:d9:3e:64:ed:f1:cd:8e:b6:cd:07:f3:17:
                    0f:a2:da:bc:6d
                Exponent: 65537 (0x10001)
        X509v3 extensions:
            X509v3 Extended Key Usage: 
                TLS Web Server Authentication, TLS Web Client Authentication
            X509v3 Basic Constraints: critical
                CA:FALSE
            X509v3 Subject Alternative Name: critical
                DNS:zmap.io, DNS:1.168.192.in-addr.arpa
    Signature Algorithm: sha256WithRSAEncryption
         6c:c6:f3:04:ad:13:a3:a3:76:d7:44:3c:e5:ee:6e:73:b5:5a:
         2c:5f:35:9d:dd:7f:12:9a:3f:8f:0f:02:59:ea:13:e6:7c:90:
         de:fe:5c:25:eb:88:ff:47:e4:3b:70:d6:49:4d:6e:7f:6a:dc:
         94:3a:02:fa:a6:b3:dc:fa:03:70
-----BEGIN CERTIFICATE-----
MIIBTzCB+qADAgECAgIFOTANBgkqhkiG9w0BAQsFADAAMB4XDTE5MDIyNzEzNTgx
NVoXDTI5MDIyNDE0NTgxNVowADBcMA0GCSqGSIb3DQEBAQUAA0sAMEgCQQDb04+r
GvU8TpogkRwxOW/v+wGJuLecKyk3iejsZBN/LETztO7eYjJ6netWKDmW8dk+ZO3x
zY62zQfzFw+i2rxtAgMBAAGjXjBcMB0GA1UdJQQWMBQGCCsGAQUFBwMBBggrBgEF
BQcDAjAMBgNVHRMBAf8EAjAAMC0GA1UdEQEB/wQjMCGCB3ptYXAuaW+CFjEuMTY4
LjE5Mi5pbi1hZGRyLmFycGEwDQYJKoZIhvcNAQELBQADQQBsxvMErROjo3bXRDzl
7m5ztVosXzWd3X8Smj+PDwJZ6hPmfJDe/lwl64j/R+Q7cNZJTW5/atyUOgL6prPc
+gNw
-----END CERTIFICATE-----
