Certificate:
    Data:
        Version: 3 (0x2)
        Serial Number: 1337 (0x539)
        Signature Algorithm: sha256WithRSAEncryption
        Issuer: 
        Validity
            Not Before: Feb 27 13:58:15 2019 GMT
            Not After : Feb 24 14:58:15 2029 GMT
        Subject: 
        Subject Public Key Info:
            Public Key Algorithm: rsaEncryption
                RSA Public-Key: (512 bit)
                Modulus:
                    00:db:d3:8f:ab:1a:f5:3c:4e:9a:20:91:1c:31:39:
                    6f:ef:fb:01:89:b8:b7:9c:2b:29:37:89:e8:ec:64:
                    13:7f:2c:44:f3:b4:ee:de:62:32:7a:9d:eb:56:28:
                    39:96:f1:d9:3e:64:ed:f1:cd:8e:b6:cd:07:f3:17:
                    0f:a2:da:bc:6d
                Exponent: 65537 (0x10001)
        X509v3 extensions:
            X509v3 Extended Key Usage: 
                TLS Web Server Authentication, TLS Web Client Authentication
            X509v3 Basic Constraints: critical
                CA:FALSE
            X509v3 Subject Alternative Name: critical
                DNS:zmap.io, DNS:8.8.8.8.in-addr.arpa
    Signature Algorithm: sha256WithRSAEncryption
         42:1a:18:ca:6e:0c:dd:9c:ef:33:2c:73:a5:ca:bf:10:4a:61:
         2c:70:0c:5d:0b:27:78:7e:f8:be:46:c5:8e:9b:c0:1f:d6:dd:
         73:d6:f4:d6:e4:fe:d9:1c:12:29:2c:31:2c:bc:39:e7:fa:09:
         1a:54:5c:14:57:5f:5e:ce:49:db
-----BEGIN CERTIFICATE-----
MIIBTTCB+KADAgECAgIFOTANBgkqhkiG9w0BAQsFADAAMB4XDTE5MDIyNzEzNTgx
NVoXDTI5MDIyNDE0NTgxNVowADBcMA0GCSqGSIb3DQEBAQUAA0sAMEgCQQDb04+r
GvU8TpogkRwxOW/v+wGJuLecKyk3iejsZBN/LETztO7eYjJ6netWKDmW8dk+ZO3x
zY62zQfzFw+i2rxtAgMBAAGjXDBaMB0GA1UdJQQWMBQGCCsGAQUFBwMBBggrBgEF
BQcDAjAMBgNVHRMBAf8EAjAAMCsGA1UdEQEB/wQhMB+CB3ptYXAuaW+CFDguOC44
LjguaW4tYWRkci5hcnBhMA0GCSqGSIb3DQEBCwUAA0EAQhoYym4M3ZzvMyxzpcq/
EEphLHAMXQsneH74vkbFjpvAH9bdc9b01uT+2RwSKSwxLLw55/oJGlRcFFdfXs5J
2w==
-----END CERTIFICATE-----
