Certificate:
    Data:
        Version: 3 (0x2)
        Serial Number: 14615016 (0xdf01e8)
    Signature Algorithm: sha256WithRSAEncryption
        Issuer: C = US, O = Mother Nature, OU = Everything, CN = Mother Nature
        Validity
            Not Before: Aug 31 19:25:24 2016 GMT
            Not After : Nov 12 20:25:24 2016 GMT
        Subject: C = US, ST = FL, L = Tallahassee, street = 3210 Holly Mill Run, postalCode = 30062, O = Extreme Discord, OU = Chaos, CN = 192.168.1.1
        Subject Public Key Info:
            Public Key Algorithm: rsaEncryption
                Public-Key: (2048 bit)
                Modulus:
                    00:de:37:65:ee:58:76:52:8e:4d:7e:81:b4:ee:76:
                    dd:1e:d5:d4:cd:ad:b4:4b:3d:ac:61:e0:c1:88:2d:
                    74:bd:0a:ac:7e:43:b1:3d:6f:06:2a:59:0b:51:3f:
                    26:85:ed:2f:a8:38:5c:22:23:a1:86:ec:e6:29:a6:
                    c1:02:f7:64:28:16:88:df:9a:9c:32:e8:ac:27:3a:
                    06:1e:73:04:6e:45:2e:86:3e:32:ca:52:9d:29:fd:
                    8c:ef:63:af:7c:6c:77:b5:5f:1e:be:b6:6d:97:dc:
                    15:1c:64:b0:2e:35:0a:fd:59:bd:53:1f:6d:f8:f9:
                    10:6b:7b:ea:a6:c1:88:82:7e:03:9e:46:35:6d:ec:
                    63:ac:48:d3:3e:22:9d:4e:01:3e:98:2a:b2:b1:c2:
                    a6:0b:09:a6:ac:64:7a:b9:40:89:07:6c:52:ea:c3:
                    6a:19:fc:6d:6d:ed:b8:23:91:b0:ad:e9:b2:bb:9c:
                    25:56:a3:db:ff:1d:58:97:09:76:47:9b:a3:ed:d9:
                    d5:4b:d1:a9:8b:db:85:f9:c4:4e:70:be:41:08:83:
                    dd:b0:c7:14:5c:52:21:85:ad:46:8e:cd:d4:c3:2d:
                    a0:35:26:19:8c:08:2e:41:e7:57:6d:d8:9b:64:e2:
                    99:9d:32:79:3c:51:73:70:c9:5c:3d:7d:83:3a:41:
                    e5:55
                Exponent: 65537 (0x10001)
        X509v3 extensions:
            X509v3 Basic Constraints: critical
                CA:FALSE
            X509v3 Authority Key Identifier: 
                keyid:01:02:03

            Authority Information Access: 
                OCSP - URI:http://theca.net/ocsp
                CA Issuers - URI:theca.net/totallythecert.crt

            X509v3 CRL Distribution Points: 

                Full Name:
                  URI:ldap://theca.net/crlpoint

            X509v3 Subject Key Identifier: 
                04:03:02:01
            X509v3 Subject Alternative Name: 
                DNS:*.gov.us, DNS:gov.us
            X509v3 Key Usage: 
                Data Encipherment, Key Agreement
            X509v3 Extended Key Usage: 
                TLS Web Server Authentication, 1.2.840.113635.100.4.3, Signing KDC Response, Any Extended Key Usage
            X509v3 Certificate Policies: 
                Policy: 2.16.840.1.114414.1.7.23.1
                  CPS: http://certificates.starfieldtech.com/repository/

    Signature Algorithm: sha256WithRSAEncryption
         5e:e9:0d:7b:5a:36:55:73:9b:86:58:3d:da:7d:e8:d1:03:49:
         14:aa:2d:96:e8:58:6b:19:d8:66:7e:ba:b2:07:9e:d1:89:37:
         dd:db:5c:bc:bd:40:c7:e6:f1:95:c6:55:bb:91:8e:d7:e9:85:
         34:62:05:9f:0d:1d:8c:91:e3:a4:24:88:54:4e:57:f0:5f:43:
         10:a6:e8:60:ed:5a:4a:22:ee:f2:13:97:71:34:f0:37:95:82:
         24:8f:87:4d:f7:5b:00:66:af:f3:a3:07:8f:e4:bf:42:53:78:
         58:a4:41:68:59:f5:f1:5e:59:9c:e1:0a:fe:69:ae:59:f3:c5:
         c5:a0:f1:47:70:4e:31:d0:55:dc:69:c2:c4:2f:fa:9f:44:43:
         f8:85:f2:f3:ca:5c:18:fe:5c:3b:c0:47:6c:fb:3b:6d:8e:97:
         2e:37:11:74:0b:96:a7:99:b5:e4:00:23:3c:95:3b:40:be:05:
         39:55:f2:27:61:15:d5:24:55:d4:2b:23:db:54:2f:b5:39:e6:
         92:3d:2d:29:41:6a:a3:10:ca:a0:8b:ce:4a:4e:e6:b9:0c:af:
         a0:45:56:30:50:1a:38:c5:01:60:30:18:85:ee:5c:b2:7b:02:
         ab:81:80:96:d4:b9:e4:63:19:29:6b:41:46:c0:de:d0:cc:30:
         ca:b0:73:86
-----BEGIN CERTIFICATE-----
MIIE3zCCA8egAwIBAgIEAN8B6DANBgkqhkiG9w0BAQsFADBSMQswCQYDVQQGEwJV
UzEWMBQGA1UEChMNTW90aGVyIE5hdHVyZTETMBEGA1UECxMKRXZlcnl0aGluZzEW
MBQGA1UEAxMNTW90aGVyIE5hdHVyZTAeFw0xNjA4MzExOTI1MjRaFw0xNjExMTIy
MDI1MjRaMIGeMQswCQYDVQQGEwJVUzELMAkGA1UECBMCRkwxFDASBgNVBAcTC1Rh
bGxhaGFzc2VlMRwwGgYDVQQJExMzMjEwIEhvbGx5IE1pbGwgUnVuMQ4wDAYDVQQR
EwUzMDA2MjEYMBYGA1UEChMPRXh0cmVtZSBEaXNjb3JkMQ4wDAYDVQQLEwVDaGFv
czEUMBIGA1UEAxMLMTkyLjE2OC4xLjEwggEiMA0GCSqGSIb3DQEBAQUAA4IBDwAw
ggEKAoIBAQDeN2XuWHZSjk1+gbTudt0e1dTNrbRLPaxh4MGILXS9Cqx+Q7E9bwYq
WQtRPyaF7S+oOFwiI6GG7OYppsEC92QoFojfmpwy6KwnOgYecwRuRS6GPjLKUp0p
/YzvY698bHe1Xx6+tm2X3BUcZLAuNQr9Wb1TH234+RBre+qmwYiCfgOeRjVt7GOs
SNM+Ip1OAT6YKrKxwqYLCaasZHq5QIkHbFLqw2oZ/G1t7bgjkbCt6bK7nCVWo9v/
HViXCXZHm6Pt2dVL0amL24X5xE5wvkEIg92wxxRcUiGFrUaOzdTDLaA1JhmMCC5B
51dt2Jtk4pmdMnk8UXNwyVw9fYM6QeVVAgMBAAGjggFuMIIBajAMBgNVHRMBAf8E
AjAAMA4GA1UdIwQHMAWAAwECAzBbBggrBgEFBQcBAQRPME0wIQYIKwYBBQUHMAGG
FWh0dHA6Ly90aGVjYS5uZXQvb2NzcDAoBggrBgEFBQcwAoYcdGhlY2EubmV0L3Rv
dGFsbHl0aGVjZXJ0LmNydDAqBgNVHR8EIzAhMB+gHaAbhhlsZGFwOi8vdGhlY2Eu
bmV0L2NybHBvaW50MA0GA1UdDgQGBAQEAwIBMBsGA1UdEQQUMBKCCCouZ292LnVz
ggZnb3YudXMwCwYDVR0PBAQDAgEYMC0GA1UdJQQmMCQGCCsGAQUFBwMBBgkqhkiG
92NkBAMGBysGAQUCAwUGBFUdJQAwWQYDVR0gBFIwUDBOBgtghkgBhv1uAQcXATA/
MD0GCCsGAQUFBwIBFjFodHRwOi8vY2VydGlmaWNhdGVzLnN0YXJmaWVsZHRlY2gu
Y29tL3JlcG9zaXRvcnkvMA0GCSqGSIb3DQEBCwUAA4IBAQBe6Q17WjZVc5uGWD3a
fejRA0kUqi2W6FhrGdhmfrqyB57RiTfd21y8vUDH5vGVxlW7kY7X6YU0YgWfDR2M
keOkJIhUTlfwX0MQpuhg7VpKIu7yE5dxNPA3lYIkj4dN91sAZq/zoweP5L9CU3hY
pEFoWfXxXlmc4Qr+aa5Z88XFoPFHcE4x0FXcacLEL/qfREP4hfLzylwY/lw7wEds
+zttjpcuNxF0C5anmbXkACM8lTtAvgU5VfInYRXVJFXUKyPbVC+1OeaSPS0pQWqj
EMqgi85KTua5DK+gRVYwUBo4xQFgMBiF7lyyewKrgYCW1LnkYxkpa0FGwN7QzDDK
sHOG
-----END CERTIFICATE-----
