Certificate:
    Data:
        Version: 3 (0x2)
        Serial Number:
            0f:5e:bb:0f:06:74:02:92:c5:39:94:f6:4f:07:c5:3f
        Signature Algorithm: sha256WithRSAEncryption
        Issuer: C = US, O = DigiCert Inc, OU = www.digicert.com, CN = GeoTrust EV RSA CA 2018
        Validity
            Not Before: Sep 18 00:00:00 2018 GMT
            Not After : Oct  6 12:00:00 2019 GMT
        Subject: businessCategory = Private Organization, jurisdictionC = RU, serialNumber = 1067746801814, C = RU, ST = Voronezhskaya oblast, L = Voronezh, O = LLC 'Managing Company 'Agro - Invest', OU = IT, CN = gis.agroinvest.com
        Subject Public Key Info:
            Public Key Algorithm: rsaEncryption
                RSA Public-Key: (2048 bit)
                Modulus:
                    00:85:35:3f:13:01:1f:3a:11:a5:ce:3c:9a:c8:67:
                    89:5b:a2:4f:2e:b8:da:f5:93:6d:97:23:58:4a:4f:
                    6f:da:c6:ff:3a:3e:98:16:a1:d5:53:6b:82:4c:59:
                    5d:8b:77:b2:e1:cf:26:3c:39:29:96:a2:98:04:9c:
                    a7:cf:b1:87:8f:b1:5a:6f:75:78:c2:f3:6b:a9:9a:
                    ee:ae:64:ee:11:b9:39:02:0a:58:2e:77:43:d9:ba:
                    4b:58:4f:cd:b4:46:64:ea:f1:80:51:13:81:a0:32:
                    10:dd:70:94:10:d7:71:ad:e3:c0:5e:94:60:94:59:
                    dd:9c:b3:bf:59:42:d2:2e:f8:a2:ba:ac:38:07:86:
                    44:73:a8:65:09:10:e8:d6:6c:82:29:a1:e8:91:d9:
                    98:a4:b1:db:6f:9d:cd:60:ff:54:dc:6b:2e:4a:83:
                    e7:49:2b:1d:b0:ec:9e:b9:98:f1:8b:92:d7:7e:be:
                    e3:7a:80:61:b8:47:4b:51:58:91:3a:32:64:84:00:
                    21:a6:ca:26:fe:6a:53:16:15:7a:8b:cc:06:4b:eb:
                    3d:5f:ef:b9:93:50:39:4f:17:64:3d:6a:c6:c8:80:
                    f8:87:50:23:34:34:d4:27:b0:70:7e:56:db:9b:0b:
                    ac:43:4e:8a:1b:6c:6d:f6:3b:f4:60:de:2e:3c:d7:
                    9d:e5
                Exponent: 65537 (0x10001)
        X509v3 extensions:
            X509v3 Authority Key Identifier: 
                keyid:CA:92:67:52:61:DE:AE:FC:BA:22:2B:7F:1C:87:4C:25:FB:6F:99:58

            X509v3 Subject Key Identifier: 
                1A:59:66:07:6F:82:1F:29:E5:22:AB:10:B2:8E:3D:51:1D:23:A1:4A
            X509v3 Subject Alternative Name: 
                DNS:gis.agroinvest.com
            X509v3 Key Usage: critical
                Digital Signature, Key Encipherment
            X509v3 Extended Key Usage: 
                TLS Web Server Authentication, TLS Web Client Authentication
            X509v3 CRL Distribution Points: 

                Full Name:
                  URI:http://cdp.geotrust.com/GeoTrustEVRSACA2018.crl

            X509v3 Certificate Policies: 
                Policy: 2.16.840.1.114412.2.1
                  CPS: https://www.digicert.com/CPS
                Policy: 2.23.140.1.1

            Authority Information Access: 
                OCSP - URI:http://status.geotrust.com
                CA Issuers - URI:http://cacerts.geotrust.com/GeoTrustEVRSACA2018.crt

            X509v3 Basic Constraints: 
                CA:FALSE
            CT Precertificate Poison: critical
                NULL
    Signature Algorithm: sha256WithRSAEncryption
         7a:da:8b:78:f0:86:b6:71:fb:f0:de:4e:d9:bc:11:38:22:bd:
         01:0a:b8:4c:a8:13:19:2c:bf:fd:91:e4:c1:2e:da:07:b8:73:
         71:bc:be:d5:e5:8f:ec:ca:55:aa:04:d0:10:20:7c:66:cf:70:
         7e:1b:59:a9:6f:4d:6a:fc:77:dc:77:9a:45:5c:5b:6a:a0:95:
         76:b1:03:38:4c:5a:cd:4c:ba:f5:bb:90:a7:7f:36:37:c3:d1:
         40:f9:70:6c:01:64:76:75:45:0d:c7:61:a2:f7:8c:2d:48:ce:
         0b:31:eb:12:fc:d7:05:db:c0:78:8a:57:71:73:63:23:ef:2c:
         e2:33:bf:25:9d:51:c4:ca:95:5d:18:ae:e3:2d:99:30:95:58:
         98:4f:22:25:b6:f3:7c:73:17:15:8f:ba:99:6a:89:ed:f6:79:
         3b:2a:2a:ec:81:b8:67:c1:2c:f6:15:72:d6:bb:dc:59:a2:b6:
         78:e5:dd:49:0b:23:1d:35:f8:8d:cf:28:5b:74:31:53:6f:f7:
         af:e2:27:0d:17:3d:e7:52:d8:7f:1d:c0:ce:ad:1a:64:78:95:
         b3:62:f7:8d:9a:98:33:19:e5:29:10:fb:d1:62:98:07:b5:83:
         48:86:74:ae:3d:4a:6e:05:15:fd:3d:0d:22:1b:05:e9:9c:dc:
         1e:30:c4:a4
-----BEGIN CERTIFICATE-----
MIIFjTCCBHWgAwIBAgIQD167DwZ0ApLFOZT2TwfFPzANBgkqhkiG9w0BAQsFADBh
MQswCQYDVQQGEwJVUzEVMBMGA1UEChMMRGlnaUNlcnQgSW5jMRkwFwYDVQQLExB3
d3cuZGlnaWNlcnQuY29tMSAwHgYDVQQDExdHZW9UcnVzdCBFViBSU0EgQ0EgMjAx
ODAeFw0xODA5MTgwMDAwMDBaFw0xOTEwMDYxMjAwMDBaMIHlMR0wGwYDVQQPDBRQ
cml2YXRlIE9yZ2FuaXphdGlvbjETMBEGCysGAQQBgjc8AgEDEwJSVTEWMBQGA1UE
BRMNMTA2Nzc0NjgwMTgxNDELMAkGA1UEBhMCUlUxHTAbBgNVBAgTFFZvcm9uZXpo
c2theWEgb2JsYXN0MREwDwYDVQQHEwhWb3JvbmV6aDEuMCwGA1UEChMlTExDICdN
YW5hZ2luZyBDb21wYW55ICdBZ3JvIC0gSW52ZXN0JzELMAkGA1UECxMCSVQxGzAZ
BgNVBAMTEmdpcy5hZ3JvaW52ZXN0LmNvbTCCASIwDQYJKoZIhvcNAQEBBQADggEP
ADCCAQoCggEBAIU1PxMBHzoRpc48mshniVuiTy642vWTbZcjWEpPb9rG/zo+mBah
1VNrgkxZXYt3suHPJjw5KZaimAScp8+xh4+xWm91eMLza6ma7q5k7hG5OQIKWC53
Q9m6S1hPzbRGZOrxgFETgaAyEN1wlBDXca3jwF6UYJRZ3Zyzv1lC0i74orqsOAeG
RHOoZQkQ6NZsgimh6JHZmKSx22+dzWD/VNxrLkqD50krHbDsnrmY8YuS136+43qA
YbhHS1FYkToyZIQAIabKJv5qUxYVeovMBkvrPV/vuZNQOU8XZD1qxsiA+IdQIzQ0
1CewcH5W25sLrENOihtsbfY79GDeLjzXneUCAwEAAaOCAbowggG2MB8GA1UdIwQY
MBaAFMqSZ1Jh3q78uiIrfxyHTCX7b5lYMB0GA1UdDgQWBBQaWWYHb4IfKeUiqxCy
jj1RHSOhSjAdBgNVHREEFjAUghJnaXMuYWdyb2ludmVzdC5jb20wDgYDVR0PAQH/
BAQDAgWgMB0GA1UdJQQWMBQGCCsGAQUFBwMBBggrBgEFBQcDAjBABgNVHR8EOTA3
MDWgM6Axhi9odHRwOi8vY2RwLmdlb3RydXN0LmNvbS9HZW9UcnVzdEVWUlNBQ0Ey
MDE4LmNybDBLBgNVHSAERDBCMDcGCWCGSAGG/WwCATAqMCgGCCsGAQUFBwIBFhxo
dHRwczovL3d3dy5kaWdpY2VydC5jb20vQ1BTMAcGBWeBDAEBMHcGCCsGAQUFBwEB
BGswaTAmBggrBgEFBQcwAYYaaHR0cDovL3N0YXR1cy5nZW90cnVzdC5jb20wPwYI
KwYBBQUHMAKGM2h0dHA6Ly9jYWNlcnRzLmdlb3RydXN0LmNvbS9HZW9UcnVzdEVW
UlNBQ0EyMDE4LmNydDAJBgNVHRMEAjAAMBMGCisGAQQB1nkCBAMBAf8EAgUAMA0G
CSqGSIb3DQEBCwUAA4IBAQB62ot48Ia2cfvw3k7ZvBE4Ir0BCrhMqBMZLL/9keTB
LtoHuHNxvL7V5Y/sylWqBNAQIHxmz3B+G1mpb01q/Hfcd5pFXFtqoJV2sQM4TFrN
TLr1u5CnfzY3w9FA+XBsAWR2dUUNx2Gi94wtSM4LMesS/NcF28B4ildxc2Mj7yzi
M78lnVHEypVdGK7jLZkwlViYTyIltvN8cxcVj7qZaont9nk7KirsgbhnwSz2FXLW
u9xZorZ45d1JCyMdNfiNzyhbdDFTb/ev4icNFz3nUth/HcDOrRpkeJWzYveNmpgz
GeUpEPvRYpgHtYNIhnSuPUpuBRX9PQ0iGwXpnNweMMSk
-----END CERTIFICATE-----
