Certificate:
    Data:
        Version: 3 (0x2)
        Serial Number:
            30:30:30:30:30:30:30:30:30:30:30:31:30:33
    Signature Algorithm: md5WithRSAEncryption
        Issuer: C = CN, O = SERC, OU = CSG, CN = CHINA SOUTHERN GRID ROOT CA
        Validity
            Not Before: Nov 26 07:03:59 2008 GMT
            Not After : Nov 26 07:03:59 2027 GMT
        Subject: C = CN, O = SERC, OU = CSG, OU = 05, CN = CSG YUNNAN POWER GRID COMPANY CA
        Subject Public Key Info:
            Public Key Algorithm: rsaEncryption
                Public-Key: (2048 bit)
                Modulus:
                    00:80:ed:8c:2e:6e:76:44:73:7c:81:69:7f:bd:5d:
                    ac:53:71:99:44:2d:7f:a1:67:61:16:0b:a8:cd:8f:
                    a1:16:d7:ee:02:57:f2:a7:c9:da:36:20:1e:48:13:
                    47:84:68:85:9f:d1:64:a4:38:1f:04:a0:70:30:97:
                    e2:0c:23:7d:39:50:ce:50:e4:1b:2c:9a:d5:e9:c8:
                    ab:3f:8b:b7:a9:f8:60:cf:2d:4e:15:33:a5:81:25:
                    66:9c:b7:3f:4a:6d:7d:8a:5a:97:57:65:a2:7e:4e:
                    d2:98:67:fb:87:5e:75:05:ba:cc:ed:62:08:bd:52:
                    03:8a:10:c9:21:e9:4b:dc:4c:37:ea:2e:c8:86:46:
                    df:1e:d1:68:22:90:10:be:2d:b4:1d:22:26:72:63:
                    00:8f:9a:c1:f2:13:53:6f:8e:65:49:62:57:03:7f:
                    84:63:45:ad:3f:20:d3:07:6b:9d:58:9b:c0:1a:bc:
                    77:ac:d1:c5:a6:37:d0:b5:05:aa:4d:b9:7b:6e:78:
                    25:a5:0d:7e:45:e1:cd:c5:39:28:cf:fd:a0:4c:7f:
                    b6:6a:f0:61:d1:72:54:cf:97:91:59:31:83:22:87:
                    85:c2:c9:4a:39:af:0b:41:c3:79:e7:19:a2:b1:73:
                    ac:21:34:1d:c5:99:01:91:9d:f1:10:9d:78:77:79:
                    02:49
                Exponent: 65537 (0x10001)
        Subject Unique ID: 
            31:31:31:31:31:31:31:31:31:31:31:31:31:31:31:31:31:31:
            30:32
        X509v3 extensions:
            X509v3 CRL Distribution Points: 

                Full Name:
                  URI:http://ca.csg.cn/crl/rootca.crl

            X509v3 Authority Key Identifier: 
                keyid:42:B5:FC:74:36:49:E2:1D:9D:9A:21:C4:CD:41:B1:4F:00:1B:A0:DA

            X509v3 Subject Key Identifier: 
                45:1D:C8:D1:D6:C8:19:74:52:9C:6C:58:68:3C:20:5F:CB:A3:E1:B9
            X509v3 Key Usage: critical
                Digital Signature, Certificate Sign, CRL Sign
            X509v3 Basic Constraints: 
                CA:TRUE, pathlen:1
    Signature Algorithm: md5WithRSAEncryption
         07:46:d3:ea:e4:f9:90:2b:19:ab:2b:f3:ea:50:24:4a:91:36:
         e3:98:da:a8:47:94:c7:48:d3:52:fc:88:70:0a:e6:0a:62:06:
         cd:e2:4b:2b:43:bc:88:2c:79:1d:ac:4b:3a:2c:79:fd:68:e5:
         48:7c:78:9e:dc:bf:c3:04:29:fe:5b:c3:8f:15:40:2c:4c:93:
         3e:8c:00:02:e4:82:8e:e2:6d:34:d8:58:53:64:5b:7e:30:93:
         9c:32:3c:66:0f:eb:04:2f:87:0d:c1:95:e8:64:5e:98:eb:c6:
         79:3d:57:8e:d5:da:2c:81:15:27:f5:6f:1c:cf:6c:fb:62:d0:
         77:e0:5d:e1:0f:42:c3:1c:ca:79:b8:1e:0c:1d:fd:4f:57:86:
         5a:f6:dc:20:ad:20:ee:0c:f2:40:d3:b8:44:37:24:08:02:98:
         53:90:8a:fe:f0:4d:ac:04:2a:70:0d:06:13:32:42:82:b6:32:
         99:2d:2f:5d:04:b4:c4:b0:c7:32:68:4d:18:ea:b8:c2:c0:a4:
         0f:54:99:9a:11:55:cf:a8:a1:b1:ab:1d:b6:62:37:23:fa:a9:
         81:b5:61:2b:2d:1e:45:3e:53:15:46:7e:1c:45:a2:8a:ee:89:
         b8:1b:27:dd:27:7f:fa:83:3b:c3:2d:54:02:d3:e9:f1:c2:b2:
         e2:c5:64:5f
-----BEGIN CERTIFICATE-----
MIID6DCCAtCgAwIBAgIOMDAwMDAwMDAwMDAxMDMwDQYJKoZIhvcNAQEEBQAwUDEL
MAkGA1UEBhQCQ04xDTALBgNVBAoUBFNFUkMxDDAKBgNVBAsUA0NTRzEkMCIGA1UE
AxQbQ0hJTkEgU09VVEhFUk4gR1JJRCBST09UIENBMB4XDTA4MTEyNjA3MDM1OVoX
DTI3MTEyNjA3MDM1OVowYjELMAkGA1UEBhQCQ04xDTALBgNVBAoUBFNFUkMxDDAK
BgNVBAsUA0NTRzELMAkGA1UECxQCMDUxKTAnBgNVBAMUIENTRyBZVU5OQU4gUE9X
RVIgR1JJRCBDT01QQU5ZIENBMIIBIjANBgkqhkiG9w0BAQEFAAOCAQ8AMIIBCgKC
AQEAgO2MLm52RHN8gWl/vV2sU3GZRC1/oWdhFguozY+hFtfuAlfyp8naNiAeSBNH
hGiFn9FkpDgfBKBwMJfiDCN9OVDOUOQbLJrV6cirP4u3qfhgzy1OFTOlgSVmnLc/
Sm19ilqXV2Wifk7SmGf7h151BbrM7WIIvVIDihDJIelL3Ew36i7IhkbfHtFoIpAQ
vi20HSImcmMAj5rB8hNTb45lSWJXA3+EY0WtPyDTB2udWJvAGrx3rNHFpjfQtQWq
Tbl7bnglpQ1+ReHNxTkoz/2gTH+2avBh0XJUz5eRWTGDIoeFwslKOa8LQcN55xmi
sXOsITQdxZkBkZ3xEJ14d3kCSQIDAQABghUAMTExMTExMTExMTExMTExMTExMDKj
gZYwgZMwMAYDVR0fBCkwJzAloCOgIYYfaHR0cDovL2NhLmNzZy5jbi9jcmwvcm9v
dGNhLmNybDAfBgNVHSMEGDAWgBRCtfx0NkniHZ2aIcTNQbFPABug2jAdBgNVHQ4E
FgQURR3I0dbIGXRSnGxYaDwgX8uj4bkwDgYDVR0PAQH/BAQDAgGGMA8GA1UdEwQI
MAYBAf8CAQEwDQYJKoZIhvcNAQEEBQADggEBAAdG0+rk+ZArGasr8+pQJEqRNuOY
2qhHlMdI01L8iHAK5gpiBs3iSytDvIgseR2sSzosef1o5Uh8eJ7cv8MEKf5bw48V
QCxMkz6MAALkgo7ibTTYWFNkW34wk5wyPGYP6wQvhw3BlehkXpjrxnk9V47V2iyB
FSf1bxzPbPti0HfgXeEPQsMcynm4Hgwd/U9Xhlr23CCtIO4M8kDTuEQ3JAgCmFOQ
iv7wTawEKnANBhMyQoK2MpktL10EtMSwxzJoTRjquMLApA9UmZoRVc+oobGrHbZi
NyP6qYG1YSstHkU+UxVGfhxFooruibgbJ90nf/qDO8MtVALT6fHCsuLFZF8=
-----END CERTIFICATE-----
