Certificate:
    Data:
        Version: 3 (0x2)
        Serial Number: 14615016 (0xdf01e8)
    Signature Algorithm: sha256WithRSAEncryption
        Issuer: C = US, O = Mother Nature, OU = Everything, CN = Mother Nature
        Validity
            Not Before: Apr 25 17:57:39 2017 GMT
            Not After : Jul  7 17:57:39 2017 GMT
        Subject: C = US, O = Extreme Discord, OU = Chaos, L = Tallahassee, ST = FL, street = 3210 Holly Mill Run, postalCode = 30062, CN = Fake common name
        Subject Public Key Info:
            Public Key Algorithm: rsaEncryption
                Public-Key: (2048 bit)
                Modulus:
                    00:c2:56:33:a8:c7:6d:47:1a:5a:87:d1:b4:45:5c:
                    15:33:f0:38:87:b3:56:40:49:65:7a:0f:29:02:fc:
                    71:d7:2b:03:7b:9e:05:8a:a2:b6:ff:d3:90:e0:99:
                    45:6e:8d:7e:87:04:ec:c1:2c:5d:59:61:0f:9e:87:
                    64:44:87:cb:a2:97:f6:c1:dc:dd:92:17:8b:ff:3b:
                    b6:12:15:13:7a:ce:6b:56:15:93:12:4e:ea:35:c7:
                    25:23:ab:fb:d4:10:d5:40:20:66:8a:58:0a:a6:f7:
                    3e:00:b6:5f:f8:5d:13:f3:29:15:58:33:b4:65:0a:
                    e9:85:23:ea:80:01:65:10:27:5a:85:47:b5:c4:9b:
                    31:fd:f4:6f:b1:aa:35:2e:58:17:3c:d3:7c:a4:16:
                    b2:83:ca:71:e6:04:a6:90:a7:21:67:9c:c2:b8:f5:
                    22:92:b8:2e:fa:f6:20:7b:a4:86:44:40:b4:78:12:
                    3e:d5:a3:50:97:31:7d:f0:65:c8:a7:08:2a:55:48:
                    bc:be:d5:16:8d:1b:e6:40:f5:05:64:45:95:42:66:
                    73:9b:e1:04:25:ff:de:1a:07:99:b8:ff:ee:7e:2e:
                    95:37:b5:06:5e:dd:04:b0:b0:4b:b6:90:af:a3:31:
                    19:85:e4:0a:6a:6c:29:1c:c1:be:9b:73:0c:47:44:
                    66:11
                Exponent: 65537 (0x10001)
        X509v3 extensions:
            X509v3 Basic Constraints: critical
                CA:FALSE
            X509v3 Authority Key Identifier: 
                keyid:01:02:03

            Authority Information Access: 
                OCSP - URI:http://theca.net/ocsp
                CA Issuers - URI:theca.net/totallythecert.crt

            X509v3 Subject Alternative Name: 
                DNS:Not a dns, IP Address:128.168.45.1
            X509v3 CRL Distribution Points: 

                Full Name:
                  URI:ldap://theca.net/crlpoint

            X509v3 Subject Key Identifier: 
                04:03:02:01
            X509v3 Key Usage: 
                Data Encipherment, Key Agreement
            X509v3 Extended Key Usage: 
                TLS Web Server Authentication, 1.2.840.113635.100.4.3, Signing KDC Response, Any Extended Key Usage
            X509v3 Certificate Policies: 
                Policy: 2.16.840.1.114414.1.7.23.1
                  CPS: http://certificates.starfieldtech.com/repository/

    Signature Algorithm: sha256WithRSAEncryption
         66:40:cb:cf:17:ac:e7:66:cb:03:17:0e:f4:68:16:2c:a7:9c:
         54:d1:93:e4:18:bf:1e:f5:62:be:d1:56:5a:96:69:e3:f9:24:
         34:08:1a:b6:d5:f4:2d:a2:5b:d1:10:46:5b:94:61:58:cc:95:
         c7:9c:1a:b1:7f:68:7b:9b:81:1b:35:2a:33:ac:a2:1d:01:44:
         54:22:0a:60:d1:5c:42:4b:e7:9b:63:99:fc:c3:af:42:4f:a4:
         a1:da:91:a1:21:9e:5c:49:80:d8:d9:d6:3a:09:ae:16:4f:aa:
         cc:15:62:44:e5:fb:ca:8f:0c:06:b8:ff:d6:32:31:a9:18:b2:
         ea:0b:89:c7:30:e3:43:c3:12:c9:45:a7:9b:26:8e:62:19:bf:
         c9:35:34:9d:7b:9f:de:09:59:44:17:1f:9c:9c:53:69:ba:c9:
         1c:5f:1d:4e:cd:5b:b4:ab:90:3f:27:b6:44:ee:9c:5e:2a:00:
         ba:9f:29:0a:b8:96:d5:0e:0c:2e:8b:45:6c:24:6f:03:06:a4:
         14:4e:85:ca:26:3f:77:a3:77:7e:7c:9d:11:f3:57:9f:57:84:
         08:ac:2e:c5:77:e0:5e:70:a3:1c:1a:6c:df:34:b8:44:0e:ac:
         58:c7:e7:46:fb:2a:67:0c:2f:03:0c:1e:68:60:cc:6a:6c:d7:
         58:7b:fd:e8
-----BEGIN CERTIFICATE-----
MIIE4zCCA82gAwIBAgIEAN8B6DALBgkqhkiG9w0BAQswVDELMAkGA1UEBhMCVVMx
FjAUBgNVBAoTDU1vdGhlciBOYXR1cmUxEzARBgNVBAsTCkV2ZXJ5dGhpbmcxFjAU
BgNVBAMTDU1vdGhlciBOYXR1cmUxADAeFw0xNzA0MjUxNzU3MzlaFw0xNzA3MDcx
NzU3MzlaMIGlMQswCQYDVQQGEwJVUzEYMBYGA1UEChMPRXh0cmVtZSBEaXNjb3Jk
MQ4wDAYDVQQLEwVDaGFvczEUMBIGA1UEBxMLVGFsbGFoYXNzZWUxCzAJBgNVBAgT
AkZMMRwwGgYDVQQJExMzMjEwIEhvbGx5IE1pbGwgUnVuMQ4wDAYDVQQREwUzMDA2
MjEZMBcGA1UEAxMQRmFrZSBjb21tb24gbmFtZTEAMIIBIjANBgkqhkiG9w0BAQEF
AAOCAQ8AMIIBCgKCAQEAwlYzqMdtRxpah9G0RVwVM/A4h7NWQElleg8pAvxx1ysD
e54FiqK2/9OQ4JlFbo1+hwTswSxdWWEPnodkRIfLopf2wdzdkheL/zu2EhUTes5r
VhWTEk7qNcclI6v71BDVQCBmilgKpvc+ALZf+F0T8ykVWDO0ZQrphSPqgAFlECda
hUe1xJsx/fRvsao1LlgXPNN8pBayg8px5gSmkKchZ5zCuPUikrgu+vYge6SGREC0
eBI+1aNQlzF98GXIpwgqVUi8vtUWjRvmQPUFZEWVQmZzm+EEJf/eGgeZuP/ufi6V
N7UGXt0EsLBLtpCvozEZheQKamwpHMG+m3MMR0RmEQIDAQABo4IBbTCCAWkwDAYD
VR0TAQH/BAIwADAOBgNVHSMEBzAFgAMBAgMwWwYIKwYBBQUHAQEETzBNMCEGCCsG
AQUFBzABhhVodHRwOi8vdGhlY2EubmV0L29jc3AwKAYIKwYBBQUHMAKGHHRoZWNh
Lm5ldC90b3RhbGx5dGhlY2VydC5jcnQwGgYDVR0RBBMwEYIJTm90IGEgZG5zhwSA
qC0BMCoGA1UdHwQjMCEwH6AdoBuGGWxkYXA6Ly90aGVjYS5uZXQvY3JscG9pbnQw
DQYDVR0OBAYEBAQDAgEwCwYDVR0PBAQDAgEYMC0GA1UdJQQmMCQGCCsGAQUFBwMB
BgkqhkiG92NkBAMGBysGAQUCAwUGBFUdJQAwWQYDVR0gBFIwUDBOBgtghkgBhv1u
AQcXATA/MD0GCCsGAQUFBwIBFjFodHRwOi8vY2VydGlmaWNhdGVzLnN0YXJmaWVs
ZHRlY2guY29tL3JlcG9zaXRvcnkvMAsGCSqGSIb3DQEBCwOCAQEAZkDLzxes52bL
AxcO9GgWLKecVNGT5Bi/HvVivtFWWpZp4/kkNAgattX0LaJb0RBGW5RhWMyVx5wa
sX9oe5uBGzUqM6yiHQFEVCIKYNFcQkvnm2OZ/MOvQk+kodqRoSGeXEmA2NnWOgmu
Fk+qzBViROX7yo8MBrj/1jIxqRiy6guJxzDjQ8MSyUWnmyaOYhm/yTU0nXuf3glZ
RBcfnJxTabrJHF8dTs1btKuQPye2RO6cXioAup8pCriW1Q4MLotFbCRvAwakFE6F
yiY/d6N3fnydEfNXn1eECKwuxXfgXnCjHBps3zS4RA6sWMfnRvsqZwwvAwweaGDM
amzXWHv96A==
-----END CERTIFICATE-----
