Certificate:
    Data:
        Version: 3 (0x2)
        Serial Number: 14615016 (0xdf01e8)
    Signature Algorithm: sha256WithRSAEncryption
        Issuer: C = US, O = Mother Nature, OU = Everything, CN = Mother Nature
        Validity
            Not Before: Sep 12 18:54:02 2016 GMT
            Not After : Nov 24 19:54:02 2016 GMT
        Subject: C = US, ST = FL, L = Tallahassee, street = 3210 Holly Mill Run, postalCode = 30062, O = Extreme Discord, OU = Chaos, CN = ::
        Subject Public Key Info:
            Public Key Algorithm: rsaEncryption
                Public-Key: (2048 bit)
                Modulus:
                    00:c8:63:b2:ea:52:7f:54:23:de:64:04:c6:22:07:
                    9b:c9:e0:8a:56:bf:84:93:32:9c:87:66:4b:7e:ef:
                    fa:c5:7b:1d:be:2f:79:30:e9:9e:41:8a:b5:b2:2a:
                    aa:da:20:5d:83:b9:4a:e1:25:71:4a:22:6c:20:9a:
                    e5:89:4d:48:32:2b:c7:08:32:49:7f:cd:4f:5b:4e:
                    1f:64:9a:9c:d7:a9:d6:3c:1f:07:b7:81:35:08:7d:
                    bc:69:cb:64:c0:6f:9a:6e:7a:72:15:c7:17:67:7a:
                    11:00:82:53:94:46:73:77:80:93:1b:95:e5:01:be:
                    f1:b5:40:7e:0b:47:e1:52:22:01:0b:ec:d4:6e:46:
                    1a:64:03:aa:d5:06:cd:7c:4c:0a:5b:ac:a5:a8:85:
                    79:dc:46:5f:57:cb:02:0c:0a:8a:b6:ee:95:9d:51:
                    5f:a7:44:a7:33:7f:7b:1a:8f:86:d9:ce:4f:41:20:
                    9f:7e:38:9a:1f:f1:25:cf:28:82:17:63:3c:ba:39:
                    63:73:cf:29:3c:29:61:6e:89:6d:ff:99:cc:63:42:
                    68:5f:cc:3f:33:6a:e0:cd:65:07:7c:e9:e3:65:11:
                    3f:db:ff:fc:8e:2c:81:72:01:cc:cf:6e:ee:c1:eb:
                    23:19:b3:5a:d3:dd:27:87:fe:5a:d4:e6:17:27:43:
                    62:8d
                Exponent: 65537 (0x10001)
        X509v3 extensions:
            X509v3 Basic Constraints: critical
                CA:FALSE
            X509v3 Authority Key Identifier: 
                keyid:01:02:03

            Authority Information Access: 
                OCSP - URI:http://theca.net/ocsp
                CA Issuers - URI:theca.net/totallythecert.crt

            X509v3 CRL Distribution Points: 

                Full Name:
                  URI:ldap://theca.net/crlpoint

            X509v3 Subject Key Identifier: 
                04:03:02:01
            X509v3 Subject Alternative Name: 
                DNS:*.gov.us, DNS:gov.us
            X509v3 Key Usage: 
                Data Encipherment, Key Agreement
            X509v3 Extended Key Usage: 
                TLS Web Server Authentication, 1.2.840.113635.100.4.3, Signing KDC Response, Any Extended Key Usage
            X509v3 Certificate Policies: 
                Policy: 2.16.840.1.114414.1.7.23.1
                  CPS: http://certificates.starfieldtech.com/repository/

    Signature Algorithm: sha256WithRSAEncryption
         2a:9b:f4:86:f8:3d:58:88:b2:d8:de:ce:52:92:7f:9a:10:fd:
         63:38:8f:6e:a4:ca:89:c1:ba:a9:8e:5b:b6:a4:cd:02:55:39:
         75:d1:de:f8:a1:ab:07:66:b8:a0:37:69:15:e1:6a:31:2f:af:
         78:cd:3e:d3:6e:c1:d2:f8:49:66:a6:31:05:40:01:d8:55:13:
         93:d1:55:98:af:ed:af:6e:1b:e7:7b:cc:03:34:f8:d5:6f:04:
         02:7f:2a:64:aa:6e:86:77:f1:7b:4e:d1:94:2c:ce:c8:0e:53:
         50:c8:87:1e:24:83:ff:35:e3:a8:6b:97:f7:bc:aa:c4:e4:6e:
         01:59:90:d3:f2:c6:28:d2:f3:76:c4:37:00:69:d3:d8:c5:fd:
         b0:d5:1f:18:41:40:ca:4c:09:42:17:ff:e9:37:47:1c:0a:c0:
         db:3c:1b:ad:3d:5f:91:0a:d3:45:81:b7:2b:1d:6d:5e:92:69:
         3e:88:a1:0f:be:16:d5:94:92:95:a3:62:27:e9:1b:e2:2a:4a:
         42:8c:4a:53:f2:03:ee:a3:69:1c:24:1e:c5:31:be:0f:e2:22:
         00:4a:07:4e:54:d0:01:71:10:7b:e3:15:9d:87:7f:26:2b:91:
         f4:bb:47:41:dd:e6:1c:64:da:4c:85:16:cb:71:37:1c:c9:49:
         24:cf:7a:a3
-----BEGIN CERTIFICATE-----
MIIE1jCCA76gAwIBAgIEAN8B6DANBgkqhkiG9w0BAQsFADBSMQswCQYDVQQGEwJV
UzEWMBQGA1UEChMNTW90aGVyIE5hdHVyZTETMBEGA1UECxMKRXZlcnl0aGluZzEW
MBQGA1UEAxMNTW90aGVyIE5hdHVyZTAeFw0xNjA5MTIxODU0MDJaFw0xNjExMjQx
OTU0MDJaMIGVMQswCQYDVQQGEwJVUzELMAkGA1UECBMCRkwxFDASBgNVBAcTC1Rh
bGxhaGFzc2VlMRwwGgYDVQQJExMzMjEwIEhvbGx5IE1pbGwgUnVuMQ4wDAYDVQQR
EwUzMDA2MjEYMBYGA1UEChMPRXh0cmVtZSBEaXNjb3JkMQ4wDAYDVQQLEwVDaGFv
czELMAkGA1UEAxMCOjowggEiMA0GCSqGSIb3DQEBAQUAA4IBDwAwggEKAoIBAQDI
Y7LqUn9UI95kBMYiB5vJ4IpWv4STMpyHZkt+7/rFex2+L3kw6Z5BirWyKqraIF2D
uUrhJXFKImwgmuWJTUgyK8cIMkl/zU9bTh9kmpzXqdY8Hwe3gTUIfbxpy2TAb5pu
enIVxxdnehEAglOURnN3gJMbleUBvvG1QH4LR+FSIgEL7NRuRhpkA6rVBs18TApb
rKWohXncRl9XywIMCoq27pWdUV+nRKczf3saj4bZzk9BIJ9+OJof8SXPKIIXYzy6
OWNzzyk8KWFuiW3/mcxjQmhfzD8zauDNZQd86eNlET/b//yOLIFyAczPbu7B6yMZ
s1rT3SeH/lrU5hcnQ2KNAgMBAAGjggFuMIIBajAMBgNVHRMBAf8EAjAAMA4GA1Ud
IwQHMAWAAwECAzBbBggrBgEFBQcBAQRPME0wIQYIKwYBBQUHMAGGFWh0dHA6Ly90
aGVjYS5uZXQvb2NzcDAoBggrBgEFBQcwAoYcdGhlY2EubmV0L3RvdGFsbHl0aGVj
ZXJ0LmNydDAqBgNVHR8EIzAhMB+gHaAbhhlsZGFwOi8vdGhlY2EubmV0L2NybHBv
aW50MA0GA1UdDgQGBAQEAwIBMBsGA1UdEQQUMBKCCCouZ292LnVzggZnb3YudXMw
CwYDVR0PBAQDAgEYMC0GA1UdJQQmMCQGCCsGAQUFBwMBBgkqhkiG92NkBAMGBysG
AQUCAwUGBFUdJQAwWQYDVR0gBFIwUDBOBgtghkgBhv1uAQcXATA/MD0GCCsGAQUF
BwIBFjFodHRwOi8vY2VydGlmaWNhdGVzLnN0YXJmaWVsZHRlY2guY29tL3JlcG9z
aXRvcnkvMA0GCSqGSIb3DQEBCwUAA4IBAQAqm/SG+D1YiLLY3s5Skn+aEP1jOI9u
pMqJwbqpjlu2pM0CVTl10d74oasHZrigN2kV4WoxL694zT7TbsHS+ElmpjEFQAHY
VROT0VWYr+2vbhvne8wDNPjVbwQCfypkqm6Gd/F7TtGULM7IDlNQyIceJIP/NeOo
a5f3vKrE5G4BWZDT8sYo0vN2xDcAadPYxf2w1R8YQUDKTAlCF//pN0ccCsDbPBut
PV+RCtNFgbcrHW1ekmk+iKEPvhbVlJKVo2In6RviKkpCjEpT8gPuo2kcJB7FMb4P
4iIASgdOVNABcRB74xWdh38mK5H0u0dB3eYcZNpMhRbLcTccyUkkz3qj
-----END CERTIFICATE-----
