Certificate:
    Data:
        Version: 3 (0x2)
        Serial Number: 4794 (0x12ba)
        Signature Algorithm: sha256WithRSAEncryption
        Issuer: C=DE, ST=Bayern, L=N\xC3\x83\xC2\xBCrnberg, O=Siemens AG, OU=Trustcenter, CN=OliverCA/emailAddress=oliver.stiller@siemens.com
        Validity
            Not Before: Nov 26 19:59:27 2020 GMT
            Not After : Nov 26 19:59:27 2021 GMT
        Subject: O=testconstraints1000, CN=testconstraints1000
        Subject Public Key Info:
            Public Key Algorithm: rsaEncryption
                RSA Public-Key: (2048 bit)
                Modulus:
                    00:db:fb:59:77:8f:4e:d2:1e:5a:9a:59:b3:c8:7d:
                    56:cc:0d:d1:36:5c:a6:8d:a6:7e:c2:a0:15:37:11:
                    06:d8:24:71:fd:d0:bb:8f:68:0e:f2:6f:71:c9:57:
                    3b:b7:15:17:74:d4:2e:09:c9:a5:0a:12:24:59:51:
                    60:6f:69:b7:27:b5:f3:20:99:16:4b:af:a2:2f:73:
                    ea:6e:21:57:28:00:e5:b5:a5:aa:1e:96:3e:93:9b:
                    7b:16:93:77:31:5a:92:b2:fb:1f:1a:5a:f4:8c:2d:
                    91:7c:33:bb:fd:06:07:48:b9:8c:c3:f4:ac:30:76:
                    a0:d2:cf:ab:af:9a:17:98:ef:32:f5:db:a9:6c:a0:
                    c6:5f:64:22:a3:c8:e4:7b:50:83:46:97:ea:8d:9d:
                    5c:62:16:94:4d:7b:58:37:aa:32:17:52:fe:30:a2:
                    81:d7:34:b2:35:c2:4f:37:1e:9d:ab:ca:74:5b:8f:
                    37:f1:46:2d:51:a1:cf:d4:45:67:a3:53:fd:c6:68:
                    2a:42:91:53:9a:ef:b3:d1:1d:5d:8a:40:6d:59:43:
                    34:77:7b:57:e6:1d:b6:be:0f:c3:b7:2e:64:ca:c6:
                    7f:1c:31:3c:a4:27:8e:9f:23:e7:37:13:12:62:8e:
                    84:92:0e:32:f1:9d:75:d0:ba:29:a8:2f:1b:8a:c2:
                    41:9d
                Exponent: 65537 (0x10001)
        X509v3 extensions:
            X509v3 Extended Key Usage: 
                Any Extended Key Usage, TLS Web Server Authentication
            X509v3 Key Usage: 
                Digital Signature, Key Encipherment
            OCSP No Check: 

            X509v3 Name Constraints: 
                Permitted:
                  DNS:example.com

    Signature Algorithm: sha256WithRSAEncryption
         db:1f:9b:66:32:da:d6:01:70:1b:65:88:44:b0:26:30:22:ec:
         08:09:c9:99:d8:e7:35:04:1f:7c:1e:a1:f9:50:ee:24:8b:8a:
         b9:c7:53:3c:c2:33:a4:7d:2b:34:a1:de:dc:a6:c9:80:d4:e1:
         63:e5:5f:66:79:6e:e8:fa:f1:a5:37:f5:b7:15:54:e5:ec:2f:
         49:65:2d:41:43:17:62:1f:19:c3:18:42:51:59:50:da:38:54:
         e9:55:68:f7:de:38:a2:89:5b:44:e9:32:f5:e7:3e:04:4e:69:
         76:db:57:83:8a:c7:98:33:f2:9c:36:ce:27:65:19:1a:7f:2f:
         d8:45:3a:e1:18:09:51:6c:1b:15:cd:8c:ce:78:4c:57:98:db:
         76:7c:64:47:54:4a:bf:15:32:15:8f:f3:d9:a6:08:9e:8d:0b:
         e5:2d:14:e5:d1:96:15:fc:57:9a:d1:78:bc:90:8e:a7:b9:23:
         58:1f:09:b4:9d:e1:42:09:99:4b:d7:b4:1a:4d:83:6b:e4:18:
         84:9b:94:1a:b7:50:b5:ca:06:98:8c:1e:39:0d:ea:30:ca:e6:
         72:46:28:58:78:03:02:af:a2:93:72:de:34:00:69:96:1c:a4:
         c4:73:54:ec:dc:df:73:aa:e8:d8:d7:93:d9:98:a9:b9:90:81:
         10:77:32:2d:0c:9c:0e:6c:d6:c7:e8:fc:27:a3:08:f9:e9:6c:
         cd:4f:72:e0:88:0b:f9:9c:ef:af:58:a6:e0:33:e3:f8:71:a7:
         b1:ca:ba:90:25:cc:3c:75:cd:d4:d0:c4:09:f3:66:10:22:84:
         ed:23:e2:89:6e:5a:60:c8:73:b6:e4:30:86:e9:23:83:13:54:
         44:37:a4:1b:aa:b7:cf:0c:42:68:c2:80:23:cd:c4:20:2e:39:
         d7:ed:d4:fb:15:5d:92:85:e4:6d:2a:ac:a4:78:d9:7c:51:21:
         69:09:54:ad:ea:43:a0:d0:58:38:cb:0f:8a:6f:f8:f8:e4:49:
         14:ba:bf:9e:22:cf:f5:0b:3f:a5:67:41:cc:6d:4a:cf:bb:60:
         73:54:95:16:b7:0f:db:2f:00:37:2b:a8:40:c5:ff:77:ac:a1:
         f5:83:08:7a:d5:1a:71:7c:fe:90:19:e7:4f:87:95:b7:14:eb:
         1f:ab:42:c7:39:00:5d:f0:32:88:47:66:9a:18:d1:be:3d:72:
         7a:6a:5b:81:32:60:9f:f7:07:f5:72:95:57:24:ab:7f:6f:11:
         96:b4:09:a3:15:50:2b:9b:72:be:bd:91:17:c0:4a:93:5f:23:
         2f:fa:c3:54:b7:04:d6:09:f0:84:13:b4:9f:5d:c7:7c:f6:10:
         74:4c:03:47:da:80:a0:60
-----BEGIN CERTIFICATE-----
MIIErTCCApWgAwIBAgICErowDQYJKoZIhvcNAQELBQAwgZ0xCzAJBgNVBAYTAkRF
MQ8wDQYDVQQIDAZCYXllcm4xFDASBgNVBAcMC07Dg8K8cm5iZXJnMRMwEQYDVQQK
DApTaWVtZW5zIEFHMRQwEgYDVQQLDAtUcnVzdGNlbnRlcjERMA8GA1UEAwwIT2xp
dmVyQ0ExKTAnBgkqhkiG9w0BCQEWGm9saXZlci5zdGlsbGVyQHNpZW1lbnMuY29t
MB4XDTIwMTEyNjE5NTkyN1oXDTIxMTEyNjE5NTkyN1owPDEcMBoGA1UECgwTdGVz
dGNvbnN0cmFpbnRzMTAwMDEcMBoGA1UEAwwTdGVzdGNvbnN0cmFpbnRzMTAwMDCC
ASIwDQYJKoZIhvcNAQEBBQADggEPADCCAQoCggEBANv7WXePTtIeWppZs8h9VswN
0TZcpo2mfsKgFTcRBtgkcf3Qu49oDvJvcclXO7cVF3TULgnJpQoSJFlRYG9ptye1
8yCZFkuvoi9z6m4hVygA5bWlqh6WPpObexaTdzFakrL7Hxpa9IwtkXwzu/0GB0i5
jMP0rDB2oNLPq6+aF5jvMvXbqWygxl9kIqPI5HtQg0aX6o2dXGIWlE17WDeqMhdS
/jCigdc0sjXCTzcenavKdFuPN/FGLVGhz9RFZ6NT/cZoKkKRU5rvs9EdXYpAbVlD
NHd7V+Ydtr4Pw7cuZMrGfxwxPKQnjp8j5zcTEmKOhJIOMvGdddC6KagvG4rCQZ0C
AwEAAaNXMFUwGQYDVR0lBBIwEAYEVR0lAAYIKwYBBQUHAwEwCwYDVR0PBAQDAgWg
MA8GCSsGAQUFBzABBQQCBQAwGgYDVR0eBBMwEaAPMA2CC2V4YW1wbGUuY29tMA0G
CSqGSIb3DQEBCwUAA4ICAQDbH5tmMtrWAXAbZYhEsCYwIuwICcmZ2Oc1BB98HqH5
UO4ki4q5x1M8wjOkfSs0od7cpsmA1OFj5V9meW7o+vGlN/W3FVTl7C9JZS1BQxdi
HxnDGEJRWVDaOFTpVWj33jiiiVtE6TL15z4ETml221eDiseYM/KcNs4nZRkafy/Y
RTrhGAlRbBsVzYzOeExXmNt2fGRHVEq/FTIVj/PZpgiejQvlLRTl0ZYV/Fea0Xi8
kI6nuSNYHwm0neFCCZlL17QaTYNr5BiEm5Qat1C1ygaYjB45DeowyuZyRihYeAMC
r6KTct40AGmWHKTEc1Ts3N9zqujY15PZmKm5kIEQdzItDJwObNbH6Pwnowj56WzN
T3LgiAv5nO+vWKbgM+P4caexyrqQJcw8dc3U0MQJ82YQIoTtI+KJblpgyHO25DCG
6SODE1REN6QbqrfPDEJowoAjzcQgLjnX7dT7FV2SheRtKqykeNl8USFpCVSt6kOg
0Fg4yw+Kb/j45EkUur+eIs/1Cz+lZ0HMbUrPu2BzVJUWtw/bLwA3K6hAxf93rKH1
gwh61RpxfP6QGedPh5W3FOsfq0LHOQBd8DKIR2aaGNG+PXJ6aluBMmCf9wf1cpVX
JKt/bxGWtAmjFVArm3K+vZEXwEqTXyMv+sNUtwTWCfCEE7SfXcd89hB0TANH2oCg
YA==
-----END CERTIFICATE-----
