Certificate:
    Data:
        Version: 1 (0x0)
        Serial Number: 18008675309 (0x4316693ed)
    Signature Algorithm: sha256WithRSAEncryption
        Issuer: C = US, O = Mother Nature, OU = Everything, CN = Mother Nature
        Validity
            Not Before: Dec  1 06:07:08 2055 GMT
            Not After : Aug 12 20:02:24 2056 GMT
        Subject: C = US, O = Extreme Discord, OU = Chaos, L = Tallahassee, ST = FL, street = 3210 Holly Mill Run, postalCode = 30062, CN = gov.us
        Subject Public Key Info:
            Public Key Algorithm: rsaEncryption
                Public-Key: (512 bit)
                Modulus:
                    00:eb:e0:13:4c:2f:ff:de:4f:7a:db:2b:d3:6a:f3:
                    73:e3:37:fb:7e:7d:ab:ff:f8:28:ae:b5:c6:76:87:
                    be:bc:b8:01:33:df:c8:6c:c9:7f:47:10:dd:41:05:
                    6d:55:47:a5:0f:cf:9a:14:14:65:76:1f:4b:65:0a:
                    99:b1:19:f4:45
                Exponent: 65537 (0x10001)
        Issuer Unique ID: 
            01:02:03
        X509v3 extensions:
            X509v3 Key Usage: critical
                Digital Signature, Key Encipherment, Certificate Sign
            X509v3 Extended Key Usage: 
                TLS Web Client Authentication, TLS Web Server Authentication
            X509v3 Basic Constraints: critical
                CA:FALSE
            X509v3 Authority Key Identifier: 
                keyid:01:02:03

            Authority Information Access: 
                OCSP - URI:http://theca.net/ocsp
                CA Issuers - URI:http://theca.net/totallythecert.crt

            X509v3 Certificate Policies: 
                Policy: 2.23.140.1.2.2

            X509v3 Name Constraints: 
                02..0
..........."0 ..C=US;A=ATT;P=Contoso;O=Example
            X509v3 Subject Key Identifier: 
                04:03:02:01
            X509v3 Subject Alternative Name: 
                DNS:gov.us, DNS:ˬ
            X509v3 Inhibit Any Policy: 
                ..
            Subject Information Access: 
                ..
    Signature Algorithm: sha256WithRSAEncryption
         10:59:14:cb:15:1c:49:61:6c:5a:e5:95:1d:8d:e0:95:53:90:
         81:e9:98:f0:f6:b9:51:be:82:1d:2f:2d:b3:72:39:7b:2b:49:
         af:2c:74:79:76:b9:56:da:30:b5:f6:71:de:a7:5f:36:1d:ee:
         4c:78:13:c4:f1:f9:3f:f5:0a:01
-----BEGIN CERTIFICATE-----
MIIDNTCCAuGgAwIBAAIFBDFmk+0wCwYJKoZIhvcNAQELMFQxCzAJBgNVBAYTAlVT
MRYwFAYDVQQKEw1Nb3RoZXIgTmF0dXJlMRMwEQYDVQQLEwpFdmVyeXRoaW5nMRYw
FAYDVQQDEw1Nb3RoZXIgTmF0dXJlMQAwIhgPMjA1NTEyMDEwNjA3MDhaGA8yMDU2
MDgxMjIwMDIyNFowgZsxCzAJBgNVBAYTAlVTMRgwFgYDVQQKEw9FeHRyZW1lIERp
c2NvcmQxDjAMBgNVBAsTBUNoYW9zMRQwEgYDVQQHEwtUYWxsYWhhc3NlZTELMAkG
A1UECBMCRkwxHDAaBgNVBAkTEzMyMTAgSG9sbHkgTWlsbCBSdW4xDjAMBgNVBBET
BTMwMDYyMQ8wDQYDVQQDEwZnb3YudXMxADBcMA0GCSqGSIb3DQEBAQUAA0sAMEgC
QQDr4BNML//eT3rbK9Nq83PjN/t+fav/+CiutcZ2h768uAEz38hsyX9HEN1BBW1V
R6UPz5oUFGV2H0tlCpmxGfRFAgMBAAGBBAABAgOjggFIMIIBRDAOBgNVHQ8BAf8E
BAMCAKQwHQYDVR0lBBYwFAYIKwYBBQUHAwIGCCsGAQUFBwMBMAwGA1UdEwEB/wQC
MAAwDgYDVR0jBAcwBYADAQIDMGIGCCsGAQUFBwEBBFYwVDAhBggrBgEFBQcwAYYV
aHR0cDovL3RoZWNhLm5ldC9vY3NwMC8GCCsGAQUFBzAChiNodHRwOi8vdGhlY2Eu
bmV0L3RvdGFsbHl0aGVjZXJ0LmNydDATBgNVHSAEDDAKMAgGBmeBDAECAjA7BgNV
HR4ENDAyoAwwCocIwKgBAQECAwShIjAggx5DPVVTO0E9QVRUO1A9Q29udG9zbztP
PUV4YW1wbGUwDQYDVR0OBAYEBAQDAgEwFQYDVR0RBA4wDIIGZ292LnVzggLAqDAJ
BgNVHTYEAgIBMA4GCCsGAQUFBwELBAICATALBgkqhkiG9w0BAQsDQQAQWRTLFRxJ
YWxa5ZUdjeCVU5CB6Zjw9rlRvoIdLy2zcjl7K0mvLHR5drlW2jC19nHep182He5M
eBPE8fk/9QoB
-----END CERTIFICATE-----
