Certificate:
    Data:
        Version: 3 (0x2)
        Serial Number:
            01:e7:01:02:01:01:02:0c:3b
    Signature Algorithm: GOST R 34.11-94 with GOST R 34.10-2001
        Issuer: C = RU, L = MOSCOW, O = RPB, OU = IT, title = CA, CN = CA
        Validity
            Not Before: Oct 21 13:44:45 2014 GMT
            Not After : Oct 20 13:44:45 2016 GMT
        Subject: C = RU, L = MOSCOW, O = RPB, OU = IT, CN = SERVER
        Subject Public Key Info:
            Public Key Algorithm: GOST R 34.10-2001
            Unable to load Public Key
140735730131904:error:0609E09C:digital envelope routines:pkey_set_Source:unsupported algorithm:crypto/evp/p_lib.c:204:
140735730131904:error:0B09406F:x509 certificate routines:x509_pubkey_decode:unsupported algorithm:crypto/x509/x_pubkey.c:113:
        X509v3 extensions:
            X509v3 Subject Key Identifier: 
                6C:E8:EC:2F:56:93:F0:95:D4:23:39:DA:B9:C1:99:93:A2:9C:34:C3
            X509v3 Authority Key Identifier: 
                keyid:7C:F1:A5:D5:EB:8D:30:ED:81:71:A1:EE:05:E2:13:5E:E9:AB:DF:72

    Signature Algorithm: GOST R 34.11-94 with GOST R 34.10-2001
         4b:0a:df:df:9b:3d:4b:9a:4c:42:53:9e:8f:4d:5c:15:58:c5:
         e5:63:cd:7a:11:60:3b:13:8e:d6:88:4c:f5:24:90:8f:00:7a:
         a9:8a:aa:06:be:49:24:22:7e:ec:cd:4a:ec:18:6e:7d:c5:6e:
         1b:17:02:b6:b6:01:78:19:fc:de
-----BEGIN CERTIFICATE-----
MIIB2TCCAYagAwIBAgIJAecBAgEBAgw7MAoGBiqFAwICAwUAMFMxCzAJBgNVBAYT
AlJVMQ8wDQYDVQQHDAZNT1NDT1cxDDAKBgNVBAoMA1JQQjELMAkGA1UECwwCSVQx
CzAJBgNVBAwMAkNBMQswCQYDVQQDDAJDQTAeFw0xNDEwMjExMzQ0NDVaFw0xNjEw
MjAxMzQ0NDVaMEoxCzAJBgNVBAYTAlJVMQ8wDQYDVQQHDAZNT1NDT1cxDDAKBgNV
BAoMA1JQQjELMAkGA1UECwwCSVQxDzANBgNVBAMMBlNFUlZFUjBjMBwGBiqFAwIC
EzASBgcqhQMCAiMBBgcqhQMCAh4BA0MABECtLWR9abVQZi2aBM2/X+VTt+oiYMR3
sMjw60JEfF8T+9mGpmVmd4xqeHmCyqQYPzNOZvDEq4mESVT4unMB0Syeo0IwQDAd
BgNVHQ4EFgQUbOjsL1aT8JXUIznaucGZk6KcNMMwHwYDVR0jBBgwFoAUfPGl1euN
MO2BcaHuBeITXumr33IwCgYGKoUDAgIDBQADQQBLCt/fmz1LmkxCU56PTVwVWMXl
Y816EWA7E47WiEz1JJCPAHqpiqoGvkkkIn7szUrsGG59xW4bFwK2tgF4Gfze
-----END CERTIFICATE-----
