Certificate:
    Data:
        Version: 3 (0x2)
        Serial Number: 18008675309 (0x4316693ed)
    Signature Algorithm: sha256WithRSAEncryption
        Issuer: C = US, O = Mother Nature, OU = Everything, CN = Mother Nature
        Validity
            Not Before: Dec 31 00:00:00 2010 GMT
            Not After : Jan  1 00:00:00 2013 GMT
        Subject: C = US, O = Extreme Discord, OU = Chaos, L = Tallahassee, ST = FL, street = 3210 Holly Mill Run, postalCode = 30062, CN = gov.us
        Subject Public Key Info:
            Public Key Algorithm: rsaEncryption
                Public-Key: (2048 bit)
                Modulus:
                    00:b6:05:f9:0f:20:6e:29:23:43:26:08:aa:7f:ab:
                    fa:6b:05:39:6d:27:40:74:0d:48:fc:15:d8:bb:ab:
                    5b:52:96:52:b0:ef:3b:20:f8:c1:1a:e3:0a:b9:3f:
                    29:ea:3c:21:4a:58:66:41:82:41:22:12:90:c9:7f:
                    d1:b7:dd:0d:85:ac:d7:7b:30:c8:f4:2a:66:98:14:
                    b8:ac:09:52:2d:28:3b:fb:7a:d1:29:de:d2:56:4f:
                    be:56:cb:60:2e:53:08:82:f9:4a:f4:c5:9c:95:81:
                    3b:3c:f8:70:1d:05:e4:46:58:b4:96:be:6a:a0:d9:
                    f6:3b:ea:17:9b:4d:3c:59:9f:b9:1c:38:d1:f6:fd:
                    d9:70:33:51:70:3d:8c:1e:72:2b:18:73:ff:23:00:
                    d8:21:13:17:b8:81:4b:fb:51:06:77:e6:18:34:04:
                    44:8b:ec:92:a7:56:c4:d8:2f:b9:1a:5f:d5:29:b0:
                    73:63:fa:41:d6:35:8c:97:c9:79:de:4c:86:82:da:
                    5a:0b:8b:12:9a:00:1c:80:f6:04:c6:f0:bd:2f:3f:
                    a4:1b:c4:85:1b:3b:bf:d8:c9:69:5d:30:fa:4a:32:
                    72:9f:04:99:61:d9:81:93:df:c8:96:5b:de:ec:d6:
                    92:c1:20:91:40:31:d4:fe:41:9f:fb:81:f8:7f:64:
                    68:11
                Exponent: 65537 (0x10001)
        X509v3 extensions:
            X509v3 Key Usage: critical
                Digital Signature, Key Encipherment
            X509v3 Extended Key Usage: 
                TLS Web Client Authentication, TLS Web Server Authentication
            X509v3 Basic Constraints: critical
                CA:FALSE
            X509v3 Authority Key Identifier: 
                keyid:01:02:03

            Authority Information Access: 
                OCSP - URI:http://theca.net/ocsp
                CA Issuers - URI:http://theca.net/totallythecert.crt

            X509v3 Certificate Policies: 
                Policy: 2.23.140.1.2.2

            X509v3 Subject Key Identifier: 
                04:03:02:01
            X509v3 Subject Alternative Name: 
                DNS:*.gov.us, DNS:gov.us
            X509v3 Name Constraints: 
                Permitted:
                  DNS:example.com

    Signature Algorithm: sha256WithRSAEncryption
         a4:19:95:1c:26:18:d5:2e:55:a2:1a:94:7c:e1:90:3f:90:bb:
         0f:0d:47:c9:b7:48:26:8b:67:e7:7c:1a:59:06:ca:ed:9f:38:
         f0:e4:70:28:66:97:88:7f:bc:8e:ad:d5:35:3a:f3:e9:34:c9:
         41:33:7f:33:26:53:c1:9b:a9:91:b8:81:a1:f9:f0:f0:d9:13:
         35:bb:87:b0:f9:8a:a7:62:c8:58:c7:38:c7:e1:ac:92:4a:85:
         b4:cc:8d:85:e2:aa:84:11:cc:3f:b0:84:e9:0e:d6:7c:18:3b:
         7d:16:17:d2:bb:e0:39:28:25:6d:5c:0a:95:f6:e0:21:48:ad:
         1b:47:fa:57:73:05:75:ca:39:d3:35:36:64:11:28:e5:74:dc:
         eb:5a:59:a2:de:23:e1:61:12:59:86:f1:a6:7c:25:07:97:1b:
         0f:f6:f3:8c:09:58:64:bb:73:64:34:78:62:f1:7a:fc:01:29:
         1c:c6:0f:36:ef:f1:a8:87:87:96:2a:14:30:90:0b:1e:5b:bf:
         fe:86:1f:be:18:5a:ce:f1:58:99:a9:3e:90:6d:7f:b1:76:58:
         6e:da:13:99:d6:3b:02:74:c5:38:a9:09:94:03:ba:00:5a:d1:
         cf:b0:0d:70:4e:67:b2:15:96:7a:a0:0a:39:6d:b5:50:8e:39:
         31:1a:7a:39
-----BEGIN CERTIFICATE-----
MIIEfzCCA2egAwIBAgIFBDFmk+0wDQYJKoZIhvcNAQELBQAwUjELMAkGA1UEBhMC
VVMxFjAUBgNVBAoTDU1vdGhlciBOYXR1cmUxEzARBgNVBAsTCkV2ZXJ5dGhpbmcx
FjAUBgNVBAMTDU1vdGhlciBOYXR1cmUwHhcNMTAxMjMxMDAwMDAwWhcNMTMwMTAx
MDAwMDAwWjCBmTELMAkGA1UEBhMCVVMxGDAWBgNVBAoTD0V4dHJlbWUgRGlzY29y
ZDEOMAwGA1UECxMFQ2hhb3MxFDASBgNVBAcTC1RhbGxhaGFzc2VlMQswCQYDVQQI
EwJGTDEcMBoGA1UECRMTMzIxMCBIb2xseSBNaWxsIFJ1bjEOMAwGA1UEERMFMzAw
NjIxDzANBgNVBAMTBmdvdi51czCCASIwDQYJKoZIhvcNAQEBBQADggEPADCCAQoC
ggEBALYF+Q8gbikjQyYIqn+r+msFOW0nQHQNSPwV2LurW1KWUrDvOyD4wRrjCrk/
Keo8IUpYZkGCQSISkMl/0bfdDYWs13swyPQqZpgUuKwJUi0oO/t60Sne0lZPvlbL
YC5TCIL5SvTFnJWBOzz4cB0F5EZYtJa+aqDZ9jvqF5tNPFmfuRw40fb92XAzUXA9
jB5yKxhz/yMA2CETF7iBS/tRBnfmGDQERIvskqdWxNgvuRpf1Smwc2P6QdY1jJfJ
ed5MhoLaWguLEpoAHID2BMbwvS8/pBvEhRs7v9jJaV0w+koycp8EmWHZgZPfyJZb
3uzWksEgkUAx1P5Bn/uB+H9kaBECAwEAAaOCARIwggEOMA4GA1UdDwEB/wQEAwIF
oDAdBgNVHSUEFjAUBggrBgEFBQcDAgYIKwYBBQUHAwEwDAYDVR0TAQH/BAIwADAO
BgNVHSMEBzAFgAMBAgMwYgYIKwYBBQUHAQEEVjBUMCEGCCsGAQUFBzABhhVodHRw
Oi8vdGhlY2EubmV0L29jc3AwLwYIKwYBBQUHMAKGI2h0dHA6Ly90aGVjYS5uZXQv
dG90YWxseXRoZWNlcnQuY3J0MBMGA1UdIAQMMAowCAYGZ4EMAQICMA0GA1UdDgQG
BAQEAwIBMBsGA1UdEQQUMBKCCCouZ292LnVzggZnb3YudXMwGgYDVR0eBBMwEaAP
MA2CC2V4YW1wbGUuY29tMA0GCSqGSIb3DQEBCwUAA4IBAQCkGZUcJhjVLlWiGpR8
4ZA/kLsPDUfJt0gmi2fnfBpZBsrtnzjw5HAoZpeIf7yOrdU1OvPpNMlBM38zJlPB
m6mRuIGh+fDw2RM1u4ew+YqnYshYxzjH4aySSoW0zI2F4qqEEcw/sITpDtZ8GDt9
FhfSu+A5KCVtXAqV9uAhSK0bR/pXcwV1yjnTNTZkESjldNzrWlmi3iPhYRJZhvGm
fCUHlxsP9vOMCVhku3NkNHhi8Xr8ASkcxg827/Goh4eWKhQwkAseW7/+hh++GFrO
8ViZqT6QbX+xdlhu2hOZ1jsCdMU4qQmUA7oAWtHPsA1wTmeyFZZ6oAo5bbVQjjkx
Gno5
-----END CERTIFICATE-----
