Certificate:
    Data:
        Version: 3 (0x2)
        Serial Number: 18008675309 (0x4316693ed)
    Signature Algorithm: sha256WithRSAEncryption
        Issuer: C = US, O = Mother Nature, OU = Everything, CN = Mother Nature
        Validity
            Not Before: Jul  1 20:27:48 2016 GMT
            Not After : Sep 13 20:27:48 2016 GMT
        Subject: C = US, O = Extreme Discord, OU = Chaos, L = Tallahassee, ST = FL, street = 3210 Holly Mill Run, postalCode = 30062, CN = gov.us
        Subject Public Key Info:
            Public Key Algorithm: rsaEncryption
                Public-Key: (2048 bit)
                Modulus:
                    00:bd:6d:3a:f0:45:79:c4:4e:01:87:a2:06:44:03:
                    2a:a4:43:08:af:95:4d:21:e5:27:b5:83:a3:34:b3:
                    25:60:cf:eb:39:d4:a5:ab:b0:be:c3:44:c5:df:d5:
                    90:7d:48:0e:a1:42:71:f0:41:93:7f:f2:c6:25:75:
                    42:49:11:a8:c0:a0:e2:9c:8b:8d:0c:41:34:f9:c6:
                    88:36:55:54:c7:93:a9:f6:72:b2:1a:eb:12:24:c1:
                    54:89:0b:cd:ae:68:0d:f0:ac:5b:c0:4a:5f:d1:22:
                    d2:a3:f1:44:25:59:a1:e3:5a:f7:ae:4c:c3:1b:0c:
                    11:cc:b2:ab:f1:38:c1:11:0e:d7:c5:72:12:b8:af:
                    ec:6f:8e:d0:a9:6d:22:92:46:9d:2d:5c:4a:31:b4:
                    5f:58:55:62:6d:51:b3:fe:f0:1e:21:e1:78:09:5a:
                    01:f6:b2:2e:d9:5c:75:ed:22:3f:42:9f:c4:51:9f:
                    9b:20:b4:3e:b2:4f:b9:f4:01:13:21:04:10:ea:58:
                    86:ae:c9:7e:d5:be:bc:7d:cb:e1:86:cd:89:ca:05:
                    ed:ae:99:26:8a:1f:4a:c6:1b:68:7c:47:a2:06:e4:
                    82:79:fa:be:cb:e7:bc:3b:2d:22:a2:7a:21:ad:d8:
                    c3:a2:8a:95:e5:ad:ec:69:ea:8c:13:f3:a4:58:6a:
                    26:95
                Exponent: 65537 (0x10001)
        X509v3 extensions:
            X509v3 Key Usage: critical
                Digital Signature, Key Encipherment
            X509v3 Extended Key Usage: 
                TLS Web Client Authentication, TLS Web Server Authentication
            X509v3 Basic Constraints: critical
                CA:FALSE
            X509v3 Authority Key Identifier: 
                keyid:01:02:03

            Authority Information Access: 
                OCSP - URI:http://theca.net/ocsp
                CA Issuers - URI:http://theca.net/totallythecert.crt

            X509v3 Certificate Policies: 
                Policy: 2.23.140.1.2.2

            X509v3 Subject Key Identifier: 
                04:03:02:01
            X509v3 Subject Alternative Name: 
                DNS:*.gov.us, DNS:gov.us
    Signature Algorithm: sha256WithRSAEncryption
         50:18:9f:be:80:8e:dc:ab:6c:b2:47:5d:12:7f:5f:cb:e4:f5:
         3e:67:69:6c:16:5b:a0:ab:03:c5:2d:c2:ae:4a:6a:cf:7e:8b:
         11:68:fb:a8:52:7f:a9:44:46:55:3f:d3:ed:04:84:10:b3:75:
         30:05:7b:23:ce:3b:3e:37:f3:32:6b:69:b8:a1:c9:bf:c9:18:
         bf:77:56:52:2f:8f:84:a4:ed:32:69:1b:a7:53:99:19:a3:b3:
         20:d1:02:95:81:e2:af:ee:ff:05:12:72:bf:99:18:5b:a5:54:
         1f:31:e3:75:01:95:19:87:88:40:c3:66:a8:89:7e:6c:73:85:
         62:8e:6b:69:6e:dd:94:02:7b:72:ef:b1:0a:b7:9c:97:9a:6e:
         a7:04:42:18:02:37:2d:54:a7:05:33:4b:27:68:51:48:39:64:
         90:bb:42:44:0c:33:db:34:6a:3f:a9:d5:ca:5e:94:a2:e8:a1:
         92:23:97:1a:7c:83:46:3d:20:d3:62:22:49:4c:7a:17:d9:47:
         0a:ab:d8:6e:73:76:42:12:b7:a0:71:5e:90:d1:24:13:80:1b:
         da:c2:44:6d:ab:4f:96:e8:55:20:a3:a4:72:75:7e:f4:93:eb:
         37:6c:ee:f5:5f:a8:78:ef:02:d2:23:46:ff:8b:a9:31:b6:b8:
         10:6c:ae:64
-----BEGIN CERTIFICATE-----
MIIEYTCCA0mgAwIBAgIFBDFmk+0wDQYJKoZIhvcNAQELBQAwUjELMAkGA1UEBhMC
VVMxFjAUBgNVBAoTDU1vdGhlciBOYXR1cmUxEzARBgNVBAsTCkV2ZXJ5dGhpbmcx
FjAUBgNVBAMTDU1vdGhlciBOYXR1cmUwHhcNMTYwNzAxMjAyNzQ4WhcNMTYwOTEz
MjAyNzQ4WjCBmTELMAkGA1UEBhMCVVMxGDAWBgNVBAoTD0V4dHJlbWUgRGlzY29y
ZDEOMAwGA1UECxMFQ2hhb3MxFDASBgNVBAcTC1RhbGxhaGFzc2VlMQswCQYDVQQI
EwJGTDEcMBoGA1UECRMTMzIxMCBIb2xseSBNaWxsIFJ1bjEOMAwGA1UEERMFMzAw
NjIxDzANBgNVBAMTBmdvdi51czCCASIwDQYJKoZIhvcNAQEBBQADggEPADCCAQoC
ggEBAL1tOvBFecROAYeiBkQDKqRDCK+VTSHlJ7WDozSzJWDP6znUpauwvsNExd/V
kH1IDqFCcfBBk3/yxiV1QkkRqMCg4pyLjQxBNPnGiDZVVMeTqfZyshrrEiTBVIkL
za5oDfCsW8BKX9Ei0qPxRCVZoeNa965MwxsMEcyyq/E4wREO18VyEriv7G+O0Klt
IpJGnS1cSjG0X1hVYm1Rs/7wHiHheAlaAfayLtlcde0iP0KfxFGfmyC0PrJPufQB
EyEEEOpYhq7JftW+vH3L4YbNicoF7a6ZJoofSsYbaHxHogbkgnn6vsvnvDstIqJ6
Ia3Yw6KKleWt7GnqjBPzpFhqJpUCAwEAAaOB9TCB8jAOBgNVHQ8BAf8EBAMCBaAw
HQYDVR0lBBYwFAYIKwYBBQUHAwIGCCsGAQUFBwMBMAwGA1UdEwEB/wQCMAAwDgYD
VR0jBAcwBYADAQIDMGIGCCsGAQUFBwEBBFYwVDAhBggrBgEFBQcwAYYVaHR0cDov
L3RoZWNhLm5ldC9vY3NwMC8GCCsGAQUFBzAChiNodHRwOi8vdGhlY2EubmV0L3Rv
dGFsbHl0aGVjZXJ0LmNydDATBgNVHSAEDDAKMAgGBmeBDAECAjANBgNVHQ4EBgQE
BAMCATAbBgNVHREEFDASgggqLmdvdi51c4IGZ292LnVzMA0GCSqGSIb3DQEBCwUA
A4IBAQBQGJ++gI7cq2yyR10Sf1/L5PU+Z2lsFlugqwPFLcKuSmrPfosRaPuoUn+p
REZVP9PtBIQQs3UwBXsjzjs+N/Mya2m4ocm/yRi/d1ZSL4+EpO0yaRunU5kZo7Mg
0QKVgeKv7v8FEnK/mRhbpVQfMeN1AZUZh4hAw2aoiX5sc4Vijmtpbt2UAnty77EK
t5yXmm6nBEIYAjctVKcFM0snaFFIOWSQu0JEDDPbNGo/qdXKXpSi6KGSI5cafING
PSDTYiJJTHoX2UcKq9huc3ZCEregcV6Q0SQTgBvawkRtq0+W6FUgo6RydX70k+s3
bO71X6h47wLSI0b/i6kxtrgQbK5k
-----END CERTIFICATE-----
