Certificate:
    Data:
        Version: 3 (0x2)
        Serial Number: 18008675309 (0x4316693ed)
    Signature Algorithm: sha256WithRSAEncryption
        Issuer: C = US, O = Mother Nature, OU = Everything, CN = Mother Nature
        Validity
            Not Before: Dec  1 06:07:08 2055 GMT
            Not After : Aug 16 17:24:08 2056 GMT
        Subject: C = US, O = Extreme Discord, OU = Chaos, L = Tallahassee, ST = FL, street = 3210 Holly Mill Run, postalCode = 30062, CN = gov.us
        Subject Public Key Info:
            Public Key Algorithm: rsaEncryption
                Public-Key: (512 bit)
                Modulus:
                    00:ae:69:2d:85:37:c7:a1:5b:15:1e:6f:3e:3c:98:
                    60:36:be:e6:33:5b:e6:a7:be:7f:89:52:8c:0f:84:
                    71:10:26:94:02:6b:4d:6d:11:6d:e9:44:55:db:64:
                    aa:6a:ad:a8:eb:fd:8b:6d:dc:7d:44:67:a8:1e:33:
                    78:39:56:29:2f
                Exponent: 65537 (0x10001)
        Issuer Unique ID: 
            01:02:03
        X509v3 extensions:
            X509v3 Key Usage: critical
                Digital Signature, Key Encipherment, Certificate Sign
            X509v3 Extended Key Usage: 
                TLS Web Client Authentication, TLS Web Server Authentication
            X509v3 Basic Constraints: critical
                CA:FALSE
            X509v3 Authority Key Identifier: 
                keyid:01:02:03

            X509v3 Certificate Policies: 
                Policy: 2.23.140.1.2.2

            X509v3 Name Constraints: 
                02..0
..........."0 ..C=US;A=ATT;P=Contoso;O=Example
            X509v3 Subject Key Identifier: 
                04:03:02:01
            X509v3 Subject Alternative Name: 
                DNS:gov.us, DNS:ˬ
            X509v3 Inhibit Any Policy: 
                ..
            Subject Information Access: 
                ..
            Authority Information Access: critical
                OCSP - DNS:theca.net/ocsp

    Signature Algorithm: sha256WithRSAEncryption
         a2:de:ca:9e:3c:f2:65:23:13:cc:1b:88:6b:db:24:b5:6e:8e:
         35:5e:0e:fe:b6:9b:55:92:42:b6:5f:10:c6:d2:a5:c7:15:09:
         de:eb:1f:a4:2a:4b:6f:d7:7f:54:82:bb:3e:5c:ec:0d:7b:52:
         d2:fb:20:07:c5:00:35:36:c6:49
-----BEGIN CERTIFICATE-----
MIIDADCCAqygAwIBAgIFBDFmk+0wCwYJKoZIhvcNAQELMFQxCzAJBgNVBAYTAlVT
MRYwFAYDVQQKEw1Nb3RoZXIgTmF0dXJlMRMwEQYDVQQLEwpFdmVyeXRoaW5nMRYw
FAYDVQQDEw1Nb3RoZXIgTmF0dXJlMQAwIhgPMjA1NTEyMDEwNjA3MDhaGA8yMDU2
MDgxNjE3MjQwOFowgZsxCzAJBgNVBAYTAlVTMRgwFgYDVQQKEw9FeHRyZW1lIERp
c2NvcmQxDjAMBgNVBAsTBUNoYW9zMRQwEgYDVQQHEwtUYWxsYWhhc3NlZTELMAkG
A1UECBMCRkwxHDAaBgNVBAkTEzMyMTAgSG9sbHkgTWlsbCBSdW4xDjAMBgNVBBET
BTMwMDYyMQ8wDQYDVQQDEwZnb3YudXMxADBcMA0GCSqGSIb3DQEBAQUAA0sAMEgC
QQCuaS2FN8ehWxUebz48mGA2vuYzW+anvn+JUowPhHEQJpQCa01tEW3pRFXbZKpq
rajr/Ytt3H1EZ6geM3g5VikvAgMBAAGBBAABAgOjggETMIIBDzAOBgNVHQ8BAf8E
BAMCAKQwHQYDVR0lBBYwFAYIKwYBBQUHAwIGCCsGAQUFBwMBMAwGA1UdEwEB/wQC
MAAwDgYDVR0jBAcwBYADAQIDMBMGA1UdIAQMMAowCAYGZ4EMAQICMDsGA1UdHgQ0
MDKgDDAKhwjAqAEBAQIDBKEiMCCDHkM9VVM7QT1BVFQ7UD1Db250b3NvO089RXhh
bXBsZTANBgNVHQ4EBgQEBAMCATAVBgNVHREEDjAMggZnb3YudXOCAsCoMAkGA1Ud
NgQCAgEwDgYIKwYBBQUHAQsEAgIBMC0GCCsGAQUFBwEBAQH/BB4wHDAaBggrBgEF
BQcwAYIOdGhlY2EubmV0L29jc3AwCwYJKoZIhvcNAQELA0EAot7KnjzyZSMTzBuI
a9sktW6ONV4O/rabVZJCtl8QxtKlxxUJ3usfpCpLb9d/VIK7PlzsDXtS0vsgB8UA
NTbGSQ==
-----END CERTIFICATE-----
