Certificate:
    Data:
        Version: 3 (0x2)
        Serial Number:
            04:27:68:27:1a:6c:da:db:b8:f3:b5:8c:ad:b1:b4:09:df:60
    Signature Algorithm: sha256WithRSAEncryption
        Issuer:
            commonName                = PRINTABLESTRING:Let's Encrypt Authority X3
            organizationName          = PRINTABLESTRING:Let's Encrypt
            countryName               = PRINTABLESTRING:US
        Validity
            Not Before: Jan 14 23:23:04 2019 GMT
            Not After : Apr 14 23:23:04 2019 GMT
        Subject:
            commonName                = PRINTABLESTRING:zakird.com
        Subject Public Key Info:
            Public Key Algorithm: rsaEncryption
                Public-Key: (2048 bit)
                Modulus:
                    00:b9:8d:55:b4:a1:6a:65:9c:18:1a:ed:74:1c:34:
                    c7:2d:04:72:d6:17:e0:45:a4:e4:d8:7a:42:35:8f:
                    68:e1:e2:33:b2:fc:31:55:8b:53:45:b3:d8:33:0e:
                    33:53:e8:01:87:45:66:2d:cb:0c:e0:9c:8d:0b:29:
                    51:5b:83:f5:ac:cd:4a:1d:96:e2:fd:de:82:aa:30:
                    70:47:44:3d:9c:e3:66:1b:bf:b3:dd:d5:19:e4:48:
                    4b:94:32:c2:3c:6b:3f:ca:9a:6e:cb:7e:c2:04:be:
                    1a:77:27:8c:62:38:b3:65:20:97:cd:16:2a:e8:8a:
                    88:0f:f1:d4:b8:0f:e4:a3:a1:df:d4:cd:2b:b5:be:
                    9d:c7:a1:22:1c:24:07:ef:74:5b:71:4e:cc:f4:78:
                    e4:bb:8d:ae:c9:97:53:bd:43:7c:51:42:c6:78:3c:
                    9e:2b:dd:f7:d1:bd:2a:aa:44:25:7b:5e:01:94:50:
                    80:d9:c2:25:e5:05:57:a9:2a:d0:f8:17:9a:7b:04:
                    14:91:08:49:c2:49:ef:a9:bf:2e:5e:f8:78:8e:4e:
                    34:cf:e4:66:e3:c7:85:9a:c6:62:b5:24:2d:6c:6a:
                    db:5d:f5:13:2a:4a:fa:2d:bd:f5:3b:dc:36:bb:98:
                    bf:f5:84:22:4a:ba:98:bd:a7:b4:bb:8c:3d:38:ea:
                    1a:8f
                Exponent: 65537 (0x10001)
        X509v3 extensions:
            X509v3 Key Usage: critical
                Digital Signature, Key Encipherment
            X509v3 Extended Key Usage:
                TLS Web Server Authentication, TLS Web Client Authentication
            X509v3 Basic Constraints: critical
                CA:FALSE
            X509v3 Subject Key Identifier:
                24:C9:34:5A:8F:6A:39:B3:B8:81:E8:B3:87:BF:53:D1:D5:2D:CD:5A
            X509v3 Authority Key Identifier:
                keyid:A8:4A:6A:63:04:7D:DD:BA:E6:D1:39:B7:A6:45:65:EF:F3:A8:EC:A1

            Authority Information Access:
                OCSP - URI:http://ocsp.int-x3.letsencrypt.org
                CA Issuers - URI:http://cert.int-x3.letsencrypt.org/

            X509v3 Subject Alternative Name:
                DNS:zakird.com
            X509v3 Certificate Policies:
                Policy: 2.23.140.1.2.1
                Policy: 1.3.6.1.4.1.44947.1.1.1
                  CPS: http://cps.letsencrypt.org

            CT Precertificate Poison: critical
                NULL
    Signature Algorithm: sha256WithRSAEncryption
         91:23:10:51:b2:1c:cf:f9:69:ff:aa:2f:61:6f:c1:b4:9c:84:
         e9:11:06:19:91:aa:65:85:2f:9a:f6:1a:98:e5:a7:07:1b:44:
         63:1d:a4:20:d9:38:19:9f:d0:3f:a9:9f:9a:21:ce:ca:6e:c3:
         03:99:e6:1b:b8:39:d9:8c:93:11:23:2b:64:d1:91:75:5f:87:
         6a:86:27:c9:4e:90:ff:b6:e5:76:11:40:78:3e:38:e7:c0:a2:
         1c:ff:7b:b8:81:4c:43:ac:f3:e6:32:ce:33:37:10:0a:08:76:
         e1:66:ed:dc:fc:1f:26:8a:d0:1a:be:b5:3a:0f:cd:21:7f:ca:
         d9:e6:ed:a1:ac:c1:9a:e8:5b:1e:23:2d:4c:e7:2a:1a:30:79:
         f3:26:36:88:ca:70:da:19:b6:34:3b:27:fc:fc:3a:b7:93:17:
         92:fc:e8:e0:1a:b9:1f:6f:19:66:ca:05:d9:94:2d:da:0e:1b:
         10:cc:56:4e:c0:c6:9c:87:40:2b:2c:df:78:7c:47:0f:c9:de:
         74:a0:4c:b1:b4:4e:76:84:7c:3b:25:85:27:09:ed:fb:8c:c0:
         b0:a5:ce:41:89:29:3e:c0:cd:b0:ed:76:8a:bb:9a:94:c1:1c:
         21:66:2a:e2:35:bf:4e:15:1b:71:86:5e:9d:7e:77:94:64:8c:
         c9:2a:c9:8c


-----BEGIN CERTIFICATE-----
MIIEWTCCA0GgAwIBAgISBCdoJxps2tu487WMrbG0Cd9gMA0GCSqGSIb3DQEBCwUA
MEoxCzAJBgNVBAYTAlVTMRYwFAYDVQQKEw1MZXQncyBFbmNyeXB0MSMwIQYDVQQD
ExpMZXQncyBFbmNyeXB0IEF1dGhvcml0eSBYMzAeFw0xOTAxMTQyMzIzMDRaFw0x
OTA0MTQyMzIzMDRaMBUxEzARBgNVBAMTCnpha2lyZC5jb20wggEiMA0GCSqGSIb3
DQEBAQUAA4IBDwAwggEKAoIBAQC5jVW0oWplnBga7XQcNMctBHLWF+BFpOTYekI1
j2jh4jOy/DFVi1NFs9gzDjNT6AGHRWYtywzgnI0LKVFbg/WszUodluL93oKqMHBH
RD2c42Ybv7Pd1RnkSEuUMsI8az/Kmm7LfsIEvhp3J4xiOLNlIJfNFiroiogP8dS4
D+Sjod/UzSu1vp3HoSIcJAfvdFtxTsz0eOS7ja7Jl1O9Q3xRQsZ4PJ4r3ffRvSqq
RCV7XgGUUIDZwiXlBVepKtD4F5p7BBSRCEnCSe+pvy5e+HiOTjTP5Gbjx4WaxmK1
JC1sattd9RMqSvotvfU73Da7mL/1hCJKupi9p7S7jD046hqPAgMBAAGjggFsMIIB
aDAOBgNVHQ8BAf8EBAMCBaAwHQYDVR0lBBYwFAYIKwYBBQUHAwEGCCsGAQUFBwMC
MAwGA1UdEwEB/wQCMAAwHQYDVR0OBBYEFCTJNFqPajmzuIHos4e/U9HVLc1aMB8G
A1UdIwQYMBaAFKhKamMEfd265tE5t6ZFZe/zqOyhMG8GCCsGAQUFBwEBBGMwYTAu
BggrBgEFBQcwAYYiaHR0cDovL29jc3AuaW50LXgzLmxldHNlbmNyeXB0Lm9yZzAv
BggrBgEFBQcwAoYjaHR0cDovL2NlcnQuaW50LXgzLmxldHNlbmNyeXB0Lm9yZy8w
FQYDVR0RBA4wDIIKemFraXJkLmNvbTBMBgNVHSAERTBDMAgGBmeBDAECATA3Bgsr
BgEEAYLfEwEBATAoMCYGCCsGAQUFBwIBFhpodHRwOi8vY3BzLmxldHNlbmNyeXB0
Lm9yZzATBgorBgEEAdZ5AgQDAQH/BAIFADANBgkqhkiG9w0BAQsFAAOCAQEAkSMQ
UbIcz/lp/6ovYW/BtJyE6REGGZGqZYUvmvYamOWnBxtEYx2kINk4GZ/QP6mfmiHO
ym7DA5nmG7g52YyTESMrZNGRdV+HaoYnyU6Q/7bldhFAeD4458CiHP97uIFMQ6zz
5jLOMzcQCgh24Wbt3PwfJorQGr61Og/NIX/K2ebtoazBmuhbHiMtTOcqGjB58yY2
iMpw2hm2NDsn/Pw6t5MXkvzo4Bq5H28ZZsoF2ZQt2g4bEMxWTsDGnIdAKyzfeHxH
D8nedKBMsbROdoR8OyWFJwnt+4zAsKXOQYkpPsDNsO12irualMEcIWYq4jW/ThUb
cYZenX53lGSMySrJjA==
-----END CERTIFICATE-----
