Certificate:
    Data:
        Version: 3 (0x2)
        Serial Number: 18008675984 (0x431669690)
    Signature Algorithm: sha256WithRSAEncryption
        Issuer: C = US, O = Mother Nature, OU = Everything, CN = Mother Nature
        Validity
            Not Before: Jul  7 15:15:10 2016 GMT
            Not After : Sep 19 15:15:10 2016 GMT
        Subject: C = US, ST = FL, L = Tallahassee, street = 3210 Holly Mill Run, postalCode = 30062, O = Extreme Discord, OU = Chaos, CN = gov.us
        Subject Public Key Info:
            Public Key Algorithm: rsaEncryption
                Public-Key: (2048 bit)
                Modulus:
                    00:eb:45:71:c1:e7:75:bb:da:10:05:0c:70:89:01:
                    16:39:8c:23:56:7e:7c:fb:0b:6b:fd:e5:47:19:4c:
                    5d:4f:d6:df:8e:3f:13:de:1e:f0:23:ff:43:8e:ca:
                    74:cd:3b:ae:d9:72:46:40:03:3e:5d:1b:44:b7:0a:
                    64:86:81:c0:6a:f2:9a:1f:dd:1f:dc:70:9a:72:a5:
                    71:84:2d:a3:08:56:59:51:cc:51:91:a8:0e:96:2b:
                    d4:a0:b6:9a:21:13:0a:c8:29:19:82:ab:68:82:9d:
                    01:a3:1c:69:7b:c8:81:b7:92:83:ad:e1:ef:3f:b8:
                    eb:7b:e4:71:05:33:6f:12:33:dc:f2:da:5d:50:92:
                    78:e7:c8:71:8d:e0:45:fc:24:c1:a9:8b:26:40:98:
                    3f:c3:44:c6:e7:e7:e9:8b:a5:ac:c4:ab:e3:82:3d:
                    30:d2:bf:cf:ad:14:cd:92:31:47:cd:9b:3d:0b:51:
                    90:ba:96:77:57:68:ed:b1:70:13:b5:70:d9:e8:ef:
                    d2:51:e6:27:bd:14:5d:c7:cc:ec:83:20:14:ff:4a:
                    a9:6a:10:90:e5:00:a9:24:d2:f5:2f:89:82:e7:0c:
                    95:3b:95:b7:b6:9e:5f:32:a0:e8:6c:19:24:a8:6a:
                    76:c8:56:ad:dc:05:37:5a:a9:bb:40:75:2b:6d:e8:
                    1b:67
                Exponent: 65537 (0x10001)
        X509v3 extensions:
            X509v3 Key Usage: critical
                Digital Signature, Key Encipherment
            X509v3 Extended Key Usage: 
                TLS Web Client Authentication, TLS Web Server Authentication
            X509v3 Basic Constraints: critical
                CA:TRUE
            Authority Information Access: 
                OCSP - URI:http://theca.net/ocsp
                CA Issuers - URI:http://theca.net/totallythecert.crt

            X509v3 Certificate Policies: 
                Policy: 1.3.6.1.5.5.7.13.1
                Policy: 2.23.140.1.2.2

            X509v3 Subject Key Identifier: 
                04:03:02:01
            X509v3 Subject Alternative Name: 
                DNS:*.gov.us, DNS:gov.us
            X509v3 Issuer Alternative Name: 
                DNS:allthethings.net, DNS:theca.net
    Signature Algorithm: sha256WithRSAEncryption
         7f:7b:ba:19:d2:d0:6a:f7:ff:2b:88:8e:c5:43:73:02:e4:1b:
         2d:a5:fe:90:25:6a:f1:cb:1b:62:c7:34:90:32:84:ef:a8:63:
         15:90:f4:1c:d3:f6:1d:1d:9d:28:be:5a:34:4b:3f:c3:5d:72:
         58:18:06:59:93:4c:42:3a:29:63:10:e9:3e:9e:05:1d:1c:1d:
         41:a6:49:8a:85:bc:0d:27:33:96:7f:ff:39:20:29:c5:6a:48:
         9d:eb:d1:2e:e4:91:de:64:9b:cb:0f:63:6a:45:31:7a:34:e0:
         e4:d6:ae:9d:ef:0e:70:0d:d8:cf:ed:a0:27:c7:b1:34:98:d1:
         d5:15:63:95:95:4a:2c:94:86:e2:a9:4f:0c:36:31:9f:1b:2e:
         76:0c:63:da:72:b5:72:53:0a:75:d9:9f:42:b8:1a:6f:af:da:
         ed:03:8a:3e:ef:2a:2b:ef:e3:52:e0:a8:8b:c3:e3:a8:54:25:
         2e:e4:b5:47:f3:6a:29:d9:27:dc:c7:b8:30:12:3f:0b:fe:2c:
         67:99:ce:dc:8d:98:a3:01:f1:f0:78:90:0e:5b:48:90:ca:a7:
         5d:be:02:81:50:8a:e4:3e:bc:f5:e7:30:4b:34:79:fc:cb:89:
         84:09:a6:75:d6:76:a6:a8:72:75:75:54:af:b4:46:40:be:7b:
         a0:ed:63:55
-----BEGIN CERTIFICATE-----
MIIEijCCA3KgAwIBAgIFBDFmlpAwDQYJKoZIhvcNAQELBQAwUjELMAkGA1UEBhMC
VVMxFjAUBgNVBAoTDU1vdGhlciBOYXR1cmUxEzARBgNVBAsTCkV2ZXJ5dGhpbmcx
FjAUBgNVBAMTDU1vdGhlciBOYXR1cmUwHhcNMTYwNzA3MTUxNTEwWhcNMTYwOTE5
MTUxNTEwWjCBmTELMAkGA1UEBhMCVVMxCzAJBgNVBAgTAkZMMRQwEgYDVQQHEwtU
YWxsYWhhc3NlZTEcMBoGA1UECRMTMzIxMCBIb2xseSBNaWxsIFJ1bjEOMAwGA1UE
ERMFMzAwNjIxGDAWBgNVBAoTD0V4dHJlbWUgRGlzY29yZDEOMAwGA1UECxMFQ2hh
b3MxDzANBgNVBAMTBmdvdi51czCCASIwDQYJKoZIhvcNAQEBBQADggEPADCCAQoC
ggEBAOtFccHndbvaEAUMcIkBFjmMI1Z+fPsLa/3lRxlMXU/W344/E94e8CP/Q47K
dM07rtlyRkADPl0bRLcKZIaBwGrymh/dH9xwmnKlcYQtowhWWVHMUZGoDpYr1KC2
miETCsgpGYKraIKdAaMcaXvIgbeSg63h7z+463vkcQUzbxIz3PLaXVCSeOfIcY3g
RfwkwamLJkCYP8NExufn6YulrMSr44I9MNK/z60UzZIxR82bPQtRkLqWd1do7bFw
E7Vw2ejv0lHmJ70UXcfM7IMgFP9KqWoQkOUAqSTS9S+JgucMlTuVt7aeXzKg6GwZ
JKhqdshWrdwFN1qpu0B1K23oG2cCAwEAAaOCAR0wggEZMA4GA1UdDwEB/wQEAwIF
oDAdBgNVHSUEFjAUBggrBgEFBQcDAgYIKwYBBQUHAwEwDwYDVR0TAQH/BAUwAwEB
/zBiBggrBgEFBQcBAQRWMFQwIQYIKwYBBQUHMAGGFWh0dHA6Ly90aGVjYS5uZXQv
b2NzcDAvBggrBgEFBQcwAoYjaHR0cDovL3RoZWNhLm5ldC90b3RhbGx5dGhlY2Vy
dC5jcnQwHwYDVR0gBBgwFjAKBggrBgEFBQcNATAIBgZngQwBAgIwDQYDVR0OBAYE
BAQDAgEwGwYDVR0RBBQwEoIIKi5nb3YudXOCBmdvdi51czAmBgNVHRIEHzAdghBh
bGx0aGV0aGluZ3MubmV0ggl0aGVjYS5uZXQwDQYJKoZIhvcNAQELBQADggEBAH97
uhnS0Gr3/yuIjsVDcwLkGy2l/pAlavHLG2LHNJAyhO+oYxWQ9BzT9h0dnSi+WjRL
P8NdclgYBlmTTEI6KWMQ6T6eBR0cHUGmSYqFvA0nM5Z//zkgKcVqSJ3r0S7kkd5k
m8sPY2pFMXo04OTWrp3vDnAN2M/toCfHsTSY0dUVY5WVSiyUhuKpTww2MZ8bLnYM
Y9pytXJTCnXZn0K4Gm+v2u0Dij7vKivv41LgqIvD46hUJS7ktUfzainZJ9zHuDAS
Pwv+LGeZztyNmKMB8fB4kA5bSJDKp12+AoFQiuQ+vPXnMEs0efzLiYQJpnXWdqao
cnV1VK+0RkC+e6DtY1U=
-----END CERTIFICATE-----
