Certificate:
    Data:
        Version: 3 (0x2)
        Serial Number: 18008675984 (0x431669690)
    Signature Algorithm: sha256WithRSAEncryption
        Issuer: C = US, O = Mother Nature, OU = Everything, CN = Mother Nature
        Validity
            Not Before: Jul  7 15:46:56 2016 GMT
            Not After : Sep 19 15:46:56 2016 GMT
        Subject: C = US, ST = FL, L = Tallahassee, street = 3210 Holly Mill Run, postalCode = 30062, O = Extreme Discord, OU = Chaos, CN = gov.us
        Subject Public Key Info:
            Public Key Algorithm: rsaEncryption
                Public-Key: (2048 bit)
                Modulus:
                    00:d7:42:34:55:f5:65:b0:4b:99:79:ab:ae:ef:c2:
                    1a:47:ed:9c:52:9a:88:6a:f6:e4:b9:f0:95:d5:97:
                    f9:50:a8:ca:93:33:12:58:a3:17:3e:6a:ef:27:1d:
                    de:75:39:9e:97:d8:60:19:78:80:aa:1b:b2:54:95:
                    a7:dd:a9:7d:6e:aa:91:e8:f8:88:65:e1:12:2f:55:
                    34:aa:e5:7a:2b:5a:6e:90:4a:25:4a:72:23:e0:b0:
                    2d:a9:5f:87:ef:99:14:10:47:48:eb:c6:0f:83:68:
                    0d:e9:54:9e:c6:0a:1f:c5:c8:47:fa:a8:ce:e4:5a:
                    ef:65:1e:20:04:c9:c8:ff:a3:a1:e7:fb:9e:19:af:
                    57:ab:1e:7b:94:8a:22:9a:8a:87:f6:84:8f:40:0c:
                    55:76:aa:aa:48:ea:0c:06:03:b1:67:89:cb:f8:87:
                    8d:1c:3e:c4:16:eb:23:3a:92:ef:a1:e4:8e:80:3b:
                    27:93:b0:20:fb:fb:b1:22:d5:3a:ab:1a:41:04:a5:
                    68:dc:be:dd:11:71:97:49:ae:20:f7:82:95:98:8e:
                    cc:3d:c6:f1:75:e2:b7:26:92:3a:0c:6e:44:5c:03:
                    d8:f2:5d:54:9d:08:48:3e:42:50:7b:3c:fd:fb:73:
                    76:b9:ce:94:9a:f9:3e:03:d0:79:00:49:aa:3c:3f:
                    6d:8f
                Exponent: 65537 (0x10001)
        X509v3 extensions:
            X509v3 Key Usage: critical
                Digital Signature, Key Encipherment
            X509v3 Extended Key Usage: 
                TLS Web Client Authentication, TLS Web Server Authentication
            X509v3 Basic Constraints: critical
                CA:TRUE
            Authority Information Access: 
                OCSP - URI:http://theca.net/ocsp
                CA Issuers - URI:http://theca.net/totallythecert.crt

            X509v3 Certificate Policies: 
                Policy: 1.3.6.1.5.5.7.13.1
                Policy: 2.23.140.1.2.2

            X509v3 Subject Key Identifier: 
                04:03:02:01
            X509v3 Subject Alternative Name: 
                DNS:*.gov.us, DNS:gov.us
            X509v3 Issuer Alternative Name: 
                DNS:allthethings.net, DNS:theca.net
            X509v3 Authority Key Identifier: 
                keyid:01:02:03:04
                serial:1C:BD:7D:87:57

    Signature Algorithm: sha256WithRSAEncryption
         a4:6f:57:16:5a:3a:29:d8:f3:a2:e4:8a:49:d5:bd:1e:44:76:
         26:49:ad:db:c5:38:67:66:00:4e:ec:75:68:5b:88:2c:3c:24:
         ff:9c:05:df:2a:b0:03:61:fb:c2:77:c4:f5:10:57:b9:c9:07:
         1a:23:d0:4b:00:69:fe:68:4b:db:c8:6e:21:0c:f7:b6:3d:af:
         16:7c:6c:36:d4:84:f2:12:be:e5:b4:17:b9:16:c6:74:62:73:
         0c:27:a9:4e:65:a0:23:b1:2a:3a:ed:68:c6:94:c5:4f:5b:00:
         12:dc:fd:33:5c:00:9f:b2:d7:02:e7:68:82:6a:2e:93:68:61:
         cb:4d:af:79:64:fa:d2:9c:0f:27:fc:20:ab:42:94:e4:fb:30:
         19:c1:cb:79:a4:87:13:8d:3c:93:4f:37:3f:f6:43:ab:6a:65:
         c2:14:ce:cd:6f:4d:ce:7e:15:3f:ed:02:f0:91:85:f6:cb:6c:
         17:02:90:b9:ad:c7:17:09:7c:9f:7b:89:4f:58:9b:f0:f5:59:
         e4:91:5e:56:46:6b:66:21:1f:6e:a4:cd:be:e8:3c:f5:e5:ce:
         c1:71:86:2e:8e:1c:ff:52:f7:73:ca:e6:7e:0e:c2:6a:ad:95:
         b7:b1:b8:c0:13:84:5b:5f:d9:a1:8f:7e:44:fe:a8:86:29:d8:
         9f:8c:aa:9a
-----BEGIN CERTIFICATE-----
MIIEojCCA4qgAwIBAgIFBDFmlpAwDQYJKoZIhvcNAQELBQAwUjELMAkGA1UEBhMC
VVMxFjAUBgNVBAoTDU1vdGhlciBOYXR1cmUxEzARBgNVBAsTCkV2ZXJ5dGhpbmcx
FjAUBgNVBAMTDU1vdGhlciBOYXR1cmUwHhcNMTYwNzA3MTU0NjU2WhcNMTYwOTE5
MTU0NjU2WjCBmTELMAkGA1UEBhMCVVMxCzAJBgNVBAgTAkZMMRQwEgYDVQQHEwtU
YWxsYWhhc3NlZTEcMBoGA1UECRMTMzIxMCBIb2xseSBNaWxsIFJ1bjEOMAwGA1UE
ERMFMzAwNjIxGDAWBgNVBAoTD0V4dHJlbWUgRGlzY29yZDEOMAwGA1UECxMFQ2hh
b3MxDzANBgNVBAMTBmdvdi51czCCASIwDQYJKoZIhvcNAQEBBQADggEPADCCAQoC
ggEBANdCNFX1ZbBLmXmrru/CGkftnFKaiGr25LnwldWX+VCoypMzElijFz5q7ycd
3nU5npfYYBl4gKobslSVp92pfW6qkej4iGXhEi9VNKrleitabpBKJUpyI+CwLalf
h++ZFBBHSOvGD4NoDelUnsYKH8XIR/qozuRa72UeIATJyP+joef7nhmvV6see5SK
IpqKh/aEj0AMVXaqqkjqDAYDsWeJy/iHjRw+xBbrIzqS76HkjoA7J5OwIPv7sSLV
OqsaQQSlaNy+3RFxl0muIPeClZiOzD3G8XXityaSOgxuRFwD2PJdVJ0ISD5CUHs8
/ftzdrnOlJr5PgPQeQBJqjw/bY8CAwEAAaOCATUwggExMA4GA1UdDwEB/wQEAwIF
oDAdBgNVHSUEFjAUBggrBgEFBQcDAgYIKwYBBQUHAwEwDwYDVR0TAQH/BAUwAwEB
/zBiBggrBgEFBQcBAQRWMFQwIQYIKwYBBQUHMAGGFWh0dHA6Ly90aGVjYS5uZXQv
b2NzcDAvBggrBgEFBQcwAoYjaHR0cDovL3RoZWNhLm5ldC90b3RhbGx5dGhlY2Vy
dC5jcnQwHwYDVR0gBBgwFjAKBggrBgEFBQcNATAIBgZngQwBAgIwDQYDVR0OBAYE
BAQDAgEwGwYDVR0RBBQwEoIIKi5nb3YudXOCBmdvdi51czAmBgNVHRIEHzAdghBh
bGx0aGV0aGluZ3MubmV0ggl0aGVjYS5uZXQwFgYDVR0jBA8wDYAEAQIDBIIFHL19
h1cwDQYJKoZIhvcNAQELBQADggEBAKRvVxZaOinY86LkiknVvR5EdiZJrdvFOGdm
AE7sdWhbiCw8JP+cBd8qsANh+8J3xPUQV7nJBxoj0EsAaf5oS9vIbiEM97Y9rxZ8
bDbUhPISvuW0F7kWxnRicwwnqU5loCOxKjrtaMaUxU9bABLc/TNcAJ+y1wLnaIJq
LpNoYctNr3lk+tKcDyf8IKtClOT7MBnBy3mkhxONPJNPNz/2Q6tqZcIUzs1vTc5+
FT/tAvCRhfbLbBcCkLmtxxcJfJ97iU9Ym/D1WeSRXlZGa2YhH26kzb7oPPXlzsFx
hi6OHP9S93PK5n4OwmqtlbexuMAThFtf2aGPfkT+qIYp2J+Mqpo=
-----END CERTIFICATE-----
