Certificate:
    Data:
        Version: 2 (0x1)
        Serial Number: 1286642255 (0x4cb09a4f)
    Signature Algorithm: md5WithRSAEncryption
        Issuer: C = IL, ST = IL, L = Demo Address, postalCode = 12345, telephoneNumber = (000-0) 0000000, emailAddress = Demo@demo.com, O = Demo Inc., OU = Demo, CN = typo.sgdpbell.com
        Validity
            Not Before: Apr 27 00:00:00 2012 GMT
            Not After : Apr 27 05:00:00 2022 GMT
        Subject: C = IL, ST = IL, L = Demo Address, postalCode = 12345, telephoneNumber = (000-0) 0000000, emailAddress = Demo@demo.com, O = Demo Inc., OU = Demo, CN = typo.sgdpbell.com
        Subject Public Key Info:
            Public Key Algorithm: rsaEncryption
                Public-Key: (1024 bit)
                Modulus:
                    00:ac:a2:35:3c:5e:e8:18:58:dc:06:ae:ad:b7:e5:
                    ac:2f:0c:e8:3a:05:71:d6:e1:80:86:67:42:af:0c:
                    7f:b2:62:a2:0c:60:d2:4d:1d:6b:00:87:82:50:54:
                    cc:cb:ac:ce:cb:d3:58:80:31:26:ef:e1:c8:0d:96:
                    a0:b2:ea:35:98:25:9d:63:63:34:40:32:c0:ab:62:
                    ce:ad:04:ad:e3:ca:1b:7a:69:85:71:2b:29:62:2f:
                    ed:92:8f:c9:66:dd:a9:00:71:92:b4:3d:b1:03:c8:
                    94:f0:41:32:ef:0f:1a:33:29:70:5a:a1:60:7d:50:
                    8a:36:1e:99:61:e2:bb:47:b3
                Exponent: 65537 (0x10001)
        Issuer Unique ID: 
            6b:69:73:68:6b:75:73:68:69:68
        Subject Unique ID: 
            6b:69:73:68:6b:75:73:68:69:68
    Signature Algorithm: md5WithRSAEncryption
         8d:d4:35:16:6b:de:fa:aa:14:15:dc:94:3a:60:5e:a3:34:91:
         1e:a5:82:a9:ab:32:c4:b5:0e:df:66:08:77:eb:02:51:ea:45:
         ad:08:44:f1:43:02:a7:a3:05:8f:82:0c:54:c3:1d:bb:af:87:
         d1:1e:b1:5a:d5:6c:54:08:63:65:30:a8:e9:70:4c:3e:10:ad:
         18:d5:61:9e:3e:ae:3d:d7:dc:0c:c8:c7:5a:8b:3e:af:84:d5:
         5b:9c:e8:4a:c0:47:20:50:aa:d8:96:4b:03:30:d2:8f:52:50:
         d4:8d:f9:bf:c3:e1:dd:3e:a3:31:b2:70:3e:4b:98:dc:fb:9f:
         e0:42
-----BEGIN CERTIFICATE-----
MIIDAzCCAmygAwIBAQIETLCaTzANBgkqhkiG9w0BAQQFADCBuDELMAkGA1UEBhMC
SUwxCzAJBgNVBAgTAklMMRUwEwYDVQQHEwxEZW1vIEFkZHJlc3MxDjAMBgNVBBET
BTEyMzQ1MRgwFgYDVQQUEw8oMDAwLTApIDAwMDAwMDAxHDAaBgkqhkiG9w0BCQEW
DURlbW9AZGVtby5jb20xEjAQBgNVBAoTCURlbW8gSW5jLjENMAsGA1UECxMERGVt
bzEaMBgGA1UEAxMRdHlwby5zZ2RwYmVsbC5jb20wHhcNMTIwNDI3MDAwMDAwWhcN
MjIwNDI3MDUwMDAwWjCBuDELMAkGA1UEBhMCSUwxCzAJBgNVBAgTAklMMRUwEwYD
VQQHEwxEZW1vIEFkZHJlc3MxDjAMBgNVBBETBTEyMzQ1MRgwFgYDVQQUEw8oMDAw
LTApIDAwMDAwMDAxHDAaBgkqhkiG9w0BCQEWDURlbW9AZGVtby5jb20xEjAQBgNV
BAoTCURlbW8gSW5jLjENMAsGA1UECxMERGVtbzEaMBgGA1UEAxMRdHlwby5zZ2Rw
YmVsbC5jb20wgZ8wDQYJKoZIhvcNAQEBBQADgY0AMIGJAoGBAKyiNTxe6BhY3Aau
rbflrC8M6DoFcdbhgIZnQq8Mf7Jiogxg0k0dawCHglBUzMuszsvTWIAxJu/hyA2W
oLLqNZglnWNjNEAywKtizq0ErePKG3pphXErKWIv7ZKPyWbdqQBxkrQ9sQPIlPBB
Mu8PGjMpcFqhYH1QijYemWHiu0ezAgMBAAGBCwNraXNoa3VzaGloggsDa2lzaGt1
c2hpaDANBgkqhkiG9w0BAQQFAAOBgQCN1DUWa976qhQV3JQ6YF6jNJEepYKpqzLE
tQ7fZgh36wJR6kWtCETxQwKnowWPggxUwx27r4fRHrFa1WxUCGNlMKjpcEw+EK0Y
1WGePq4919wMyMdaiz6vhNVbnOhKwEcgUKrYlksDMNKPUlDUjfm/w+HdPqMxsnA+
S5jc+5/gQg==
-----END CERTIFICATE-----
