Certificate:
    Data:
        Version: 3 (0x2)
        Serial Number: 18008675309 (0x4316693ed)
    Signature Algorithm: sha256WithRSAEncryption
        Issuer: C = US, O = Mother Nature, OU = Everything, CN = Mother Nature
        Validity
            Not Before: Aug  1 21:41:30 2016 GMT
            Not After : Oct 13 21:41:30 2016 GMT
        Subject: C = US, O = Extreme Discord, OU = Chaos, L = Tallahassee, ST = FL, street = 3210 Holly Mill Run, postalCode = 30062, CN = gov.us
        Subject Public Key Info:
            Public Key Algorithm: rsaEncryption
                Public-Key: (2048 bit)
                Modulus:
                    00:ce:ff:29:9c:c3:02:a2:7a:2c:9c:3d:b0:3f:17:
                    25:a0:92:ed:f2:d3:d6:9d:e2:a8:be:b1:88:f6:ab:
                    6c:a4:1f:a5:0c:af:4b:59:7a:28:c2:d2:4c:b2:de:
                    94:98:ef:d3:bf:56:82:dd:71:14:64:85:df:46:ea:
                    fd:8e:89:26:4f:ba:f1:ba:92:19:84:e9:ee:82:4d:
                    09:1f:8a:1a:2f:2c:8f:36:46:8d:30:1e:d5:c2:99:
                    49:67:f1:27:32:b3:21:94:68:7a:29:68:04:bc:40:
                    3b:7d:1a:e5:6d:52:51:15:b4:f5:e5:eb:65:f6:83:
                    16:42:4f:b5:5a:b0:cc:7f:3e:78:c7:c6:5d:d6:fe:
                    e0:cf:56:5e:84:d1:58:f2:cd:86:2b:3f:28:cd:e0:
                    d9:72:37:b3:65:97:4c:90:58:3e:4b:3e:33:d8:7a:
                    15:46:3d:96:e7:d8:f1:d7:ea:56:de:22:a1:50:0b:
                    98:6d:df:9d:c6:63:d9:e5:06:6c:41:7e:35:1d:8a:
                    06:b8:33:9c:9c:34:7b:af:48:0c:23:8b:c8:db:09:
                    93:aa:66:95:a0:d8:b4:47:07:e0:c3:96:57:45:e6:
                    4f:0d:27:03:9a:ea:5e:12:b9:6f:ca:22:4c:09:8a:
                    7b:ae:1e:a1:e4:61:40:c8:5e:6a:b2:de:35:fb:86:
                    0a:19
                Exponent: 2 (0x2)
        X509v3 extensions:
            X509v3 Key Usage: critical
                Digital Signature, Key Encipherment
            X509v3 Extended Key Usage: 
                TLS Web Client Authentication, TLS Web Server Authentication
            X509v3 Basic Constraints: critical
                CA:FALSE
            X509v3 Authority Key Identifier: 
                keyid:01:02:03

            Authority Information Access: 
                OCSP - URI:http://theca.net/ocsp
                CA Issuers - URI:http://theca.net/totallythecert.crt

            X509v3 Certificate Policies: 
                Policy: 2.23.140.1.2.2

            X509v3 Subject Key Identifier: 
                04:03:02:01
            X509v3 Subject Alternative Name: 
                DNS:*.gov.us, DNS:gov.us
    Signature Algorithm: sha256WithRSAEncryption
         6d:15:b0:f2:b1:3e:06:b6:7e:46:18:30:bb:70:81:92:2a:6f:
         40:81:56:5d:f0:98:1d:89:46:08:8a:d8:8a:62:7e:ae:16:a5:
         35:12:51:5a:92:72:55:f9:ef:48:43:59:5b:05:17:41:78:a5:
         ad:0b:44:eb:6a:2b:30:d0:13:b7:74:32:b2:ef:40:81:88:21:
         b1:c3:68:f7:36:9d:c8:b0:27:c7:21:c1:c3:4f:3c:9b:08:ac:
         cd:22:15:1c:1d:6c:3c:3a:d0:e1:2d:14:4c:f7:fb:a5:b1:7e:
         4e:7f:30:db:b3:76:e2:6d:93:f3:67:df:ba:e7:67:a1:f4:aa:
         6f:b6:8b:c9:01:88:d2:40:ad:40:9c:3a:a1:2f:fd:9e:df:d2:
         3f:3c:d7:b1:cf:06:fd:10:a6:67:ce:3d:81:b5:b6:25:69:6a:
         b0:2e:15:96:19:31:25:fb:49:34:83:bd:d0:2b:e4:9f:5d:14:
         3e:38:fa:e4:c9:4d:3c:d8:bd:72:e4:7c:b9:ce:75:fe:b3:f1:
         d7:9f:b8:1f:df:d5:d0:c8:df:50:2e:a3:d2:fc:02:7d:9d:93:
         9a:13:dd:4a:18:66:75:ec:48:f3:cf:60:a6:0f:85:30:a6:38:
         72:db:b3:e0:f5:f8:52:d1:39:10:07:7c:33:23:5e:de:fb:7e:
         fa:e2:31:2b
-----BEGIN CERTIFICATE-----
MIIEXzCCA0egAwIBAgIFBDFmk+0wDQYJKoZIhvcNAQELBQAwUjELMAkGA1UEBhMC
VVMxFjAUBgNVBAoTDU1vdGhlciBOYXR1cmUxEzARBgNVBAsTCkV2ZXJ5dGhpbmcx
FjAUBgNVBAMTDU1vdGhlciBOYXR1cmUwHhcNMTYwODAxMjE0MTMwWhcNMTYxMDEz
MjE0MTMwWjCBmTELMAkGA1UEBhMCVVMxGDAWBgNVBAoTD0V4dHJlbWUgRGlzY29y
ZDEOMAwGA1UECxMFQ2hhb3MxFDASBgNVBAcTC1RhbGxhaGFzc2VlMQswCQYDVQQI
EwJGTDEcMBoGA1UECRMTMzIxMCBIb2xseSBNaWxsIFJ1bjEOMAwGA1UEERMFMzAw
NjIxDzANBgNVBAMTBmdvdi51czCCASAwDQYJKoZIhvcNAQEBBQADggENADCCAQgC
ggEBAM7/KZzDAqJ6LJw9sD8XJaCS7fLT1p3iqL6xiParbKQfpQyvS1l6KMLSTLLe
lJjv079Wgt1xFGSF30bq/Y6JJk+68bqSGYTp7oJNCR+KGi8sjzZGjTAe1cKZSWfx
JzKzIZRoeiloBLxAO30a5W1SURW09eXrZfaDFkJPtVqwzH8+eMfGXdb+4M9WXoTR
WPLNhis/KM3g2XI3s2WXTJBYPks+M9h6FUY9lufY8dfqVt4ioVALmG3fncZj2eUG
bEF+NR2KBrgznJw0e69IDCOLyNsJk6pmlaDYtEcH4MOWV0XmTw0nA5rqXhK5b8oi
TAmKe64eoeRhQMhearLeNfuGChkCAQKjgfUwgfIwDgYDVR0PAQH/BAQDAgWgMB0G
A1UdJQQWMBQGCCsGAQUFBwMCBggrBgEFBQcDATAMBgNVHRMBAf8EAjAAMA4GA1Ud
IwQHMAWAAwECAzBiBggrBgEFBQcBAQRWMFQwIQYIKwYBBQUHMAGGFWh0dHA6Ly90
aGVjYS5uZXQvb2NzcDAvBggrBgEFBQcwAoYjaHR0cDovL3RoZWNhLm5ldC90b3Rh
bGx5dGhlY2VydC5jcnQwEwYDVR0gBAwwCjAIBgZngQwBAgIwDQYDVR0OBAYEBAQD
AgEwGwYDVR0RBBQwEoIIKi5nb3YudXOCBmdvdi51czANBgkqhkiG9w0BAQsFAAOC
AQEAbRWw8rE+BrZ+Rhgwu3CBkipvQIFWXfCYHYlGCIrYimJ+rhalNRJRWpJyVfnv
SENZWwUXQXilrQtE62orMNATt3Qysu9AgYghscNo9zadyLAnxyHBw088mwiszSIV
HB1sPDrQ4S0UTPf7pbF+Tn8w27N24m2T82ffuudnofSqb7aLyQGI0kCtQJw6oS/9
nt/SPzzXsc8G/RCmZ849gbW2JWlqsC4VlhkxJftJNIO90Cvkn10UPjj65MlNPNi9
cuR8uc51/rPx15+4H9/V0MjfUC6j0vwCfZ2TmhPdShhmdexI889gpg+FMKY4ctuz
4PX4UtE5EAd8MyNe3vt++uIxKw==
-----END CERTIFICATE-----
