Certificate:
    Data:
        Version: 3 (0x2)
        Serial Number: 18008675309 (0x4316693ed)
    Signature Algorithm: sha256WithRSAEncryption
        Issuer: C = US, O = Mother Nature, OU = Everything, CN = Mother Nature
        Validity
            Not Before: Jun 30 23:00:59 2016 GMT
            Not After : Sep 11 23:00:59 2016 GMT
        Subject: C = US, ST = FL, L = Tallahassee, street = 3210 Holly Mill Run, postalCode = 30062, O = Extreme Discord, OU = Chaos, CN = gov.us
        Subject Public Key Info:
            Public Key Algorithm: rsaEncryption
                Public-Key: (2048 bit)
                Modulus:
                    00:dd:3f:9e:78:f8:76:df:ff:97:65:db:d2:74:ec:
                    b0:b8:67:15:ae:2e:56:6f:df:fc:74:36:6d:d7:ac:
                    83:88:65:8e:c0:ac:9e:41:20:53:ed:01:ed:4e:e8:
                    3f:ea:98:e4:0c:1c:63:d7:34:c5:d2:79:ad:0e:b0:
                    85:04:8f:ad:34:19:66:35:97:1c:a8:43:0e:3f:bb:
                    2e:47:78:e5:c3:58:59:d8:65:7a:33:66:35:47:48:
                    43:e0:2c:05:7f:c6:b1:83:15:da:0d:f7:f5:46:71:
                    b0:dc:d2:98:9a:af:02:19:cd:b3:79:44:72:85:f6:
                    85:85:56:b1:10:22:96:eb:45:99:1d:d6:41:cc:60:
                    ed:c7:11:8f:71:fc:20:11:fc:02:7e:17:81:4d:90:
                    f0:c3:26:48:89:67:91:5f:00:24:b9:59:21:87:24:
                    e8:c6:0c:3e:41:2e:2b:94:3a:8f:e3:68:a3:61:ea:
                    69:b1:51:e8:84:80:36:66:84:6d:8d:2f:6e:29:6e:
                    54:32:12:cd:a5:89:82:73:48:2d:09:b2:83:77:dd:
                    b0:1a:0f:67:ee:d5:3b:fd:52:8e:f2:05:4d:23:0b:
                    26:99:1e:ad:5c:6f:c4:87:c5:45:84:be:a6:55:6a:
                    08:36:82:f9:79:a1:b1:d0:08:10:1b:30:2c:67:c5:
                    ef:3f
                Exponent: 65537 (0x10001)
        X509v3 extensions:
            X509v3 Extended Key Usage: 
                TLS Web Client Authentication, TLS Web Server Authentication
            X509v3 Authority Key Identifier: 
                keyid:01:02:03

            Authority Information Access: 
                OCSP - URI:http://theca.net/ocsp
                CA Issuers - URI:http://theca.net/totallythecert.crt

            X509v3 Certificate Policies: 
                Policy: 2.23.140.1.2.2

            X509v3 Subject Key Identifier: 
                04:03:02:01
            X509v3 Subject Alternative Name: 
                DNS:*.gov.us, DNS:gov.us
            X509v3 Key Usage: 
                Digital Signature, Certificate Sign, CRL Sign
    Signature Algorithm: sha256WithRSAEncryption
         11:7f:79:91:1e:94:d7:cc:0b:b8:53:b7:fd:00:ca:c6:0e:1f:
         68:2b:0d:a1:6e:e7:fa:a3:22:4b:50:29:5c:8a:bb:af:fb:44:
         6c:e9:10:eb:88:91:e8:0f:96:50:87:36:39:69:79:0c:be:09:
         94:bb:94:6c:1f:c5:ba:7f:5c:60:ef:8a:32:8b:bd:d8:11:1c:
         9f:ea:db:ea:c8:89:d9:1f:cf:7e:d0:fc:19:5b:8a:b0:e1:92:
         15:b0:17:5e:8a:5e:c1:a2:58:2f:6c:43:97:a8:af:9b:a2:96:
         e4:4c:74:a8:a0:9e:39:96:d2:10:f5:19:46:57:20:32:4e:a2:
         6d:5a:dc:6d:7c:0b:f7:a1:1c:54:6d:59:c3:5d:aa:1d:9f:f4:
         0c:30:b6:a6:a9:73:5d:fe:a4:5b:ab:ed:fc:ec:7c:f7:06:6a:
         5c:a2:2e:f5:e0:c3:f3:54:98:77:85:88:95:e2:97:c5:e7:35:
         e0:9d:06:83:85:b4:b8:7f:9a:ea:92:9e:43:ec:43:a2:f7:98:
         29:4a:76:ce:3e:26:ed:92:ce:c1:60:00:be:19:ca:89:57:1b:
         54:03:c8:30:48:cf:e2:20:df:78:32:e1:6f:6d:ff:43:cb:9d:
         94:76:d2:19:67:09:ac:06:33:84:59:8a:34:a3:29:e1:b4:b0:
         26:80:de:cc
-----BEGIN CERTIFICATE-----
MIIEUDCCAzigAwIBAgIFBDFmk+0wDQYJKoZIhvcNAQELBQAwUjELMAkGA1UEBhMC
VVMxFjAUBgNVBAoTDU1vdGhlciBOYXR1cmUxEzARBgNVBAsTCkV2ZXJ5dGhpbmcx
FjAUBgNVBAMTDU1vdGhlciBOYXR1cmUwHhcNMTYwNjMwMjMwMDU5WhcNMTYwOTEx
MjMwMDU5WjCBmTELMAkGA1UEBhMCVVMxCzAJBgNVBAgTAkZMMRQwEgYDVQQHEwtU
YWxsYWhhc3NlZTEcMBoGA1UECRMTMzIxMCBIb2xseSBNaWxsIFJ1bjEOMAwGA1UE
ERMFMzAwNjIxGDAWBgNVBAoTD0V4dHJlbWUgRGlzY29yZDEOMAwGA1UECxMFQ2hh
b3MxDzANBgNVBAMTBmdvdi51czCCASIwDQYJKoZIhvcNAQEBBQADggEPADCCAQoC
ggEBAN0/nnj4dt//l2Xb0nTssLhnFa4uVm/f/HQ2bdesg4hljsCsnkEgU+0B7U7o
P+qY5AwcY9c0xdJ5rQ6whQSPrTQZZjWXHKhDDj+7Lkd45cNYWdhlejNmNUdIQ+As
BX/GsYMV2g339UZxsNzSmJqvAhnNs3lEcoX2hYVWsRAilutFmR3WQcxg7ccRj3H8
IBH8An4XgU2Q8MMmSIlnkV8AJLlZIYck6MYMPkEuK5Q6j+Noo2HqabFR6ISANmaE
bY0vbiluVDISzaWJgnNILQmyg3fdsBoPZ+7VO/1SjvIFTSMLJpkerVxvxIfFRYS+
plVqCDaC+XmhsdAIEBswLGfF7z8CAwEAAaOB5DCB4TAdBgNVHSUEFjAUBggrBgEF
BQcDAgYIKwYBBQUHAwEwDgYDVR0jBAcwBYADAQIDMGIGCCsGAQUFBwEBBFYwVDAh
BggrBgEFBQcwAYYVaHR0cDovL3RoZWNhLm5ldC9vY3NwMC8GCCsGAQUFBzAChiNo
dHRwOi8vdGhlY2EubmV0L3RvdGFsbHl0aGVjZXJ0LmNydDATBgNVHSAEDDAKMAgG
BmeBDAECAjANBgNVHQ4EBgQEBAMCATAbBgNVHREEFDASgggqLmdvdi51c4IGZ292
LnVzMAsGA1UdDwQEAwIBhjANBgkqhkiG9w0BAQsFAAOCAQEAEX95kR6U18wLuFO3
/QDKxg4faCsNoW7n+qMiS1ApXIq7r/tEbOkQ64iR6A+WUIc2OWl5DL4JlLuUbB/F
un9cYO+KMou92BEcn+rb6siJ2R/PftD8GVuKsOGSFbAXXopewaJYL2xDl6ivm6KW
5Ex0qKCeOZbSEPUZRlcgMk6ibVrcbXwL96EcVG1Zw12qHZ/0DDC2pqlzXf6kW6vt
/Ox89wZqXKIu9eDD81SYd4WIleKXxec14J0Gg4W0uH+a6pKeQ+xDoveYKUp2zj4m
7ZLOwWAAvhnKiVcbVAPIMEjP4iDfeDLhb23/Q8udlHbSGWcJrAYzhFmKNKMp4bSw
JoDezA==
-----END CERTIFICATE-----
