Certificate:
    Data:
        Version: 3 (0x2)
        Serial Number: 18008675309 (0x4316693ed)
    Signature Algorithm: sha256WithRSAEncryption
        Issuer: C=US, O=Mother Nature, OU=Everything, CN=Mother Nature
        Validity
            Not Before: Aug 23 21:58:08 2017 GMT
            Not After : Nov  4 21:58:08 2017 GMT
        Subject: C=US, ST=FL, L=Tallahassee/street=3210 Holly Mill Run/postalCode=30062, O=Extreme Discord, OU=Chaos, CN=gov.us
        Subject Public Key Info:
            Public Key Algorithm: rsaEncryption
                Public-Key: (2048 bit)
                Modulus:
                    00:eb:49:a6:f9:ef:43:5b:f7:60:ae:09:e5:9e:46:
                    0d:e0:8c:7b:bb:9c:5f:01:32:07:14:0e:4d:b7:86:
                    72:27:09:98:fb:5a:f3:91:50:e6:0e:96:c5:42:a8:
                    19:69:43:98:a4:3a:ef:f9:22:5f:59:02:45:1d:54:
                    c3:a9:49:ce:d7:15:52:b0:c1:1f:25:d0:ea:cd:93:
                    0c:8a:0e:d9:34:c2:ae:eb:c4:35:f2:ec:a0:69:7f:
                    b6:a3:86:13:c6:2d:fa:f9:bb:cd:c8:39:95:f4:02:
                    f7:dd:2e:c7:e2:6c:2b:a6:07:06:03:85:0d:ea:3c:
                    ad:b2:59:81:ed:4a:7e:94:55:47:1a:82:97:0f:a0:
                    5a:c6:8f:04:de:4e:d4:75:a3:1b:35:29:64:2b:1d:
                    ec:8e:74:89:9e:f5:5f:9e:ac:16:2c:33:3d:75:86:
                    b4:a2:64:86:4c:75:53:93:2c:56:cd:83:f7:63:92:
                    2e:94:7a:38:78:fc:0c:3d:2e:ab:cc:35:07:4e:b7:
                    d2:43:67:e0:60:fd:d3:b7:24:08:c1:dd:17:a4:10:
                    c0:95:ae:6f:ce:8b:9e:51:d4:6a:c7:5a:4f:b0:31:
                    d5:dc:09:ca:41:2e:99:78:fd:20:56:48:88:97:75:
                    1c:a0:ac:44:e3:ba:d9:ce:a9:91:33:35:a0:0f:95:
                    28:7b
                Exponent: 65537 (0x10001)
        X509v3 extensions:
            X509v3 Key Usage: critical
                Digital Signature, Key Encipherment
            X509v3 Extended Key Usage: 
                TLS Web Client Authentication, TLS Web Server Authentication
            X509v3 Basic Constraints: critical
                CA:TRUE
            X509v3 Authority Key Identifier: 
                keyid:01:02:03

            X509v3 Certificate Policies: 
                Policy: 2.23.140.1.2.2

            Authority Information Access: critical
                OCSP - URI:http://ss.symcd.com
                CA Issuers - URI:http://ss.symcb.com/ss.crt

    Signature Algorithm: sha256WithRSAEncryption
         3b:f9:80:f7:12:47:6d:1b:03:38:78:f1:73:d1:55:46:67:c8:
         1d:91:76:fd:64:32:0f:3a:88:f0:d4:82:e6:48:fe:21:7a:0b:
         73:3f:47:88:b8:01:4a:a4:00:9a:ee:e1:97:29:28:2b:bb:31:
         c3:ff:5f:aa:75:d3:36:88:22:27:6f:6c:5c:a8:96:d2:1f:b3:
         52:1c:01:39:db:95:85:f2:31:f1:bb:dc:22:60:c2:f0:c1:f7:
         0c:5b:46:0b:8a:ef:5d:24:9b:7c:eb:24:a0:83:e6:bc:8a:35:
         82:59:d8:f2:01:cf:ba:a1:19:98:73:75:ec:27:02:d2:bc:78:
         a5:5b:87:93:bb:65:c3:55:84:d6:c5:a4:94:50:e7:02:c0:8c:
         7b:72:0c:61:c5:1c:92:3b:c6:8a:7c:91:94:d5:2c:a8:d6:78:
         c4:c5:4d:b8:73:9f:92:49:c2:38:08:9e:bc:8b:37:c2:9f:90:
         4d:ef:13:dc:2a:ae:fa:dc:4c:48:fb:9e:c4:d9:ea:e8:8f:9e:
         1c:a5:91:a1:0e:02:fb:6e:2f:4c:72:48:05:ad:f9:75:7a:17:
         41:52:1c:de:9d:c0:0a:70:96:d1:c8:99:ad:27:4d:36:6a:e3:
         38:7d:21:30:79:9f:fb:79:67:07:d3:9a:dc:5e:09:34:70:dc:
         86:0d:9a:d2
-----BEGIN CERTIFICATE-----
MIIEMDCCAxigAwIBAgIFBDFmk+0wDQYJKoZIhvcNAQELBQAwUjELMAkGA1UEBhMC
VVMxFjAUBgNVBAoTDU1vdGhlciBOYXR1cmUxEzARBgNVBAsTCkV2ZXJ5dGhpbmcx
FjAUBgNVBAMTDU1vdGhlciBOYXR1cmUwHhcNMTcwODIzMjE1ODA4WhcNMTcxMTA0
MjE1ODA4WjCBmTELMAkGA1UEBhMCVVMxCzAJBgNVBAgTAkZMMRQwEgYDVQQHEwtU
YWxsYWhhc3NlZTEcMBoGA1UECRMTMzIxMCBIb2xseSBNaWxsIFJ1bjEOMAwGA1UE
ERMFMzAwNjIxGDAWBgNVBAoTD0V4dHJlbWUgRGlzY29yZDEOMAwGA1UECxMFQ2hh
b3MxDzANBgNVBAMTBmdvdi51czCCASIwDQYJKoZIhvcNAQEBBQADggEPADCCAQoC
ggEBAOtJpvnvQ1v3YK4J5Z5GDeCMe7ucXwEyBxQOTbeGcicJmPta85FQ5g6WxUKo
GWlDmKQ67/kiX1kCRR1Uw6lJztcVUrDBHyXQ6s2TDIoO2TTCruvENfLsoGl/tqOG
E8Yt+vm7zcg5lfQC990ux+JsK6YHBgOFDeo8rbJZge1KfpRVRxqClw+gWsaPBN5O
1HWjGzUpZCsd7I50iZ71X56sFiwzPXWGtKJkhkx1U5MsVs2D92OSLpR6OHj8DD0u
q8w1B0630kNn4GD907ckCMHdF6QQwJWub86LnlHUasdaT7Ax1dwJykEumXj9IFZI
iJd1HKCsROO62c6pkTM1oA+VKHsCAwEAAaOBxDCBwTAOBgNVHQ8BAf8EBAMCBaAw
HQYDVR0lBBYwFAYIKwYBBQUHAwIGCCsGAQUFBwMBMA8GA1UdEwEB/wQFMAMBAf8w
DgYDVR0jBAcwBYADAQIDMBMGA1UdIAQMMAowCAYGZ4EMAQICMFoGCCsGAQUFBwEB
AQH/BEswSTAfBggrBgEFBQcwAYYTaHR0cDovL3NzLnN5bWNkLmNvbTAmBggrBgEF
BQcwAoYaaHR0cDovL3NzLnN5bWNiLmNvbS9zcy5jcnQwDQYJKoZIhvcNAQELBQAD
ggEBADv5gPcSR20bAzh48XPRVUZnyB2Rdv1kMg86iPDUguZI/iF6C3M/R4i4AUqk
AJru4ZcpKCu7McP/X6p10zaIIidvbFyoltIfs1IcATnblYXyMfG73CJgwvDB9wxb
RguK710km3zrJKCD5ryKNYJZ2PIBz7qhGZhzdewnAtK8eKVbh5O7ZcNVhNbFpJRQ
5wLAjHtyDGHFHJI7xop8kZTVLKjWeMTFTbhzn5JJwjgInryLN8KfkE3vE9wqrvrc
TEj7nsTZ6uiPnhylkaEOAvtuL0xySAWt+XV6F0FSHN6dwApwltHIma0nTTZq4zh9
ITB5n/t5ZwfTmtxeCTRw3IYNmtI=
-----END CERTIFICATE-----
