Certificate:
    Data:
        Version: 3 (0x2)
        Serial Number: 18008675309 (0x4316693ed)
    Signature Algorithm: sha256WithRSAEncryption
        Issuer: C = US, O = Mother Nature, OU = Everything, CN = Mother Nature
        Validity
            Not Before: Jun 29 15:49:40 2016 GMT
            Not After : Sep 10 15:49:40 2016 GMT
        Subject: C = YQ, ST = FL, L = Tallahassee, street = 3210 Holly Mill Run, postalCode = 30062, O = Extreme Discord, OU = Chaos, CN = gov.us
        Subject Public Key Info:
            Public Key Algorithm: rsaEncryption
                Public-Key: (2048 bit)
                Modulus:
                    00:b6:7c:ac:83:61:bc:5c:98:27:ea:02:70:23:dc:
                    3f:62:07:2d:44:5e:0d:74:a5:78:4c:5a:62:a8:af:
                    9e:e4:9e:55:b7:ce:3a:73:44:8e:4e:88:e3:1d:2e:
                    28:49:70:34:6c:b2:fc:6a:06:46:e6:81:cd:ea:dc:
                    c2:8d:84:7a:30:df:27:0b:6f:3a:f3:f2:5f:c6:ad:
                    de:91:59:ae:70:d4:fd:00:85:dc:d1:aa:7e:3f:a0:
                    71:52:8a:13:08:9d:1b:6f:65:a0:af:15:b6:03:62:
                    0e:d6:59:c4:5d:4d:0b:4d:15:29:ce:e4:68:96:5a:
                    5f:4d:62:a4:04:f3:8d:e0:a0:62:ee:ff:98:44:84:
                    47:e2:8f:bc:97:68:02:60:c0:73:a7:55:fe:3b:9a:
                    39:d5:34:b6:b0:9d:2a:4a:4e:69:bd:a8:0a:4f:d5:
                    a6:75:86:f8:62:1f:f0:eb:a0:83:14:c4:25:f8:41:
                    4c:30:e0:89:c5:f0:7a:20:8d:cf:5b:48:d0:1b:aa:
                    2a:f9:a9:43:43:0a:56:f1:fd:79:19:d0:7e:b1:a8:
                    b2:f2:8a:2f:ca:e9:e6:68:eb:d4:8c:9f:02:26:0d:
                    fa:39:b2:ec:31:49:1f:49:73:3c:e9:53:3d:d2:54:
                    34:ab:9e:7b:08:70:2b:69:a0:59:09:72:f8:d8:48:
                    af:3d
                Exponent: 65537 (0x10001)
        X509v3 extensions:
            X509v3 Key Usage: critical
                Digital Signature, Key Encipherment
            X509v3 Extended Key Usage: 
                TLS Web Client Authentication, TLS Web Server Authentication
            X509v3 Basic Constraints: critical
                CA:TRUE
            X509v3 Authority Key Identifier: 
                keyid:01:02:03

            Authority Information Access: 
                OCSP - URI:http://theca.net/ocsp
                CA Issuers - URI:http://theca.net/totallythecert.crt

            X509v3 Certificate Policies: 
                Policy: 2.23.140.1.2.2

            X509v3 Subject Key Identifier: 
                04:03:02:01
            X509v3 Subject Alternative Name: 
                DNS:*.gov.us, DNS:gov.us
    Signature Algorithm: sha256WithRSAEncryption
         8d:6b:3c:f3:79:32:79:66:65:af:05:57:b8:35:7c:80:9f:ed:
         2f:c0:09:94:d7:54:cf:40:17:90:03:a8:60:33:ed:f5:f7:f0:
         ff:9e:47:ea:e7:d9:b4:97:6f:b3:81:29:c0:14:2e:27:83:77:
         1c:98:ba:09:25:66:0a:51:05:88:42:62:07:ce:f2:80:da:b3:
         9a:50:11:6f:dc:fb:99:72:54:88:a3:08:26:81:f2:f2:97:67:
         7a:44:ba:90:a0:d1:fe:53:13:d8:24:08:13:5d:2b:45:3a:d2:
         6a:02:fa:45:21:a2:c2:cc:8d:1b:3f:7d:05:ab:82:92:4f:29:
         17:96:73:a6:9d:ed:32:a9:14:1d:1e:73:93:af:59:bf:c9:80:
         ae:38:23:31:82:77:04:6d:14:d5:64:47:aa:5d:85:f9:cd:12:
         a4:ca:62:66:a3:d0:54:e5:c9:d0:3e:b7:e0:48:93:c3:74:96:
         5c:f2:15:4f:40:00:06:a9:1a:31:6d:e4:bc:ef:b9:8a:78:ab:
         fc:c2:da:53:84:56:73:8f:9f:7c:e1:8e:ae:7f:05:88:bb:ea:
         ea:2b:04:ba:46:8a:22:4f:de:ce:fe:ad:ac:61:d3:1e:ad:1d:
         10:88:f8:ec:8d:37:05:ca:fb:5f:34:dd:0d:30:2e:60:90:11:
         a0:3e:ef:fc
-----BEGIN CERTIFICATE-----
MIIEZDCCA0ygAwIBAgIFBDFmk+0wDQYJKoZIhvcNAQELBQAwUjELMAkGA1UEBhMC
VVMxFjAUBgNVBAoTDU1vdGhlciBOYXR1cmUxEzARBgNVBAsTCkV2ZXJ5dGhpbmcx
FjAUBgNVBAMTDU1vdGhlciBOYXR1cmUwHhcNMTYwNjI5MTU0OTQwWhcNMTYwOTEw
MTU0OTQwWjCBmTELMAkGA1UEBhMCWVExCzAJBgNVBAgTAkZMMRQwEgYDVQQHEwtU
YWxsYWhhc3NlZTEcMBoGA1UECRMTMzIxMCBIb2xseSBNaWxsIFJ1bjEOMAwGA1UE
ERMFMzAwNjIxGDAWBgNVBAoTD0V4dHJlbWUgRGlzY29yZDEOMAwGA1UECxMFQ2hh
b3MxDzANBgNVBAMTBmdvdi51czCCASIwDQYJKoZIhvcNAQEBBQADggEPADCCAQoC
ggEBALZ8rINhvFyYJ+oCcCPcP2IHLUReDXSleExaYqivnuSeVbfOOnNEjk6I4x0u
KElwNGyy/GoGRuaBzercwo2EejDfJwtvOvPyX8at3pFZrnDU/QCF3NGqfj+gcVKK
EwidG29loK8VtgNiDtZZxF1NC00VKc7kaJZaX01ipATzjeCgYu7/mESER+KPvJdo
AmDAc6dV/juaOdU0trCdKkpOab2oCk/VpnWG+GIf8OuggxTEJfhBTDDgicXweiCN
z1tI0BuqKvmpQ0MKVvH9eRnQfrGosvKKL8rp5mjr1IyfAiYN+jmy7DFJH0lzPOlT
PdJUNKueewhwK2mgWQly+NhIrz0CAwEAAaOB+DCB9TAOBgNVHQ8BAf8EBAMCBaAw
HQYDVR0lBBYwFAYIKwYBBQUHAwIGCCsGAQUFBwMBMA8GA1UdEwEB/wQFMAMBAf8w
DgYDVR0jBAcwBYADAQIDMGIGCCsGAQUFBwEBBFYwVDAhBggrBgEFBQcwAYYVaHR0
cDovL3RoZWNhLm5ldC9vY3NwMC8GCCsGAQUFBzAChiNodHRwOi8vdGhlY2EubmV0
L3RvdGFsbHl0aGVjZXJ0LmNydDATBgNVHSAEDDAKMAgGBmeBDAECAjANBgNVHQ4E
BgQEBAMCATAbBgNVHREEFDASgggqLmdvdi51c4IGZ292LnVzMA0GCSqGSIb3DQEB
CwUAA4IBAQCNazzzeTJ5ZmWvBVe4NXyAn+0vwAmU11TPQBeQA6hgM+319/D/nkfq
59m0l2+zgSnAFC4ng3ccmLoJJWYKUQWIQmIHzvKA2rOaUBFv3PuZclSIowgmgfLy
l2d6RLqQoNH+UxPYJAgTXStFOtJqAvpFIaLCzI0bP30Fq4KSTykXlnOmne0yqRQd
HnOTr1m/yYCuOCMxgncEbRTVZEeqXYX5zRKkymJmo9BU5cnQPrfgSJPDdJZc8hVP
QAAGqRoxbeS877mKeKv8wtpThFZzj5984Y6ufwWIu+rqKwS6RooiT97O/q2sYdMe
rR0QiPjsjTcFyvtfNN0NMC5gkBGgPu/8
-----END CERTIFICATE-----
