Certificate:
    Data:
        Version: 3 (0x2)
        Serial Number: 14615016 (0xdf01e8)
    Signature Algorithm: sha256WithRSAEncryption
        Issuer: C = US, O = Mother Nature, OU = Everything, CN = Mother Nature
        Validity
            Not Before: Aug  5 15:17:27 2016 GMT
            Not After : Oct 17 15:17:27 2016 GMT
        Subject: C = US, ST = FL, L = Tallahassee, street = 3210 Holly Mill Run, postalCode = 30062, O = Extreme Discord, OU = Chaos, CN = gov.us
        Subject Public Key Info:
            Public Key Algorithm: rsaEncryption
                Public-Key: (2048 bit)
                Modulus:
                    00:bc:ed:53:40:fd:74:33:d5:4b:1c:1c:45:31:2a:
                    8b:84:d5:6c:30:69:d4:2b:eb:6f:bd:56:c9:b3:10:
                    96:22:1e:ae:b5:9f:f7:fd:55:fe:85:0f:59:89:7d:
                    84:5a:e5:1a:e0:38:a7:7e:e0:5e:02:a8:9a:bd:86:
                    dd:93:9b:a7:73:c6:da:e6:c9:d7:70:41:88:76:f2:
                    fe:50:9e:ea:f8:3c:55:ff:7d:77:91:d3:e4:ea:9c:
                    4f:2e:d9:8b:ec:f0:07:3b:25:26:9d:92:35:af:14:
                    28:92:38:11:59:10:5a:f1:38:7a:c9:45:94:81:12:
                    07:84:1e:c2:e3:44:07:a6:a5:f0:b0:03:4e:6f:c3:
                    96:fb:72:61:ad:98:bf:73:18:da:14:3d:d2:4d:eb:
                    81:cd:39:5b:5a:ab:ac:95:f9:65:2c:2e:97:10:dc:
                    dc:0c:6d:2e:e6:c1:24:7d:12:d3:e7:05:15:78:a5:
                    90:83:c8:8e:12:b5:0b:66:d9:3f:7e:4f:9f:8c:07:
                    ed:37:bf:ce:91:f4:de:44:1c:e4:c4:cc:ae:db:cb:
                    c9:4c:6d:8b:82:10:3e:f8:cf:cf:2b:e5:ca:83:ee:
                    64:16:e8:28:85:26:d5:e3:3d:58:e8:fd:24:d5:4a:
                    e5:23:17:d2:05:e4:ea:63:7b:3c:6d:ef:2e:ef:5f:
                    07:e1
                Exponent: 65537 (0x10001)
        X509v3 extensions:
            X509v3 Basic Constraints: critical
                CA:FALSE
            X509v3 Authority Key Identifier: 
                keyid:01:02:03

            Authority Information Access: 
                OCSP - URI:http://theca.net/ocsp
                CA Issuers - URI:theca.net/totallythecert.crt

            X509v3 CRL Distribution Points: 

                Full Name:
                  URI:ldap://theca.net/crlpoint

            X509v3 Subject Key Identifier: 
                04:03:02:01
            X509v3 Subject Alternative Name: 
                DNS:*.gov.us, DNS:gov.us
            X509v3 Key Usage: 
                Data Encipherment, Key Agreement
            X509v3 Extended Key Usage: 
                TLS Web Server Authentication, 1.2.840.113635.100.4.3, Signing KDC Response, Any Extended Key Usage
            X509v3 Certificate Policies: 
                Policy: 2.16.840.1.114414.1.7.23.1
                  CPS: http://certificates.starfieldtech.com/repository/

    Signature Algorithm: sha256WithRSAEncryption
         95:47:b1:77:0c:c2:67:aa:d2:ca:cd:55:ab:be:10:5e:e6:55:
         d8:34:ed:99:28:3e:55:91:dd:41:7a:2e:77:ca:7f:51:63:71:
         b5:ef:61:ed:b4:3e:88:a6:94:7d:f9:9f:54:b3:1b:38:eb:79:
         61:f0:04:a5:2c:0b:41:6e:5d:ef:bd:4a:27:af:b5:c7:62:2b:
         e6:80:2b:39:a3:40:21:b9:43:51:c9:92:21:7a:25:fd:66:bd:
         9d:66:c1:8f:99:a9:e9:c4:7b:5b:04:2d:55:b3:42:6b:cd:bb:
         dd:5d:49:f0:2e:d7:bb:0a:60:e9:4a:0e:a9:62:ff:9f:b2:28:
         b4:b2:81:2f:8f:33:60:16:4d:b7:59:54:5a:e1:57:08:4e:f3:
         eb:b4:0b:84:14:7a:a5:4d:eb:c5:15:22:ef:04:33:44:a0:62:
         a6:9d:a6:23:48:92:88:60:4f:9c:a7:f4:74:93:bd:32:06:f7:
         2c:6a:7b:7d:46:8f:e8:91:1f:54:51:79:d8:02:db:c1:b1:c7:
         2c:c7:17:32:d1:a2:1e:55:99:3d:67:02:55:06:c3:f5:01:b4:
         ec:1c:8f:5d:eb:05:1f:96:8a:e6:cd:29:35:2a:b7:9a:ee:ab:
         c9:16:83:c3:68:f7:2f:bd:d3:83:c8:59:c2:52:87:e3:c9:40:
         97:51:a1:9a
-----BEGIN CERTIFICATE-----
MIIE2jCCA8KgAwIBAgIEAN8B6DANBgkqhkiG9w0BAQsFADBSMQswCQYDVQQGEwJV
UzEWMBQGA1UEChMNTW90aGVyIE5hdHVyZTETMBEGA1UECxMKRXZlcnl0aGluZzEW
MBQGA1UEAxMNTW90aGVyIE5hdHVyZTAeFw0xNjA4MDUxNTE3MjdaFw0xNjEwMTcx
NTE3MjdaMIGZMQswCQYDVQQGEwJVUzELMAkGA1UECBMCRkwxFDASBgNVBAcTC1Rh
bGxhaGFzc2VlMRwwGgYDVQQJExMzMjEwIEhvbGx5IE1pbGwgUnVuMQ4wDAYDVQQR
EwUzMDA2MjEYMBYGA1UEChMPRXh0cmVtZSBEaXNjb3JkMQ4wDAYDVQQLEwVDaGFv
czEPMA0GA1UEAxMGZ292LnVzMIIBIjANBgkqhkiG9w0BAQEFAAOCAQ8AMIIBCgKC
AQEAvO1TQP10M9VLHBxFMSqLhNVsMGnUK+tvvVbJsxCWIh6utZ/3/VX+hQ9ZiX2E
WuUa4DinfuBeAqiavYbdk5unc8ba5snXcEGIdvL+UJ7q+DxV/313kdPk6pxPLtmL
7PAHOyUmnZI1rxQokjgRWRBa8Th6yUWUgRIHhB7C40QHpqXwsANOb8OW+3JhrZi/
cxjaFD3STeuBzTlbWquslfllLC6XENzcDG0u5sEkfRLT5wUVeKWQg8iOErULZtk/
fk+fjAftN7/OkfTeRBzkxMyu28vJTG2LghA++M/PK+XKg+5kFugohSbV4z1Y6P0k
1UrlIxfSBeTqY3s8be8u718H4QIDAQABo4IBbjCCAWowDAYDVR0TAQH/BAIwADAO
BgNVHSMEBzAFgAMBAgMwWwYIKwYBBQUHAQEETzBNMCEGCCsGAQUFBzABhhVodHRw
Oi8vdGhlY2EubmV0L29jc3AwKAYIKwYBBQUHMAKGHHRoZWNhLm5ldC90b3RhbGx5
dGhlY2VydC5jcnQwKgYDVR0fBCMwITAfoB2gG4YZbGRhcDovL3RoZWNhLm5ldC9j
cmxwb2ludDANBgNVHQ4EBgQEBAMCATAbBgNVHREEFDASgggqLmdvdi51c4IGZ292
LnVzMAsGA1UdDwQEAwIBGDAtBgNVHSUEJjAkBggrBgEFBQcDAQYJKoZIhvdjZAQD
BgcrBgEFAgMFBgRVHSUAMFkGA1UdIARSMFAwTgYLYIZIAYb9bgEHFwEwPzA9Bggr
BgEFBQcCARYxaHR0cDovL2NlcnRpZmljYXRlcy5zdGFyZmllbGR0ZWNoLmNvbS9y
ZXBvc2l0b3J5LzANBgkqhkiG9w0BAQsFAAOCAQEAlUexdwzCZ6rSys1Vq74QXuZV
2DTtmSg+VZHdQXoud8p/UWNxte9h7bQ+iKaUffmfVLMbOOt5YfAEpSwLQW5d771K
J6+1x2Ir5oArOaNAIblDUcmSIXol/Wa9nWbBj5mp6cR7WwQtVbNCa8273V1J8C7X
uwpg6UoOqWL/n7IotLKBL48zYBZNt1lUWuFXCE7z67QLhBR6pU3rxRUi7wQzRKBi
pp2mI0iSiGBPnKf0dJO9Mgb3LGp7fUaP6JEfVFF52ALbwbHHLMcXMtGiHlWZPWcC
VQbD9QG07ByPXesFH5aK5s0pNSq3mu6ryRaDw2j3L73Tg8hZwlKH48lAl1Ghmg==
-----END CERTIFICATE-----
