Certificate:
    Data:
        Version: 3 (0x2)
        Serial Number: 14615016 (0xdf01e8)
    Signature Algorithm: sha256WithRSAEncryption
        Issuer: C = US, O = Mother Nature, OU = Everything, CN = Mother Nature
        Validity
            Not Before: Aug  5 15:16:40 2016 GMT
            Not After : Oct 17 15:16:40 2016 GMT
        Subject: C = US, ST = FL, L = Tallahassee, street = 3210 Holly Mill Run, postalCode = 30062, O = Extreme Discord, OU = Chaos, CN = gov.us
        Subject Public Key Info:
            Public Key Algorithm: rsaEncryption
                Public-Key: (2048 bit)
                Modulus:
                    00:e2:28:8e:b9:cb:73:9b:71:50:72:35:30:a8:2a:
                    cf:37:a2:5b:66:06:04:aa:0c:4c:bc:ab:ce:ed:84:
                    d0:21:4a:ec:c6:9a:ed:32:e5:d9:ac:db:52:8c:de:
                    6d:60:13:92:d5:58:07:da:59:ac:59:1e:b6:13:b1:
                    24:16:74:c8:7c:a5:e8:8b:a1:70:63:e9:5b:89:3a:
                    3b:30:18:e3:6e:79:19:5a:c1:2a:49:81:ea:a6:0d:
                    21:22:e4:43:e1:df:59:b3:34:50:24:b5:3b:ad:92:
                    00:02:b0:31:e2:e9:5f:92:e9:c2:56:5c:1a:5b:3b:
                    76:d1:5d:ea:76:ff:a3:ab:cd:ae:01:f0:15:7d:18:
                    29:aa:78:56:8b:1b:2b:5a:0e:38:ec:9a:46:9f:83:
                    a5:e7:6f:84:b0:46:af:89:12:0c:ce:74:77:21:d9:
                    8e:67:7b:cd:24:38:12:03:6f:05:7f:f0:c1:f6:4b:
                    ec:07:d2:8a:25:ff:31:7b:5e:d9:e1:3a:03:e1:e2:
                    10:47:70:dc:81:37:fe:56:ae:09:24:b8:91:a4:14:
                    53:76:73:05:46:b8:0c:b8:86:ea:63:fb:e8:7d:29:
                    ba:f1:f4:af:41:7a:45:e3:3a:03:29:6b:c9:4c:6a:
                    2d:95:e6:f4:15:28:5b:39:c9:a4:19:b5:74:eb:29:
                    44:09
                Exponent: 65537 (0x10001)
        X509v3 extensions:
            X509v3 Basic Constraints: critical
                CA:FALSE
            X509v3 Authority Key Identifier: 
                keyid:01:02:03

            Authority Information Access: 
                OCSP - URI:http://theca.net/ocsp
                CA Issuers - URI:http://theca.net/totallythecert.crt

            X509v3 CRL Distribution Points: 

                Full Name:
                  URI:ldap://theca.net/crlpoint

            X509v3 Subject Key Identifier: 
                04:03:02:01
            X509v3 Subject Alternative Name: 
                DNS:*.gov.us, DNS:gov.us
            X509v3 Key Usage: 
                Data Encipherment, Key Agreement
            X509v3 Extended Key Usage: 
                TLS Web Server Authentication, 1.2.840.113635.100.4.3, Signing KDC Response, Any Extended Key Usage
            X509v3 Certificate Policies: 
                Policy: 2.16.840.1.114414.1.7.23.1
                  CPS: http://certificates.starfieldtech.com/repository/

    Signature Algorithm: sha256WithRSAEncryption
         52:26:7f:76:c1:8f:ad:c4:58:ec:7e:35:f8:d7:bb:ab:4e:cd:
         10:dd:54:8c:0f:ee:8e:d3:07:07:4c:c0:64:a0:3f:06:fa:a2:
         bb:41:57:8a:c1:3f:64:0b:1a:01:a2:ec:91:92:25:33:ca:fc:
         a6:7b:87:6b:8e:0b:8e:0d:0f:7c:e6:99:b7:69:c3:60:79:7d:
         f4:f3:9d:17:c5:2e:fd:70:9a:6e:a5:cf:cb:67:65:ec:2c:82:
         a4:86:5a:2b:68:18:1e:77:69:8b:98:60:53:7f:18:64:c3:3c:
         2e:dd:41:a2:b4:ff:1d:1f:0e:15:bc:8a:34:85:f3:3f:d0:34:
         ef:bd:be:4c:19:1c:92:03:4d:bc:8a:0a:58:13:fc:99:68:7b:
         a5:30:d1:62:67:dd:96:15:4c:ce:12:02:0b:b8:66:98:46:26:
         04:99:9a:d2:eb:44:38:ec:0a:62:15:2b:63:0f:3b:7e:fd:5b:
         8b:e0:72:ff:10:82:28:4f:39:63:b3:36:90:a5:9d:11:a9:31:
         07:86:96:ac:d0:27:a8:a2:da:a7:67:f4:d6:39:0f:1b:e2:9d:
         88:b0:18:51:8d:5f:20:39:cb:ce:4d:5c:b0:5c:b0:0d:e2:ed:
         50:05:46:1e:d0:15:4f:50:37:a4:ee:c5:da:c1:29:a8:3a:c3:
         48:b5:93:21
-----BEGIN CERTIFICATE-----
MIIE4TCCA8mgAwIBAgIEAN8B6DANBgkqhkiG9w0BAQsFADBSMQswCQYDVQQGEwJV
UzEWMBQGA1UEChMNTW90aGVyIE5hdHVyZTETMBEGA1UECxMKRXZlcnl0aGluZzEW
MBQGA1UEAxMNTW90aGVyIE5hdHVyZTAeFw0xNjA4MDUxNTE2NDBaFw0xNjEwMTcx
NTE2NDBaMIGZMQswCQYDVQQGEwJVUzELMAkGA1UECBMCRkwxFDASBgNVBAcTC1Rh
bGxhaGFzc2VlMRwwGgYDVQQJExMzMjEwIEhvbGx5IE1pbGwgUnVuMQ4wDAYDVQQR
EwUzMDA2MjEYMBYGA1UEChMPRXh0cmVtZSBEaXNjb3JkMQ4wDAYDVQQLEwVDaGFv
czEPMA0GA1UEAxMGZ292LnVzMIIBIjANBgkqhkiG9w0BAQEFAAOCAQ8AMIIBCgKC
AQEA4iiOuctzm3FQcjUwqCrPN6JbZgYEqgxMvKvO7YTQIUrsxprtMuXZrNtSjN5t
YBOS1VgH2lmsWR62E7EkFnTIfKXoi6FwY+lbiTo7MBjjbnkZWsEqSYHqpg0hIuRD
4d9ZszRQJLU7rZIAArAx4ulfkunCVlwaWzt20V3qdv+jq82uAfAVfRgpqnhWixsr
Wg447JpGn4Ol52+EsEaviRIMznR3IdmOZ3vNJDgSA28Ff/DB9kvsB9KKJf8xe17Z
4ToD4eIQR3DcgTf+Vq4JJLiRpBRTdnMFRrgMuIbqY/vofSm68fSvQXpF4zoDKWvJ
TGotleb0FShbOcmkGbV06ylECQIDAQABo4IBdTCCAXEwDAYDVR0TAQH/BAIwADAO
BgNVHSMEBzAFgAMBAgMwYgYIKwYBBQUHAQEEVjBUMCEGCCsGAQUFBzABhhVodHRw
Oi8vdGhlY2EubmV0L29jc3AwLwYIKwYBBQUHMAKGI2h0dHA6Ly90aGVjYS5uZXQv
dG90YWxseXRoZWNlcnQuY3J0MCoGA1UdHwQjMCEwH6AdoBuGGWxkYXA6Ly90aGVj
YS5uZXQvY3JscG9pbnQwDQYDVR0OBAYEBAQDAgEwGwYDVR0RBBQwEoIIKi5nb3Yu
dXOCBmdvdi51czALBgNVHQ8EBAMCARgwLQYDVR0lBCYwJAYIKwYBBQUHAwEGCSqG
SIb3Y2QEAwYHKwYBBQIDBQYEVR0lADBZBgNVHSAEUjBQME4GC2CGSAGG/W4BBxcB
MD8wPQYIKwYBBQUHAgEWMWh0dHA6Ly9jZXJ0aWZpY2F0ZXMuc3RhcmZpZWxkdGVj
aC5jb20vcmVwb3NpdG9yeS8wDQYJKoZIhvcNAQELBQADggEBAFImf3bBj63EWOx+
NfjXu6tOzRDdVIwP7o7TBwdMwGSgPwb6ortBV4rBP2QLGgGi7JGSJTPK/KZ7h2uO
C44ND3zmmbdpw2B5ffTznRfFLv1wmm6lz8tnZewsgqSGWitoGB53aYuYYFN/GGTD
PC7dQaK0/x0fDhW8ijSF8z/QNO+9vkwZHJIDTbyKClgT/Jloe6Uw0WJn3ZYVTM4S
Agu4ZphGJgSZmtLrRDjsCmIVK2MPO379W4vgcv8QgihPOWOzNpClnRGpMQeGlqzQ
J6ii2qdn9NY5DxvinYiwGFGNXyA5y85NXLBcsA3i7VAFRh7QFU9QN6TuxdrBKag6
w0i1kyE=
-----END CERTIFICATE-----
