Certificate:
    Data:
        Version: 3 (0x2)
        Serial Number: 18008675309 (0x4316693ed)
    Signature Algorithm: sha256WithRSAEncryption
        Issuer: C = US, O = Mother Nature, OU = Everything, CN = Mother Nature
        Validity
            Not Before: Jun 30 16:34:07 2016 GMT
            Not After : Sep 11 16:34:07 2016 GMT
        Subject: C = US, ST = FL, L = Tallahassee, street = 3210 Holly Mill Run, postalCode = 30062, O = Extreme Discord, OU = Chaos, CN = gov.us
        Subject Public Key Info:
            Public Key Algorithm: rsaEncryption
                Public-Key: (2048 bit)
                Modulus:
                    00:d6:22:e5:93:3f:0c:4d:b6:4e:2d:e4:9d:5e:2b:
                    31:a2:68:be:f0:4b:d7:92:96:40:58:9d:af:50:66:
                    cd:b9:0a:8d:ed:0b:c2:3f:42:e8:b1:eb:7c:80:ea:
                    6e:91:19:3b:29:ff:b3:bb:12:ed:65:3c:1a:1d:73:
                    1c:84:0b:5a:51:28:40:71:9b:27:97:24:6e:ba:a2:
                    2b:1e:11:7a:2a:27:0e:4a:44:10:5c:2c:ef:f4:1f:
                    43:18:8d:5e:81:d7:9c:85:ac:03:8f:12:9a:fc:a1:
                    bb:d8:b0:67:75:5c:5d:a0:61:73:bd:aa:51:9f:19:
                    5b:24:36:74:e9:4b:fa:04:50:92:fb:1d:90:0b:9b:
                    d7:fd:b5:d8:aa:33:2c:f0:31:a6:47:ba:d0:a9:c3:
                    66:a7:1d:69:a1:54:ce:a8:24:ee:2b:fc:e2:ec:3a:
                    a7:ec:de:1e:8f:36:56:dd:98:82:a1:2a:95:5f:3b:
                    06:ef:90:6c:81:25:a4:11:6d:17:65:8e:d9:1e:a0:
                    74:0b:74:16:11:49:14:36:ec:cc:cc:16:9f:cf:8b:
                    13:76:6a:c2:16:77:f5:5b:39:bc:d4:a8:67:9d:a3:
                    ad:45:f4:c0:43:39:c0:03:0f:cd:1e:64:60:51:0b:
                    3a:68:c0:ab:6b:f0:16:49:40:ff:ea:7a:ca:97:81:
                    85:5f
                Exponent: 65537 (0x10001)
        X509v3 extensions:
            X509v3 Extended Key Usage: 
                TLS Web Client Authentication, TLS Web Server Authentication
            X509v3 Basic Constraints: critical
                CA:TRUE
            X509v3 Authority Key Identifier: 
                keyid:01:02:03

            Authority Information Access: 
                OCSP - URI:http://theca.net/ocsp
                CA Issuers - URI:http://theca.net/totallythecert.crt

            X509v3 Certificate Policies: 
                Policy: 2.23.140.1.2.2

            X509v3 Subject Key Identifier: 
                04:03:02:01
            X509v3 Subject Alternative Name: 
                DNS:*.gov.us, DNS:gov.us
            X509v3 Key Usage: 
                Certificate Sign, CRL Sign
    Signature Algorithm: sha256WithRSAEncryption
         ae:b8:9d:46:7b:d9:e9:c0:cf:66:5d:59:fe:d2:8f:e1:91:73:
         bf:e8:a3:79:36:3e:07:33:ac:a2:a2:fc:33:2b:1a:da:e1:6c:
         ff:c7:3a:1d:1a:eb:aa:c4:2a:b9:78:3a:5f:8c:d5:7b:84:2f:
         98:ac:38:2e:a0:3c:39:1d:1d:83:fb:7e:52:02:2b:54:3b:a2:
         45:bc:57:b2:55:9f:25:b9:98:2f:7a:f8:fa:db:c1:7c:d5:73:
         ca:84:ef:8e:cd:ae:cc:2b:17:8b:25:ba:16:58:7a:f1:0c:b8:
         41:c1:6b:1f:d4:db:05:d9:d7:3a:ac:cc:fc:7b:72:4a:84:e7:
         81:86:96:81:81:cc:17:57:1d:27:e4:05:a7:d1:2e:ce:a2:84:
         df:49:64:29:25:85:3e:00:db:af:5e:77:8f:16:7f:48:18:7b:
         c8:9d:9b:25:2a:d2:10:8a:ff:34:e5:52:78:48:cd:ab:ee:81:
         1f:24:13:cd:4f:b8:c9:f7:aa:2f:29:f8:18:4c:ef:98:5d:13:
         71:90:f2:6f:3c:53:34:09:93:85:1c:77:d6:94:5e:76:22:8d:
         31:49:c6:8e:ed:ad:a3:da:8b:50:bc:b0:38:4b:94:e9:2f:6c:
         84:60:cf:22:19:8e:2a:4b:df:0f:23:01:9d:73:e0:21:3a:c7:
         06:c7:95:12
-----BEGIN CERTIFICATE-----
MIIEYTCCA0mgAwIBAgIFBDFmk+0wDQYJKoZIhvcNAQELBQAwUjELMAkGA1UEBhMC
VVMxFjAUBgNVBAoTDU1vdGhlciBOYXR1cmUxEzARBgNVBAsTCkV2ZXJ5dGhpbmcx
FjAUBgNVBAMTDU1vdGhlciBOYXR1cmUwHhcNMTYwNjMwMTYzNDA3WhcNMTYwOTEx
MTYzNDA3WjCBmTELMAkGA1UEBhMCVVMxCzAJBgNVBAgTAkZMMRQwEgYDVQQHEwtU
YWxsYWhhc3NlZTEcMBoGA1UECRMTMzIxMCBIb2xseSBNaWxsIFJ1bjEOMAwGA1UE
ERMFMzAwNjIxGDAWBgNVBAoTD0V4dHJlbWUgRGlzY29yZDEOMAwGA1UECxMFQ2hh
b3MxDzANBgNVBAMTBmdvdi51czCCASIwDQYJKoZIhvcNAQEBBQADggEPADCCAQoC
ggEBANYi5ZM/DE22Ti3knV4rMaJovvBL15KWQFidr1BmzbkKje0Lwj9C6LHrfIDq
bpEZOyn/s7sS7WU8Gh1zHIQLWlEoQHGbJ5ckbrqiKx4ReionDkpEEFws7/QfQxiN
XoHXnIWsA48Smvyhu9iwZ3VcXaBhc72qUZ8ZWyQ2dOlL+gRQkvsdkAub1/212Koz
LPAxpke60KnDZqcdaaFUzqgk7iv84uw6p+zeHo82Vt2YgqEqlV87Bu+QbIElpBFt
F2WO2R6gdAt0FhFJFDbszMwWn8+LE3ZqwhZ39Vs5vNSoZ52jrUX0wEM5wAMPzR5k
YFELOmjAq2vwFklA/+p6ypeBhV8CAwEAAaOB9TCB8jAdBgNVHSUEFjAUBggrBgEF
BQcDAgYIKwYBBQUHAwEwDwYDVR0TAQH/BAUwAwEB/zAOBgNVHSMEBzAFgAMBAgMw
YgYIKwYBBQUHAQEEVjBUMCEGCCsGAQUFBzABhhVodHRwOi8vdGhlY2EubmV0L29j
c3AwLwYIKwYBBQUHMAKGI2h0dHA6Ly90aGVjYS5uZXQvdG90YWxseXRoZWNlcnQu
Y3J0MBMGA1UdIAQMMAowCAYGZ4EMAQICMA0GA1UdDgQGBAQEAwIBMBsGA1UdEQQU
MBKCCCouZ292LnVzggZnb3YudXMwCwYDVR0PBAQDAgEGMA0GCSqGSIb3DQEBCwUA
A4IBAQCuuJ1Ge9npwM9mXVn+0o/hkXO/6KN5Nj4HM6yiovwzKxra4Wz/xzodGuuq
xCq5eDpfjNV7hC+YrDguoDw5HR2D+35SAitUO6JFvFeyVZ8luZgvevj628F81XPK
hO+Oza7MKxeLJboWWHrxDLhBwWsf1NsF2dc6rMz8e3JKhOeBhpaBgcwXVx0n5AWn
0S7OooTfSWQpJYU+ANuvXnePFn9IGHvInZslKtIQiv805VJ4SM2r7oEfJBPNT7jJ
96ovKfgYTO+YXRNxkPJvPFM0CZOFHHfWlF52Io0xScaO7a2j2otQvLA4S5TpL2yE
YM8iGY4qS98PIwGdc+AhOscGx5US
-----END CERTIFICATE-----
