Certificate:
    Data:
        Version: 3 (0x2)
        Serial Number: 18008675309 (0x4316693ed)
    Signature Algorithm: sha256WithRSAEncryption
        Issuer: C = US, O = Mother Nature, OU = Everything, CN = Mother Nature
        Validity
            Not Before: Jun 30 16:35:18 2016 GMT
            Not After : Sep 11 16:35:18 2016 GMT
        Subject: C = US, ST = FL, L = Tallahassee, street = 3210 Holly Mill Run, postalCode = 30062, O = Extreme Discord, OU = Chaos, CN = gov.us
        Subject Public Key Info:
            Public Key Algorithm: rsaEncryption
                Public-Key: (2048 bit)
                Modulus:
                    00:ba:30:1b:78:d5:58:5b:75:fb:59:1d:c5:3f:8b:
                    44:de:bc:6d:36:cf:66:4c:03:45:e5:2a:92:a0:3c:
                    d5:20:30:ea:09:07:94:68:ec:31:a6:d4:a8:b4:6b:
                    28:e0:43:d5:83:6a:46:95:dc:36:7a:bf:98:23:2c:
                    13:5e:4e:a5:9c:2a:51:2d:93:08:88:87:39:f1:ce:
                    65:6f:01:af:52:e9:22:d4:61:51:09:36:b2:10:0b:
                    e0:d6:ea:2f:99:1b:65:68:81:73:f6:b7:97:ae:81:
                    01:56:d2:4f:4e:0c:9b:95:34:a0:c4:31:a3:85:69:
                    b5:78:16:d6:22:c2:78:d2:8c:b0:9e:51:f8:53:fe:
                    08:47:92:de:86:54:e8:e5:74:da:24:73:3e:26:64:
                    9f:6a:e9:b5:99:f1:f9:cb:cd:7b:48:f1:e2:5f:fc:
                    ed:9a:3d:80:5a:8f:9f:9f:cd:a7:2a:5e:42:79:c8:
                    79:37:ba:af:d0:95:37:88:1c:37:d6:f0:78:48:7b:
                    20:b4:eb:64:30:9d:71:77:3d:7e:25:22:27:c8:35:
                    dd:5d:54:9a:23:72:34:a5:e6:67:7a:fd:aa:93:5d:
                    fe:a0:44:78:c4:32:1a:32:c8:e2:9f:10:d1:f1:ca:
                    25:39:1a:6a:6c:a2:76:5c:a4:81:d7:61:80:3c:da:
                    10:4b
                Exponent: 65537 (0x10001)
        X509v3 extensions:
            X509v3 Extended Key Usage: 
                TLS Web Client Authentication, TLS Web Server Authentication
            X509v3 Basic Constraints: critical
                CA:TRUE
            X509v3 Authority Key Identifier: 
                keyid:01:02:03

            Authority Information Access: 
                OCSP - URI:http://theca.net/ocsp
                CA Issuers - URI:http://theca.net/totallythecert.crt

            X509v3 Certificate Policies: 
                Policy: 2.23.140.1.2.2

            X509v3 Subject Key Identifier: 
                04:03:02:01
            X509v3 Subject Alternative Name: 
                DNS:*.gov.us, DNS:gov.us
    Signature Algorithm: sha256WithRSAEncryption
         07:75:49:f5:57:ef:8e:80:6e:c1:78:72:71:f9:a3:44:8c:aa:
         e6:c5:c8:5e:14:09:b3:a9:ec:f9:bd:76:d6:62:0c:c7:1b:74:
         79:8d:ec:08:58:eb:71:5d:cd:5d:01:fb:e9:15:0e:50:ee:86:
         20:e3:5f:17:95:9d:b4:c5:0f:18:73:49:53:0b:81:fd:fa:c4:
         f2:1f:ee:a5:57:94:77:6d:db:72:14:7d:e7:32:5b:6d:f2:bc:
         cc:7c:ca:32:7d:56:fd:f2:a7:2d:d5:28:b1:08:6b:dc:6a:44:
         d3:34:54:25:2f:59:71:76:9d:aa:a5:70:05:7d:d4:14:f9:1e:
         72:90:75:c4:8d:37:d6:66:04:b2:f7:04:01:2b:97:52:c5:90:
         c9:1d:ac:04:38:9d:df:12:b3:91:05:31:4b:81:4c:9b:be:f3:
         35:8d:86:00:68:35:3e:9c:3c:aa:fb:ba:11:b5:07:7f:27:44:
         c0:b7:79:07:55:7e:28:fe:89:96:31:f9:77:8a:d4:75:7c:17:
         6d:5f:30:4a:42:f2:a1:d9:6e:d9:83:43:2e:9a:db:55:84:7d:
         01:f3:b7:79:cb:a0:3a:c8:d3:d2:f5:b5:93:64:06:5b:52:d6:
         9e:70:ac:40:e3:71:1e:9e:01:38:67:7e:0a:ce:28:a7:9f:32:
         79:0e:82:3b
-----BEGIN CERTIFICATE-----
MIIEVDCCAzygAwIBAgIFBDFmk+0wDQYJKoZIhvcNAQELBQAwUjELMAkGA1UEBhMC
VVMxFjAUBgNVBAoTDU1vdGhlciBOYXR1cmUxEzARBgNVBAsTCkV2ZXJ5dGhpbmcx
FjAUBgNVBAMTDU1vdGhlciBOYXR1cmUwHhcNMTYwNjMwMTYzNTE4WhcNMTYwOTEx
MTYzNTE4WjCBmTELMAkGA1UEBhMCVVMxCzAJBgNVBAgTAkZMMRQwEgYDVQQHEwtU
YWxsYWhhc3NlZTEcMBoGA1UECRMTMzIxMCBIb2xseSBNaWxsIFJ1bjEOMAwGA1UE
ERMFMzAwNjIxGDAWBgNVBAoTD0V4dHJlbWUgRGlzY29yZDEOMAwGA1UECxMFQ2hh
b3MxDzANBgNVBAMTBmdvdi51czCCASIwDQYJKoZIhvcNAQEBBQADggEPADCCAQoC
ggEBALowG3jVWFt1+1kdxT+LRN68bTbPZkwDReUqkqA81SAw6gkHlGjsMabUqLRr
KOBD1YNqRpXcNnq/mCMsE15OpZwqUS2TCIiHOfHOZW8Br1LpItRhUQk2shAL4Nbq
L5kbZWiBc/a3l66BAVbST04Mm5U0oMQxo4VptXgW1iLCeNKMsJ5R+FP+CEeS3oZU
6OV02iRzPiZkn2rptZnx+cvNe0jx4l/87Zo9gFqPn5/NpypeQnnIeTe6r9CVN4gc
N9bweEh7ILTrZDCdcXc9fiUiJ8g13V1UmiNyNKXmZ3r9qpNd/qBEeMQyGjLI4p8Q
0fHKJTkaamyidlykgddhgDzaEEsCAwEAAaOB6DCB5TAdBgNVHSUEFjAUBggrBgEF
BQcDAgYIKwYBBQUHAwEwDwYDVR0TAQH/BAUwAwEB/zAOBgNVHSMEBzAFgAMBAgMw
YgYIKwYBBQUHAQEEVjBUMCEGCCsGAQUFBzABhhVodHRwOi8vdGhlY2EubmV0L29j
c3AwLwYIKwYBBQUHMAKGI2h0dHA6Ly90aGVjYS5uZXQvdG90YWxseXRoZWNlcnQu
Y3J0MBMGA1UdIAQMMAowCAYGZ4EMAQICMA0GA1UdDgQGBAQEAwIBMBsGA1UdEQQU
MBKCCCouZ292LnVzggZnb3YudXMwDQYJKoZIhvcNAQELBQADggEBAAd1SfVX746A
bsF4cnH5o0SMqubFyF4UCbOp7Pm9dtZiDMcbdHmN7AhY63FdzV0B++kVDlDuhiDj
XxeVnbTFDxhzSVMLgf36xPIf7qVXlHdt23IUfecyW23yvMx8yjJ9Vv3ypy3VKLEI
a9xqRNM0VCUvWXF2naqlcAV91BT5HnKQdcSNN9ZmBLL3BAErl1LFkMkdrAQ4nd8S
s5EFMUuBTJu+8zWNhgBoNT6cPKr7uhG1B38nRMC3eQdVfij+iZYx+XeK1HV8F21f
MEpC8qHZbtmDQy6a21WEfQHzt3nLoDrI09L1tZNkBltS1p5wrEDjcR6eAThnfgrO
KKefMnkOgjs=
-----END CERTIFICATE-----
