Certificate:
    Data:
        Version: 3 (0x2)
        Serial Number: 18008675309 (0x4316693ed)
    Signature Algorithm: sha256WithRSAEncryption
        Issuer: C = US, O = Mother Nature, OU = Everything, CN = Mother Nature
        Validity
            Not Before: Jun 30 19:05:16 2016 GMT
            Not After : Sep 11 19:05:16 2016 GMT
        Subject: C = US, ST = FL, L = Tallahassee, street = 3210 Holly Mill Run, postalCode = 30062, O = Extreme Discord, OU = Chaos, CN = gov.us
        Subject Public Key Info:
            Public Key Algorithm: rsaEncryption
                Public-Key: (2048 bit)
                Modulus:
                    00:e5:f6:19:d1:84:03:ae:06:d2:b8:bf:48:72:5c:
                    3e:cd:d7:51:8a:b1:d5:c1:44:e0:98:30:70:a8:bd:
                    ba:c0:26:09:6d:ed:07:f0:f7:99:dd:dd:94:fa:46:
                    36:92:31:d4:58:7f:11:e6:74:1a:f0:3d:f1:27:57:
                    b3:c0:3a:c3:b1:f4:44:67:03:42:37:e7:5c:41:99:
                    44:9f:27:0c:e0:f7:40:ce:f0:e1:7d:95:f6:52:fe:
                    a4:04:52:03:39:a0:89:70:a3:00:46:f7:50:e4:8d:
                    84:4e:c1:20:cf:06:ec:46:d6:31:88:51:25:24:1b:
                    4b:1a:2e:64:b5:0a:54:2f:9b:f0:68:4b:15:54:e6:
                    fd:52:58:70:2b:1c:97:6d:40:e1:f7:5a:63:a2:93:
                    41:19:9a:a0:6d:a1:96:3b:a0:f6:85:74:88:d4:7a:
                    89:a2:09:0b:db:0e:b5:1d:2f:ab:53:6b:65:e4:6e:
                    c0:02:42:22:31:0d:ea:88:10:f0:cf:9b:f1:07:58:
                    bb:3a:77:a3:bc:7c:d4:be:df:b7:52:d2:14:ca:b6:
                    40:69:37:aa:94:97:78:6c:4a:26:67:ef:76:bf:4a:
                    73:19:66:50:dd:3c:5d:10:68:4c:2d:44:97:1b:3a:
                    fe:c8:65:b7:fa:02:8b:67:94:f3:39:fd:3c:f2:5d:
                    3f:e3
                Exponent: 65537 (0x10001)
        X509v3 extensions:
            X509v3 Extended Key Usage: 
                TLS Web Client Authentication, TLS Web Server Authentication
            X509v3 Basic Constraints: critical
                CA:TRUE
            X509v3 Authority Key Identifier: 
                keyid:01:02:03

            Authority Information Access: 
                OCSP - URI:http://theca.net/ocsp
                CA Issuers - URI:http://theca.net/totallythecert.crt

            X509v3 Certificate Policies: 
                Policy: 2.23.140.1.2.2

            X509v3 Subject Key Identifier: 
                04:03:02:01
            X509v3 Subject Alternative Name: 
                DNS:*.gov.us, DNS:gov.us
            X509v3 Key Usage: 
                Digital Signature, Certificate Sign, CRL Sign
    Signature Algorithm: sha256WithRSAEncryption
         8b:b5:66:2e:93:bc:ad:5f:61:1b:bb:ab:0b:cf:cf:85:94:f5:
         8a:6e:99:79:d6:2e:33:8d:f4:36:51:ed:19:08:d4:15:3b:10:
         94:68:9a:29:bf:74:91:50:7f:e1:33:69:cd:6c:e4:36:7a:f2:
         c7:a3:88:8d:ee:4e:9f:b6:81:a9:47:f0:ff:91:68:77:93:77:
         ba:db:32:b4:ed:b7:ca:a6:36:89:e3:3b:1d:b5:5d:f2:62:4c:
         30:e1:84:c0:57:8b:c6:f0:50:30:b4:20:a3:7f:cb:70:37:fa:
         9e:3d:6d:ae:c1:af:cf:38:51:5f:8a:43:bd:e2:f1:0a:90:ed:
         a4:90:66:1b:72:0b:28:2b:81:49:2f:86:53:cf:12:ba:e9:89:
         ae:4e:39:b2:86:35:81:f4:7f:aa:cd:e8:b0:4c:d4:2a:cb:dc:
         ba:4d:62:3a:ba:ca:c5:32:d8:19:05:e7:b8:24:36:06:46:27:
         1e:6f:d5:46:c2:5e:58:3a:dd:fd:db:3b:a2:fd:58:90:e6:a9:
         5e:26:cd:22:e3:5a:2c:34:1b:50:d3:9c:32:79:b0:fb:25:09:
         4b:32:86:d8:2d:35:5d:51:de:ac:f2:bd:22:7d:06:f7:ed:ba:
         b1:5a:2c:14:ca:62:3f:eb:97:0a:df:03:54:7d:b2:e6:fe:f9:
         20:30:c4:eb
-----BEGIN CERTIFICATE-----
MIIEYTCCA0mgAwIBAgIFBDFmk+0wDQYJKoZIhvcNAQELBQAwUjELMAkGA1UEBhMC
VVMxFjAUBgNVBAoTDU1vdGhlciBOYXR1cmUxEzARBgNVBAsTCkV2ZXJ5dGhpbmcx
FjAUBgNVBAMTDU1vdGhlciBOYXR1cmUwHhcNMTYwNjMwMTkwNTE2WhcNMTYwOTEx
MTkwNTE2WjCBmTELMAkGA1UEBhMCVVMxCzAJBgNVBAgTAkZMMRQwEgYDVQQHEwtU
YWxsYWhhc3NlZTEcMBoGA1UECRMTMzIxMCBIb2xseSBNaWxsIFJ1bjEOMAwGA1UE
ERMFMzAwNjIxGDAWBgNVBAoTD0V4dHJlbWUgRGlzY29yZDEOMAwGA1UECxMFQ2hh
b3MxDzANBgNVBAMTBmdvdi51czCCASIwDQYJKoZIhvcNAQEBBQADggEPADCCAQoC
ggEBAOX2GdGEA64G0ri/SHJcPs3XUYqx1cFE4JgwcKi9usAmCW3tB/D3md3dlPpG
NpIx1Fh/EeZ0GvA98SdXs8A6w7H0RGcDQjfnXEGZRJ8nDOD3QM7w4X2V9lL+pARS
AzmgiXCjAEb3UOSNhE7BIM8G7EbWMYhRJSQbSxouZLUKVC+b8GhLFVTm/VJYcCsc
l21A4fdaY6KTQRmaoG2hljug9oV0iNR6iaIJC9sOtR0vq1NrZeRuwAJCIjEN6ogQ
8M+b8QdYuzp3o7x81L7ft1LSFMq2QGk3qpSXeGxKJmfvdr9KcxlmUN08XRBoTC1E
lxs6/shlt/oCi2eU8zn9PPJdP+MCAwEAAaOB9TCB8jAdBgNVHSUEFjAUBggrBgEF
BQcDAgYIKwYBBQUHAwEwDwYDVR0TAQH/BAUwAwEB/zAOBgNVHSMEBzAFgAMBAgMw
YgYIKwYBBQUHAQEEVjBUMCEGCCsGAQUFBzABhhVodHRwOi8vdGhlY2EubmV0L29j
c3AwLwYIKwYBBQUHMAKGI2h0dHA6Ly90aGVjYS5uZXQvdG90YWxseXRoZWNlcnQu
Y3J0MBMGA1UdIAQMMAowCAYGZ4EMAQICMA0GA1UdDgQGBAQEAwIBMBsGA1UdEQQU
MBKCCCouZ292LnVzggZnb3YudXMwCwYDVR0PBAQDAgGGMA0GCSqGSIb3DQEBCwUA
A4IBAQCLtWYuk7ytX2Ebu6sLz8+FlPWKbpl51i4zjfQ2Ue0ZCNQVOxCUaJopv3SR
UH/hM2nNbOQ2evLHo4iN7k6ftoGpR/D/kWh3k3e62zK07bfKpjaJ4zsdtV3yYkww
4YTAV4vG8FAwtCCjf8twN/qePW2uwa/POFFfikO94vEKkO2kkGYbcgsoK4FJL4ZT
zxK66YmuTjmyhjWB9H+qzeiwTNQqy9y6TWI6usrFMtgZBee4JDYGRiceb9VGwl5Y
Ot392zui/ViQ5qleJs0i41osNBtQ05wyebD7JQlLMobYLTVdUd6s8r0ifQb37bqx
WiwUymI/65cK3wNUfbLm/vkgMMTr
-----END CERTIFICATE-----
