Certificate:
    Data:
        Version: 3 (0x2)
        Serial Number: 18008675309 (0x4316693ed)
    Signature Algorithm: sha256WithRSAEncryption
        Issuer: C = US, O = Mother Nature, OU = Everything, CN = Mother Nature
        Validity
            Not Before: Jun 30 19:04:31 2016 GMT
            Not After : Sep 11 19:04:31 2016 GMT
        Subject: C = US, ST = FL, L = Tallahassee, street = 3210 Holly Mill Run, postalCode = 30062, O = Extreme Discord, OU = Chaos, CN = gov.us
        Subject Public Key Info:
            Public Key Algorithm: rsaEncryption
                Public-Key: (2048 bit)
                Modulus:
                    00:ce:b6:a6:ad:79:f6:4c:0f:1f:2e:d6:25:42:c7:
                    cc:19:bd:b4:08:3c:9d:1f:98:ae:51:a1:07:41:ea:
                    f7:c4:49:1c:e1:46:a4:98:8a:e8:ef:6a:ec:78:d4:
                    73:6e:ea:50:cd:ee:a8:41:b5:a8:8d:5a:c8:6b:0c:
                    b0:85:67:5c:23:cf:36:59:02:8b:e4:51:7e:9f:65:
                    9b:bb:86:54:e3:83:aa:f3:d7:86:5c:87:4b:f6:42:
                    8d:26:77:b6:f1:0e:4e:8b:25:1c:c5:17:f1:48:95:
                    12:2d:15:66:a4:9d:e0:86:df:3e:1b:0a:28:8c:3c:
                    42:03:d9:6e:ea:4f:90:19:de:a9:dd:a0:e5:f3:64:
                    92:93:f2:8a:32:44:39:22:61:50:c7:d1:73:fa:34:
                    b4:70:0b:93:87:72:43:4f:ac:00:ce:9d:c8:4d:92:
                    1a:ab:52:75:2f:a3:c7:c3:48:b4:85:ca:e0:02:98:
                    95:92:61:88:c4:8d:35:5f:f8:49:8a:22:48:6b:ed:
                    8e:d2:be:d8:07:5e:8e:74:6e:33:e8:b9:00:94:ca:
                    e1:54:5e:6a:f9:26:9a:c0:08:f7:42:58:af:30:08:
                    b6:6c:c9:f4:15:36:93:d6:cc:99:3d:e3:a6:36:45:
                    40:24:32:55:62:64:3d:1e:00:57:94:92:4d:37:60:
                    59:c3
                Exponent: 65537 (0x10001)
        X509v3 extensions:
            X509v3 Extended Key Usage: 
                TLS Web Client Authentication, TLS Web Server Authentication
            X509v3 Basic Constraints: critical
                CA:TRUE
            X509v3 Authority Key Identifier: 
                keyid:01:02:03

            Authority Information Access: 
                OCSP - URI:http://theca.net/ocsp
                CA Issuers - URI:http://theca.net/totallythecert.crt

            X509v3 Certificate Policies: 
                Policy: 2.23.140.1.2.2

            X509v3 Subject Key Identifier: 
                04:03:02:01
            X509v3 Subject Alternative Name: 
                DNS:*.gov.us, DNS:gov.us
            X509v3 Key Usage: 
                CRL Sign
    Signature Algorithm: sha256WithRSAEncryption
         71:d7:4e:46:1f:ba:c5:bd:59:03:78:90:c5:67:76:04:22:3a:
         c8:45:2e:d3:06:f9:2f:3a:15:54:ea:a9:25:a1:1d:8b:8b:1a:
         c4:39:b8:04:95:88:08:b2:fc:b5:ac:ce:b0:a3:b6:00:ee:bc:
         ba:88:c0:77:38:6f:7b:1d:11:67:a1:3c:c5:fd:ee:75:ca:03:
         bd:27:3a:04:b0:b0:18:7c:18:c6:f2:09:e5:2b:fa:14:11:d6:
         57:0f:a7:64:3d:4d:2e:67:ab:1c:c0:10:7c:69:ec:0c:77:ad:
         f8:a7:75:29:fb:da:99:34:81:37:e2:fc:06:cc:e8:a1:7a:4e:
         7e:a7:52:6b:a7:52:5c:d9:0e:b7:3c:39:59:d3:e9:85:ef:28:
         b8:a5:44:b3:ab:27:74:1b:1a:46:4e:8a:c6:93:51:a8:6e:5f:
         77:6e:53:2c:11:bf:69:07:fa:55:c7:de:70:98:92:f4:d5:bc:
         c7:1e:fa:15:a6:59:6f:ba:09:07:b5:6c:f5:a2:3e:79:6d:55:
         b7:70:a7:61:05:f5:74:3b:93:9a:36:2a:e2:5b:2b:08:9c:d6:
         93:2e:be:a2:2e:91:90:da:7a:2c:5f:6f:96:52:f2:ba:a8:a3:
         62:c0:4a:24:a0:31:90:19:59:62:16:36:3f:9e:c5:33:61:44:
         4b:cd:87:fa
-----BEGIN CERTIFICATE-----
MIIEYTCCA0mgAwIBAgIFBDFmk+0wDQYJKoZIhvcNAQELBQAwUjELMAkGA1UEBhMC
VVMxFjAUBgNVBAoTDU1vdGhlciBOYXR1cmUxEzARBgNVBAsTCkV2ZXJ5dGhpbmcx
FjAUBgNVBAMTDU1vdGhlciBOYXR1cmUwHhcNMTYwNjMwMTkwNDMxWhcNMTYwOTEx
MTkwNDMxWjCBmTELMAkGA1UEBhMCVVMxCzAJBgNVBAgTAkZMMRQwEgYDVQQHEwtU
YWxsYWhhc3NlZTEcMBoGA1UECRMTMzIxMCBIb2xseSBNaWxsIFJ1bjEOMAwGA1UE
ERMFMzAwNjIxGDAWBgNVBAoTD0V4dHJlbWUgRGlzY29yZDEOMAwGA1UECxMFQ2hh
b3MxDzANBgNVBAMTBmdvdi51czCCASIwDQYJKoZIhvcNAQEBBQADggEPADCCAQoC
ggEBAM62pq159kwPHy7WJULHzBm9tAg8nR+YrlGhB0Hq98RJHOFGpJiK6O9q7HjU
c27qUM3uqEG1qI1ayGsMsIVnXCPPNlkCi+RRfp9lm7uGVOODqvPXhlyHS/ZCjSZ3
tvEOToslHMUX8UiVEi0VZqSd4IbfPhsKKIw8QgPZbupPkBneqd2g5fNkkpPyijJE
OSJhUMfRc/o0tHALk4dyQ0+sAM6dyE2SGqtSdS+jx8NItIXK4AKYlZJhiMSNNV/4
SYoiSGvtjtK+2AdejnRuM+i5AJTK4VReavkmmsAI90JYrzAItmzJ9BU2k9bMmT3j
pjZFQCQyVWJkPR4AV5SSTTdgWcMCAwEAAaOB9TCB8jAdBgNVHSUEFjAUBggrBgEF
BQcDAgYIKwYBBQUHAwEwDwYDVR0TAQH/BAUwAwEB/zAOBgNVHSMEBzAFgAMBAgMw
YgYIKwYBBQUHAQEEVjBUMCEGCCsGAQUFBzABhhVodHRwOi8vdGhlY2EubmV0L29j
c3AwLwYIKwYBBQUHMAKGI2h0dHA6Ly90aGVjYS5uZXQvdG90YWxseXRoZWNlcnQu
Y3J0MBMGA1UdIAQMMAowCAYGZ4EMAQICMA0GA1UdDgQGBAQEAwIBMBsGA1UdEQQU
MBKCCCouZ292LnVzggZnb3YudXMwCwYDVR0PBAQDAgECMA0GCSqGSIb3DQEBCwUA
A4IBAQBx105GH7rFvVkDeJDFZ3YEIjrIRS7TBvkvOhVU6qkloR2LixrEObgElYgI
svy1rM6wo7YA7ry6iMB3OG97HRFnoTzF/e51ygO9JzoEsLAYfBjG8gnlK/oUEdZX
D6dkPU0uZ6scwBB8aewMd634p3Up+9qZNIE34vwGzOihek5+p1Jrp1Jc2Q63PDlZ
0+mF7yi4pUSzqyd0GxpGTorGk1Gobl93blMsEb9pB/pVx95wmJL01bzHHvoVpllv
ugkHtWz1oj55bVW3cKdhBfV0O5OaNiriWysInNaTLr6iLpGQ2nosX2+WUvK6qKNi
wEokoDGQGVliFjY/nsUzYURLzYf6
-----END CERTIFICATE-----
