Certificate:
    Data:
        Version: 3 (0x2)
        Serial Number: 18008675309 (0x4316693ed)
    Signature Algorithm: sha256WithRSAEncryption
        Issuer: C = US, O = Mother Nature, OU = Everything, CN = Mother Nature
        Validity
            Not Before: Jun 29 20:10:39 2016 GMT
            Not After : Sep 10 20:10:39 2016 GMT
        Subject: 
        Subject Public Key Info:
            Public Key Algorithm: rsaEncryption
                Public-Key: (2048 bit)
                Modulus:
                    00:ee:77:85:52:a0:68:63:ee:30:34:a8:a9:79:75:
                    c6:e3:1d:38:40:26:db:f1:f8:7f:0e:4c:2c:96:1d:
                    42:be:88:5b:fd:68:45:bc:61:b3:ca:2f:d2:09:b1:
                    b4:01:81:e8:92:ee:84:87:75:f8:26:9f:c6:c4:b8:
                    60:45:43:16:59:19:4f:a1:e8:e6:e8:68:c5:7c:d9:
                    6a:30:cb:fa:74:fb:41:e6:e5:7d:4b:7d:81:4a:6e:
                    27:85:03:bc:08:0a:dc:3a:94:7d:0d:68:31:87:2f:
                    2b:a8:63:de:36:b0:df:0f:4e:98:3b:65:d0:5d:cd:
                    12:50:01:7f:96:70:38:85:c5:c5:e7:f4:03:cc:83:
                    b5:88:49:3c:99:6a:5c:27:5b:9c:ea:96:ed:dd:26:
                    9d:88:d9:56:a5:8c:ad:8f:9d:f0:4d:46:05:85:b0:
                    49:c8:69:00:2e:62:96:33:fc:65:6e:05:52:9d:68:
                    c5:ee:d7:69:77:ef:18:05:a1:5d:d3:3f:19:a7:57:
                    4f:97:f8:70:74:5f:92:a3:c7:e1:76:ee:e2:e9:17:
                    7d:9c:ec:3e:8c:9a:a7:32:df:9c:f1:6f:f3:f4:85:
                    c3:f9:be:fb:a1:08:01:83:40:9c:9e:08:ab:66:b9:
                    b2:d5:d7:c7:08:c0:ea:2a:27:52:32:cd:e3:8d:14:
                    79:31
                Exponent: 65537 (0x10001)
        X509v3 extensions:
            X509v3 Key Usage: critical
                Digital Signature, Key Encipherment
            X509v3 Extended Key Usage: 
                TLS Web Client Authentication, TLS Web Server Authentication
            X509v3 Basic Constraints: critical
                CA:TRUE
            X509v3 Authority Key Identifier: 
                keyid:01:02:03

            Authority Information Access: 
                OCSP - URI:http://theca.net/ocsp
                CA Issuers - URI:http://theca.net/totallythecert.crt

            X509v3 Certificate Policies: 
                Policy: 2.23.140.1.2.2

            X509v3 Subject Key Identifier: 
                04:03:02:01
            X509v3 Subject Alternative Name: 
                DNS:*.gov.us, DNS:gov.us
    Signature Algorithm: sha256WithRSAEncryption
         3d:39:6b:ef:3e:6d:0a:f4:b8:50:58:16:8b:df:c1:13:3f:94:
         d8:cb:cb:a3:95:4e:33:aa:1d:96:6a:2a:af:9e:37:b5:9e:27:
         dd:0a:50:51:c1:fb:bb:9e:28:e5:40:57:48:44:e8:5e:67:94:
         a6:8b:bc:c9:5e:c6:3b:a1:51:b0:64:ff:4e:da:4d:16:ca:c0:
         6e:75:31:b6:43:9e:00:5a:d9:b0:22:de:56:1c:ab:03:3d:18:
         f1:93:fa:8a:02:63:03:8c:c7:fe:d2:eb:bd:c0:dd:10:0a:30:
         56:7e:0e:cc:7a:39:04:e4:9c:90:85:a7:8a:27:e6:29:70:44:
         0b:47:8d:55:50:b1:da:ca:1b:90:d2:fd:98:cb:09:10:0f:80:
         c1:82:a9:17:84:60:13:81:da:f2:ee:ab:61:0b:4e:34:b0:8c:
         d7:d3:b7:aa:d1:ae:fb:40:40:ba:ec:ed:6d:0d:6a:82:66:41:
         08:c2:e1:2a:d8:78:7d:dc:ea:78:51:48:5d:93:0c:8b:02:aa:
         2b:d7:da:d7:d6:e3:06:34:65:ba:8e:3a:c3:af:ac:d4:72:5f:
         79:7c:6f:b0:30:12:c9:75:97:a3:22:14:ef:c4:a4:c0:54:5e:
         cf:6e:8e:75:5e:33:bd:90:8c:b2:4e:4d:f9:2b:9f:ca:06:a0:
         fa:31:29:a3
-----BEGIN CERTIFICATE-----
MIIDyjCCArKgAwIBAgIFBDFmk+0wDQYJKoZIhvcNAQELBQAwUjELMAkGA1UEBhMC
VVMxFjAUBgNVBAoTDU1vdGhlciBOYXR1cmUxEzARBgNVBAsTCkV2ZXJ5dGhpbmcx
FjAUBgNVBAMTDU1vdGhlciBOYXR1cmUwHhcNMTYwNjI5MjAxMDM5WhcNMTYwOTEw
MjAxMDM5WjAAMIIBIjANBgkqhkiG9w0BAQEFAAOCAQ8AMIIBCgKCAQEA7neFUqBo
Y+4wNKipeXXG4x04QCbb8fh/Dkwslh1Cvohb/WhFvGGzyi/SCbG0AYHoku6Eh3X4
Jp/GxLhgRUMWWRlPoejm6GjFfNlqMMv6dPtB5uV9S32BSm4nhQO8CArcOpR9DWgx
hy8rqGPeNrDfD06YO2XQXc0SUAF/lnA4hcXF5/QDzIO1iEk8mWpcJ1uc6pbt3Sad
iNlWpYytj53wTUYFhbBJyGkALmKWM/xlbgVSnWjF7tdpd+8YBaFd0z8Zp1dPl/hw
dF+So8fhdu7i6Rd9nOw+jJqnMt+c8W/z9IXD+b77oQgBg0CcngirZrmy1dfHCMDq
KidSMs3jjRR5MQIDAQABo4H4MIH1MA4GA1UdDwEB/wQEAwIFoDAdBgNVHSUEFjAU
BggrBgEFBQcDAgYIKwYBBQUHAwEwDwYDVR0TAQH/BAUwAwEB/zAOBgNVHSMEBzAF
gAMBAgMwYgYIKwYBBQUHAQEEVjBUMCEGCCsGAQUFBzABhhVodHRwOi8vdGhlY2Eu
bmV0L29jc3AwLwYIKwYBBQUHMAKGI2h0dHA6Ly90aGVjYS5uZXQvdG90YWxseXRo
ZWNlcnQuY3J0MBMGA1UdIAQMMAowCAYGZ4EMAQICMA0GA1UdDgQGBAQEAwIBMBsG
A1UdEQQUMBKCCCouZ292LnVzggZnb3YudXMwDQYJKoZIhvcNAQELBQADggEBAD05
a+8+bQr0uFBYFovfwRM/lNjLy6OVTjOqHZZqKq+eN7WeJ90KUFHB+7ueKOVAV0hE
6F5nlKaLvMlexjuhUbBk/07aTRbKwG51MbZDngBa2bAi3lYcqwM9GPGT+ooCYwOM
x/7S673A3RAKMFZ+Dsx6OQTknJCFp4on5ilwRAtHjVVQsdrKG5DS/ZjLCRAPgMGC
qReEYBOB2vLuq2ELTjSwjNfTt6rRrvtAQLrs7W0NaoJmQQjC4SrYeH3c6nhRSF2T
DIsCqivX2tfW4wY0ZbqOOsOvrNRyX3l8b7AwEsl1l6MiFO/EpMBUXs9ujnVeM72Q
jLJOTfkrn8oGoPoxKaM=
-----END CERTIFICATE-----
