Certificate:
    Data:
        Version: 3 (0x2)
        Serial Number: 18008675309 (0x4316693ed)
    Signature Algorithm: sha256WithRSAEncryption
        Issuer: C = US, O = Mother Nature, OU = Everything, CN = Mother Nature
        Validity
            Not Before: Jun 29 19:11:14 2016 GMT
            Not After : Sep 10 19:11:14 2016 GMT
        Subject: C = , ST = , L = , street = , postalCode = , O = , OU = 
        Subject Public Key Info:
            Public Key Algorithm: rsaEncryption
                Public-Key: (2048 bit)
                Modulus:
                    00:e7:6e:55:5e:62:74:9d:36:b0:9d:ff:99:59:97:
                    45:08:9d:b0:04:a0:60:fc:93:84:44:f8:43:ab:14:
                    cc:f4:0d:9a:60:81:49:98:06:95:44:5a:8a:62:f4:
                    d8:d4:35:46:25:dd:a4:54:f7:67:10:b1:95:0e:71:
                    db:ae:17:38:43:23:5f:7f:d0:df:23:62:da:5e:c8:
                    19:7f:7a:c0:74:ea:3d:30:7c:6b:17:75:ea:d9:5c:
                    08:60:53:ea:22:30:06:23:e7:42:07:fc:3d:b1:83:
                    f3:dc:cd:53:57:f7:44:10:94:1c:14:27:6e:ed:3b:
                    d2:f4:52:3f:f7:31:a0:88:1d:44:aa:60:4a:b8:e1:
                    b2:05:0b:5f:76:2a:ff:f0:f8:37:ac:bb:0c:2f:0d:
                    4e:29:bc:7d:00:91:1a:4a:8d:74:d9:62:24:87:1a:
                    f2:40:73:4f:8a:b5:bc:e8:21:05:59:ae:12:f2:8b:
                    37:f2:3b:1b:0a:91:1c:63:d2:4d:4e:cb:2a:6f:5f:
                    db:5f:7b:dc:18:cc:31:92:da:99:4a:89:61:80:ed:
                    41:5f:dd:80:dd:98:dd:0d:42:f6:40:88:8c:ec:ab:
                    45:90:fd:d1:ad:8a:d8:98:d6:b9:d2:54:41:dc:54:
                    a6:13:4d:f5:e1:26:d6:25:93:25:11:5c:dc:a8:ff:
                    58:fb
                Exponent: 65537 (0x10001)
        X509v3 extensions:
            X509v3 Key Usage: critical
                Digital Signature, Key Encipherment
            X509v3 Extended Key Usage: 
                TLS Web Client Authentication, TLS Web Server Authentication
            X509v3 Basic Constraints: critical
                CA:TRUE
            X509v3 Authority Key Identifier: 
                keyid:01:02:03

            Authority Information Access: 
                OCSP - URI:http://theca.net/ocsp
                CA Issuers - URI:http://theca.net/totallythecert.crt

            X509v3 Certificate Policies: 
                Policy: 2.23.140.1.2.2

            X509v3 Subject Key Identifier: 
                04:03:02:01
            X509v3 Subject Alternative Name: 
                DNS:*.gov.us, DNS:gov.us
    Signature Algorithm: sha256WithRSAEncryption
         54:e3:b8:5b:3d:2b:f0:74:6a:72:82:ad:0d:96:ad:26:33:31:
         cf:28:97:e8:8d:a3:77:fe:d2:c3:36:0e:e1:18:68:d4:3a:85:
         2c:00:49:11:a7:28:83:9b:cc:60:d2:f3:c9:ba:f8:4a:7a:30:
         cc:86:05:23:80:56:7a:85:09:0e:de:3d:4d:19:de:48:8f:92:
         e9:c6:8e:3d:e4:c8:45:c1:c2:2e:79:b0:75:17:bb:2d:c5:1c:
         f2:12:14:ac:4e:53:f6:fa:c2:01:2b:fd:7b:c5:e5:65:a3:9c:
         51:81:fa:29:ef:72:f7:44:65:3a:6d:0b:26:79:95:0a:ab:d9:
         4a:6f:bf:ba:17:d2:48:92:5d:11:a1:9c:8d:f3:a4:a5:a5:36:
         c6:f8:44:53:e0:4c:f9:b8:2a:ab:9d:c5:04:90:aa:f4:96:a2:
         a0:7f:ee:c1:5a:ee:6e:db:e5:48:6f:53:f4:54:ef:c8:dd:75:
         d7:a4:14:36:f1:d9:73:ac:e4:18:57:e3:34:e5:01:3b:4d:60:
         06:5e:15:80:b7:27:0d:ee:96:75:83:4d:66:bc:f3:d3:c2:7b:
         5f:64:99:cf:02:bc:38:98:a8:b4:5d:c8:e5:fc:ed:f8:71:2f:
         b4:44:73:cd:f8:bf:a0:1e:a2:07:e5:70:e2:8d:b1:0f:7f:57:
         02:03:54:fa
-----BEGIN CERTIFICATE-----
MIIEFzCCAv+gAwIBAgIFBDFmk+0wDQYJKoZIhvcNAQELBQAwUjELMAkGA1UEBhMC
VVMxFjAUBgNVBAoTDU1vdGhlciBOYXR1cmUxEzARBgNVBAsTCkV2ZXJ5dGhpbmcx
FjAUBgNVBAMTDU1vdGhlciBOYXR1cmUwHhcNMTYwNjI5MTkxMTE0WhcNMTYwOTEw
MTkxMTE0WjBNMQkwBwYDVQQGEwAxCTAHBgNVBAgTADEJMAcGA1UEBxMAMQkwBwYD
VQQJEwAxCTAHBgNVBBETADEJMAcGA1UEChMAMQkwBwYDVQQLEwAwggEiMA0GCSqG
SIb3DQEBAQUAA4IBDwAwggEKAoIBAQDnblVeYnSdNrCd/5lZl0UInbAEoGD8k4RE
+EOrFMz0DZpggUmYBpVEWopi9NjUNUYl3aRU92cQsZUOcduuFzhDI19/0N8jYtpe
yBl/esB06j0wfGsXderZXAhgU+oiMAYj50IH/D2xg/PczVNX90QQlBwUJ27tO9L0
Uj/3MaCIHUSqYEq44bIFC192Kv/w+DesuwwvDU4pvH0AkRpKjXTZYiSHGvJAc0+K
tbzoIQVZrhLyizfyOxsKkRxj0k1OyypvX9tfe9wYzDGS2plKiWGA7UFf3YDdmN0N
QvZAiIzsq0WQ/dGtitiY1rnSVEHcVKYTTfXhJtYlkyURXNyo/1j7AgMBAAGjgfgw
gfUwDgYDVR0PAQH/BAQDAgWgMB0GA1UdJQQWMBQGCCsGAQUFBwMCBggrBgEFBQcD
ATAPBgNVHRMBAf8EBTADAQH/MA4GA1UdIwQHMAWAAwECAzBiBggrBgEFBQcBAQRW
MFQwIQYIKwYBBQUHMAGGFWh0dHA6Ly90aGVjYS5uZXQvb2NzcDAvBggrBgEFBQcw
AoYjaHR0cDovL3RoZWNhLm5ldC90b3RhbGx5dGhlY2VydC5jcnQwEwYDVR0gBAww
CjAIBgZngQwBAgIwDQYDVR0OBAYEBAQDAgEwGwYDVR0RBBQwEoIIKi5nb3YudXOC
Bmdvdi51czANBgkqhkiG9w0BAQsFAAOCAQEAVOO4Wz0r8HRqcoKtDZatJjMxzyiX
6I2jd/7SwzYO4Rho1DqFLABJEacog5vMYNLzybr4SnowzIYFI4BWeoUJDt49TRne
SI+S6caOPeTIRcHCLnmwdRe7LcUc8hIUrE5T9vrCASv9e8XlZaOcUYH6Ke9y90Rl
Om0LJnmVCqvZSm+/uhfSSJJdEaGcjfOkpaU2xvhEU+BM+bgqq53FBJCq9JaioH/u
wVrubtvlSG9T9FTvyN1116QUNvHZc6zkGFfjNOUBO01gBl4VgLcnDe6WdYNNZrzz
08J7X2SZzwK8OJiotF3I5fzt+HEvtERzzfi/oB6iB+Vw4o2xD39XAgNU+g==
-----END CERTIFICATE-----
