Certificate:
    Data:
        Version: 3 (0x2)
        Serial Number: 18008675309 (0x4316693ed)
    Signature Algorithm: sha256WithRSAEncryption
        Issuer: C = US, O = Mother Nature, OU = Everything, CN = Mother Nature
        Validity
            Not Before: Jun 29 17:41:19 2016 GMT
            Not After : Sep 10 17:41:19 2016 GMT
        Subject: C = US + C = AL + C =  + C = KR, ST = FL, L = Tallahassee, street = 3210 Holly Mill Run, postalCode = 30062, O = Random CA, OU = Chaos, CN = gov.us
        Subject Public Key Info:
            Public Key Algorithm: rsaEncryption
                Public-Key: (2048 bit)
                Modulus:
                    00:eb:e4:6e:29:e4:15:46:6e:fc:0e:12:89:4f:1e:
                    f7:f6:77:5a:a6:41:0a:60:b7:84:5c:13:c5:1f:2f:
                    fb:3c:ec:81:e3:c0:41:65:cb:05:b5:81:68:15:ad:
                    40:97:39:e0:0c:e5:9a:29:c0:15:58:30:64:c0:db:
                    c8:1d:27:d5:f9:e4:13:ec:66:99:f0:3f:3a:1f:2d:
                    84:0e:18:f1:ee:72:ba:e5:03:9f:65:95:37:10:70:
                    a9:e9:61:b8:65:76:d9:61:e5:40:70:a6:1a:e1:5e:
                    90:17:c0:be:7b:fc:0f:a9:30:a1:4f:5a:5d:68:c5:
                    80:67:61:10:b9:96:e9:77:ae:a7:a9:5a:71:16:3c:
                    32:10:93:64:04:38:e8:94:a4:99:b9:78:9f:50:36:
                    ba:18:16:fd:fb:98:de:14:13:66:38:80:56:54:20:
                    ba:3c:4b:71:92:9f:95:5d:03:71:73:c5:d3:1b:51:
                    33:db:9d:8e:21:7e:44:88:91:48:22:5c:cd:02:1b:
                    d1:73:d2:c4:91:01:bb:e6:4e:90:24:6b:d9:25:ac:
                    a1:dd:38:c6:ce:d7:c6:af:f0:f8:a5:e2:f0:71:81:
                    9c:5c:11:77:84:1a:7a:d0:38:28:58:e4:d7:a6:ea:
                    23:90:f1:f3:4d:88:37:bf:63:4e:93:79:a0:64:35:
                    93:57
                Exponent: 65537 (0x10001)
        X509v3 extensions:
            X509v3 Key Usage: critical
                Digital Signature, Key Encipherment
            X509v3 Extended Key Usage: 
                TLS Web Client Authentication, TLS Web Server Authentication
            X509v3 Basic Constraints: critical
                CA:TRUE
            X509v3 Authority Key Identifier: 
                keyid:01:02:03

            Authority Information Access: 
                OCSP - URI:http://theca.net/ocsp
                CA Issuers - URI:http://theca.net/totallythecert.crt

            X509v3 Certificate Policies: 
                Policy: 2.23.140.1.2.2

            X509v3 Subject Key Identifier: 
                04:03:02:01
            X509v3 Subject Alternative Name: 
                DNS:*.gov.us, DNS:gov.us
    Signature Algorithm: sha256WithRSAEncryption
         05:d2:84:fb:23:c3:56:24:61:49:61:1e:16:b4:70:03:74:65:
         84:17:05:06:4c:90:cb:af:f8:44:4a:9f:04:0a:e2:69:b1:d3:
         07:ee:a5:4d:75:2d:e4:8f:97:94:45:1b:7c:5b:94:23:30:c9:
         13:61:31:e6:23:ed:f6:61:07:3b:6f:eb:7d:f0:f8:94:12:3b:
         17:4b:90:9d:99:73:c9:d4:b2:c5:46:1d:55:cb:10:25:df:c5:
         4e:fc:cc:fd:09:6b:92:f8:e0:0e:61:b3:fa:e1:af:96:b7:38:
         77:ea:e3:26:bf:7b:cd:f2:0c:73:88:11:30:1d:64:a5:8c:46:
         a6:52:6b:a6:6b:81:2e:ae:a4:55:6b:eb:cf:4d:ea:bd:5e:a7:
         22:3b:9c:be:d4:92:2c:5a:f5:12:cc:61:86:11:ec:17:b3:51:
         ad:5d:16:6a:6d:f5:13:77:74:bc:73:fe:e8:b0:fa:37:0b:d2:
         e8:b5:5d:31:d0:2c:3d:f1:09:7e:16:bf:7f:b6:00:c3:6a:b0:
         85:b0:18:dd:ce:05:12:80:18:99:c8:b0:9d:3d:60:16:0e:f1:
         36:db:f2:32:a0:4b:92:86:f5:70:8a:b5:84:ce:b0:50:f4:3f:
         18:74:da:bc:f2:a3:6c:96:14:45:21:63:53:90:59:d4:6d:5d:
         50:f5:2e:7f
-----BEGIN CERTIFICATE-----
MIIEfTCCA2WgAwIBAgIFBDFmk+0wDQYJKoZIhvcNAQELBQAwUjELMAkGA1UEBhMC
VVMxFjAUBgNVBAoTDU1vdGhlciBOYXR1cmUxEzARBgNVBAsTCkV2ZXJ5dGhpbmcx
FjAUBgNVBAMTDU1vdGhlciBOYXR1cmUwHhcNMTYwNjI5MTc0MTE5WhcNMTYwOTEw
MTc0MTE5WjCBsjEqMAkGA1UEBhMCVVMwCQYDVQQGEwJBTDAHBgNVBAYTADAJBgNV
BAYTAktSMQswCQYDVQQIEwJGTDEUMBIGA1UEBxMLVGFsbGFoYXNzZWUxHDAaBgNV
BAkTEzMyMTAgSG9sbHkgTWlsbCBSdW4xDjAMBgNVBBETBTMwMDYyMRIwEAYDVQQK
EwlSYW5kb20gQ0ExDjAMBgNVBAsTBUNoYW9zMQ8wDQYDVQQDEwZnb3YudXMwggEi
MA0GCSqGSIb3DQEBAQUAA4IBDwAwggEKAoIBAQDr5G4p5BVGbvwOEolPHvf2d1qm
QQpgt4RcE8UfL/s87IHjwEFlywW1gWgVrUCXOeAM5ZopwBVYMGTA28gdJ9X55BPs
ZpnwPzofLYQOGPHucrrlA59llTcQcKnpYbhldtlh5UBwphrhXpAXwL57/A+pMKFP
Wl1oxYBnYRC5lul3rqepWnEWPDIQk2QEOOiUpJm5eJ9QNroYFv37mN4UE2Y4gFZU
ILo8S3GSn5VdA3FzxdMbUTPbnY4hfkSIkUgiXM0CG9Fz0sSRAbvmTpAka9klrKHd
OMbO18av8Pil4vBxgZxcEXeEGnrQOChY5Nem6iOQ8fNNiDe/Y06TeaBkNZNXAgMB
AAGjgfgwgfUwDgYDVR0PAQH/BAQDAgWgMB0GA1UdJQQWMBQGCCsGAQUFBwMCBggr
BgEFBQcDATAPBgNVHRMBAf8EBTADAQH/MA4GA1UdIwQHMAWAAwECAzBiBggrBgEF
BQcBAQRWMFQwIQYIKwYBBQUHMAGGFWh0dHA6Ly90aGVjYS5uZXQvb2NzcDAvBggr
BgEFBQcwAoYjaHR0cDovL3RoZWNhLm5ldC90b3RhbGx5dGhlY2VydC5jcnQwEwYD
VR0gBAwwCjAIBgZngQwBAgIwDQYDVR0OBAYEBAQDAgEwGwYDVR0RBBQwEoIIKi5n
b3YudXOCBmdvdi51czANBgkqhkiG9w0BAQsFAAOCAQEABdKE+yPDViRhSWEeFrRw
A3RlhBcFBkyQy6/4REqfBAriabHTB+6lTXUt5I+XlEUbfFuUIzDJE2Ex5iPt9mEH
O2/rffD4lBI7F0uQnZlzydSyxUYdVcsQJd/FTvzM/QlrkvjgDmGz+uGvlrc4d+rj
Jr97zfIMc4gRMB1kpYxGplJrpmuBLq6kVWvrz03qvV6nIjucvtSSLFr1EsxhhhHs
F7NRrV0Wam31E3d0vHP+6LD6NwvS6LVdMdAsPfEJfha/f7YAw2qwhbAY3c4FEoAY
mciwnT1gFg7xNtvyMqBLkob1cIq1hM6wUPQ/GHTavPKjbJYURSFjU5BZ1G1dUPUu
fw==
-----END CERTIFICATE-----
