Certificate:
    Data:
        Version: Unknown (3)
        Serial Number: 0 (0x0)
    Signature Algorithm: md5WithRSAEncryption
        Issuer: CN = SYSTEM on SECTRA-WISE (iTivity)
        Validity
            Not Before: Oct 23 15:06:11 2012 GMT
            Not After : Mar 11 15:06:11 2040 GMT
        Subject: CN = SYSTEM on SECTRA-WISE (iTivity)
        Subject Public Key Info:
            Public Key Algorithm: rsaEncryption
                Public-Key: (2048 bit)
                Modulus:
                    00:eb:9b:ef:93:1f:fe:18:b1:0c:79:99:92:77:09:
                    05:e5:58:3f:24:59:09:d0:8a:ab:48:0c:da:d6:4c:
                    53:a8:69:6e:c7:21:3e:d0:c3:ea:25:e8:d0:2d:c9:
                    d4:3a:40:12:5b:30:ca:b5:bc:a7:72:f3:bc:fd:bb:
                    99:2f:71:e2:4a:1d:e5:aa:87:3d:4f:2e:3d:dd:09:
                    d8:20:56:e4:94:1c:9d:52:27:d1:6c:af:68:57:09:
                    37:bb:1f:73:24:32:78:5e:1f:1c:3b:be:99:aa:ad:
                    24:ad:a9:d2:31:79:88:72:3e:5a:63:c7:43:d3:f0:
                    9a:7a:9f:72:b8:c4:8d:e7:cc:87:49:a1:f5:01:10:
                    c7:07:5e:1d:3b:36:c5:0d:b6:38:ec:75:27:67:08:
                    a2:a6:1b:ee:e4:50:49:81:2f:e0:9f:2e:38:44:37:
                    da:01:aa:de:e0:ca:78:13:8f:fb:cd:1f:70:89:38:
                    42:35:1f:cf:2a:ca:14:5b:1f:f9:9d:63:04:c5:60:
                    8a:0a:b8:e7:30:59:03:6b:69:60:10:44:b2:af:24:
                    f4:73:ad:ee:75:53:eb:54:91:13:74:ac:6c:c6:1a:
                    be:0d:48:b7:cc:8e:62:e0:4e:ff:79:07:d7:20:22:
                    da:8b:57:ae:d1:26:bc:fb:ce:cc:42:39:5d:d8:e0:
                    21:a5
                Exponent: 65537 (0x10001)
        X509v3 extensions:
            X509v3 Basic Constraints: 
                CA:TRUE
    Signature Algorithm: md5WithRSAEncryption
         2d:11:ba:9e:e8:24:52:1d:6d:8d:30:da:48:97:46:51:83:eb:
         38:bc:74:49:09:c4:43:bc:36:91:4b:30:f0:80:d3:04:6a:4b:
         8b:72:27:01:4d:0b:7c:bd:c2:de:73:89:73:65:9f:d4:5c:81:
         ad:c3:1e:1d:d3:09:c4:d6:ea:4a:80:e7:13:fe:cc:1f:93:65:
         7d:09:dc:7d:66:69:52:e3:af:a7:d9:52:ba:7c:9d:e5:e5:b6:
         c6:1e:b5:f2:52:9c:73:7f:a9:e0:c3:31:ac:37:77:81:94:04:
         3d:81:13:34:ba:88:45:ad:45:2b:22:1b:9c:d6:b0:56:af:02:
         31:c1:f3:c2:ce:ce:f6:a6:54:03:18:8b:5e:39:f7:80:6a:5b:
         5b:e6:51:b9:b3:b7:4f:47:15:43:1d:2e:c5:0e:e5:e4:19:77:
         ff:d8:4a:dc:f0:ec:14:22:54:96:3e:e9:ff:e9:0a:84:f6:d2:
         7b:1c:d6:91:a7:cf:7e:b0:9e:8d:48:94:4d:da:07:06:33:5e:
         52:ca:ce:c6:9b:60:88:03:0f:50:af:ca:53:98:e1:94:0a:ff:
         ba:17:37:76:8c:ae:55:30:cf:7f:57:fe:66:29:86:98:03:cb:
         6d:38:dd:1a:68:a2:d5:a7:51:3d:4e:71:2c:fd:36:be:88:5e:
         5c:22:96:90
-----BEGIN CERTIFICATE-----
MIIC3zCCAcegAwIBAwIBADANBgkqhkiG9w0BAQQFADAqMSgwJgYDVQQDEx9TWVNU
RU0gb24gU0VDVFJBLVdJU0UgKGlUaXZpdHkpMB4XDTEyMTAyMzE1MDYxMVoXDTQw
MDMxMTE1MDYxMVowKjEoMCYGA1UEAxMfU1lTVEVNIG9uIFNFQ1RSQS1XSVNFIChp
VGl2aXR5KTCCASIwDQYJKoZIhvcNAQEBBQADggEPADCCAQoCggEBAOub75Mf/hix
DHmZkncJBeVYPyRZCdCKq0gM2tZMU6hpbschPtDD6iXo0C3J1DpAElswyrW8p3Lz
vP27mS9x4kod5aqHPU8uPd0J2CBW5JQcnVIn0WyvaFcJN7sfcyQyeF4fHDu+maqt
JK2p0jF5iHI+WmPHQ9PwmnqfcrjEjefMh0mh9QEQxwdeHTs2xQ22OOx1J2cIoqYb
7uRQSYEv4J8uOEQ32gGq3uDKeBOP+80fcIk4QjUfzyrKFFsf+Z1jBMVgigq45zBZ
A2tpYBBEsq8k9HOt7nVT61SRE3SsbMYavg1It8yOYuBO/3kH1yAi2otXrtEmvPvO
zEI5XdjgIaUCAwEAAaMQMA4wDAYDVR0TBAUwAwEB/zANBgkqhkiG9w0BAQQFAAOC
AQEALRG6nugkUh1tjTDaSJdGUYPrOLx0SQnEQ7w2kUsw8IDTBGpLi3InAU0LfL3C
3nOJc2Wf1FyBrcMeHdMJxNbqSoDnE/7MH5NlfQncfWZpUuOvp9lSunyd5eW2xh61
8lKcc3+p4MMxrDd3gZQEPYETNLqIRa1FKyIbnNawVq8CMcHzws7O9qZUAxiLXjn3
gGpbW+ZRubO3T0cVQx0uxQ7l5Bl3/9hK3PDsFCJUlj7p/+kKhPbSexzWkafPfrCe
jUiUTdoHBjNeUsrOxptgiAMPUK/KU5jhlAr/uhc3doyuVTDPf1f+ZimGmAPLbTjd
Gmii1adRPU5xLP02voheXCKWkA==
-----END CERTIFICATE-----
