Certificate:
    Data:
        Version: Unknown (3)
        Serial Number: 14281345 (0xd9ea81)
    Signature Algorithm: sha1WithRSAEncryption
        Issuer: CN = B0FAEBD9EA81, OU = RV120W, O = "Cisco Systems, Inc.", C = US
        Validity
            Not Before: Mar 13 02:40:06 2009 GMT
            Not After : Mar 11 02:40:06 2019 GMT
        Subject: CN = B0FAEBD9EA81, OU = RV120W, O = "Cisco Systems, Inc.", C = US
        Subject Public Key Info:
            Public Key Algorithm: rsaEncryption
                Public-Key: (1024 bit)
                Modulus:
                    00:f3:ea:f5:04:2a:e6:92:5f:24:53:13:a5:45:a3:
                    9e:a2:a5:8f:08:41:b4:cf:b6:03:25:94:a4:02:31:
                    5d:32:75:df:71:65:2b:e9:8f:a7:d8:24:93:eb:83:
                    5c:35:54:ff:0f:fd:56:5a:34:2d:f5:77:98:3b:f2:
                    6d:82:41:3f:53:e4:be:ec:fb:2a:99:c3:c6:10:e4:
                    25:99:a2:dd:e9:81:f7:6d:24:15:d1:74:8d:cd:47:
                    17:2c:38:cf:7a:94:b8:1e:4a:47:65:bd:c8:4f:67:
                    5c:3b:6c:17:f3:fb:16:af:42:8b:12:e2:57:99:51:
                    64:77:a2:32:b5:24:b0:f5:1b
                Exponent: 65537 (0x10001)
    Signature Algorithm: sha1WithRSAEncryption
         16:19:6c:c2:77:23:bb:9f:c5:47:9f:7f:a5:5e:29:e4:7c:55:
         38:73:f6:8b:30:cd:8a:b4:0b:a5:f2:6a:47:10:41:cd:7e:45:
         0c:10:26:4a:92:5c:dd:f9:bc:93:94:0d:c8:89:7a:6d:fa:6f:
         55:07:dd:6a:64:8c:81:de:11:c7:2f:ee:e6:9e:42:26:7a:e3:
         a5:72:bf:a8:8e:84:84:af:79:7b:28:e5:a0:74:c3:e4:4a:5f:
         91:38:5f:50:51:86:76:1a:84:46:b9:0a:15:35:55:8d:af:1c:
         ca:d1:7c:c3:ef:09:f9:25:37:37:e4:54:d9:5e:12:01:1c:aa:
         0e:dd
-----BEGIN CERTIFICATE-----
MIICHTCCAYagAwIBAwIEANnqgTANBgkqhkiG9w0BAQUFADBTMRUwEwYDVQQDEwxC
MEZBRUJEOUVBODExDzANBgNVBAsTBlJWMTIwVzEcMBoGA1UEChMTQ2lzY28gU3lz
dGVtcywgSW5jLjELMAkGA1UEBhMCVVMwHhcNMDkwMzEzMDI0MDA2WhcNMTkwMzEx
MDI0MDA2WjBTMRUwEwYDVQQDEwxCMEZBRUJEOUVBODExDzANBgNVBAsTBlJWMTIw
VzEcMBoGA1UEChMTQ2lzY28gU3lzdGVtcywgSW5jLjELMAkGA1UEBhMCVVMwgZ8w
DQYJKoZIhvcNAQEBBQADgY0AMIGJAoGBAPPq9QQq5pJfJFMTpUWjnqKljwhBtM+2
AyWUpAIxXTJ133FlK+mPp9gkk+uDXDVU/w/9Vlo0LfV3mDvybYJBP1Pkvuz7KpnD
xhDkJZmi3emB920kFdF0jc1HFyw4z3qUuB5KR2W9yE9nXDtsF/P7Fq9CixLiV5lR
ZHeiMrUksPUbAgMBAAEwDQYJKoZIhvcNAQEFBQADgYEAFhlswncju5/FR59/pV4p
5HxVOHP2izDNirQLpfJqRxBBzX5FDBAmSpJc3fm8k5QNyIl6bfpvVQfdamSMgd4R
xy/u5p5CJnrjpXK/qI6EhK95eyjloHTD5EpfkThfUFGGdhqERrkKFTVVja8cytF8
w+8J+SU3N+RU2V4SARyqDt0=
-----END CERTIFICATE-----
