Certificate:
    Data:
        Version: 3 (0x2)
        Serial Number: 18008675309 (0x4316693ed)
    Signature Algorithm: sha256WithRSAEncryption
        Issuer: C = US, O = Mother Nature, OU = Everything, CN = Mother Nature
        Validity
            Not Before: Jun 29 19:28:50 2016 GMT
            Not After : Sep 10 19:28:50 2016 GMT
        Subject: C = CN, O = Extreme Discord, OU = Chaos, L = Tallahassee, ST = FL, street = 3210 Holly Mill Run, postalCode = 30062, CN = 192.168.1.1
        Subject Public Key Info:
            Public Key Algorithm: rsaEncryption
                Public-Key: (2048 bit)
                Modulus:
                    00:d7:de:e1:4f:2a:c3:ba:46:7c:a4:fb:9c:1f:61:
                    a2:46:0f:4a:bb:d6:cc:81:07:8a:c9:2a:e1:73:f2:
                    a5:da:2f:7b:95:a2:b7:ac:fc:a0:f8:59:55:0d:48:
                    6e:8b:8b:6c:29:b5:5b:1a:9b:d1:df:18:db:f9:a5:
                    aa:0e:5c:cb:b1:23:59:7d:16:ca:5a:5b:df:4f:fa:
                    49:d0:fc:24:d9:73:9e:39:0f:0b:06:f1:1d:7e:e6:
                    b0:98:8d:0b:90:41:4d:d4:7f:12:53:18:68:11:67:
                    fc:6c:4e:db:bf:03:d9:07:1c:bb:0c:e9:65:f7:6a:
                    99:f9:f1:6d:04:cb:a6:09:18:cb:1b:cc:f0:5e:c7:
                    d4:65:43:b8:81:7d:b0:22:66:68:c6:19:de:c0:4c:
                    ee:0a:d7:59:74:f8:71:ad:68:e7:7f:44:c1:1a:09:
                    6e:31:41:5b:1d:95:b0:57:c3:8e:e9:3f:93:0a:be:
                    fe:f2:2c:e9:09:38:f0:c0:cc:42:53:fe:a9:ee:74:
                    01:b4:20:06:f2:6f:eb:f0:c6:a1:97:b6:2c:2c:c5:
                    5a:ea:5e:95:94:6d:7d:c8:b5:9e:a7:5f:85:a2:bc:
                    fb:8a:70:1b:8d:90:b1:c0:87:4f:30:4c:dd:5e:07:
                    b1:df:28:eb:9d:14:01:3e:09:fb:02:2b:d3:b4:48:
                    2d:19
                Exponent: 65537 (0x10001)
        X509v3 extensions:
            X509v3 Key Usage: critical
                Digital Signature, Key Encipherment
            X509v3 Extended Key Usage: 
                TLS Web Client Authentication, TLS Web Server Authentication
            X509v3 Basic Constraints: critical
                CA:FALSE
            X509v3 Authority Key Identifier: 
                keyid:01:02:03

            Authority Information Access: 
                OCSP - URI:http://theca.net/ocsp
                CA Issuers - URI:http://theca.net/totallythecert.crt

            X509v3 Certificate Policies: 
                Policy: 2.23.140.1.2.2

            X509v3 Subject Key Identifier: 
                04:03:02:01
            X509v3 Subject Alternative Name: 
                DNS:*.gov.us, DNS:gov.us
    Signature Algorithm: sha256WithRSAEncryption
         8d:8d:98:c3:d2:c2:4b:79:1a:04:8a:30:5d:01:ff:c0:24:f1:
         cb:62:9b:4a:94:1e:79:8f:4d:0a:bc:a8:d8:a8:c7:e9:30:31:
         79:8f:f6:c4:e9:45:1e:a0:7e:05:ea:5e:d7:03:7f:0a:b6:0c:
         6f:f5:38:5a:6f:93:14:72:94:0e:eb:63:17:81:b5:fb:17:4b:
         7f:87:e5:6e:ce:9d:89:42:df:8a:08:9f:d8:43:9e:aa:f3:93:
         f7:c7:07:5c:9d:6b:c1:be:6d:34:68:43:dc:fc:0e:8d:98:c2:
         a6:e7:8f:1b:de:de:5f:d4:60:54:1d:87:8d:8a:7b:d6:b5:24:
         69:40:73:aa:61:11:a9:dd:a9:32:3f:71:4c:4a:95:08:49:0d:
         6d:16:04:70:80:e6:45:ae:6e:ce:7d:46:3c:6c:9b:7e:8a:cc:
         e0:3f:b4:07:b9:4a:77:9d:9d:ed:5f:7f:92:d4:b2:85:97:dd:
         3a:42:50:9b:9f:61:00:cb:15:8d:c4:55:2e:a7:5e:a1:fd:e4:
         fa:70:70:af:ea:23:bf:e9:bd:26:79:08:74:7c:30:57:c6:3f:
         d6:81:54:a8:a5:81:23:bd:34:5b:43:10:8b:06:9c:88:03:1a:
         90:05:76:1c:86:cf:37:49:02:d5:1d:73:4e:91:5c:b1:2a:55:
         78:e1:e5:4b
-----BEGIN CERTIFICATE-----
MIIEZjCCA06gAwIBAgIFBDFmk+0wDQYJKoZIhvcNAQELBQAwUjELMAkGA1UEBhMC
VVMxFjAUBgNVBAoTDU1vdGhlciBOYXR1cmUxEzARBgNVBAsTCkV2ZXJ5dGhpbmcx
FjAUBgNVBAMTDU1vdGhlciBOYXR1cmUwHhcNMTYwNjI5MTkyODUwWhcNMTYwOTEw
MTkyODUwWjCBnjELMAkGA1UEBhMCQ04xGDAWBgNVBAoTD0V4dHJlbWUgRGlzY29y
ZDEOMAwGA1UECxMFQ2hhb3MxFDASBgNVBAcTC1RhbGxhaGFzc2VlMQswCQYDVQQI
EwJGTDEcMBoGA1UECRMTMzIxMCBIb2xseSBNaWxsIFJ1bjEOMAwGA1UEERMFMzAw
NjIxFDASBgNVBAMTCzE5Mi4xNjguMS4xMIIBIjANBgkqhkiG9w0BAQEFAAOCAQ8A
MIIBCgKCAQEA197hTyrDukZ8pPucH2GiRg9Ku9bMgQeKySrhc/Kl2i97laK3rPyg
+FlVDUhui4tsKbVbGpvR3xjb+aWqDlzLsSNZfRbKWlvfT/pJ0Pwk2XOeOQ8LBvEd
fuawmI0LkEFN1H8SUxhoEWf8bE7bvwPZBxy7DOll92qZ+fFtBMumCRjLG8zwXsfU
ZUO4gX2wImZoxhnewEzuCtdZdPhxrWjnf0TBGgluMUFbHZWwV8OO6T+TCr7+8izp
CTjwwMxCU/6p7nQBtCAG8m/r8Mahl7YsLMVa6l6VlG19yLWep1+Forz7inAbjZCx
wIdPMEzdXgex3yjrnRQBPgn7AivTtEgtGQIDAQABo4H1MIHyMA4GA1UdDwEB/wQE
AwIFoDAdBgNVHSUEFjAUBggrBgEFBQcDAgYIKwYBBQUHAwEwDAYDVR0TAQH/BAIw
ADAOBgNVHSMEBzAFgAMBAgMwYgYIKwYBBQUHAQEEVjBUMCEGCCsGAQUFBzABhhVo
dHRwOi8vdGhlY2EubmV0L29jc3AwLwYIKwYBBQUHMAKGI2h0dHA6Ly90aGVjYS5u
ZXQvdG90YWxseXRoZWNlcnQuY3J0MBMGA1UdIAQMMAowCAYGZ4EMAQICMA0GA1Ud
DgQGBAQEAwIBMBsGA1UdEQQUMBKCCCouZ292LnVzggZnb3YudXMwDQYJKoZIhvcN
AQELBQADggEBAI2NmMPSwkt5GgSKMF0B/8Ak8ctim0qUHnmPTQq8qNiox+kwMXmP
9sTpRR6gfgXqXtcDfwq2DG/1OFpvkxRylA7rYxeBtfsXS3+H5W7OnYlC34oIn9hD
nqrzk/fHB1yda8G+bTRoQ9z8Do2Ywqbnjxve3l/UYFQdh42Ke9a1JGlAc6phEand
qTI/cUxKlQhJDW0WBHCA5kWubs59Rjxsm36KzOA/tAe5Snedne1ff5LUsoWX3TpC
UJufYQDLFY3EVS6nXqH95PpwcK/qI7/pvSZ5CHR8MFfGP9aBVKilgSO9NFtDEIsG
nIgDGpAFdhyGzzdJAtUdc06RXLEqVXjh5Us=
-----END CERTIFICATE-----
