Certificate:
    Data:
        Version: 3 (0x2)
        Serial Number: 1103047300 (0x41bf2a84)
    Signature Algorithm: sha256WithRSAEncryption
        Issuer: C = it, O = Banca d'Italia, OU = Servizi di certificazione dei sistemi informatici
        Validity
            Not Before: May 30 09:06:22 2014 GMT
            Not After : May 30 09:36:22 2019 GMT
        Subject: C = it, O = Banca d'Italia, OU = Servizi di certificazione dei sistemi informatici, CN = auth2.bancaditalia.it
        Subject Public Key Info:
            Public Key Algorithm: rsaEncryption
                Public-Key: (2048 bit)
                Modulus:
                    00:ce:ab:1e:59:64:51:32:18:3c:44:dc:5c:5b:d2:
                    61:99:14:64:05:8d:7e:53:43:75:bb:e8:f7:b7:29:
                    14:81:09:12:cc:e2:a0:4d:9a:5d:25:0c:42:e5:cb:
                    c3:02:ce:78:c5:13:46:a2:7f:b9:bb:89:bf:a2:53:
                    fd:10:8e:09:51:77:ff:07:67:cd:2d:4f:2c:68:89:
                    c2:e2:ab:a8:ef:d9:c3:64:63:2d:e1:3e:a6:fc:64:
                    4d:13:72:d3:41:3b:a4:d9:9b:49:5b:e2:96:42:d7:
                    b4:5c:b3:70:03:94:33:24:db:54:ab:30:a8:17:39:
                    f1:27:73:e1:99:32:e7:ed:62:5a:23:c3:21:04:67:
                    c4:ec:a0:54:15:d9:a2:5e:3e:cf:20:95:cf:0e:21:
                    9f:6e:eb:dc:5b:64:60:d7:55:86:7e:4a:26:38:0f:
                    36:57:fa:da:f2:c3:f7:9f:9d:be:20:8c:3e:0c:6b:
                    56:b5:be:48:8f:c0:bd:d5:7a:df:0a:b7:84:06:9b:
                    b2:60:ba:3b:57:33:a7:e4:25:f9:6b:0f:76:17:0e:
                    89:de:d7:7a:04:64:ac:f9:85:a0:9c:2f:c6:ac:9d:
                    95:a9:ab:05:e8:62:aa:b4:7b:1a:40:96:72:8b:3c:
                    9e:cf:5f:da:7c:81:5c:b2:2f:a4:19:58:fa:2a:2c:
                    40:b3
                Exponent: 65537 (0x10001)
        X509v3 extensions:
            X509v3 Key Usage: 
                Digital Signature, Key Encipherment
            X509v3 Extended Key Usage: 
                TLS Web Server Authentication
            X509v3 Certificate Policies: 
                Policy: 1.3.76.38.1.2.1
                  CPS: http://www.bancaditalia.it/footer/firmadigitale/CP-CPS-with-SSL-cert.pdf

            X509v3 Subject Alternative Name: 
                DNS:auth2.bancaditalia.it, DNS:auth.bancaditalia.it, DNS:wf2-vauth2.webfarm.bancaditalia.it, DNS:wf2-vauth.webfarm.bancaditalia.it
            X509v3 CRL Distribution Points: 

                Full Name:
                  URI:http://www.certificazione.bancaditalia.it/crl/crlapp1.crl
                  URI:ldap://ldap.certificazione.bancaditalia.it/cn=WinCombined1,ou=Servizi%20di%20certificazione%20dei%20sistemi%20informatici,o=Banca%20d'Italia,c=it?certificateRevocationList

                Full Name:
                  DirName:C = it, O = Banca d'Italia, OU = Servizi di certificazione dei sistemi informatici, CN = CRL2

            X509v3 Authority Key Identifier: 
                keyid:58:60:9B:56:41:C4:14:1F:38:1E:4A:44:D0:4E:B4:F3:67:D9:62:D8

            X509v3 Subject Key Identifier: 
                27:CC:34:BA:B2:EC:08:4B:27:55:7C:5E:F8:09:1D:80:EC:03:DF:D8
    Signature Algorithm: sha256WithRSAEncryption
         13:c1:9f:73:3c:2d:91:9d:8a:aa:28:4e:a3:ec:89:17:e9:1f:
         b6:5c:d0:8c:b3:31:ee:9a:3f:49:67:2f:f8:b1:28:7d:e5:bd:
         07:73:09:3a:85:f1:1d:f4:eb:ae:14:ca:00:d8:c1:ad:ec:fa:
         4a:fb:70:3f:2e:10:69:37:33:0a:ba:fa:59:5b:76:c3:40:4f:
         5a:65:62:b6:4d:d8:1b:24:94:35:96:57:3b:1f:d1:51:b2:2a:
         f8:c9:cb:00:c7:b5:e3:e1:9d:2c:82:9d:ad:48:62:fc:0d:67:
         fd:96:94:f1:99:4b:e6:59:8e:17:a7:b7:5c:9e:a4:61:bd:7c:
         3e:ba:10:72:fe:2a:5d:f2:39:d3:59:5b:76:c5:39:34:62:04:
         d1:3c:44:fa:c0:53:ce:c1:b6:23:2e:50:22:20:93:36:7e:aa:
         8f:c5:e0:f3:ae:b6:0f:39:b2:85:98:2b:a9:d0:68:eb:c0:78:
         1e:bc:93:b2:77:37:93:11:79:a6:2c:d9:0a:49:ba:95:59:b2:
         e1:c4:b8:b1:48:40:47:26:2b:6a:2f:75:72:b7:f5:3f:eb:b5:
         d3:82:90:6a:59:da:6b:0d:71:dc:98:0b:74:8a:a8:f1:cd:70:
         15:4c:cf:01:1a:46:48:f1:6d:86:57:5e:17:6a:c8:8b:27:46:
         9f:89:77:31:3c:49:be:1c:2d:05:e1:ea:1a:48:92:87:98:0a:
         db:fc:7c:c5:c3:2d:d4:bf:db:f6:e3:93:45:f4:9d:36:91:3b:
         47:38:96:e2:2f:b6:52:76:ef:b7:df:ab:2b:33:e0:02:d0:d8:
         69:20:f3:ea:e2:8c:96:74:76:1c:b7:43:b6:6b:9a:4d:a1:16:
         dc:71:3c:e2:04:88:20:79:d5:a3:cb:87:2f:a9:87:11:92:0e:
         47:73:e6:2e:50:46:94:1a:ee:10:11:8f:7f:b7:98:9f:7b:8c:
         a0:cf:8b:2a:f5:b6:a0:3b:4d:c2:e5:91:2a:b7:45:88:2c:b5:
         f1:8e:3a:41:71:f9:df:ea:f6:63:dd:a6:79:8a:13:12:48:ce:
         78:3a:57:87:f5:81:2f:e8:73:ef:79:a5:cf:d1:f9:6d:d5:d8:
         87:b3:06:6c:bf:d2:53:eb:ff:72:71:a8:3a:fc:a8:aa:a9:c6:
         95:8b:51:e4:df:cb:64:c3:43:ed:6a:48:1e:25:ae:e9:e8:da:
         90:7b:83:c5:8c:1b:dc:cc:e7:2f:cd:1e:26:78:b7:91:be:0a:
         5a:99:20:e9:63:2a:02:6a:7c:65:5e:54:fd:6a:61:6a:a6:21:
         ea:f6:c9:a1:fb:e9:dd:11:92:c5:37:fc:f5:7a:de:fa:ef:26:
         76:73:22:6b:b0:9a:7f:15
-----BEGIN CERTIFICATE-----
MIIHNTCCBR2gAwIBAgIEQb8qhDANBgkqhkiG9w0BAQsFADBiMQswCQYDVQQGEwJp
dDEXMBUGA1UEChMOQmFuY2EgZCdJdGFsaWExOjA4BgNVBAsTMVNlcnZpemkgZGkg
Y2VydGlmaWNhemlvbmUgZGVpIHNpc3RlbWkgaW5mb3JtYXRpY2kwHhcNMTQwNTMw
MDkwNjIyWhcNMTkwNTMwMDkzNjIyWjCBgjELMAkGA1UEBhMCaXQxFzAVBgNVBAoT
DkJhbmNhIGQnSXRhbGlhMTowOAYDVQQLEzFTZXJ2aXppIGRpIGNlcnRpZmljYXpp
b25lIGRlaSBzaXN0ZW1pIGluZm9ybWF0aWNpMR4wHAYDVQQDExVhdXRoMi5iYW5j
YWRpdGFsaWEuaXQwggEiMA0GCSqGSIb3DQEBAQUAA4IBDwAwggEKAoIBAQDOqx5Z
ZFEyGDxE3Fxb0mGZFGQFjX5TQ3W76Pe3KRSBCRLM4qBNml0lDELly8MCznjFE0ai
f7m7ib+iU/0QjglRd/8HZ80tTyxoicLiq6jv2cNkYy3hPqb8ZE0TctNBO6TZm0lb
4pZC17Rcs3ADlDMk21SrMKgXOfEnc+GZMuftYlojwyEEZ8TsoFQV2aJePs8glc8O
IZ9u69xbZGDXVYZ+SiY4DzZX+tryw/efnb4gjD4Ma1a1vkiPwL3Vet8Kt4QGm7Jg
ujtXM6fkJflrD3YXDone13oEZKz5haCcL8asnZWpqwXoYqq0expAlnKLPJ7PX9p8
gVyyL6QZWPoqLECzAgMBAAGjggLQMIICzDALBgNVHQ8EBAMCBaAwEwYDVR0lBAww
CgYIKwYBBQUHAwEwawYDVR0gBGQwYjBgBgYrTCYBAgEwVjBUBggrBgEFBQcCARZI
aHR0cDovL3d3dy5iYW5jYWRpdGFsaWEuaXQvZm9vdGVyL2Zpcm1hZGlnaXRhbGUv
Q1AtQ1BTLXdpdGgtU1NMLWNlcnQucGRmMH0GA1UdEQR2MHSCFWF1dGgyLmJhbmNh
ZGl0YWxpYS5pdIIUYXV0aC5iYW5jYWRpdGFsaWEuaXSCIndmMi12YXV0aDIud2Vi
ZmFybS5iYW5jYWRpdGFsaWEuaXSCIXdmMi12YXV0aC53ZWJmYXJtLmJhbmNhZGl0
YWxpYS5pdDCCAXoGA1UdHwSCAXEwggFtMIHvoIHsoIHphjlodHRwOi8vd3d3LmNl
cnRpZmljYXppb25lLmJhbmNhZGl0YWxpYS5pdC9jcmwvY3JsYXBwMS5jcmyGgats
ZGFwOi8vbGRhcC5jZXJ0aWZpY2F6aW9uZS5iYW5jYWRpdGFsaWEuaXQvY249V2lu
Q29tYmluZWQxLG91PVNlcnZpemklMjBkaSUyMGNlcnRpZmljYXppb25lJTIwZGVp
JTIwc2lzdGVtaSUyMGluZm9ybWF0aWNpLG89QmFuY2ElMjBkJ0l0YWxpYSxjPWl0
P2NlcnRpZmljYXRlUmV2b2NhdGlvbkxpc3QweaB3oHWkczBxMQswCQYDVQQGEwJp
dDEXMBUGA1UEChMOQmFuY2EgZCdJdGFsaWExOjA4BgNVBAsTMVNlcnZpemkgZGkg
Y2VydGlmaWNhemlvbmUgZGVpIHNpc3RlbWkgaW5mb3JtYXRpY2kxDTALBgNVBAMT
BENSTDIwHwYDVR0jBBgwFoAUWGCbVkHEFB84HkpE0E6082fZYtgwHQYDVR0OBBYE
FCfMNLqy7AhLJ1V8XvgJHYDsA9/YMA0GCSqGSIb3DQEBCwUAA4ICAQATwZ9zPC2R
nYqqKE6j7IkX6R+2XNCMszHumj9JZy/4sSh95b0Hcwk6hfEd9OuuFMoA2MGt7PpK
+3A/LhBpNzMKuvpZW3bDQE9aZWK2TdgbJJQ1llc7H9FRsir4ycsAx7Xj4Z0sgp2t
SGL8DWf9lpTxmUvmWY4Xp7dcnqRhvXw+uhBy/ipd8jnTWVt2xTk0YgTRPET6wFPO
wbYjLlAiIJM2fqqPxeDzrrYPObKFmCup0GjrwHgevJOydzeTEXmmLNkKSbqVWbLh
xLixSEBHJitqL3Vyt/U/67XTgpBqWdprDXHcmAt0iqjxzXAVTM8BGkZI8W2GV14X
asiLJ0afiXcxPEm+HC0F4eoaSJKHmArb/HzFwy3Uv9v245NF9J02kTtHOJbiL7ZS
du+336srM+AC0NhpIPPq4oyWdHYct0O2a5pNoRbccTziBIggedWjy4cvqYcRkg5H
c+YuUEaUGu4QEY9/t5ife4ygz4sq9bagO03C5ZEqt0WILLXxjjpBcfnf6vZj3aZ5
ihMSSM54OleH9YEv6HPveaXP0flt1diHswZsv9JT6/9ycag6/KiqqcaVi1Hk38tk
w0PtakgeJa7p6NqQe4PFjBvczOcvzR4meLeRvgpamSDpYyoCanxlXlT9amFqpiHq
9smh++ndEZLFN/z1et767yZ2cyJrsJp/FQ==
-----END CERTIFICATE-----
