Certificate:
    Data:
        Version: 3 (0x2)
        Serial Number: 14615016 (0xdf01e8)
    Signature Algorithm: sha256WithRSAEncryption
        Issuer: C = US, O = Mother Nature, OU = Everything, CN = Mother Nature
        Validity
            Not Before: Aug  4 19:41:12 2016 GMT
            Not After : Oct 16 19:41:12 2016 GMT
        Subject: C = US, ST = FL, L = Tallahassee, street = 3210 Holly Mill Run, postalCode = 30062, O = Extreme Discord, OU = Chaos, CN = gov.us
        Subject Public Key Info:
            Public Key Algorithm: rsaEncryption
                Public-Key: (2048 bit)
                Modulus:
                    00:b0:68:a5:65:bb:c3:b1:45:ed:37:cc:33:a4:2d:
                    26:3d:c0:8a:3c:2d:62:99:92:13:41:38:67:72:df:
                    77:1a:8b:8e:2a:aa:32:54:83:47:93:49:45:41:7f:
                    5d:be:3b:74:30:2a:df:f2:7f:b1:60:cf:aa:5b:be:
                    06:39:5e:a9:da:51:39:ca:89:fd:a7:7f:96:3e:3f:
                    30:4a:51:1d:5e:aa:c6:a9:54:ef:d3:19:f2:66:a8:
                    7a:f2:89:b6:51:b5:74:13:2f:28:59:98:b1:b9:5a:
                    87:8d:56:55:7f:cd:14:bd:90:c1:02:33:3a:9f:41:
                    e9:ab:3a:80:ba:e9:3e:3f:b1:36:e5:9e:83:44:a2:
                    4e:be:8b:b3:66:d9:a6:d5:a9:6d:96:91:93:4f:b2:
                    cd:eb:3c:3b:76:4f:e4:88:3a:81:73:60:23:37:6f:
                    5f:d1:9d:47:f7:84:93:0d:bf:f1:e9:73:93:84:cb:
                    91:e5:80:5f:6c:e4:d6:75:9f:66:52:b9:da:b5:08:
                    41:8a:cc:34:08:92:51:1d:54:94:24:39:4c:12:e8:
                    d7:a4:3f:19:14:67:91:8f:7b:c3:ed:5e:d5:b0:6e:
                    9b:c2:99:4a:1c:4d:26:8d:08:63:e2:94:f7:05:15:
                    2d:b2:02:d0:35:93:66:76:71:47:d0:06:1e:84:67:
                    0d:37
                Exponent: 65537 (0x10001)
        X509v3 extensions:
            X509v3 Basic Constraints: critical
                CA:FALSE
            X509v3 Authority Key Identifier: 
                keyid:01:02:03

            X509v3 CRL Distribution Points: 

                Full Name:
                  URI:http://theca.net/crlpoint

            X509v3 Subject Key Identifier: 
                04:03:02:01
            X509v3 Subject Alternative Name: 
                DNS:*.gov.us, DNS:gov.us
            X509v3 Key Usage: 
                Data Encipherment, Key Agreement
            X509v3 Extended Key Usage: 
                TLS Web Server Authentication, 1.2.840.113635.100.4.3, Signing KDC Response, Any Extended Key Usage
            X509v3 Certificate Policies: 
                Policy: 2.16.840.1.114414.1.7.23.1
                  CPS: http://certificates.starfieldtech.com/repository/

    Signature Algorithm: sha256WithRSAEncryption
         b6:4d:7b:26:85:df:6d:d1:6e:3d:eb:87:bf:4f:76:72:69:1b:
         37:a0:ae:26:99:b8:8c:ec:ce:2a:15:54:2b:cc:a2:7e:cd:05:
         02:a6:96:8c:69:04:03:bd:b6:8c:4d:cf:41:72:b8:3b:ea:5e:
         ab:82:66:77:e0:21:b9:e5:39:40:43:7d:e3:4e:5e:2e:bb:86:
         56:73:df:e2:35:1e:08:db:37:71:40:5a:97:16:b6:2b:91:fe:
         75:f1:e7:f7:eb:ac:4a:56:cf:ef:a3:9f:4f:89:58:5d:b5:0e:
         dd:7b:9b:38:5d:9a:83:e8:8e:ed:3b:03:84:0a:09:aa:16:bb:
         8d:23:df:ad:bb:de:97:fc:b2:d5:77:37:21:54:1f:87:ff:c9:
         5b:33:e5:42:af:cd:ef:f4:c8:08:4b:18:92:45:e6:f5:8e:ef:
         76:76:14:29:e4:e1:15:a6:82:e4:5c:ab:73:03:ad:d8:3f:87:
         78:53:5a:61:02:67:1b:6a:d8:4b:8d:a4:72:3a:b0:69:92:c5:
         16:df:f9:6a:bd:71:f5:32:15:e6:59:26:25:19:25:61:4b:4b:
         4e:0b:48:21:e9:a7:ea:92:64:5d:2d:66:47:d1:3b:ac:f1:07:
         34:80:90:f6:f6:a9:5a:8b:fd:45:a0:75:03:bb:7f:86:72:1b:
         10:2e:2f:c2
-----BEGIN CERTIFICATE-----
MIIEfTCCA2WgAwIBAgIEAN8B6DANBgkqhkiG9w0BAQsFADBSMQswCQYDVQQGEwJV
UzEWMBQGA1UEChMNTW90aGVyIE5hdHVyZTETMBEGA1UECxMKRXZlcnl0aGluZzEW
MBQGA1UEAxMNTW90aGVyIE5hdHVyZTAeFw0xNjA4MDQxOTQxMTJaFw0xNjEwMTYx
OTQxMTJaMIGZMQswCQYDVQQGEwJVUzELMAkGA1UECBMCRkwxFDASBgNVBAcTC1Rh
bGxhaGFzc2VlMRwwGgYDVQQJExMzMjEwIEhvbGx5IE1pbGwgUnVuMQ4wDAYDVQQR
EwUzMDA2MjEYMBYGA1UEChMPRXh0cmVtZSBEaXNjb3JkMQ4wDAYDVQQLEwVDaGFv
czEPMA0GA1UEAxMGZ292LnVzMIIBIjANBgkqhkiG9w0BAQEFAAOCAQ8AMIIBCgKC
AQEAsGilZbvDsUXtN8wzpC0mPcCKPC1imZITQThnct93GouOKqoyVINHk0lFQX9d
vjt0MCrf8n+xYM+qW74GOV6p2lE5yon9p3+WPj8wSlEdXqrGqVTv0xnyZqh68om2
UbV0Ey8oWZixuVqHjVZVf80UvZDBAjM6n0HpqzqAuuk+P7E25Z6DRKJOvouzZtmm
1altlpGTT7LN6zw7dk/kiDqBc2AjN29f0Z1H94STDb/x6XOThMuR5YBfbOTWdZ9m
UrnatQhBisw0CJJRHVSUJDlMEujXpD8ZFGeRj3vD7V7VsG6bwplKHE0mjQhj4pT3
BRUtsgLQNZNmdnFH0AYehGcNNwIDAQABo4IBETCCAQ0wDAYDVR0TAQH/BAIwADAO
BgNVHSMEBzAFgAMBAgMwKgYDVR0fBCMwITAfoB2gG4YZaHR0cDovL3RoZWNhLm5l
dC9jcmxwb2ludDANBgNVHQ4EBgQEBAMCATAbBgNVHREEFDASgggqLmdvdi51c4IG
Z292LnVzMAsGA1UdDwQEAwIBGDAtBgNVHSUEJjAkBggrBgEFBQcDAQYJKoZIhvdj
ZAQDBgcrBgEFAgMFBgRVHSUAMFkGA1UdIARSMFAwTgYLYIZIAYb9bgEHFwEwPzA9
BggrBgEFBQcCARYxaHR0cDovL2NlcnRpZmljYXRlcy5zdGFyZmllbGR0ZWNoLmNv
bS9yZXBvc2l0b3J5LzANBgkqhkiG9w0BAQsFAAOCAQEAtk17JoXfbdFuPeuHv092
cmkbN6CuJpm4jOzOKhVUK8yifs0FAqaWjGkEA722jE3PQXK4O+peq4Jmd+AhueU5
QEN9405eLruGVnPf4jUeCNs3cUBalxa2K5H+dfHn9+usSlbP76OfT4lYXbUO3Xub
OF2ag+iO7TsDhAoJqha7jSPfrbvel/yy1Xc3IVQfh//JWzPlQq/N7/TICEsYkkXm
9Y7vdnYUKeThFaaC5FyrcwOt2D+HeFNaYQJnG2rYS42kcjqwaZLFFt/5ar1x9TIV
5lkmJRklYUtLTgtIIemn6pJkXS1mR9E7rPEHNICQ9vapWov9RaB1A7t/hnIbEC4v
wg==
-----END CERTIFICATE-----
