Certificate:
    Data:
        Version: 3 (0x2)
        Serial Number: 1 (0x1)
    Signature Algorithm: sha256WithRSAEncryption
        Issuer: CN=Mother Nature, OU=Everything, O=Mother Nature/postalCode=postalcode, C=US, GN=givenname, SN=surname
        Validity
            Not Before: Aug 29 21:35:40 2017 GMT
            Not After : Nov 10 22:35:40 2017 GMT
        Subject: CN=gov.us, OU=Chaos, O=org/street=3210 Holly Mill Run, ST=province/postalCode=30062, GN=hello, SN=surname
        Subject Public Key Info:
            Public Key Algorithm: rsaEncryption
                Public-Key: (2048 bit)
                Modulus:
                    00:cb:d1:c5:0d:2d:e7:58:22:48:e2:6b:ca:f4:a7:
                    b0:a2:77:94:de:1f:e2:5f:ee:03:66:2d:1a:70:a4:
                    4b:0f:e4:40:a2:d3:f0:ad:35:61:c7:ac:79:ff:00:
                    e2:eb:2e:12:6a:29:cd:c7:86:15:b3:0d:4e:57:f8:
                    2a:f3:91:3c:44:10:82:97:55:e8:ea:b9:17:d4:a8:
                    16:bf:e2:b0:ed:7a:39:6a:0a:3c:7c:20:1e:10:d0:
                    b0:1c:95:fe:32:12:64:1e:a3:56:f2:b3:1b:08:a7:
                    87:76:ed:56:d9:29:97:84:4a:81:35:e0:51:1f:63:
                    ee:f8:c4:b3:ed:f1:d2:63:8f:3b:13:23:6d:e4:bd:
                    bb:3e:21:3d:13:a3:33:d0:41:26:95:84:d0:c8:63:
                    52:9b:10:55:af:de:b4:24:3d:5b:66:0e:1f:60:f3:
                    a7:a0:ba:a0:6d:79:9f:fd:76:c0:f7:96:dc:86:13:
                    6e:3c:95:c0:6a:ec:41:96:e7:01:95:55:ef:4c:d4:
                    b2:36:ae:d5:6e:9b:31:15:27:7d:81:86:36:d0:5f:
                    07:32:16:6d:1a:ee:34:9d:8c:b0:c8:2e:45:24:a4:
                    0a:be:5c:2c:6c:bb:c7:8a:a6:5b:3c:7c:bd:72:32:
                    56:65:2a:89:af:0e:70:26:d4:0f:3f:6f:3d:80:54:
                    e7:43
                Exponent: 65537 (0x10001)
        X509v3 extensions:
            X509v3 Key Usage: critical
                Digital Signature, Key Encipherment
            X509v3 Extended Key Usage: 
                TLS Web Client Authentication, TLS Web Server Authentication
            X509v3 Basic Constraints: critical
                CA:TRUE
            X509v3 Authority Key Identifier: 
                keyid:01:02:03

            Authority Information Access: 
                OCSP - URI:http://theca.net/ocsp
                CA Issuers - URI:http://theca.net/totallythecert.crt

            X509v3 Subject Alternative Name: 
                DNS:hell,o.com.uk
            X509v3 Certificate Policies: 
                Policy: X509v3 Any Policy

            X509v3 Name Constraints: 
                Permitted:
                  DirName: 

    Signature Algorithm: sha256WithRSAEncryption
         a1:4e:e9:1e:bb:73:dd:47:c7:48:40:43:b1:2f:94:74:a4:ad:
         61:c0:f9:10:c3:75:16:8f:20:f0:35:2f:1f:ad:29:24:f0:ec:
         e5:41:38:eb:47:1b:05:9c:89:4c:ad:5d:fe:e3:35:09:d9:a9:
         d2:bb:f5:bb:1e:03:b6:fd:28:79:eb:47:a2:bc:6c:48:4c:30:
         6c:85:f3:71:48:cc:30:1b:a3:1d:fe:90:38:dc:f8:44:e3:5d:
         34:4f:c8:d7:3f:7c:e4:80:24:ff:9f:3c:08:92:76:3f:bd:bc:
         62:a0:27:a6:ef:6f:1c:85:9c:fe:67:a6:05:33:bc:ac:3f:e6:
         52:b1:bb:ab:11:43:fc:8d:d2:8e:b3:5b:b1:c5:3a:c6:31:5a:
         d8:06:57:94:a2:21:41:71:a0:d2:40:a3:cd:ae:c7:d0:28:8a:
         74:b6:4a:9f:35:39:db:10:30:d3:e7:be:0a:4e:3d:1d:cd:84:
         cc:de:87:f1:42:6f:77:5a:bd:5d:0f:a6:04:92:b9:57:c2:19:
         6a:5c:7c:ea:0b:5a:fa:bd:d4:c2:3f:32:02:2d:da:2c:44:23:
         bc:34:f8:da:0e:9f:c4:d6:a3:76:bc:70:56:81:e7:e0:d5:d1:
         4a:a4:d5:de:e1:a9:92:dc:2e:95:9b:8a:df:48:c1:22:b5:9f:
         66:8b:db:45
-----BEGIN CERTIFICATE-----
MIIEljCCA4CgAwIBAgIBATALBgkqhkiG9w0BAQswgY8xFjAUBgNVBAMTDU1vdGhl
ciBOYXR1cmUxEzARBgNVBAsTCkV2ZXJ5dGhpbmcxFjAUBgNVBAoTDU1vdGhlciBO
YXR1cmUxEzARBgNVBBETCnBvc3RhbGNvZGUxCzAJBgNVBAYTAlVTMRIwEAYDVQQq
EwlnaXZlbm5hbWUxEDAOBgNVBAQTB3N1cm5hbWUxADAeFw0xNzA4MjkyMTM1NDBa
Fw0xNzExMTAyMjM1NDBaMIGUMQ8wDQYDVQQDEwZnb3YudXMxDjAMBgNVBAsTBUNo
YW9zMQwwCgYDVQQKEwNvcmcxHDAaBgNVBAkTEzMyMTAgSG9sbHkgTWlsbCBSdW4x
ETAPBgNVBAgTCHByb3ZpbmNlMQ4wDAYDVQQREwUzMDA2MjEOMAwGA1UEKhMFaGVs
bG8xEDAOBgNVBAQTB3N1cm5hbWUxADCCASIwDQYJKoZIhvcNAQEBBQADggEPADCC
AQoCggEBAMvRxQ0t51giSOJryvSnsKJ3lN4f4l/uA2YtGnCkSw/kQKLT8K01Yces
ef8A4usuEmopzceGFbMNTlf4KvORPEQQgpdV6Oq5F9SoFr/isO16OWoKPHwgHhDQ
sByV/jISZB6jVvKzGwinh3btVtkpl4RKgTXgUR9j7vjEs+3x0mOPOxMjbeS9uz4h
PROjM9BBJpWE0MhjUpsQVa/etCQ9W2YOH2Dzp6C6oG15n/12wPeW3IYTbjyVwGrs
QZbnAZVV70zUsjau1W6bMRUnfYGGNtBfBzIWbRruNJ2MsMguRSSkCr5cLGy7x4qm
Wzx8vXIyVmUqia8OcCbUDz9vPYBU50MCAwEAAaOB+TCB9jAOBgNVHQ8BAf8EBAMC
AKAwHQYDVR0lBBYwFAYIKwYBBQUHAwIGCCsGAQUFBwMBMA8GA1UdEwEB/wQFMAMB
Af8wDgYDVR0jBAcwBYADAQIDMGIGCCsGAQUFBwEBBFYwVDAhBggrBgEFBQcwAYYV
aHR0cDovL3RoZWNhLm5ldC9vY3NwMC8GCCsGAQUFBzAChiNodHRwOi8vdGhlY2Eu
bmV0L3RvdGFsbHl0aGVjZXJ0LmNydDAYBgNVHREEETAPgg1oZWxsLG8uY29tLnVr
MBEGA1UdIAQKMAgwBgYEVR0gADATBgNVHR4EDDAKoAgwBqQEMAIxADALBgkqhkiG
9w0BAQsDggEBAKFO6R67c91Hx0hAQ7EvlHSkrWHA+RDDdRaPIPA1Lx+tKSTw7OVB
OOtHGwWciUytXf7jNQnZqdK79bseA7b9KHnrR6K8bEhMMGyF83FIzDAbox3+kDjc
+ETjXTRPyNc/fOSAJP+fPAiSdj+9vGKgJ6bvbxyFnP5npgUzvKw/5lKxu6sRQ/yN
0o6zW7HFOsYxWtgGV5SiIUFxoNJAo82ux9AoinS2Sp81OdsQMNPnvgpOPR3NhMze
h/FCb3davV0PpgSSuVfCGWpcfOoLWvq91MI/MgIt2ixEI7w0+NoOn8TWo3a8cFaB
5+DV0Uqk1d7hqZLcLpWbit9IwSK1n2aL20U=
-----END CERTIFICATE-----
