Certificate:
    Data:
        Version: 3 (0x2)
        Serial Number: 1 (0x1)
    Signature Algorithm: sha256WithRSAEncryption
        Issuer: CN=Mother Nature, OU=Everything, O=Mother Nature/postalCode=postalcode, C=US, GN=givenname, SN=surname
        Validity
            Not Before: Aug 25 22:56:15 2017 GMT
            Not After : Nov  6 23:56:15 2017 GMT
        Subject: CN=gov.us, OU=Chaos, O=org/street=3210 Holly Mill Run, ST=province/postalCode=30062, GN=hello, SN=surname
        Subject Public Key Info:
            Public Key Algorithm: rsaEncryption
                Public-Key: (2048 bit)
                Modulus:
                    00:b5:35:b8:90:01:26:33:84:11:38:9a:5c:47:29:
                    05:b5:b8:e9:1b:ad:c4:fc:de:e3:02:ed:55:80:f7:
                    93:dd:4a:24:d5:e5:c1:eb:4d:cc:f0:f9:6d:bd:3b:
                    3c:22:cc:d1:60:e3:b8:71:50:81:fb:d7:51:83:95:
                    2e:4a:78:02:d6:fc:2d:3e:cf:fc:ae:b4:3e:19:54:
                    8e:82:84:36:31:ae:9c:5c:ac:37:8a:64:1e:9c:0b:
                    ef:d0:0c:12:fb:91:f3:65:84:ea:e2:dd:72:e2:28:
                    c4:c7:66:b2:05:b0:f8:26:3e:cb:d9:53:37:e1:8b:
                    e1:00:80:af:c9:61:cd:7f:f8:02:2a:53:26:d3:ab:
                    d7:23:c3:c8:87:65:a6:04:40:48:c2:b6:69:24:e6:
                    08:06:e9:b8:fb:84:b3:99:28:da:a7:86:78:f4:32:
                    7d:7c:13:a3:15:68:24:1d:c6:ca:78:ad:6c:ae:0e:
                    7f:00:9e:cf:47:16:7e:09:9a:c9:9b:48:29:1c:13:
                    fc:31:23:06:84:0a:c6:93:18:22:07:c9:b7:88:2c:
                    f4:66:b2:2a:cf:1f:6c:67:c9:91:2c:81:d8:ed:34:
                    fb:b2:33:35:f2:a3:f0:03:4b:36:c6:34:03:c4:55:
                    a8:97:a2:e1:0e:cd:7f:b2:df:ea:60:09:3b:3f:c6:
                    ae:bf
                Exponent: 65537 (0x10001)
        X509v3 extensions:
            X509v3 Key Usage: critical
                Digital Signature, Key Encipherment
            X509v3 Extended Key Usage: 
                TLS Web Client Authentication, TLS Web Server Authentication
            X509v3 Basic Constraints: critical
                CA:TRUE
            X509v3 Authority Key Identifier: 
                keyid:01:02:03

            Authority Information Access: 
                OCSP - URI:http://theca.net/ocsp
                CA Issuers - URI:http://theca.net/totallythecert.crt

            X509v3 Subject Alternative Name: 
                DNS:sur_ya.co.uk
            X509v3 Certificate Policies: 
                Policy: X509v3 Any Policy

    Signature Algorithm: sha256WithRSAEncryption
         27:01:cb:f4:ff:7f:65:33:5b:f4:13:98:84:9b:c7:16:dc:db:
         26:97:10:eb:78:6d:cd:0b:14:63:35:63:cc:d3:60:e6:4e:7e:
         c9:c6:fc:e5:a7:a7:35:0c:54:7f:f2:e5:3b:9b:8c:9f:40:2c:
         e1:b7:02:0c:f4:fa:4b:9a:be:9c:70:e5:1f:9c:43:1b:26:0f:
         12:87:7a:6d:1a:8d:31:81:5d:0c:1b:26:43:14:a8:b1:9d:19:
         39:5e:e0:8d:4a:57:1e:69:1d:39:f6:25:12:e3:58:e0:a2:14:
         ea:2a:26:4f:39:1e:f3:63:e0:07:30:a1:4f:1f:b2:60:94:21:
         1f:eb:38:b8:4e:0c:e7:65:1c:97:29:15:62:c2:d8:15:ff:1d:
         71:82:47:65:ab:6e:fa:c7:ca:57:af:75:85:a1:66:01:50:c2:
         ca:e8:67:4c:26:45:68:5a:65:24:d2:41:75:36:52:0c:dc:1b:
         17:65:ed:90:4d:0c:4c:1e:c8:fb:73:40:9a:c2:f7:96:3a:f1:
         99:8b:5d:25:1b:2b:3b:71:95:2c:10:17:e8:ed:af:77:0a:dd:
         01:9b:66:07:55:7a:8f:11:87:9b:4d:28:88:89:8b:eb:4c:2e:
         85:a5:39:97:b3:d5:21:d7:7c:4d:19:5c:71:ca:f2:f5:1c:65:
         73:49:16:21
-----BEGIN CERTIFICATE-----
MIIEgDCCA2qgAwIBAgIBATALBgkqhkiG9w0BAQswgY8xFjAUBgNVBAMTDU1vdGhl
ciBOYXR1cmUxEzARBgNVBAsTCkV2ZXJ5dGhpbmcxFjAUBgNVBAoTDU1vdGhlciBO
YXR1cmUxEzARBgNVBBETCnBvc3RhbGNvZGUxCzAJBgNVBAYTAlVTMRIwEAYDVQQq
EwlnaXZlbm5hbWUxEDAOBgNVBAQTB3N1cm5hbWUxADAeFw0xNzA4MjUyMjU2MTVa
Fw0xNzExMDYyMzU2MTVaMIGUMQ8wDQYDVQQDEwZnb3YudXMxDjAMBgNVBAsTBUNo
YW9zMQwwCgYDVQQKEwNvcmcxHDAaBgNVBAkTEzMyMTAgSG9sbHkgTWlsbCBSdW4x
ETAPBgNVBAgTCHByb3ZpbmNlMQ4wDAYDVQQREwUzMDA2MjEOMAwGA1UEKhMFaGVs
bG8xEDAOBgNVBAQTB3N1cm5hbWUxADCCASIwDQYJKoZIhvcNAQEBBQADggEPADCC
AQoCggEBALU1uJABJjOEETiaXEcpBbW46RutxPze4wLtVYD3k91KJNXlwetNzPD5
bb07PCLM0WDjuHFQgfvXUYOVLkp4Atb8LT7P/K60PhlUjoKENjGunFysN4pkHpwL
79AMEvuR82WE6uLdcuIoxMdmsgWw+CY+y9lTN+GL4QCAr8lhzX/4AipTJtOr1yPD
yIdlpgRASMK2aSTmCAbpuPuEs5ko2qeGePQyfXwToxVoJB3GynitbK4OfwCez0cW
fgmayZtIKRwT/DEjBoQKxpMYIgfJt4gs9GayKs8fbGfJkSyB2O00+7IzNfKj8ANL
NsY0A8RVqJei4Q7Nf7Lf6mAJOz/Grr8CAwEAAaOB4zCB4DAOBgNVHQ8BAf8EBAMC
AKAwHQYDVR0lBBYwFAYIKwYBBQUHAwIGCCsGAQUFBwMBMA8GA1UdEwEB/wQFMAMB
Af8wDgYDVR0jBAcwBYADAQIDMGIGCCsGAQUFBwEBBFYwVDAhBggrBgEFBQcwAYYV
aHR0cDovL3RoZWNhLm5ldC9vY3NwMC8GCCsGAQUFBzAChiNodHRwOi8vdGhlY2Eu
bmV0L3RvdGFsbHl0aGVjZXJ0LmNydDAXBgNVHREEEDAOggxzdXJfeWEuY28udWsw
EQYDVR0gBAowCDAGBgRVHSAAMAsGCSqGSIb3DQEBCwOCAQEAJwHL9P9/ZTNb9BOY
hJvHFtzbJpcQ63htzQsUYzVjzNNg5k5+ycb85aenNQxUf/LlO5uMn0As4bcCDPT6
S5q+nHDlH5xDGyYPEod6bRqNMYFdDBsmQxSosZ0ZOV7gjUpXHmkdOfYlEuNY4KIU
6iomTzke82PgBzChTx+yYJQhH+s4uE4M52UclykVYsLYFf8dcYJHZatu+sfKV691
haFmAVDCyuhnTCZFaFplJNJBdTZSDNwbF2XtkE0MTB7I+3NAmsL3ljrxmYtdJRsr
O3GVLBAX6O2vdwrdAZtmB1V6jxGHm00oiImL60wuhaU5l7PVIdd8TRlcccry9Rxl
c0kWIQ==
-----END CERTIFICATE-----
