Certificate:
    Data:
        Version: 3 (0x2)
        Serial Number: 4576871883209316246 (0x3f8450ba7d2a1796)
    Signature Algorithm: ecdsa-with-SHA384
        Issuer: C=ES, O=StartCom CA, OU=StartCom Certification Authority, CN=StartCom CC2 ICA
        Validity
            Not Before: Sep 11 10:52:26 2017 GMT
            Not After : Sep 11 03:02:00 2019 GMT
        Subject: emailAddress=a.korniychuk@dtpark.com.ua, CN=a.korniychuk@dtpark.com.ua
        Subject Public Key Info:
            Public Key Algorithm: rsaEncryption
                Public-Key: (4096 bit)
                Modulus:
                    00:f5:a4:22:50:35:38:fc:5a:84:3d:aa:6e:e5:da:
                    57:52:8c:61:9f:46:9d:7c:b2:a5:55:67:9d:a7:44:
                    7b:31:d2:6e:18:0b:53:2c:65:ce:21:62:6c:13:56:
                    0d:3d:90:c8:2e:34:32:1c:b9:17:3a:2e:b9:ab:61:
                    de:cf:25:e7:72:a9:33:13:71:bf:56:01:84:54:41:
                    a4:57:03:81:69:13:bf:3a:79:9e:09:ff:47:d3:1c:
                    ac:d9:47:c9:c7:d1:4b:c3:b5:0b:a4:35:1b:32:b5:
                    d5:05:ff:d4:7a:8b:9f:14:f6:5c:6f:65:92:a1:7c:
                    e3:72:f3:3d:df:51:ea:72:e6:17:c9:e4:c2:30:f9:
                    94:9b:d4:0d:0e:fd:95:23:6b:a2:6f:2e:e3:77:91:
                    05:e7:0f:36:a5:7c:3b:ae:7f:1b:0b:82:aa:f8:f5:
                    b7:a5:2c:f1:51:1b:9a:d7:5f:dc:07:c4:31:7f:23:
                    1c:cc:49:e8:20:3a:61:2c:14:d4:6d:a3:54:21:e1:
                    ab:c6:f6:6a:7c:d6:b6:d2:c1:82:fb:5b:12:6f:31:
                    2e:d3:f1:c7:6b:51:30:ab:a3:d4:29:32:ab:60:04:
                    00:1c:e2:e0:d9:c8:a9:f2:8a:6c:2e:5c:8d:ff:1d:
                    46:e1:f0:39:c3:f4:57:4f:c0:9c:b0:03:02:1b:25:
                    d1:4e:79:57:11:32:62:66:00:2b:9b:cf:b4:c6:bd:
                    de:ca:8c:d3:6d:7c:cf:53:31:6f:81:5a:8a:98:3e:
                    19:95:10:c5:4f:95:93:b1:5c:8c:d7:4b:c0:65:7e:
                    2e:2f:cc:d4:f6:05:b2:4b:8e:7f:6d:e7:e2:23:30:
                    0d:de:fb:7f:ad:7c:6d:03:51:7a:00:75:50:cc:b7:
                    6b:9f:b0:8b:f0:f1:95:4c:93:48:14:6e:cb:93:f8:
                    b6:c7:91:e4:20:6b:44:7a:79:6b:1b:0f:e1:0a:a5:
                    7b:b9:63:e3:bf:54:d7:76:4c:f0:1f:69:85:69:cc:
                    a5:a2:8a:ec:65:39:eb:28:73:71:f3:67:88:bf:fd:
                    98:3a:82:44:e8:81:79:c6:64:b1:5e:25:b0:63:39:
                    ab:44:d2:95:19:72:b2:86:fc:8d:17:09:d5:c3:4e:
                    41:87:9c:b8:2d:24:4c:ed:61:d5:a5:77:95:19:71:
                    57:df:70:8a:17:be:20:c1:b0:64:ec:30:e8:a3:b1:
                    7c:59:a0:dc:a3:b7:11:2f:f1:1f:bc:e5:20:63:57:
                    71:9e:c3:83:0e:c3:4e:f1:95:77:b6:9b:5d:38:04:
                    5a:2d:03:e8:25:14:b1:4c:9c:f4:f9:7e:6f:61:65:
                    48:a2:77:d4:15:e6:5e:4f:d9:25:26:4c:af:65:c9:
                    b8:fc:b9
                Exponent: 65537 (0x10001)
        X509v3 extensions:
            Authority Information Access: 
                CA Issuers - URI:http://aia.startcomca.com/certs/sca.client22.crt
                OCSP - URI:http://ocsp.startcomca.com

            X509v3 Subject Key Identifier: 
                CC:0F:E8:E1:28:54:9C:F7:25:ED:D3:B6:6B:C7:64:E7:E4:26:C4:C4
            X509v3 Basic Constraints: 
                CA:FALSE
            X509v3 Authority Key Identifier: 
                keyid:3C:B7:C6:DE:89:26:5A:57:03:89:D0:AF:30:6A:46:0E:0C:EA:DC:66

            X509v3 Certificate Policies: 
                Policy: 1.3.6.1.4.1.23223.2.2.1
                  CPS: http://www.startcomca.com/policy

            X509v3 CRL Distribution Points: 

                Full Name:
                  URI:http://crl.startcomca.com/sca-client22.crl

            X509v3 Key Usage: critical
                Digital Signature, Key Encipherment, Data Encipherment
            X509v3 Extended Key Usage: 
                TLS Web Client Authentication, E-mail Protection
            X509v3 Subject Alternative Name: 
                email:a.korniychuk@dtpark.com.ua
    Signature Algorithm: ecdsa-with-SHA384
         30:65:02:30:2b:9f:22:5d:77:95:66:53:98:18:a4:04:d5:05:
         c8:f2:a9:57:fb:91:5f:db:99:c7:d9:90:02:fb:dc:de:f8:94:
         30:b6:1c:f4:1c:6b:d5:7a:8f:37:e4:1c:7d:3a:67:70:02:31:
         00:8a:78:9f:e3:a8:f3:ee:0e:d3:8d:6f:8e:8d:3e:23:c6:18:
         8f:26:18:41:81:dd:b7:12:10:14:ff:a0:dc:d9:b2:42:8e:c8:
         b1:99:c2:d0:38:09:2a:5b:eb:61:52:c3:ce
-----BEGIN CERTIFICATE-----
MIIFPjCCBMSgAwIBAgIIP4RQun0qF5YwCgYIKoZIzj0EAwMwaTELMAkGA1UEBhMC
RVMxFDASBgNVBAoMC1N0YXJ0Q29tIENBMSkwJwYDVQQLDCBTdGFydENvbSBDZXJ0
aWZpY2F0aW9uIEF1dGhvcml0eTEZMBcGA1UEAwwQU3RhcnRDb20gQ0MyIElDQTAe
Fw0xNzA5MTExMDUyMjZaFw0xOTA5MTEwMzAyMDBaMFAxKTAnBgkqhkiG9w0BCQEW
GmEua29ybml5Y2h1a0BkdHBhcmsuY29tLnVhMSMwIQYDVQQDDBphLmtvcm5peWNo
dWtAZHRwYXJrLmNvbS51YTCCAiIwDQYJKoZIhvcNAQEBBQADggIPADCCAgoCggIB
APWkIlA1OPxahD2qbuXaV1KMYZ9GnXyypVVnnadEezHSbhgLUyxlziFibBNWDT2Q
yC40Mhy5Fzouuath3s8l53KpMxNxv1YBhFRBpFcDgWkTvzp5ngn/R9McrNlHycfR
S8O1C6Q1GzK11QX/1HqLnxT2XG9lkqF843LzPd9R6nLmF8nkwjD5lJvUDQ79lSNr
om8u43eRBecPNqV8O65/GwuCqvj1t6Us8VEbmtdf3AfEMX8jHMxJ6CA6YSwU1G2j
VCHhq8b2anzWttLBgvtbEm8xLtPxx2tRMKuj1Ckyq2AEABzi4NnIqfKKbC5cjf8d
RuHwOcP0V0/AnLADAhsl0U55VxEyYmYAK5vPtMa93sqM0218z1Mxb4Faipg+GZUQ
xU+Vk7FcjNdLwGV+Li/M1PYFskuOf23n4iMwDd77f618bQNRegB1UMy3a5+wi/Dx
lUyTSBRuy5P4tseR5CBrRHp5axsP4Qqle7lj479U13ZM8B9phWnMpaKK7GU56yhz
cfNniL/9mDqCROiBecZksV4lsGM5q0TSlRlysob8jRcJ1cNOQYecuC0kTO1h1aV3
lRlxV99wihe+IMGwZOww6KOxfFmg3KO3ES/xH7zlIGNXcZ7Dgw7DTvGVd7abXTgE
Wi0D6CUUsUyc9Pl+b2FlSKJ31BXmXk/ZJSZMr2XJuPy5AgMBAAGjggGiMIIBnjB0
BggrBgEFBQcBAQRoMGYwPAYIKwYBBQUHMAKGMGh0dHA6Ly9haWEuc3RhcnRjb21j
YS5jb20vY2VydHMvc2NhLmNsaWVudDIyLmNydDAmBggrBgEFBQcwAYYaaHR0cDov
L29jc3Auc3RhcnRjb21jYS5jb20wHQYDVR0OBBYEFMwP6OEoVJz3Je3TtmvHZOfk
JsTEMAkGA1UdEwQCMAAwHwYDVR0jBBgwFoAUPLfG3okmWlcDidCvMGpGDgzq3GYw
SAYDVR0gBEEwPzA9BgsrBgEEAYG1NwICATAuMCwGCCsGAQUFBwIBFiBodHRwOi8v
d3d3LnN0YXJ0Y29tY2EuY29tL3BvbGljeTA7BgNVHR8ENDAyMDCgLqAshipodHRw
Oi8vY3JsLnN0YXJ0Y29tY2EuY29tL3NjYS1jbGllbnQyMi5jcmwwDgYDVR0PAQH/
BAQDAgSwMB0GA1UdJQQWMBQGCCsGAQUFBwMCBggrBgEFBQcDBDAlBgNVHREEHjAc
gRphLmtvcm5peWNodWtAZHRwYXJrLmNvbS51YTAKBggqhkjOPQQDAwNoADBlAjAr
nyJdd5VmU5gYpATVBcjyqVf7kV/bmcfZkAL73N74lDC2HPQca9V6jzfkHH06Z3AC
MQCKeJ/jqPPuDtONb46NPiPGGI8mGEGB3bcSEBT/oNzZskKOyLGZwtA4CSpb62FS
w84=
-----END CERTIFICATE-----
