Certificate:
    Data:
        Version: 3 (0x2)
        Serial Number: 1 (0x1)
    Signature Algorithm: sha256WithRSAEncryption
        Issuer: CN=Mother Nature, OU=Everything, O=Mother Nature/postalCode=postalcode, C=US, GN=givenname, SN=surname
        Validity
            Not Before: Aug 25 20:47:57 2017 GMT
            Not After : Nov  6 21:47:57 2017 GMT
        Subject: CN=gov.us, OU=Chaos, O=org/street=3210 Holly Mill Run, ST=province/postalCode=30062, GN=hello, SN=surname
        Subject Public Key Info:
            Public Key Algorithm: rsaEncryption
                Public-Key: (2048 bit)
                Modulus:
                    00:d0:08:70:0d:da:0a:38:cb:6d:76:bd:13:64:53:
                    75:5f:d2:d5:5b:4a:42:ec:a9:6e:90:ff:20:7a:b5:
                    28:5e:bc:c1:16:f1:94:29:7e:77:2a:64:61:a6:37:
                    98:0f:69:ed:be:bd:4b:0e:1e:71:e5:7f:3a:13:a5:
                    d1:ce:92:f8:5e:94:42:7c:af:bc:92:8e:c4:09:7f:
                    b5:e1:bc:12:2d:e6:b0:a9:fa:43:2b:d2:e8:fc:22:
                    a7:ae:f7:47:bd:8e:77:45:43:2f:fa:fe:86:50:2c:
                    1b:c7:9f:55:83:63:5d:4e:d3:79:a7:52:95:ba:1a:
                    87:e6:05:0e:1e:1a:c0:d2:fb:b3:c6:3e:1a:40:89:
                    5e:18:fd:bb:5f:0a:0c:93:da:1b:af:17:5c:dc:73:
                    b9:fb:0c:e0:f6:9a:45:bd:0a:ed:52:f4:1a:7e:ce:
                    06:d1:a2:53:3a:f3:56:ad:d6:c7:41:3e:fb:c0:a5:
                    f3:6c:2d:3a:bf:ad:22:13:d6:5e:db:bf:16:84:98:
                    cb:c9:4a:3f:79:fc:51:c0:a1:36:a4:e0:dc:8c:95:
                    b3:5a:4f:ed:73:64:4c:42:74:36:e0:54:32:01:bf:
                    6c:d4:4c:0e:ea:a6:1d:f4:4b:ed:dd:88:6e:9c:cd:
                    9b:27:b4:61:8a:9c:f7:f1:a3:77:0f:62:43:9e:68:
                    a2:61
                Exponent: 65537 (0x10001)
        X509v3 extensions:
            X509v3 Key Usage: critical
                Digital Signature, Key Encipherment
            X509v3 Extended Key Usage: 
                TLS Web Client Authentication, TLS Web Server Authentication
            X509v3 Basic Constraints: critical
                CA:TRUE
            X509v3 Authority Key Identifier: 
                keyid:01:02:03

            Authority Information Access: 
                OCSP - URI:http://theca.net/ocsp
                CA Issuers - URI:http://theca.net/totallythecert.crt

            X509v3 Subject Alternative Name: 
                DNS:surya.shabalaba
            X509v3 Certificate Policies: 
                Policy: X509v3 Any Policy

    Signature Algorithm: sha256WithRSAEncryption
         43:74:a4:c1:44:e8:13:b9:e4:5d:f4:26:94:26:c6:ea:56:d0:
         88:43:49:10:11:e2:8a:13:2f:ba:1a:2e:65:77:97:4c:c8:2d:
         50:7d:7b:83:30:bf:63:4d:8b:f4:40:1d:09:c6:96:7e:5e:ae:
         48:54:b7:a7:cc:08:c5:7d:eb:97:4d:c0:37:3c:9f:18:ed:28:
         a3:26:9b:c8:86:b6:3f:2e:15:d7:86:9b:80:ef:b3:2f:4c:fb:
         6b:9e:c9:a7:a0:1b:26:35:56:ee:89:62:4c:ef:5e:e4:62:1c:
         0a:2b:7c:18:75:b9:e1:d8:e0:cb:58:57:6d:05:65:c5:b7:fe:
         3a:18:74:17:fc:fc:76:95:79:4c:9f:8f:9d:a6:01:13:96:c5:
         d0:ab:64:4e:ba:9f:bd:7d:45:46:8d:80:95:dc:54:4c:48:20:
         6a:5a:6b:7f:b9:0b:44:a5:be:d6:e4:8c:0d:df:f4:fe:ee:2a:
         58:01:d6:e3:ee:64:a3:27:4b:6b:0a:2c:fc:ee:1a:92:cb:b5:
         da:54:b9:17:e4:5b:6b:13:49:3c:dd:87:6b:49:58:6d:02:48:
         a0:5c:47:06:3f:01:43:74:10:79:1f:f8:14:f2:cf:52:ce:4c:
         a7:ef:98:d4:03:94:09:a1:2e:c2:76:f8:f5:d9:a7:22:73:8a:
         81:c8:e4:d9
Certificate:
    Data:
        Version: 3 (0x2)
        Serial Number: 1 (0x1)
    Signature Algorithm: sha256WithRSAEncryption
        Issuer: CN=Mother Nature, OU=Everything, O=Mother Nature/postalCode=postalcode, C=US, GN=givenname, SN=surname
        Validity
            Not Before: Aug 25 20:47:57 2017 GMT
            Not After : Nov  6 21:47:57 2017 GMT
        Subject: CN=gov.us, OU=Chaos, O=org/street=3210 Holly Mill Run, ST=province/postalCode=30062, GN=hello, SN=surname
        Subject Public Key Info:
            Public Key Algorithm: rsaEncryption
                Public-Key: (2048 bit)
                Modulus:
                    00:d0:08:70:0d:da:0a:38:cb:6d:76:bd:13:64:53:
                    75:5f:d2:d5:5b:4a:42:ec:a9:6e:90:ff:20:7a:b5:
                    28:5e:bc:c1:16:f1:94:29:7e:77:2a:64:61:a6:37:
                    98:0f:69:ed:be:bd:4b:0e:1e:71:e5:7f:3a:13:a5:
                    d1:ce:92:f8:5e:94:42:7c:af:bc:92:8e:c4:09:7f:
                    b5:e1:bc:12:2d:e6:b0:a9:fa:43:2b:d2:e8:fc:22:
                    a7:ae:f7:47:bd:8e:77:45:43:2f:fa:fe:86:50:2c:
                    1b:c7:9f:55:83:63:5d:4e:d3:79:a7:52:95:ba:1a:
                    87:e6:05:0e:1e:1a:c0:d2:fb:b3:c6:3e:1a:40:89:
                    5e:18:fd:bb:5f:0a:0c:93:da:1b:af:17:5c:dc:73:
                    b9:fb:0c:e0:f6:9a:45:bd:0a:ed:52:f4:1a:7e:ce:
                    06:d1:a2:53:3a:f3:56:ad:d6:c7:41:3e:fb:c0:a5:
                    f3:6c:2d:3a:bf:ad:22:13:d6:5e:db:bf:16:84:98:
                    cb:c9:4a:3f:79:fc:51:c0:a1:36:a4:e0:dc:8c:95:
                    b3:5a:4f:ed:73:64:4c:42:74:36:e0:54:32:01:bf:
                    6c:d4:4c:0e:ea:a6:1d:f4:4b:ed:dd:88:6e:9c:cd:
                    9b:27:b4:61:8a:9c:f7:f1:a3:77:0f:62:43:9e:68:
                    a2:61
                Exponent: 65537 (0x10001)
        X509v3 extensions:
            X509v3 Key Usage: critical
                Digital Signature, Key Encipherment
            X509v3 Extended Key Usage: 
                TLS Web Client Authentication, TLS Web Server Authentication
            X509v3 Basic Constraints: critical
                CA:TRUE
            X509v3 Authority Key Identifier: 
                keyid:01:02:03

            Authority Information Access: 
                OCSP - URI:http://theca.net/ocsp
                CA Issuers - URI:http://theca.net/totallythecert.crt

            X509v3 Subject Alternative Name: 
                DNS:surya.shabalaba
            X509v3 Certificate Policies: 
                Policy: X509v3 Any Policy

    Signature Algorithm: sha256WithRSAEncryption
         43:74:a4:c1:44:e8:13:b9:e4:5d:f4:26:94:26:c6:ea:56:d0:
         88:43:49:10:11:e2:8a:13:2f:ba:1a:2e:65:77:97:4c:c8:2d:
         50:7d:7b:83:30:bf:63:4d:8b:f4:40:1d:09:c6:96:7e:5e:ae:
         48:54:b7:a7:cc:08:c5:7d:eb:97:4d:c0:37:3c:9f:18:ed:28:
         a3:26:9b:c8:86:b6:3f:2e:15:d7:86:9b:80:ef:b3:2f:4c:fb:
         6b:9e:c9:a7:a0:1b:26:35:56:ee:89:62:4c:ef:5e:e4:62:1c:
         0a:2b:7c:18:75:b9:e1:d8:e0:cb:58:57:6d:05:65:c5:b7:fe:
         3a:18:74:17:fc:fc:76:95:79:4c:9f:8f:9d:a6:01:13:96:c5:
         d0:ab:64:4e:ba:9f:bd:7d:45:46:8d:80:95:dc:54:4c:48:20:
         6a:5a:6b:7f:b9:0b:44:a5:be:d6:e4:8c:0d:df:f4:fe:ee:2a:
         58:01:d6:e3:ee:64:a3:27:4b:6b:0a:2c:fc:ee:1a:92:cb:b5:
         da:54:b9:17:e4:5b:6b:13:49:3c:dd:87:6b:49:58:6d:02:48:
         a0:5c:47:06:3f:01:43:74:10:79:1f:f8:14:f2:cf:52:ce:4c:
         a7:ef:98:d4:03:94:09:a1:2e:c2:76:f8:f5:d9:a7:22:73:8a:
         81:c8:e4:d9
-----BEGIN CERTIFICATE-----
MIIEgzCCA22gAwIBAgIBATALBgkqhkiG9w0BAQswgY8xFjAUBgNVBAMTDU1vdGhl
ciBOYXR1cmUxEzARBgNVBAsTCkV2ZXJ5dGhpbmcxFjAUBgNVBAoTDU1vdGhlciBO
YXR1cmUxEzARBgNVBBETCnBvc3RhbGNvZGUxCzAJBgNVBAYTAlVTMRIwEAYDVQQq
EwlnaXZlbm5hbWUxEDAOBgNVBAQTB3N1cm5hbWUxADAeFw0xNzA4MjUyMDQ3NTda
Fw0xNzExMDYyMTQ3NTdaMIGUMQ8wDQYDVQQDEwZnb3YudXMxDjAMBgNVBAsTBUNo
YW9zMQwwCgYDVQQKEwNvcmcxHDAaBgNVBAkTEzMyMTAgSG9sbHkgTWlsbCBSdW4x
ETAPBgNVBAgTCHByb3ZpbmNlMQ4wDAYDVQQREwUzMDA2MjEOMAwGA1UEKhMFaGVs
bG8xEDAOBgNVBAQTB3N1cm5hbWUxADCCASIwDQYJKoZIhvcNAQEBBQADggEPADCC
AQoCggEBANAIcA3aCjjLbXa9E2RTdV/S1VtKQuypbpD/IHq1KF68wRbxlCl+dypk
YaY3mA9p7b69Sw4eceV/OhOl0c6S+F6UQnyvvJKOxAl/teG8Ei3msKn6QyvS6Pwi
p673R72Od0VDL/r+hlAsG8efVYNjXU7TeadSlboah+YFDh4awNL7s8Y+GkCJXhj9
u18KDJPaG68XXNxzufsM4PaaRb0K7VL0Gn7OBtGiUzrzVq3Wx0E++8Cl82wtOr+t
IhPWXtu/FoSYy8lKP3n8UcChNqTg3IyVs1pP7XNkTEJ0NuBUMgG/bNRMDuqmHfRL
7d2IbpzNmye0YYqc9/Gjdw9iQ55oomECAwEAAaOB5jCB4zAOBgNVHQ8BAf8EBAMC
AKAwHQYDVR0lBBYwFAYIKwYBBQUHAwIGCCsGAQUFBwMBMA8GA1UdEwEB/wQFMAMB
Af8wDgYDVR0jBAcwBYADAQIDMGIGCCsGAQUFBwEBBFYwVDAhBggrBgEFBQcwAYYV
aHR0cDovL3RoZWNhLm5ldC9vY3NwMC8GCCsGAQUFBzAChiNodHRwOi8vdGhlY2Eu
bmV0L3RvdGFsbHl0aGVjZXJ0LmNydDAaBgNVHREEEzARgg9zdXJ5YS5zaGFiYWxh
YmEwEQYDVR0gBAowCDAGBgRVHSAAMAsGCSqGSIb3DQEBCwOCAQEAQ3SkwUToE7nk
XfQmlCbG6lbQiENJEBHiihMvuhouZXeXTMgtUH17gzC/Y02L9EAdCcaWfl6uSFS3
p8wIxX3rl03ANzyfGO0ooyabyIa2Py4V14abgO+zL0z7a57Jp6AbJjVW7oliTO9e
5GIcCit8GHW54djgy1hXbQVlxbf+Ohh0F/z8dpV5TJ+PnaYBE5bF0KtkTrqfvX1F
Ro2AldxUTEggalprf7kLRKW+1uSMDd/0/u4qWAHW4+5koydLawos/O4aksu12lS5
F+RbaxNJPN2Ha0lYbQJIoFxHBj8BQ3QQeR/4FPLPUs5Mp++Y1AOUCaEuwnb49dmn
InOKgcjk2Q==
-----END CERTIFICATE-----
