Certificate:
    Data:
        Version: 3 (0x2)
        Serial Number: 1 (0x1)
    Signature Algorithm: sha256WithRSAEncryption
        Issuer: CN=Mother Nature, OU=Everything, O=Mother Nature/postalCode=postalcode, C=US, GN=givenname, SN=surname
        Validity
            Not Before: Aug 26 01:42:21 2017 GMT
            Not After : Nov  7 02:42:21 2017 GMT
        Subject: CN=gov.us, OU=Chaos, O=org/street=3210 Holly Mill Run, ST=province/postalCode=30062, GN=hello, SN=surname
        Subject Public Key Info:
            Public Key Algorithm: rsaEncryption
                Public-Key: (2048 bit)
                Modulus:
                    00:c8:84:06:34:8a:f9:d1:68:73:36:d2:9e:ed:ce:
                    84:cf:dc:bf:db:02:ae:74:87:1c:2f:24:80:e6:be:
                    09:18:59:3f:28:fa:aa:88:8a:db:b6:04:e4:04:8d:
                    a3:42:bb:90:3f:b5:4e:a7:06:6c:3c:9e:84:8d:1a:
                    d6:7b:4c:54:8b:94:21:83:68:c6:1c:57:86:6d:41:
                    e4:f7:89:90:1a:56:1a:a1:d9:f3:29:bb:16:18:34:
                    a3:df:ad:e0:6e:73:18:7d:29:4b:c4:f4:87:ad:d8:
                    5f:f5:af:33:77:e2:70:9e:c4:5f:08:bd:a2:a7:15:
                    69:7b:41:78:49:f4:52:90:82:76:a8:1e:01:1e:c9:
                    59:12:18:63:b6:9a:23:d1:0d:ce:de:e2:ee:38:25:
                    12:99:24:d4:05:a9:16:3a:83:5d:5e:8d:91:fc:6b:
                    36:f6:65:de:b5:f4:1c:b3:81:71:61:af:47:0d:6d:
                    74:ad:b5:6b:23:25:1c:dc:5c:8c:37:33:1a:95:05:
                    04:21:08:00:da:bb:75:96:24:64:3e:f3:6a:f5:56:
                    46:da:59:0b:41:7f:cd:6e:6c:73:f0:c3:6e:d3:a0:
                    3e:df:fe:8c:92:98:bd:96:64:78:c6:4c:35:96:14:
                    76:f2:ab:97:b4:52:75:13:88:59:29:a3:62:26:b8:
                    56:63
                Exponent: 65537 (0x10001)
        X509v3 extensions:
            X509v3 Key Usage: critical
                Digital Signature, Key Encipherment
            X509v3 Extended Key Usage: 
                TLS Web Client Authentication, TLS Web Server Authentication
            X509v3 Basic Constraints: critical
                CA:TRUE
            X509v3 Authority Key Identifier: 
                keyid:01:02:03

            Authority Information Access: 
                OCSP - URI:http://theca.net/ocsp
                CA Issuers - URI:http://theca.net/totallythecert.crt

            X509v3 Subject Alternative Name: 
                DNS:*.co.uk
            X509v3 Certificate Policies: 
                Policy: X509v3 Any Policy

    Signature Algorithm: sha256WithRSAEncryption
         22:ea:82:0d:ff:d6:e0:2e:b6:cb:aa:98:5d:e1:b3:36:ec:76:
         5f:63:da:b8:0a:a4:e3:37:95:85:c1:bf:91:c7:8f:be:0b:5b:
         b0:da:24:62:b6:34:3c:c5:76:b6:eb:08:60:57:dd:3f:31:c5:
         21:ba:9b:8b:da:26:e2:3a:6a:cc:4d:88:dd:67:e6:82:d5:4f:
         27:e4:71:3d:6b:6c:1c:f9:21:7e:2f:57:30:83:32:79:2c:c1:
         29:a8:0a:d6:58:b7:32:97:47:01:c8:b0:da:0d:27:af:d1:ad:
         9f:f3:5f:2f:e0:26:4a:22:71:59:5a:c1:5f:09:86:76:14:4e:
         54:d5:ac:9d:75:54:7f:5f:84:61:14:8a:4c:05:a1:d7:9a:6f:
         57:20:4c:56:8a:ec:83:c3:26:83:bb:4c:77:e3:9e:f4:04:9b:
         48:4c:95:43:f5:53:1f:a4:3c:3f:fb:f8:9a:53:65:79:92:96:
         ad:2b:c8:ba:be:65:96:fa:61:89:d4:5c:75:de:6b:22:54:0e:
         b1:ae:ca:80:6e:56:96:6c:2a:17:0d:72:b0:11:0c:eb:39:4a:
         d2:06:7f:cf:63:be:fe:f9:4b:95:53:85:44:1c:92:34:65:66:
         d8:02:a0:d3:81:fd:e4:67:8b:08:52:3d:b9:2b:7a:38:45:a3:
         30:72:7c:04
-----BEGIN CERTIFICATE-----
MIIEezCCA2WgAwIBAgIBATALBgkqhkiG9w0BAQswgY8xFjAUBgNVBAMTDU1vdGhl
ciBOYXR1cmUxEzARBgNVBAsTCkV2ZXJ5dGhpbmcxFjAUBgNVBAoTDU1vdGhlciBO
YXR1cmUxEzARBgNVBBETCnBvc3RhbGNvZGUxCzAJBgNVBAYTAlVTMRIwEAYDVQQq
EwlnaXZlbm5hbWUxEDAOBgNVBAQTB3N1cm5hbWUxADAeFw0xNzA4MjYwMTQyMjFa
Fw0xNzExMDcwMjQyMjFaMIGUMQ8wDQYDVQQDEwZnb3YudXMxDjAMBgNVBAsTBUNo
YW9zMQwwCgYDVQQKEwNvcmcxHDAaBgNVBAkTEzMyMTAgSG9sbHkgTWlsbCBSdW4x
ETAPBgNVBAgTCHByb3ZpbmNlMQ4wDAYDVQQREwUzMDA2MjEOMAwGA1UEKhMFaGVs
bG8xEDAOBgNVBAQTB3N1cm5hbWUxADCCASIwDQYJKoZIhvcNAQEBBQADggEPADCC
AQoCggEBAMiEBjSK+dFoczbSnu3OhM/cv9sCrnSHHC8kgOa+CRhZPyj6qoiK27YE
5ASNo0K7kD+1TqcGbDyehI0a1ntMVIuUIYNoxhxXhm1B5PeJkBpWGqHZ8ym7Fhg0
o9+t4G5zGH0pS8T0h63YX/WvM3ficJ7EXwi9oqcVaXtBeEn0UpCCdqgeAR7JWRIY
Y7aaI9ENzt7i7jglEpkk1AWpFjqDXV6NkfxrNvZl3rX0HLOBcWGvRw1tdK21ayMl
HNxcjDczGpUFBCEIANq7dZYkZD7zavVWRtpZC0F/zW5sc/DDbtOgPt/+jJKYvZZk
eMZMNZYUdvKrl7RSdROIWSmjYia4VmMCAwEAAaOB3jCB2zAOBgNVHQ8BAf8EBAMC
AKAwHQYDVR0lBBYwFAYIKwYBBQUHAwIGCCsGAQUFBwMBMA8GA1UdEwEB/wQFMAMB
Af8wDgYDVR0jBAcwBYADAQIDMGIGCCsGAQUFBwEBBFYwVDAhBggrBgEFBQcwAYYV
aHR0cDovL3RoZWNhLm5ldC9vY3NwMC8GCCsGAQUFBzAChiNodHRwOi8vdGhlY2Eu
bmV0L3RvdGFsbHl0aGVjZXJ0LmNydDASBgNVHREECzAJggcqLmNvLnVrMBEGA1Ud
IAQKMAgwBgYEVR0gADALBgkqhkiG9w0BAQsDggEBACLqgg3/1uAutsuqmF3hszbs
dl9j2rgKpOM3lYXBv5HHj74LW7DaJGK2NDzFdrbrCGBX3T8xxSG6m4vaJuI6asxN
iN1n5oLVTyfkcT1rbBz5IX4vVzCDMnkswSmoCtZYtzKXRwHIsNoNJ6/RrZ/zXy/g
JkoicVlawV8JhnYUTlTVrJ11VH9fhGEUikwFodeab1cgTFaK7IPDJoO7THfjnvQE
m0hMlUP1Ux+kPD/7+JpTZXmSlq0ryLq+ZZb6YYnUXHXeayJUDrGuyoBuVpZsKhcN
crARDOs5StIGf89jvv75S5VThUQckjRlZtgCoNOB/eRniwhSPbkrejhFozByfAQ=
-----END CERTIFICATE-----
