Certificate:
    Data:
        Version: 3 (0x2)
        Serial Number: 1 (0x1)
    Signature Algorithm: sha1WithRSAEncryption
        Issuer: CN=Mother Nature, OU=Everything, O=Mother Nature/postalCode=postalcode, C=US
        Validity
            Not Before: Sep  7 15:20:29 2017 GMT
            Not After : Nov  8 16:20:29 2017 GMT
        Subject: CN=?.jpmorgan.us, OU=Chaos, O=org/street=3210 Holly Mill Run, ST=province/postalCode=30062
        Subject Public Key Info:
            Public Key Algorithm: rsaEncryption
                Public-Key: (2048 bit)
                Modulus:
                    00:c1:62:a8:ab:35:ea:38:0b:e1:dd:5d:d4:b7:c3:
                    79:2c:66:4d:91:f3:5d:1d:da:ac:e5:97:07:6e:25:
                    85:c1:a1:cd:0e:08:77:bf:4f:3f:d0:05:91:34:fc:
                    62:2a:c2:ba:61:50:98:32:f6:eb:e3:3c:94:48:44:
                    58:7a:0c:ac:07:46:65:f1:2a:3f:3f:b0:f6:75:44:
                    4f:d1:6b:2e:9c:d6:b1:e4:66:a5:52:51:68:fb:43:
                    d8:42:dd:e0:8e:fe:e5:c5:64:6c:25:af:2e:4a:0d:
                    52:6c:cf:ad:d3:6b:bf:fa:63:c5:28:0f:d2:9a:0a:
                    de:1e:01:ab:56:63:d2:27:c6:e1:5b:06:57:15:4d:
                    26:3e:47:9c:c9:f8:e6:9c:89:97:70:70:cc:49:ba:
                    20:ed:7e:77:47:9c:b3:62:88:92:86:72:44:e5:d1:
                    14:ca:4a:a5:bf:78:39:32:c5:37:6d:c1:04:0a:e3:
                    a2:96:56:64:6c:c2:83:67:b3:6d:26:07:3e:30:45:
                    82:71:07:8c:e5:eb:55:86:76:dc:06:cf:23:e7:ad:
                    32:86:0a:7b:fb:94:45:90:45:56:db:91:4c:66:6a:
                    0c:bb:38:bd:19:dc:be:64:da:0c:7b:53:cd:e1:b8:
                    78:47:7f:b2:1c:16:3d:e1:2e:6d:0b:22:29:80:4f:
                    82:c5
                Exponent: 65537 (0x10001)
        X509v3 extensions:
            X509v3 Key Usage: critical
                Digital Signature, Key Encipherment, Certificate Sign
            X509v3 Extended Key Usage: 
                TLS Web Client Authentication, TLS Web Server Authentication
            X509v3 Basic Constraints: critical
                CA:FALSE
            X509v3 Authority Key Identifier: 
                keyid:01:02:03

            Authority Information Access: 
                OCSP - URI:http://theca.net/ocsp
                CA Issuers - URI:http://theca.net/totallythecert.crt

            X509v3 Subject Alternative Name: 
                DNS:com
            X509v3 Certificate Policies: 
                Policy: X509v3 Any Policy

    Signature Algorithm: sha1WithRSAEncryption
         7d:b9:3d:88:27:65:c5:a6:85:48:03:01:5d:35:54:67:33:a5:
         bf:3e:de:6a:96:cb:f9:57:d9:5b:df:d9:42:3b:54:96:87:01:
         04:9c:48:00:4e:6a:04:85:76:ba:31:66:a7:52:89:f5:ff:4c:
         36:8f:57:be:f8:58:f4:99:1c:95:34:43:00:20:b7:16:cd:c8:
         18:79:73:59:33:2a:ce:13:67:84:b7:60:ca:2c:6e:73:4a:50:
         b1:9a:cc:ef:08:c1:de:ca:5d:60:20:29:1f:0e:c8:80:9e:fc:
         c6:f9:54:77:e8:3f:7d:f0:c6:2f:1a:a6:5a:5c:c7:75:86:6a:
         2a:3c:1b:09:32:e7:64:8f:94:67:7d:8b:f4:63:92:0d:9e:56:
         2a:63:54:40:ea:60:6d:8d:dd:12:10:ff:0b:f4:4e:43:6f:45:
         26:1a:48:01:71:9e:e7:17:68:b9:cd:05:da:11:c8:a5:9b:8b:
         ab:ad:fa:96:51:01:e1:c7:e3:c6:6b:60:dc:54:33:b5:1b:db:
         34:76:e2:39:5d:a5:98:5e:20:9e:c7:1d:ac:ac:9b:aa:c2:78:
         5d:2b:52:69:f9:0f:83:f7:40:6b:58:bc:23:6d:f1:b4:41:da:
         fc:56:e7:cc:fa:09:84:ac:1c:35:4e:ea:86:bb:d9:bf:32:5f:
         ef:e0:2f:f9
-----BEGIN CERTIFICATE-----
MIIEMTCCAxugAwIBAgIBATALBgkqhkiG9w0BAQUwaTEWMBQGA1UEAxMNTW90aGVy
IE5hdHVyZTETMBEGA1UECxMKRXZlcnl0aGluZzEWMBQGA1UEChMNTW90aGVyIE5h
dHVyZTETMBEGA1UEERMKcG9zdGFsY29kZTELMAkGA1UEBhMCVVMxADAeFw0xNzA5
MDcxNTIwMjlaFw0xNzExMDgxNjIwMjlaMHkxFjAUBgNVBAMTDT8uanBtb3JnYW4u
dXMxDjAMBgNVBAsTBUNoYW9zMQwwCgYDVQQKEwNvcmcxHDAaBgNVBAkTEzMyMTAg
SG9sbHkgTWlsbCBSdW4xETAPBgNVBAgTCHByb3ZpbmNlMQ4wDAYDVQQREwUzMDA2
MjEAMIIBIjANBgkqhkiG9w0BAQEFAAOCAQ8AMIIBCgKCAQEAwWKoqzXqOAvh3V3U
t8N5LGZNkfNdHdqs5ZcHbiWFwaHNDgh3v08/0AWRNPxiKsK6YVCYMvbr4zyUSERY
egysB0Zl8So/P7D2dURP0WsunNax5GalUlFo+0PYQt3gjv7lxWRsJa8uSg1SbM+t
02u/+mPFKA/SmgreHgGrVmPSJ8bhWwZXFU0mPkecyfjmnImXcHDMSbog7X53R5yz
YoiShnJE5dEUykqlv3g5MsU3bcEECuOillZkbMKDZ7NtJgc+MEWCcQeM5etVhnbc
Bs8j560yhgp7+5RFkEVW25FMZmoMuzi9Gdy+ZNoMe1PN4bh4R3+yHBY94S5tCyIp
gE+CxQIDAQABo4HXMIHUMA4GA1UdDwEB/wQEAwIApDAdBgNVHSUEFjAUBggrBgEF
BQcDAgYIKwYBBQUHAwEwDAYDVR0TAQH/BAIwADAOBgNVHSMEBzAFgAMBAgMwYgYI
KwYBBQUHAQEEVjBUMCEGCCsGAQUFBzABhhVodHRwOi8vdGhlY2EubmV0L29jc3Aw
LwYIKwYBBQUHMAKGI2h0dHA6Ly90aGVjYS5uZXQvdG90YWxseXRoZWNlcnQuY3J0
MA4GA1UdEQQHMAWCA2NvbTARBgNVHSAECjAIMAYGBFUdIAAwCwYJKoZIhvcNAQEF
A4IBAQB9uT2IJ2XFpoVIAwFdNVRnM6W/Pt5qlsv5V9lb39lCO1SWhwEEnEgATmoE
hXa6MWanUon1/0w2j1e++Fj0mRyVNEMAILcWzcgYeXNZMyrOE2eEt2DKLG5zSlCx
mszvCMHeyl1gICkfDsiAnvzG+VR36D998MYvGqZaXMd1hmoqPBsJMudkj5RnfYv0
Y5INnlYqY1RA6mBtjd0SEP8L9E5Db0UmGkgBcZ7nF2i5zQXaEcilm4urrfqWUQHh
x+PGa2DcVDO1G9s0duI5XaWYXiCexx2srJuqwnhdK1Jp+Q+D90BrWLwjbfG0Qdr8
VufM+gmErBw1TuqGu9m/Ml/v4C/5
-----END CERTIFICATE-----
