Certificate:
    Data:
        Version: 3 (0x2)
        Serial Number: 1 (0x1)
    Signature Algorithm: sha256WithRSAEncryption
        Issuer: CN=Mother Nature, OU=Everything, O=Mother Nature/postalCode=postalcode, C=US, GN=givenname, SN=surname
        Validity
            Not Before: Aug 25 20:46:46 2017 GMT
            Not After : Nov  6 21:46:46 2017 GMT
        Subject: CN=gov.us, OU=Chaos, O=org/street=3210 Holly Mill Run, ST=province/postalCode=30062, GN=hello, SN=surname
        Subject Public Key Info:
            Public Key Algorithm: rsaEncryption
                Public-Key: (2048 bit)
                Modulus:
                    00:b5:61:f4:ee:39:3d:e6:d2:b3:84:27:52:67:a3:
                    c7:54:60:34:83:dc:1d:db:4b:3e:61:dc:94:bd:ef:
                    21:d3:8f:8e:f2:ce:ac:d6:51:82:fc:8e:83:9a:ea:
                    44:09:ba:c4:9a:ad:d6:a1:63:05:21:43:a0:ca:c9:
                    c2:01:4d:f9:31:4d:69:8a:02:7d:0b:75:88:aa:3c:
                    91:b8:80:7e:02:20:53:7b:e4:62:70:e8:04:00:ee:
                    79:75:dd:66:ac:9a:82:10:aa:7c:03:d0:24:c1:c8:
                    cc:06:f5:84:0e:6b:b0:81:a8:3d:ac:b2:90:02:a6:
                    58:43:57:65:62:fd:50:fd:7c:79:d1:36:e9:e9:28:
                    bf:4a:31:0b:37:9e:b4:50:af:e7:64:4e:37:a7:71:
                    2c:34:f4:7a:74:4d:74:70:14:90:69:c5:e2:9f:80:
                    db:67:14:2d:f4:6a:ba:b6:60:62:b2:29:2b:f5:9f:
                    4a:da:20:95:8f:e0:89:8b:cf:bd:db:57:2b:77:48:
                    8a:ab:46:30:37:69:b2:5e:24:1c:45:82:0f:01:f7:
                    32:d7:c0:ab:71:c7:73:f6:90:6a:b2:f6:0b:21:07:
                    ec:3d:da:dd:72:94:be:e8:0f:5d:f3:b1:3e:47:29:
                    46:9f:8b:04:84:41:2d:29:91:59:98:4b:46:b4:d7:
                    2a:1f
                Exponent: 65537 (0x10001)
        X509v3 extensions:
            X509v3 Key Usage: critical
                Digital Signature, Key Encipherment
            X509v3 Extended Key Usage: 
                TLS Web Client Authentication, TLS Web Server Authentication
            X509v3 Basic Constraints: critical
                CA:TRUE
            X509v3 Authority Key Identifier: 
                keyid:01:02:03

            Authority Information Access: 
                OCSP - URI:http://theca.net/ocsp
                CA Issuers - URI:http://theca.net/totallythecert.crt

            X509v3 Subject Alternative Name: 
                DNS:surya.accenture
            X509v3 Certificate Policies: 
                Policy: X509v3 Any Policy

    Signature Algorithm: sha256WithRSAEncryption
         3d:16:68:ce:27:46:aa:2e:6e:e4:8c:59:36:06:ca:4f:e1:d9:
         43:26:00:d6:cf:a6:45:b4:f6:3e:8a:0c:49:8d:cd:a2:b6:89:
         52:c0:3d:76:03:83:92:80:2c:11:d9:92:38:eb:38:b9:a9:2a:
         56:ec:5d:35:3a:b6:ac:ee:46:d9:40:0f:39:f4:a0:37:80:02:
         1a:64:43:5c:15:8a:d8:b3:10:28:7c:82:89:9d:aa:ed:02:c0:
         a4:a0:92:1c:4c:86:33:cb:3c:a2:f8:f7:8a:fc:79:e2:ad:b0:
         92:89:b4:4f:b7:d3:ba:c7:63:1f:70:37:de:00:83:bf:d0:f2:
         e3:bf:4a:2f:aa:ef:b4:62:92:aa:3e:0b:11:1d:9a:7a:65:a4:
         9a:5c:71:ff:9a:fc:f9:65:f7:26:9e:00:6e:4b:35:b9:df:06:
         65:f3:51:c0:67:05:e6:fc:ae:5b:55:0d:9b:3d:6a:b7:81:42:
         21:f0:2a:d8:5d:39:1f:71:37:2b:d4:64:c5:99:91:aa:e1:dd:
         64:9e:bb:83:23:ff:3d:c5:40:37:42:2e:ab:a4:e7:d7:6f:a1:
         2c:9f:34:d6:4f:e0:bb:cd:bf:2f:fb:99:b1:dd:d9:cb:e2:42:
         d9:14:77:6d:f8:42:3c:0d:14:4a:2c:3e:66:81:9b:3c:27:03:
         cc:a5:83:cc
Certificate:
    Data:
        Version: 3 (0x2)
        Serial Number: 1 (0x1)
    Signature Algorithm: sha256WithRSAEncryption
        Issuer: CN=Mother Nature, OU=Everything, O=Mother Nature/postalCode=postalcode, C=US, GN=givenname, SN=surname
        Validity
            Not Before: Aug 25 20:46:46 2017 GMT
            Not After : Nov  6 21:46:46 2017 GMT
        Subject: CN=gov.us, OU=Chaos, O=org/street=3210 Holly Mill Run, ST=province/postalCode=30062, GN=hello, SN=surname
        Subject Public Key Info:
            Public Key Algorithm: rsaEncryption
                Public-Key: (2048 bit)
                Modulus:
                    00:b5:61:f4:ee:39:3d:e6:d2:b3:84:27:52:67:a3:
                    c7:54:60:34:83:dc:1d:db:4b:3e:61:dc:94:bd:ef:
                    21:d3:8f:8e:f2:ce:ac:d6:51:82:fc:8e:83:9a:ea:
                    44:09:ba:c4:9a:ad:d6:a1:63:05:21:43:a0:ca:c9:
                    c2:01:4d:f9:31:4d:69:8a:02:7d:0b:75:88:aa:3c:
                    91:b8:80:7e:02:20:53:7b:e4:62:70:e8:04:00:ee:
                    79:75:dd:66:ac:9a:82:10:aa:7c:03:d0:24:c1:c8:
                    cc:06:f5:84:0e:6b:b0:81:a8:3d:ac:b2:90:02:a6:
                    58:43:57:65:62:fd:50:fd:7c:79:d1:36:e9:e9:28:
                    bf:4a:31:0b:37:9e:b4:50:af:e7:64:4e:37:a7:71:
                    2c:34:f4:7a:74:4d:74:70:14:90:69:c5:e2:9f:80:
                    db:67:14:2d:f4:6a:ba:b6:60:62:b2:29:2b:f5:9f:
                    4a:da:20:95:8f:e0:89:8b:cf:bd:db:57:2b:77:48:
                    8a:ab:46:30:37:69:b2:5e:24:1c:45:82:0f:01:f7:
                    32:d7:c0:ab:71:c7:73:f6:90:6a:b2:f6:0b:21:07:
                    ec:3d:da:dd:72:94:be:e8:0f:5d:f3:b1:3e:47:29:
                    46:9f:8b:04:84:41:2d:29:91:59:98:4b:46:b4:d7:
                    2a:1f
                Exponent: 65537 (0x10001)
        X509v3 extensions:
            X509v3 Key Usage: critical
                Digital Signature, Key Encipherment
            X509v3 Extended Key Usage: 
                TLS Web Client Authentication, TLS Web Server Authentication
            X509v3 Basic Constraints: critical
                CA:TRUE
            X509v3 Authority Key Identifier: 
                keyid:01:02:03

            Authority Information Access: 
                OCSP - URI:http://theca.net/ocsp
                CA Issuers - URI:http://theca.net/totallythecert.crt

            X509v3 Subject Alternative Name: 
                DNS:surya.accenture
            X509v3 Certificate Policies: 
                Policy: X509v3 Any Policy

    Signature Algorithm: sha256WithRSAEncryption
         3d:16:68:ce:27:46:aa:2e:6e:e4:8c:59:36:06:ca:4f:e1:d9:
         43:26:00:d6:cf:a6:45:b4:f6:3e:8a:0c:49:8d:cd:a2:b6:89:
         52:c0:3d:76:03:83:92:80:2c:11:d9:92:38:eb:38:b9:a9:2a:
         56:ec:5d:35:3a:b6:ac:ee:46:d9:40:0f:39:f4:a0:37:80:02:
         1a:64:43:5c:15:8a:d8:b3:10:28:7c:82:89:9d:aa:ed:02:c0:
         a4:a0:92:1c:4c:86:33:cb:3c:a2:f8:f7:8a:fc:79:e2:ad:b0:
         92:89:b4:4f:b7:d3:ba:c7:63:1f:70:37:de:00:83:bf:d0:f2:
         e3:bf:4a:2f:aa:ef:b4:62:92:aa:3e:0b:11:1d:9a:7a:65:a4:
         9a:5c:71:ff:9a:fc:f9:65:f7:26:9e:00:6e:4b:35:b9:df:06:
         65:f3:51:c0:67:05:e6:fc:ae:5b:55:0d:9b:3d:6a:b7:81:42:
         21:f0:2a:d8:5d:39:1f:71:37:2b:d4:64:c5:99:91:aa:e1:dd:
         64:9e:bb:83:23:ff:3d:c5:40:37:42:2e:ab:a4:e7:d7:6f:a1:
         2c:9f:34:d6:4f:e0:bb:cd:bf:2f:fb:99:b1:dd:d9:cb:e2:42:
         d9:14:77:6d:f8:42:3c:0d:14:4a:2c:3e:66:81:9b:3c:27:03:
         cc:a5:83:cc
-----BEGIN CERTIFICATE-----
MIIEgzCCA22gAwIBAgIBATALBgkqhkiG9w0BAQswgY8xFjAUBgNVBAMTDU1vdGhl
ciBOYXR1cmUxEzARBgNVBAsTCkV2ZXJ5dGhpbmcxFjAUBgNVBAoTDU1vdGhlciBO
YXR1cmUxEzARBgNVBBETCnBvc3RhbGNvZGUxCzAJBgNVBAYTAlVTMRIwEAYDVQQq
EwlnaXZlbm5hbWUxEDAOBgNVBAQTB3N1cm5hbWUxADAeFw0xNzA4MjUyMDQ2NDZa
Fw0xNzExMDYyMTQ2NDZaMIGUMQ8wDQYDVQQDEwZnb3YudXMxDjAMBgNVBAsTBUNo
YW9zMQwwCgYDVQQKEwNvcmcxHDAaBgNVBAkTEzMyMTAgSG9sbHkgTWlsbCBSdW4x
ETAPBgNVBAgTCHByb3ZpbmNlMQ4wDAYDVQQREwUzMDA2MjEOMAwGA1UEKhMFaGVs
bG8xEDAOBgNVBAQTB3N1cm5hbWUxADCCASIwDQYJKoZIhvcNAQEBBQADggEPADCC
AQoCggEBALVh9O45PebSs4QnUmejx1RgNIPcHdtLPmHclL3vIdOPjvLOrNZRgvyO
g5rqRAm6xJqt1qFjBSFDoMrJwgFN+TFNaYoCfQt1iKo8kbiAfgIgU3vkYnDoBADu
eXXdZqyaghCqfAPQJMHIzAb1hA5rsIGoPayykAKmWENXZWL9UP18edE26ekov0ox
CzeetFCv52RON6dxLDT0enRNdHAUkGnF4p+A22cULfRqurZgYrIpK/WfStoglY/g
iYvPvdtXK3dIiqtGMDdpsl4kHEWCDwH3MtfAq3HHc/aQarL2CyEH7D3a3XKUvugP
XfOxPkcpRp+LBIRBLSmRWZhLRrTXKh8CAwEAAaOB5jCB4zAOBgNVHQ8BAf8EBAMC
AKAwHQYDVR0lBBYwFAYIKwYBBQUHAwIGCCsGAQUFBwMBMA8GA1UdEwEB/wQFMAMB
Af8wDgYDVR0jBAcwBYADAQIDMGIGCCsGAQUFBwEBBFYwVDAhBggrBgEFBQcwAYYV
aHR0cDovL3RoZWNhLm5ldC9vY3NwMC8GCCsGAQUFBzAChiNodHRwOi8vdGhlY2Eu
bmV0L3RvdGFsbHl0aGVjZXJ0LmNydDAaBgNVHREEEzARgg9zdXJ5YS5hY2NlbnR1
cmUwEQYDVR0gBAowCDAGBgRVHSAAMAsGCSqGSIb3DQEBCwOCAQEAPRZozidGqi5u
5IxZNgbKT+HZQyYA1s+mRbT2PooMSY3NoraJUsA9dgODkoAsEdmSOOs4uakqVuxd
NTq2rO5G2UAPOfSgN4ACGmRDXBWK2LMQKHyCiZ2q7QLApKCSHEyGM8s8ovj3ivx5
4q2wkom0T7fTusdjH3A33gCDv9Dy479KL6rvtGKSqj4LER2aemWkmlxx/5r8+WX3
Jp4Abks1ud8GZfNRwGcF5vyuW1UNmz1qt4FCIfAq2F05H3E3K9RkxZmRquHdZJ67
gyP/PcVAN0Iuq6Tn12+hLJ801k/gu82/L/uZsd3Zy+JC2RR3bfhCPA0USiw+ZoGb
PCcDzKWDzA==
-----END CERTIFICATE-----
