Certificate:
    Data:
        Version: 3 (0x2)
        Serial Number: 1 (0x1)
    Signature Algorithm: sha256WithRSAEncryption
        Issuer: CN=Mother Nature, OU=Everything, O=Mother Nature/postalCode=postalcode, C=US, GN=givenname, SN=surname
        Validity
            Not Before: Aug 25 22:12:14 2017 GMT
            Not After : Nov  6 23:12:14 2017 GMT
        Subject: CN=gov.us, OU=Chaos, O=org/street=3210 Holly Mill Run, ST=province/postalCode=30062, GN=hello, SN=surname
        Subject Public Key Info:
            Public Key Algorithm: rsaEncryption
                Public-Key: (2048 bit)
                Modulus:
                    00:c7:bc:6a:02:1c:1f:62:eb:3d:c8:4c:b4:89:ef:
                    7d:9e:5b:11:48:0c:5f:46:a1:c7:b4:73:83:97:0c:
                    19:cc:97:df:98:2b:fd:e4:ea:ac:53:86:de:d4:e1:
                    b8:bc:5e:3e:d3:54:d3:04:73:ca:a2:95:4e:94:08:
                    53:b9:fc:35:f5:1d:ed:ba:af:ae:06:68:21:66:d1:
                    c6:38:97:b7:b9:4b:c3:44:ed:b7:83:4f:b5:c5:05:
                    e3:ad:d5:cd:23:a2:b4:03:fb:43:82:e6:c8:de:54:
                    ea:1f:95:32:2c:43:7d:9f:e8:6a:d6:af:e5:3d:74:
                    c2:2c:41:12:99:99:fa:69:40:ea:f1:46:df:7e:3c:
                    f4:f8:83:64:9a:61:93:87:11:76:b9:a0:f2:da:24:
                    6d:9a:09:7b:04:fc:d4:b5:ce:53:68:b8:4b:50:45:
                    22:d5:1a:b5:0f:44:b0:7d:a2:dd:d1:f6:91:0e:63:
                    3e:cd:74:e1:74:bf:24:91:2c:93:1a:69:2e:a6:86:
                    5b:c1:fb:56:ef:53:8c:a5:d3:3f:b6:19:9f:ab:b9:
                    82:2b:8f:01:c9:d0:32:49:63:b4:a6:20:c0:66:e9:
                    5b:6a:a1:97:52:7a:7e:ed:b8:b2:d7:0e:b6:b6:6e:
                    09:20:dc:ad:c4:e5:1d:55:6e:f7:9d:38:9e:70:54:
                    f0:f1
                Exponent: 65537 (0x10001)
        X509v3 extensions:
            X509v3 Key Usage: critical
                Digital Signature, Key Encipherment
            X509v3 Extended Key Usage: 
                TLS Web Client Authentication, TLS Web Server Authentication
            X509v3 Basic Constraints: critical
                CA:TRUE
            X509v3 Authority Key Identifier: 
                keyid:01:02:03

            Authority Information Access: 
                OCSP - URI:http://theca.net/ocsp
                CA Issuers - URI:http://theca.net/totallythecert.crt

            X509v3 Subject Alternative Name: 
                DNS:surya..com.
            X509v3 Certificate Policies: 
                Policy: X509v3 Any Policy

    Signature Algorithm: sha256WithRSAEncryption
         5f:8e:3a:50:fd:ad:16:7c:ef:16:b2:bd:7a:ab:a5:23:63:a4:
         4a:67:83:e9:90:bd:b9:81:f1:10:42:21:83:9f:b8:59:b4:6d:
         16:b2:3f:4e:61:55:34:1e:ce:15:fe:50:c1:45:da:b8:f5:ce:
         61:f2:01:bd:38:a6:80:96:40:27:e2:68:14:f6:c1:24:f1:eb:
         91:1c:d5:ec:98:d1:b1:d5:c4:01:37:6a:b5:79:b8:ff:a6:39:
         f2:85:37:15:9e:60:aa:36:6e:cf:58:0a:14:ae:62:25:68:60:
         4c:fc:3f:98:ef:70:fe:98:b9:ec:fb:81:97:db:05:29:3e:0a:
         5e:21:c2:23:94:61:6c:13:f4:92:05:06:b9:1c:c2:04:a2:c9:
         21:ac:ea:74:d5:4c:b1:8b:57:aa:f0:8a:fc:d7:e0:3d:27:9d:
         24:04:a5:19:e5:c0:a7:59:1d:c3:2f:f1:52:69:68:66:65:cf:
         58:28:d9:e0:4b:05:79:8f:6e:52:66:2d:00:6c:1d:f1:ce:c9:
         f1:47:87:8f:5e:91:6f:bf:1c:10:a1:49:e7:f2:0f:1e:e0:ae:
         ca:74:44:d7:53:6f:ec:a3:82:3d:19:8d:43:0e:55:3f:12:14:
         0e:83:fc:cc:07:7c:a4:95:f5:f2:c6:d3:f7:18:8c:41:8e:3f:
         48:ef:6a:02
-----BEGIN CERTIFICATE-----
MIIEfzCCA2mgAwIBAgIBATALBgkqhkiG9w0BAQswgY8xFjAUBgNVBAMTDU1vdGhl
ciBOYXR1cmUxEzARBgNVBAsTCkV2ZXJ5dGhpbmcxFjAUBgNVBAoTDU1vdGhlciBO
YXR1cmUxEzARBgNVBBETCnBvc3RhbGNvZGUxCzAJBgNVBAYTAlVTMRIwEAYDVQQq
EwlnaXZlbm5hbWUxEDAOBgNVBAQTB3N1cm5hbWUxADAeFw0xNzA4MjUyMjEyMTRa
Fw0xNzExMDYyMzEyMTRaMIGUMQ8wDQYDVQQDEwZnb3YudXMxDjAMBgNVBAsTBUNo
YW9zMQwwCgYDVQQKEwNvcmcxHDAaBgNVBAkTEzMyMTAgSG9sbHkgTWlsbCBSdW4x
ETAPBgNVBAgTCHByb3ZpbmNlMQ4wDAYDVQQREwUzMDA2MjEOMAwGA1UEKhMFaGVs
bG8xEDAOBgNVBAQTB3N1cm5hbWUxADCCASIwDQYJKoZIhvcNAQEBBQADggEPADCC
AQoCggEBAMe8agIcH2LrPchMtInvfZ5bEUgMX0ahx7Rzg5cMGcyX35gr/eTqrFOG
3tThuLxePtNU0wRzyqKVTpQIU7n8NfUd7bqvrgZoIWbRxjiXt7lLw0Ttt4NPtcUF
463VzSOitAP7Q4LmyN5U6h+VMixDfZ/oatav5T10wixBEpmZ+mlA6vFG33489PiD
ZJphk4cRdrmg8tokbZoJewT81LXOU2i4S1BFItUatQ9EsH2i3dH2kQ5jPs104XS/
JJEskxppLqaGW8H7Vu9TjKXTP7YZn6u5giuPAcnQMkljtKYgwGbpW2qhl1J6fu24
stcOtrZuCSDcrcTlHVVu9504nnBU8PECAwEAAaOB4jCB3zAOBgNVHQ8BAf8EBAMC
AKAwHQYDVR0lBBYwFAYIKwYBBQUHAwIGCCsGAQUFBwMBMA8GA1UdEwEB/wQFMAMB
Af8wDgYDVR0jBAcwBYADAQIDMGIGCCsGAQUFBwEBBFYwVDAhBggrBgEFBQcwAYYV
aHR0cDovL3RoZWNhLm5ldC9vY3NwMC8GCCsGAQUFBzAChiNodHRwOi8vdGhlY2Eu
bmV0L3RvdGFsbHl0aGVjZXJ0LmNydDAWBgNVHREEDzANggtzdXJ5YS4uY29tLjAR
BgNVHSAECjAIMAYGBFUdIAAwCwYJKoZIhvcNAQELA4IBAQBfjjpQ/a0WfO8Wsr16
q6UjY6RKZ4PpkL25gfEQQiGDn7hZtG0Wsj9OYVU0Hs4V/lDBRdq49c5h8gG9OKaA
lkAn4mgU9sEk8euRHNXsmNGx1cQBN2q1ebj/pjnyhTcVnmCqNm7PWAoUrmIlaGBM
/D+Y73D+mLns+4GX2wUpPgpeIcIjlGFsE/SSBQa5HMIEoskhrOp01Uyxi1eq8Ir8
1+A9J50kBKUZ5cCnWR3DL/FSaWhmZc9YKNngSwV5j25SZi0AbB3xzsnxR4ePXpFv
vxwQoUnn8g8e4K7KdETXU2/so4I9GY1DDlU/EhQOg/zMB3yklfXyxtP3GIxBjj9I
72oC
-----END CERTIFICATE-----
