Certificate:
    Data:
        Version: 3 (0x2)
        Serial Number: 1 (0x1)
    Signature Algorithm: sha256WithRSAEncryption
        Issuer: CN=Mother Nature, OU=Everything, O=Mother Nature/postalCode=postalcode, C=US, GN=givenname, SN=surname
        Validity
            Not Before: Aug 25 22:12:39 2017 GMT
            Not After : Nov  6 23:12:39 2017 GMT
        Subject: CN=gov.us, OU=Chaos, O=org/street=3210 Holly Mill Run, ST=province/postalCode=30062, GN=hello, SN=surname
        Subject Public Key Info:
            Public Key Algorithm: rsaEncryption
                Public-Key: (2048 bit)
                Modulus:
                    00:af:47:25:85:5d:0b:97:88:af:fb:41:63:12:05:
                    f9:e5:9d:ef:dc:0b:ab:87:97:a4:88:12:20:84:3e:
                    d4:84:46:4e:fb:14:74:a3:21:9e:dd:09:a3:4e:c8:
                    fd:81:d5:e2:6c:dc:9f:5f:9c:48:ff:1d:32:41:69:
                    c7:1b:da:96:24:c0:38:b6:c0:79:2e:73:55:da:9b:
                    b0:9d:b9:ba:72:70:8a:de:05:27:30:e6:99:1a:05:
                    56:29:3e:a6:14:b2:30:1b:ef:4f:93:58:ce:11:a1:
                    1f:eb:ae:ff:62:ad:cd:88:dc:f8:cc:9c:c4:7a:70:
                    10:eb:80:4d:e3:4b:bb:45:46:7e:b1:47:1b:4c:39:
                    6b:2c:7c:30:92:a8:9e:f6:26:76:b7:78:b1:64:8e:
                    57:ca:22:6e:aa:44:31:6e:48:c1:68:48:80:85:9c:
                    d1:b6:18:fa:65:46:44:e6:5f:9e:92:e0:45:13:88:
                    dd:6a:e9:ee:2a:c8:07:69:ef:f1:ad:15:6a:bb:3f:
                    bf:45:36:ef:9d:ef:0e:ae:37:aa:9d:25:29:58:92:
                    d3:8a:cb:16:e0:df:43:c5:0c:f0:c5:1d:1d:c2:f3:
                    56:f3:6f:ed:5f:90:16:15:9d:48:00:43:17:ad:18:
                    9e:98:33:fa:a6:f7:e7:16:23:e1:d2:79:db:24:64:
                    89:73
                Exponent: 65537 (0x10001)
        X509v3 extensions:
            X509v3 Key Usage: critical
                Digital Signature, Key Encipherment
            X509v3 Extended Key Usage: 
                TLS Web Client Authentication, TLS Web Server Authentication
            X509v3 Basic Constraints: critical
                CA:TRUE
            X509v3 Authority Key Identifier: 
                keyid:01:02:03

            Authority Information Access: 
                OCSP - URI:http://theca.net/ocsp
                CA Issuers - URI:http://theca.net/totallythecert.crt

            X509v3 Subject Alternative Name: 
                DNS:surya.com
            X509v3 Certificate Policies: 
                Policy: X509v3 Any Policy

    Signature Algorithm: sha256WithRSAEncryption
         27:96:a6:28:1c:fc:51:31:ae:49:bf:e0:88:6e:92:d3:0d:29:
         97:7a:2f:2c:c1:ae:34:9a:4c:83:27:65:e3:15:ea:a5:c6:b9:
         e3:8b:50:e0:3c:90:79:8f:14:b8:ce:0a:94:fc:df:dd:ea:eb:
         27:3f:8f:90:aa:8f:f7:86:38:d0:9d:41:32:85:24:5d:2d:ec:
         b6:ed:bb:1a:d4:db:cd:bb:17:ee:02:da:99:07:93:c3:ea:c8:
         53:03:13:9a:f9:c5:ed:db:b1:7b:5b:f9:41:43:29:25:2b:62:
         b7:4b:d6:1d:02:7c:d5:df:2d:69:15:27:90:4a:c0:7f:a9:64:
         7d:b2:c4:45:93:63:74:27:0c:f1:94:4d:80:0a:c8:83:d4:e9:
         75:df:8c:28:dd:c2:b5:27:b8:25:13:93:fb:ae:70:53:b5:43:
         97:2d:94:52:b0:e5:28:6e:20:a1:4b:ec:9e:6f:53:1c:87:68:
         37:e2:f6:25:37:16:4d:0d:07:88:16:af:88:b1:20:e1:90:85:
         ff:27:40:59:5b:a6:f9:74:8c:1c:31:b4:d4:af:ab:44:b0:58:
         c0:df:a6:5d:0b:28:bf:54:67:2b:d7:f7:90:a9:2b:02:67:54:
         e0:bf:57:ce:23:89:ba:c5:1d:da:2a:88:d2:a2:f2:bb:fe:4f:
         51:95:d9:b8
-----BEGIN CERTIFICATE-----
MIIEfTCCA2egAwIBAgIBATALBgkqhkiG9w0BAQswgY8xFjAUBgNVBAMTDU1vdGhl
ciBOYXR1cmUxEzARBgNVBAsTCkV2ZXJ5dGhpbmcxFjAUBgNVBAoTDU1vdGhlciBO
YXR1cmUxEzARBgNVBBETCnBvc3RhbGNvZGUxCzAJBgNVBAYTAlVTMRIwEAYDVQQq
EwlnaXZlbm5hbWUxEDAOBgNVBAQTB3N1cm5hbWUxADAeFw0xNzA4MjUyMjEyMzla
Fw0xNzExMDYyMzEyMzlaMIGUMQ8wDQYDVQQDEwZnb3YudXMxDjAMBgNVBAsTBUNo
YW9zMQwwCgYDVQQKEwNvcmcxHDAaBgNVBAkTEzMyMTAgSG9sbHkgTWlsbCBSdW4x
ETAPBgNVBAgTCHByb3ZpbmNlMQ4wDAYDVQQREwUzMDA2MjEOMAwGA1UEKhMFaGVs
bG8xEDAOBgNVBAQTB3N1cm5hbWUxADCCASIwDQYJKoZIhvcNAQEBBQADggEPADCC
AQoCggEBAK9HJYVdC5eIr/tBYxIF+eWd79wLq4eXpIgSIIQ+1IRGTvsUdKMhnt0J
o07I/YHV4mzcn1+cSP8dMkFpxxvaliTAOLbAeS5zVdqbsJ25unJwit4FJzDmmRoF
Vik+phSyMBvvT5NYzhGhH+uu/2KtzYjc+MycxHpwEOuATeNLu0VGfrFHG0w5ayx8
MJKonvYmdrd4sWSOV8oibqpEMW5IwWhIgIWc0bYY+mVGROZfnpLgRROI3Wrp7irI
B2nv8a0Vars/v0U2753vDq43qp0lKViS04rLFuDfQ8UM8MUdHcLzVvNv7V+QFhWd
SABDF60Ynpgz+qb35xYj4dJ52yRkiXMCAwEAAaOB4DCB3TAOBgNVHQ8BAf8EBAMC
AKAwHQYDVR0lBBYwFAYIKwYBBQUHAwIGCCsGAQUFBwMBMA8GA1UdEwEB/wQFMAMB
Af8wDgYDVR0jBAcwBYADAQIDMGIGCCsGAQUFBwEBBFYwVDAhBggrBgEFBQcwAYYV
aHR0cDovL3RoZWNhLm5ldC9vY3NwMC8GCCsGAQUFBzAChiNodHRwOi8vdGhlY2Eu
bmV0L3RvdGFsbHl0aGVjZXJ0LmNydDAUBgNVHREEDTALgglzdXJ5YS5jb20wEQYD
VR0gBAowCDAGBgRVHSAAMAsGCSqGSIb3DQEBCwOCAQEAJ5amKBz8UTGuSb/giG6S
0w0pl3ovLMGuNJpMgydl4xXqpca544tQ4DyQeY8UuM4KlPzf3errJz+PkKqP94Y4
0J1BMoUkXS3stu27GtTbzbsX7gLamQeTw+rIUwMTmvnF7duxe1v5QUMpJStit0vW
HQJ81d8taRUnkErAf6lkfbLERZNjdCcM8ZRNgArIg9Tpdd+MKN3CtSe4JROT+65w
U7VDly2UUrDlKG4goUvsnm9THIdoN+L2JTcWTQ0HiBaviLEg4ZCF/ydAWVum+XSM
HDG01K+rRLBYwN+mXQsov1RnK9f3kKkrAmdU4L9XziOJusUd2iqI0qLyu/5PUZXZ
uA==
-----END CERTIFICATE-----
