Certificate:
    Data:
        Version: 3 (0x2)
        Serial Number: 1 (0x1)
    Signature Algorithm: sha256WithRSAEncryption
        Issuer: CN=Mother Nature, OU=Everything, O=Mother Nature/postalCode=postalcode, C=US, GN=givenname, SN=surname
        Validity
            Not Before: Aug 25 23:45:23 2017 GMT
            Not After : Nov  7 00:45:23 2017 GMT
        Subject: CN=gov.us, OU=Chaos, O=org/street=3210 Holly Mill Run, ST=province/postalCode=30062, GN=hello, SN=surname
        Subject Public Key Info:
            Public Key Algorithm: rsaEncryption
                Public-Key: (2048 bit)
                Modulus:
                    00:d3:1b:b0:07:05:bc:42:00:59:24:55:a4:f9:9f:
                    de:a7:d6:a6:f9:eb:1a:7f:51:0e:9b:3e:6a:59:ed:
                    d4:1e:ea:08:b5:d6:ee:dd:79:78:3c:41:7b:1a:3c:
                    18:6d:1d:9f:1f:fa:37:4c:73:a7:67:6d:0f:45:31:
                    b3:b8:03:91:86:d1:ce:35:5c:82:aa:a3:7c:3f:ad:
                    4a:e6:d9:92:39:5c:91:0b:d6:7d:06:06:89:d5:c0:
                    7c:d0:27:7a:c2:e6:76:e1:85:49:19:b8:70:ac:39:
                    f9:67:2d:b4:2b:d3:22:3b:44:d6:1e:07:4b:f9:ed:
                    12:66:6e:d4:1a:23:ab:b6:b6:1f:58:e1:70:90:fd:
                    50:2d:96:24:e3:7c:99:9a:39:cb:a1:05:d2:8a:56:
                    f0:d3:68:96:fa:18:cf:14:d5:31:1c:7c:73:96:d8:
                    78:30:6e:e0:d6:17:27:fa:1a:7e:34:4f:9e:d2:c9:
                    74:52:4e:ec:c3:c9:b8:57:c9:26:64:b0:52:d7:28:
                    30:20:e3:12:3e:51:ad:94:ed:3f:8d:b3:59:55:88:
                    df:79:b7:af:99:af:db:6d:05:3f:1d:e2:44:04:0e:
                    86:46:fe:a8:36:d9:a4:68:a5:d5:a9:e5:5f:cc:6d:
                    40:95:82:13:50:3d:00:45:3b:d9:47:77:38:3d:45:
                    d2:cd
                Exponent: 65537 (0x10001)
        X509v3 extensions:
            X509v3 Key Usage: critical
                Digital Signature, Key Encipherment
            X509v3 Extended Key Usage: 
                TLS Web Client Authentication, TLS Web Server Authentication
            X509v3 Basic Constraints: critical
                CA:TRUE
            X509v3 Authority Key Identifier: 
                keyid:01:02:03

            Authority Information Access: 
                OCSP - URI:http://theca.net/ocsp
                CA Issuers - URI:http://theca.net/totallythecert.crt

            X509v3 Subject Alternative Name: 
                DNS:*.surya.co.uk
            X509v3 Certificate Policies: 
                Policy: X509v3 Any Policy

    Signature Algorithm: sha256WithRSAEncryption
         bd:6d:43:7d:bc:9d:c4:04:f6:f5:ec:89:ce:56:b8:f2:7e:cf:
         f5:25:1e:7d:d1:d9:8b:6a:0f:1c:ac:2f:0e:6d:b0:88:e8:6a:
         d9:67:c4:56:17:60:7a:63:a4:3a:a1:29:fe:d5:93:64:bf:02:
         47:5d:8a:6d:7e:40:1a:fc:97:08:99:5c:ab:63:6e:65:88:9d:
         37:6b:d1:42:f9:15:f9:30:ba:de:f4:f7:de:db:f5:30:0f:9a:
         db:b2:86:47:db:0e:ca:f4:08:71:c1:9b:28:66:96:85:7a:c8:
         99:18:4c:b4:49:dc:4c:fa:6b:f6:42:4a:c6:4e:73:10:8d:0f:
         3f:b8:f7:2a:f5:5a:57:fb:05:41:97:91:3d:0a:b0:a3:00:26:
         72:c9:17:07:21:3f:21:9f:9f:4e:09:41:17:4b:9b:10:73:60:
         d7:a4:2b:e4:00:4d:30:ea:2a:eb:66:d3:dd:af:83:51:1b:c0:
         c3:4e:5c:db:2c:7b:0a:ad:18:c7:a3:2d:d5:49:f4:8c:5a:73:
         e5:e6:3c:7e:6f:94:61:de:2b:0e:81:f9:b6:ac:09:55:17:25:
         e0:5c:8c:eb:ee:4d:a3:b8:cd:f6:b9:eb:97:ed:15:0b:18:1f:
         18:f7:55:95:61:e8:5c:04:6c:3b:67:b7:88:d8:03:80:35:37:
         4f:e4:0e:f7
-----BEGIN CERTIFICATE-----
MIIEgTCCA2ugAwIBAgIBATALBgkqhkiG9w0BAQswgY8xFjAUBgNVBAMTDU1vdGhl
ciBOYXR1cmUxEzARBgNVBAsTCkV2ZXJ5dGhpbmcxFjAUBgNVBAoTDU1vdGhlciBO
YXR1cmUxEzARBgNVBBETCnBvc3RhbGNvZGUxCzAJBgNVBAYTAlVTMRIwEAYDVQQq
EwlnaXZlbm5hbWUxEDAOBgNVBAQTB3N1cm5hbWUxADAeFw0xNzA4MjUyMzQ1MjNa
Fw0xNzExMDcwMDQ1MjNaMIGUMQ8wDQYDVQQDEwZnb3YudXMxDjAMBgNVBAsTBUNo
YW9zMQwwCgYDVQQKEwNvcmcxHDAaBgNVBAkTEzMyMTAgSG9sbHkgTWlsbCBSdW4x
ETAPBgNVBAgTCHByb3ZpbmNlMQ4wDAYDVQQREwUzMDA2MjEOMAwGA1UEKhMFaGVs
bG8xEDAOBgNVBAQTB3N1cm5hbWUxADCCASIwDQYJKoZIhvcNAQEBBQADggEPADCC
AQoCggEBANMbsAcFvEIAWSRVpPmf3qfWpvnrGn9RDps+alnt1B7qCLXW7t15eDxB
exo8GG0dnx/6N0xzp2dtD0Uxs7gDkYbRzjVcgqqjfD+tSubZkjlckQvWfQYGidXA
fNAnesLmduGFSRm4cKw5+WcttCvTIjtE1h4HS/ntEmZu1Bojq7a2H1jhcJD9UC2W
JON8mZo5y6EF0opW8NNolvoYzxTVMRx8c5bYeDBu4NYXJ/oafjRPntLJdFJO7MPJ
uFfJJmSwUtcoMCDjEj5RrZTtP42zWVWI33m3r5mv220FPx3iRAQOhkb+qDbZpGil
1anlX8xtQJWCE1A9AEU72Ud3OD1F0s0CAwEAAaOB5DCB4TAOBgNVHQ8BAf8EBAMC
AKAwHQYDVR0lBBYwFAYIKwYBBQUHAwIGCCsGAQUFBwMBMA8GA1UdEwEB/wQFMAMB
Af8wDgYDVR0jBAcwBYADAQIDMGIGCCsGAQUFBwEBBFYwVDAhBggrBgEFBQcwAYYV
aHR0cDovL3RoZWNhLm5ldC9vY3NwMC8GCCsGAQUFBzAChiNodHRwOi8vdGhlY2Eu
bmV0L3RvdGFsbHl0aGVjZXJ0LmNydDAYBgNVHREEETAPgg0qLnN1cnlhLmNvLnVr
MBEGA1UdIAQKMAgwBgYEVR0gADALBgkqhkiG9w0BAQsDggEBAL1tQ328ncQE9vXs
ic5WuPJ+z/UlHn3R2YtqDxysLw5tsIjoatlnxFYXYHpjpDqhKf7Vk2S/Akddim1+
QBr8lwiZXKtjbmWInTdr0UL5Ffkwut70997b9TAPmtuyhkfbDsr0CHHBmyhmloV6
yJkYTLRJ3Ez6a/ZCSsZOcxCNDz+49yr1Wlf7BUGXkT0KsKMAJnLJFwchPyGfn04J
QRdLmxBzYNekK+QATTDqKutm092vg1EbwMNOXNssewqtGMejLdVJ9Ixac+XmPH5v
lGHeKw6B+basCVUXJeBcjOvuTaO4zfa565ftFQsYHxj3VZVh6FwEbDtnt4jYA4A1
N0/kDvc=
-----END CERTIFICATE-----
