Certificate:
    Data:
        Version: 3 (0x2)
        Serial Number: 1 (0x1)
    Signature Algorithm: sha256WithRSAEncryption
        Issuer: CN=Mother Nature, OU=Everything, O=Mother Nature/postalCode=postalcode, C=US, GN=givenname, SN=surname
        Validity
            Not Before: Aug 28 15:51:12 2017 GMT
            Not After : Nov  9 16:51:12 2017 GMT
        Subject: CN=gov.us, OU=Chaos, O=org/street=3210 Holly Mill Run, ST=province/postalCode=30062, GN=hello, SN=surname
        Subject Public Key Info:
            Public Key Algorithm: rsaEncryption
                Public-Key: (2048 bit)
                Modulus:
                    00:9b:74:f8:6e:19:ca:de:e4:fc:f0:b2:49:51:44:
                    4c:d4:fc:d8:5c:cb:95:71:cb:f8:27:73:84:cc:b2:
                    86:06:df:40:a7:93:30:98:c4:2b:77:11:c4:f4:b1:
                    a5:27:c3:1a:22:84:10:a7:67:c0:fd:e5:cb:36:78:
                    a7:93:32:c0:6d:26:16:0a:ef:c7:38:d9:b7:2a:ea:
                    19:ce:95:9c:e4:db:52:9e:48:1c:bd:66:ef:c7:0a:
                    c5:f7:a7:81:70:05:db:28:2a:44:35:c7:e7:11:f7:
                    bd:ee:38:68:26:68:bd:14:8e:d4:19:60:99:da:b9:
                    59:0c:88:db:0d:63:c1:51:41:15:81:9e:b1:34:94:
                    a7:2b:3f:1e:50:ac:05:5c:2d:7f:b3:d0:11:47:9d:
                    76:9d:e1:3a:a6:f6:32:87:ae:1c:ae:99:60:d0:1c:
                    7a:0b:75:c5:ec:b1:be:07:ac:37:a1:61:d6:83:72:
                    ab:f0:7b:60:e1:88:37:23:40:fb:3b:eb:0a:41:2f:
                    6e:8c:93:e1:8d:66:3e:04:0f:2e:a2:1a:ba:e6:63:
                    94:29:73:17:c9:69:5c:7d:2e:19:fd:31:aa:0d:78:
                    43:33:d8:34:ec:15:c6:b2:f5:8c:18:0d:e1:2a:00:
                    9b:3d:84:06:0d:e5:43:11:f7:ab:fc:23:aa:86:09:
                    e6:cd
                Exponent: 65537 (0x10001)
        X509v3 extensions:
            X509v3 Key Usage: critical
                Digital Signature, Key Encipherment
            X509v3 Extended Key Usage: 
                TLS Web Client Authentication, TLS Web Server Authentication
            X509v3 Basic Constraints: critical
                CA:FALSE
            X509v3 Authority Key Identifier: 
                keyid:01:02:03

            Authority Information Access: 
                OCSP - URI:http://theca.net/ocsp
                CA Issuers - URI:http://theca.net/totallythecert.crt

            X509v3 Subject Alternative Name: 
                DNS:s_ubtlety.co.uk
            X509v3 Certificate Policies: 
                Policy: X509v3 Any Policy

    Signature Algorithm: sha256WithRSAEncryption
         a6:ad:08:a0:9e:94:ca:b3:d0:f3:1a:7b:d8:ea:32:85:53:0c:
         f6:5d:b9:6b:27:06:2a:3b:d1:70:75:ba:ab:d5:a9:43:a2:cb:
         b6:da:f9:e3:03:33:37:36:dc:81:cd:5b:ab:71:e5:80:ec:73:
         6e:9e:fc:ca:b4:b9:fe:a9:8e:63:2e:b0:46:a5:4b:cc:e5:27:
         1c:78:2c:12:42:d7:d7:33:d7:f1:98:15:bf:58:51:42:f6:c5:
         d7:d7:f3:c0:9c:c6:8b:e5:7d:48:4a:b7:76:85:0c:1a:0c:4a:
         69:2c:73:f8:ee:d8:2e:47:4b:e9:6e:06:46:f7:b8:b1:7f:0c:
         63:8a:38:2c:25:43:e6:49:e5:c2:8b:a8:76:ba:19:ce:c7:e2:
         be:5f:5a:b1:32:19:bf:8b:3e:dd:d5:60:86:0f:89:db:94:d9:
         a5:a7:50:8e:13:cb:75:c6:d5:e9:ac:e9:54:08:04:7c:52:0c:
         23:75:f9:8a:b2:56:3f:1f:95:77:9d:dc:6c:1e:f8:d8:d0:07:
         d0:0c:09:ee:19:b3:e1:58:92:a5:2c:ac:be:42:6a:a2:95:65:
         e9:35:31:6e:69:f5:74:9b:fb:7b:51:d1:7b:41:7f:34:9e:76:
         01:e8:56:b2:e4:72:9e:90:06:8f:5a:3d:ba:34:3e:4d:de:0a:
         17:cf:61:ee
-----BEGIN CERTIFICATE-----
MIIEgDCCA2qgAwIBAgIBATALBgkqhkiG9w0BAQswgY8xFjAUBgNVBAMTDU1vdGhl
ciBOYXR1cmUxEzARBgNVBAsTCkV2ZXJ5dGhpbmcxFjAUBgNVBAoTDU1vdGhlciBO
YXR1cmUxEzARBgNVBBETCnBvc3RhbGNvZGUxCzAJBgNVBAYTAlVTMRIwEAYDVQQq
EwlnaXZlbm5hbWUxEDAOBgNVBAQTB3N1cm5hbWUxADAeFw0xNzA4MjgxNTUxMTJa
Fw0xNzExMDkxNjUxMTJaMIGUMQ8wDQYDVQQDEwZnb3YudXMxDjAMBgNVBAsTBUNo
YW9zMQwwCgYDVQQKEwNvcmcxHDAaBgNVBAkTEzMyMTAgSG9sbHkgTWlsbCBSdW4x
ETAPBgNVBAgTCHByb3ZpbmNlMQ4wDAYDVQQREwUzMDA2MjEOMAwGA1UEKhMFaGVs
bG8xEDAOBgNVBAQTB3N1cm5hbWUxADCCASIwDQYJKoZIhvcNAQEBBQADggEPADCC
AQoCggEBAJt0+G4Zyt7k/PCySVFETNT82FzLlXHL+CdzhMyyhgbfQKeTMJjEK3cR
xPSxpSfDGiKEEKdnwP3lyzZ4p5MywG0mFgrvxzjZtyrqGc6VnOTbUp5IHL1m78cK
xfengXAF2ygqRDXH5xH3ve44aCZovRSO1Blgmdq5WQyI2w1jwVFBFYGesTSUpys/
HlCsBVwtf7PQEUeddp3hOqb2MoeuHK6ZYNAcegt1xeyxvgesN6Fh1oNyq/B7YOGI
NyNA+zvrCkEvboyT4Y1mPgQPLqIauuZjlClzF8lpXH0uGf0xqg14QzPYNOwVxrL1
jBgN4SoAmz2EBg3lQxH3q/wjqoYJ5s0CAwEAAaOB4zCB4DAOBgNVHQ8BAf8EBAMC
AKAwHQYDVR0lBBYwFAYIKwYBBQUHAwIGCCsGAQUFBwMBMAwGA1UdEwEB/wQCMAAw
DgYDVR0jBAcwBYADAQIDMGIGCCsGAQUFBwEBBFYwVDAhBggrBgEFBQcwAYYVaHR0
cDovL3RoZWNhLm5ldC9vY3NwMC8GCCsGAQUFBzAChiNodHRwOi8vdGhlY2EubmV0
L3RvdGFsbHl0aGVjZXJ0LmNydDAaBgNVHREEEzARgg9zX3VidGxldHkuY28udWsw
EQYDVR0gBAowCDAGBgRVHSAAMAsGCSqGSIb3DQEBCwOCAQEApq0IoJ6UyrPQ8xp7
2OoyhVMM9l25aycGKjvRcHW6q9WpQ6LLttr54wMzNzbcgc1bq3HlgOxzbp78yrS5
/qmOYy6wRqVLzOUnHHgsEkLX1zPX8ZgVv1hRQvbF19fzwJzGi+V9SEq3doUMGgxK
aSxz+O7YLkdL6W4GRve4sX8MY4o4LCVD5knlwouodroZzsfivl9asTIZv4s+3dVg
hg+J25TZpadQjhPLdcbV6azpVAgEfFIMI3X5irJWPx+Vd53cbB742NAH0AwJ7hmz
4ViSpSysvkJqopVl6TUxbmn1dJv7e1HRe0F/NJ52AehWsuRynpAGj1o9ujQ+Td4K
F89h7g==
-----END CERTIFICATE-----
