Certificate:
    Data:
        Version: 3 (0x2)
        Serial Number: 1 (0x1)
    Signature Algorithm: sha256WithRSAEncryption
        Issuer: CN=Mother Nature, OU=Everything, O=Mother Nature/postalCode=postalcode, C=US, GN=givenname, SN=surname
        Validity
            Not Before: Aug 25 23:27:09 2017 GMT
            Not After : Nov  7 00:27:09 2017 GMT
        Subject: CN=gov.us, OU=Chaos, O=org/street=3210 Holly Mill Run, ST=province/postalCode=30062, GN=hello, SN=surname
        Subject Public Key Info:
            Public Key Algorithm: rsaEncryption
                Public-Key: (2048 bit)
                Modulus:
                    00:d7:06:89:7d:ab:d3:d0:41:ae:1c:44:f8:4a:49:
                    5c:d1:64:c5:5e:e4:c3:83:7c:a6:7a:f0:c5:49:2f:
                    ae:92:3c:46:51:9c:46:89:73:a6:18:b6:cd:4e:fe:
                    31:2c:ba:ab:ad:ce:91:89:d2:4b:72:64:82:c2:64:
                    1e:f0:83:89:b0:b4:83:f5:68:00:7c:e8:c5:de:18:
                    6e:13:8c:9e:c6:9f:09:bd:5f:e7:92:e9:54:ad:2d:
                    f3:92:5f:7e:33:ae:6f:cf:b7:1e:d5:fc:d7:09:64:
                    a0:16:7c:a6:bd:37:10:05:54:2a:1d:8d:48:dd:0f:
                    7d:1c:ef:c5:65:48:3a:f4:45:df:a7:60:f9:a1:eb:
                    de:4b:34:7d:36:cc:43:31:5d:2c:4f:35:37:ff:a5:
                    85:a4:bc:aa:fb:05:95:a3:e8:e9:37:46:23:30:c2:
                    79:29:3b:09:40:16:57:50:f6:02:6f:29:ea:ee:3c:
                    d0:6d:a6:37:43:73:c4:28:6a:b5:03:38:e4:10:7d:
                    40:a4:d4:0f:67:97:f3:59:d9:69:b5:54:19:34:ab:
                    26:92:3d:37:38:a0:14:f0:aa:86:49:d3:f6:d0:dd:
                    a5:bf:7d:ce:bb:a9:f4:5b:0b:07:f1:e4:01:3e:29:
                    39:c5:7e:39:9a:23:5b:82:1b:98:c1:83:41:5e:da:
                    10:13
                Exponent: 65537 (0x10001)
        X509v3 extensions:
            X509v3 Key Usage: critical
                Digital Signature, Key Encipherment
            X509v3 Extended Key Usage: 
                TLS Web Client Authentication, TLS Web Server Authentication
            X509v3 Basic Constraints: critical
                CA:TRUE
            X509v3 Authority Key Identifier: 
                keyid:01:02:03

            Authority Information Access: 
                OCSP - URI:http://theca.net/ocsp
                CA Issuers - URI:http://theca.net/totallythecert.crt

            X509v3 Subject Alternative Name: 
                DNS:bl_og.hello.surya.co.uk
            X509v3 Certificate Policies: 
                Policy: X509v3 Any Policy

    Signature Algorithm: sha256WithRSAEncryption
         9f:5a:2e:9a:55:03:2f:5c:fb:10:b0:85:3f:9a:2d:9e:1c:38:
         fc:84:65:8f:6b:88:bc:cd:f0:6a:83:b5:f3:f3:5f:ac:6e:bc:
         5e:2d:05:7d:d2:98:b2:eb:ff:ed:12:9d:d5:e7:84:71:bc:4e:
         61:96:25:2f:8a:8b:cc:03:9a:79:2e:28:5b:45:ff:4a:39:5c:
         38:dc:e6:23:d0:36:85:82:37:4c:4d:af:de:ef:0d:6d:54:3a:
         e2:0d:0e:58:1b:76:df:62:99:b4:1e:2c:4a:76:ea:47:e9:da:
         78:ee:81:2f:4a:9d:f1:19:08:13:49:41:0e:2c:59:ec:03:d5:
         6f:e9:9e:ba:f3:a1:70:9e:8a:51:eb:fc:d4:e7:8d:ae:aa:ff:
         7c:c2:bf:fa:d0:a7:a7:f8:db:18:16:1f:c1:c2:a1:be:37:a7:
         1f:0a:58:1a:c1:d0:e6:e3:11:75:1d:27:b3:dd:0e:a0:1e:be:
         5f:82:da:ab:34:71:6c:48:8d:3f:76:c7:87:eb:e0:7b:6b:a3:
         1d:98:c4:4e:eb:80:35:3a:6d:72:ce:44:34:15:21:fe:ea:24:
         94:31:61:d0:25:45:47:99:77:5e:aa:eb:5d:68:fa:e5:f9:36:
         e2:c4:ad:d8:df:28:9e:93:4c:1b:3c:58:eb:9a:44:3f:9a:69:
         4c:f1:cd:a9
-----BEGIN CERTIFICATE-----
MIIEizCCA3WgAwIBAgIBATALBgkqhkiG9w0BAQswgY8xFjAUBgNVBAMTDU1vdGhl
ciBOYXR1cmUxEzARBgNVBAsTCkV2ZXJ5dGhpbmcxFjAUBgNVBAoTDU1vdGhlciBO
YXR1cmUxEzARBgNVBBETCnBvc3RhbGNvZGUxCzAJBgNVBAYTAlVTMRIwEAYDVQQq
EwlnaXZlbm5hbWUxEDAOBgNVBAQTB3N1cm5hbWUxADAeFw0xNzA4MjUyMzI3MDla
Fw0xNzExMDcwMDI3MDlaMIGUMQ8wDQYDVQQDEwZnb3YudXMxDjAMBgNVBAsTBUNo
YW9zMQwwCgYDVQQKEwNvcmcxHDAaBgNVBAkTEzMyMTAgSG9sbHkgTWlsbCBSdW4x
ETAPBgNVBAgTCHByb3ZpbmNlMQ4wDAYDVQQREwUzMDA2MjEOMAwGA1UEKhMFaGVs
bG8xEDAOBgNVBAQTB3N1cm5hbWUxADCCASIwDQYJKoZIhvcNAQEBBQADggEPADCC
AQoCggEBANcGiX2r09BBrhxE+EpJXNFkxV7kw4N8pnrwxUkvrpI8RlGcRolzphi2
zU7+MSy6q63OkYnSS3JkgsJkHvCDibC0g/VoAHzoxd4YbhOMnsafCb1f55LpVK0t
85JffjOub8+3HtX81wlkoBZ8pr03EAVUKh2NSN0PfRzvxWVIOvRF36dg+aHr3ks0
fTbMQzFdLE81N/+lhaS8qvsFlaPo6TdGIzDCeSk7CUAWV1D2Am8p6u480G2mN0Nz
xChqtQM45BB9QKTUD2eX81nZabVUGTSrJpI9NzigFPCqhknT9tDdpb99zrup9FsL
B/HkAT4pOcV+OZojW4IbmMGDQV7aEBMCAwEAAaOB7jCB6zAOBgNVHQ8BAf8EBAMC
AKAwHQYDVR0lBBYwFAYIKwYBBQUHAwIGCCsGAQUFBwMBMA8GA1UdEwEB/wQFMAMB
Af8wDgYDVR0jBAcwBYADAQIDMGIGCCsGAQUFBwEBBFYwVDAhBggrBgEFBQcwAYYV
aHR0cDovL3RoZWNhLm5ldC9vY3NwMC8GCCsGAQUFBzAChiNodHRwOi8vdGhlY2Eu
bmV0L3RvdGFsbHl0aGVjZXJ0LmNydDAiBgNVHREEGzAZghdibF9vZy5oZWxsby5z
dXJ5YS5jby51azARBgNVHSAECjAIMAYGBFUdIAAwCwYJKoZIhvcNAQELA4IBAQCf
Wi6aVQMvXPsQsIU/mi2eHDj8hGWPa4i8zfBqg7Xz81+sbrxeLQV90piy6//tEp3V
54RxvE5hliUviovMA5p5LihbRf9KOVw43OYj0DaFgjdMTa/e7w1tVDriDQ5YG3bf
Ypm0HixKdupH6dp47oEvSp3xGQgTSUEOLFnsA9Vv6Z6686FwnopR6/zU542uqv98
wr/60Ken+NsYFh/BwqG+N6cfClgawdDm4xF1HSez3Q6gHr5fgtqrNHFsSI0/dseH
6+B7a6MdmMRO64A1Om1yzkQ0FSH+6iSUMWHQJUVHmXdequtdaPrl+TbixK3Y3yie
k0wbPFjrmkQ/mmlM8c2p
-----END CERTIFICATE-----
