Certificate:
    Data:
        Version: 3 (0x2)
        Serial Number: 1 (0x1)
    Signature Algorithm: sha256WithRSAEncryption
        Issuer: CN=Mother Nature, OU=Everything, O=Mother Nature/postalCode=postalcode, C=US, GN=givenname, SN=surname
        Validity
            Not Before: Aug 28 15:31:32 2017 GMT
            Not After : Nov  9 16:31:32 2017 GMT
        Subject: CN=gov.us, OU=Chaos, O=org/street=3210 Holly Mill Run, ST=province/postalCode=30062, GN=hello, SN=surname
        Subject Public Key Info:
            Public Key Algorithm: rsaEncryption
                Public-Key: (2048 bit)
                Modulus:
                    00:b3:64:bc:52:98:8e:3a:2e:fe:e9:6c:ea:0c:34:
                    f3:31:e4:45:9a:66:32:7f:47:c6:1b:70:61:33:9b:
                    f0:4d:05:6f:9e:60:ec:dc:53:98:1e:68:b5:cf:bd:
                    da:05:e0:fe:5e:09:60:2e:89:85:35:e2:a3:65:64:
                    bf:6c:48:63:87:43:f9:6f:07:fc:c8:9a:68:a9:59:
                    53:16:bb:3b:db:97:6b:84:ce:e5:7e:a9:8d:df:ae:
                    8c:09:86:20:59:0b:4f:a1:46:b8:fb:cc:d9:24:45:
                    14:21:bf:ad:b4:dd:f9:b9:25:fe:6e:0d:0a:5d:c0:
                    ab:04:c0:13:8c:cc:eb:64:92:2e:7a:18:b5:93:7d:
                    2e:26:20:16:84:5c:28:be:d7:dc:c8:9a:ce:19:28:
                    80:db:b2:bf:3f:06:50:30:69:75:e6:74:67:c6:47:
                    bd:d7:27:e1:28:cf:5f:01:9d:67:9b:a5:94:b2:bc:
                    78:c7:2b:24:d1:82:a2:ea:59:ba:bd:77:04:64:68:
                    30:e5:b5:88:bb:12:ad:51:c8:cf:e6:b3:cf:b9:a5:
                    53:68:27:52:57:07:44:9d:2a:21:b8:16:fd:63:7e:
                    97:81:c4:e5:4e:fa:6f:27:1b:6a:b7:72:e0:ff:7f:
                    a3:ab:7d:f1:4e:f0:28:9f:78:df:29:48:5f:ce:a9:
                    bb:c1
                Exponent: 65537 (0x10001)
        X509v3 extensions:
            X509v3 Key Usage: critical
                Digital Signature, Key Encipherment
            X509v3 Extended Key Usage: 
                TLS Web Client Authentication, TLS Web Server Authentication
            X509v3 Basic Constraints: critical
                CA:FALSE
            X509v3 Authority Key Identifier: 
                keyid:01:02:03

            Authority Information Access: 
                OCSP - URI:http://theca.net/ocsp
                CA Issuers - URI:http://theca.net/totallythecert.crt

            X509v3 Subject Alternative Name: 
                DNS:subtlety-.co.uk
            X509v3 Certificate Policies: 
                Policy: X509v3 Any Policy

    Signature Algorithm: sha256WithRSAEncryption
         63:db:07:7a:ac:47:85:ba:43:9c:ab:2c:92:70:86:09:87:38:
         c2:cb:ee:bb:23:67:93:4f:9e:07:ec:57:3e:f5:eb:a9:b4:2c:
         1d:0d:11:29:08:63:7f:24:29:32:38:8f:ec:34:f0:5e:6a:20:
         bf:b6:4a:cf:cf:9a:eb:e1:a2:18:a9:37:8d:4b:14:c6:17:2d:
         96:18:e7:44:0a:65:2a:7f:ef:41:d6:e8:31:fd:15:29:77:ef:
         33:0f:1f:b4:73:62:de:5b:d0:b7:89:29:16:31:f7:11:87:e9:
         3c:be:65:97:ce:96:40:80:18:97:08:50:f3:b3:44:93:c6:ab:
         37:e3:34:54:fa:d7:65:81:4a:c5:0c:31:bf:1c:2a:da:8b:78:
         61:1e:57:b7:dd:4c:02:32:80:54:6a:4f:f5:b7:ba:3b:5c:32:
         cb:55:65:d4:a5:4d:6b:7d:5d:b8:f7:ea:27:1c:5d:b6:07:2d:
         ef:d0:c5:3c:80:ad:fb:b6:c2:5c:c7:a2:02:a5:e5:d1:0f:61:
         85:a6:3b:88:f1:55:7d:c7:fd:e2:c1:c8:e0:8e:31:f3:60:8a:
         49:de:f4:52:0e:84:33:77:ed:ff:d0:40:6b:a4:fb:4b:d8:cd:
         bc:50:9a:76:d3:80:f5:52:06:9b:53:b8:68:f1:ef:aa:6e:43:
         1c:85:be:5a
-----BEGIN CERTIFICATE-----
MIIEgDCCA2qgAwIBAgIBATALBgkqhkiG9w0BAQswgY8xFjAUBgNVBAMTDU1vdGhl
ciBOYXR1cmUxEzARBgNVBAsTCkV2ZXJ5dGhpbmcxFjAUBgNVBAoTDU1vdGhlciBO
YXR1cmUxEzARBgNVBBETCnBvc3RhbGNvZGUxCzAJBgNVBAYTAlVTMRIwEAYDVQQq
EwlnaXZlbm5hbWUxEDAOBgNVBAQTB3N1cm5hbWUxADAeFw0xNzA4MjgxNTMxMzJa
Fw0xNzExMDkxNjMxMzJaMIGUMQ8wDQYDVQQDEwZnb3YudXMxDjAMBgNVBAsTBUNo
YW9zMQwwCgYDVQQKEwNvcmcxHDAaBgNVBAkTEzMyMTAgSG9sbHkgTWlsbCBSdW4x
ETAPBgNVBAgTCHByb3ZpbmNlMQ4wDAYDVQQREwUzMDA2MjEOMAwGA1UEKhMFaGVs
bG8xEDAOBgNVBAQTB3N1cm5hbWUxADCCASIwDQYJKoZIhvcNAQEBBQADggEPADCC
AQoCggEBALNkvFKYjjou/uls6gw08zHkRZpmMn9HxhtwYTOb8E0Fb55g7NxTmB5o
tc+92gXg/l4JYC6JhTXio2Vkv2xIY4dD+W8H/MiaaKlZUxa7O9uXa4TO5X6pjd+u
jAmGIFkLT6FGuPvM2SRFFCG/rbTd+bkl/m4NCl3AqwTAE4zM62SSLnoYtZN9LiYg
FoRcKL7X3MiazhkogNuyvz8GUDBpdeZ0Z8ZHvdcn4SjPXwGdZ5ullLK8eMcrJNGC
oupZur13BGRoMOW1iLsSrVHIz+azz7mlU2gnUlcHRJ0qIbgW/WN+l4HE5U76bycb
ardy4P9/o6t98U7wKJ943ylIX86pu8ECAwEAAaOB4zCB4DAOBgNVHQ8BAf8EBAMC
AKAwHQYDVR0lBBYwFAYIKwYBBQUHAwIGCCsGAQUFBwMBMAwGA1UdEwEB/wQCMAAw
DgYDVR0jBAcwBYADAQIDMGIGCCsGAQUFBwEBBFYwVDAhBggrBgEFBQcwAYYVaHR0
cDovL3RoZWNhLm5ldC9vY3NwMC8GCCsGAQUFBzAChiNodHRwOi8vdGhlY2EubmV0
L3RvdGFsbHl0aGVjZXJ0LmNydDAaBgNVHREEEzARgg9zdWJ0bGV0eS0uY28udWsw
EQYDVR0gBAowCDAGBgRVHSAAMAsGCSqGSIb3DQEBCwOCAQEAY9sHeqxHhbpDnKss
knCGCYc4wsvuuyNnk0+eB+xXPvXrqbQsHQ0RKQhjfyQpMjiP7DTwXmogv7ZKz8+a
6+GiGKk3jUsUxhctlhjnRAplKn/vQdboMf0VKXfvMw8ftHNi3lvQt4kpFjH3EYfp
PL5ll86WQIAYlwhQ87NEk8arN+M0VPrXZYFKxQwxvxwq2ot4YR5Xt91MAjKAVGpP
9be6O1wyy1Vl1KVNa31duPfqJxxdtgct79DFPICt+7bCXMeiAqXl0Q9hhaY7iPFV
fcf94sHI4I4x82CKSd70Ug6EM3ft/9BAa6T7S9jNvFCadtOA9VIGm1O4aPHvqm5D
HIW+Wg==
-----END CERTIFICATE-----
