Certificate:
    Data:
        Version: 3 (0x2)
        Serial Number: 1 (0x1)
    Signature Algorithm: sha256WithRSAEncryption
        Issuer: CN=Mother Nature, OU=Everything, O=Mother Nature/postalCode=postalcode, C=US, GN=givenname, SN=surname
        Validity
            Not Before: Aug 26 01:42:41 2017 GMT
            Not After : Nov  7 02:42:41 2017 GMT
        Subject: CN=gov.us, OU=Chaos, O=org/street=3210 Holly Mill Run, ST=province/postalCode=30062, GN=hello, SN=surname
        Subject Public Key Info:
            Public Key Algorithm: rsaEncryption
                Public-Key: (2048 bit)
                Modulus:
                    00:f4:4a:b3:e5:47:23:74:12:f5:c8:9c:18:a6:d7:
                    98:87:ca:71:e3:b3:fe:06:01:25:b0:11:54:4e:68:
                    32:08:39:72:3d:1a:d5:4a:f7:d8:0d:61:c8:8b:46:
                    6d:26:fd:34:c4:d7:9e:cc:0f:e2:a4:82:c6:71:b3:
                    97:f3:3e:ad:a2:b1:d9:78:5b:b8:1f:e9:80:d0:15:
                    b6:14:61:15:c3:e2:58:64:8a:78:1c:b6:1e:b8:63:
                    65:07:19:cc:d8:a8:f9:09:c4:4b:33:0c:ed:a9:88:
                    d5:2a:22:d0:d8:44:62:1a:5c:a6:67:6b:67:89:44:
                    93:de:87:24:db:50:89:95:8d:df:8d:ec:ad:28:6a:
                    da:12:22:f3:b6:2d:93:40:42:51:db:fb:4a:70:c7:
                    cd:ee:81:69:16:3f:0b:04:57:32:11:c7:81:a4:11:
                    95:8a:3e:2b:fc:9a:0e:e2:a6:02:be:46:5e:3e:17:
                    e8:4d:6b:62:80:ea:52:66:fe:6a:6f:76:8e:20:e6:
                    d1:67:e4:2c:5a:25:e5:84:c9:55:aa:b8:ba:71:13:
                    f3:d2:83:ce:27:4a:5c:71:3f:d1:6e:bc:2d:8c:95:
                    38:69:46:fe:c7:fe:0a:40:07:65:76:06:c0:97:b4:
                    3d:94:9a:d7:4d:3b:5d:58:29:1e:47:76:da:a1:a3:
                    f0:91
                Exponent: 65537 (0x10001)
        X509v3 extensions:
            X509v3 Key Usage: critical
                Digital Signature, Key Encipherment
            X509v3 Extended Key Usage: 
                TLS Web Client Authentication, TLS Web Server Authentication
            X509v3 Basic Constraints: critical
                CA:TRUE
            X509v3 Authority Key Identifier: 
                keyid:01:02:03

            Authority Information Access: 
                OCSP - URI:http://theca.net/ocsp
                CA Issuers - URI:http://theca.net/totallythecert.crt

            X509v3 Subject Alternative Name: 
                DNS:a*.co.uk
            X509v3 Certificate Policies: 
                Policy: X509v3 Any Policy

    Signature Algorithm: sha256WithRSAEncryption
         8a:1c:78:56:38:28:9e:0b:e9:e4:01:d2:cc:b5:93:73:59:28:
         3e:be:28:3e:6c:ad:41:80:36:5d:88:00:64:7a:b9:60:6a:58:
         ea:27:51:19:4c:1d:5b:59:5c:68:b0:3b:fb:8d:3f:1a:61:27:
         5c:3b:96:e3:e4:7b:96:f4:8f:10:c1:0f:a7:f3:8b:fd:8b:5a:
         82:f4:d0:f5:a9:0e:14:24:57:a5:7e:c5:97:c2:aa:e4:c0:52:
         8a:06:c8:f4:fd:b3:c8:5d:66:61:7f:11:f5:17:15:7b:44:b7:
         74:9e:b4:05:23:bc:83:00:29:11:41:9c:ba:f5:2b:ee:10:a4:
         25:91:50:5e:b8:bf:49:ae:cf:c1:05:5e:2f:e3:c6:ab:bb:6c:
         4c:e8:7b:09:f8:89:95:07:06:41:a8:bb:07:8a:7c:2d:67:ef:
         b1:6c:45:c7:f6:10:26:a3:f7:7b:4a:af:b3:a1:4b:2f:6e:fa:
         3a:05:1b:03:48:25:ac:8b:e4:fb:19:aa:d1:9f:cb:fc:7d:66:
         1d:a1:79:82:ba:40:8a:1e:3b:e5:1c:a9:42:93:9b:2b:93:89:
         12:b5:b4:b3:0b:fb:8c:3e:44:01:6b:53:a6:9a:4c:fd:09:58:
         e2:3a:b0:0f:f5:a3:fb:cf:fa:10:ff:82:b8:8c:dd:8b:9b:1b:
         03:e2:17:b0
-----BEGIN CERTIFICATE-----
MIIEfDCCA2agAwIBAgIBATALBgkqhkiG9w0BAQswgY8xFjAUBgNVBAMTDU1vdGhl
ciBOYXR1cmUxEzARBgNVBAsTCkV2ZXJ5dGhpbmcxFjAUBgNVBAoTDU1vdGhlciBO
YXR1cmUxEzARBgNVBBETCnBvc3RhbGNvZGUxCzAJBgNVBAYTAlVTMRIwEAYDVQQq
EwlnaXZlbm5hbWUxEDAOBgNVBAQTB3N1cm5hbWUxADAeFw0xNzA4MjYwMTQyNDFa
Fw0xNzExMDcwMjQyNDFaMIGUMQ8wDQYDVQQDEwZnb3YudXMxDjAMBgNVBAsTBUNo
YW9zMQwwCgYDVQQKEwNvcmcxHDAaBgNVBAkTEzMyMTAgSG9sbHkgTWlsbCBSdW4x
ETAPBgNVBAgTCHByb3ZpbmNlMQ4wDAYDVQQREwUzMDA2MjEOMAwGA1UEKhMFaGVs
bG8xEDAOBgNVBAQTB3N1cm5hbWUxADCCASIwDQYJKoZIhvcNAQEBBQADggEPADCC
AQoCggEBAPRKs+VHI3QS9cicGKbXmIfKceOz/gYBJbARVE5oMgg5cj0a1Ur32A1h
yItGbSb9NMTXnswP4qSCxnGzl/M+raKx2XhbuB/pgNAVthRhFcPiWGSKeBy2Hrhj
ZQcZzNio+QnESzMM7amI1Soi0NhEYhpcpmdrZ4lEk96HJNtQiZWN343srShq2hIi
87Ytk0BCUdv7SnDHze6BaRY/CwRXMhHHgaQRlYo+K/yaDuKmAr5GXj4X6E1rYoDq
Umb+am92jiDm0WfkLFol5YTJVaq4unET89KDzidKXHE/0W68LYyVOGlG/sf+CkAH
ZXYGwJe0PZSa1007XVgpHkd22qGj8JECAwEAAaOB3zCB3DAOBgNVHQ8BAf8EBAMC
AKAwHQYDVR0lBBYwFAYIKwYBBQUHAwIGCCsGAQUFBwMBMA8GA1UdEwEB/wQFMAMB
Af8wDgYDVR0jBAcwBYADAQIDMGIGCCsGAQUFBwEBBFYwVDAhBggrBgEFBQcwAYYV
aHR0cDovL3RoZWNhLm5ldC9vY3NwMC8GCCsGAQUFBzAChiNodHRwOi8vdGhlY2Eu
bmV0L3RvdGFsbHl0aGVjZXJ0LmNydDATBgNVHREEDDAKgghhKi5jby51azARBgNV
HSAECjAIMAYGBFUdIAAwCwYJKoZIhvcNAQELA4IBAQCKHHhWOCieC+nkAdLMtZNz
WSg+vig+bK1BgDZdiABkerlgaljqJ1EZTB1bWVxosDv7jT8aYSdcO5bj5HuW9I8Q
wQ+n84v9i1qC9ND1qQ4UJFelfsWXwqrkwFKKBsj0/bPIXWZhfxH1FxV7RLd0nrQF
I7yDACkRQZy69SvuEKQlkVBeuL9Jrs/BBV4v48aru2xM6HsJ+ImVBwZBqLsHinwt
Z++xbEXH9hAmo/d7Sq+zoUsvbvo6BRsDSCWsi+T7GarRn8v8fWYdoXmCukCKHjvl
HKlCk5srk4kStbSzC/uMPkQBa1Ommkz9CVjiOrAP9aP7z/oQ/4K4jN2LmxsD4hew
-----END CERTIFICATE-----
