Certificate:
    Data:
        Version: 3 (0x2)
        Serial Number: 1 (0x1)
    Signature Algorithm: sha256WithRSAEncryption
        Issuer: CN=Mother Nature, OU=Everything, O=Mother Nature/postalCode=postalcode, C=US, GN=givenname, SN=surname
        Validity
            Not Before: Aug 28 21:09:12 2017 GMT
            Not After : Nov  9 22:09:12 2017 GMT
        Subject: CN=gov.us, OU=Chaos, O=org/street=3210 Holly Mill Run, ST=province/postalCode=30062, GN=hello, SN=surname
        Subject Public Key Info:
            Public Key Algorithm: rsaEncryption
                Public-Key: (2048 bit)
                Modulus:
                    00:e8:b2:cb:aa:7a:88:ce:9f:3c:39:02:48:4c:1e:
                    18:fb:d5:d0:e2:f3:f8:09:8f:27:70:45:3b:c9:1d:
                    a4:d4:e2:7c:95:b9:a6:88:40:ec:54:dc:6e:94:78:
                    5d:33:5a:13:a9:f3:a6:08:3a:19:54:bd:51:63:8a:
                    30:e7:ca:55:e7:60:e7:e6:37:5a:27:37:c0:7c:40:
                    df:d7:1c:64:b5:92:62:d2:17:e4:80:86:00:3e:de:
                    9c:88:1a:0c:06:1e:74:cd:59:19:90:68:c9:03:81:
                    57:32:43:10:f0:00:ad:1f:e5:67:35:3d:33:8a:7d:
                    7b:81:0e:61:c7:68:cf:af:09:16:9d:82:f0:08:c3:
                    13:7c:93:93:31:a7:c1:d9:3c:8f:61:ba:09:28:47:
                    17:7f:52:22:50:ea:13:5e:f7:23:8d:6d:c6:b0:74:
                    25:10:5f:1a:dc:d2:66:e0:ac:3f:ef:19:60:8e:ad:
                    eb:a6:d7:4c:20:74:1e:50:70:13:5b:b6:97:9b:1c:
                    3e:c3:5c:1b:e2:de:4c:68:f4:c3:de:56:3d:cf:bc:
                    df:c8:9f:d4:00:74:80:2f:b8:46:4b:ab:92:35:b0:
                    0a:8f:86:a6:8e:3d:12:df:0a:c5:6e:af:19:30:99:
                    42:c1:6c:5c:54:86:f1:52:99:ce:f4:6c:58:3f:67:
                    c2:09
                Exponent: 65537 (0x10001)
        X509v3 extensions:
            X509v3 Key Usage: critical
                Digital Signature, Key Encipherment
            X509v3 Extended Key Usage: 
                TLS Web Client Authentication, TLS Web Server Authentication
            X509v3 Basic Constraints: critical
                CA:FALSE
            X509v3 Authority Key Identifier: 
                keyid:01:02:03

            Authority Information Access: 
                OCSP - URI:http://theca.net/ocsp
                CA Issuers - URI:http://theca.net/totallythecert.crt

            X509v3 Subject Alternative Name: 
                DNS:aaaaaaaaaaaaaaaaaaaaaaaaaaaaaaaaaaaaaaaaaaaaaaaaaaaaaaaaaaaaaaaaaaaaaaaaaaaaaaaaaaaaaaaaaaaaaaaaaaaaaaaaaaaaaaaaaaaaaaaaaaaaaaaaaaaaaaaaaaaaaaaaaaaaaaaaaaaaaaaaaaaaaaaaaaaaaaaaaaaaaaaaaaaaaaaaaaaaaaaaaaaaaaaaaaaaaaaaaaaaaaaaaaaaaa.com.uk
            X509v3 Certificate Policies: 
                Policy: X509v3 Any Policy

    Signature Algorithm: sha256WithRSAEncryption
         2b:38:dc:f8:3e:1a:25:15:88:f7:9f:9c:4e:b1:c2:67:d9:f7:
         69:76:ad:a4:e2:42:5a:49:5e:2f:d5:07:e1:8f:b5:69:3b:1b:
         d3:e5:83:2e:6f:19:77:78:b5:7b:41:fb:92:07:79:ad:4e:44:
         6c:b0:ab:7d:9c:c2:07:08:a9:42:9b:9f:24:5b:4d:5b:c0:ea:
         22:3f:fd:99:9f:f6:0f:79:35:75:c8:4a:91:e0:26:a8:9a:63:
         b8:3d:49:73:a7:bd:6b:5d:24:d7:b3:3b:20:4e:21:49:f7:c9:
         1b:7f:c2:80:b1:30:da:8e:8d:cf:83:27:4f:74:5e:a3:b7:b0:
         4f:45:e6:40:26:09:b5:09:80:16:be:5f:e8:45:dc:59:77:9b:
         06:ce:31:2a:17:56:d2:fc:54:74:9a:a8:76:9a:ac:52:4e:9e:
         bb:7f:85:40:20:4f:f2:7e:cf:b7:99:2a:18:d8:d8:3d:2f:d6:
         12:b5:c3:43:db:5b:81:3a:0b:1f:66:e6:ef:95:50:a8:99:d6:
         ad:7f:89:27:bc:a8:68:f3:f9:e2:56:24:86:c2:c6:e5:13:a1:
         9f:cc:97:e4:a5:04:92:e4:fe:25:3c:8e:65:5d:ad:bd:36:3a:
         61:11:eb:ef:3e:cf:58:a6:e8:c3:62:83:9f:1d:19:91:79:57:
         61:f8:fb:1b
-----BEGIN CERTIFICATE-----
MIIFZDCCBE6gAwIBAgIBATALBgkqhkiG9w0BAQswgY8xFjAUBgNVBAMTDU1vdGhl
ciBOYXR1cmUxEzARBgNVBAsTCkV2ZXJ5dGhpbmcxFjAUBgNVBAoTDU1vdGhlciBO
YXR1cmUxEzARBgNVBBETCnBvc3RhbGNvZGUxCzAJBgNVBAYTAlVTMRIwEAYDVQQq
EwlnaXZlbm5hbWUxEDAOBgNVBAQTB3N1cm5hbWUxADAeFw0xNzA4MjgyMTA5MTJa
Fw0xNzExMDkyMjA5MTJaMIGUMQ8wDQYDVQQDEwZnb3YudXMxDjAMBgNVBAsTBUNo
YW9zMQwwCgYDVQQKEwNvcmcxHDAaBgNVBAkTEzMyMTAgSG9sbHkgTWlsbCBSdW4x
ETAPBgNVBAgTCHByb3ZpbmNlMQ4wDAYDVQQREwUzMDA2MjEOMAwGA1UEKhMFaGVs
bG8xEDAOBgNVBAQTB3N1cm5hbWUxADCCASIwDQYJKoZIhvcNAQEBBQADggEPADCC
AQoCggEBAOiyy6p6iM6fPDkCSEweGPvV0OLz+AmPJ3BFO8kdpNTifJW5pohA7FTc
bpR4XTNaE6nzpgg6GVS9UWOKMOfKVedg5+Y3Wic3wHxA39ccZLWSYtIX5ICGAD7e
nIgaDAYedM1ZGZBoyQOBVzJDEPAArR/lZzU9M4p9e4EOYcdoz68JFp2C8AjDE3yT
kzGnwdk8j2G6CShHF39SIlDqE173I41txrB0JRBfGtzSZuCsP+8ZYI6t66bXTCB0
HlBwE1u2l5scPsNcG+LeTGj0w95WPc+838if1AB0gC+4RkurkjWwCo+Gpo49Et8K
xW6vGTCZQsFsXFSG8VKZzvRsWD9nwgkCAwEAAaOCAcYwggHCMA4GA1UdDwEB/wQE
AwIAoDAdBgNVHSUEFjAUBggrBgEFBQcDAgYIKwYBBQUHAwEwDAYDVR0TAQH/BAIw
ADAOBgNVHSMEBzAFgAMBAgMwYgYIKwYBBQUHAQEEVjBUMCEGCCsGAQUFBzABhhVo
dHRwOi8vdGhlY2EubmV0L29jc3AwLwYIKwYBBQUHMAKGI2h0dHA6Ly90aGVjYS5u
ZXQvdG90YWxseXRoZWNlcnQuY3J0MIH7BgNVHREEgfMwgfCCge1hYWFhYWFhYWFh
YWFhYWFhYWFhYWFhYWFhYWFhYWFhYWFhYWFhYWFhYWFhYWFhYWFhYWFhYWFhYWFh
YWFhYWFhYWFhYWFhYWFhYWFhYWFhYWFhYWFhYWFhYWFhYWFhYWFhYWFhYWFhYWFh
YWFhYWFhYWFhYWFhYWFhYWFhYWFhYWFhYWFhYWFhYWFhYWFhYWFhYWFhYWFhYWFh
YWFhYWFhYWFhYWFhYWFhYWFhYWFhYWFhYWFhYWFhYWFhYWFhYWFhYWFhYWFhYWFh
YWFhYWFhYWFhYWFhYWFhYWFhYWFhYWFhYWFhYS5jb20udWswEQYDVR0gBAowCDAG
BgRVHSAAMAsGCSqGSIb3DQEBCwOCAQEAKzjc+D4aJRWI95+cTrHCZ9n3aXatpOJC
WkleL9UH4Y+1aTsb0+WDLm8Zd3i1e0H7kgd5rU5EbLCrfZzCBwipQpufJFtNW8Dq
Ij/9mZ/2D3k1dchKkeAmqJpjuD1Jc6e9a10k17M7IE4hSffJG3/CgLEw2o6Nz4Mn
T3Reo7ewT0XmQCYJtQmAFr5f6EXcWXebBs4xKhdW0vxUdJqodpqsUk6eu3+FQCBP
8n7Pt5kqGNjYPS/WErXDQ9tbgToLH2bm75VQqJnWrX+JJ7yoaPP54lYkhsLG5ROh
n8yX5KUEkuT+JTyOZV2tvTY6YRHr7z7PWKbow2KDnx0ZkXlXYfj7Gw==
-----END CERTIFICATE-----
