Certificate:
    Data:
        Version: 3 (0x2)
        Serial Number: 1 (0x1)
    Signature Algorithm: sha256WithRSAEncryption
        Issuer: CN=Mother Nature, OU=Everything, O=Mother Nature/postalCode=postalcode, C=US, GN=givenname, SN=surname
        Validity
            Not Before: Aug 25 22:56:32 2017 GMT
            Not After : Nov  6 23:56:32 2017 GMT
        Subject: CN=gov.us, OU=Chaos, O=org/street=3210 Holly Mill Run, ST=province/postalCode=30062, GN=hello, SN=surname
        Subject Public Key Info:
            Public Key Algorithm: rsaEncryption
                Public-Key: (2048 bit)
                Modulus:
                    00:b1:27:d6:4e:12:dc:66:f7:ec:39:fb:80:7f:06:
                    ba:76:34:9c:42:59:77:8f:7d:9a:3e:d3:e0:d0:b5:
                    40:78:0d:98:bb:e2:d0:e2:0c:66:a4:5f:6a:d7:31:
                    69:09:c7:08:67:d0:8f:7c:62:6d:91:b4:95:6e:94:
                    8e:03:e1:e1:33:c3:00:29:d2:54:b1:e3:01:d3:ff:
                    f3:ab:a2:c9:4f:33:9b:72:5f:85:28:b7:51:a7:b8:
                    41:7e:31:a7:63:12:b2:f9:70:52:b6:47:84:e5:98:
                    62:65:b9:5b:9d:35:63:56:dc:0b:28:50:fa:ab:03:
                    2d:b1:7e:9c:fe:af:48:60:88:8f:93:94:44:45:a2:
                    61:86:37:11:97:ab:cf:52:e2:c3:28:03:f6:af:fd:
                    e6:24:51:4e:36:d2:36:af:1c:68:d6:26:c0:33:f7:
                    81:44:cb:7e:d1:f7:68:c0:43:48:7a:c5:75:c9:07:
                    b6:6f:d9:3e:63:31:4d:a8:eb:3e:88:1c:b5:b0:d4:
                    fc:20:34:f6:c7:9e:e2:a4:c5:ec:33:ab:6d:7e:fd:
                    32:39:fe:cc:5a:87:9c:f1:fa:8d:3d:d5:d1:a4:5a:
                    37:28:ce:67:9d:d6:e2:f7:e9:99:bd:1a:cb:43:56:
                    48:f6:61:3c:00:c9:1b:c1:c2:fc:65:bf:8a:ab:9f:
                    a7:59
                Exponent: 65537 (0x10001)
        X509v3 extensions:
            X509v3 Key Usage: critical
                Digital Signature, Key Encipherment
            X509v3 Extended Key Usage: 
                TLS Web Client Authentication, TLS Web Server Authentication
            X509v3 Basic Constraints: critical
                CA:TRUE
            X509v3 Authority Key Identifier: 
                keyid:01:02:03

            Authority Information Access: 
                OCSP - URI:http://theca.net/ocsp
                CA Issuers - URI:http://theca.net/totallythecert.crt

            X509v3 Subject Alternative Name: 
                DNS:surya.co.uk
            X509v3 Certificate Policies: 
                Policy: X509v3 Any Policy

    Signature Algorithm: sha256WithRSAEncryption
         0d:ce:17:de:58:06:43:02:5f:ea:c9:64:a3:75:5b:a0:83:bd:
         4c:9b:06:dd:af:86:6f:24:9a:c0:17:97:ee:0d:8b:e0:72:21:
         14:e9:cc:88:b1:c0:c2:53:57:63:4c:46:dd:e2:6d:a8:98:6f:
         8d:fa:91:0b:a5:62:d5:85:e7:42:d0:79:94:0f:98:46:91:01:
         e5:d6:3b:50:e7:e3:8a:ac:46:39:a4:9f:95:b4:73:90:d7:87:
         a4:8e:00:31:58:4b:63:d3:b3:07:a8:2c:c2:5e:a6:d3:cd:18:
         ab:1e:37:36:23:37:6a:6c:a4:d3:ff:49:34:3a:95:a6:7b:11:
         f9:d7:25:b5:a5:cc:92:66:b1:17:3d:11:cd:25:34:1e:de:33:
         44:4a:4c:d2:cd:80:bf:64:4e:5c:2d:3f:99:86:19:dd:dd:df:
         52:79:83:ef:97:b6:f4:a7:b9:b4:f7:62:5a:ea:c9:95:20:97:
         1a:c3:88:4b:ba:79:f6:30:1c:39:a7:c7:d1:3c:a3:60:28:07:
         91:53:35:19:b0:4e:f4:dd:42:89:7a:dc:55:60:03:75:fa:83:
         39:bb:fe:15:40:aa:70:b1:c6:04:4e:dd:70:8d:c4:65:ef:a0:
         d0:c0:3e:3e:ca:e6:1a:b6:72:90:56:b3:ff:bd:ff:e6:d3:a2:
         7e:ee:04:d8
-----BEGIN CERTIFICATE-----
MIIEfzCCA2mgAwIBAgIBATALBgkqhkiG9w0BAQswgY8xFjAUBgNVBAMTDU1vdGhl
ciBOYXR1cmUxEzARBgNVBAsTCkV2ZXJ5dGhpbmcxFjAUBgNVBAoTDU1vdGhlciBO
YXR1cmUxEzARBgNVBBETCnBvc3RhbGNvZGUxCzAJBgNVBAYTAlVTMRIwEAYDVQQq
EwlnaXZlbm5hbWUxEDAOBgNVBAQTB3N1cm5hbWUxADAeFw0xNzA4MjUyMjU2MzJa
Fw0xNzExMDYyMzU2MzJaMIGUMQ8wDQYDVQQDEwZnb3YudXMxDjAMBgNVBAsTBUNo
YW9zMQwwCgYDVQQKEwNvcmcxHDAaBgNVBAkTEzMyMTAgSG9sbHkgTWlsbCBSdW4x
ETAPBgNVBAgTCHByb3ZpbmNlMQ4wDAYDVQQREwUzMDA2MjEOMAwGA1UEKhMFaGVs
bG8xEDAOBgNVBAQTB3N1cm5hbWUxADCCASIwDQYJKoZIhvcNAQEBBQADggEPADCC
AQoCggEBALEn1k4S3Gb37Dn7gH8GunY0nEJZd499mj7T4NC1QHgNmLvi0OIMZqRf
atcxaQnHCGfQj3xibZG0lW6UjgPh4TPDACnSVLHjAdP/86uiyU8zm3JfhSi3Uae4
QX4xp2MSsvlwUrZHhOWYYmW5W501Y1bcCyhQ+qsDLbF+nP6vSGCIj5OUREWiYYY3
EZerz1LiwygD9q/95iRRTjbSNq8caNYmwDP3gUTLftH3aMBDSHrFdckHtm/ZPmMx
TajrPogctbDU/CA09see4qTF7DOrbX79Mjn+zFqHnPH6jT3V0aRaNyjOZ53W4vfp
mb0ay0NWSPZhPADJG8HC/GW/iqufp1kCAwEAAaOB4jCB3zAOBgNVHQ8BAf8EBAMC
AKAwHQYDVR0lBBYwFAYIKwYBBQUHAwIGCCsGAQUFBwMBMA8GA1UdEwEB/wQFMAMB
Af8wDgYDVR0jBAcwBYADAQIDMGIGCCsGAQUFBwEBBFYwVDAhBggrBgEFBQcwAYYV
aHR0cDovL3RoZWNhLm5ldC9vY3NwMC8GCCsGAQUFBzAChiNodHRwOi8vdGhlY2Eu
bmV0L3RvdGFsbHl0aGVjZXJ0LmNydDAWBgNVHREEDzANggtzdXJ5YS5jby51azAR
BgNVHSAECjAIMAYGBFUdIAAwCwYJKoZIhvcNAQELA4IBAQANzhfeWAZDAl/qyWSj
dVugg71Mmwbdr4ZvJJrAF5fuDYvgciEU6cyIscDCU1djTEbd4m2omG+N+pELpWLV
hedC0HmUD5hGkQHl1jtQ5+OKrEY5pJ+VtHOQ14ekjgAxWEtj07MHqCzCXqbTzRir
Hjc2IzdqbKTT/0k0OpWmexH51yW1pcySZrEXPRHNJTQe3jNESkzSzYC/ZE5cLT+Z
hhnd3d9SeYPvl7b0p7m092Ja6smVIJcaw4hLunn2MBw5p8fRPKNgKAeRUzUZsE70
3UKJetxVYAN1+oM5u/4VQKpwscYETt1wjcRl76DQwD4+yuYatnKQVrP/vf/m06J+
7gTY
-----END CERTIFICATE-----
