Certificate:
    Data:
        Version: 3 (0x2)
        Serial Number: 18008675309 (0x4316693ed)
    Signature Algorithm: sha256WithRSAEncryption
        Issuer: C = US, O = Mother Nature, OU = Everything, CN = Mother Nature
        Validity
            Not Before: Jun 27 22:50:53 2016 GMT
            Not After : Sep  8 22:50:53 2016 GMT
        Subject: C = US, street = 3210 Holly Mill Run, CN = gov.us
        Subject Public Key Info:
            Public Key Algorithm: rsaEncryption
                Public-Key: (2048 bit)
                Modulus:
                    00:e0:00:f6:d8:4e:ae:62:f8:d1:d4:31:91:ed:1d:
                    2c:54:80:e4:85:7e:dc:40:46:bf:18:44:78:11:1b:
                    61:85:c3:87:dd:2d:66:f0:6c:b3:8c:6e:1e:ef:be:
                    bb:af:28:9b:b6:bb:7d:65:55:35:99:7c:4e:ac:f4:
                    11:e1:59:4b:c2:00:f1:5a:f5:e8:42:1c:95:3a:59:
                    9e:c9:49:2d:d5:d1:49:f7:ae:f1:ea:f8:46:bf:da:
                    14:14:19:31:06:00:1c:d6:d0:17:60:cd:fc:e8:9b:
                    0a:ac:f1:ed:6c:4d:13:51:07:02:9f:68:47:d2:3a:
                    ce:1a:9a:92:d7:17:9b:b4:fd:21:2b:14:c5:e0:87:
                    39:a0:f3:7f:ee:64:9c:af:e2:5b:b1:a4:c3:01:a1:
                    8a:8b:1b:79:d9:a2:78:72:e2:df:06:bc:dc:28:7e:
                    d9:ab:a7:76:66:57:b1:ae:db:5b:9b:cf:8e:cd:7a:
                    39:01:6b:e2:c6:98:5e:f2:95:d4:07:52:03:ac:99:
                    6e:c5:d7:d2:22:01:f4:77:c7:55:1f:55:80:2d:d0:
                    35:38:41:71:88:83:f8:19:c9:f1:1c:96:64:0c:eb:
                    d4:45:f1:6d:ae:63:51:7e:02:09:92:16:7a:f3:8c:
                    f1:e4:e3:d3:06:36:dc:dc:19:54:40:dc:17:c7:8f:
                    f4:a7
                Exponent: 65537 (0x10001)
        X509v3 extensions:
            X509v3 Key Usage: critical
                Digital Signature, Key Encipherment
            X509v3 Extended Key Usage: 
                TLS Web Client Authentication, TLS Web Server Authentication
            X509v3 Basic Constraints: critical
                CA:FALSE
            X509v3 Authority Key Identifier: 
                keyid:01:02:03

            Authority Information Access: 
                OCSP - URI:http://theca.net/ocsp
                CA Issuers - URI:http://theca.net/totallythecert.crt

            X509v3 Certificate Policies: 
                Policy: 2.23.140.1.2.1

            X509v3 Subject Key Identifier: 
                04:03:02:01
            X509v3 Subject Alternative Name: 
                DNS:*.gov.us, DNS:gov.us
    Signature Algorithm: sha256WithRSAEncryption
         a4:e6:dd:96:60:e9:2d:61:b6:a2:9c:d1:07:e9:68:52:db:d2:
         96:88:f0:0c:54:82:45:c7:1a:c9:7d:41:bf:53:b8:75:d1:b8:
         49:e2:9b:7c:48:3d:52:6b:60:7f:2e:6c:96:4d:87:26:1b:bb:
         90:60:c0:64:22:ac:9b:37:b2:ac:0b:21:27:cc:86:02:ca:e5:
         cb:2d:b3:f7:b7:82:e6:28:a6:9b:bb:00:4d:29:ff:a5:e0:57:
         be:29:42:88:ff:69:32:b8:19:d8:ca:90:27:4f:44:20:5f:ed:
         53:1f:39:7a:73:6d:04:74:e9:17:57:12:bd:29:c0:66:c7:a0:
         20:16:37:07:84:9c:57:79:87:e0:a2:af:a0:b4:78:6a:51:28:
         a3:c0:e6:63:fa:e7:06:f5:60:de:38:75:7d:7e:d8:39:9f:57:
         c5:4d:1d:db:57:aa:fc:6c:a7:67:c7:2e:81:1d:50:9f:f8:57:
         74:ed:40:17:1d:45:54:73:e1:7e:13:06:30:fb:62:87:b6:ca:
         1b:21:08:5f:f7:9a:06:92:c0:f5:97:ce:68:75:37:7b:72:6e:
         b6:dc:33:d3:78:ce:28:15:51:59:f9:88:8d:24:5b:ef:54:52:
         68:70:4b:6f:31:60:07:83:7e:78:e0:b0:61:a5:a0:14:60:71:
         cf:6e:5d:e7
-----BEGIN CERTIFICATE-----
MIIEAzCCAuugAwIBAgIFBDFmk+0wDQYJKoZIhvcNAQELBQAwUjELMAkGA1UEBhMC
VVMxFjAUBgNVBAoTDU1vdGhlciBOYXR1cmUxEzARBgNVBAsTCkV2ZXJ5dGhpbmcx
FjAUBgNVBAMTDU1vdGhlciBOYXR1cmUwHhcNMTYwNjI3MjI1MDUzWhcNMTYwOTA4
MjI1MDUzWjA8MQswCQYDVQQGEwJVUzEcMBoGA1UECRMTMzIxMCBIb2xseSBNaWxs
IFJ1bjEPMA0GA1UEAxMGZ292LnVzMIIBIjANBgkqhkiG9w0BAQEFAAOCAQ8AMIIB
CgKCAQEA4AD22E6uYvjR1DGR7R0sVIDkhX7cQEa/GER4ERthhcOH3S1m8GyzjG4e
7767ryibtrt9ZVU1mXxOrPQR4VlLwgDxWvXoQhyVOlmeyUkt1dFJ967x6vhGv9oU
FBkxBgAc1tAXYM386JsKrPHtbE0TUQcCn2hH0jrOGpqS1xebtP0hKxTF4Ic5oPN/
7mScr+JbsaTDAaGKixt52aJ4cuLfBrzcKH7Zq6d2Zlexrttbm8+OzXo5AWvixphe
8pXUB1IDrJluxdfSIgH0d8dVH1WALdA1OEFxiIP4GcnxHJZkDOvURfFtrmNRfgIJ
khZ684zx5OPTBjbc3BlUQNwXx4/0pwIDAQABo4H1MIHyMA4GA1UdDwEB/wQEAwIF
oDAdBgNVHSUEFjAUBggrBgEFBQcDAgYIKwYBBQUHAwEwDAYDVR0TAQH/BAIwADAO
BgNVHSMEBzAFgAMBAgMwYgYIKwYBBQUHAQEEVjBUMCEGCCsGAQUFBzABhhVodHRw
Oi8vdGhlY2EubmV0L29jc3AwLwYIKwYBBQUHMAKGI2h0dHA6Ly90aGVjYS5uZXQv
dG90YWxseXRoZWNlcnQuY3J0MBMGA1UdIAQMMAowCAYGZ4EMAQIBMA0GA1UdDgQG
BAQEAwIBMBsGA1UdEQQUMBKCCCouZ292LnVzggZnb3YudXMwDQYJKoZIhvcNAQEL
BQADggEBAKTm3ZZg6S1htqKc0QfpaFLb0paI8AxUgkXHGsl9Qb9TuHXRuEnim3xI
PVJrYH8ubJZNhyYbu5BgwGQirJs3sqwLISfMhgLK5csts/e3guYoppu7AE0p/6Xg
V74pQoj/aTK4GdjKkCdPRCBf7VMfOXpzbQR06RdXEr0pwGbHoCAWNweEnFd5h+Ci
r6C0eGpRKKPA5mP65wb1YN44dX1+2DmfV8VNHdtXqvxsp2fHLoEdUJ/4V3TtQBcd
RVRz4X4TBjD7Yoe2yhshCF/3mgaSwPWXzmh1N3tybrbcM9N4zigVUVn5iI0kW+9U
UmhwS28xYAeDfnjgsGGloBRgcc9uXec=
-----END CERTIFICATE-----
