Certificate:
    Data:
        Version: 3 (0x2)
        Serial Number: 18008675309 (0x4316693ed)
    Signature Algorithm: sha256WithRSAEncryption
        Issuer: C = US, O = Mother Nature, OU = Everything, CN = Mother Nature
        Validity
            Not Before: Jun 29 19:27:54 2016 GMT
            Not After : Sep 10 19:27:54 2016 GMT
        Subject: CN = gov.us
        Subject Public Key Info:
            Public Key Algorithm: rsaEncryption
                Public-Key: (2048 bit)
                Modulus:
                    00:d1:93:7a:40:82:d1:0b:ba:7f:ce:d7:73:31:53:
                    96:8e:e6:0f:5b:f7:5f:03:39:cc:ed:0a:b0:ba:da:
                    38:17:b4:01:a1:f5:67:b7:f9:1b:b4:0a:4b:9b:8f:
                    64:6f:61:aa:be:5a:84:47:e4:de:b2:e4:67:d1:ab:
                    60:e2:66:af:26:82:e1:e1:a4:cf:e5:f4:27:40:8a:
                    5d:d7:a6:0b:c6:6f:ae:59:9b:df:f3:4e:14:17:50:
                    c6:ef:82:41:0d:06:7e:b0:74:1c:10:2a:74:cf:0b:
                    68:f3:19:2f:c5:b1:49:fc:8f:9a:8a:79:0b:13:b4:
                    f8:cc:9c:9e:67:e0:1b:71:3a:48:d4:4e:ae:8a:b3:
                    ec:24:dd:04:af:7f:97:92:66:1e:b4:eb:83:97:22:
                    7f:dd:5c:64:c2:3f:9f:e7:75:86:bf:fd:79:9f:08:
                    d0:a1:4c:a1:19:77:bf:30:0b:19:5c:b7:f4:75:ac:
                    ce:18:7a:85:ee:fa:d6:7e:36:dd:b2:4b:6f:12:b3:
                    b1:22:b6:3a:19:ae:94:64:5f:4a:55:b9:89:66:fc:
                    ee:5d:d1:99:9d:01:7f:9b:db:f8:17:ca:46:ea:9d:
                    89:9c:41:35:5c:8f:05:c7:19:9a:5e:dc:1a:3e:0a:
                    37:b9:a9:0e:28:45:0f:a3:07:83:f5:aa:d0:2b:8d:
                    91:cd
                Exponent: 65537 (0x10001)
        X509v3 extensions:
            X509v3 Key Usage: critical
                Digital Signature, Key Encipherment
            X509v3 Extended Key Usage: 
                TLS Web Client Authentication, TLS Web Server Authentication
            X509v3 Basic Constraints: critical
                CA:TRUE
            X509v3 Authority Key Identifier: 
                keyid:01:02:03

            Authority Information Access: 
                OCSP - URI:http://theca.net/ocsp
                CA Issuers - URI:http://theca.net/totallythecert.crt

            X509v3 Certificate Policies: 
                Policy: 2.23.140.1.2.1

            X509v3 Subject Key Identifier: 
                04:03:02:01
            X509v3 Subject Alternative Name: 
                DNS:*.gov.us, DNS:gov.us
    Signature Algorithm: sha256WithRSAEncryption
         d5:a3:dc:e4:1e:da:40:63:89:15:3d:df:eb:07:58:25:2e:22:
         7a:3d:13:b9:e5:aa:43:94:93:14:bf:64:ca:96:c5:4d:e1:24:
         14:e0:a7:0f:8f:da:2e:0e:1c:61:91:ce:ce:1c:d8:b3:b5:55:
         e2:ba:7d:fb:11:da:b7:36:24:ff:53:b5:02:33:4c:4e:9a:6b:
         f8:43:e6:06:3e:3b:94:e7:ea:f2:43:2e:ab:6b:10:35:9c:c5:
         9a:8d:0b:c7:c3:3b:22:a8:a4:ba:88:34:76:bc:33:e5:5d:82:
         67:d2:9a:08:c3:b6:c3:c4:c5:d1:e5:57:8c:85:73:9f:2d:c4:
         44:f3:ee:8f:0a:e1:4a:de:90:fb:92:06:69:96:a9:7a:23:fb:
         a6:e5:76:0b:b1:1a:9f:21:c4:d4:8c:be:bc:f0:6a:d7:03:48:
         f7:56:e5:a9:07:2e:9e:8f:7c:ec:d9:85:51:90:16:92:e3:92:
         01:9c:16:75:fe:f5:e8:1c:33:c9:00:11:3e:40:47:78:03:f3:
         20:aa:2d:87:8f:0f:83:75:0e:c5:27:04:3a:d0:0c:21:04:78:
         3b:78:32:0c:85:57:70:9f:23:b7:c3:66:e3:c2:86:3b:2a:50:
         5a:82:70:2e:63:65:d8:ee:e7:92:26:b4:c5:c7:0c:1e:e7:1c:
         c6:b8:b9:8f
-----BEGIN CERTIFICATE-----
MIID2zCCAsOgAwIBAgIFBDFmk+0wDQYJKoZIhvcNAQELBQAwUjELMAkGA1UEBhMC
VVMxFjAUBgNVBAoTDU1vdGhlciBOYXR1cmUxEzARBgNVBAsTCkV2ZXJ5dGhpbmcx
FjAUBgNVBAMTDU1vdGhlciBOYXR1cmUwHhcNMTYwNjI5MTkyNzU0WhcNMTYwOTEw
MTkyNzU0WjARMQ8wDQYDVQQDEwZnb3YudXMwggEiMA0GCSqGSIb3DQEBAQUAA4IB
DwAwggEKAoIBAQDRk3pAgtELun/O13MxU5aO5g9b918DOcztCrC62jgXtAGh9We3
+Ru0Ckubj2RvYaq+WoRH5N6y5GfRq2DiZq8mguHhpM/l9CdAil3XpgvGb65Zm9/z
ThQXUMbvgkENBn6wdBwQKnTPC2jzGS/FsUn8j5qKeQsTtPjMnJ5n4BtxOkjUTq6K
s+wk3QSvf5eSZh6064OXIn/dXGTCP5/ndYa//XmfCNChTKEZd78wCxlct/R1rM4Y
eoXu+tZ+Nt2yS28Ss7EitjoZrpRkX0pVuYlm/O5d0ZmdAX+b2/gXykbqnYmcQTVc
jwXHGZpe3Bo+Cje5qQ4oRQ+jB4P1qtArjZHNAgMBAAGjgfgwgfUwDgYDVR0PAQH/
BAQDAgWgMB0GA1UdJQQWMBQGCCsGAQUFBwMCBggrBgEFBQcDATAPBgNVHRMBAf8E
BTADAQH/MA4GA1UdIwQHMAWAAwECAzBiBggrBgEFBQcBAQRWMFQwIQYIKwYBBQUH
MAGGFWh0dHA6Ly90aGVjYS5uZXQvb2NzcDAvBggrBgEFBQcwAoYjaHR0cDovL3Ro
ZWNhLm5ldC90b3RhbGx5dGhlY2VydC5jcnQwEwYDVR0gBAwwCjAIBgZngQwBAgEw
DQYDVR0OBAYEBAQDAgEwGwYDVR0RBBQwEoIIKi5nb3YudXOCBmdvdi51czANBgkq
hkiG9w0BAQsFAAOCAQEA1aPc5B7aQGOJFT3f6wdYJS4iej0TueWqQ5STFL9kypbF
TeEkFOCnD4/aLg4cYZHOzhzYs7VV4rp9+xHatzYk/1O1AjNMTppr+EPmBj47lOfq
8kMuq2sQNZzFmo0Lx8M7Iqikuog0drwz5V2CZ9KaCMO2w8TF0eVXjIVzny3ERPPu
jwrhSt6Q+5IGaZapeiP7puV2C7EanyHE1Iy+vPBq1wNI91blqQcuno987NmFUZAW
kuOSAZwWdf716BwzyQARPkBHeAPzIKoth48Pg3UOxScEOtAMIQR4O3gyDIVXcJ8j
t8Nm48KGOypQWoJwLmNl2O7nkia0xccMHuccxri5jw==
-----END CERTIFICATE-----
