Certificate:
    Data:
        Version: 3 (0x2)
        Serial Number: 18008675309 (0x4316693ed)
    Signature Algorithm: sha256WithRSAEncryption
        Issuer: C = US, O = Mother Nature, OU = Everything, CN = Mother Nature
        Validity
            Not Before: Jun 28 23:04:58 2016 GMT
            Not After : Sep  9 23:04:58 2016 GMT
        Subject: C = US, ST = FL, L = Tallahassee, street = 3210 Holly Mill Run, postalCode = 30062, O = Extreme Discord, OU = Chaos, CN = gov.us
        Subject Public Key Info:
            Public Key Algorithm: rsaEncryption
                Public-Key: (2048 bit)
                Modulus:
                    00:c8:cd:7e:c6:6a:07:66:f2:4a:57:4d:a5:f4:ba:
                    29:1c:e5:2a:cf:68:28:46:19:b3:c4:7f:20:3a:fd:
                    c5:8d:6e:8b:c8:62:91:b3:2e:89:0e:29:26:62:43:
                    44:a8:ee:00:62:fd:e7:f4:a9:e4:38:ee:d5:5a:a9:
                    9f:09:59:e1:2c:6f:1d:8b:dc:17:8c:91:49:57:ff:
                    cc:11:50:e1:29:b1:84:11:e9:3a:eb:66:61:f0:60:
                    8c:a7:5e:4e:85:b2:c9:41:e7:2d:bc:f7:89:fb:51:
                    60:91:92:02:f1:22:65:e5:02:a3:97:ec:45:ec:82:
                    73:31:8c:51:d2:5b:34:18:ba:6f:3a:1d:56:69:69:
                    23:b9:d9:89:b0:f6:6e:76:26:5d:72:65:40:59:e1:
                    79:e9:42:ab:06:3a:b5:11:d1:aa:0e:1d:ae:5c:65:
                    35:24:f6:b7:cb:2b:a8:98:e6:16:9c:d3:b5:e7:d7:
                    84:a0:94:7b:e8:e5:0c:78:08:aa:3b:ce:12:2a:16:
                    00:bf:20:71:fa:95:42:61:6f:db:f3:97:e8:cd:ca:
                    a8:c9:f8:20:b9:23:49:50:5c:34:ef:7c:d6:be:76:
                    60:e4:fc:7f:91:d6:cc:1d:fb:7a:0e:b3:6a:54:92:
                    2f:cf:eb:92:91:e3:13:6f:57:6b:12:69:dd:39:e7:
                    b0:a5
                Exponent: 65537 (0x10001)
        X509v3 extensions:
            X509v3 Key Usage: critical
                Digital Signature, Key Encipherment
            X509v3 Extended Key Usage: 
                TLS Web Client Authentication, TLS Web Server Authentication
            X509v3 Basic Constraints: critical
                CA:FALSE
            X509v3 Authority Key Identifier: 
                keyid:01:02:03

            Authority Information Access: 
                OCSP - URI:http://theca.net/ocsp
                CA Issuers - URI:http://theca.net/totallythecert.crt

            X509v3 Certificate Policies: 
                Policy: 2.23.140.1.2.1

            X509v3 Subject Key Identifier: 
                04:03:02:01
            X509v3 Subject Alternative Name: 
                DNS:*.gov.us, DNS:gov.us
    Signature Algorithm: sha256WithRSAEncryption
         54:3d:93:e5:f7:d7:47:38:29:cf:a9:57:b1:69:44:db:37:14:
         45:fe:cf:aa:27:85:5c:6e:b9:82:eb:99:00:c3:e2:38:c6:30:
         6f:e8:54:57:3f:78:91:14:db:2c:ea:76:a0:ae:24:b8:82:12:
         04:20:e9:d2:7a:ae:28:95:2d:68:eb:eb:fc:ce:1f:78:50:37:
         f2:53:41:b8:23:a6:9c:b3:04:91:ed:51:91:92:24:d8:c2:70:
         7c:6d:4e:cc:da:da:00:bb:b2:a6:58:a1:2f:8d:e6:25:2b:3e:
         62:24:9f:0f:7a:ad:47:0b:09:d5:27:7f:97:c9:4f:ed:2f:3a:
         ec:98:e4:d1:9c:f5:43:d4:df:2c:52:c2:a4:5d:d8:e9:b0:d2:
         e1:a3:c8:82:bb:b6:01:ed:a9:9a:07:44:a0:17:c2:8e:97:03:
         d9:4a:30:ae:5e:d6:c8:74:c9:33:75:e3:4d:ca:53:67:14:f3:
         0c:87:49:ed:f7:cc:57:fd:1e:f6:4d:4c:5e:8b:aa:84:3a:0b:
         b6:0d:60:92:0c:7a:f6:41:3a:01:b6:2e:4e:48:28:c0:39:38:
         4d:51:4f:45:ff:2a:61:ae:07:63:2e:cb:da:77:ce:3c:78:58:
         7f:7b:a5:26:dd:1f:8c:5f:56:d4:52:0f:71:1a:cf:e7:74:9c:
         67:7c:a6:80
-----BEGIN CERTIFICATE-----
MIIEYTCCA0mgAwIBAgIFBDFmk+0wDQYJKoZIhvcNAQELBQAwUjELMAkGA1UEBhMC
VVMxFjAUBgNVBAoTDU1vdGhlciBOYXR1cmUxEzARBgNVBAsTCkV2ZXJ5dGhpbmcx
FjAUBgNVBAMTDU1vdGhlciBOYXR1cmUwHhcNMTYwNjI4MjMwNDU4WhcNMTYwOTA5
MjMwNDU4WjCBmTELMAkGA1UEBhMCVVMxCzAJBgNVBAgTAkZMMRQwEgYDVQQHEwtU
YWxsYWhhc3NlZTEcMBoGA1UECRMTMzIxMCBIb2xseSBNaWxsIFJ1bjEOMAwGA1UE
ERMFMzAwNjIxGDAWBgNVBAoTD0V4dHJlbWUgRGlzY29yZDEOMAwGA1UECxMFQ2hh
b3MxDzANBgNVBAMTBmdvdi51czCCASIwDQYJKoZIhvcNAQEBBQADggEPADCCAQoC
ggEBAMjNfsZqB2bySldNpfS6KRzlKs9oKEYZs8R/IDr9xY1ui8hikbMuiQ4pJmJD
RKjuAGL95/Sp5Dju1VqpnwlZ4SxvHYvcF4yRSVf/zBFQ4SmxhBHpOutmYfBgjKde
ToWyyUHnLbz3iftRYJGSAvEiZeUCo5fsReyCczGMUdJbNBi6bzodVmlpI7nZibD2
bnYmXXJlQFnheelCqwY6tRHRqg4drlxlNST2t8srqJjmFpzTtefXhKCUe+jlDHgI
qjvOEioWAL8gcfqVQmFv2/OX6M3KqMn4ILkjSVBcNO981r52YOT8f5HWzB37eg6z
alSSL8/rkpHjE29XaxJp3TnnsKUCAwEAAaOB9TCB8jAOBgNVHQ8BAf8EBAMCBaAw
HQYDVR0lBBYwFAYIKwYBBQUHAwIGCCsGAQUFBwMBMAwGA1UdEwEB/wQCMAAwDgYD
VR0jBAcwBYADAQIDMGIGCCsGAQUFBwEBBFYwVDAhBggrBgEFBQcwAYYVaHR0cDov
L3RoZWNhLm5ldC9vY3NwMC8GCCsGAQUFBzAChiNodHRwOi8vdGhlY2EubmV0L3Rv
dGFsbHl0aGVjZXJ0LmNydDATBgNVHSAEDDAKMAgGBmeBDAECATANBgNVHQ4EBgQE
BAMCATAbBgNVHREEFDASgggqLmdvdi51c4IGZ292LnVzMA0GCSqGSIb3DQEBCwUA
A4IBAQBUPZPl99dHOCnPqVexaUTbNxRF/s+qJ4VcbrmC65kAw+I4xjBv6FRXP3iR
FNss6nagriS4ghIEIOnSeq4olS1o6+v8zh94UDfyU0G4I6acswSR7VGRkiTYwnB8
bU7M2toAu7KmWKEvjeYlKz5iJJ8Peq1HCwnVJ3+XyU/tLzrsmOTRnPVD1N8sUsKk
XdjpsNLho8iCu7YB7amaB0SgF8KOlwPZSjCuXtbIdMkzdeNNylNnFPMMh0nt98xX
/R72TUxei6qEOgu2DWCSDHr2QToBti5OSCjAOThNUU9F/yphrgdjLsvad848eFh/
e6Um3R+MX1bUUg9xGs/ndJxnfKaA
-----END CERTIFICATE-----
