Certificate:
    Data:
        Version: 3 (0x2)
        Serial Number:
            68:3d:3e:07:00:00:00:00:0d:b7
        Signature Algorithm: sha1WithRSAEncryption
        Issuer: O=Deutsche Post World Net, OU=I2 PS, CN=DPWN SSL CA I2 PS
        Validity
            Not Before: Aug 26 14:22:02 2010 GMT
            Not After : Aug 26 14:32:02 2011 GMT
        Subject: C=DE, ST=Nordrhein-Westfalen, L=Bonn, O=Deutsche Post AG, OU=Deutsche Post IT Brief GmbH, CN=auftragsmanagement-cert.deutschepost.de/emailAddress=benjamin.fischer@deutschepost.de
        Subject Public Key Info:
            Public Key Algorithm: dsaEncryption
            DSA Public Key:
                pub: 
                    00:8f:55:84:8d:0d:04:56:2f:a1:bc:d4:46:11:8c:
                    8f:b6:86:c6:64:fe:9f:23:cb:f3:fd:bc:02:68:b4:
                    3d:42:a2:ff:19:10:e6:12:56:15:d4:89:a3:f6:e4:
                    0f:a9:27:af:6a:ef:a3:ab:68:52:62:4f:78:89:07:
                    1e:08:c3:b3:a4
                P:   
                    00:fc:a6:82:ce:8e:12:ca:ba:26:ef:cc:f7:11:0e:
                    52:6d:b0:78:b0:5e:de:cb:cd:1e:b4:a2:08:f3:ae:
                    16:17:ae:01:f3:5b:91:a4:7e:6d:f6:34:13:c5:e1:
                    2e:d0:89:9b:cd:13:2a:cd:50:d9:91:51:bd:c4:3e:
                    e7:37:59:2e:17
                Q:   
                    00:96:2e:dd:cc:36:9c:ba:8e:bb:26:0e:e6:b6:a1:
                    26:d9:34:6e:38:c5
                G:   
                    67:84:71:b2:7a:9c:f4:4e:e9:1a:49:c5:14:7d:b1:
                    a9:aa:f2:44:f0:5a:43:4d:64:86:93:1d:2d:14:27:
                    1b:9e:35:03:0b:71:fd:73:da:17:90:69:b3:2e:29:
                    35:63:0e:1c:20:62:35:4d:0d:a2:0a:6c:41:6e:50:
                    be:79:4c:a4
        X509v3 extensions:
            X509v3 Subject Key Identifier: 
                D4:9B:A1:67:C2:5B:4F:D9:47:D6:38:E9:2D:5F:1E:FF:18:9F:12:51
            X509v3 Authority Key Identifier: 
                keyid:18:49:C1:32:D3:A8:DF:41:18:26:A1:01:83:BF:19:6A:D2:19:55:6A

            X509v3 CRL Distribution Points: 
                URI:http://keyserver.dpwn.net/pki/I2/dpwn_ssl_i2_ps.crl

            Authority Information Access: 
                CA Issuers - URI:http://keyserver.dpwn.net/pki/I2/dpwn_ssl_i2_ps.crt
                OCSP - URI:http://ocsp.dpwn.net/

            1.3.6.1.4.1.311.20.2: 
                ...W.e.b.S.e.r.v.e.r
    Signature Algorithm: sha1WithRSAEncryption
        8e:6e:52:5a:e4:ef:ca:a5:d3:e4:8c:db:b7:08:46:ee:19:07:
        a8:d7:52:d4:10:cf:d4:3a:63:df:40:91:78:ef:0b:b2:5d:ae:
        06:da:33:7f:4a:bb:96:91:c6:d2:44:e3:58:7e:77:45:0e:3d:
        8f:4c:f4:81:11:e0:f9:6c:1c:db:9b:fc:44:59:8a:6a:37:18:
        4a:8a:9e:f8:56:eb:22:a6:6b:f6:77:f8:63:d8:14:37:10:47:
        5e:1e:27:7a:6b:c5:29:c4:54:12:ea:62:05:2b:7a:87:fe:36:
        b2:f9:c9:86:29:97:d4:1b:ed:a1:c2:7f:24:16:c6:18:5c:5e:
        8f:a8:74:6d:80:82:9d:d3:d1:c9:03:63:63:3c:dd:ee:f7:ee:
        bd:39:ed:05:63:67:fc:f3:a9:bf:6c:f6:53:05:0a:c0:4c:4a:
        b7:e5:2c:05:c0:c5:e9:3b:97:25:3f:b9:a9:cc:dd:c8:ae:05:
        d6:c6:73:7e:07:f8:10:70:be:78:b4:f5:0c:83:1e:8c:f9:db:
        20:7c:f5:6c:ad:e8:48:03:f6:36:9e:46:53:ac:43:4d:92:ae:
        3f:a0:c1:73:9d:16:c0:f8:ac:f8:f9:71:49:ec:26:59:5b:b0:
        42:a9:eb:40:81:7f:95:54:dd:82:d5:74:a0:02:0a:0b:0c:70:
        6b:35:b8:0c
Certificate:
    Data:
        Version: 3 (0x2)
        Serial Number:
            68:3d:3e:07:00:00:00:00:0d:b7
        Signature Algorithm: sha1WithRSAEncryption
        Issuer: O=Deutsche Post World Net, OU=I2 PS, CN=DPWN SSL CA I2 PS
        Validity
            Not Before: Aug 26 14:22:02 2010 GMT
            Not After : Aug 26 14:32:02 2011 GMT
        Subject: C=DE, ST=Nordrhein-Westfalen, L=Bonn, O=Deutsche Post AG, OU=Deutsche Post IT Brief GmbH, CN=auftragsmanagement-cert.deutschepost.de/emailAddress=benjamin.fischer@deutschepost.de
        Subject Public Key Info:
            Public Key Algorithm: dsaEncryption
            DSA Public Key:
                pub: 
                    00:8f:55:84:8d:0d:04:56:2f:a1:bc:d4:46:11:8c:
                    8f:b6:86:c6:64:fe:9f:23:cb:f3:fd:bc:02:68:b4:
                    3d:42:a2:ff:19:10:e6:12:56:15:d4:89:a3:f6:e4:
                    0f:a9:27:af:6a:ef:a3:ab:68:52:62:4f:78:89:07:
                    1e:08:c3:b3:a4
                P:   
                    00:fc:a6:82:ce:8e:12:ca:ba:26:ef:cc:f7:11:0e:
                    52:6d:b0:78:b0:5e:de:cb:cd:1e:b4:a2:08:f3:ae:
                    16:17:ae:01:f3:5b:91:a4:7e:6d:f6:34:13:c5:e1:
                    2e:d0:89:9b:cd:13:2a:cd:50:d9:91:51:bd:c4:3e:
                    e7:37:59:2e:17
                Q:   
                    00:96:2e:dd:cc:36:9c:ba:8e:bb:26:0e:e6:b6:a1:
                    26:d9:34:6e:38:c5
                G:   
                    67:84:71:b2:7a:9c:f4:4e:e9:1a:49:c5:14:7d:b1:
                    a9:aa:f2:44:f0:5a:43:4d:64:86:93:1d:2d:14:27:
                    1b:9e:35:03:0b:71:fd:73:da:17:90:69:b3:2e:29:
                    35:63:0e:1c:20:62:35:4d:0d:a2:0a:6c:41:6e:50:
                    be:79:4c:a4
        X509v3 extensions:
            X509v3 Subject Key Identifier: 
                D4:9B:A1:67:C2:5B:4F:D9:47:D6:38:E9:2D:5F:1E:FF:18:9F:12:51
            X509v3 Authority Key Identifier: 
                keyid:18:49:C1:32:D3:A8:DF:41:18:26:A1:01:83:BF:19:6A:D2:19:55:6A

            X509v3 CRL Distribution Points: 
                URI:http://keyserver.dpwn.net/pki/I2/dpwn_ssl_i2_ps.crl

            Authority Information Access: 
                CA Issuers - URI:http://keyserver.dpwn.net/pki/I2/dpwn_ssl_i2_ps.crt
                OCSP - URI:http://ocsp.dpwn.net/

            1.3.6.1.4.1.311.20.2: 
                ...W.e.b.S.e.r.v.e.r
    Signature Algorithm: sha1WithRSAEncryption
        8e:6e:52:5a:e4:ef:ca:a5:d3:e4:8c:db:b7:08:46:ee:19:07:
        a8:d7:52:d4:10:cf:d4:3a:63:df:40:91:78:ef:0b:b2:5d:ae:
        06:da:33:7f:4a:bb:96:91:c6:d2:44:e3:58:7e:77:45:0e:3d:
        8f:4c:f4:81:11:e0:f9:6c:1c:db:9b:fc:44:59:8a:6a:37:18:
        4a:8a:9e:f8:56:eb:22:a6:6b:f6:77:f8:63:d8:14:37:10:47:
        5e:1e:27:7a:6b:c5:29:c4:54:12:ea:62:05:2b:7a:87:fe:36:
        b2:f9:c9:86:29:97:d4:1b:ed:a1:c2:7f:24:16:c6:18:5c:5e:
        8f:a8:74:6d:80:82:9d:d3:d1:c9:03:63:63:3c:dd:ee:f7:ee:
        bd:39:ed:05:63:67:fc:f3:a9:bf:6c:f6:53:05:0a:c0:4c:4a:
        b7:e5:2c:05:c0:c5:e9:3b:97:25:3f:b9:a9:cc:dd:c8:ae:05:
        d6:c6:73:7e:07:f8:10:70:be:78:b4:f5:0c:83:1e:8c:f9:db:
        20:7c:f5:6c:ad:e8:48:03:f6:36:9e:46:53:ac:43:4d:92:ae:
        3f:a0:c1:73:9d:16:c0:f8:ac:f8:f9:71:49:ec:26:59:5b:b0:
        42:a9:eb:40:81:7f:95:54:dd:82:d5:74:a0:02:0a:0b:0c:70:
        6b:35:b8:0c
Certificate:
    Data:
        Version: 3 (0x2)
        Serial Number:
            68:3d:3e:07:00:00:00:00:0d:b7
        Signature Algorithm: sha1WithRSAEncryption
        Issuer: O=Deutsche Post World Net, OU=I2 PS, CN=DPWN SSL CA I2 PS
        Validity
            Not Before: Aug 26 14:22:02 2010 GMT
            Not After : Aug 26 14:32:02 2011 GMT
        Subject: C=DE, ST=Nordrhein-Westfalen, L=Bonn, O=Deutsche Post AG, OU=Deutsche Post IT Brief GmbH, CN=auftragsmanagement-cert.deutschepost.de/emailAddress=benjamin.fischer@deutschepost.de
        Subject Public Key Info:
            Public Key Algorithm: dsaEncryption
            DSA Public Key:
                pub: 
                    00:8f:55:84:8d:0d:04:56:2f:a1:bc:d4:46:11:8c:
                    8f:b6:86:c6:64:fe:9f:23:cb:f3:fd:bc:02:68:b4:
                    3d:42:a2:ff:19:10:e6:12:56:15:d4:89:a3:f6:e4:
                    0f:a9:27:af:6a:ef:a3:ab:68:52:62:4f:78:89:07:
                    1e:08:c3:b3:a4
                P:   
                    00:fc:a6:82:ce:8e:12:ca:ba:26:ef:cc:f7:11:0e:
                    52:6d:b0:78:b0:5e:de:cb:cd:1e:b4:a2:08:f3:ae:
                    16:17:ae:01:f3:5b:91:a4:7e:6d:f6:34:13:c5:e1:
                    2e:d0:89:9b:cd:13:2a:cd:50:d9:91:51:bd:c4:3e:
                    e7:37:59:2e:17
                Q:   
                    00:96:2e:dd:cc:36:9c:ba:8e:bb:26:0e:e6:b6:a1:
                    26:d9:34:6e:38:c5
                G:   
                    67:84:71:b2:7a:9c:f4:4e:e9:1a:49:c5:14:7d:b1:
                    a9:aa:f2:44:f0:5a:43:4d:64:86:93:1d:2d:14:27:
                    1b:9e:35:03:0b:71:fd:73:da:17:90:69:b3:2e:29:
                    35:63:0e:1c:20:62:35:4d:0d:a2:0a:6c:41:6e:50:
                    be:79:4c:a4
        X509v3 extensions:
            X509v3 Subject Key Identifier: 
                D4:9B:A1:67:C2:5B:4F:D9:47:D6:38:E9:2D:5F:1E:FF:18:9F:12:51
            X509v3 Authority Key Identifier: 
                keyid:18:49:C1:32:D3:A8:DF:41:18:26:A1:01:83:BF:19:6A:D2:19:55:6A

            X509v3 CRL Distribution Points: 
                URI:http://keyserver.dpwn.net/pki/I2/dpwn_ssl_i2_ps.crl

            Authority Information Access: 
                CA Issuers - URI:http://keyserver.dpwn.net/pki/I2/dpwn_ssl_i2_ps.crt
                OCSP - URI:http://ocsp.dpwn.net/

            1.3.6.1.4.1.311.20.2: 
                ...W.e.b.S.e.r.v.e.r
    Signature Algorithm: sha1WithRSAEncryption
        8e:6e:52:5a:e4:ef:ca:a5:d3:e4:8c:db:b7:08:46:ee:19:07:
        a8:d7:52:d4:10:cf:d4:3a:63:df:40:91:78:ef:0b:b2:5d:ae:
        06:da:33:7f:4a:bb:96:91:c6:d2:44:e3:58:7e:77:45:0e:3d:
        8f:4c:f4:81:11:e0:f9:6c:1c:db:9b:fc:44:59:8a:6a:37:18:
        4a:8a:9e:f8:56:eb:22:a6:6b:f6:77:f8:63:d8:14:37:10:47:
        5e:1e:27:7a:6b:c5:29:c4:54:12:ea:62:05:2b:7a:87:fe:36:
        b2:f9:c9:86:29:97:d4:1b:ed:a1:c2:7f:24:16:c6:18:5c:5e:
        8f:a8:74:6d:80:82:9d:d3:d1:c9:03:63:63:3c:dd:ee:f7:ee:
        bd:39:ed:05:63:67:fc:f3:a9:bf:6c:f6:53:05:0a:c0:4c:4a:
        b7:e5:2c:05:c0:c5:e9:3b:97:25:3f:b9:a9:cc:dd:c8:ae:05:
        d6:c6:73:7e:07:f8:10:70:be:78:b4:f5:0c:83:1e:8c:f9:db:
        20:7c:f5:6c:ad:e8:48:03:f6:36:9e:46:53:ac:43:4d:92:ae:
        3f:a0:c1:73:9d:16:c0:f8:ac:f8:f9:71:49:ec:26:59:5b:b0:
        42:a9:eb:40:81:7f:95:54:dd:82:d5:74:a0:02:0a:0b:0c:70:
        6b:35:b8:0c
-----BEGIN CERTIFICATE-----
MIIEojCCA4qgAwIBAgIKaD0+BwAAAAANtzANBgkqhkiG9w0BAQUFADBOMSAwHgYD
VQQKExdEZXV0c2NoZSBQb3N0IFdvcmxkIE5ldDEOMAwGA1UECxMFSTIgUFMxGjAY
BgNVBAMTEURQV04gU1NMIENBIEkyIFBTMB4XDTEwMDgyNjE0MjIwMloXDTExMDgy
NjE0MzIwMlowgd4xCzAJBgNVBAYTAkRFMRwwGgYDVQQIExNOb3JkcmhlaW4tV2Vz
dGZhbGVuMQ0wCwYDVQQHEwRCb25uMRkwFwYDVQQKExBEZXV0c2NoZSBQb3N0IEFH
MSQwIgYDVQQLExtEZXV0c2NoZSBQb3N0IElUIEJyaWVmIEdtYkgxMDAuBgNVBAMT
J2F1ZnRyYWdzbWFuYWdlbWVudC1jZXJ0LmRldXRzY2hlcG9zdC5kZTEvMC0GCSqG
SIb3DQEJARYgYmVuamFtaW4uZmlzY2hlckBkZXV0c2NoZXBvc3QuZGUwgfEwgagG
ByqGSM44BAEwgZwCQQD8poLOjhLKuibvzPcRDlJtsHiwXt7LzR60ogjzrhYXrgHz
W5Gkfm32NBPF4S7QiZvNEyrNUNmRUb3EPuc3WS4XAhUAli7dzDacuo67Jg7mtqEm
2TRuOMUCQGeEcbJ6nPRO6RpJxRR9samq8kTwWkNNZIaTHS0UJxueNQMLcf1z2heQ
abMuKTVjDhwgYjVNDaIKbEFuUL55TKQDRAACQQCPVYSNDQRWL6G81EYRjI+2hsZk
/p8jy/P9vAJotD1Cov8ZEOYSVhXUiaP25A+pJ69q76OraFJiT3iJBx4Iw7Oko4IB
ITCCAR0wHQYDVR0OBBYEFNSboWfCW0/ZR9Y46S1fHv8YnxJRMB8GA1UdIwQYMBaA
FBhJwTLTqN9BGCahAYO/GWrSGVVqMEQGA1UdHwQ9MDswOaA3oDWGM2h0dHA6Ly9r
ZXlzZXJ2ZXIuZHB3bi5uZXQvcGtpL0kyL2Rwd25fc3NsX2kyX3BzLmNybDByBggr
BgEFBQcBAQRmMGQwPwYIKwYBBQUHMAKGM2h0dHA6Ly9rZXlzZXJ2ZXIuZHB3bi5u
ZXQvcGtpL0kyL2Rwd25fc3NsX2kyX3BzLmNydDAhBggrBgEFBQcwAYYVaHR0cDov
L29jc3AuZHB3bi5uZXQvMCEGCSsGAQQBgjcUAgQUHhIAVwBlAGIAUwBlAHIAdgBl
AHIwDQYJKoZIhvcNAQEFBQADggEBAI5uUlrk78ql0+SM27cIRu4ZB6jXUtQQz9Q6
Y99AkXjvC7JdrgbaM39Ku5aRxtJE41h+d0UOPY9M9IER4PlsHNub/ERZimo3GEqK
nvhW6yKma/Z3+GPYFDcQR14eJ3prxSnEVBLqYgUreof+NrL5yYYpl9Qb7aHCfyQW
xhhcXo+odG2Agp3T0ckDY2M83e737r057QVjZ/zzqb9s9lMFCsBMSrflLAXAxek7
lyU/uanM3ciuBdbGc34H+BBwvni09QyDHoz52yB89Wyt6EgD9jaeRlOsQ02Srj+g
wXOdFsD4rPj5cUnsJllbsEKp60CBf5VU3YLVdKACCgsMcGs1uAw=
-----END CERTIFICATE-----
