Certificate:
    Data:
        Version: 3 (0x2)
        Serial Number:
            33:47:65:ab:f5:2c:cc:90:77:e0:e6:ac:7c:76:a1:a2
    Signature Algorithm: sha256WithRSAEncryption
        Issuer: C=CN, O=WoSign CA Limited, CN=WoSign CA Free SSL Certificate G2
        Validity
            Not Before: Jul 24 09:54:54 2015 GMT
            Not After : Jul 24 09:54:54 2018 GMT
        Subject: CN=wa2.baltlease.ru
        Subject Public Key Info:
            Public Key Algorithm: dsaEncryption
                pub: 
                    00:b7:b9:6d:fd:50:b5:46:9d:ab:4d:a7:9a:d4:8f:
                    0f:6d:ce:70:ff:ef:8b:34:71:82:98:e9:d4:2a:02:
                    f5:29:7b:4a:c7:36:c9:45:a5:db:5d:e3:ed:5b:d5:
                    5c:aa:c1:e0:d6:71:e2:20:c9:50:e0:35:67:7d:77:
                    8c:1f:e3:86:a1:c7:60:64:52:10:d5:50:d7:c6:c1:
                    54:83:f1:cf:fe:53:4b:2a:85:30:7d:91:25:27:1f:
                    4a:b8:da:0f:c2:53:eb:c7:64:57:c7:80:bf:8a:cf:
                    5a:d5:1a:ca:51:aa:58:76:0e:58:7b:e3:90:76:85:
                    53:92:02:72:0b:ce:39:8b:4e:54:e9:f1:8f:ac:b9:
                    79:8b:0d:93:37:81:3e:f2:a2:29:bd:72:10:db:20:
                    5c:84:04:f6:7a:a5:fc:ff:3b:ce:6a:fe:7b:b9:58:
                    36:7e:0e:79:30:a8:b3:60:d5:3b:af:e2:46:27:49:
                    ad:53:a8:01:fc:4d:76:f1:68:d0:9a:e4:29:c5:9d:
                    e0:28:93:3b:b8:2a:6f:3a:b3:a5:3d:a9:bd:f7:e3:
                    71:72:b9:4f:f7:a8:b4:5f:98:12:01:dc:e3:2a:05:
                    dd:5c:b5:0b:3e:0f:db:6e:cb:29:99:2d:f8:0e:97:
                    60:71:b7:08:f2:f2:4a:1b:31:e6:bb:75:6d:96:5c:
                    36:95
                P:   
                    00:eb:fc:bc:d3:03:e2:72:90:07:66:7e:b6:fd:1a:
                    54:e0:66:83:f4:0d:b7:ac:39:43:df:88:da:bd:68:
                    b5:ac:b4:31:77:f0:7c:84:e3:92:4c:be:07:77:1b:
                    5e:28:02:47:c2:dd:03:7f:d2:13:18:7e:2a:cd:e8:
                    cf:52:87:97:a3:21:05:17:95:ea:ca:44:6d:5e:fc:
                    0a:cc:21:5e:e8:ba:73:1b:3f:27:b7:2b:1f:1a:e6:
                    18:89:d8:89:49:ab:e6:52:03:6f:98:47:0b:f6:b7:
                    c3:fb:f6:7c:69:34:d7:d3:7a:e8:bc:5b:ed:2f:7f:
                    f7:fa:fb:12:0a:7f:08:6f:7c:db:d9:ba:d1:b4:d8:
                    a9:4e:ff:a2:be:b8:39:24:fb:79:ca:39:b0:42:56:
                    6a:b9:13:74:77:e8:8a:cf:7e:b5:fc:1c:88:8c:c4:
                    fc:16:66:ed:47:0a:6f:48:bf:d6:f0:87:35:01:c8:
                    8a:5f:3e:f9:52:4a:e2:b1:d0:70:90:bd:2d:f8:56:
                    44:15:72:b8:30:0c:47:a3:cd:ef:ae:39:69:bd:8d:
                    58:9d:df:40:49:36:70:7f:ab:23:df:73:f7:ef:49:
                    b6:82:a4:dd:17:5e:23:5f:14:75:20:71:52:30:69:
                    f7:83:da:7b:2c:80:21:f0:a7:4b:a4:41:b9:de:ab:
                    08:33
                Q:   
                    00:ba:40:ee:54:86:f0:db:c0:db:f3:a0:fb:47:1e:
                    99:ac:ed:0a:06:8a:45:ad:74:71:74:92:20:8c:71:
                    ac:f4:d7
                G:   
                    00:db:c5:ce:c0:74:13:69:9d:cb:bf:e6:d2:59:07:
                    2c:11:12:67:2b:d2:11:28:fd:71:66:41:6f:00:aa:
                    45:cd:db:bc:67:7d:81:8a:6a:6c:63:d8:e8:a2:42:
                    8e:8f:09:c2:a7:7d:9e:6a:e4:6a:a6:04:b5:d1:58:
                    b6:c1:9f:cb:b5:80:40:0d:b3:1f:70:3c:c5:cd:de:
                    2d:55:fc:4c:d5:8c:da:7e:db:8f:df:c0:2f:ae:db:
                    6e:a7:52:99:7d:35:de:cb:fc:81:82:47:f9:0d:91:
                    2b:19:a8:f0:f6:1e:1e:2c:95:26:e7:49:2a:9a:68:
                    a7:f2:df:66:13:55:ba:60:5b:38:60:09:db:d5:3d:
                    e9:2e:88:6b:68:e7:bd:30:46:7a:ef:fe:23:1e:1d:
                    c8:2c:ca:bc:5f:34:fc:67:e2:39:a4:af:2b:31:ce:
                    3f:48:c2:61:b7:ac:02:f1:06:69:7e:a5:f9:13:40:
                    b8:dc:b0:cd:fd:b0:19:7e:e3:4b:bf:0f:5f:ff:05:
                    1c:25:82:6a:39:39:33:b9:70:79:10:64:fc:37:cb:
                    d5:ba:2d:40:87:3c:88:a5:6d:ee:25:ea:8f:ac:4e:
                    44:4b:fd:c5:a3:72:a6:53:fe:a9:80:31:57:20:93:
                    e8:8d:42:78:47:a7:54:b1:f9:fe:7a:1f:98:11:67:
                    37
        X509v3 extensions:
            X509v3 Key Usage: 
                Digital Signature, Key Encipherment
            X509v3 Extended Key Usage: 
                TLS Web Client Authentication, TLS Web Server Authentication
            X509v3 Basic Constraints: 
                CA:FALSE
            X509v3 Subject Key Identifier: 
                EE:81:56:33:E6:EB:A8:3F:BE:05:44:B9:AE:35:13:88:CD:D6:CD:50
            X509v3 Authority Key Identifier: 
                keyid:D2:A7:16:20:7C:AF:D9:95:9E:EB:43:0A:19:F2:E0:B9:74:0E:A8:C7

            Authority Information Access: 
                OCSP - URI:http://ocsp6.wosign.com/ca6/server1/free
                CA Issuers - URI:http://aia6.wosign.com/ca6.server1.free.cer

            X509v3 CRL Distribution Points: 

                Full Name:
                  URI:http://crls6.wosign.com/ca6-server1-free.crl

            X509v3 Subject Alternative Name: 
                DNS:wa2.baltlease.ru
            X509v3 Certificate Policies: 
                Policy: 2.23.140.1.2.1
                Policy: 1.3.6.1.4.1.36305.6.1.2.2.1
                  CPS: http://www.wosign.com/policy/

    Signature Algorithm: sha256WithRSAEncryption
         2e:7e:02:87:00:00:63:c7:a8:df:29:08:5c:e7:c7:b7:5b:f0:
         32:ea:2f:22:6f:ab:da:3a:91:aa:66:4d:85:a6:59:9f:1e:6a:
         97:57:8e:4b:72:ed:34:ba:03:e1:54:ab:87:a9:54:1e:97:79:
         3c:b0:f0:07:0b:25:b1:03:68:24:d6:49:dc:8b:11:e3:6b:8d:
         1b:f6:2b:27:f4:74:46:5f:69:fc:fd:6e:2e:e2:51:2b:fd:83:
         57:0b:4a:ac:42:aa:fc:a8:90:26:71:c2:cc:95:a7:3f:2a:af:
         45:ad:28:31:1b:45:69:d6:4f:2e:b3:ab:c9:0b:36:d2:bb:1d:
         a6:8f:4a:3e:75:de:25:16:2f:3e:28:fb:94:60:74:29:78:cc:
         e6:3a:33:54:0f:4e:b4:cc:de:92:09:d1:62:48:da:fc:60:82:
         28:d4:85:6b:2a:61:5c:49:e1:b5:63:66:9c:0e:ed:2c:dd:3f:
         11:2c:2f:d6:0c:c2:97:28:b2:3f:d4:45:08:f2:51:e3:16:ac:
         e8:df:cd:2c:0f:14:d5:2a:f1:4a:f5:ef:0e:69:ea:04:a4:2d:
         e3:d4:54:26:a3:fd:5b:86:9d:23:4a:bb:7c:10:0d:d8:94:96:
         7a:56:17:0d:52:83:97:05:26:4d:77:ab:60:ee:96:79:cc:1b:
         65:cb:54:48
-----BEGIN CERTIFICATE-----
MIIGyjCCBbKgAwIBAgIQM0dlq/UszJB34OasfHahojANBgkqhkiG9w0BAQsFADBV
MQswCQYDVQQGEwJDTjEaMBgGA1UEChMRV29TaWduIENBIExpbWl0ZWQxKjAoBgNV
BAMTIVdvU2lnbiBDQSBGcmVlIFNTTCBDZXJ0aWZpY2F0ZSBHMjAeFw0xNTA3MjQw
OTU0NTRaFw0xODA3MjQwOTU0NTRaMBsxGTAXBgNVBAMMEHdhMi5iYWx0bGVhc2Uu
cnUwggNHMIICOQYHKoZIzjgEATCCAiwCggEBAOv8vNMD4nKQB2Z+tv0aVOBmg/QN
t6w5Q9+I2r1otay0MXfwfITjkky+B3cbXigCR8LdA3/SExh+Ks3oz1KHl6MhBReV
6spEbV78CswhXui6cxs/J7crHxrmGInYiUmr5lIDb5hHC/a3w/v2fGk019N66Lxb
7S9/9/r7Egp/CG9829m60bTYqU7/or64OST7eco5sEJWarkTdHfois9+tfwciIzE
/BZm7UcKb0i/1vCHNQHIil8++VJK4rHQcJC9LfhWRBVyuDAMR6PN7645ab2NWJ3f
QEk2cH+rI99z9+9JtoKk3RdeI18UdSBxUjBp94PaeyyAIfCnS6RBud6rCDMCIQC6
QO5UhvDbwNvzoPtHHpms7QoGikWtdHF0kiCMcaz01wKCAQAA28XOwHQTaZ3Lv+bS
WQcsERJnK9IRKP1xZkFvAKpFzdu8Z32BimpsY9jookKOjwnCp32eauRqpgS10Vi2
wZ/LtYBADbMfcDzFzd4tVfxM1YzaftuP38Avrttup1KZfTXey/yBgkf5DZErGajw
9h4eLJUm50kqmmin8t9mE1W6YFs4YAnb1T3pLohraOe9MEZ67/4jHh3ILMq8XzT8
Z+I5pK8rMc4/SMJht6wC8QZpfqX5E0C43LDN/bAZfuNLvw9f/wUcJYJqOTkzuXB5
EGT8N8vVui1AhzyIpW3uJeqPrE5ES/3Fo3KmU/6pgDFXIJPojUJ4R6dUsfn+eh+Y
EWc3A4IBBgACggEBALe5bf1QtUadq02nmtSPD23OcP/vizRxgpjp1CoC9Sl7Ssc2
yUWl213j7VvVXKrB4NZx4iDJUOA1Z313jB/jhqHHYGRSENVQ18bBVIPxz/5TSyqF
MH2RJScfSrjaD8JT68dkV8eAv4rPWtUaylGqWHYOWHvjkHaFU5ICcgvOOYtOVOnx
j6y5eYsNkzeBPvKiKb1yENsgXIQE9nql/P87zmr+e7lYNn4OeTCos2DVO6/iRidJ
rVOoAfxNdvFo0JrkKcWd4CiTO7gqbzqzpT2pvffjcXK5T/eotF+YEgHc4yoF3Vy1
Cz4P227LKZkt+A6XYHG3CPLyShsx5rt1bZZcNpWjggGpMIIBpTALBgNVHQ8EBAMC
BaAwHQYDVR0lBBYwFAYIKwYBBQUHAwIGCCsGAQUFBwMBMAkGA1UdEwQCMAAwHQYD
VR0OBBYEFO6BVjPm66g/vgVEua41E4jN1s1QMB8GA1UdIwQYMBaAFNKnFiB8r9mV
nutDChny4Ll0DqjHMH0GCCsGAQUFBwEBBHEwbzA0BggrBgEFBQcwAYYoaHR0cDov
L29jc3A2Lndvc2lnbi5jb20vY2E2L3NlcnZlcjEvZnJlZTA3BggrBgEFBQcwAoYr
aHR0cDovL2FpYTYud29zaWduLmNvbS9jYTYuc2VydmVyMS5mcmVlLmNlcjA9BgNV
HR8ENjA0MDKgMKAuhixodHRwOi8vY3JsczYud29zaWduLmNvbS9jYTYtc2VydmVy
MS1mcmVlLmNybDAbBgNVHREEFDASghB3YTIuYmFsdGxlYXNlLnJ1MFEGA1UdIARK
MEgwCAYGZ4EMAQIBMDwGDSsGAQQBgptRBgECAgEwKzApBggrBgEFBQcCARYdaHR0
cDovL3d3dy53b3NpZ24uY29tL3BvbGljeS8wDQYJKoZIhvcNAQELBQADggEBAC5+
AocAAGPHqN8pCFznx7db8DLqLyJvq9o6kapmTYWmWZ8eapdXjkty7TS6A+FUq4ep
VB6XeTyw8AcLJbEDaCTWSdyLEeNrjRv2Kyf0dEZfafz9bi7iUSv9g1cLSqxCqvyo
kCZxwsyVpz8qr0WtKDEbRWnWTy6zq8kLNtK7HaaPSj513iUWLz4o+5RgdCl4zOY6
M1QPTrTM3pIJ0WJI2vxggijUhWsqYVxJ4bVjZpwO7SzdPxEsL9YMwpcosj/URQjy
UeMWrOjfzSwPFNUq8Ur17w5p6gSkLePUVCaj/VuGnSNKu3wQDdiUlnpWFw1Sg5cF
Jk13q2DulnnMG2XLVEg=
-----END CERTIFICATE-----
