Certificate:
    Data:
        Version: 3 (0x2)
        Serial Number:
            16:e3:9f:2c:68:44:05:d6:2f:4a:8a:9e:2c:d7:d2:f7:40:00:00:00:00
    Signature Algorithm: sha256WithRSAEncryption
        Issuer: C = US, O = Mother Nature, OU = Everything, CN = Mother Nature
        Validity
            Not Before: Jul  7 22:40:13 2016 GMT
            Not After : Sep 19 22:40:13 2016 GMT
        Subject: C = US, ST = FL, L = Tallahassee, street = 3210 Holly Mill Run, postalCode = 30062, O = Extreme Discord, OU = Chaos, CN = gov.us
        Subject Public Key Info:
            Public Key Algorithm: id-ecPublicKey
                Public-Key: (521 bit)
                pub:
                    04:01:e3:b8:1f:b4:a4:1d:6d:1c:8c:67:8f:d0:c3:
                    97:4e:a4:e2:5f:26:17:fe:1b:7b:87:27:2d:e9:08:
                    c4:5f:e5:41:9b:37:f3:80:a6:9f:07:06:48:da:b8:
                    b3:3c:67:08:f5:b0:34:3b:4b:c1:e8:31:6b:3a:b0:
                    01:e2:74:e0:aa:9b:5d:00:85:e0:47:56:69:1f:1f:
                    a7:49:3d:08:d7:fd:ba:f8:5f:dd:d7:cf:16:41:b3:
                    e0:c5:a5:71:06:59:64:84:b8:7a:2e:0c:f3:61:49:
                    c8:9a:99:96:a4:27:90:bf:4e:2a:29:78:ce:27:00:
                    29:af:ca:44:58:e6:d8:5c:dd:ae:ed:83:28
                ASN1 OID: secp521r1
                NIST CURVE: P-521
        X509v3 extensions:
            X509v3 Basic Constraints: critical
                CA:FALSE
            X509v3 Authority Key Identifier: 
                keyid:01:02:03

            X509v3 Subject Key Identifier: 
                04:03:02:01
            X509v3 Subject Alternative Name: 
                DNS:*.gov.us, DNS:gov.us
            X509v3 Key Usage: 
                Digital Signature, Certificate Sign, CRL Sign
            X509v3 Extended Key Usage: critical
                TLS Web Server Authentication, TLS Web Client Authentication
            X509v3 CRL Distribution Points: 

                Full Name:
                  URI:http://crl.starfieldtech.com/sfig2s1-17.crl

    Signature Algorithm: sha256WithRSAEncryption
         9c:cc:bc:40:26:48:aa:4d:d3:a8:57:c0:9c:03:49:5f:8e:03:
         61:54:8a:05:a4:71:1e:f9:5d:15:fb:1f:08:28:66:c9:98:bc:
         76:2c:c8:1b:02:b3:06:4c:69:ba:73:cb:d8:eb:49:75:17:74:
         6c:e7:0f:1e:64:04:05:9c:ef:9c:75:b2:3e:78:33:b7:12:ef:
         33:5c:e7:d5:8b:7e:cc:09:3f:72:fe:d0:c4:7f:a6:94:60:d1:
         6c:8a:18:bd:d2:4a:3a:d7:66:78:f6:d5:ac:e5:24:62:35:61:
         5d:de:e0:12:2b:17:52:db:9c:3d:cb:b9:46:81:9b:58:55:95:
         a7:f9:cc:c7:8b:14:41:aa:26:ba:a6:42:50:97:a6:9e:09:bf:
         08:a7:f0:0e:5a:e0:09:1a:af:07:a8:e2:b1:a9:72:50:cd:2c:
         49:29:bd:b4:43:f3:ea:b0:b2:16:7e:7c:e0:9c:3c:fb:c4:13:
         51:e8:b3:49:d2:dd:3f:a2:b2:4e:6c:92:28:61:2e:d0:05:7b:
         92:95:f2:5d:a0:da:63:f9:5c:b4:9a:7b:7e:f1:8b:c4:45:27:
         93:6d:fa:19:45:81:21:7c:9b:cc:70:00:34:4c:2a:80:6d:eb:
         cd:f0:86:d2:bf:03:2b:6a:fc:4c:11:d9:0b:0a:40:50:24:b5:
         ef:01:01:1c
-----BEGIN CERTIFICATE-----
MIIDrjCCApagAwIBAgIVFuOfLGhEBdYvSoqeLNfS90AAAAAAMA0GCSqGSIb3DQEB
CwUAMFIxCzAJBgNVBAYTAlVTMRYwFAYDVQQKEw1Nb3RoZXIgTmF0dXJlMRMwEQYD
VQQLEwpFdmVyeXRoaW5nMRYwFAYDVQQDEw1Nb3RoZXIgTmF0dXJlMB4XDTE2MDcw
NzIyNDAxM1oXDTE2MDkxOTIyNDAxM1owgZkxCzAJBgNVBAYTAlVTMQswCQYDVQQI
EwJGTDEUMBIGA1UEBxMLVGFsbGFoYXNzZWUxHDAaBgNVBAkTEzMyMTAgSG9sbHkg
TWlsbCBSdW4xDjAMBgNVBBETBTMwMDYyMRgwFgYDVQQKEw9FeHRyZW1lIERpc2Nv
cmQxDjAMBgNVBAsTBUNoYW9zMQ8wDQYDVQQDEwZnb3YudXMwgZswEAYHKoZIzj0C
AQYFK4EEACMDgYYABAHjuB+0pB1tHIxnj9DDl06k4l8mF/4be4cnLekIxF/lQZs3
84CmnwcGSNq4szxnCPWwNDtLwegxazqwAeJ04KqbXQCF4EdWaR8fp0k9CNf9uvhf
3dfPFkGz4MWlcQZZZIS4ei4M82FJyJqZlqQnkL9OKil4zicAKa/KRFjm2Fzdru2D
KKOBujCBtzAMBgNVHRMBAf8EAjAAMA4GA1UdIwQHMAWAAwECAzANBgNVHQ4EBgQE
BAMCATAbBgNVHREEFDASgggqLmdvdi51c4IGZ292LnVzMAsGA1UdDwQEAwIBhjAg
BgNVHSUBAf8EFjAUBggrBgEFBQcDAQYIKwYBBQUHAwIwPAYDVR0fBDUwMzAxoC+g
LYYraHR0cDovL2NybC5zdGFyZmllbGR0ZWNoLmNvbS9zZmlnMnMxLTE3LmNybDAN
BgkqhkiG9w0BAQsFAAOCAQEAnMy8QCZIqk3TqFfAnANJX44DYVSKBaRxHvldFfsf
CChmyZi8dizIGwKzBkxpunPL2OtJdRd0bOcPHmQEBZzvnHWyPngztxLvM1zn1Yt+
zAk/cv7QxH+mlGDRbIoYvdJKOtdmePbVrOUkYjVhXd7gEisXUtucPcu5RoGbWFWV
p/nMx4sUQaomuqZCUJemngm/CKfwDlrgCRqvB6jisalyUM0sSSm9tEPz6rCyFn58
4Jw8+8QTUeizSdLdP6KyTmySKGEu0AV7kpXyXaDaY/lctJp7fvGLxEUnk236GUWB
IXybzHAANEwqgG3rzfCG0r8DK2r8TBHZCwpAUCS17wEBHA==
-----END CERTIFICATE-----
