Certificate:
    Data:
        Version: 3 (0x2)
        Serial Number:
            16:e3:9f:2c:68:44:05:d6:2f:4a:8a:9e:2c:d7:d2:f7:40:00:00:00:00
    Signature Algorithm: sha256WithRSAEncryption
        Issuer: C = US, O = Mother Nature, OU = Everything, CN = Mother Nature
        Validity
            Not Before: Jul  7 22:39:49 2016 GMT
            Not After : Sep 19 22:39:49 2016 GMT
        Subject: C = US, ST = FL, L = Tallahassee, street = 3210 Holly Mill Run, postalCode = 30062, O = Extreme Discord, OU = Chaos, CN = gov.us
        Subject Public Key Info:
            Public Key Algorithm: id-ecPublicKey
                Public-Key: (521 bit)
                pub:
                    04:00:8c:2b:13:6f:5f:f9:b2:e6:50:a5:4d:cd:ba:
                    46:0e:73:e3:d5:ef:1f:fd:91:f9:3c:0e:ef:73:90:
                    94:8e:cd:bc:1b:91:06:ef:28:1c:4b:da:b2:0e:cf:
                    9d:d8:7e:bf:26:ef:df:11:8b:d8:92:a7:fe:66:a7:
                    1f:e5:fa:f7:72:f6:65:01:b7:59:f2:c6:c6:08:15:
                    f3:dc:f4:3c:e8:6d:3f:d3:68:ab:59:54:a6:77:fd:
                    39:cf:56:2b:c7:69:4f:58:5c:39:66:89:64:f0:56:
                    1d:88:54:77:3d:22:b1:f9:18:c3:19:c8:9d:d1:1e:
                    d6:60:dd:ea:74:65:ff:8e:fe:27:a0:51:4e
                ASN1 OID: secp521r1
                NIST CURVE: P-521
        X509v3 extensions:
            X509v3 Basic Constraints: critical
                CA:FALSE
            X509v3 Authority Key Identifier: 
                keyid:01:02:03

            X509v3 Subject Key Identifier: 
                04:03:02:01
            X509v3 Subject Alternative Name: 
                DNS:*.gov.us, DNS:gov.us
            X509v3 Key Usage: 
                Digital Signature, Certificate Sign, CRL Sign
            X509v3 Extended Key Usage: critical
                TLS Web Server Authentication, TLS Web Client Authentication
            X509v3 CRL Distribution Points: 

                Full Name:
                  URI:http://crl.starfieldtech.com/sfig2s1-17.crl

    Signature Algorithm: sha256WithRSAEncryption
         20:17:f9:1d:8c:84:df:ae:d2:b0:fd:9e:b2:ad:77:23:1c:b1:
         13:ce:80:22:aa:bd:fc:75:4a:3a:61:bf:9f:96:b2:91:04:94:
         a6:7d:3f:b9:e6:f3:f1:76:d0:74:e4:1b:e1:29:59:bf:fd:61:
         58:e9:ff:a8:ab:8b:07:c5:85:31:68:ba:66:29:24:4c:a8:64:
         20:52:6c:68:bd:f6:84:a2:d9:de:19:dc:96:eb:2c:0f:e3:26:
         4d:69:31:98:d8:f6:0a:2c:5b:9b:b1:cb:64:06:d6:27:97:8e:
         44:f4:9d:10:10:ea:75:86:12:94:db:21:ad:5b:91:45:51:29:
         ee:48:ad:66:0b:60:33:82:f8:9b:55:ec:5f:c3:6d:82:ef:3d:
         9c:11:4e:11:84:7c:72:1c:a3:3d:d7:08:70:df:5b:a0:a9:e7:
         96:c4:65:2f:59:b4:a9:bf:55:81:13:68:9d:db:1a:2c:01:e1:
         f4:85:e3:19:3c:d0:4f:64:58:1d:8d:77:41:ca:20:7c:ff:4c:
         fb:3b:cb:5c:d5:0e:0b:d9:d3:a6:e4:bf:ab:4c:4e:ea:3a:56:
         94:d2:69:65:99:e2:46:9b:14:2d:f7:e2:62:5c:41:b7:f7:ba:
         c7:89:82:24:76:be:a2:62:b4:bc:75:f2:61:65:88:13:34:b7:
         ec:1a:ea:3c
-----BEGIN CERTIFICATE-----
MIIDrjCCApagAwIBAgIVFuOfLGhEBdYvSoqeLNfS90AAAAAAMA0GCSqGSIb3DQEB
CwUAMFIxCzAJBgNVBAYTAlVTMRYwFAYDVQQKEw1Nb3RoZXIgTmF0dXJlMRMwEQYD
VQQLEwpFdmVyeXRoaW5nMRYwFAYDVQQDEw1Nb3RoZXIgTmF0dXJlMB4XDTE2MDcw
NzIyMzk0OVoXDTE2MDkxOTIyMzk0OVowgZkxCzAJBgNVBAYTAlVTMQswCQYDVQQI
EwJGTDEUMBIGA1UEBxMLVGFsbGFoYXNzZWUxHDAaBgNVBAkTEzMyMTAgSG9sbHkg
TWlsbCBSdW4xDjAMBgNVBBETBTMwMDYyMRgwFgYDVQQKEw9FeHRyZW1lIERpc2Nv
cmQxDjAMBgNVBAsTBUNoYW9zMQ8wDQYDVQQDEwZnb3YudXMwgZswEAYHKoZIzj0C
AQYFK4EEACMDgYYABACMKxNvX/my5lClTc26Rg5z49XvH/2R+TwO73OQlI7NvBuR
Bu8oHEvasg7Pndh+vybv3xGL2JKn/manH+X693L2ZQG3WfLGxggV89z0POhtP9No
q1lUpnf9Oc9WK8dpT1hcOWaJZPBWHYhUdz0isfkYwxnIndEe1mDd6nRl/47+J6BR
TqOBujCBtzAMBgNVHRMBAf8EAjAAMA4GA1UdIwQHMAWAAwECAzANBgNVHQ4EBgQE
BAMCATAbBgNVHREEFDASgggqLmdvdi51c4IGZ292LnVzMAsGA1UdDwQEAwIBhjAg
BgNVHSUBAf8EFjAUBggrBgEFBQcDAQYIKwYBBQUHAwIwPAYDVR0fBDUwMzAxoC+g
LYYraHR0cDovL2NybC5zdGFyZmllbGR0ZWNoLmNvbS9zZmlnMnMxLTE3LmNybDAN
BgkqhkiG9w0BAQsFAAOCAQEAIBf5HYyE367SsP2esq13IxyxE86AIqq9/HVKOmG/
n5aykQSUpn0/uebz8XbQdOQb4SlZv/1hWOn/qKuLB8WFMWi6ZikkTKhkIFJsaL32
hKLZ3hnclussD+MmTWkxmNj2Cixbm7HLZAbWJ5eORPSdEBDqdYYSlNshrVuRRVEp
7kitZgtgM4L4m1XsX8Ntgu89nBFOEYR8chyjPdcIcN9boKnnlsRlL1m0qb9VgRNo
ndsaLAHh9IXjGTzQT2RYHY13QcogfP9M+zvLXNUOC9nTpuS/q0xO6jpWlNJpZZni
RpsULffiYlxBt/e6x4mCJHa+omK0vHXyYWWIEzS37BrqPA==
-----END CERTIFICATE-----
