Certificate:
    Data:
        Version: 3 (0x2)
        Serial Number:
            16:e3:9f:2c:68:44:05:d6:2f:4a:8a:9e:2c:d7:d2:f7:40:00:00:00:00
    Signature Algorithm: sha256WithRSAEncryption
        Issuer: C = US, O = Mother Nature, OU = Everything, CN = Mother Nature
        Validity
            Not Before: Jul  7 22:40:29 2016 GMT
            Not After : Sep 19 22:40:29 2016 GMT
        Subject: C = US, ST = FL, L = Tallahassee, street = 3210 Holly Mill Run, postalCode = 30062, O = Extreme Discord, OU = Chaos, CN = gov.us
        Subject Public Key Info:
            Public Key Algorithm: id-ecPublicKey
                Public-Key: (256 bit)
                pub:
                    04:a9:63:40:93:1c:6e:64:b7:a8:03:9f:73:b3:38:
                    41:c7:7e:c1:b5:1e:aa:1e:ba:9d:44:dd:3e:7e:5a:
                    ef:e5:c2:80:56:49:d2:b4:64:ff:b6:2d:12:c1:5b:
                    25:8f:8f:ff:29:38:dc:65:b0:ab:76:1d:5f:fa:ec:
                    1c:75:b0:f8:b4
                ASN1 OID: prime256v1
                NIST CURVE: P-256
        X509v3 extensions:
            X509v3 Basic Constraints: critical
                CA:FALSE
            X509v3 Authority Key Identifier: 
                keyid:01:02:03

            X509v3 Subject Key Identifier: 
                04:03:02:01
            X509v3 Subject Alternative Name: 
                DNS:*.gov.us, DNS:gov.us
            X509v3 Key Usage: 
                Digital Signature, Certificate Sign, CRL Sign
            X509v3 Extended Key Usage: critical
                TLS Web Server Authentication, TLS Web Client Authentication
            X509v3 CRL Distribution Points: 

                Full Name:
                  URI:http://crl.starfieldtech.com/sfig2s1-17.crl

    Signature Algorithm: sha256WithRSAEncryption
         58:17:63:66:39:22:85:f5:0b:ae:30:51:4a:3e:5b:c4:6b:45:
         50:44:3d:ea:1e:53:70:c1:01:e0:6b:4d:2a:8b:e1:c7:83:cf:
         68:26:11:d6:91:46:31:8f:3f:cf:39:1b:17:dd:0d:f5:63:16:
         71:77:ca:d2:2f:c7:37:70:9b:28:45:1f:f6:f8:de:7f:47:fa:
         d2:68:84:78:62:b6:33:42:bc:33:6c:4d:51:d0:a5:54:14:31:
         67:18:9d:f3:4e:35:ec:a4:bc:a9:a5:e8:9c:f1:f5:3a:db:52:
         b8:42:d9:2c:28:2a:d1:d7:06:d8:e9:84:a7:3d:63:e8:19:73:
         94:c7:f3:26:6f:44:b1:7d:e9:48:d1:c7:4c:d8:cb:95:f6:f5:
         f1:67:17:03:6a:63:15:76:ac:e5:bc:08:ff:94:0c:28:cf:9f:
         d2:d6:16:ec:94:54:73:60:8a:be:1d:1d:55:8a:4c:d7:e7:b7:
         b9:8b:1c:17:31:5b:44:ba:07:f6:84:dc:b0:29:c0:4b:40:19:
         46:07:e2:46:d3:46:02:cc:6b:3b:f1:94:c9:d7:81:95:f3:d8:
         15:5c:33:a0:14:df:5f:91:2f:9d:e7:35:d7:74:ab:95:b8:05:
         56:ea:78:8c:04:06:a6:5b:66:52:ad:60:91:03:bb:f4:a8:42:
         ea:ab:d1:10
-----BEGIN CERTIFICATE-----
MIIDazCCAlOgAwIBAgIVFuOfLGhEBdYvSoqeLNfS90AAAAAAMA0GCSqGSIb3DQEB
CwUAMFIxCzAJBgNVBAYTAlVTMRYwFAYDVQQKEw1Nb3RoZXIgTmF0dXJlMRMwEQYD
VQQLEwpFdmVyeXRoaW5nMRYwFAYDVQQDEw1Nb3RoZXIgTmF0dXJlMB4XDTE2MDcw
NzIyNDAyOVoXDTE2MDkxOTIyNDAyOVowgZkxCzAJBgNVBAYTAlVTMQswCQYDVQQI
EwJGTDEUMBIGA1UEBxMLVGFsbGFoYXNzZWUxHDAaBgNVBAkTEzMyMTAgSG9sbHkg
TWlsbCBSdW4xDjAMBgNVBBETBTMwMDYyMRgwFgYDVQQKEw9FeHRyZW1lIERpc2Nv
cmQxDjAMBgNVBAsTBUNoYW9zMQ8wDQYDVQQDEwZnb3YudXMwWTATBgcqhkjOPQIB
BggqhkjOPQMBBwNCAASpY0CTHG5kt6gDn3OzOEHHfsG1Hqoeup1E3T5+Wu/lwoBW
SdK0ZP+2LRLBWyWPj/8pONxlsKt2HV/67Bx1sPi0o4G6MIG3MAwGA1UdEwEB/wQC
MAAwDgYDVR0jBAcwBYADAQIDMA0GA1UdDgQGBAQEAwIBMBsGA1UdEQQUMBKCCCou
Z292LnVzggZnb3YudXMwCwYDVR0PBAQDAgGGMCAGA1UdJQEB/wQWMBQGCCsGAQUF
BwMBBggrBgEFBQcDAjA8BgNVHR8ENTAzMDGgL6AthitodHRwOi8vY3JsLnN0YXJm
aWVsZHRlY2guY29tL3NmaWcyczEtMTcuY3JsMA0GCSqGSIb3DQEBCwUAA4IBAQBY
F2NmOSKF9QuuMFFKPlvEa0VQRD3qHlNwwQHga00qi+HHg89oJhHWkUYxjz/PORsX
3Q31YxZxd8rSL8c3cJsoRR/2+N5/R/rSaIR4YrYzQrwzbE1R0KVUFDFnGJ3zTjXs
pLyppeic8fU621K4QtksKCrR1wbY6YSnPWPoGXOUx/Mmb0SxfelI0cdM2MuV9vXx
ZxcDamMVdqzlvAj/lAwoz5/S1hbslFRzYIq+HR1VikzX57e5ixwXMVtEugf2hNyw
KcBLQBlGB+JG00YCzGs78ZTJ14GV89gVXDOgFN9fkS+d5zXXdKuVuAVW6niMBAam
W2ZSrWCRA7v0qELqq9EQ
-----END CERTIFICATE-----
