Certificate:
    Data:
        Version: 3 (0x2)
        Serial Number:
            16:e3:9f:2c:68:44:05:d6:2f:4a:8a:9e:2c:d7:d2:f7:40:00:00:00:00
    Signature Algorithm: sha256WithRSAEncryption
        Issuer: C = US, O = Mother Nature, OU = Everything, CN = Mother Nature
        Validity
            Not Before: Jul  8 15:42:17 2016 GMT
            Not After : Sep 20 15:42:17 2016 GMT
        Subject: C = US, ST = FL, L = Tallahassee, street = 3210 Holly Mill Run, postalCode = 30062, O = Extreme Discord, OU = Chaos, CN = gov.us
        Subject Public Key Info:
            Public Key Algorithm: id-ecPublicKey
                Public-Key: (224 bit)
                pub:
                    04:47:da:e6:0c:e7:9e:a7:21:bd:3f:8f:28:e3:c4:
                    ef:48:05:b6:6d:11:bc:db:ed:d4:4d:9f:c8:57:ec:
                    13:dd:03:6e:4d:5a:39:20:28:4b:30:8c:d6:74:8e:
                    82:e4:9a:80:2c:c9:58:9c:bc:1e:db:69
                ASN1 OID: secp224r1
                NIST CURVE: P-224
        X509v3 extensions:
            X509v3 Basic Constraints: critical
                CA:FALSE
            X509v3 Authority Key Identifier: 
                keyid:01:02:03

            X509v3 Subject Key Identifier: 
                04:03:02:01
            X509v3 Subject Alternative Name: 
                DNS:*.gov.us, DNS:gov.us
            X509v3 Key Usage: 
                Digital Signature, Certificate Sign, CRL Sign
            X509v3 Extended Key Usage: critical
                TLS Web Server Authentication, 1.2.840.113635.100.4.3, Signing KDC Response, Any Extended Key Usage
            X509v3 CRL Distribution Points: 

                Full Name:
                  URI:http://crl.starfieldtech.com/sfig2s1-17.crl

    Signature Algorithm: sha256WithRSAEncryption
         a2:f2:24:7f:e3:bc:92:ab:7e:4c:5a:26:8d:99:32:53:05:6e:
         5f:91:ed:17:1a:0d:95:6b:f3:e8:3a:ef:5a:19:39:6f:87:b0:
         76:39:21:c0:de:aa:cc:7c:06:57:cd:47:05:94:c9:45:be:df:
         ec:64:39:79:62:12:65:bd:66:20:8c:2f:ee:19:bc:a1:d3:de:
         59:5b:e5:fa:d6:a0:e5:51:0a:f8:9d:91:2e:df:fa:4c:34:f2:
         14:7e:1d:21:24:a3:9b:48:10:93:bc:d7:6c:52:72:0e:5b:30:
         df:1a:78:12:65:46:3c:dd:f0:30:f1:ea:c3:90:ae:9a:15:cd:
         42:c3:f7:ad:5f:31:5c:57:1a:fe:c2:71:3e:07:8b:39:7f:e4:
         60:d6:09:3c:52:a6:6c:ba:31:c8:a7:10:eb:a5:24:6a:78:32:
         e8:38:c4:af:ef:d5:72:b5:79:7b:69:02:b4:ae:05:4e:aa:80:
         5d:68:0b:b9:78:0c:92:c5:8b:20:9e:f1:a4:a5:47:c6:01:b1:
         d8:41:cc:22:c0:44:3d:10:a5:cd:a5:96:1c:3f:0f:bf:bf:60:
         4e:81:4b:27:eb:45:cb:a9:45:cc:b3:57:b8:4c:e1:59:8b:0b:
         e6:65:95:f2:46:53:77:51:9d:b4:47:bf:65:41:67:fa:24:26:
         d8:ad:da:6b
-----BEGIN CERTIFICATE-----
MIIDcDCCAligAwIBAgIVFuOfLGhEBdYvSoqeLNfS90AAAAAAMA0GCSqGSIb3DQEB
CwUAMFIxCzAJBgNVBAYTAlVTMRYwFAYDVQQKEw1Nb3RoZXIgTmF0dXJlMRMwEQYD
VQQLEwpFdmVyeXRoaW5nMRYwFAYDVQQDEw1Nb3RoZXIgTmF0dXJlMB4XDTE2MDcw
ODE1NDIxN1oXDTE2MDkyMDE1NDIxN1owgZkxCzAJBgNVBAYTAlVTMQswCQYDVQQI
EwJGTDEUMBIGA1UEBxMLVGFsbGFoYXNzZWUxHDAaBgNVBAkTEzMyMTAgSG9sbHkg
TWlsbCBSdW4xDjAMBgNVBBETBTMwMDYyMRgwFgYDVQQKEw9FeHRyZW1lIERpc2Nv
cmQxDjAMBgNVBAsTBUNoYW9zMQ8wDQYDVQQDEwZnb3YudXMwTjAQBgcqhkjOPQIB
BgUrgQQAIQM6AARH2uYM556nIb0/jyjjxO9IBbZtEbzb7dRNn8hX7BPdA25NWjkg
KEswjNZ0joLkmoAsyVicvB7baaOByjCBxzAMBgNVHRMBAf8EAjAAMA4GA1UdIwQH
MAWAAwECAzANBgNVHQ4EBgQEBAMCATAbBgNVHREEFDASgggqLmdvdi51c4IGZ292
LnVzMAsGA1UdDwQEAwIBhjAwBgNVHSUBAf8EJjAkBggrBgEFBQcDAQYJKoZIhvdj
ZAQDBgcrBgEFAgMFBgRVHSUAMDwGA1UdHwQ1MDMwMaAvoC2GK2h0dHA6Ly9jcmwu
c3RhcmZpZWxkdGVjaC5jb20vc2ZpZzJzMS0xNy5jcmwwDQYJKoZIhvcNAQELBQAD
ggEBAKLyJH/jvJKrfkxaJo2ZMlMFbl+R7RcaDZVr8+g671oZOW+HsHY5IcDeqsx8
BlfNRwWUyUW+3+xkOXliEmW9ZiCML+4ZvKHT3llb5frWoOVRCvidkS7f+kw08hR+
HSEko5tIEJO812xScg5bMN8aeBJlRjzd8DDx6sOQrpoVzULD961fMVxXGv7CcT4H
izl/5GDWCTxSpmy6McinEOulJGp4Mug4xK/v1XK1eXtpArSuBU6qgF1oC7l4DJLF
iyCe8aSlR8YBsdhBzCLARD0Qpc2llhw/D7+/YE6BSyfrRcupRcyzV7hM4VmLC+Zl
lfJGU3dRnbRHv2VBZ/okJtit2ms=
-----END CERTIFICATE-----
