Certificate:
    Data:
        Version: 3 (0x2)
        Serial Number:
            16:e3:9f:2c:68:44:05:d6:2f:4a:8a:9e:2c:d7:d2:f7:40:00:00:00:00
    Signature Algorithm: sha256WithRSAEncryption
        Issuer: C = US, O = Mother Nature, OU = Everything, CN = Mother Nature
        Validity
            Not Before: Jul  8 15:42:31 2016 GMT
            Not After : Sep 20 15:42:31 2016 GMT
        Subject: C = US, ST = FL, L = Tallahassee, street = 3210 Holly Mill Run, postalCode = 30062, O = Extreme Discord, OU = Chaos, CN = gov.us
        Subject Public Key Info:
            Public Key Algorithm: id-ecPublicKey
                Public-Key: (224 bit)
                pub:
                    04:c4:69:9d:ca:7b:66:75:f5:14:2e:d0:f2:d4:f8:
                    39:8e:d2:4f:83:ed:10:a8:0c:0e:95:06:6f:2e:40:
                    21:08:d2:60:18:b2:cb:59:7b:80:88:c8:22:ba:2e:
                    c1:6d:86:bb:93:29:97:3e:a1:00:5e:8a
                ASN1 OID: secp224r1
                NIST CURVE: P-224
        X509v3 extensions:
            X509v3 Basic Constraints: critical
                CA:FALSE
            X509v3 Authority Key Identifier: 
                keyid:01:02:03

            X509v3 Subject Key Identifier: 
                04:03:02:01
            X509v3 Subject Alternative Name: 
                DNS:*.gov.us, DNS:gov.us
            X509v3 Key Usage: 
                Digital Signature, Certificate Sign, CRL Sign
            X509v3 Extended Key Usage: 
                TLS Web Server Authentication, 1.2.840.113635.100.4.3, Signing KDC Response, Any Extended Key Usage
            X509v3 CRL Distribution Points: 

                Full Name:
                  URI:http://crl.starfieldtech.com/sfig2s1-17.crl

    Signature Algorithm: sha256WithRSAEncryption
         8b:3a:a2:a9:14:26:73:37:e4:16:bb:1b:24:96:aa:11:7a:ac:
         ad:41:5c:5c:09:dd:3e:38:21:7a:a3:a3:40:53:4d:e6:87:ee:
         76:b8:3f:72:00:d1:e1:5f:f6:e4:9f:00:a6:ba:f6:3b:48:95:
         21:7e:ae:fc:57:e3:73:c0:e4:fe:90:7c:f9:20:00:ab:7f:f1:
         9a:da:84:13:dc:a5:b2:c8:d1:67:50:ca:5e:94:9d:19:af:9c:
         86:59:7c:23:60:93:43:d8:65:df:6a:b1:40:94:f5:c6:70:3d:
         a7:58:42:25:cd:48:c5:a7:f8:eb:50:cb:1e:dd:b4:1c:62:b6:
         ed:d2:4f:a3:c6:64:40:78:d2:df:ec:31:33:21:db:fc:b5:17:
         f5:2f:e4:e2:e0:89:09:f1:50:e6:fd:0a:0a:f5:47:1f:da:df:
         05:6f:55:74:c3:4d:52:02:be:f7:d3:13:59:4a:b2:05:42:c7:
         6a:36:3f:ae:c5:a8:5a:83:b7:1d:ba:b9:13:bd:59:b1:a9:0d:
         0c:94:95:47:79:58:c1:17:64:79:66:fc:67:5e:93:b7:8e:e5:
         85:bf:2d:14:b0:af:14:04:66:6b:69:5a:88:fc:ea:86:49:46:
         c1:b2:47:a6:aa:c7:a8:33:4a:1e:a4:98:ad:d8:fb:e2:d7:53:
         73:18:3b:42
-----BEGIN CERTIFICATE-----
MIIDbTCCAlWgAwIBAgIVFuOfLGhEBdYvSoqeLNfS90AAAAAAMA0GCSqGSIb3DQEB
CwUAMFIxCzAJBgNVBAYTAlVTMRYwFAYDVQQKEw1Nb3RoZXIgTmF0dXJlMRMwEQYD
VQQLEwpFdmVyeXRoaW5nMRYwFAYDVQQDEw1Nb3RoZXIgTmF0dXJlMB4XDTE2MDcw
ODE1NDIzMVoXDTE2MDkyMDE1NDIzMVowgZkxCzAJBgNVBAYTAlVTMQswCQYDVQQI
EwJGTDEUMBIGA1UEBxMLVGFsbGFoYXNzZWUxHDAaBgNVBAkTEzMyMTAgSG9sbHkg
TWlsbCBSdW4xDjAMBgNVBBETBTMwMDYyMRgwFgYDVQQKEw9FeHRyZW1lIERpc2Nv
cmQxDjAMBgNVBAsTBUNoYW9zMQ8wDQYDVQQDEwZnb3YudXMwTjAQBgcqhkjOPQIB
BgUrgQQAIQM6AATEaZ3Ke2Z19RQu0PLU+DmO0k+D7RCoDA6VBm8uQCEI0mAYsstZ
e4CIyCK6LsFthruTKZc+oQBeiqOBxzCBxDAMBgNVHRMBAf8EAjAAMA4GA1UdIwQH
MAWAAwECAzANBgNVHQ4EBgQEBAMCATAbBgNVHREEFDASgggqLmdvdi51c4IGZ292
LnVzMAsGA1UdDwQEAwIBhjAtBgNVHSUEJjAkBggrBgEFBQcDAQYJKoZIhvdjZAQD
BgcrBgEFAgMFBgRVHSUAMDwGA1UdHwQ1MDMwMaAvoC2GK2h0dHA6Ly9jcmwuc3Rh
cmZpZWxkdGVjaC5jb20vc2ZpZzJzMS0xNy5jcmwwDQYJKoZIhvcNAQELBQADggEB
AIs6oqkUJnM35Ba7GySWqhF6rK1BXFwJ3T44IXqjo0BTTeaH7na4P3IA0eFf9uSf
AKa69jtIlSF+rvxX43PA5P6QfPkgAKt/8ZrahBPcpbLI0WdQyl6UnRmvnIZZfCNg
k0PYZd9qsUCU9cZwPadYQiXNSMWn+OtQyx7dtBxitu3ST6PGZEB40t/sMTMh2/y1
F/Uv5OLgiQnxUOb9Cgr1Rx/a3wVvVXTDTVICvvfTE1lKsgVCx2o2P67FqFqDtx26
uRO9WbGpDQyUlUd5WMEXZHlm/Gdek7eO5YW/LRSwrxQEZmtpWoj86oZJRsGyR6aq
x6gzSh6kmK3Y++LXU3MYO0I=
-----END CERTIFICATE-----
