Certificate:
    Data:
        Version: 3 (0x2)
        Serial Number:
            16:e3:9f:2c:68:44:05:d6:2f:4a:8a:9e:2c:d7:d2:f7:40:00:00:00:00
    Signature Algorithm: sha256WithRSAEncryption
        Issuer: C = US, O = Mother Nature, OU = Everything, CN = Mother Nature
        Validity
            Not Before: Jul  8 15:19:24 2016 GMT
            Not After : Sep 20 15:19:24 2016 GMT
        Subject: C = US, ST = FL, L = Tallahassee, street = 3210 Holly Mill Run, postalCode = 30062, O = Extreme Discord, OU = Chaos, CN = gov.us
        Subject Public Key Info:
            Public Key Algorithm: id-ecPublicKey
                Public-Key: (224 bit)
                pub:
                    04:35:37:28:89:e0:12:0a:a0:a6:08:a6:2f:59:fe:
                    e6:86:2b:f6:c5:f5:f2:38:a8:ff:be:65:17:54:a3:
                    84:bd:62:9b:4d:b5:3a:d6:67:b6:07:74:d8:51:c7:
                    02:25:26:79:e1:b8:d8:5a:8f:00:7d:9f
                ASN1 OID: secp224r1
                NIST CURVE: P-224
        X509v3 extensions:
            X509v3 Basic Constraints: critical
                CA:FALSE
            X509v3 Authority Key Identifier: 
                keyid:01:02:03

            X509v3 Subject Key Identifier: 
                04:03:02:01
            X509v3 Subject Alternative Name: 
                DNS:*.gov.us, DNS:gov.us
            X509v3 Key Usage: 
                Digital Signature, Certificate Sign, CRL Sign
            X509v3 Extended Key Usage: critical
                TLS Web Server Authentication, TLS Web Client Authentication
            X509v3 CRL Distribution Points: 

                Full Name:
                  URI:http://crl.starfieldtech.com/sfig2s1-17.crl

    Signature Algorithm: sha256WithRSAEncryption
         83:09:22:83:d2:72:a3:12:b0:85:a8:ee:5f:f8:88:44:ef:b7:
         75:ef:68:14:18:04:13:de:02:e1:77:df:cf:33:75:9d:8e:e0:
         60:37:bb:ad:87:cb:fa:f0:5d:63:ea:f7:2c:3e:bb:06:48:7a:
         a5:b6:86:34:24:5c:75:b8:70:0e:63:3e:97:d9:73:98:24:bf:
         c2:53:b7:26:14:33:fe:57:7d:0f:00:2b:b1:02:7f:97:f4:92:
         08:f9:c1:38:bf:c0:1a:f0:68:c0:81:90:7b:fd:ec:d1:32:ca:
         50:48:a8:e8:42:c2:e2:09:38:6e:28:cb:c4:ac:ba:f2:a5:2b:
         81:aa:97:db:91:66:08:ec:9b:a7:65:76:f0:d8:13:98:da:f0:
         fd:dd:9b:6b:3a:06:e7:b8:2b:03:5f:b9:03:37:5b:2e:f2:40:
         41:06:2c:38:7c:53:5d:b5:cb:ea:83:0a:cf:10:73:1f:ea:ab:
         bf:94:8f:5d:f0:73:5d:a6:26:c1:43:40:8f:71:9b:04:84:a2:
         04:ac:7e:cb:9e:ff:6f:d5:60:3a:a9:53:71:6f:e5:fa:f7:0c:
         8b:b4:d3:1d:a1:cc:11:1b:25:ff:05:76:da:9d:e4:d6:7f:e2:
         31:e5:e7:0c:4c:dd:d8:7d:3e:cb:22:e1:e9:da:5a:33:a6:c6:
         84:82:31:bd
-----BEGIN CERTIFICATE-----
MIIDYDCCAkigAwIBAgIVFuOfLGhEBdYvSoqeLNfS90AAAAAAMA0GCSqGSIb3DQEB
CwUAMFIxCzAJBgNVBAYTAlVTMRYwFAYDVQQKEw1Nb3RoZXIgTmF0dXJlMRMwEQYD
VQQLEwpFdmVyeXRoaW5nMRYwFAYDVQQDEw1Nb3RoZXIgTmF0dXJlMB4XDTE2MDcw
ODE1MTkyNFoXDTE2MDkyMDE1MTkyNFowgZkxCzAJBgNVBAYTAlVTMQswCQYDVQQI
EwJGTDEUMBIGA1UEBxMLVGFsbGFoYXNzZWUxHDAaBgNVBAkTEzMyMTAgSG9sbHkg
TWlsbCBSdW4xDjAMBgNVBBETBTMwMDYyMRgwFgYDVQQKEw9FeHRyZW1lIERpc2Nv
cmQxDjAMBgNVBAsTBUNoYW9zMQ8wDQYDVQQDEwZnb3YudXMwTjAQBgcqhkjOPQIB
BgUrgQQAIQM6AAQ1NyiJ4BIKoKYIpi9Z/uaGK/bF9fI4qP++ZRdUo4S9YptNtTrW
Z7YHdNhRxwIlJnnhuNhajwB9n6OBujCBtzAMBgNVHRMBAf8EAjAAMA4GA1UdIwQH
MAWAAwECAzANBgNVHQ4EBgQEBAMCATAbBgNVHREEFDASgggqLmdvdi51c4IGZ292
LnVzMAsGA1UdDwQEAwIBhjAgBgNVHSUBAf8EFjAUBggrBgEFBQcDAQYIKwYBBQUH
AwIwPAYDVR0fBDUwMzAxoC+gLYYraHR0cDovL2NybC5zdGFyZmllbGR0ZWNoLmNv
bS9zZmlnMnMxLTE3LmNybDANBgkqhkiG9w0BAQsFAAOCAQEAgwkig9JyoxKwhaju
X/iIRO+3de9oFBgEE94C4XffzzN1nY7gYDe7rYfL+vBdY+r3LD67Bkh6pbaGNCRc
dbhwDmM+l9lzmCS/wlO3JhQz/ld9DwArsQJ/l/SSCPnBOL/AGvBowIGQe/3s0TLK
UEio6ELC4gk4bijLxKy68qUrgaqX25FmCOybp2V28NgTmNrw/d2bazoG57grA1+5
AzdbLvJAQQYsOHxTXbXL6oMKzxBzH+qrv5SPXfBzXaYmwUNAj3GbBISiBKx+y57/
b9VgOqlTcW/l+vcMi7TTHaHMERsl/wV22p3k1n/iMeXnDEzd2H0+yyLh6dpaM6bG
hIIxvQ==
-----END CERTIFICATE-----
