Certificate:
    Data:
        Version: 3 (0x2)
        Serial Number: 18008675309 (0x4316693ed)
    Signature Algorithm: sha256WithRSAEncryption
        Issuer: C = US, O = Mother Nature, OU = Everything, CN = Mother Nature
        Validity
            Not Before: Jan  1 00:00:00 2014 GMT
            Not After : Jan  1 00:00:00 2015 GMT
        Subject: C = US, O = Extreme Discord, OU = Chaos, L = Tallahassee, ST = FL, street = 3210 Holly Mill Run, postalCode = 30062, CN = gov.us
        Subject Public Key Info:
            Public Key Algorithm: rsaEncryption
                Public-Key: (512 bit)
                Modulus:
                    00:cb:73:57:ea:a5:a4:3e:b5:a9:15:34:ca:0e:24:
                    fa:df:65:da:47:f7:91:77:e6:56:4c:34:3b:d0:9b:
                    56:a8:f2:da:7d:43:b9:5a:93:17:89:0a:6d:dc:a7:
                    8e:da:85:4e:c3:75:18:02:34:22:1a:d7:b1:11:4f:
                    db:19:14:10:eb
                Exponent: 65537 (0x10001)
        X509v3 extensions:
            X509v3 Key Usage: critical
                Digital Signature, Key Encipherment, Certificate Sign
            X509v3 Extended Key Usage: 
                TLS Web Client Authentication, TLS Web Server Authentication
            X509v3 Basic Constraints: critical
                CA:TRUE
            X509v3 Authority Key Identifier: 
                keyid:01:02:03

            Authority Information Access: 
                OCSP - URI:http://theca.net/ocsp
                CA Issuers - URI:http://theca.net/totallythecert.crt

            X509v3 Certificate Policies: 
                Policy: 2.23.140.1.2.2

            X509v3 Name Constraints: 
                Excluded:
                  DNS:

            X509v3 Subject Key Identifier: 
                04:03:02:01
            X509v3 Subject Alternative Name: 
                URI:, DNS:ˬ
            X509v3 Inhibit Any Policy: 
                ..
            Subject Information Access: 
                ..
    Signature Algorithm: sha256WithRSAEncryption
         25:93:95:14:bb:a0:1f:6e:c9:e3:cb:e4:62:ec:f0:64:b5:dc:
         2d:49:a5:e3:5c:90:2d:bc:db:e6:23:6e:ce:b2:91:16:11:4e:
         9a:76:b8:3f:00:2e:bd:f4:43:7d:ff:71:1b:67:70:3a:1d:00:
         6a:80:19:50:a1:95:37:e8:a0:f7
-----BEGIN CERTIFICATE-----
MIIC/DCCAqigAwIBAgIFBDFmk+0wCwYJKoZIhvcNAQELMFQxCzAJBgNVBAYTAlVT
MRYwFAYDVQQKEw1Nb3RoZXIgTmF0dXJlMRMwEQYDVQQLEwpFdmVyeXRoaW5nMRYw
FAYDVQQDEw1Nb3RoZXIgTmF0dXJlMQAwHhcNMTQwMTAxMDAwMDAwWhcNMTUwMTAx
MDAwMDAwWjCBmzELMAkGA1UEBhMCVVMxGDAWBgNVBAoTD0V4dHJlbWUgRGlzY29y
ZDEOMAwGA1UECxMFQ2hhb3MxFDASBgNVBAcTC1RhbGxhaGFzc2VlMQswCQYDVQQI
EwJGTDEcMBoGA1UECRMTMzIxMCBIb2xseSBNaWxsIFJ1bjEOMAwGA1UEERMFMzAw
NjIxDzANBgNVBAMTBmdvdi51czEAMFwwDQYJKoZIhvcNAQEBBQADSwAwSAJBAMtz
V+qlpD61qRU0yg4k+t9l2kf3kXfmVkw0O9CbVqjy2n1DuVqTF4kKbdynjtqFTsN1
GAI0IhrXsRFP2xkUEOsCAwEAAaOCARkwggEVMA4GA1UdDwEB/wQEAwIApDAdBgNV
HSUEFjAUBggrBgEFBQcDAgYIKwYBBQUHAwEwDwYDVR0TAQH/BAUwAwEB/zAOBgNV
HSMEBzAFgAMBAgMwYgYIKwYBBQUHAQEEVjBUMCEGCCsGAQUFBzABhhVodHRwOi8v
dGhlY2EubmV0L29jc3AwLwYIKwYBBQUHMAKGI2h0dHA6Ly90aGVjYS5uZXQvdG90
YWxseXRoZWNlcnQuY3J0MBMGA1UdIAQMMAowCAYGZ4EMAQICMA8GA1UdHgQIMAah
BDACggAwDQYDVR0OBAYEBAQDAgEwDwYDVR0RBAgwBoYAggLAqDAJBgNVHTYEAgIB
MA4GCCsGAQUFBwELBAICATALBgkqhkiG9w0BAQsDQQAlk5UUu6Afbsnjy+Ri7PBk
tdwtSaXjXJAtvNvmI27OspEWEU6adrg/AC699EN9/3EbZ3A6HQBqgBlQoZU36KD3
-----END CERTIFICATE-----
