Certificate:
    Data:
        Version: 3 (0x2)
        Serial Number: 18008675309 (0x4316693ed)
    Signature Algorithm: sha256WithRSAEncryption
        Issuer: C = US, O = Mother Nature, OU = Everything, CN = Mother Nature
        Validity
            Not Before: Jan  1 00:00:00 2014 GMT
            Not After : Jan  1 00:00:00 2015 GMT
        Subject: C = US, O = Extreme Discord, OU = Chaos, L = Tallahassee, ST = FL, street = 3210 Holly Mill Run, postalCode = 30062, CN = gov.us
        Subject Public Key Info:
            Public Key Algorithm: rsaEncryption
                Public-Key: (512 bit)
                Modulus:
                    00:b3:54:0a:58:5c:50:8c:e0:ea:2e:89:22:b3:9f:
                    d5:bf:30:ed:c7:3d:d5:38:2c:97:8f:47:c3:54:6f:
                    6e:35:d6:87:71:8f:7f:4d:b1:b3:7d:89:20:b8:7e:
                    e6:91:05:c9:c3:fb:8c:cb:88:cf:1b:aa:5d:6d:e0:
                    bb:4e:a5:99:e1
                Exponent: 65537 (0x10001)
        X509v3 extensions:
            X509v3 Key Usage: critical
                Digital Signature, Key Encipherment, Certificate Sign
            X509v3 Extended Key Usage: 
                TLS Web Client Authentication, TLS Web Server Authentication
            X509v3 Basic Constraints: critical
                CA:TRUE
            X509v3 Authority Key Identifier: 
                keyid:01:02:03

            Authority Information Access: 
                OCSP - URI:http://theca.net/ocsp
                CA Issuers - URI:http://theca.net/totallythecert.crt

            X509v3 Certificate Policies: 
                Policy: 2.23.140.1.2.2

            X509v3 Name Constraints: 
                Excluded:
                  IP:0:0:0:0:0:0:0:0/0:0:0:0:0:0:0:0

            X509v3 Subject Key Identifier: 
                04:03:02:01
            X509v3 Subject Alternative Name: 
                URI:, DNS:ˬ
            X509v3 Inhibit Any Policy: 
                ..
            Subject Information Access: 
                ..
    Signature Algorithm: sha256WithRSAEncryption
         05:3a:d4:cc:9c:5a:72:0d:61:1d:d2:b0:e6:36:1e:35:40:ef:
         41:00:49:8f:49:a0:66:7a:9c:45:8e:41:89:4c:b3:f6:29:e6:
         12:d9:6a:20:27:dc:55:56:7d:44:6c:04:e2:4b:43:00:42:2f:
         a9:ea:81:d7:f3:6f:71:61:12:b7
-----BEGIN CERTIFICATE-----
MIIDHDCCAsigAwIBAgIFBDFmk+0wCwYJKoZIhvcNAQELMFQxCzAJBgNVBAYTAlVT
MRYwFAYDVQQKEw1Nb3RoZXIgTmF0dXJlMRMwEQYDVQQLEwpFdmVyeXRoaW5nMRYw
FAYDVQQDEw1Nb3RoZXIgTmF0dXJlMQAwHhcNMTQwMTAxMDAwMDAwWhcNMTUwMTAx
MDAwMDAwWjCBmzELMAkGA1UEBhMCVVMxGDAWBgNVBAoTD0V4dHJlbWUgRGlzY29y
ZDEOMAwGA1UECxMFQ2hhb3MxFDASBgNVBAcTC1RhbGxhaGFzc2VlMQswCQYDVQQI
EwJGTDEcMBoGA1UECRMTMzIxMCBIb2xseSBNaWxsIFJ1bjEOMAwGA1UEERMFMzAw
NjIxDzANBgNVBAMTBmdvdi51czEAMFwwDQYJKoZIhvcNAQEBBQADSwAwSAJBALNU
ClhcUIzg6i6JIrOf1b8w7cc91Tgsl49Hw1RvbjXWh3GPf02xs32JILh+5pEFycP7
jMuIzxuqXW3gu06lmeECAwEAAaOCATkwggE1MA4GA1UdDwEB/wQEAwIApDAdBgNV
HSUEFjAUBggrBgEFBQcDAgYIKwYBBQUHAwEwDwYDVR0TAQH/BAUwAwEB/zAOBgNV
HSMEBzAFgAMBAgMwYgYIKwYBBQUHAQEEVjBUMCEGCCsGAQUFBzABhhVodHRwOi8v
dGhlY2EubmV0L29jc3AwLwYIKwYBBQUHMAKGI2h0dHA6Ly90aGVjYS5uZXQvdG90
YWxseXRoZWNlcnQuY3J0MBMGA1UdIAQMMAowCAYGZ4EMAQICMC8GA1UdHgQoMCah
JDAihyAAAAAAAAAAAAAAAAAAAAAAAAAAAAAAAAAAAAAAAAAAADANBgNVHQ4EBgQE
BAMCATAPBgNVHREECDAGhgCCAsCoMAkGA1UdNgQCAgEwDgYIKwYBBQUHAQsEAgIB
MAsGCSqGSIb3DQEBCwNBAAU61MycWnINYR3SsOY2HjVA70EASY9JoGZ6nEWOQYlM
s/Yp5hLZaiAn3FVWfURsBOJLQwBCL6nqgdfzb3FhErc=
-----END CERTIFICATE-----
