Certificate:
    Data:
        Version: 3 (0x2)
        Serial Number: 18008675309 (0x4316693ed)
    Signature Algorithm: sha256WithRSAEncryption
        Issuer: C = US, O = Mother Nature, OU = Everything, CN = Mother Nature
        Validity
            Not Before: Jan  1 00:00:00 2014 GMT
            Not After : Jan  1 00:00:00 2015 GMT
        Subject: C = US, O = Extreme Discord, OU = Chaos, L = Tallahassee, ST = FL, street = 3210 Holly Mill Run, postalCode = 30062, CN = gov.us
        Subject Public Key Info:
            Public Key Algorithm: rsaEncryption
                Public-Key: (512 bit)
                Modulus:
                    00:c3:30:5c:12:4a:72:0e:4d:d1:9f:b4:25:04:51:
                    04:99:59:e6:93:2e:1c:e9:67:aa:83:6c:33:71:b1:
                    fa:21:f0:01:74:e3:b6:bb:c9:bb:63:0a:25:eb:ab:
                    3a:9d:f0:46:57:11:eb:90:9b:98:04:c1:f7:f9:79:
                    9b:40:75:de:2b
                Exponent: 65537 (0x10001)
        X509v3 extensions:
            X509v3 Key Usage: critical
                Digital Signature, Key Encipherment, Certificate Sign
            X509v3 Extended Key Usage: 
                TLS Web Client Authentication, TLS Web Server Authentication
            X509v3 Basic Constraints: critical
                CA:TRUE
            X509v3 Authority Key Identifier: 
                keyid:01:02:03

            Authority Information Access: 
                OCSP - URI:http://theca.net/ocsp
                CA Issuers - URI:http://theca.net/totallythecert.crt

            X509v3 Certificate Policies: 
                Policy: 2.23.140.1.2.2

            X509v3 Name Constraints: 
                Excluded:
                  IP:0.0.0.0/0.0.0.0

            X509v3 Subject Key Identifier: 
                04:03:02:01
            X509v3 Subject Alternative Name: 
                URI:, DNS:ˬ
            X509v3 Inhibit Any Policy: 
                ..
            Subject Information Access: 
                ..
    Signature Algorithm: sha256WithRSAEncryption
         36:24:ae:13:ed:1b:e2:4f:f3:a2:ca:09:64:db:3a:48:98:6a:
         53:d4:0a:74:62:2d:c0:53:ae:ce:bd:54:7c:75:a0:c4:7b:78:
         c5:b2:47:59:6d:d5:42:ac:59:34:1a:6c:d4:3c:5d:c7:fd:e9:
         e7:eb:d6:b5:29:fb:90:60:05:99
-----BEGIN CERTIFICATE-----
MIIDBDCCArCgAwIBAgIFBDFmk+0wCwYJKoZIhvcNAQELMFQxCzAJBgNVBAYTAlVT
MRYwFAYDVQQKEw1Nb3RoZXIgTmF0dXJlMRMwEQYDVQQLEwpFdmVyeXRoaW5nMRYw
FAYDVQQDEw1Nb3RoZXIgTmF0dXJlMQAwHhcNMTQwMTAxMDAwMDAwWhcNMTUwMTAx
MDAwMDAwWjCBmzELMAkGA1UEBhMCVVMxGDAWBgNVBAoTD0V4dHJlbWUgRGlzY29y
ZDEOMAwGA1UECxMFQ2hhb3MxFDASBgNVBAcTC1RhbGxhaGFzc2VlMQswCQYDVQQI
EwJGTDEcMBoGA1UECRMTMzIxMCBIb2xseSBNaWxsIFJ1bjEOMAwGA1UEERMFMzAw
NjIxDzANBgNVBAMTBmdvdi51czEAMFwwDQYJKoZIhvcNAQEBBQADSwAwSAJBAMMw
XBJKcg5N0Z+0JQRRBJlZ5pMuHOlnqoNsM3Gx+iHwAXTjtrvJu2MKJeurOp3wRlcR
65CbmATB9/l5m0B13isCAwEAAaOCASEwggEdMA4GA1UdDwEB/wQEAwIApDAdBgNV
HSUEFjAUBggrBgEFBQcDAgYIKwYBBQUHAwEwDwYDVR0TAQH/BAUwAwEB/zAOBgNV
HSMEBzAFgAMBAgMwYgYIKwYBBQUHAQEEVjBUMCEGCCsGAQUFBzABhhVodHRwOi8v
dGhlY2EubmV0L29jc3AwLwYIKwYBBQUHMAKGI2h0dHA6Ly90aGVjYS5uZXQvdG90
YWxseXRoZWNlcnQuY3J0MBMGA1UdIAQMMAowCAYGZ4EMAQICMBcGA1UdHgQQMA6h
DDAKhwgAAAAAAAAAADANBgNVHQ4EBgQEBAMCATAPBgNVHREECDAGhgCCAsCoMAkG
A1UdNgQCAgEwDgYIKwYBBQUHAQsEAgIBMAsGCSqGSIb3DQEBCwNBADYkrhPtG+JP
86LKCWTbOkiYalPUCnRiLcBTrs69VHx1oMR7eMWyR1lt1UKsWTQabNQ8Xcf96efr
1rUp+5BgBZk=
-----END CERTIFICATE-----
