Certificate:
    Data:
        Version: 3 (0x2)
        Serial Number: 18008675309 (0x4316693ed)
    Signature Algorithm: sha256WithRSAEncryption
        Issuer: C=US, O=Mother Nature, OU=Everything, CN=Name constraint
        Validity
            Not Before: Dec  1 06:07:08 2016 GMT
            Not After : Oct 21 18:25:03 2036 GMT
        Subject: CN=gov.us, OU=Chaos, O=Extreme Discord/street=3210 Holly Mill Run, L=Tallahassee, ST=FL/postalCode=30062, C=US/serialNumber=12345678901234567890
        Subject Public Key Info:
            Public Key Algorithm: rsaEncryption
                Public-Key: (512 bit)
                Modulus:
                    00:b2:23:0f:f5:33:a9:e3:66:44:9d:17:44:f0:14:
                    26:80:7b:74:60:8f:bc:6d:c7:88:88:86:6a:b5:4e:
                    d1:3b:58:56:7b:44:75:cf:76:6d:d1:12:0c:2e:dc:
                    0e:b9:e0:64:59:bb:c5:79:29:76:de:98:a0:9c:97:
                    c9:99:39:47:fb
                Exponent: 65537 (0x10001)
        X509v3 extensions:
            X509v3 Key Usage: critical
                Digital Signature, Key Encipherment, Certificate Sign
            X509v3 Extended Key Usage: 
                TLS Web Client Authentication, TLS Web Server Authentication
            X509v3 Basic Constraints: critical
                CA:TRUE
            X509v3 Authority Key Identifier: 
                keyid:01:02:03

            Authority Information Access: 
                OCSP - URI:http://theca.net/ocsp
                CA Issuers - URI:http://theca.net/totallythecert.crt

            X509v3 Subject Alternative Name: 
                DNS:www.example.com
            X509v3 Certificate Policies: 
                Policy: 1.3.6.1.4.1.36305.2
                Policy: 1.2.3.4.5

            X509v3 Name Constraints: 
                Permitted:
                  email:good_email@gg.com
                  email:LulMail
                  DNS:permitted.com
                  DirName: C = US, O = UIUC, OU = ECE, L = Champaign, ST = IL, street = 601 Wright St, postalCode = 61820, CN = uiuc.net
                  IP:74.125.224.72/255.255.0.0
                Excluded:
                  email:bad_email@gg.com
                  email:LulMail
                  DNS:banned.com
                  DirName: C = US, O = Umich, OU = CS, L = Ann Arbor, ST = MI, street = 500 State St, postalCode = 48109, CN = umich.net
                  IP:192.168.1.1/255.255.0.0

    Signature Algorithm: sha256WithRSAEncryption
         05:1c:14:c3:82:56:7c:06:df:76:09:43:30:f5:ab:dd:1f:75:
         ff:59:e7:90:94:40:f7:44:ad:63:85:85:16:26:5a:cd:6d:c4:
         ba:9d:6a:93:c3:bd:26:de:57:ae:90:9a:e1:64:d1:ef:a8:e2:
         1d:55:df:2d:7f:a7:3d:83:cb:d2
-----BEGIN CERTIFICATE-----
MIIEpzCCBFOgAwIBAgIFBDFmk+0wCwYJKoZIhvcNAQELMFYxCzAJBgNVBAYTAlVT
MRYwFAYDVQQKEw1Nb3RoZXIgTmF0dXJlMRMwEQYDVQQLEwpFdmVyeXRoaW5nMRgw
FgYDVQQDEw9OYW1lIGNvbnN0cmFpbnQxADAeFw0xNjEyMDEwNjA3MDhaFw0zNjEw
MjExODI1MDNaMIG6MQ8wDQYDVQQDEwZnb3YudXMxDjAMBgNVBAsTBUNoYW9zMRgw
FgYDVQQKEw9FeHRyZW1lIERpc2NvcmQxHDAaBgNVBAkTEzMyMTAgSG9sbHkgTWls
bCBSdW4xFDASBgNVBAcTC1RhbGxhaGFzc2VlMQswCQYDVQQIEwJGTDEOMAwGA1UE
ERMFMzAwNjIxCzAJBgNVBAYTAlVTMR0wGwYDVQQFExQxMjM0NTY3ODkwMTIzNDU2
Nzg5MDEAMFwwDQYJKoZIhvcNAQEBBQADSwAwSAJBALIjD/UzqeNmRJ0XRPAUJoB7
dGCPvG3HiIiGarVO0TtYVntEdc92bdESDC7cDrngZFm7xXkpdt6YoJyXyZk5R/sC
AwEAAaOCAqMwggKfMA4GA1UdDwEB/wQEAwIApDAdBgNVHSUEFjAUBggrBgEFBQcD
AgYIKwYBBQUHAwEwDwYDVR0TAQH/BAUwAwEB/zAOBgNVHSMEBzAFgAMBAgMwYgYI
KwYBBQUHAQEEVjBUMCEGCCsGAQUFBzABhhVodHRwOi8vdGhlY2EubmV0L29jc3Aw
LwYIKwYBBQUHMAKGI2h0dHA6Ly90aGVjYS5uZXQvdG90YWxseXRoZWNlcnQuY3J0
MBoGA1UdEQQTMBGCD3d3dy5leGFtcGxlLmNvbTAeBgNVHSAEFzAVMAsGCSsGAQQB
gptRAjAGBgQqAwQFMIIBqwYDVR0eBIIBojCCAZ6ggc4wE4ERZ29vZF9lbWFpbEBn
Zy5jb20wCYEHTHVsTWFpbDAPgg1wZXJtaXR0ZWQuY29tMIGOpIGLMIGIMQswCQYD
VQQGEwJVUzENMAsGA1UEChMEVUlVQzEMMAoGA1UECxMDRUNFMRIwEAYDVQQHEwlD
aGFtcGFpZ24xCzAJBgNVBAgTAklMMRYwFAYDVQQJEw02MDEgV3JpZ2h0IFN0MQ4w
DAYDVQQREwU2MTgyMDERMA8GA1UEAxMIdWl1Yy5uZXQxADAKhwhKfeBI//8AAKGB
yjASgRBiYWRfZW1haWxAZ2cuY29tMAmBB0x1bE1haWwwDIIKYmFubmVkLmNvbTCB
jqSBizCBiDELMAkGA1UEBhMCVVMxDjAMBgNVBAoTBVVtaWNoMQswCQYDVQQLEwJD
UzESMBAGA1UEBxMJQW5uIEFyYm9yMQswCQYDVQQIEwJNSTEVMBMGA1UECRMMNTAw
IFN0YXRlIFN0MQ4wDAYDVQQREwU0ODEwOTESMBAGA1UEAxMJdW1pY2gubmV0MQAw
CocIwKgBAf//AAAwCwYJKoZIhvcNAQELA0EABRwUw4JWfAbfdglDMPWr3R91/1nn
kJRA90StY4WFFiZazW3Eup1qk8O9Jt5XrpCa4WTR76jiHVXfLX+nPYPL0g==
-----END CERTIFICATE-----
