Certificate:
    Data:
        Version: 3 (0x2)
        Serial Number: 18008675309 (0x4316693ed)
    Signature Algorithm: sha256WithRSAEncryption
        Issuer: C = US, O = Mother Nature, OU = Everything, CN = Name constraint
        Validity
            Not Before: Dec  1 06:07:08 2016 GMT
            Not After : Oct 21 18:25:03 2036 GMT
        Subject: C = US, O = Extreme Discord, OU = Chaos, L = Tallahassee, ST = FL, street = 3210 Holly Mill Run, postalCode = 30062, CN = gov.us
        Subject Public Key Info:
            Public Key Algorithm: rsaEncryption
                Public-Key: (2048 bit)
                Modulus:
                    00:dd:90:99:09:58:93:e4:0d:86:7c:d8:3e:cd:dc:
                    54:8c:d6:12:78:72:39:b8:9a:f5:29:75:b0:d3:a4:
                    44:98:a0:7d:2e:9d:47:32:25:22:c1:14:02:66:52:
                    b6:5e:5d:7d:56:a5:85:35:8f:4d:9e:d8:be:b7:b5:
                    6b:62:8a:0c:76:69:f3:84:78:26:9a:98:46:3e:75:
                    1d:cd:f1:7d:e9:07:52:23:f6:e4:ac:f6:5f:87:ae:
                    79:8b:08:99:09:ee:4c:f8:20:3a:73:ad:18:fe:de:
                    98:fc:43:dd:eb:74:1b:de:32:e7:58:b8:73:58:2f:
                    04:62:ec:a0:5e:13:59:df:fb:22:c0:e1:c3:17:e7:
                    63:07:9b:e3:d2:28:f3:9f:29:f2:74:ce:47:bd:18:
                    95:ae:61:18:5f:22:37:91:c9:e9:d2:67:c3:d1:31:
                    5f:65:72:12:44:18:f3:71:e8:8f:3a:d3:c2:57:d6:
                    ed:00:7b:39:fc:d1:39:01:d9:67:63:1b:09:2b:aa:
                    cb:50:79:24:6f:72:72:45:d3:55:97:4d:01:b2:01:
                    37:89:ba:ae:29:fd:57:83:73:6c:f1:16:a8:37:3a:
                    38:82:7f:3e:ea:a9:8f:78:07:71:aa:56:7d:89:e1:
                    6c:9c:f5:94:6f:dc:a3:13:58:06:8e:0d:59:8e:9f:
                    9c:c5
                Exponent: 65537 (0x10001)
        X509v3 extensions:
            X509v3 Key Usage: critical
                Digital Signature, Key Encipherment, Certificate Sign
            X509v3 Extended Key Usage: 
                TLS Web Client Authentication, TLS Web Server Authentication
            X509v3 Basic Constraints: critical
                CA:TRUE
            X509v3 Authority Key Identifier: 
                keyid:01:02:03

            Authority Information Access: 
                OCSP - URI:http://theca.net/ocsp
                CA Issuers - URI:http://theca.net/totallythecert.crt

            X509v3 Subject Alternative Name: 
                DNS:www.example.com
            X509v3 Issuer Alternative Name: 
                URI:, DNS:www.example.com
            X509v3 Certificate Policies: 
                Policy: 1.3.6.1.4.1.36305.2
                Policy: 1.2.3.4.5

            X509v3 Name Constraints: 
                Permitted:
                  email:good_email@gg.com
                  email:LulMail
                  DNS:permitted.com
                  DirName:C = US, O = UIUC, OU = ECE, L = Champaign, ST = IL, street = 601 Wright St, postalCode = 61820, CN = uiuc.net
                  IP:74.125.224.72/255.255.0.0
                Excluded:
                  email:bad_email@gg.com
                  email:LulMail
                  DNS:banned.com
                  DirName:C = US, O = Umich, OU = CS, L = Ann Arbor, ST = MI, street = 500 State St, postalCode = 48109, CN = umich.net
                  IP:192.168.1.1/255.255.0.0

    Signature Algorithm: sha256WithRSAEncryption
         62:6e:77:7c:35:19:d2:41:cb:1c:ee:3c:2d:2c:ab:33:d2:77:
         ce:c1:f8:93:61:c1:b4:08:6c:0b:7f:e6:a1:0f:e1:4a:ab:1d:
         a4:e1:da:e4:c6:29:22:82:9d:45:6c:0e:ca:d6:64:94:8d:61:
         e2:84:09:98:1b:3d:56:21:83:80:f2:59:2e:90:5f:89:6b:e9:
         92:b8:31:91:3a:40:1a:df:4b:1a:fd:68:71:3c:8a:ef:e4:7f:
         bc:86:dd:7d:cc:74:c8:a8:a9:c5:82:75:f5:0e:52:bc:74:9a:
         c1:cb:00:6b:b6:0a:9a:28:e3:13:54:b5:82:e0:5a:6c:04:34:
         aa:d0:f2:85:da:12:84:8f:90:a9:c6:3c:1d:f3:1f:27:54:1f:
         18:1a:a3:4c:c1:79:32:6f:7c:0a:e1:3f:b1:cf:1c:3d:2d:ba:
         92:89:b2:45:30:27:23:92:60:e7:47:00:ab:c0:1b:e4:2b:49:
         0c:9a:1f:21:46:e7:14:1e:66:ed:26:31:bc:78:a2:8b:9f:a6:
         e1:7d:f9:56:e8:f0:8c:4f:74:e3:7a:6d:53:d1:f6:38:33:ba:
         be:ba:3f:14:e1:c4:13:1e:39:f0:6a:02:8f:8f:8f:11:a5:f3:
         5f:b0:81:06:3d:8f:4b:28:db:8a:45:de:3a:8c:42:1e:c7:42:
         8d:db:26:81
-----BEGIN CERTIFICATE-----
MIIGMzCCBR2gAwIBAgIFBDFmk+0wCwYJKoZIhvcNAQELMFYxCzAJBgNVBAYTAlVT
MRYwFAYDVQQKEw1Nb3RoZXIgTmF0dXJlMRMwEQYDVQQLEwpFdmVyeXRoaW5nMRgw
FgYDVQQDEw9OYW1lIGNvbnN0cmFpbnQxADAeFw0xNjEyMDEwNjA3MDhaFw0zNjEw
MjExODI1MDNaMIGbMQswCQYDVQQGEwJVUzEYMBYGA1UEChMPRXh0cmVtZSBEaXNj
b3JkMQ4wDAYDVQQLEwVDaGFvczEUMBIGA1UEBxMLVGFsbGFoYXNzZWUxCzAJBgNV
BAgTAkZMMRwwGgYDVQQJExMzMjEwIEhvbGx5IE1pbGwgUnVuMQ4wDAYDVQQREwUz
MDA2MjEPMA0GA1UEAxMGZ292LnVzMQAwggEiMA0GCSqGSIb3DQEBAQUAA4IBDwAw
ggEKAoIBAQDdkJkJWJPkDYZ82D7N3FSM1hJ4cjm4mvUpdbDTpESYoH0unUcyJSLB
FAJmUrZeXX1WpYU1j02e2L63tWtiigx2afOEeCaamEY+dR3N8X3pB1Ij9uSs9l+H
rnmLCJkJ7kz4IDpzrRj+3pj8Q93rdBveMudYuHNYLwRi7KBeE1nf+yLA4cMX52MH
m+PSKPOfKfJ0zke9GJWuYRhfIjeRyenSZ8PRMV9lchJEGPNx6I8608JX1u0Aezn8
0TkB2WdjGwkrqstQeSRvcnJF01WXTQGyATeJuq4p/VeDc2zxFqg3OjiCfz7qqY94
B3GqVn2J4Wyc9ZRv3KMTWAaODVmOn5zFAgMBAAGjggLEMIICwDAOBgNVHQ8BAf8E
BAMCAKQwHQYDVR0lBBYwFAYIKwYBBQUHAwIGCCsGAQUFBwMBMA8GA1UdEwEB/wQF
MAMBAf8wDgYDVR0jBAcwBYADAQIDMGIGCCsGAQUFBwEBBFYwVDAhBggrBgEFBQcw
AYYVaHR0cDovL3RoZWNhLm5ldC9vY3NwMC8GCCsGAQUFBzAChiNodHRwOi8vdGhl
Y2EubmV0L3RvdGFsbHl0aGVjZXJ0LmNydDAaBgNVHREEEzARgg93d3cuZXhhbXBs
ZS5jb20wHwYDVR0SBBgwFoYDFxgZgg93d3cuZXhhbXBsZS5jb20wHgYDVR0gBBcw
FTALBgkrBgEEAYKbUQIwBgYEKgMEBTCCAasGA1UdHgSCAaIwggGeoIHOMBOBEWdv
b2RfZW1haWxAZ2cuY29tMAmBB0x1bE1haWwwD4INcGVybWl0dGVkLmNvbTCBjqSB
izCBiDELMAkGA1UEBhMCVVMxDTALBgNVBAoTBFVJVUMxDDAKBgNVBAsTA0VDRTES
MBAGA1UEBxMJQ2hhbXBhaWduMQswCQYDVQQIEwJJTDEWMBQGA1UECRMNNjAxIFdy
aWdodCBTdDEOMAwGA1UEERMFNjE4MjAxETAPBgNVBAMTCHVpdWMubmV0MQAwCocI
Sn3gSP//AAChgcowEoEQYmFkX2VtYWlsQGdnLmNvbTAJgQdMdWxNYWlsMAyCCmJh
bm5lZC5jb20wgY6kgYswgYgxCzAJBgNVBAYTAlVTMQ4wDAYDVQQKEwVVbWljaDEL
MAkGA1UECxMCQ1MxEjAQBgNVBAcTCUFubiBBcmJvcjELMAkGA1UECBMCTUkxFTAT
BgNVBAkTDDUwMCBTdGF0ZSBTdDEOMAwGA1UEERMFNDgxMDkxEjAQBgNVBAMTCXVt
aWNoLm5ldDEAMAqHCMCoAQH//wAAMAsGCSqGSIb3DQEBCwOCAQEAYm53fDUZ0kHL
HO48LSyrM9J3zsH4k2HBtAhsC3/moQ/hSqsdpOHa5MYpIoKdRWwOytZklI1h4oQJ
mBs9ViGDgPJZLpBfiWvpkrgxkTpAGt9LGv1ocTyK7+R/vIbdfcx0yKipxYJ19Q5S
vHSawcsAa7YKmijjE1S1guBabAQ0qtDyhdoShI+QqcY8HfMfJ1QfGBqjTMF5Mm98
CuE/sc8cPS26komyRTAnI5Jg50cAq8Ab5CtJDJofIUbnFB5m7SYxvHiii5+m4X35
VujwjE9043ptU9H2ODO6vro/FOHEEx458GoCj4+PEaXzX7CBBj2PSyjbikXeOoxC
HsdCjdsmgQ==
-----END CERTIFICATE-----
