Certificate:
    Data:
        Version: 3 (0x2)
        Serial Number: 0 (0x0)
    Signature Algorithm: sha256WithRSAEncryption
        Issuer: C = US, O = Mother Nature, OU = Everything, CN = Name constraint
        Validity
            Not Before: Dec  1 06:07:08 2016 GMT
            Not After : Oct 21 19:21:38 2036 GMT
        Subject: C = US, OU = Chaos, ST = FL, street = 3210 Holly Mill Run, postalCode = 30062, CN = gov.us
        Subject Public Key Info:
            Public Key Algorithm: rsaEncryption
                Public-Key: (2048 bit)
                Modulus:
                    00:da:f3:c2:17:ce:ae:f5:2b:02:be:98:e4:71:f7:
                    6a:49:c2:8f:a4:93:b3:44:fd:c9:1b:74:39:c8:12:
                    db:0e:5e:a7:c5:af:01:43:9d:53:4f:8c:e7:29:d7:
                    23:d5:54:90:a1:e9:92:d9:fd:8e:d8:34:43:9a:6f:
                    ff:b5:e6:c5:53:98:dc:f5:ac:a8:ef:a4:48:93:71:
                    e2:8a:05:40:b3:39:d4:93:46:65:26:b3:1a:02:09:
                    94:e7:d3:b6:e4:cc:c7:93:64:db:cf:79:70:65:bf:
                    b8:00:f6:9b:87:a4:a1:e9:00:e5:ed:88:c9:2e:13:
                    9a:5a:d5:2c:da:22:b5:5b:13:af:19:2b:3d:35:72:
                    95:ec:14:77:16:b9:d2:46:0c:1f:f5:f7:d3:97:dc:
                    2e:6a:81:09:9e:95:c5:ad:3b:45:78:d4:65:c8:4c:
                    43:1e:c7:78:e3:48:4c:89:40:ae:04:a1:03:c0:a7:
                    dd:99:ff:c9:2a:e5:b0:05:9e:e7:02:97:55:2d:16:
                    86:f2:d3:d8:44:b1:72:00:cb:af:dd:1d:3a:df:59:
                    58:99:58:52:6b:98:29:d6:3f:f6:88:fe:60:23:2e:
                    91:98:51:81:52:ac:16:68:ce:f6:8b:19:12:6c:70:
                    ff:87:de:02:56:2d:5c:36:10:17:8c:f7:47:d7:17:
                    a7:87
                Exponent: 65537 (0x10001)
        X509v3 extensions:
            X509v3 Key Usage: critical
                Digital Signature, Key Encipherment, Certificate Sign
            X509v3 Extended Key Usage: 
                TLS Web Client Authentication, TLS Web Server Authentication
            X509v3 Basic Constraints: critical
                CA:TRUE
            X509v3 Authority Key Identifier: 
                keyid:01:02:03

            Authority Information Access: 
                OCSP - URI:http://theca.net/ocsp
                CA Issuers - URI:http://theca.net/totallythecert.crt

            X509v3 Subject Alternative Name: 
                DNS:www.example.com
            X509v3 Issuer Alternative Name: 
                URI:, DNS:www.example.com
            X509v3 Certificate Policies: 
                Policy: 1.3.6.1.4.1.36305.2
                Policy: 1.2.3.4.5

            X509v3 Name Constraints: 
                Permitted:
                  email:good_email@gg.com
                  email:LulMail
                  DNS:permitted.com
                  DirName:C = US, O = UIUC, OU = ECE, L = Champaign, ST = IL, street = 601 Wright St, postalCode = 61820, CN = uiuc.net
                  IP:74.125.224.72/255.255.0.0
                Excluded:
                  email:bad_email@gg.com
                  email:LulMail
                  DNS:banned.com
                  DirName:C = US, O = Umich, OU = CS, L = Ann Arbor, ST = MI, street = 500 State St, postalCode = 48109, CN = umich.net
                  IP:192.168.1.1/255.255.0.0

    Signature Algorithm: sha256WithRSAEncryption
         21:8f:10:12:51:82:f8:55:cc:17:9c:df:ee:55:96:57:0b:f1:
         59:75:05:04:b1:c4:bb:f3:d0:f0:11:8c:d4:5f:e2:2f:10:c7:
         90:5e:65:2d:3e:ea:d4:ad:fb:62:b6:d6:86:dc:e0:79:a3:80:
         10:a4:3e:95:53:2a:f3:69:83:23:e7:94:9d:4c:bd:02:30:38:
         e8:79:37:60:da:c4:d1:54:86:ef:96:3e:cc:25:b1:63:62:2f:
         6a:ca:14:df:d1:c1:a4:74:8f:2b:76:8c:6b:7f:e2:29:0a:67:
         e8:d5:37:0f:e2:a2:f4:a4:ed:8a:18:16:b4:f0:78:c0:dc:fd:
         ff:e7:bf:d3:c2:d3:2f:c5:7e:16:c7:9e:74:9f:41:c2:1f:b3:
         e3:3e:a4:34:9a:66:a4:03:af:b7:d7:fa:85:d8:35:1e:38:94:
         7f:f1:42:99:f7:2f:3e:84:f8:7b:ef:1d:ab:48:40:af:b3:35:
         e5:a7:19:ef:10:10:bd:4c:83:7f:39:87:a6:04:75:e2:c6:d6:
         89:fb:09:a1:b5:a4:10:06:9e:c0:7f:07:44:a3:18:a9:57:7a:
         c5:d9:4a:11:e9:bd:9a:c9:64:2d:fb:00:c7:f4:64:56:31:a4:
         e1:42:55:b0:2f:2e:7f:25:aa:22:54:96:dc:7e:4c:59:d8:5e:
         60:ac:30:e2
-----BEGIN CERTIFICATE-----
MIIF/jCCBOigAwIBAgIBADALBgkqhkiG9w0BAQswVjELMAkGA1UEBhMCVVMxFjAU
BgNVBAoTDU1vdGhlciBOYXR1cmUxEzARBgNVBAsTCkV2ZXJ5dGhpbmcxGDAWBgNV
BAMTD05hbWUgY29uc3RyYWludDEAMB4XDTE2MTIwMTA2MDcwOFoXDTM2MTAyMTE5
MjEzOFowazELMAkGA1UEBhMCVVMxDjAMBgNVBAsTBUNoYW9zMQswCQYDVQQIEwJG
TDEcMBoGA1UECRMTMzIxMCBIb2xseSBNaWxsIFJ1bjEOMAwGA1UEERMFMzAwNjIx
DzANBgNVBAMTBmdvdi51czEAMIIBIjANBgkqhkiG9w0BAQEFAAOCAQ8AMIIBCgKC
AQEA2vPCF86u9SsCvpjkcfdqScKPpJOzRP3JG3Q5yBLbDl6nxa8BQ51TT4znKdcj
1VSQoemS2f2O2DRDmm//tebFU5jc9ayo76RIk3HiigVAsznUk0ZlJrMaAgmU59O2
5MzHk2Tbz3lwZb+4APabh6Sh6QDl7YjJLhOaWtUs2iK1WxOvGSs9NXKV7BR3FrnS
Rgwf9ffTl9wuaoEJnpXFrTtFeNRlyExDHsd440hMiUCuBKEDwKfdmf/JKuWwBZ7n
ApdVLRaG8tPYRLFyAMuv3R0631lYmVhSa5gp1j/2iP5gIy6RmFGBUqwWaM72ixkS
bHD/h94CVi1cNhAXjPdH1xenhwIDAQABo4ICxDCCAsAwDgYDVR0PAQH/BAQDAgCk
MB0GA1UdJQQWMBQGCCsGAQUFBwMCBggrBgEFBQcDATAPBgNVHRMBAf8EBTADAQH/
MA4GA1UdIwQHMAWAAwECAzBiBggrBgEFBQcBAQRWMFQwIQYIKwYBBQUHMAGGFWh0
dHA6Ly90aGVjYS5uZXQvb2NzcDAvBggrBgEFBQcwAoYjaHR0cDovL3RoZWNhLm5l
dC90b3RhbGx5dGhlY2VydC5jcnQwGgYDVR0RBBMwEYIPd3d3LmV4YW1wbGUuY29t
MB8GA1UdEgQYMBaGAxcYGYIPd3d3LmV4YW1wbGUuY29tMB4GA1UdIAQXMBUwCwYJ
KwYBBAGCm1ECMAYGBCoDBAUwggGrBgNVHR4EggGiMIIBnqCBzjATgRFnb29kX2Vt
YWlsQGdnLmNvbTAJgQdMdWxNYWlsMA+CDXBlcm1pdHRlZC5jb20wgY6kgYswgYgx
CzAJBgNVBAYTAlVTMQ0wCwYDVQQKEwRVSVVDMQwwCgYDVQQLEwNFQ0UxEjAQBgNV
BAcTCUNoYW1wYWlnbjELMAkGA1UECBMCSUwxFjAUBgNVBAkTDTYwMSBXcmlnaHQg
U3QxDjAMBgNVBBETBTYxODIwMREwDwYDVQQDEwh1aXVjLm5ldDEAMAqHCEp94Ej/
/wAAoYHKMBKBEGJhZF9lbWFpbEBnZy5jb20wCYEHTHVsTWFpbDAMggpiYW5uZWQu
Y29tMIGOpIGLMIGIMQswCQYDVQQGEwJVUzEOMAwGA1UEChMFVW1pY2gxCzAJBgNV
BAsTAkNTMRIwEAYDVQQHEwlBbm4gQXJib3IxCzAJBgNVBAgTAk1JMRUwEwYDVQQJ
Eww1MDAgU3RhdGUgU3QxDjAMBgNVBBETBTQ4MTA5MRIwEAYDVQQDEwl1bWljaC5u
ZXQxADAKhwjAqAEB//8AADALBgkqhkiG9w0BAQsDggEBACGPEBJRgvhVzBec3+5V
llcL8Vl1BQSxxLvz0PARjNRf4i8Qx5BeZS0+6tSt+2K21obc4HmjgBCkPpVTKvNp
gyPnlJ1MvQIwOOh5N2DaxNFUhu+WPswlsWNiL2rKFN/RwaR0jyt2jGt/4ikKZ+jV
Nw/iovSk7YoYFrTweMDc/f/nv9PC0y/FfhbHnnSfQcIfs+M+pDSaZqQDr7fX+oXY
NR44lH/xQpn3Lz6E+HvvHatIQK+zNeWnGe8QEL1Mg385h6YEdeLG1on7CaG1pBAG
nsB/B0SjGKlXesXZShHpvZrJZC37AMf0ZFYxpOFCVbAvLn8lqiJUltx+TFnYXmCs
MOI=
-----END CERTIFICATE-----
