Certificate:
    Data:
        Version: 3 (0x2)
        Serial Number: 18008675309 (0x4316693ed)
    Signature Algorithm: sha256WithRSAEncryption
        Issuer: C = US, O = Mother Nature, OU = Everything, CN = Name constraint
        Validity
            Not Before: Dec  1 06:07:08 2016 GMT
            Not After : Oct 21 19:24:48 2036 GMT
        Subject: O = Extreme Discord, OU = Chaos, L = Tallahassee, ST = FL, street = 3210 Holly Mill Run, postalCode = 30062, CN = gov.us
        Subject Public Key Info:
            Public Key Algorithm: rsaEncryption
                Public-Key: (2048 bit)
                Modulus:
                    00:bc:9f:27:1c:09:70:59:a3:d4:a5:91:44:56:50:
                    f5:76:5c:c3:b7:dc:5c:03:00:bd:5d:58:c0:d2:13:
                    ef:a8:bc:aa:d1:f4:de:fc:4a:00:40:c5:2e:2d:4b:
                    e2:5c:2e:f1:d2:7f:f5:33:fa:71:12:fc:ba:01:ce:
                    01:2a:31:0e:de:c5:aa:cd:b2:30:64:22:4e:88:b7:
                    cd:44:50:e0:ac:f2:b8:34:5d:7d:89:1a:ae:03:b6:
                    53:8a:42:c7:b6:e5:4c:8e:1a:56:80:6d:12:25:da:
                    ec:63:f5:cf:00:bd:54:f7:97:60:94:1a:dd:c3:a1:
                    63:48:53:78:4b:c2:cf:d9:6f:31:42:0d:80:4a:7b:
                    d4:be:ab:c1:c5:0c:2e:57:41:c2:a1:05:47:dd:49:
                    bf:23:09:66:7d:b7:b5:45:a5:59:24:a8:0a:19:40:
                    61:90:f4:a2:aa:f3:0d:1c:30:57:cf:66:75:74:06:
                    73:c4:b1:52:66:fc:aa:db:7e:dc:49:a1:53:c8:af:
                    77:3c:33:80:6c:37:88:d5:5e:23:97:92:47:bc:c6:
                    21:d8:8a:09:34:79:58:3b:00:33:9d:d0:64:51:2d:
                    f0:85:98:a0:a8:e6:ab:3f:24:19:fb:9a:19:84:4a:
                    c1:dc:38:d0:74:00:cf:8a:97:22:ef:2d:3d:42:c6:
                    62:19
                Exponent: 65537 (0x10001)
        X509v3 extensions:
            X509v3 Key Usage: critical
                Digital Signature, Key Encipherment, Certificate Sign
            X509v3 Extended Key Usage: 
                TLS Web Client Authentication, TLS Web Server Authentication
            X509v3 Basic Constraints: critical
                CA:TRUE
            X509v3 Authority Key Identifier: 
                keyid:01:02:03

            Authority Information Access: 
                OCSP - URI:http://theca.net/ocsp
                CA Issuers - URI:http://theca.net/totallythecert.crt

            X509v3 Subject Alternative Name: 
                DNS:www.example.com
            X509v3 Issuer Alternative Name: 
                URI:, DNS:www.example.com
            X509v3 Certificate Policies: 
                Policy: 1.3.6.1.4.1.36305.2
                Policy: 1.2.3.4.5

            X509v3 Name Constraints: 
                Permitted:
                  email:good_email@gg.com
                  email:LulMail
                  DNS:permitted.com
                  DirName:C = US, O = UIUC, OU = ECE, L = Champaign, ST = IL, street = 601 Wright St, postalCode = 61820, CN = uiuc.net
                  IP:74.125.224.72/255.255.0.0
                Excluded:
                  email:bad_email@gg.com
                  email:LulMail
                  DNS:banned.com
                  DirName:C = US, O = Umich, OU = CS, L = Ann Arbor, ST = MI, street = 500 State St, postalCode = 48109, CN = umich.net
                  IP:192.168.1.1/255.255.0.0

    Signature Algorithm: sha256WithRSAEncryption
         0a:ce:83:aa:57:c3:b3:ed:3e:9f:5e:a5:e2:9a:51:68:bc:e9:
         ef:6a:73:bc:f3:60:d7:3e:03:77:91:37:a6:ee:be:d9:cc:d8:
         03:6a:9c:0a:63:d8:37:a6:06:32:da:3c:33:03:3a:50:ec:7c:
         68:c0:7a:bd:0c:29:64:ad:f5:bf:18:bb:8d:e0:61:b6:b2:d1:
         03:ad:82:8e:b1:14:d7:c5:17:16:2c:29:fc:e1:c8:42:24:7f:
         8f:6a:ab:dc:7e:fe:2b:27:d0:08:8a:b7:9f:53:b6:d2:38:d7:
         91:82:b3:4d:02:d9:81:18:89:9f:78:91:9c:49:58:70:e3:3e:
         ec:df:36:b8:3e:7f:a0:73:39:84:fb:61:2d:4d:f2:1a:08:41:
         ef:94:45:9a:ee:c7:1b:af:b6:56:73:62:1b:a6:74:11:cb:bb:
         0d:57:45:17:a5:ce:3b:b6:fe:0c:ee:78:f9:3a:13:51:b8:95:
         5d:dd:61:a2:8a:37:91:dc:81:1d:1d:8e:12:9d:bf:53:a0:bf:
         48:4f:e3:4d:56:00:6d:51:bf:06:37:6f:b7:34:ff:9f:b4:4b:
         45:9e:fb:a3:aa:d5:bc:73:c5:73:f0:82:01:64:81:17:41:07:
         d4:ad:93:81:37:be:41:0a:d7:8c:0f:27:9d:4c:b9:ae:21:4e:
         27:02:4a:87
-----BEGIN CERTIFICATE-----
MIIGJjCCBRCgAwIBAgIFBDFmk+0wCwYJKoZIhvcNAQELMFYxCzAJBgNVBAYTAlVT
MRYwFAYDVQQKEw1Nb3RoZXIgTmF0dXJlMRMwEQYDVQQLEwpFdmVyeXRoaW5nMRgw
FgYDVQQDEw9OYW1lIGNvbnN0cmFpbnQxADAeFw0xNjEyMDEwNjA3MDhaFw0zNjEw
MjExOTI0NDhaMIGOMRgwFgYDVQQKEw9FeHRyZW1lIERpc2NvcmQxDjAMBgNVBAsT
BUNoYW9zMRQwEgYDVQQHEwtUYWxsYWhhc3NlZTELMAkGA1UECBMCRkwxHDAaBgNV
BAkTEzMyMTAgSG9sbHkgTWlsbCBSdW4xDjAMBgNVBBETBTMwMDYyMQ8wDQYDVQQD
EwZnb3YudXMxADCCASIwDQYJKoZIhvcNAQEBBQADggEPADCCAQoCggEBALyfJxwJ
cFmj1KWRRFZQ9XZcw7fcXAMAvV1YwNIT76i8qtH03vxKAEDFLi1L4lwu8dJ/9TP6
cRL8ugHOASoxDt7Fqs2yMGQiToi3zURQ4KzyuDRdfYkargO2U4pCx7blTI4aVoBt
EiXa7GP1zwC9VPeXYJQa3cOhY0hTeEvCz9lvMUINgEp71L6rwcUMLldBwqEFR91J
vyMJZn23tUWlWSSoChlAYZD0oqrzDRwwV89mdXQGc8SxUmb8qtt+3EmhU8ivdzwz
gGw3iNVeI5eSR7zGIdiKCTR5WDsAM53QZFEt8IWYoKjmqz8kGfuaGYRKwdw40HQA
z4qXIu8tPULGYhkCAwEAAaOCAsQwggLAMA4GA1UdDwEB/wQEAwIApDAdBgNVHSUE
FjAUBggrBgEFBQcDAgYIKwYBBQUHAwEwDwYDVR0TAQH/BAUwAwEB/zAOBgNVHSME
BzAFgAMBAgMwYgYIKwYBBQUHAQEEVjBUMCEGCCsGAQUFBzABhhVodHRwOi8vdGhl
Y2EubmV0L29jc3AwLwYIKwYBBQUHMAKGI2h0dHA6Ly90aGVjYS5uZXQvdG90YWxs
eXRoZWNlcnQuY3J0MBoGA1UdEQQTMBGCD3d3dy5leGFtcGxlLmNvbTAfBgNVHRIE
GDAWhgMXGBmCD3d3dy5leGFtcGxlLmNvbTAeBgNVHSAEFzAVMAsGCSsGAQQBgptR
AjAGBgQqAwQFMIIBqwYDVR0eBIIBojCCAZ6ggc4wE4ERZ29vZF9lbWFpbEBnZy5j
b20wCYEHTHVsTWFpbDAPgg1wZXJtaXR0ZWQuY29tMIGOpIGLMIGIMQswCQYDVQQG
EwJVUzENMAsGA1UEChMEVUlVQzEMMAoGA1UECxMDRUNFMRIwEAYDVQQHEwlDaGFt
cGFpZ24xCzAJBgNVBAgTAklMMRYwFAYDVQQJEw02MDEgV3JpZ2h0IFN0MQ4wDAYD
VQQREwU2MTgyMDERMA8GA1UEAxMIdWl1Yy5uZXQxADAKhwhKfeBI//8AAKGByjAS
gRBiYWRfZW1haWxAZ2cuY29tMAmBB0x1bE1haWwwDIIKYmFubmVkLmNvbTCBjqSB
izCBiDELMAkGA1UEBhMCVVMxDjAMBgNVBAoTBVVtaWNoMQswCQYDVQQLEwJDUzES
MBAGA1UEBxMJQW5uIEFyYm9yMQswCQYDVQQIEwJNSTEVMBMGA1UECRMMNTAwIFN0
YXRlIFN0MQ4wDAYDVQQREwU0ODEwOTESMBAGA1UEAxMJdW1pY2gubmV0MQAwCocI
wKgBAf//AAAwCwYJKoZIhvcNAQELA4IBAQAKzoOqV8Oz7T6fXqXimlFovOnvanO8
82DXPgN3kTem7r7ZzNgDapwKY9g3pgYy2jwzAzpQ7HxowHq9DClkrfW/GLuN4GG2
stEDrYKOsRTXxRcWLCn84chCJH+Paqvcfv4rJ9AIirefU7bSONeRgrNNAtmBGImf
eJGcSVhw4z7s3za4Pn+gczmE+2EtTfIaCEHvlEWa7scbr7ZWc2IbpnQRy7sNV0UX
pc47tv4M7nj5OhNRuJVd3WGiijeR3IEdHY4Snb9ToL9IT+NNVgBtUb8GN2+3NP+f
tEtFnvujqtW8c8Vz8IIBZIEXQQfUrZOBN75BCteMDyedTLmuIU4nAkqH
-----END CERTIFICATE-----
