Certificate:
    Data:
        Version: 3 (0x2)
        Serial Number: 18008675309 (0x4316693ed)
    Signature Algorithm: sha256WithRSAEncryption
        Issuer: C=US, O=Mother Nature, OU=Everything, CN=Name constraint
        Validity
            Not Before: Dec  1 06:07:08 2016 GMT
            Not After : Oct 21 18:25:03 2036 GMT
        Subject: CN=gov.us, OU=Chaos, O=Extreme Discord/street=3210 Holly Mill Run, L=Tallahassee, ST=FL/postalCode=30062, C=US
        Subject Public Key Info:
            Public Key Algorithm: rsaEncryption
                Public-Key: (512 bit)
                Modulus:
                    00:d8:fa:5a:60:49:0e:c6:03:51:67:77:a1:9d:6d:
                    5c:35:40:d1:a2:79:e9:89:e9:e2:f9:66:c2:56:c7:
                    05:4a:ae:5b:02:20:ed:05:e7:f8:f0:d1:e6:15:ff:
                    c8:96:33:9b:7c:16:de:15:3f:00:22:d1:39:7a:b7:
                    57:90:9c:0f:4b
                Exponent: 65537 (0x10001)
        X509v3 extensions:
            X509v3 Key Usage: critical
                Digital Signature, Key Encipherment, Certificate Sign
            X509v3 Extended Key Usage: 
                TLS Web Client Authentication, TLS Web Server Authentication
            X509v3 Basic Constraints: critical
                CA:TRUE
            X509v3 Authority Key Identifier: 
                keyid:01:02:03

            Authority Information Access: 
                OCSP - URI:http://theca.net/ocsp
                CA Issuers - URI:http://theca.net/totallythecert.crt

            X509v3 Subject Alternative Name: 
                DNS:www.example.com
            X509v3 Certificate Policies: 
                Policy: 1.3.6.1.4.1.36305.2
                Policy: 1.2.3.4.5

            X509v3 Name Constraints: 
                Permitted:
                  email:good_email@gg.com
                  email:LulMail
                  DNS:permitted.com
                  DirName: C = US, O = UIUC, OU = ECE, L = Champaign, ST = IL, street = 601 Wright St, postalCode = 61820, CN = uiuc.net
                  IP:74.125.224.72/255.255.0.0
                Excluded:
                  email:bad_email@gg.com
                  email:LulMail
                  DNS:banned.com
                  DirName: C = US, O = Umich, OU = CS, L = Ann Arbor, ST = MI, street = 500 State St, postalCode = 48109, CN = umich.net
                  IP:192.168.1.1/255.255.0.0

    Signature Algorithm: sha256WithRSAEncryption
         32:89:e2:97:e3:d6:c7:23:bb:dd:4a:60:43:31:f4:42:38:3a:
         5f:27:bb:69:47:ce:f4:51:7f:9e:53:9c:74:dd:f3:6d:a4:55:
         a1:7d:ea:0a:31:41:6c:d7:93:ca:45:21:d5:61:3d:84:66:79:
         ce:38:d3:9a:e9:e5:8f:fa:a9:c1
-----BEGIN CERTIFICATE-----
MIIEiDCCBDSgAwIBAgIFBDFmk+0wCwYJKoZIhvcNAQELMFYxCzAJBgNVBAYTAlVT
MRYwFAYDVQQKEw1Nb3RoZXIgTmF0dXJlMRMwEQYDVQQLEwpFdmVyeXRoaW5nMRgw
FgYDVQQDEw9OYW1lIGNvbnN0cmFpbnQxADAeFw0xNjEyMDEwNjA3MDhaFw0zNjEw
MjExODI1MDNaMIGbMQ8wDQYDVQQDEwZnb3YudXMxDjAMBgNVBAsTBUNoYW9zMRgw
FgYDVQQKEw9FeHRyZW1lIERpc2NvcmQxHDAaBgNVBAkTEzMyMTAgSG9sbHkgTWls
bCBSdW4xFDASBgNVBAcTC1RhbGxhaGFzc2VlMQswCQYDVQQIEwJGTDEOMAwGA1UE
ERMFMzAwNjIxCzAJBgNVBAYTAlVTMQAwXDANBgkqhkiG9w0BAQEFAANLADBIAkEA
2PpaYEkOxgNRZ3ehnW1cNUDRonnpieni+WbCVscFSq5bAiDtBef48NHmFf/IljOb
fBbeFT8AItE5erdXkJwPSwIDAQABo4ICozCCAp8wDgYDVR0PAQH/BAQDAgCkMB0G
A1UdJQQWMBQGCCsGAQUFBwMCBggrBgEFBQcDATAPBgNVHRMBAf8EBTADAQH/MA4G
A1UdIwQHMAWAAwECAzBiBggrBgEFBQcBAQRWMFQwIQYIKwYBBQUHMAGGFWh0dHA6
Ly90aGVjYS5uZXQvb2NzcDAvBggrBgEFBQcwAoYjaHR0cDovL3RoZWNhLm5ldC90
b3RhbGx5dGhlY2VydC5jcnQwGgYDVR0RBBMwEYIPd3d3LmV4YW1wbGUuY29tMB4G
A1UdIAQXMBUwCwYJKwYBBAGCm1ECMAYGBCoDBAUwggGrBgNVHR4EggGiMIIBnqCB
zjATgRFnb29kX2VtYWlsQGdnLmNvbTAJgQdMdWxNYWlsMA+CDXBlcm1pdHRlZC5j
b20wgY6kgYswgYgxCzAJBgNVBAYTAlVTMQ0wCwYDVQQKEwRVSVVDMQwwCgYDVQQL
EwNFQ0UxEjAQBgNVBAcTCUNoYW1wYWlnbjELMAkGA1UECBMCSUwxFjAUBgNVBAkT
DTYwMSBXcmlnaHQgU3QxDjAMBgNVBBETBTYxODIwMREwDwYDVQQDEwh1aXVjLm5l
dDEAMAqHCEp94Ej//wAAoYHKMBKBEGJhZF9lbWFpbEBnZy5jb20wCYEHTHVsTWFp
bDAMggpiYW5uZWQuY29tMIGOpIGLMIGIMQswCQYDVQQGEwJVUzEOMAwGA1UEChMF
VW1pY2gxCzAJBgNVBAsTAkNTMRIwEAYDVQQHEwlBbm4gQXJib3IxCzAJBgNVBAgT
Ak1JMRUwEwYDVQQJEww1MDAgU3RhdGUgU3QxDjAMBgNVBBETBTQ4MTA5MRIwEAYD
VQQDEwl1bWljaC5uZXQxADAKhwjAqAEB//8AADALBgkqhkiG9w0BAQsDQQAyieKX
49bHI7vdSmBDMfRCODpfJ7tpR870UX+eU5x03fNtpFWhfeoKMUFs15PKRSHVYT2E
ZnnOONOa6eWP+qnB
-----END CERTIFICATE-----
