Certificate:
    Data:
        Version: 3 (0x2)
        Serial Number: 18008675309 (0x4316693ed)
    Signature Algorithm: sha256WithRSAEncryption
        Issuer: C = US, O = Mother Nature, OU = Everything, CN = Name constraint
        Validity
            Not Before: Dec  1 06:07:08 2016 GMT
            Not After : Oct 21 18:36:46 2036 GMT
        Subject: C = US, OU = Chaos, L = Tallahassee, ST = FL, street = 3210 Holly Mill Run, postalCode = 30062, CN = gov.us
        Subject Public Key Info:
            Public Key Algorithm: rsaEncryption
                Public-Key: (2048 bit)
                Modulus:
                    00:cb:64:35:b0:e8:ae:b9:bb:20:82:0a:d3:82:42:
                    a9:3c:1e:d0:49:a3:67:35:25:31:e4:12:99:16:1a:
                    6d:79:65:3f:1b:1e:f4:4b:dc:d7:59:b2:ba:20:d8:
                    c2:d4:68:06:c8:26:9c:ad:31:fb:98:a0:2e:8f:a1:
                    a3:c2:03:ca:88:41:fd:b1:4f:29:de:2c:8c:4f:b6:
                    d5:c0:25:cd:36:2e:8e:0e:ba:b6:65:32:99:3d:ba:
                    15:a2:ce:74:32:1e:dd:a0:1c:f1:ed:28:d2:94:ac:
                    01:22:18:b2:1f:f5:02:be:46:39:4d:7c:d6:a3:8b:
                    19:57:a8:cb:0c:91:c6:bc:65:fa:df:f6:15:39:25:
                    83:95:12:fd:2b:0e:ff:af:c1:7a:00:e4:4a:ec:7b:
                    3e:26:35:00:7b:52:8a:82:e2:26:3c:7b:d6:60:77:
                    07:7b:fb:55:3f:cf:2b:2a:72:01:63:27:ee:34:ca:
                    99:3b:39:31:0c:02:f5:98:7e:d2:95:a5:60:3b:6d:
                    ff:a8:2e:85:ed:d1:80:b7:58:81:fe:60:48:49:b3:
                    01:91:ca:5f:9e:eb:d8:28:73:70:10:6d:d6:65:2c:
                    75:fa:53:a3:5a:3e:e9:6b:60:3c:ad:9f:1f:16:b2:
                    e2:d1:06:da:2b:8d:2f:13:54:af:a6:5b:20:40:58:
                    f6:69
                Exponent: 65537 (0x10001)
        X509v3 extensions:
            X509v3 Key Usage: critical
                Digital Signature, Key Encipherment, Certificate Sign
            X509v3 Extended Key Usage: 
                TLS Web Client Authentication, TLS Web Server Authentication
            X509v3 Basic Constraints: critical
                CA:TRUE
            X509v3 Authority Key Identifier: 
                keyid:01:02:03

            Authority Information Access: 
                OCSP - URI:http://theca.net/ocsp
                CA Issuers - URI:http://theca.net/totallythecert.crt

            X509v3 Subject Alternative Name: 
                DNS:www.example.com
            X509v3 Issuer Alternative Name: 
                URI:, DNS:www.example.com
            X509v3 Certificate Policies: 
                Policy: 1.3.6.1.4.1.36305.2
                Policy: 1.2.3.4.5

            X509v3 Name Constraints: 
                Permitted:
                  email:good_email@gg.com
                  email:LulMail
                  DNS:permitted.com
                  DirName:C = US, O = UIUC, OU = ECE, L = Champaign, ST = IL, street = 601 Wright St, postalCode = 61820, CN = uiuc.net
                  IP:74.125.224.72/255.255.0.0
                Excluded:
                  email:bad_email@gg.com
                  email:LulMail
                  DNS:banned.com
                  DirName:C = US, O = Umich, OU = CS, L = Ann Arbor, ST = MI, street = 500 State St, postalCode = 48109, CN = umich.net
                  IP:192.168.1.1/255.255.0.0

    Signature Algorithm: sha256WithRSAEncryption
         25:3b:43:c6:36:1a:e7:b1:5c:5f:35:dd:51:0b:5f:8c:65:c5:
         bd:b3:44:d0:95:4c:15:48:81:dc:4c:0f:07:96:32:e8:eb:5e:
         f9:3a:8f:6a:fd:56:22:a2:34:ac:fa:8e:95:e8:1b:bb:82:5c:
         a5:4a:dd:01:e2:4e:cb:00:8a:54:4f:6a:6a:8d:7a:09:a9:86:
         72:de:07:13:9e:7d:60:a2:79:56:17:c7:8d:d4:5c:fe:91:c9:
         53:9f:27:ee:d6:72:4f:c0:a7:2c:e0:fd:0f:aa:5f:d2:be:1c:
         2b:df:6c:31:cd:44:84:8f:ec:94:ee:1d:1e:30:0e:9f:31:bf:
         18:bb:79:c9:17:2c:bc:74:1a:0a:75:cf:e8:21:9a:13:53:6d:
         db:8c:ff:2e:a0:19:08:7d:92:3b:fc:44:04:b1:59:34:cd:0c:
         62:31:26:f5:d8:86:23:11:e2:95:06:00:20:5a:70:df:00:e5:
         28:81:53:f9:8e:4c:42:33:86:ac:67:a3:ed:c1:7f:5a:0f:c4:
         41:9a:04:a1:d5:4e:b3:77:e3:e3:39:21:b8:e2:63:85:a0:4e:
         f8:e6:02:08:7b:8d:d9:bf:7d:3a:cc:42:c5:7d:ed:b4:ff:a1:
         49:4a:49:46:b0:ae:d1:26:05:a8:f0:31:71:59:6c:30:52:39:
         c2:5f:4a:24
-----BEGIN CERTIFICATE-----
MIIGGTCCBQOgAwIBAgIFBDFmk+0wCwYJKoZIhvcNAQELMFYxCzAJBgNVBAYTAlVT
MRYwFAYDVQQKEw1Nb3RoZXIgTmF0dXJlMRMwEQYDVQQLEwpFdmVyeXRoaW5nMRgw
FgYDVQQDEw9OYW1lIGNvbnN0cmFpbnQxADAeFw0xNjEyMDEwNjA3MDhaFw0zNjEw
MjExODM2NDZaMIGBMQswCQYDVQQGEwJVUzEOMAwGA1UECxMFQ2hhb3MxFDASBgNV
BAcTC1RhbGxhaGFzc2VlMQswCQYDVQQIEwJGTDEcMBoGA1UECRMTMzIxMCBIb2xs
eSBNaWxsIFJ1bjEOMAwGA1UEERMFMzAwNjIxDzANBgNVBAMTBmdvdi51czEAMIIB
IjANBgkqhkiG9w0BAQEFAAOCAQ8AMIIBCgKCAQEAy2Q1sOiuubsgggrTgkKpPB7Q
SaNnNSUx5BKZFhpteWU/Gx70S9zXWbK6INjC1GgGyCacrTH7mKAuj6GjwgPKiEH9
sU8p3iyMT7bVwCXNNi6ODrq2ZTKZPboVos50Mh7doBzx7SjSlKwBIhiyH/UCvkY5
TXzWo4sZV6jLDJHGvGX63/YVOSWDlRL9Kw7/r8F6AORK7Hs+JjUAe1KKguImPHvW
YHcHe/tVP88rKnIBYyfuNMqZOzkxDAL1mH7SlaVgO23/qC6F7dGAt1iB/mBISbMB
kcpfnuvYKHNwEG3WZSx1+lOjWj7pa2A8rZ8fFrLi0QbaK40vE1SvplsgQFj2aQID
AQABo4ICxDCCAsAwDgYDVR0PAQH/BAQDAgCkMB0GA1UdJQQWMBQGCCsGAQUFBwMC
BggrBgEFBQcDATAPBgNVHRMBAf8EBTADAQH/MA4GA1UdIwQHMAWAAwECAzBiBggr
BgEFBQcBAQRWMFQwIQYIKwYBBQUHMAGGFWh0dHA6Ly90aGVjYS5uZXQvb2NzcDAv
BggrBgEFBQcwAoYjaHR0cDovL3RoZWNhLm5ldC90b3RhbGx5dGhlY2VydC5jcnQw
GgYDVR0RBBMwEYIPd3d3LmV4YW1wbGUuY29tMB8GA1UdEgQYMBaGAxcYGYIPd3d3
LmV4YW1wbGUuY29tMB4GA1UdIAQXMBUwCwYJKwYBBAGCm1ECMAYGBCoDBAUwggGr
BgNVHR4EggGiMIIBnqCBzjATgRFnb29kX2VtYWlsQGdnLmNvbTAJgQdMdWxNYWls
MA+CDXBlcm1pdHRlZC5jb20wgY6kgYswgYgxCzAJBgNVBAYTAlVTMQ0wCwYDVQQK
EwRVSVVDMQwwCgYDVQQLEwNFQ0UxEjAQBgNVBAcTCUNoYW1wYWlnbjELMAkGA1UE
CBMCSUwxFjAUBgNVBAkTDTYwMSBXcmlnaHQgU3QxDjAMBgNVBBETBTYxODIwMREw
DwYDVQQDEwh1aXVjLm5ldDEAMAqHCEp94Ej//wAAoYHKMBKBEGJhZF9lbWFpbEBn
Zy5jb20wCYEHTHVsTWFpbDAMggpiYW5uZWQuY29tMIGOpIGLMIGIMQswCQYDVQQG
EwJVUzEOMAwGA1UEChMFVW1pY2gxCzAJBgNVBAsTAkNTMRIwEAYDVQQHEwlBbm4g
QXJib3IxCzAJBgNVBAgTAk1JMRUwEwYDVQQJEww1MDAgU3RhdGUgU3QxDjAMBgNV
BBETBTQ4MTA5MRIwEAYDVQQDEwl1bWljaC5uZXQxADAKhwjAqAEB//8AADALBgkq
hkiG9w0BAQsDggEBACU7Q8Y2GuexXF813VELX4xlxb2zRNCVTBVIgdxMDweWMujr
Xvk6j2r9ViKiNKz6jpXoG7uCXKVK3QHiTssAilRPamqNegmphnLeBxOefWCieVYX
x43UXP6RyVOfJ+7Wck/Apyzg/Q+qX9K+HCvfbDHNRISP7JTuHR4wDp8xvxi7eckX
LLx0Ggp1z+ghmhNTbduM/y6gGQh9kjv8RASxWTTNDGIxJvXYhiMR4pUGACBacN8A
5SiBU/mOTEIzhqxno+3Bf1oPxEGaBKHVTrN34+M5IbjiY4WgTvjmAgh7jdm/fTrM
QsV97bT/oUlKSUawrtEmBajwMXFZbDBSOcJfSiQ=
-----END CERTIFICATE-----
