Certificate:
    Data:
        Version: 3 (0x2)
        Serial Number: 18008675309 (0x4316693ed)
    Signature Algorithm: sha256WithRSAEncryption
        Issuer: C = US, O = Mother Nature, OU = Everything, CN = Name constraint
        Validity
            Not Before: Dec  1 06:07:08 2016 GMT
            Not After : Oct 21 19:36:56 2036 GMT
        Subject: C = US, O = Extreme Discord, OU = Chaos, L = Tallahassee, ST = FL, street = 3210 Holly Mill Run, postalCode = 30062, CN = gov.us
        Subject Public Key Info:
            Public Key Algorithm: rsaEncryption
                Public-Key: (2048 bit)
                Modulus:
                    00:bf:71:2c:c7:44:ce:c3:99:90:dc:e4:39:1d:21:
                    f6:ea:5e:bc:7a:70:08:d8:76:10:67:aa:95:ba:7e:
                    53:69:1d:ef:ec:79:74:c7:b8:60:ef:30:38:5a:db:
                    12:2e:23:89:a8:aa:ec:c2:31:d0:3b:61:3d:ba:14:
                    76:21:c7:7f:29:9b:6b:1b:a0:64:ef:f2:bd:5c:7f:
                    02:d6:a1:4b:cb:3b:6a:1e:44:25:be:83:00:f6:9e:
                    ae:85:db:77:36:f3:65:f1:8c:9e:d8:4f:b9:55:53:
                    05:10:eb:e7:87:93:00:be:60:1d:61:06:8f:23:15:
                    00:c1:97:da:78:6c:5d:70:bb:6f:d3:2e:e8:3e:57:
                    b3:35:a1:f1:48:15:e4:94:19:df:f5:0d:53:18:2a:
                    c6:2e:ea:76:29:4b:80:2d:3a:66:4b:0e:a5:1f:f4:
                    01:80:ea:7d:93:fd:ed:95:be:b6:06:48:e3:4d:9c:
                    db:ac:5a:67:f6:7b:e9:dc:b0:f5:6b:18:64:f7:10:
                    2a:a8:a9:54:2f:6f:cc:f8:02:7f:21:59:bb:81:db:
                    65:ec:c2:8c:6c:e2:37:d9:9a:79:a7:15:93:25:bd:
                    63:ac:31:e2:25:5f:cc:80:f2:75:f6:11:e1:3b:71:
                    1b:ca:6d:f9:92:5e:e2:d5:db:20:b5:78:a8:53:ea:
                    11:8f
                Exponent: 65537 (0x10001)
        X509v3 extensions:
            X509v3 Key Usage: critical
                Digital Signature, Key Encipherment, Certificate Sign
            X509v3 Extended Key Usage: 
                TLS Web Client Authentication, TLS Web Server Authentication
            X509v3 Basic Constraints: critical
                CA:TRUE
            X509v3 Authority Key Identifier: 
                keyid:01:02:03

            Authority Information Access: 
                OCSP - URI:http://theca.net/ocsp
                CA Issuers - URI:http://theca.net/totallythecert.crt

            X509v3 Subject Alternative Name: 
                DNS:www.example.com
            X509v3 Issuer Alternative Name: 
                URI:, DNS:www.example.com
            X509v3 Certificate Policies: 
                Policy: 1.3.6.1.4.1.36305.2
                Policy: 1.2.3.4.5

            X509v3 Name Constraints: 
                Permitted:
                  email:good_email@gg.com
                  email:LulMail
                  DNS:permitted.com
                  DirName:C = US, O = UIUC, OU = ECE, L = Champaign, ST = IL, street = 601 Wright St, postalCode = 61820, CN = uiuc.net
                  IP:74.125.224.72/255.255.0.0
                Excluded:
                  email:bad_email@gg.com
                  email:LulMail
                  DNS:banned.com
                  DirName:C = US, O = Umich, OU = CS, L = Ann Arbor, ST = MI, street = 500 State St, postalCode = 48109, CN = umich.net
                  IP:192.168.1.1/255.255.0.0

    Signature Algorithm: sha256WithRSAEncryption
         ab:a8:10:82:7c:06:c5:79:26:6e:6a:7c:91:0d:a4:24:1e:91:
         84:f9:94:56:15:04:e3:17:65:96:05:41:bd:78:d5:ee:c6:bd:
         c1:6a:5b:d6:9b:95:cf:66:40:7f:ca:44:72:99:1c:0c:40:01:
         29:b6:c4:12:4f:8d:21:eb:85:e1:a8:20:02:de:7d:a5:98:66:
         11:69:f2:4f:00:7b:7f:96:49:63:9e:62:e7:b7:c8:ba:a6:a0:
         2b:d2:da:0e:e0:dc:b9:c5:a0:d2:0d:ff:69:37:e5:cc:73:59:
         7c:6a:19:17:f6:d3:5a:8a:a9:9d:3c:1d:0c:28:cc:3a:19:fc:
         89:03:cb:73:c3:99:6f:67:a5:49:9a:b2:08:32:a8:c3:f2:9c:
         c5:a6:bd:8f:ea:d3:74:31:f8:bd:e9:c3:91:fb:f0:fb:0b:9a:
         cd:a3:f4:df:c6:a3:29:31:12:cc:b2:30:81:1a:1c:55:23:06:
         fe:fc:8a:5f:09:b9:a8:fe:bd:53:9e:59:dd:3d:75:a4:e2:9d:
         e4:78:02:76:93:0f:68:c3:c0:56:b8:ad:49:70:e4:61:64:df:
         8d:cb:e5:b0:f9:e5:2c:f1:2a:29:19:8e:03:dc:65:04:5d:14:
         8f:d9:c0:5a:3e:73:47:35:fb:96:f3:a6:64:b1:f0:13:82:d8:
         83:9d:92:00
-----BEGIN CERTIFICATE-----
MIIGMzCCBR2gAwIBAgIFBDFmk+0wCwYJKoZIhvcNAQELMFYxCzAJBgNVBAYTAlVT
MRYwFAYDVQQKEw1Nb3RoZXIgTmF0dXJlMRMwEQYDVQQLEwpFdmVyeXRoaW5nMRgw
FgYDVQQDEw9OYW1lIGNvbnN0cmFpbnQxADAeFw0xNjEyMDEwNjA3MDhaFw0zNjEw
MjExOTM2NTZaMIGbMQswCQYDVQQGEwJVUzEYMBYGA1UEChMPRXh0cmVtZSBEaXNj
b3JkMQ4wDAYDVQQLEwVDaGFvczEUMBIGA1UEBxMLVGFsbGFoYXNzZWUxCzAJBgNV
BAgTAkZMMRwwGgYDVQQJExMzMjEwIEhvbGx5IE1pbGwgUnVuMQ4wDAYDVQQREwUz
MDA2MjEPMA0GA1UEAxMGZ292LnVzMQAwggEiMA0GCSqGSIb3DQEBAQUAA4IBDwAw
ggEKAoIBAQC/cSzHRM7DmZDc5DkdIfbqXrx6cAjYdhBnqpW6flNpHe/seXTHuGDv
MDha2xIuI4moquzCMdA7YT26FHYhx38pm2sboGTv8r1cfwLWoUvLO2oeRCW+gwD2
nq6F23c282XxjJ7YT7lVUwUQ6+eHkwC+YB1hBo8jFQDBl9p4bF1wu2/TLug+V7M1
ofFIFeSUGd/1DVMYKsYu6nYpS4AtOmZLDqUf9AGA6n2T/e2VvrYGSONNnNusWmf2
e+ncsPVrGGT3ECqoqVQvb8z4An8hWbuB22Xswoxs4jfZmnmnFZMlvWOsMeIlX8yA
8nX2EeE7cRvKbfmSXuLV2yC1eKhT6hGPAgMBAAGjggLEMIICwDAOBgNVHQ8BAf8E
BAMCAKQwHQYDVR0lBBYwFAYIKwYBBQUHAwIGCCsGAQUFBwMBMA8GA1UdEwEB/wQF
MAMBAf8wDgYDVR0jBAcwBYADAQIDMGIGCCsGAQUFBwEBBFYwVDAhBggrBgEFBQcw
AYYVaHR0cDovL3RoZWNhLm5ldC9vY3NwMC8GCCsGAQUFBzAChiNodHRwOi8vdGhl
Y2EubmV0L3RvdGFsbHl0aGVjZXJ0LmNydDAaBgNVHREEEzARgg93d3cuZXhhbXBs
ZS5jb20wHwYDVR0SBBgwFoYDFxgZgg93d3cuZXhhbXBsZS5jb20wHgYDVR0gBBcw
FTALBgkrBgEEAYKbUQIwBgYEKgMEBTCCAasGA1UdHgSCAaIwggGeoIHOMBOBEWdv
b2RfZW1haWxAZ2cuY29tMAmBB0x1bE1haWwwD4INcGVybWl0dGVkLmNvbTCBjqSB
izCBiDELMAkGA1UEBhMCVVMxDTALBgNVBAoTBFVJVUMxDDAKBgNVBAsTA0VDRTES
MBAGA1UEBxMJQ2hhbXBhaWduMQswCQYDVQQIEwJJTDEWMBQGA1UECRMNNjAxIFdy
aWdodCBTdDEOMAwGA1UEERMFNjE4MjAxETAPBgNVBAMTCHVpdWMubmV0MQAwCocI
Sn3gSP//AAChgcowEoEQYmFkX2VtYWlsQGdnLmNvbTAJgQdMdWxNYWlsMAyCCmJh
bm5lZC5jb20wgY6kgYswgYgxCzAJBgNVBAYTAlVTMQ4wDAYDVQQKEwVVbWljaDEL
MAkGA1UECxMCQ1MxEjAQBgNVBAcTCUFubiBBcmJvcjELMAkGA1UECBMCTUkxFTAT
BgNVBAkTDDUwMCBTdGF0ZSBTdDEOMAwGA1UEERMFNDgxMDkxEjAQBgNVBAMTCXVt
aWNoLm5ldDEAMAqHCMCoAQH//wAAMAsGCSqGSIb3DQEBCwOCAQEAq6gQgnwGxXkm
bmp8kQ2kJB6RhPmUVhUE4xdllgVBvXjV7sa9wWpb1puVz2ZAf8pEcpkcDEABKbbE
Ek+NIeuF4aggAt59pZhmEWnyTwB7f5ZJY55i57fIuqagK9LaDuDcucWg0g3/aTfl
zHNZfGoZF/bTWoqpnTwdDCjMOhn8iQPLc8OZb2elSZqyCDKow/Kcxaa9j+rTdDH4
venDkfvw+wuazaP038ajKTESzLIwgRocVSMG/vyKXwm5qP69U55Z3T11pOKd5HgC
dpMPaMPAVritSXDkYWTfjcvlsPnlLPEqKRmOA9xlBF0Uj9nAWj5zRzX7lvOmZLHw
E4LYg52SAA==
-----END CERTIFICATE-----
