Certificate:
    Data:
        Version: 3 (0x2)
        Serial Number: 18008675309 (0x4316693ed)
    Signature Algorithm: sha256WithRSAEncryption
        Issuer: C = US, O = Mother Nature, OU = Everything, CN = Name constraint
        Validity
            Not Before: Dec  1 06:07:08 2016 GMT
            Not After : Nov  4 19:37:41 2016 GMT
        Subject: C = US, O = Extreme Discord, OU = Chaos, L = Tallahassee, ST = FL, street = 3210 Holly Mill Run, postalCode = 30062, CN = gov.us
        Subject Public Key Info:
            Public Key Algorithm: rsaEncryption
                Public-Key: (2048 bit)
                Modulus:
                    00:e4:d2:a1:7d:ab:11:45:c3:ae:df:d0:b8:36:64:
                    d3:e9:4d:0b:5c:72:de:37:06:7b:7a:4c:12:63:9f:
                    04:e1:af:f9:cd:29:71:ad:1e:f6:c2:eb:50:52:e5:
                    21:e7:50:bb:c0:c1:3e:82:91:9d:b7:da:72:f9:fd:
                    ae:0e:e0:a9:2e:4c:1f:4b:06:06:72:ef:28:c1:aa:
                    65:30:8e:1b:14:df:0a:0b:cb:52:dc:6f:37:f4:62:
                    7b:fa:a4:46:65:2b:47:2d:38:0f:43:c0:21:21:da:
                    d4:75:59:62:8d:a9:95:13:1e:6a:51:19:cd:30:22:
                    0f:fc:91:84:78:5f:ce:a7:a4:73:29:86:a9:26:71:
                    bf:d1:86:8f:12:64:ea:60:ac:50:c5:d0:e6:08:bc:
                    4f:d1:98:e4:5b:98:a6:db:1c:6c:a3:9c:e3:2d:f1:
                    2b:08:2a:06:33:60:fa:3a:09:64:84:81:b0:f9:e8:
                    be:b9:36:1e:3f:02:2c:3c:3c:4c:5e:1d:e6:5b:db:
                    b3:64:ea:d5:07:08:f7:6d:e8:e0:e9:01:64:ce:81:
                    7d:d5:08:89:41:b4:a4:f4:ea:df:fa:a2:2e:8e:6e:
                    74:ee:84:57:68:21:73:c6:c6:fb:10:16:21:9d:a6:
                    54:0b:2c:5d:26:d1:63:0d:58:ef:35:9d:af:c7:89:
                    38:e9
                Exponent: 65537 (0x10001)
        X509v3 extensions:
            X509v3 Key Usage: critical
                Digital Signature, Key Encipherment, Certificate Sign
            X509v3 Extended Key Usage: 
                TLS Web Client Authentication, TLS Web Server Authentication
            X509v3 Basic Constraints: critical
                CA:TRUE
            X509v3 Authority Key Identifier: 
                keyid:01:02:03

            Authority Information Access: 
                OCSP - URI:http://theca.net/ocsp
                CA Issuers - URI:http://theca.net/totallythecert.crt

            X509v3 Subject Alternative Name: 
                DNS:www.example.com
            X509v3 Issuer Alternative Name: 
                URI:, DNS:www.example.com
            X509v3 Certificate Policies: 
                Policy: 1.3.6.1.4.1.36305.2
                Policy: 1.2.3.4.5

            X509v3 Name Constraints: 
                Permitted:
                  email:good_email@gg.com
                  email:LulMail
                  DNS:permitted.com
                  DirName:C = US, O = UIUC, OU = ECE, L = Champaign, ST = IL, street = 601 Wright St, postalCode = 61820, CN = uiuc.net
                  IP:74.125.224.72/255.255.0.0
                Excluded:
                  email:bad_email@gg.com
                  email:LulMail
                  DNS:banned.com
                  DirName:C = US, O = Umich, OU = CS, L = Ann Arbor, ST = MI, street = 500 State St, postalCode = 48109, CN = umich.net
                  IP:192.168.1.1/255.255.0.0

    Signature Algorithm: sha256WithRSAEncryption
         9c:05:01:f8:e5:07:d0:33:fe:c7:51:9b:d0:25:64:49:ff:6e:
         ab:24:e6:7b:2f:9a:f8:88:b2:62:e5:3a:36:e8:4b:a9:c2:10:
         dd:12:06:6b:f4:b6:36:16:6a:d2:24:5e:dc:19:d0:47:1d:cf:
         80:f4:e5:bf:70:0b:74:72:bd:19:bb:a1:2b:e4:ce:45:1c:9f:
         e5:4c:77:5e:1a:cf:79:db:7f:35:e4:b9:6a:5b:33:e4:2e:51:
         f8:0d:ee:1a:6a:2e:92:35:de:ce:9b:47:a1:58:aa:44:59:99:
         23:91:f8:4e:b3:2c:76:88:9b:ee:03:96:6b:2d:06:b8:56:f6:
         53:be:ef:4a:49:e4:fc:1f:45:8c:7b:49:5b:78:05:5e:bd:40:
         03:51:4f:61:5d:48:c0:58:85:a5:83:63:f0:a8:ce:aa:19:7f:
         a9:3e:8f:37:0a:36:13:25:44:b9:17:42:ab:ea:d5:2c:af:7d:
         6f:ac:74:e8:d3:3b:bc:4b:29:f4:30:e5:20:89:0b:89:19:c7:
         3b:88:56:12:0d:b0:2f:9a:f4:b6:1b:7f:09:63:32:15:c9:8c:
         c7:6b:8a:36:cf:fb:6f:85:d1:43:ef:52:21:ab:f8:31:34:d2:
         37:ad:ce:50:a9:92:41:21:c9:82:3b:37:d3:6f:83:7a:f3:36:
         1f:64:5d:26
-----BEGIN CERTIFICATE-----
MIIGMzCCBR2gAwIBAgIFBDFmk+0wCwYJKoZIhvcNAQELMFYxCzAJBgNVBAYTAlVT
MRYwFAYDVQQKEw1Nb3RoZXIgTmF0dXJlMRMwEQYDVQQLEwpFdmVyeXRoaW5nMRgw
FgYDVQQDEw9OYW1lIGNvbnN0cmFpbnQxADAeFw0xNjEyMDEwNjA3MDhaFw0xNjEx
MDQxOTM3NDFaMIGbMQswCQYDVQQGEwJVUzEYMBYGA1UEChMPRXh0cmVtZSBEaXNj
b3JkMQ4wDAYDVQQLEwVDaGFvczEUMBIGA1UEBxMLVGFsbGFoYXNzZWUxCzAJBgNV
BAgTAkZMMRwwGgYDVQQJExMzMjEwIEhvbGx5IE1pbGwgUnVuMQ4wDAYDVQQREwUz
MDA2MjEPMA0GA1UEAxMGZ292LnVzMQAwggEiMA0GCSqGSIb3DQEBAQUAA4IBDwAw
ggEKAoIBAQDk0qF9qxFFw67f0Lg2ZNPpTQtcct43Bnt6TBJjnwThr/nNKXGtHvbC
61BS5SHnULvAwT6CkZ232nL5/a4O4KkuTB9LBgZy7yjBqmUwjhsU3woLy1Lcbzf0
Ynv6pEZlK0ctOA9DwCEh2tR1WWKNqZUTHmpRGc0wIg/8kYR4X86npHMphqkmcb/R
ho8SZOpgrFDF0OYIvE/RmORbmKbbHGyjnOMt8SsIKgYzYPo6CWSEgbD56L65Nh4/
Aiw8PExeHeZb27Nk6tUHCPdt6ODpAWTOgX3VCIlBtKT06t/6oi6ObnTuhFdoIXPG
xvsQFiGdplQLLF0m0WMNWO81na/HiTjpAgMBAAGjggLEMIICwDAOBgNVHQ8BAf8E
BAMCAKQwHQYDVR0lBBYwFAYIKwYBBQUHAwIGCCsGAQUFBwMBMA8GA1UdEwEB/wQF
MAMBAf8wDgYDVR0jBAcwBYADAQIDMGIGCCsGAQUFBwEBBFYwVDAhBggrBgEFBQcw
AYYVaHR0cDovL3RoZWNhLm5ldC9vY3NwMC8GCCsGAQUFBzAChiNodHRwOi8vdGhl
Y2EubmV0L3RvdGFsbHl0aGVjZXJ0LmNydDAaBgNVHREEEzARgg93d3cuZXhhbXBs
ZS5jb20wHwYDVR0SBBgwFoYDFxgZgg93d3cuZXhhbXBsZS5jb20wHgYDVR0gBBcw
FTALBgkrBgEEAYKbUQIwBgYEKgMEBTCCAasGA1UdHgSCAaIwggGeoIHOMBOBEWdv
b2RfZW1haWxAZ2cuY29tMAmBB0x1bE1haWwwD4INcGVybWl0dGVkLmNvbTCBjqSB
izCBiDELMAkGA1UEBhMCVVMxDTALBgNVBAoTBFVJVUMxDDAKBgNVBAsTA0VDRTES
MBAGA1UEBxMJQ2hhbXBhaWduMQswCQYDVQQIEwJJTDEWMBQGA1UECRMNNjAxIFdy
aWdodCBTdDEOMAwGA1UEERMFNjE4MjAxETAPBgNVBAMTCHVpdWMubmV0MQAwCocI
Sn3gSP//AAChgcowEoEQYmFkX2VtYWlsQGdnLmNvbTAJgQdMdWxNYWlsMAyCCmJh
bm5lZC5jb20wgY6kgYswgYgxCzAJBgNVBAYTAlVTMQ4wDAYDVQQKEwVVbWljaDEL
MAkGA1UECxMCQ1MxEjAQBgNVBAcTCUFubiBBcmJvcjELMAkGA1UECBMCTUkxFTAT
BgNVBAkTDDUwMCBTdGF0ZSBTdDEOMAwGA1UEERMFNDgxMDkxEjAQBgNVBAMTCXVt
aWNoLm5ldDEAMAqHCMCoAQH//wAAMAsGCSqGSIb3DQEBCwOCAQEAnAUB+OUH0DP+
x1Gb0CVkSf9uqyTmey+a+IiyYuU6NuhLqcIQ3RIGa/S2NhZq0iRe3BnQRx3PgPTl
v3ALdHK9GbuhK+TORRyf5Ux3XhrPedt/NeS5alsz5C5R+A3uGmoukjXezptHoViq
RFmZI5H4TrMsdoib7gOWay0GuFb2U77vSknk/B9FjHtJW3gFXr1AA1FPYV1IwFiF
pYNj8KjOqhl/qT6PNwo2EyVEuRdCq+rVLK99b6x06NM7vEsp9DDlIIkLiRnHO4hW
Eg2wL5r0tht/CWMyFcmMx2uKNs/7b4XRQ+9SIav4MTTSN63OUKmSQSHJgjs302+D
evM2H2RdJg==
-----END CERTIFICATE-----
