Certificate:
    Data:
        Version: 3 (0x2)
        Serial Number: 18008675309 (0x4316693ed)
    Signature Algorithm: sha256WithRSAEncryption
        Issuer: C = US, O = Mother Nature, OU = Everything, CN = Mother Nature
        Validity
            Not Before: Aug 24 22:51:13 2016 GMT
            Not After : Nov  5 22:51:13 2016 GMT
        Subject: C = US, O = Extreme Discord, OU = Chaos, L = Tallahassee, ST = FL, street = 3210 Holly Mill Run, postalCode = 30062, CN = gov.us
        Subject Public Key Info:
            Public Key Algorithm: rsaEncryption
                Public-Key: (2048 bit)
                Modulus:
                    00:cb:7f:e0:e9:2f:b8:ef:63:07:97:31:43:a4:b0:
                    a5:45:43:58:5c:e1:85:9c:25:b9:4a:c7:06:7f:bd:
                    b1:92:7e:75:2e:53:d6:1b:7f:d1:95:29:60:4b:57:
                    5b:ef:23:f9:90:f5:38:ff:ad:f8:02:78:2c:7a:2b:
                    bd:73:0d:f8:2e:40:cd:4c:1b:5e:40:c1:c3:01:9a:
                    65:73:da:fc:7c:82:92:46:31:2f:05:0d:52:33:df:
                    5a:3f:71:ae:f4:82:dd:bf:bb:43:e1:16:93:86:35:
                    d3:f8:f0:58:d1:2e:92:a8:73:d3:ba:6b:85:c3:69:
                    91:bc:45:53:ba:9e:3e:a2:f3:d8:66:8d:58:ca:a8:
                    e5:5d:41:fe:30:90:93:f0:47:61:84:8f:39:44:e8:
                    a4:b0:9e:0b:95:06:6b:d3:b6:37:67:af:a0:31:1d:
                    4d:5b:e2:a3:7c:34:bb:d8:f6:da:73:91:e2:5f:03:
                    8b:78:f0:af:05:ac:f5:45:d2:73:02:45:ae:c0:f7:
                    b3:91:5c:b6:c7:88:c3:bf:f4:bd:96:80:be:3a:34:
                    66:a6:33:bd:da:cd:9a:79:26:e7:1b:d8:01:4c:94:
                    f0:b4:4f:fd:e3:db:c2:d8:02:da:b9:7a:9a:ae:9f:
                    53:3f:e3:d1:24:f1:51:14:01:89:ef:6b:7b:08:47:
                    b4:d5
                Exponent: 65537 (0x10001)
        X509v3 extensions:
            X509v3 Key Usage: critical
                Digital Signature, Key Encipherment
            X509v3 Extended Key Usage: 
                TLS Web Client Authentication, TLS Web Server Authentication
            X509v3 Basic Constraints: critical
                CA:FALSE
            X509v3 Authority Key Identifier: 
                keyid:01:02:03

            Authority Information Access: 
                OCSP - URI:http://theca.net/ocsp
                CA Issuers - URI:http://theca.net/totallythecert.crt

            X509v3 Certificate Policies: 
                0>0<..g.....020...+.......0.0"..+.......0.0..0............a..cd
            X509v3 Subject Key Identifier: 
                04:03:02:01
            X509v3 Subject Alternative Name: 
                DNS:*.gov.us, DNS:gov.us
    Signature Algorithm: sha256WithRSAEncryption
         30:d3:48:11:d6:91:12:93:05:53:eb:83:72:11:94:ac:41:9a:
         fe:83:8f:c1:e2:e6:aa:38:35:cc:a3:94:3b:8f:8c:d8:f6:af:
         5e:ce:a3:0f:89:a4:8a:4e:1f:2d:cc:00:c9:4e:46:f4:bf:e0:
         de:37:9a:04:cb:87:f4:6b:17:dd:70:d8:cc:b0:2c:95:6c:30:
         59:f7:0d:79:60:46:b4:94:aa:a0:fa:d2:be:37:d5:f8:49:3b:
         20:00:5b:e2:65:c1:5b:35:c9:7d:d5:db:08:cb:b9:ad:67:60:
         20:8c:4f:15:55:83:7b:af:0e:3d:4b:95:94:cf:53:a6:72:91:
         6b:d0:72:78:f2:f3:0c:86:42:4c:fa:c5:22:55:41:ae:42:e9:
         cb:8f:72:ec:b8:1e:88:78:9a:92:1e:96:bf:5f:c1:26:25:77:
         4a:c9:ca:2d:f1:2c:c3:58:c9:5c:99:3f:58:e5:05:d9:6e:df:
         38:9d:ba:54:fd:5c:91:c6:8d:c2:d6:b4:82:49:b0:76:9d:7a:
         a9:ea:ad:f9:18:23:cc:3e:98:a7:1e:e0:05:c9:fb:8e:37:d0:
         5d:a2:4f:f5:b1:8e:ff:ca:e5:df:85:00:3a:64:d3:cf:1d:34:
         a1:57:1a:a9:c9:99:b3:65:2c:db:95:06:82:cd:96:68:e1:ef:
         a6:5b:27:e3
-----BEGIN CERTIFICATE-----
MIIElzCCA4GgAwIBAgIFBDFmk+0wCwYJKoZIhvcNAQELMFQxCzAJBgNVBAYTAlVT
MRYwFAYDVQQKEw1Nb3RoZXIgTmF0dXJlMRMwEQYDVQQLEwpFdmVyeXRoaW5nMRYw
FAYDVQQDEw1Nb3RoZXIgTmF0dXJlMQAwHhcNMTYwODI0MjI1MTEzWhcNMTYxMTA1
MjI1MTEzWjCBmzELMAkGA1UEBhMCVVMxGDAWBgNVBAoTD0V4dHJlbWUgRGlzY29y
ZDEOMAwGA1UECxMFQ2hhb3MxFDASBgNVBAcTC1RhbGxhaGFzc2VlMQswCQYDVQQI
EwJGTDEcMBoGA1UECRMTMzIxMCBIb2xseSBNaWxsIFJ1bjEOMAwGA1UEERMFMzAw
NjIxDzANBgNVBAMTBmdvdi51czEAMIIBIjANBgkqhkiG9w0BAQEFAAOCAQ8AMIIB
CgKCAQEAy3/g6S+472MHlzFDpLClRUNYXOGFnCW5SscGf72xkn51LlPWG3/RlSlg
S1db7yP5kPU4/634Angseiu9cw34LkDNTBteQMHDAZplc9r8fIKSRjEvBQ1SM99a
P3Gu9ILdv7tD4RaThjXT+PBY0S6SqHPTumuFw2mRvEVTup4+ovPYZo1YyqjlXUH+
MJCT8EdhhI85ROiksJ4LlQZr07Y3Z6+gMR1NW+KjfDS72Pbac5HiXwOLePCvBaz1
RdJzAkWuwPezkVy2x4jDv/S9loC+OjRmpjO92s2aeSbnG9gBTJTwtE/949vC2ALa
uXqarp9TP+PRJPFRFAGJ72t7CEe01QIDAQABo4IBKjCCASYwDgYDVR0PAQH/BAQD
AgCgMB0GA1UdJQQWMBQGCCsGAQUFBwMCBggrBgEFBQcDATAMBgNVHRMBAf8EAjAA
MA4GA1UdIwQHMAWAAwECAzBiBggrBgEFBQcBAQRWMFQwIQYIKwYBBQUHMAGGFWh0
dHA6Ly90aGVjYS5uZXQvb2NzcDAvBggrBgEFBQcwAoYjaHR0cDovL3RoZWNhLm5l
dC90b3RhbGx5dGhlY2VydC5jcnQwRwYDVR0gBEAwPjA8BgZngQwBAgIwMjAMBggr
BgEFBQcCAzAAMCIGCCsGAQUFBwICMBYwDQAAMAkCAQICAQMCAQMeBWHMgGNkMA0G
A1UdDgQGBAQEAwIBMBsGA1UdEQQUMBKCCCouZ292LnVzggZnb3YudXMwCwYJKoZI
hvcNAQELA4IBAQAw00gR1pESkwVT64NyEZSsQZr+g4/B4uaqODXMo5Q7j4zY9q9e
zqMPiaSKTh8tzADJTkb0v+DeN5oEy4f0axfdcNjMsCyVbDBZ9w15YEa0lKqg+tK+
N9X4STsgAFviZcFbNcl91dsIy7mtZ2AgjE8VVYN7rw49S5WUz1OmcpFr0HJ48vMM
hkJM+sUiVUGuQunLj3LsuB6IeJqSHpa/X8EmJXdKycot8SzDWMlcmT9Y5QXZbt84
nbpU/VyRxo3C1rSCSbB2nXqp6q35GCPMPpinHuAFyfuON9Bdok/1sY7/yuXfhQA6
ZNPPHTShVxqpyZmzZSzblQaCzZZo4e+mWyfj
-----END CERTIFICATE-----
