Certificate:
    Data:
        Version: 3 (0x2)
        Serial Number:
            31:37:37:39:31:38:35:30:36:30:34:31:32:39:38:34
    Signature Algorithm: sha256WithRSAEncryption
        Issuer: CN = gov.us
        Validity
            Not Before: Nov 12 21:27:07 2018 GMT
            Not After : Nov 12 21:27:07 2019 GMT
        Subject: CN = gov.us
        Subject Public Key Info:
            Public Key Algorithm: rsaEncryption
                Public-Key: (2048 bit)
                Modulus:
                    00:bc:53:e1:1a:e4:e6:ec:8c:de:7a:e4:8b:96:4b:
                    ae:46:57:6f:2c:6a:9c:00:bb:fd:63:4b:c0:af:91:
                    77:7a:a7:7a:86:9b:af:3e:37:3b:55:2b:43:62:d2:
                    76:56:d0:3d:9d:b1:93:d5:b7:cb:77:b5:af:37:2a:
                    e3:7f:04:db:f2:47:ba:ec:ed:f3:8b:87:7a:f7:13:
                    4c:d6:d8:c5:04:01:00:d8:49:f0:74:ae:85:d3:e6:
                    b7:62:f3:ea:43:93:1b:ae:1d:b2:7c:4f:44:88:bd:
                    aa:07:d2:4e:23:90:53:bb:21:22:11:35:cb:1e:a6:
                    9e:32:67:e1:28:28:ea:26:ee:64:c3:ea:bd:58:85:
                    bc:63:a4:25:c0:22:c0:7e:9a:cb:60:c7:d3:4f:6d:
                    b8:ef:8d:a5:ac:de:35:3a:9e:d5:5e:36:97:1e:42:
                    bb:2b:31:9d:8d:16:98:ee:39:49:fa:b7:e4:76:eb:
                    9b:5d:95:bc:eb:49:ed:5d:9c:4b:51:0b:17:84:0b:
                    c9:e8:6d:98:36:ef:1a:f8:1b:b7:91:72:bb:69:f8:
                    87:3e:9d:76:c4:91:76:27:56:6c:9c:f1:25:75:9c:
                    80:f7:a4:39:73:48:29:cb:ef:01:8b:5e:7d:1b:bd:
                    17:26:b7:31:2e:9a:51:54:5a:f2:6f:7e:98:e2:f9:
                    95:ef
                Exponent: 65537 (0x10001)
        X509v3 extensions:
            X509v3 Certificate Policies: 
                Policy: 1.3.6.1.4.1.21528.2.1.1.59.2.2
                  User Notice:
                    Explicit Text: 

    Signature Algorithm: sha256WithRSAEncryption
         7c:a7:12:50:3a:bb:26:2c:ef:cc:70:e9:9c:c0:c5:9c:13:49:
         b4:a6:e2:ff:56:1e:b4:d7:6f:e2:53:38:48:6c:25:c5:31:f1:
         93:47:64:52:2b:d6:a3:bb:c7:3f:83:c4:b8:26:b9:b3:5f:68:
         6d:55:30:78:67:fa:f9:e5:be:56:56:d1:c3:fc:e0:ec:b2:d1:
         ae:48:fe:00:da:c0:bb:58:43:29:77:04:50:9d:6b:00:84:f2:
         a5:ad:e3:80:c4:18:f3:c4:6e:46:37:12:76:48:ca:81:0d:49:
         ec:4c:e9:5f:27:be:0c:4b:12:71:75:20:cb:62:06:e9:a0:38:
         ce:85:bc:aa:9e:48:74:5b:3c:15:50:aa:65:f7:01:f8:1f:69:
         34:a6:ab:49:f0:71:61:06:20:05:2c:0d:02:51:df:cc:11:80:
         ee:ef:22:04:a0:03:85:08:4e:b3:08:fb:2f:76:92:c5:ce:a4:
         dc:b6:ef:69:06:ff:40:44:f3:bc:bd:a1:0f:c5:27:88:84:d4:
         fc:a1:82:b9:d6:f0:c6:f4:f0:db:e0:a4:1c:da:70:e6:ac:df:
         60:ad:19:3d:cd:11:8b:c6:82:b4:f0:8c:e9:62:73:9b:81:7e:
         54:4f:03:a5:fb:f7:a1:e7:ca:dc:f1:c1:43:42:e1:2a:22:8e:
         67:4b:3b:e6
-----BEGIN CERTIFICATE-----
MIIERTCCAy2gAwIBAgIQMTc3OTE4NTA2MDQxMjk4NDANBgkqhkiG9w0BAQsFADARMQ8wDQYDVQQDEwZnb3YudXMwHhcNMTgxMTEyMjEyNzA3WhcNMTkxMTEyMjEyNzA3WjARMQ8wDQYDVQQDEwZnb3YudXMwggEiMA0GCSqGSIb3DQEBAQUAA4IBDwAwggEKAoIBAQC8U+Ea5ObsjN565IuWS65GV28sapwAu/1jS8CvkXd6p3qGm68+NztVK0Ni0nZW0D2dsZPVt8t3ta83KuN/BNvyR7rs7fOLh3r3E0zW2MUEAQDYSfB0roXT5rdi8+pDkxuuHbJ8T0SIvaoH0k4jkFO7ISIRNcsepp4yZ+EoKOom7mTD6r1YhbxjpCXAIsB+mstgx9NPbbjvjaWs3jU6ntVeNpceQrsrMZ2NFpjuOUn6t+R265tdlbzrSe1dnEtRCxeEC8nobZg27xr4G7eRcrtp+Ic+nXbEkXYnVmyc8SV1nID3pDlzSCnL7wGLXn0bvRcmtzEumlFUWvJvfpji+ZXvAgMBAAGjggGXMIIBkzCCAY8GA1UdIASCAYYwggGCMIIBfgYOKwYBBAGBqBgCAQE7AgIwggFqMIIBZgYIKwYBBQUHAgIwggFYHoIBVABOAGUAbQAgAG0AaQBuAVEAcwDtAHQAZQB0AHQALAAgAHMAegBlAHIAdgBlAHoAZQB0AC0AZQBsAGwAZQBuAVEAcgB6APYAdAB0ACAAdwBlAGIAcwB6AGUAcgB2AGUAcgAgAHQAYQBuAPoAcwDtAHQAdgDhAG4AeQAsACAAMwAuACAAaABpAHQAZQBsAGUAcwDtAHQA6QBzAGkAIABvAHMAegB0AOEAbAB5ACwAIAByAGUAZwBpAHMAegB0AHIA4QBjAGkA8wBrAG8AcgAgAGEAIABzAHoAZQBtAOkAbAB5AGUAcwAgAG0AZQBnAGoAZQBsAGUAbgDpAHMAIABrAPYAdABlAGwAZQB6AVEALgAgAEEAIAB0AGEAbgD6AHMA7QB0AHYA4QBuAHkAIABpAGcA6QBuAHkAbAFRAGoAZQAgAHMAegBlAHIAdgBlAHoAZQB0AC4wDQYJKoZIhvcNAQELBQADggEBAHynElA6uyYs78xw6ZzAxZwTSbSm4v9WHrTXb+JTOEhsJcUx8ZNHZFIr1qO7xz+DxLgmubNfaG1VMHhn+vnlvlZW0cP84Oyy0a5I/gDawLtYQyl3BFCdawCE8qWt44DEGPPEbkY3EnZIyoENSexM6V8nvgxLEnF1IMtiBumgOM6FvKqeSHRbPBVQqmX3AfgfaTSmq0nwcWEGIAUsDQJR38wRgO7vIgSgA4UITrMI+y92ksXOpNy272kG/0BE87y9oQ/FJ4iE1PyhgrnW8Mb08NvgpBzacOas32CtGT3NEYvGgrTwjOlic5uBflRPA6X796HnytzxwUNC4SoijmdLO+Y=
-----END CERTIFICATE-----
