Certificate:
    Data:
        Version: 3 (0x2)
        Serial Number: 18008675309 (0x4316693ed)
    Signature Algorithm: sha256WithRSAEncryption
        Issuer: C = US, O = Mother Nature, OU = Everything, CN = Mother Nature
        Validity
            Not Before: Aug 24 22:01:29 2016 GMT
            Not After : Nov  5 22:01:29 2016 GMT
        Subject: C = US, O = Extreme Discord, OU = Chaos, L = Tallahassee, ST = FL, street = 3210 Holly Mill Run, postalCode = 30062, CN = gov.us
        Subject Public Key Info:
            Public Key Algorithm: rsaEncryption
                Public-Key: (2048 bit)
                Modulus:
                    00:cb:81:3e:46:90:e6:f1:92:08:5f:ac:f0:36:f9:
                    03:c6:64:3a:6b:3d:12:05:74:35:6e:1c:89:29:3c:
                    1b:d6:d1:c1:7c:12:ea:6e:84:72:9f:3f:98:41:fa:
                    26:17:cc:38:4c:86:7a:e7:b8:50:19:11:51:e9:04:
                    59:59:d5:c0:2d:b4:a7:ac:32:76:79:2f:92:c9:4c:
                    58:2b:e1:39:54:2c:07:5c:e6:c4:43:94:03:a2:a3:
                    1b:1d:94:9e:de:66:10:15:9a:9f:3b:89:ba:3f:f9:
                    bb:13:65:26:6c:3d:4b:25:9a:2e:24:34:74:b9:26:
                    4f:a4:3e:a5:28:cb:4a:9c:1f:48:b7:52:78:9e:77:
                    6d:c9:4d:2b:64:bd:6f:f4:93:b5:4b:7b:e3:44:57:
                    d0:90:9e:1e:97:c3:60:62:86:82:5b:27:70:15:71:
                    6f:84:32:45:1f:87:72:a7:50:d2:09:ef:98:9a:0f:
                    f2:30:62:f3:ce:0b:cd:94:ce:49:5d:9b:78:60:48:
                    71:e7:44:c9:41:af:aa:7e:63:66:07:45:53:4e:80:
                    77:b3:31:a8:58:5c:9a:a1:e4:e4:4b:40:c5:d8:33:
                    2a:27:b4:db:2f:d3:93:62:fd:a6:2d:05:33:61:8f:
                    85:d4:8d:87:ef:c1:03:83:e7:f4:00:43:89:51:cc:
                    70:bd
                Exponent: 65537 (0x10001)
        X509v3 extensions:
            X509v3 Key Usage: critical
                Digital Signature, Key Encipherment
            X509v3 Extended Key Usage: 
                TLS Web Client Authentication, TLS Web Server Authentication
            X509v3 Basic Constraints: critical
                CA:FALSE
            X509v3 Authority Key Identifier: 
                keyid:01:02:03

            Authority Information Access: 
                OCSP - URI:http://theca.net/ocsp
                CA Issuers - URI:http://theca.net/totallythecert.crt

            X509v3 Certificate Policies: 
                0>0<..g.....020...+.......0.0"..+.......0.0..0............a..cd
            X509v3 Subject Key Identifier: 
                04:03:02:01
            X509v3 Subject Alternative Name: 
                DNS:*.gov.us, DNS:gov.us
    Signature Algorithm: sha256WithRSAEncryption
         7c:c4:c6:b9:69:d2:bb:98:57:a8:54:f1:92:78:a7:8a:56:4a:
         5e:2c:fb:f9:56:3b:83:b6:d6:a8:52:61:b6:0a:ad:a7:b9:b5:
         43:d3:a7:3d:87:f1:6a:e2:c4:1c:5d:73:62:00:7f:ff:76:bf:
         bf:ae:65:cd:57:16:fd:70:0a:8b:57:4b:2f:49:75:c0:66:aa:
         30:12:e2:e3:7b:41:12:7b:e9:bc:41:52:d1:36:ae:28:9f:ff:
         d2:79:4e:fe:0d:8d:68:df:7e:e2:0f:0e:28:18:e8:dc:66:20:
         ff:c2:47:d1:58:73:71:44:60:fa:cb:70:66:88:35:e3:33:86:
         7e:5f:b5:99:37:69:3a:47:67:28:ff:34:2e:0e:1c:7d:05:59:
         9f:d9:59:27:e2:42:48:02:8c:c6:86:b7:87:f8:47:4a:22:76:
         74:85:55:b7:35:97:27:43:a2:f0:a5:00:64:c8:ae:9e:43:7c:
         09:b7:16:3d:43:d8:d4:de:eb:33:ce:93:85:18:35:6e:20:07:
         aa:a4:1b:d2:2c:b8:04:2b:58:67:da:11:5c:75:07:bc:47:0e:
         ee:2a:48:01:8a:71:f5:c0:4a:40:48:87:bf:7b:50:2b:85:26:
         05:da:4a:1f:b4:d7:a0:98:3a:a8:fb:cd:79:69:72:63:18:b4:
         d2:4b:66:e5
-----BEGIN CERTIFICATE-----
MIIElzCCA4GgAwIBAgIFBDFmk+0wCwYJKoZIhvcNAQELMFQxCzAJBgNVBAYTAlVT
MRYwFAYDVQQKEw1Nb3RoZXIgTmF0dXJlMRMwEQYDVQQLEwpFdmVyeXRoaW5nMRYw
FAYDVQQDEw1Nb3RoZXIgTmF0dXJlMQAwHhcNMTYwODI0MjIwMTI5WhcNMTYxMTA1
MjIwMTI5WjCBmzELMAkGA1UEBhMCVVMxGDAWBgNVBAoTD0V4dHJlbWUgRGlzY29y
ZDEOMAwGA1UECxMFQ2hhb3MxFDASBgNVBAcTC1RhbGxhaGFzc2VlMQswCQYDVQQI
EwJGTDEcMBoGA1UECRMTMzIxMCBIb2xseSBNaWxsIFJ1bjEOMAwGA1UEERMFMzAw
NjIxDzANBgNVBAMTBmdvdi51czEAMIIBIjANBgkqhkiG9w0BAQEFAAOCAQ8AMIIB
CgKCAQEAy4E+RpDm8ZIIX6zwNvkDxmQ6az0SBXQ1bhyJKTwb1tHBfBLqboRynz+Y
QfomF8w4TIZ657hQGRFR6QRZWdXALbSnrDJ2eS+SyUxYK+E5VCwHXObEQ5QDoqMb
HZSe3mYQFZqfO4m6P/m7E2UmbD1LJZouJDR0uSZPpD6lKMtKnB9It1J4nndtyU0r
ZL1v9JO1S3vjRFfQkJ4el8NgYoaCWydwFXFvhDJFH4dyp1DSCe+Ymg/yMGLzzgvN
lM5JXZt4YEhx50TJQa+qfmNmB0VTToB3szGoWFyaoeTkS0DF2DMqJ7TbL9OTYv2m
LQUzYY+F1I2H78EDg+f0AEOJUcxwvQIDAQABo4IBKjCCASYwDgYDVR0PAQH/BAQD
AgCgMB0GA1UdJQQWMBQGCCsGAQUFBwMCBggrBgEFBQcDATAMBgNVHRMBAf8EAjAA
MA4GA1UdIwQHMAWAAwECAzBiBggrBgEFBQcBAQRWMFQwIQYIKwYBBQUHMAGGFWh0
dHA6Ly90aGVjYS5uZXQvb2NzcDAvBggrBgEFBQcwAoYjaHR0cDovL3RoZWNhLm5l
dC90b3RhbGx5dGhlY2VydC5jcnQwRwYDVR0gBEAwPjA8BgZngQwBAgIwMjAMBggr
BgEFBQcCAzAAMCIGCCsGAQUFBwICMBYwDQAAMAkCAQICAQMCAQMMBWHMgGNkMA0G
A1UdDgQGBAQEAwIBMBsGA1UdEQQUMBKCCCouZ292LnVzggZnb3YudXMwCwYJKoZI
hvcNAQELA4IBAQB8xMa5adK7mFeoVPGSeKeKVkpeLPv5VjuDttaoUmG2Cq2nubVD
06c9h/Fq4sQcXXNiAH//dr+/rmXNVxb9cAqLV0svSXXAZqowEuLje0ESe+m8QVLR
Nq4on//SeU7+DY1o337iDw4oGOjcZiD/wkfRWHNxRGD6y3BmiDXjM4Z+X7WZN2k6
R2co/zQuDhx9BVmf2Vkn4kJIAozGhreH+EdKInZ0hVW3NZcnQ6LwpQBkyK6eQ3wJ
txY9Q9jU3uszzpOFGDVuIAeqpBvSLLgEK1hn2hFcdQe8Rw7uKkgBinH1wEpASIe/
e1ArhSYF2koftNegmDqo+815aXJjGLTSS2bl
-----END CERTIFICATE-----
