Certificate:
    Data:
        Version: 3 (0x2)
        Serial Number: 18008675309 (0x4316693ed)
    Signature Algorithm: sha256WithRSAEncryption
        Issuer: C = US, O = Mother Nature, OU = Everything, CN = Mother Nature
        Validity
            Not Before: Aug 24 22:52:39 2016 GMT
            Not After : Nov  5 22:52:39 2016 GMT
        Subject: C = US, O = Extreme Discord, OU = Chaos, L = Tallahassee, ST = FL, street = 3210 Holly Mill Run, postalCode = 30062, CN = gov.us
        Subject Public Key Info:
            Public Key Algorithm: rsaEncryption
                Public-Key: (2048 bit)
                Modulus:
                    00:dc:b0:4e:bd:c4:35:db:bd:c2:39:20:c6:7d:c6:
                    53:bc:86:3a:95:84:0b:58:a6:fc:d4:78:b5:bc:6a:
                    a8:dd:03:df:e0:53:91:74:af:63:78:04:5b:f8:a5:
                    60:22:e2:8c:ee:75:86:fe:67:7f:60:e3:fb:ee:e0:
                    57:e9:f4:65:01:8c:18:15:fa:f1:bc:3d:5c:f9:dd:
                    61:32:d8:2b:89:4b:90:bd:07:9a:72:65:32:3c:ef:
                    ae:c9:94:38:e3:31:2d:fa:46:8d:e9:4a:90:d2:54:
                    28:09:72:cb:0f:2f:5b:6c:07:a0:ee:0c:75:fc:fc:
                    8e:e2:30:5a:6c:bd:52:ca:97:c2:ff:4c:9b:a6:b5:
                    af:d6:ec:13:9a:80:95:83:76:c9:e3:f9:27:da:8d:
                    f6:e3:75:eb:8c:d9:dd:dc:da:e7:e0:23:a4:c6:33:
                    25:59:49:2d:fd:b5:cf:dc:e7:67:4c:b0:1f:48:05:
                    30:10:b5:40:cb:69:27:6e:88:87:36:dc:3e:d1:bf:
                    e3:54:3c:c3:89:7e:b3:19:cb:db:42:a6:5e:e9:b8:
                    ec:64:40:d5:93:eb:b6:b9:75:75:80:d7:1d:48:4b:
                    60:6a:df:ac:c2:54:dd:c9:ca:cc:4e:f2:e9:f8:bd:
                    ca:73:04:d2:db:ca:6d:1d:de:52:dc:58:c3:72:44:
                    90:b5
                Exponent: 65537 (0x10001)
        X509v3 extensions:
            X509v3 Key Usage: critical
                Digital Signature, Key Encipherment
            X509v3 Extended Key Usage: 
                TLS Web Client Authentication, TLS Web Server Authentication
            X509v3 Basic Constraints: critical
                CA:FALSE
            X509v3 Authority Key Identifier: 
                keyid:01:02:03

            Authority Information Access: 
                OCSP - URI:http://theca.net/ocsp
                CA Issuers - URI:http://theca.net/totallythecert.crt

            X509v3 Certificate Policies: 
                0;09..g.....0/0...+.......0.0...+.......0.0..0..............
            X509v3 Subject Key Identifier: 
                04:03:02:01
            X509v3 Subject Alternative Name: 
                DNS:*.gov.us, DNS:gov.us
    Signature Algorithm: sha256WithRSAEncryption
         8e:b7:60:e7:da:01:61:b1:00:d4:2b:d9:bf:77:fc:18:f4:30:
         ad:f0:49:dc:4c:ab:b5:09:8b:16:44:1b:34:c2:fe:2f:79:59:
         86:91:a6:86:4c:09:b3:52:04:a0:97:1c:2c:0d:ff:42:24:48:
         d4:b1:66:23:28:cf:ba:ea:e6:30:5a:d3:bc:f7:c6:f3:1c:5b:
         15:82:79:12:7b:d3:fc:72:f4:70:0f:1e:1e:cc:49:80:55:52:
         63:08:89:78:3b:ad:54:05:17:68:60:ed:f1:74:4b:3d:c1:c7:
         f3:dc:d5:ad:cd:f0:71:a1:4d:b9:4e:74:07:86:44:ee:1f:28:
         b5:3a:25:5c:f2:8c:c2:a9:2f:93:c9:08:3b:e5:3f:45:d6:69:
         76:01:43:d7:07:bb:a8:53:d0:d3:06:fd:fd:d1:c8:c3:8b:3e:
         b6:d0:77:06:40:a0:6e:f7:da:0e:f7:e6:45:45:cf:d9:76:ca:
         32:b6:91:b0:d8:be:b3:f0:73:cd:73:02:73:e7:9f:ba:d1:68:
         be:90:d0:64:24:29:53:5a:60:fa:f4:a2:e0:4b:a5:46:ec:b8:
         36:61:9e:35:f5:b7:a9:d1:c4:e3:79:22:32:b3:39:87:a5:e4:
         d7:44:40:e4:43:33:a2:5a:7e:4d:a6:2d:ec:09:f4:cf:7d:bb:
         18:ed:0a:2e
-----BEGIN CERTIFICATE-----
MIIElDCCA36gAwIBAgIFBDFmk+0wCwYJKoZIhvcNAQELMFQxCzAJBgNVBAYTAlVT
MRYwFAYDVQQKEw1Nb3RoZXIgTmF0dXJlMRMwEQYDVQQLEwpFdmVyeXRoaW5nMRYw
FAYDVQQDEw1Nb3RoZXIgTmF0dXJlMQAwHhcNMTYwODI0MjI1MjM5WhcNMTYxMTA1
MjI1MjM5WjCBmzELMAkGA1UEBhMCVVMxGDAWBgNVBAoTD0V4dHJlbWUgRGlzY29y
ZDEOMAwGA1UECxMFQ2hhb3MxFDASBgNVBAcTC1RhbGxhaGFzc2VlMQswCQYDVQQI
EwJGTDEcMBoGA1UECRMTMzIxMCBIb2xseSBNaWxsIFJ1bjEOMAwGA1UEERMFMzAw
NjIxDzANBgNVBAMTBmdvdi51czEAMIIBIjANBgkqhkiG9w0BAQEFAAOCAQ8AMIIB
CgKCAQEA3LBOvcQ1273COSDGfcZTvIY6lYQLWKb81Hi1vGqo3QPf4FORdK9jeARb
+KVgIuKM7nWG/md/YOP77uBX6fRlAYwYFfrxvD1c+d1hMtgriUuQvQeacmUyPO+u
yZQ44zEt+kaN6UqQ0lQoCXLLDy9bbAeg7gx1/PyO4jBabL1SypfC/0ybprWv1uwT
moCVg3bJ4/kn2o3243XrjNnd3Nrn4COkxjMlWUkt/bXP3OdnTLAfSAUwELVAy2kn
boiHNtw+0b/jVDzDiX6zGcvbQqZe6bjsZEDVk+u2uXV1gNcdSEtgat+swlTdycrM
TvLp+L3KcwTS28ptHd5S3FjDckSQtQIDAQABo4IBJzCCASMwDgYDVR0PAQH/BAQD
AgCgMB0GA1UdJQQWMBQGCCsGAQUFBwMCBggrBgEFBQcDATAMBgNVHRMBAf8EAjAA
MA4GA1UdIwQHMAWAAwECAzBiBggrBgEFBQcBAQRWMFQwIQYIKwYBBQUHMAGGFWh0
dHA6Ly90aGVjYS5uZXQvb2NzcDAvBggrBgEFBQcwAoYjaHR0cDovL3RoZWNhLm5l
dC90b3RhbGx5dGhlY2VydC5jcnQwRAYDVR0gBD0wOzA5BgZngQwBAgIwLzAMBggr
BgEFBQcCAzAAMB8GCCsGAQUFBwICMBMwDQAAMAkCAQICAQMCAQMeAsOAMA0GA1Ud
DgQGBAQEAwIBMBsGA1UdEQQUMBKCCCouZ292LnVzggZnb3YudXMwCwYJKoZIhvcN
AQELA4IBAQCOt2Dn2gFhsQDUK9m/d/wY9DCt8EncTKu1CYsWRBs0wv4veVmGkaaG
TAmzUgSglxwsDf9CJEjUsWYjKM+66uYwWtO898bzHFsVgnkSe9P8cvRwDx4ezEmA
VVJjCIl4O61UBRdoYO3xdEs9wcfz3NWtzfBxoU25TnQHhkTuHyi1OiVc8ozCqS+T
yQg75T9F1ml2AUPXB7uoU9DTBv390cjDiz620HcGQKBu99oO9+ZFRc/ZdsoytpGw
2L6z8HPNcwJz55+60Wi+kNBkJClTWmD69KLgS6VG7Lg2YZ419bep0cTjeSIyszmH
peTXREDkQzOiWn5Npi3sCfTPfbsY7Qou
-----END CERTIFICATE-----
