Certificate:
    Data:
        Version: 3 (0x2)
        Serial Number: 18008675309 (0x4316693ed)
    Signature Algorithm: sha256WithRSAEncryption
        Issuer: C = US, O = Mother Nature, OU = Everything, CN = Mother Nature
        Validity
            Not Before: Jun 30 17:32:25 2016 GMT
            Not After : Sep 11 17:32:25 2016 GMT
        Subject: C = US, ST = FL, L = Tallahassee, street = 3210 Holly Mill Run, postalCode = 30062, O = Extreme Discord, OU = Chaos, CN = gov.us
        Subject Public Key Info:
            Public Key Algorithm: rsaEncryption
                Public-Key: (2048 bit)
                Modulus:
                    00:ae:44:0d:1b:4d:3f:2a:2a:09:03:f0:e6:09:35:
                    f4:61:d1:65:c8:67:ee:5f:61:98:fa:14:91:11:fb:
                    83:c6:ae:5b:a0:41:b9:d6:c5:f6:4a:41:15:54:ce:
                    c1:3e:22:68:7e:89:24:2d:0b:81:38:cc:7d:74:8e:
                    27:cd:89:77:15:2d:99:45:f8:47:f7:3d:7a:9f:79:
                    c4:ee:59:2c:f3:23:08:46:65:b9:79:2c:fa:61:91:
                    de:f5:db:39:4f:2c:8e:7d:89:d5:37:6d:60:7e:54:
                    6b:17:3e:e2:b9:85:be:45:9c:b7:8e:c0:c2:a3:00:
                    2d:92:3e:7b:e3:03:4d:23:49:11:e5:69:a0:e2:bc:
                    27:b2:93:5d:48:d2:c3:be:37:34:ee:31:d2:bd:ae:
                    8c:1f:92:7a:2e:83:09:b7:29:a6:e6:50:d6:56:c7:
                    41:6b:bc:34:e3:ea:79:78:3a:98:1a:31:de:fc:2d:
                    4a:d7:4f:07:af:dc:ce:7c:f0:79:6f:d3:d3:47:d1:
                    1d:ef:75:14:01:f7:63:6a:34:6f:59:dc:e5:44:82:
                    92:2b:e2:3d:01:e1:ce:fe:21:74:d7:a5:22:04:2d:
                    1a:3f:20:7d:1c:d7:ce:63:9d:bc:ea:ca:8a:44:31:
                    03:1e:68:84:49:c0:79:52:1c:69:9e:81:28:8f:34:
                    78:07
                Exponent: 65537 (0x10001)
        X509v3 extensions:
            X509v3 Key Usage: critical
                Digital Signature, Key Encipherment
            X509v3 Extended Key Usage: 
                TLS Web Client Authentication, TLS Web Server Authentication
            X509v3 Basic Constraints: critical
                CA:FALSE
            X509v3 Authority Key Identifier: 
                keyid:01:02:03

            Authority Information Access: 
                OCSP - URI:http://theca.net/ocsp
                CA Issuers - URI:http://theca.net/totallythecert.crt

            X509v3 Certificate Policies: 
                Policy: 1.3.6.1.5.5.7.13.1
                Policy: 2.23.140.1.2.2
                Policy: 1.3.6.1.5.5.7.13.1

            2.5.29.48.48.48.56: 
                0...allthethings.net..theca.net
            X509v3 Subject Alternative Name: 
                DNS:*.gov.us, DNS:gov.us
            2.5.29.48.48.48.56: 
                0...allthethings.net..theca.net
    Signature Algorithm: sha256WithRSAEncryption
         8c:9b:be:6c:35:25:a4:56:ab:35:3d:59:c5:78:06:40:3a:6f:
         e4:ee:a7:02:9e:9c:0b:b8:e3:00:9a:61:6a:93:42:30:a3:f3:
         3a:8e:6d:92:2a:4c:31:a1:29:9b:ba:68:fa:40:6e:85:e5:72:
         74:8a:94:a5:05:c1:7c:ca:af:7e:ce:11:ec:4a:53:74:41:da:
         03:fa:bc:76:68:da:9b:80:0a:49:3a:d4:34:cf:ea:4c:a2:96:
         f4:a6:b9:01:94:75:49:07:6a:7b:1e:e8:b3:33:e0:1a:c4:17:
         95:a5:ed:0e:f1:a7:6e:20:80:da:0a:78:eb:63:1d:af:5c:1f:
         a0:aa:d7:a7:22:d3:c6:a9:05:20:1c:6a:2e:75:6d:36:4d:46:
         ae:bc:3f:31:66:18:5d:46:18:ec:f5:37:d0:f1:43:87:b1:79:
         8e:05:d5:4d:9c:9e:d9:7c:65:c8:aa:c5:dd:b6:f6:c0:7e:c6:
         40:78:42:91:36:fd:81:04:bd:86:4e:dc:b9:28:de:2c:ae:6e:
         66:b7:c6:b6:6f:eb:f2:fa:b9:4d:8e:c4:ba:ef:40:59:64:4f:
         ba:a8:ae:28:4e:f3:97:12:c6:70:ba:d5:49:c1:b9:cc:d1:86:
         e1:c0:90:c3:8b:c9:6d:f3:a6:77:02:31:4a:d7:0c:3e:ca:1a:
         c1:00:43:de
-----BEGIN CERTIFICATE-----
MIIEwjCCA6qgAwIBAgIFBDFmk+0wDQYJKoZIhvcNAQELBQAwUjELMAkGA1UEBhMC
VVMxFjAUBgNVBAoTDU1vdGhlciBOYXR1cmUxEzARBgNVBAsTCkV2ZXJ5dGhpbmcx
FjAUBgNVBAMTDU1vdGhlciBOYXR1cmUwHhcNMTYwNjMwMTczMjI1WhcNMTYwOTEx
MTczMjI1WjCBmTELMAkGA1UEBhMCVVMxCzAJBgNVBAgTAkZMMRQwEgYDVQQHEwtU
YWxsYWhhc3NlZTEcMBoGA1UECRMTMzIxMCBIb2xseSBNaWxsIFJ1bjEOMAwGA1UE
ERMFMzAwNjIxGDAWBgNVBAoTD0V4dHJlbWUgRGlzY29yZDEOMAwGA1UECxMFQ2hh
b3MxDzANBgNVBAMTBmdvdi51czCCASIwDQYJKoZIhvcNAQEBBQADggEPADCCAQoC
ggEBAK5EDRtNPyoqCQPw5gk19GHRZchn7l9hmPoUkRH7g8auW6BBudbF9kpBFVTO
wT4iaH6JJC0LgTjMfXSOJ82JdxUtmUX4R/c9ep95xO5ZLPMjCEZluXks+mGR3vXb
OU8sjn2J1TdtYH5Uaxc+4rmFvkWct47AwqMALZI+e+MDTSNJEeVpoOK8J7KTXUjS
w743NO4x0r2ujB+Sei6DCbcppuZQ1lbHQWu8NOPqeXg6mBox3vwtStdPB6/cznzw
eW/T00fRHe91FAH3Y2o0b1nc5USCkiviPQHhzv4hdNelIgQtGj8gfRzXzmOdvOrK
ikQxAx5ohEnAeVIcaZ6BKI80eAcCAwEAAaOCAVUwggFRMA4GA1UdDwEB/wQEAwIF
oDAdBgNVHSUEFjAUBggrBgEFBQcDAgYIKwYBBQUHAwEwDAYDVR0TAQH/BAIwADAO
BgNVHSMEBzAFgAMBAgMwYgYIKwYBBQUHAQEEVjBUMCEGCCsGAQUFBzABhhVodHRw
Oi8vdGhlY2EubmV0L29jc3AwLwYIKwYBBQUHMAKGI2h0dHA6Ly90aGVjYS5uZXQv
dG90YWxseXRoZWNlcnQuY3J0MCsGA1UdIAQkMCIwCgYIKwYBBQUHDQEwCAYGZ4EM
AQICMAoGCCsGAQUFBw0BMCkGBlUdMDAwOAQfMB2CEGFsbHRoZXRoaW5ncy5uZXSC
CXRoZWNhLm5ldDAbBgNVHREEFDASgggqLmdvdi51c4IGZ292LnVzMCkGBlUdMDAw
OAQfMB2CEGFsbHRoZXRoaW5ncy5uZXSCCXRoZWNhLm5ldDANBgkqhkiG9w0BAQsF
AAOCAQEAjJu+bDUlpFarNT1ZxXgGQDpv5O6nAp6cC7jjAJphapNCMKPzOo5tkipM
MaEpm7po+kBuheVydIqUpQXBfMqvfs4R7EpTdEHaA/q8dmjam4AKSTrUNM/qTKKW
9Ka5AZR1SQdqex7oszPgGsQXlaXtDvGnbiCA2gp462Mdr1wfoKrXpyLTxqkFIBxq
LnVtNk1Grrw/MWYYXUYY7PU30PFDh7F5jgXVTZye2XxlyKrF3bb2wH7GQHhCkTb9
gQS9hk7cuSjeLK5uZrfGtm/r8vq5TY7Euu9AWWRPuqiuKE7zlxLGcLrVScG5zNGG
4cCQw4vJbfOmdwIxStcMPsoawQBD3g==
-----END CERTIFICATE-----
