Certificate:
    Data:
        Version: 3 (0x2)
        Serial Number: 18008675309 (0x4316693ed)
    Signature Algorithm: sha256WithRSAEncryption
        Issuer: C = US, O = Mother Nature, OU = Everything, CN = Mother Nature
        Validity
            Not Before: Dec  1 06:07:08 2055 GMT
            Not After : Aug 25 01:14:02 2056 GMT
        Subject: C = US, O = Extreme Discord, OU = Chaos, L = Tallahassee, ST = FL, street = 3210 Holly Mill Run, postalCode = 30062, CN = gov.us
        Subject Public Key Info:
            Public Key Algorithm: rsaEncryption
                Public-Key: (512 bit)
                Modulus:
                    00:d4:43:49:91:8f:86:26:1b:48:bb:8f:e8:9d:a3:
                    7a:56:ad:c7:e6:ea:c0:a5:ae:4c:93:74:d9:80:52:
                    50:51:27:fe:eb:25:c3:57:28:d2:04:69:e8:2a:c7:
                    cb:cb:23:da:1b:8c:c3:47:b3:cc:2d:1c:b1:95:09:
                    03:95:5a:1b:75
                Exponent: 65537 (0x10001)
        X509v3 extensions:
            X509v3 Key Usage: critical
                Digital Signature, Key Encipherment, Certificate Sign
            X509v3 Extended Key Usage: 
                TLS Web Client Authentication, TLS Web Server Authentication
            X509v3 Basic Constraints: critical
                CA:TRUE
            X509v3 Authority Key Identifier: 
                keyid:01:02:03

            X509v3 Certificate Policies: 
                Policy: 2.23.140.1.2.2
                Policy: 1.2.3.4.5

            X509v3 Name Constraints: 
                Permitted:
                  DNS:example.com
                  DNS:test.com
                  IP:192.168.1.1/1.2.3.4
                Excluded:
                  DNS:banned.com

            X509v3 CRL Distribution Points: 

                Full Name:
                  URI:thatswhy

            X509v3 Subject Key Identifier: 
                04:03:02:01
            X509v3 Subject Alternative Name: 
                DNS:gov.us, DNS:ˬ
            X509v3 Inhibit Any Policy: 
                ..
            Subject Information Access: 
                ..
            Authority Information Access: critical
                OCSP - DNS:theca.net/ocsp

            X509v3 Freshest CRL: critical
                ..
    Signature Algorithm: sha256WithRSAEncryption
         14:9b:f7:1e:1e:ef:dc:31:b5:57:74:60:2d:47:ab:27:29:1b:
         d9:07:fa:0b:3b:e6:21:51:02:b0:92:bd:4c:3a:35:aa:c9:63:
         b7:80:e7:bf:dc:d9:2d:32:e5:4f:25:89:76:54:41:f5:ec:af:
         34:9f:b5:3a:e3:68:70:c4:3a:5f
-----BEGIN CERTIFICATE-----
MIIDNTCCAuGgAwIBAgIFBDFmk+0wCwYJKoZIhvcNAQELMFQxCzAJBgNVBAYTAlVT
MRYwFAYDVQQKEw1Nb3RoZXIgTmF0dXJlMRMwEQYDVQQLEwpFdmVyeXRoaW5nMRYw
FAYDVQQDEw1Nb3RoZXIgTmF0dXJlMQAwIhgPMjA1NTEyMDEwNjA3MDhaGA8yMDU2
MDgyNTAxMTQwMlowgZsxCzAJBgNVBAYTAlVTMRgwFgYDVQQKEw9FeHRyZW1lIERp
c2NvcmQxDjAMBgNVBAsTBUNoYW9zMRQwEgYDVQQHEwtUYWxsYWhhc3NlZTELMAkG
A1UECBMCRkwxHDAaBgNVBAkTEzMyMTAgSG9sbHkgTWlsbCBSdW4xDjAMBgNVBBET
BTMwMDYyMQ8wDQYDVQQDEwZnb3YudXMxADBcMA0GCSqGSIb3DQEBAQUAA0sAMEgC
QQDUQ0mRj4YmG0i7j+ido3pWrcfm6sClrkyTdNmAUlBRJ/7rJcNXKNIEaegqx8vL
I9objMNHs8wtHLGVCQOVWht1AgMBAAGjggFOMIIBSjAOBgNVHQ8BAf8EBAMCAKQw
HQYDVR0lBBYwFAYIKwYBBQUHAwIGCCsGAQUFBwMBMA8GA1UdEwEB/wQFMAMBAf8w
DgYDVR0jBAcwBYADAQIDMBsGA1UdIAQUMBIwCAYGZ4EMAQICMAYGBCoDBAUwQgYD
VR0eBDswOaAnMA2CC2V4YW1wbGUuY29tMAqCCHRlc3QuY29tMAqHCMCoAQEBAgME
oQ4wDIIKYmFubmVkLmNvbTAZBgNVHR8EEjAQMA6gDKAKhgh0aGF0c3doeTANBgNV
HQ4EBgQEBAMCATAVBgNVHREEDjAMggZnb3YudXOCAsCoMAkGA1UdNgQCAgEwDgYI
KwYBBQUHAQsEAgIBMC0GCCsGAQUFBwEBAQH/BB4wHDAaBggrBgEFBQcwAYIOdGhl
Y2EubmV0L29jc3AwDAYDVR0uAQH/BAICATALBgkqhkiG9w0BAQsDQQAUm/ceHu/c
MbVXdGAtR6snKRvZB/oLO+YhUQKwkr1MOjWqyWO3gOe/3NktMuVPJYl2VEH17K80
n7U642hwxDpf
-----END CERTIFICATE-----
