Certificate:
    Data:
        Version: 3 (0x2)
        Serial Number: 18008675309 (0x4316693ed)
    Signature Algorithm: sha256WithRSAEncryption
        Issuer: C = US, O = Mother Nature, OU = Everything, CN = Mother Nature
        Validity
            Not Before: Dec  1 06:07:08 2055 GMT
            Not After : Aug 11 12:20:01 2056
        Subject: C = US, O = Extreme Discord, OU = Chaos, L = Tallahassee, ST = FL, street = 3210 Holly Mill Run, postalCode = 30062, CN = gov.us
        Subject Public Key Info:
            Public Key Algorithm: rsaEncryption
                Public-Key: (512 bit)
                Modulus:
                    00:c4:4f:cb:b7:9a:bb:70:43:61:af:8c:29:da:0b:
                    53:9d:88:ff:1d:20:a1:d0:46:8e:55:30:60:a2:a0:
                    5f:ae:69:ed:e6:d4:6c:ba:3c:59:9b:b8:b4:47:1d:
                    8d:5d:24:96:18:b7:22:45:9a:e8:db:2b:4d:19:73:
                    4e:30:90:46:23
                Exponent: 65537 (0x10001)
        X509v3 extensions:
            X509v3 Key Usage: critical
                Digital Signature, Key Encipherment, Certificate Sign
            X509v3 Extended Key Usage: 
                TLS Web Client Authentication, TLS Web Server Authentication
            X509v3 Basic Constraints: critical
                CA:FALSE
            X509v3 Authority Key Identifier: 
                keyid:01:02:03

            Authority Information Access: 
                OCSP - URI:http://theca.net/ocsp
                CA Issuers - URI:http://theca.net/totallythecert.crt

            X509v3 Certificate Policies: 
                Policy: 2.23.140.1.2.2

            X509v3 Name Constraints: 
                Permitted:
                  IP:192.168.1.1/1.2.3.4

            X509v3 Subject Key Identifier: 
                04:03:02:01
            X509v3 Subject Alternative Name: 
                DNS:gov.us, DNS:ˬ
            X509v3 Inhibit Any Policy: 
                ..
            Subject Information Access: 
                ..
    Signature Algorithm: sha256WithRSAEncryption
         b4:d5:7a:50:e8:84:e5:6a:80:98:fa:01:5f:fd:c1:88:2b:82:
         9a:6c:4d:b8:95:bc:7b:6e:4e:05:dc:57:19:74:40:8f:12:cc:
         c1:f3:00:f1:32:e8:e4:a1:4d:c4:ee:ee:ee:4b:e8:1d:23:46:
         5e:04:c0:e9:08:96:41:3c:33:af
-----BEGIN CERTIFICATE-----
MIIDDzCCArugAwIBAgIFBDFmk+0wCwYJKoZIhvcNAQELMFQxCzAJBgNVBAYTAlVT
MRYwFAYDVQQKEw1Nb3RoZXIgTmF0dXJlMRMwEQYDVQQLEwpFdmVyeXRoaW5nMRYw
FAYDVQQDEw1Nb3RoZXIgTmF0dXJlMQAwJhgPMjA1NTEyMDEwNjA3MDhaGBMyMDU2
MDgxMTEyMjAwMS0wNjAwMIGbMQswCQYDVQQGEwJVUzEYMBYGA1UEChMPRXh0cmVt
ZSBEaXNjb3JkMQ4wDAYDVQQLEwVDaGFvczEUMBIGA1UEBxMLVGFsbGFoYXNzZWUx
CzAJBgNVBAgTAkZMMRwwGgYDVQQJExMzMjEwIEhvbGx5IE1pbGwgUnVuMQ4wDAYD
VQQREwUzMDA2MjEPMA0GA1UEAxMGZ292LnVzMQAwXDANBgkqhkiG9w0BAQEFAANL
ADBIAkEAxE/Lt5q7cENhr4wp2gtTnYj/HSCh0EaOVTBgoqBfrmnt5tRsujxZm7i0
Rx2NXSSWGLciRZro2ytNGXNOMJBGIwIDAQABo4IBJDCCASAwDgYDVR0PAQH/BAQD
AgCkMB0GA1UdJQQWMBQGCCsGAQUFBwMCBggrBgEFBQcDATAMBgNVHRMBAf8EAjAA
MA4GA1UdIwQHMAWAAwECAzBiBggrBgEFBQcBAQRWMFQwIQYIKwYBBQUHMAGGFWh0
dHA6Ly90aGVjYS5uZXQvb2NzcDAvBggrBgEFBQcwAoYjaHR0cDovL3RoZWNhLm5l
dC90b3RhbGx5dGhlY2VydC5jcnQwEwYDVR0gBAwwCjAIBgZngQwBAgIwFwYDVR0e
BBAwDqAMMAqHCMCoAQEBAgMEMA0GA1UdDgQGBAQEAwIBMBUGA1UdEQQOMAyCBmdv
di51c4ICwKgwCQYDVR02BAICATAOBggrBgEFBQcBCwQCAgEwCwYJKoZIhvcNAQEL
A0EAtNV6UOiE5WqAmPoBX/3BiCuCmmxNuJW8e25OBdxXGXRAjxLMwfMA8TLo5KFN
xO7u7kvoHSNGXgTA6QiWQTwzrw==
-----END CERTIFICATE-----
