Certificate:
    Data:
        Version: 3 (0x2)
        Serial Number: 18008675309 (0x4316693ed)
    Signature Algorithm: sha256WithRSAEncryption
        Issuer: C = US, O = Mother Nature, OU = Everything, CN = Mother Nature
        Validity
            Not Before: Aug 11 10:08:31 2016
            Not After : Dec  1 06:07:00 2057 GMT
        Subject: C = US, O = Extreme Discord, OU = Chaos, L = Tallahassee, ST = FL, street = 3210 Holly Mill Run, postalCode = 30062, CN = gov.us
        Subject Public Key Info:
            Public Key Algorithm: rsaEncryption
                Public-Key: (512 bit)
                Modulus:
                    00:b5:fe:7c:9e:b3:34:83:5b:88:2f:77:37:86:b7:
                    32:0e:a3:b0:09:f2:ca:94:5b:ea:b2:5a:d3:77:3b:
                    a2:47:65:38:e2:61:8c:72:af:08:6e:42:d1:13:27:
                    4a:7d:59:67:f9:86:8a:28:f9:17:a2:f3:1a:38:0a:
                    4e:83:0c:b4:1d
                Exponent: 65537 (0x10001)
        X509v3 extensions:
            X509v3 Key Usage: critical
                Digital Signature, Key Encipherment, Certificate Sign
            X509v3 Extended Key Usage: 
                TLS Web Client Authentication, TLS Web Server Authentication
            X509v3 Basic Constraints: critical
                CA:FALSE
            X509v3 Authority Key Identifier: 
                keyid:01:02:03

            Authority Information Access: 
                OCSP - URI:http://theca.net/ocsp
                CA Issuers - URI:http://theca.net/totallythecert.crt

            X509v3 Certificate Policies: 
                Policy: 2.23.140.1.2.2

            X509v3 Name Constraints: 
                Permitted:
                  IP:192.168.1.1/1.2.3.4

            X509v3 Subject Key Identifier: 
                04:03:02:01
            X509v3 Subject Alternative Name: 
                DNS:gov.us, DNS:ˬ
            X509v3 Inhibit Any Policy: 
                ..
            Subject Information Access: 
                ..
    Signature Algorithm: sha256WithRSAEncryption
         19:66:24:46:89:3f:4b:7f:9f:da:46:80:69:d7:20:c6:06:aa:
         23:ae:bd:21:3f:5a:48:23:d3:3a:eb:33:24:45:b8:7f:3c:15:
         65:43:cb:3d:2d:00:cc:a4:48:f9:14:ba:a5:a0:72:cf:78:f5:
         2e:a9:2d:56:c6:83:c9:a0:f8:39
-----BEGIN CERTIFICATE-----
MIIDCzCCAregAwIBAgIFBDFmk+0wCwYJKoZIhvcNAQELMFQxCzAJBgNVBAYTAlVT
MRYwFAYDVQQKEw1Nb3RoZXIgTmF0dXJlMRMwEQYDVQQLEwpFdmVyeXRoaW5nMRYw
FAYDVQQDEw1Nb3RoZXIgTmF0dXJlMQAwIhcRMTYwODExMTAwODMxLTA1MDAYDTIw
NTcxMjAxMDYwN1owgZsxCzAJBgNVBAYTAlVTMRgwFgYDVQQKEw9FeHRyZW1lIERp
c2NvcmQxDjAMBgNVBAsTBUNoYW9zMRQwEgYDVQQHEwtUYWxsYWhhc3NlZTELMAkG
A1UECBMCRkwxHDAaBgNVBAkTEzMyMTAgSG9sbHkgTWlsbCBSdW4xDjAMBgNVBBET
BTMwMDYyMQ8wDQYDVQQDEwZnb3YudXMxADBcMA0GCSqGSIb3DQEBAQUAA0sAMEgC
QQC1/nyeszSDW4gvdzeGtzIOo7AJ8sqUW+qyWtN3O6JHZTjiYYxyrwhuQtETJ0p9
WWf5hooo+Rei8xo4Ck6DDLQdAgMBAAGjggEkMIIBIDAOBgNVHQ8BAf8EBAMCAKQw
HQYDVR0lBBYwFAYIKwYBBQUHAwIGCCsGAQUFBwMBMAwGA1UdEwEB/wQCMAAwDgYD
VR0jBAcwBYADAQIDMGIGCCsGAQUFBwEBBFYwVDAhBggrBgEFBQcwAYYVaHR0cDov
L3RoZWNhLm5ldC9vY3NwMC8GCCsGAQUFBzAChiNodHRwOi8vdGhlY2EubmV0L3Rv
dGFsbHl0aGVjZXJ0LmNydDATBgNVHSAEDDAKMAgGBmeBDAECAjAXBgNVHR4EEDAO
oAwwCocIwKgBAQECAwQwDQYDVR0OBAYEBAQDAgEwFQYDVR0RBA4wDIIGZ292LnVz
ggLAqDAJBgNVHTYEAgIBMA4GCCsGAQUFBwELBAICATALBgkqhkiG9w0BAQsDQQAZ
ZiRGiT9Lf5/aRoBp1yDGBqojrr0hP1pII9M66zMkRbh/PBVlQ8s9LQDMpEj5FLql
oHLPePUuqS1WxoPJoPg5
-----END CERTIFICATE-----
