Certificate:
    Data:
        Version: 3 (0x2)
        Serial Number: 18008675309 (0x4316693ed)
    Signature Algorithm: sha256WithRSAEncryption
        Issuer: CN=Mother Nature, OU=Everything, O=Mother Nature, C=US
        Validity
            Not Before: Aug 23 22:38:53 2017 GMT
            Not After : Nov  4 22:38:53 2017 GMT
        Subject: CN=gov.us, OU=Chaos, O=Extreme Discord/street=3210 Holly Mill Run, L=Tallahassee, ST=FL/postalCode=30062, C=US, GN=surname
        Subject Public Key Info:
            Public Key Algorithm: rsaEncryption
                Public-Key: (2048 bit)
                Modulus:
                    00:c2:ee:87:cf:58:3f:02:30:93:61:10:78:bb:0a:
                    8d:91:33:47:d0:9d:fa:62:37:06:dd:69:92:3d:15:
                    7b:c6:90:5a:53:08:35:df:a2:ec:12:a7:0c:d9:6b:
                    2e:a9:79:71:db:9f:4f:f9:81:5e:27:9d:f9:e9:d4:
                    fe:16:4e:14:8b:50:f8:2b:18:d6:97:50:5c:00:6f:
                    33:7b:47:9a:fc:47:09:c4:f2:67:eb:72:ec:38:c2:
                    84:74:79:e4:c4:a5:a0:fc:02:cc:0e:d6:e0:77:89:
                    fe:ef:72:7e:0c:9e:45:74:b2:06:a0:1a:03:0a:0f:
                    f0:87:f5:7c:06:e9:80:cf:d2:0b:4f:69:4b:09:74:
                    2f:29:b0:59:b6:a5:0e:1c:21:c0:f5:6a:83:a0:a1:
                    42:83:c8:0a:06:39:1c:b1:a8:9d:ac:ef:d1:74:a4:
                    42:a5:7c:c8:84:51:95:6a:47:8d:2b:f6:9e:ac:10:
                    73:d0:66:04:ef:fc:bd:9d:dd:d6:1b:14:44:10:f9:
                    ce:de:76:c0:f1:00:3c:d5:3f:c6:74:38:bc:21:42:
                    1a:39:9d:90:54:c7:80:6e:60:62:c7:c4:67:80:43:
                    d7:b6:28:43:09:a4:13:97:8c:ba:e0:e1:51:db:a5:
                    d4:3f:39:93:4a:01:b3:d2:8a:e4:8f:aa:32:33:4b:
                    30:6f
                Exponent: 65537 (0x10001)
        X509v3 extensions:
            X509v3 Key Usage: critical
                Digital Signature, Key Encipherment
            X509v3 Extended Key Usage: 
                TLS Web Client Authentication, TLS Web Server Authentication
            X509v3 Basic Constraints: critical
                CA:FALSE
            X509v3 Authority Key Identifier: 
                keyid:01:02:03

            X509v3 Certificate Policies: 
                Policy: 2.23.140.1.2.1

            Authority Information Access: critical
                OCSP - URI:http://ss.symcd.com
                CA Issuers - URI:http://ss.symcb.com/ss.crt

    Signature Algorithm: sha256WithRSAEncryption
         3b:2b:de:97:07:9c:33:2a:a0:c2:ea:b3:ef:6a:0a:f7:63:21:
         0e:8b:cd:65:f3:6a:3a:45:d7:0e:a8:7c:48:27:52:46:23:62:
         e0:da:92:20:e2:15:dd:02:13:99:85:97:38:53:be:3f:ac:81:
         f9:1e:77:31:79:23:39:e6:d2:57:83:22:5d:a1:d0:f3:4e:81:
         fc:b5:fc:6b:d4:7d:8f:f1:a4:d6:0b:0d:13:3b:ec:fc:dc:63:
         74:07:21:d8:a0:0a:d1:c6:e7:8e:fb:13:67:14:72:f0:dd:ea:
         d6:2b:48:1a:37:10:45:0e:2a:e8:50:d7:87:73:0a:b5:73:f4:
         53:ff:2d:77:de:79:3a:0d:91:e9:23:ac:cf:cc:58:bb:a0:51:
         d2:a6:9a:dc:d5:32:1c:1c:fd:6c:03:13:89:eb:2e:12:87:2f:
         d5:a4:4e:05:17:ed:f0:f5:1b:95:35:8b:00:f8:ec:84:6e:7a:
         8b:ea:8b:da:62:d9:70:e3:ba:9f:de:bb:63:44:d9:75:ca:74:
         7e:d3:b6:a1:d6:b1:a2:06:2c:ec:a5:3d:64:84:a6:70:81:54:
         1b:ff:23:6d:9a:b4:30:5d:99:f1:c6:1f:ab:9e:88:52:43:88:
         a5:9d:a2:24:aa:2a:d9:91:04:17:6d:04:44:5e:a8:22:ad:61:
         ad:73:67:b0
-----BEGIN CERTIFICATE-----
MIIEPzCCAymgAwIBAgIFBDFmk+0wCwYJKoZIhvcNAQELMFQxFjAUBgNVBAMTDU1v
dGhlciBOYXR1cmUxEzARBgNVBAsTCkV2ZXJ5dGhpbmcxFjAUBgNVBAoTDU1vdGhl
ciBOYXR1cmUxCzAJBgNVBAYTAlVTMQAwHhcNMTcwODIzMjIzODUzWhcNMTcxMTA0
MjIzODUzWjCBrTEPMA0GA1UEAxMGZ292LnVzMQ4wDAYDVQQLEwVDaGFvczEYMBYG
A1UEChMPRXh0cmVtZSBEaXNjb3JkMRwwGgYDVQQJExMzMjEwIEhvbGx5IE1pbGwg
UnVuMRQwEgYDVQQHEwtUYWxsYWhhc3NlZTELMAkGA1UECBMCRkwxDjAMBgNVBBET
BTMwMDYyMQswCQYDVQQGEwJVUzEQMA4GA1UEKhMHc3VybmFtZTEAMIIBIjANBgkq
hkiG9w0BAQEFAAOCAQ8AMIIBCgKCAQEAwu6Hz1g/AjCTYRB4uwqNkTNH0J36YjcG
3WmSPRV7xpBaUwg136LsEqcM2WsuqXlx259P+YFeJ5356dT+Fk4Ui1D4KxjWl1Bc
AG8ze0ea/EcJxPJn63LsOMKEdHnkxKWg/ALMDtbgd4n+73J+DJ5FdLIGoBoDCg/w
h/V8BumAz9ILT2lLCXQvKbBZtqUOHCHA9WqDoKFCg8gKBjkcsaidrO/RdKRCpXzI
hFGVakeNK/aerBBz0GYE7/y9nd3WGxREEPnO3nbA8QA81T/GdDi8IUIaOZ2QVMeA
bmBix8RngEPXtihDCaQTl4y64OFR26XUPzmTSgGz0orkj6oyM0swbwIDAQABo4HB
MIG+MA4GA1UdDwEB/wQEAwIAoDAdBgNVHSUEFjAUBggrBgEFBQcDAgYIKwYBBQUH
AwEwDAYDVR0TAQH/BAIwADAOBgNVHSMEBzAFgAMBAgMwEwYDVR0gBAwwCjAIBgZn
gQwBAgEwWgYIKwYBBQUHAQEBAf8ESzBJMB8GCCsGAQUFBzABhhNodHRwOi8vc3Mu
c3ltY2QuY29tMCYGCCsGAQUFBzAChhpodHRwOi8vc3Muc3ltY2IuY29tL3NzLmNy
dDALBgkqhkiG9w0BAQsDggEBADsr3pcHnDMqoMLqs+9qCvdjIQ6LzWXzajpF1w6o
fEgnUkYjYuDakiDiFd0CE5mFlzhTvj+sgfkedzF5Iznm0leDIl2h0PNOgfy1/GvU
fY/xpNYLDRM77PzcY3QHIdigCtHG5477E2cUcvDd6tYrSBo3EEUOKuhQ14dzCrVz
9FP/LXfeeToNkekjrM/MWLugUdKmmtzVMhwc/WwDE4nrLhKHL9WkTgUX7fD1G5U1
iwD47IRueovqi9pi2XDjup/eu2NE2XXKdH7TtqHWsaIGLOylPWSEpnCBVBv/I22a
tDBdmfHGH6ueiFJDiKWdoiSqKtmRBBdtBEReqCKtYa1zZ7A=
-----END CERTIFICATE-----
