Certificate:
    Data:
        Version: 3 (0x2)
        Serial Number: 18008675309 (0x4316693ed)
    Signature Algorithm: sha256WithRSAEncryption
        Issuer: CN=Mother Nature, OU=Everything, O=Mother Nature, C=US
        Validity
            Not Before: Aug 23 22:39:14 2017 GMT
            Not After : Nov  4 22:39:14 2017 GMT
        Subject: CN=gov.us, OU=Chaos, O=Extreme Discord/street=3210 Holly Mill Run, L=Tallahassee, ST=FL/postalCode=30062, C=US, GN=surname
        Subject Public Key Info:
            Public Key Algorithm: rsaEncryption
                Public-Key: (2048 bit)
                Modulus:
                    00:bd:bf:dd:3d:08:8c:f8:b2:cc:07:99:f7:a8:ff:
                    71:ce:2d:b1:40:9d:87:65:1b:cf:1d:ce:df:14:da:
                    7a:e0:4f:2c:1f:b7:4e:79:ac:b6:31:98:44:be:ee:
                    33:13:02:c2:53:cd:5e:93:69:8d:5e:3b:7b:8b:4f:
                    be:80:0d:cf:71:0b:b1:56:16:4b:6b:a7:ec:f1:03:
                    27:08:64:92:8f:7d:dd:6f:bd:1f:65:a8:b5:84:57:
                    c2:45:0c:30:27:3c:9e:1b:f5:86:44:c4:68:d8:27:
                    df:cb:40:cb:35:54:28:4e:30:11:73:15:ab:e2:a2:
                    bf:28:bf:95:6e:ba:a2:c8:cd:3b:8f:f7:78:6e:b7:
                    c7:0b:72:bd:6c:90:40:e4:d7:68:a0:6d:42:fa:8e:
                    d9:27:d4:98:99:26:cc:34:2e:d9:82:bd:e7:93:75:
                    80:cf:91:af:83:55:da:a2:d3:9f:ce:06:76:f1:6f:
                    d9:4d:66:c2:f0:a2:80:ae:2b:77:b2:7c:80:5e:47:
                    c2:3c:69:06:ea:68:07:13:ea:cf:e7:68:8a:15:38:
                    c4:ec:58:81:13:12:5f:af:ac:8a:02:27:33:6f:ed:
                    90:68:59:8e:81:c5:0b:c2:4c:e5:95:95:3c:b9:6c:
                    50:68:9d:84:d9:32:ae:cc:bf:82:9e:78:ee:29:f4:
                    0f:f9
                Exponent: 65537 (0x10001)
        X509v3 extensions:
            X509v3 Key Usage: critical
                Digital Signature, Key Encipherment
            X509v3 Extended Key Usage: 
                TLS Web Client Authentication, TLS Web Server Authentication
            X509v3 Basic Constraints: critical
                CA:FALSE
            X509v3 Authority Key Identifier: 
                keyid:01:02:03

            X509v3 Certificate Policies: 
                Policy: 2.23.140.1.2.3

            Authority Information Access: critical
                OCSP - URI:http://ss.symcd.com
                CA Issuers - URI:http://ss.symcb.com/ss.crt

    Signature Algorithm: sha256WithRSAEncryption
         35:ed:c8:e5:30:65:c6:ad:cf:f2:1d:9b:7e:f0:f4:2b:43:d9:
         b9:23:24:02:f0:26:b3:b2:67:66:38:46:17:9d:48:b5:07:88:
         97:1d:da:9a:74:af:68:7b:b9:46:fc:38:a6:10:92:cf:3f:3e:
         92:62:e3:40:75:e1:f0:88:a9:d2:db:b3:55:4d:d3:e1:05:66:
         86:af:e2:d0:47:4f:74:f6:16:ca:88:eb:8b:10:9f:f6:68:38:
         d0:a7:89:89:2b:e6:46:0a:82:24:3d:60:69:60:f8:9b:9a:a6:
         ed:38:a6:af:3a:91:8d:9d:76:65:a8:30:b1:59:34:be:24:f8:
         60:19:9b:3b:8e:03:e7:cc:ff:dc:e1:ae:fb:ca:37:cf:2a:38:
         cd:f8:6f:df:83:b1:d0:b4:3f:be:df:bb:d5:60:8f:e4:09:ed:
         b7:30:f8:b6:42:84:af:58:05:a7:25:71:46:2c:9c:5f:67:ec:
         d3:b2:c4:5f:86:33:46:38:ef:f5:66:55:e0:86:e8:ab:b0:3b:
         58:ff:ae:e5:dc:6c:cd:a8:fe:7c:a2:51:b3:00:fb:1f:17:b2:
         25:f4:75:c0:a7:84:17:bf:ed:fb:91:27:1a:03:3e:4a:18:d3:
         1d:7c:b2:79:17:ea:d8:29:a8:4f:6c:0e:45:d8:ea:b8:80:3e:
         84:92:2c:f5
-----BEGIN CERTIFICATE-----
MIIEPzCCAymgAwIBAgIFBDFmk+0wCwYJKoZIhvcNAQELMFQxFjAUBgNVBAMTDU1v
dGhlciBOYXR1cmUxEzARBgNVBAsTCkV2ZXJ5dGhpbmcxFjAUBgNVBAoTDU1vdGhl
ciBOYXR1cmUxCzAJBgNVBAYTAlVTMQAwHhcNMTcwODIzMjIzOTE0WhcNMTcxMTA0
MjIzOTE0WjCBrTEPMA0GA1UEAxMGZ292LnVzMQ4wDAYDVQQLEwVDaGFvczEYMBYG
A1UEChMPRXh0cmVtZSBEaXNjb3JkMRwwGgYDVQQJExMzMjEwIEhvbGx5IE1pbGwg
UnVuMRQwEgYDVQQHEwtUYWxsYWhhc3NlZTELMAkGA1UECBMCRkwxDjAMBgNVBBET
BTMwMDYyMQswCQYDVQQGEwJVUzEQMA4GA1UEKhMHc3VybmFtZTEAMIIBIjANBgkq
hkiG9w0BAQEFAAOCAQ8AMIIBCgKCAQEAvb/dPQiM+LLMB5n3qP9xzi2xQJ2HZRvP
Hc7fFNp64E8sH7dOeay2MZhEvu4zEwLCU81ek2mNXjt7i0++gA3PcQuxVhZLa6fs
8QMnCGSSj33db70fZai1hFfCRQwwJzyeG/WGRMRo2Cffy0DLNVQoTjARcxWr4qK/
KL+VbrqiyM07j/d4brfHC3K9bJBA5NdooG1C+o7ZJ9SYmSbMNC7Zgr3nk3WAz5Gv
g1XaotOfzgZ28W/ZTWbC8KKArit3snyAXkfCPGkG6mgHE+rP52iKFTjE7FiBExJf
r6yKAiczb+2QaFmOgcULwkzllZU8uWxQaJ2E2TKuzL+CnnjuKfQP+QIDAQABo4HB
MIG+MA4GA1UdDwEB/wQEAwIAoDAdBgNVHSUEFjAUBggrBgEFBQcDAgYIKwYBBQUH
AwEwDAYDVR0TAQH/BAIwADAOBgNVHSMEBzAFgAMBAgMwEwYDVR0gBAwwCjAIBgZn
gQwBAgMwWgYIKwYBBQUHAQEBAf8ESzBJMB8GCCsGAQUFBzABhhNodHRwOi8vc3Mu
c3ltY2QuY29tMCYGCCsGAQUFBzAChhpodHRwOi8vc3Muc3ltY2IuY29tL3NzLmNy
dDALBgkqhkiG9w0BAQsDggEBADXtyOUwZcatz/Idm37w9CtD2bkjJALwJrOyZ2Y4
RhedSLUHiJcd2pp0r2h7uUb8OKYQks8/PpJi40B14fCIqdLbs1VN0+EFZoav4tBH
T3T2FsqI64sQn/ZoONCniYkr5kYKgiQ9YGlg+Juapu04pq86kY2ddmWoMLFZNL4k
+GAZmzuOA+fM/9zhrvvKN88qOM34b9+DsdC0P77fu9Vgj+QJ7bcw+LZChK9YBacl
cUYsnF9n7NOyxF+GM0Y47/VmVeCG6KuwO1j/ruXcbM2o/nyiUbMA+x8XsiX0dcCn
hBe/7fuRJxoDPkoY0x18snkX6tgpqE9sDkXY6riAPoSSLPU=
-----END CERTIFICATE-----
