Certificate:
    Data:
        Version: 3 (0x2)
        Serial Number: 14615016 (0xdf01e8)
    Signature Algorithm: sha256WithRSAEncryption
        Issuer: C = US, O = Mother Nature, OU = Everything, CN = Mother Nature
        Validity
            Not Before: Oct 10 21:37:46 2016 GMT
            Not After : Dec 22 22:37:46 2016 GMT
        Subject: C = US, O = Extreme Discord, OU = Chaos, L = Tallahassee, ST = FL, street = 3210 Holly Mill Run, postalCode = 30062, CN = www.totallyfake.com
        Subject Public Key Info:
            Public Key Algorithm: rsaEncryption
                Public-Key: (2048 bit)
                Modulus:
                    00:be:b9:6a:81:71:c3:43:db:8f:bf:b3:8c:cb:44:
                    37:c8:3c:d0:d9:c7:46:3a:ab:6f:25:3d:0f:da:6b:
                    94:48:5a:81:70:86:36:3d:37:97:13:a8:64:e8:0a:
                    a8:2b:97:a4:0e:a9:f6:99:b9:60:b3:7b:d5:ea:a2:
                    24:88:1f:29:c4:99:98:d7:78:7b:b6:72:40:2e:05:
                    c4:20:5c:81:d2:6a:a9:66:51:a0:ad:bb:b7:5b:27:
                    f7:a9:1e:1a:2d:b2:f4:92:ad:92:6d:15:73:d9:9b:
                    b2:52:03:3b:23:8c:28:5f:d9:f1:bd:ca:ce:a7:55:
                    a1:23:c7:88:ee:0b:78:1e:7f:77:94:80:50:39:d6:
                    24:73:d0:10:c4:86:cc:f7:46:ec:1e:80:32:37:5a:
                    7a:ad:f6:d3:8b:0d:bb:54:01:02:56:81:00:43:d2:
                    82:69:a7:ae:ad:0a:d7:79:79:2d:63:04:80:89:8f:
                    a4:db:83:42:cc:53:6e:f9:0a:8e:99:3f:da:ab:5e:
                    39:bf:d3:52:6f:de:c5:a3:35:d2:f8:cc:6c:84:ba:
                    18:a7:34:a5:f8:4d:d6:f8:e4:a7:f4:d3:90:5f:7e:
                    6d:b0:fd:60:e1:4e:23:56:bb:5c:9f:53:35:b8:65:
                    61:e9:7c:d5:7a:26:56:bc:67:66:20:bc:46:b3:e4:
                    a4:15
                Exponent: 65537 (0x10001)
        X509v3 extensions:
            X509v3 Basic Constraints: critical
                CA:FALSE
            X509v3 Authority Key Identifier: 
                keyid:01:02:03

            Authority Information Access: 
                OCSP - URI:http://theca.net/ocsp
                CA Issuers - URI:theca.net/totallythecert.crt

            X509v3 Subject Alternative Name: 
                DNS:totallyfake.net, IP Address:128.168.45.1
            X509v3 CRL Distribution Points: 

                Full Name:
                  URI:ldap://theca.net/crlpoint

            X509v3 Subject Key Identifier: 
                04:03:02:01
            X509v3 Key Usage: 
                Data Encipherment, Key Agreement
            X509v3 Extended Key Usage: 
                TLS Web Server Authentication, 1.2.840.113635.100.4.3, Signing KDC Response, Any Extended Key Usage
            X509v3 Certificate Policies: 
                Policy: 2.16.840.1.114414.1.7.23.1
                  CPS: http://certificates.starfieldtech.com/repository/

    Signature Algorithm: sha256WithRSAEncryption
         2c:71:3e:ca:69:08:d1:d2:8e:5e:0d:8b:9f:a6:0a:5e:79:64:
         10:1e:51:f1:57:32:d0:83:b8:e1:0b:db:21:fd:2e:53:ee:fa:
         c8:50:63:f5:be:5b:f8:81:96:70:01:39:db:3a:d6:07:97:e6:
         6d:ea:88:c3:f6:b6:74:81:89:d4:5a:30:42:4f:6c:6b:23:e4:
         d9:ec:cd:a6:f5:c1:f7:3d:44:5d:85:8d:67:7c:37:a5:3f:49:
         32:58:f7:90:9a:5b:01:24:14:9f:6d:d8:92:55:72:69:b7:a0:
         c5:e2:24:0d:24:4c:8c:75:68:f5:9c:75:49:6e:55:39:3e:0c:
         8a:26:ac:98:14:b3:69:ce:1c:c5:69:af:09:64:7f:c3:a3:83:
         22:00:9d:02:20:1f:03:63:ab:4a:10:1d:12:1f:bf:51:57:e9:
         db:e1:3f:41:8c:f2:ca:b3:d4:41:48:1e:2d:1e:1c:43:e8:86:
         6b:f2:5f:2c:15:cc:ad:84:e7:2f:06:78:a5:00:c4:ff:b5:ed:
         97:31:1c:79:17:66:e2:ad:05:21:3f:b8:15:3c:01:0c:b1:e5:
         11:e7:2d:23:a1:4d:cf:cf:5e:37:bc:0d:b3:30:af:e5:e8:43:
         91:a3:5f:a4:c2:16:e3:04:f7:70:cf:0c:6f:34:f1:9e:27:6f:
         fe:a9:5f:e5
-----BEGIN CERTIFICATE-----
MIIE7DCCA9agAwIBAgIEAN8B6DALBgkqhkiG9w0BAQswVDELMAkGA1UEBhMCVVMx
FjAUBgNVBAoTDU1vdGhlciBOYXR1cmUxEzARBgNVBAsTCkV2ZXJ5dGhpbmcxFjAU
BgNVBAMTDU1vdGhlciBOYXR1cmUxADAeFw0xNjEwMTAyMTM3NDZaFw0xNjEyMjIy
MjM3NDZaMIGoMQswCQYDVQQGEwJVUzEYMBYGA1UEChMPRXh0cmVtZSBEaXNjb3Jk
MQ4wDAYDVQQLEwVDaGFvczEUMBIGA1UEBxMLVGFsbGFoYXNzZWUxCzAJBgNVBAgT
AkZMMRwwGgYDVQQJExMzMjEwIEhvbGx5IE1pbGwgUnVuMQ4wDAYDVQQREwUzMDA2
MjEcMBoGA1UEAxMTd3d3LnRvdGFsbHlmYWtlLmNvbTEAMIIBIjANBgkqhkiG9w0B
AQEFAAOCAQ8AMIIBCgKCAQEAvrlqgXHDQ9uPv7OMy0Q3yDzQ2cdGOqtvJT0P2muU
SFqBcIY2PTeXE6hk6AqoK5ekDqn2mblgs3vV6qIkiB8pxJmY13h7tnJALgXEIFyB
0mqpZlGgrbu3Wyf3qR4aLbL0kq2SbRVz2ZuyUgM7I4woX9nxvcrOp1WhI8eI7gt4
Hn93lIBQOdYkc9AQxIbM90bsHoAyN1p6rfbTiw27VAECVoEAQ9KCaaeurQrXeXkt
YwSAiY+k24NCzFNu+QqOmT/aq145v9NSb97FozXS+MxshLoYpzSl+E3W+OSn9NOQ
X35tsP1g4U4jVrtcn1M1uGVh6XzVeiZWvGdmILxGs+SkFQIDAQABo4IBczCCAW8w
DAYDVR0TAQH/BAIwADAOBgNVHSMEBzAFgAMBAgMwWwYIKwYBBQUHAQEETzBNMCEG
CCsGAQUFBzABhhVodHRwOi8vdGhlY2EubmV0L29jc3AwKAYIKwYBBQUHMAKGHHRo
ZWNhLm5ldC90b3RhbGx5dGhlY2VydC5jcnQwIAYDVR0RBBkwF4IPdG90YWxseWZh
a2UubmV0hwSAqC0BMCoGA1UdHwQjMCEwH6AdoBuGGWxkYXA6Ly90aGVjYS5uZXQv
Y3JscG9pbnQwDQYDVR0OBAYEBAQDAgEwCwYDVR0PBAQDAgEYMC0GA1UdJQQmMCQG
CCsGAQUFBwMBBgkqhkiG92NkBAMGBysGAQUCAwUGBFUdJQAwWQYDVR0gBFIwUDBO
BgtghkgBhv1uAQcXATA/MD0GCCsGAQUFBwIBFjFodHRwOi8vY2VydGlmaWNhdGVz
LnN0YXJmaWVsZHRlY2guY29tL3JlcG9zaXRvcnkvMAsGCSqGSIb3DQEBCwOCAQEA
LHE+ymkI0dKOXg2Ln6YKXnlkEB5R8Vcy0IO44QvbIf0uU+76yFBj9b5b+IGWcAE5
2zrWB5fmbeqIw/a2dIGJ1FowQk9sayPk2ezNpvXB9z1EXYWNZ3w3pT9JMlj3kJpb
ASQUn23YklVyabegxeIkDSRMjHVo9Zx1SW5VOT4MiiasmBSzac4cxWmvCWR/w6OD
IgCdAiAfA2OrShAdEh+/UVfp2+E/QYzyyrPUQUgeLR4cQ+iGa/JfLBXMrYTnLwZ4
pQDE/7XtlzEceRdm4q0FIT+4FTwBDLHlEectI6FNz89eN7wNszCv5ehDkaNfpMIW
4wT3cM8MbzTxnidv/qlf5Q==
-----END CERTIFICATE-----
