Certificate:
    Data:
        Version: 3 (0x2)
        Serial Number: 14615016 (0xdf01e8)
    Signature Algorithm: sha256WithRSAEncryption
        Issuer: C = US, O = Mother Nature, OU = Everything, CN = Mother Nature
        Validity
            Not Before: Oct 10 21:38:06 2016 GMT
            Not After : Dec 22 22:38:06 2016 GMT
        Subject: C = US, O = Extreme Discord, OU = Chaos, L = Tallahassee, ST = FL, street = 3210 Holly Mill Run, postalCode = 30062, CN = www.totallyfake.com
        Subject Public Key Info:
            Public Key Algorithm: rsaEncryption
                Public-Key: (2048 bit)
                Modulus:
                    00:e8:41:5f:88:0d:6d:3b:86:ab:7d:65:98:a4:7c:
                    df:9f:77:2b:c9:b7:bd:7e:a7:53:13:61:52:0c:2e:
                    d0:a7:18:a3:4a:3f:5b:0c:96:b6:3e:b9:93:12:7a:
                    a6:4b:60:f2:1b:26:4e:01:07:a8:27:c9:da:eb:69:
                    fb:b6:93:fa:12:f8:6b:32:22:e9:38:4e:a2:0f:4a:
                    18:47:0d:f9:1e:92:c6:bc:8a:8b:6a:85:a9:14:9d:
                    f2:fe:83:e1:fa:65:6d:94:f3:3f:3a:0b:1f:91:42:
                    a7:72:5e:9c:b7:db:8d:a8:25:4f:54:2e:f1:63:dc:
                    6a:5b:f7:e6:db:13:7a:41:20:54:06:bc:39:f2:6b:
                    09:88:08:e6:96:a9:ea:c6:d5:87:80:25:be:22:ea:
                    a0:1e:53:09:a5:20:19:5c:48:1c:af:00:4b:bb:8b:
                    31:4f:be:62:2f:c4:ca:40:2a:68:4f:bb:99:1a:73:
                    8a:91:e3:0d:05:ee:d6:57:a1:62:ce:49:21:fa:39:
                    cf:27:1b:40:4b:c4:dd:94:ff:cd:4c:c0:b4:b8:cb:
                    a1:42:0c:a3:2f:19:c3:29:ff:52:4a:89:b4:b4:51:
                    90:cd:34:22:b8:ff:b3:1f:73:bf:6d:1c:12:fe:33:
                    ad:18:b8:a5:09:7c:d6:01:63:46:7f:17:30:a4:d3:
                    53:13
                Exponent: 65537 (0x10001)
        X509v3 extensions:
            X509v3 Basic Constraints: critical
                CA:FALSE
            X509v3 Authority Key Identifier: 
                keyid:01:02:03

            Authority Information Access: 
                OCSP - URI:http://theca.net/ocsp
                CA Issuers - URI:theca.net/totallythecert.crt

            X509v3 Subject Alternative Name: 
                DNS:totallyfake.definitelynotagtld, IP Address:128.168.45.1
            X509v3 CRL Distribution Points: 

                Full Name:
                  URI:ldap://theca.net/crlpoint

            X509v3 Subject Key Identifier: 
                04:03:02:01
            X509v3 Key Usage: 
                Data Encipherment, Key Agreement
            X509v3 Extended Key Usage: 
                TLS Web Server Authentication, 1.2.840.113635.100.4.3, Signing KDC Response, Any Extended Key Usage
            X509v3 Certificate Policies: 
                Policy: 2.16.840.1.114414.1.7.23.1
                  CPS: http://certificates.starfieldtech.com/repository/

    Signature Algorithm: sha256WithRSAEncryption
         05:f5:7e:a8:a8:34:ae:65:b9:ad:be:7b:75:2e:59:1d:b7:fb:
         2d:c2:7c:ee:78:56:e1:aa:93:da:10:6f:80:8d:c1:0a:56:5b:
         b8:7c:17:f7:d0:68:75:43:2b:ed:88:34:f1:0c:26:dd:64:1f:
         b8:4e:d5:8e:c6:53:38:90:0f:31:ff:ef:b6:52:90:49:7d:9c:
         00:6b:30:53:cc:eb:44:f9:1e:9a:c9:ec:71:12:ed:15:a6:a5:
         f8:4d:de:c0:75:b0:17:4d:90:d9:ea:05:87:cb:e0:c1:a5:a2:
         05:05:58:68:2c:48:07:38:cb:95:54:70:6c:d8:f9:b9:a3:99:
         12:e8:d5:e2:98:43:35:26:8e:2e:bf:4a:6e:9b:3d:9f:fe:47:
         f9:6c:f6:d2:dd:75:15:bf:bd:bc:d5:1c:f4:ba:38:ad:bf:9c:
         c6:35:e0:c9:21:12:76:09:fd:27:dd:71:0c:bf:16:35:72:db:
         c3:af:fc:02:ac:80:16:d8:d7:1d:8a:13:2c:06:00:9c:d0:65:
         9d:33:1e:ad:d3:6a:ae:1f:05:60:0e:22:b5:ce:53:cd:15:d9:
         64:fb:60:9c:6e:af:57:2d:dd:5e:84:fc:10:f0:16:96:7d:fd:
         e2:40:b0:a4:5c:49:0b:80:73:e1:f6:a0:cd:d3:27:98:d1:3c:
         a5:78:f0:3c
-----BEGIN CERTIFICATE-----
MIIE+zCCA+WgAwIBAgIEAN8B6DALBgkqhkiG9w0BAQswVDELMAkGA1UEBhMCVVMx
FjAUBgNVBAoTDU1vdGhlciBOYXR1cmUxEzARBgNVBAsTCkV2ZXJ5dGhpbmcxFjAU
BgNVBAMTDU1vdGhlciBOYXR1cmUxADAeFw0xNjEwMTAyMTM4MDZaFw0xNjEyMjIy
MjM4MDZaMIGoMQswCQYDVQQGEwJVUzEYMBYGA1UEChMPRXh0cmVtZSBEaXNjb3Jk
MQ4wDAYDVQQLEwVDaGFvczEUMBIGA1UEBxMLVGFsbGFoYXNzZWUxCzAJBgNVBAgT
AkZMMRwwGgYDVQQJExMzMjEwIEhvbGx5IE1pbGwgUnVuMQ4wDAYDVQQREwUzMDA2
MjEcMBoGA1UEAxMTd3d3LnRvdGFsbHlmYWtlLmNvbTEAMIIBIjANBgkqhkiG9w0B
AQEFAAOCAQ8AMIIBCgKCAQEA6EFfiA1tO4arfWWYpHzfn3crybe9fqdTE2FSDC7Q
pxijSj9bDJa2PrmTEnqmS2DyGyZOAQeoJ8na62n7tpP6EvhrMiLpOE6iD0oYRw35
HpLGvIqLaoWpFJ3y/oPh+mVtlPM/OgsfkUKncl6ct9uNqCVPVC7xY9xqW/fm2xN6
QSBUBrw58msJiAjmlqnqxtWHgCW+IuqgHlMJpSAZXEgcrwBLu4sxT75iL8TKQCpo
T7uZGnOKkeMNBe7WV6Fizkkh+jnPJxtAS8TdlP/NTMC0uMuhQgyjLxnDKf9SSom0
tFGQzTQiuP+zH3O/bRwS/jOtGLilCXzWAWNGfxcwpNNTEwIDAQABo4IBgjCCAX4w
DAYDVR0TAQH/BAIwADAOBgNVHSMEBzAFgAMBAgMwWwYIKwYBBQUHAQEETzBNMCEG
CCsGAQUFBzABhhVodHRwOi8vdGhlY2EubmV0L29jc3AwKAYIKwYBBQUHMAKGHHRo
ZWNhLm5ldC90b3RhbGx5dGhlY2VydC5jcnQwLwYDVR0RBCgwJoIedG90YWxseWZh
a2UuZGVmaW5pdGVseW5vdGFndGxkhwSAqC0BMCoGA1UdHwQjMCEwH6AdoBuGGWxk
YXA6Ly90aGVjYS5uZXQvY3JscG9pbnQwDQYDVR0OBAYEBAQDAgEwCwYDVR0PBAQD
AgEYMC0GA1UdJQQmMCQGCCsGAQUFBwMBBgkqhkiG92NkBAMGBysGAQUCAwUGBFUd
JQAwWQYDVR0gBFIwUDBOBgtghkgBhv1uAQcXATA/MD0GCCsGAQUFBwIBFjFodHRw
Oi8vY2VydGlmaWNhdGVzLnN0YXJmaWVsZHRlY2guY29tL3JlcG9zaXRvcnkvMAsG
CSqGSIb3DQEBCwOCAQEABfV+qKg0rmW5rb57dS5ZHbf7LcJ87nhW4aqT2hBvgI3B
ClZbuHwX99BodUMr7Yg08Qwm3WQfuE7VjsZTOJAPMf/vtlKQSX2cAGswU8zrRPke
msnscRLtFaal+E3ewHWwF02Q2eoFh8vgwaWiBQVYaCxIBzjLlVRwbNj5uaOZEujV
4phDNSaOLr9Kbps9n/5H+Wz20t11Fb+9vNUc9Lo4rb+cxjXgySESdgn9J91xDL8W
NXLbw6/8AqyAFtjXHYoTLAYAnNBlnTMerdNqrh8FYA4itc5TzRXZZPtgnG6vVy3d
XoT8EPAWln394kCwpFxJC4Bz4fagzdMnmNE8pXjwPA==
-----END CERTIFICATE-----
