Certificate:
    Data:
        Version: 3 (0x2)
        Serial Number: 14615016 (0xdf01e8)
    Signature Algorithm: sha256WithRSAEncryption
        Issuer: C = US, O = Mother Nature, OU = Everything, CN = Mother Nature
        Validity
            Not Before: Oct 10 21:36:58 2016 GMT
            Not After : Dec 22 22:36:58 2016 GMT
        Subject: C = US, O = Extreme Discord, OU = Chaos, L = Tallahassee, ST = FL, street = 3210 Holly Mill Run, postalCode = 30062, CN = www.totallyfake.theresnowaythisisagtld
        Subject Public Key Info:
            Public Key Algorithm: rsaEncryption
                Public-Key: (2048 bit)
                Modulus:
                    00:ce:10:5c:79:fc:86:6a:a1:2e:df:5b:68:bb:db:
                    f7:f1:0d:c4:a4:7e:8e:23:e1:49:27:87:b2:0e:a8:
                    b1:9d:09:ea:f0:ac:ed:ad:a3:3e:39:d6:38:f6:04:
                    50:0a:da:85:74:58:89:dc:ab:de:a3:d0:52:a1:a8:
                    02:4c:56:af:de:28:58:ec:7e:fa:00:8d:01:a5:91:
                    1b:20:07:18:7d:e5:ef:0a:92:20:64:04:02:b4:38:
                    d9:c8:a4:f2:30:70:17:41:74:e3:a1:df:96:fc:57:
                    73:49:a7:ec:7f:96:c3:b3:65:f7:e7:cf:99:c0:58:
                    3e:d4:b3:76:a9:44:22:64:11:f4:ec:bb:f3:fd:90:
                    7d:c9:ea:18:7b:16:ee:f7:21:2f:fd:7a:6d:3f:d7:
                    82:dc:85:8c:f1:5b:ce:ee:ea:f8:8f:52:e0:29:ab:
                    19:ee:1e:49:86:61:91:87:89:59:b6:c2:78:41:35:
                    5c:99:9f:d9:c6:7d:b7:f4:c8:64:56:75:3e:7e:36:
                    a2:b6:70:e0:b2:32:01:f2:aa:6b:7e:56:78:fd:36:
                    03:01:a2:a1:21:54:10:df:43:a4:bc:49:51:17:61:
                    31:0b:26:89:d6:2a:6d:5b:f5:a8:40:be:42:46:64:
                    37:bf:99:62:86:24:28:7d:64:92:76:ee:74:09:fd:
                    b1:e1
                Exponent: 65537 (0x10001)
        X509v3 extensions:
            X509v3 Basic Constraints: critical
                CA:FALSE
            X509v3 Authority Key Identifier: 
                keyid:01:02:03

            Authority Information Access: 
                OCSP - URI:http://theca.net/ocsp
                CA Issuers - URI:theca.net/totallythecert.crt

            X509v3 Subject Alternative Name: 
                IP Address:128.168.45.1
            X509v3 CRL Distribution Points: 

                Full Name:
                  URI:ldap://theca.net/crlpoint

            X509v3 Subject Key Identifier: 
                04:03:02:01
            X509v3 Key Usage: 
                Data Encipherment, Key Agreement
            X509v3 Extended Key Usage: 
                TLS Web Server Authentication, 1.2.840.113635.100.4.3, Signing KDC Response, Any Extended Key Usage
            X509v3 Certificate Policies: 
                Policy: 2.16.840.1.114414.1.7.23.1
                  CPS: http://certificates.starfieldtech.com/repository/

    Signature Algorithm: sha256WithRSAEncryption
         4f:6b:00:e3:b4:f5:2e:64:b4:ef:c9:1e:c0:80:f7:7f:c9:44:
         8f:c7:e1:77:10:ca:98:39:82:64:e9:37:f6:af:82:82:07:b0:
         ae:b6:54:75:e5:9a:12:33:8a:b9:64:59:e6:53:d3:3f:09:61:
         0e:63:d7:4b:9d:9b:a2:7e:3f:03:c7:10:ef:b7:0b:46:68:ae:
         97:41:4c:1f:34:ca:67:83:69:21:26:9b:03:dd:5f:96:b9:25:
         78:de:de:eb:fb:e8:7c:2e:2d:a2:ef:d7:39:4f:bb:4b:9d:6b:
         0d:c1:bf:27:48:a6:11:d5:9e:79:f8:c1:a2:f4:72:06:b1:39:
         7f:7c:ea:19:46:11:e1:88:48:40:4e:52:95:8b:e2:ca:9f:0a:
         58:f9:bc:a9:fa:b7:41:21:8e:f0:d1:d8:7f:6d:17:c2:41:c7:
         6d:5a:6a:f3:53:4a:10:c5:50:53:31:5c:65:93:a2:3d:85:a1:
         b7:10:00:3a:8c:95:b9:5b:e4:97:63:a2:e3:3d:d6:5e:a3:9b:
         84:4b:e5:84:0f:fe:89:d5:5c:b3:90:3a:11:31:6e:58:5f:67:
         a5:f5:fb:66:60:78:70:df:ff:07:37:db:22:ba:33:dd:ac:0e:
         aa:c6:5e:ae:70:7b:15:3e:f9:64:fd:e5:77:a9:fe:6e:20:49:
         61:0a:75:a9
-----BEGIN CERTIFICATE-----
MIIE7jCCA9igAwIBAgIEAN8B6DALBgkqhkiG9w0BAQswVDELMAkGA1UEBhMCVVMx
FjAUBgNVBAoTDU1vdGhlciBOYXR1cmUxEzARBgNVBAsTCkV2ZXJ5dGhpbmcxFjAU
BgNVBAMTDU1vdGhlciBOYXR1cmUxADAeFw0xNjEwMTAyMTM2NThaFw0xNjEyMjIy
MjM2NThaMIG7MQswCQYDVQQGEwJVUzEYMBYGA1UEChMPRXh0cmVtZSBEaXNjb3Jk
MQ4wDAYDVQQLEwVDaGFvczEUMBIGA1UEBxMLVGFsbGFoYXNzZWUxCzAJBgNVBAgT
AkZMMRwwGgYDVQQJExMzMjEwIEhvbGx5IE1pbGwgUnVuMQ4wDAYDVQQREwUzMDA2
MjEvMC0GA1UEAxMmd3d3LnRvdGFsbHlmYWtlLnRoZXJlc25vd2F5dGhpc2lzYWd0
bGQxADCCASIwDQYJKoZIhvcNAQEBBQADggEPADCCAQoCggEBAM4QXHn8hmqhLt9b
aLvb9/ENxKR+jiPhSSeHsg6osZ0J6vCs7a2jPjnWOPYEUArahXRYidyr3qPQUqGo
AkxWr94oWOx++gCNAaWRGyAHGH3l7wqSIGQEArQ42cik8jBwF0F046HflvxXc0mn
7H+Ww7Nl9+fPmcBYPtSzdqlEImQR9Oy78/2QfcnqGHsW7vchL/16bT/XgtyFjPFb
zu7q+I9S4CmrGe4eSYZhkYeJWbbCeEE1XJmf2cZ9t/TIZFZ1Pn42orZw4LIyAfKq
a35WeP02AwGioSFUEN9DpLxJURdhMQsmidYqbVv1qEC+QkZkN7+ZYoYkKH1kknbu
dAn9seECAwEAAaOCAWIwggFeMAwGA1UdEwEB/wQCMAAwDgYDVR0jBAcwBYADAQID
MFsGCCsGAQUFBwEBBE8wTTAhBggrBgEFBQcwAYYVaHR0cDovL3RoZWNhLm5ldC9v
Y3NwMCgGCCsGAQUFBzAChhx0aGVjYS5uZXQvdG90YWxseXRoZWNlcnQuY3J0MA8G
A1UdEQQIMAaHBICoLQEwKgYDVR0fBCMwITAfoB2gG4YZbGRhcDovL3RoZWNhLm5l
dC9jcmxwb2ludDANBgNVHQ4EBgQEBAMCATALBgNVHQ8EBAMCARgwLQYDVR0lBCYw
JAYIKwYBBQUHAwEGCSqGSIb3Y2QEAwYHKwYBBQIDBQYEVR0lADBZBgNVHSAEUjBQ
ME4GC2CGSAGG/W4BBxcBMD8wPQYIKwYBBQUHAgEWMWh0dHA6Ly9jZXJ0aWZpY2F0
ZXMuc3RhcmZpZWxkdGVjaC5jb20vcmVwb3NpdG9yeS8wCwYJKoZIhvcNAQELA4IB
AQBPawDjtPUuZLTvyR7AgPd/yUSPx+F3EMqYOYJk6Tf2r4KCB7CutlR15ZoSM4q5
ZFnmU9M/CWEOY9dLnZuifj8DxxDvtwtGaK6XQUwfNMpng2khJpsD3V+WuSV43t7r
++h8Li2i79c5T7tLnWsNwb8nSKYR1Z55+MGi9HIGsTl/fOoZRhHhiEhATlKVi+LK
nwpY+byp+rdBIY7w0dh/bRfCQcdtWmrzU0oQxVBTMVxlk6I9haG3EAA6jJW5W+SX
Y6LjPdZeo5uES+WED/6J1VyzkDoRMW5YX2el9ftmYHhw3/8HN9siujPdrA6qxl6u
cHsVPvlk/eV3qf5uIElhCnWp
-----END CERTIFICATE-----
