Certificate:
    Data:
        Version: 3 (0x2)
        Serial Number: 18008675309 (0x4316693ed)
    Signature Algorithm: sha256WithRSAEncryption
        Issuer: C = US, O = Mother Nature, OU = Everything, CN = Name constraint
        Validity
            Not Before: Dec  1 06:07:08 2055 GMT
            Not After : Oct  5 17:48:41 2056 GMT
        Subject: C = US, O = Extreme Discord, OU = Chaos, L = Tallahassee, ST = FL, street = 3210 Holly Mill Run, postalCode = 30062, CN = gov.us
        Subject Public Key Info:
            Public Key Algorithm: rsaEncryption
                Public-Key: (2048 bit)
                Modulus:
                    00:cf:a8:aa:36:6f:b4:33:8a:6c:e4:e8:85:e9:fb:
                    2c:7a:e2:36:bb:f9:27:39:ad:7a:a2:bd:53:3c:b5:
                    9a:bc:c6:2e:47:a8:46:04:f1:b0:07:81:19:e9:c2:
                    24:57:ac:46:ce:77:ff:e1:5c:11:a8:92:79:a9:47:
                    f5:9b:8e:9d:79:cf:30:ed:d5:75:aa:6a:60:e6:52:
                    67:df:3f:1f:fe:17:8c:d5:96:b3:0b:a8:0d:0f:92:
                    59:fc:26:1e:c3:37:dc:b0:f6:3c:5e:ee:92:8c:6e:
                    e4:ff:61:62:c9:f4:1f:d6:4b:9d:c8:d8:fc:25:89:
                    cd:3a:ac:7f:28:c0:58:3b:4d:f8:dd:14:b7:67:9f:
                    07:57:77:6c:4f:08:15:55:36:08:84:4a:dc:eb:8e:
                    b0:52:e7:7c:4c:6c:c9:69:90:24:5a:41:4d:73:e5:
                    83:44:f5:79:8d:a4:08:f1:d4:fb:2b:9a:83:b1:0e:
                    f0:79:9b:69:f0:67:6d:42:6d:30:a1:54:53:d7:61:
                    68:65:aa:6e:3c:ff:23:4f:8c:75:47:ed:a9:8f:e3:
                    51:61:38:99:c2:bb:28:d4:d5:50:6e:a6:60:83:2b:
                    78:b9:7e:00:67:99:84:b4:10:d0:f0:08:3f:6c:ef:
                    35:2e:35:82:2b:32:53:d8:36:48:c8:38:dc:06:06:
                    b2:21
                Exponent: 65537 (0x10001)
        X509v3 extensions:
            X509v3 Key Usage: critical
                Digital Signature, Key Encipherment, Certificate Sign
            X509v3 Extended Key Usage: 
                TLS Web Client Authentication, TLS Web Server Authentication
            X509v3 Basic Constraints: critical
                CA:TRUE
            X509v3 Authority Key Identifier: 
                keyid:01:02:03

            Authority Information Access: 
                OCSP - URI:http://theca.net/ocsp
                CA Issuers - URI:http://theca.net/totallythecert.crt

            X509v3 Subject Alternative Name: 
                URI:irrelevantinfo//user@192.168.1.1, DNS:www.dns.com
            X509v3 Issuer Alternative Name: 
                DNS:9„¡
            X509v3 Certificate Policies: 
                Policy: 2.23.140.1.2.2
                Policy: 1.2.3.4.5

            X509v3 Name Constraints: 
                Permitted:
                  email:good_email@gg.com
                  email:LulMail
                  DNS:permitted.com
                  DirName:C = US, O = UIUC, OU = ECE, L = Champaign, ST = IL, street = 601 Wright St, postalCode = 61820, CN = uiuc.net
                  IP:74.125.224.72/255.255.0.0
                Excluded:
                  email:bad_email@gg.com
                  email:LulMail
                  DNS:banned.com
                  DirName:C = US, O = Umich, OU = CS, L = Ann Arbor, ST = MI, street = 500 State St, postalCode = 48109, CN = umich.net
                  IP:192.168.1.1/255.255.0.0

    Signature Algorithm: sha256WithRSAEncryption
         8d:1a:2d:73:3d:73:f4:1b:aa:20:2b:e3:45:02:01:5b:d9:97:
         aa:64:6d:f7:d2:05:76:a8:b6:ef:a0:e5:98:cd:81:7c:eb:51:
         62:7b:32:aa:a3:69:91:f3:df:e4:57:bf:71:38:8b:91:00:b5:
         fa:26:8e:02:5a:c6:02:63:3b:91:13:c4:e3:df:15:54:bf:37:
         f4:62:57:98:1a:36:3d:13:d1:65:1c:50:71:6e:1d:97:e8:e8:
         36:0d:9a:27:1e:33:aa:72:3b:b7:1b:eb:ee:32:e4:a4:ae:02:
         a8:0c:38:98:f7:a3:8b:c1:65:24:df:e9:54:66:1f:e8:a4:a7:
         05:f6:0c:3b:f1:ff:44:0f:fb:68:c7:3a:ba:89:28:4d:0a:fb:
         94:b5:4e:3c:54:09:40:0d:ab:50:3b:ec:6e:65:ce:d3:92:4a:
         e6:20:18:4d:09:63:8f:0f:27:cb:e5:50:e4:f3:21:97:8c:2e:
         63:dd:36:71:dd:4a:a1:e3:37:5d:0b:d2:bf:27:7b:dc:07:64:
         7b:1e:e9:5a:c8:da:ad:8c:d8:e3:58:98:5e:7c:cb:5a:62:61:
         d4:b4:30:83:6d:43:b1:96:5f:e6:2c:ba:1c:d2:ac:a4:be:7d:
         50:5a:8e:85:4f:1f:44:ab:75:99:44:c2:85:77:9f:5b:e6:bd:
         87:49:97:0d
-----BEGIN CERTIFICATE-----
MIIGQTCCBSugAwIBAgIFBDFmk+0wCwYJKoZIhvcNAQELMFYxCzAJBgNVBAYTAlVT
MRYwFAYDVQQKEw1Nb3RoZXIgTmF0dXJlMRMwEQYDVQQLEwpFdmVyeXRoaW5nMRgw
FgYDVQQDEw9OYW1lIGNvbnN0cmFpbnQxADAiGA8yMDU1MTIwMTA2MDcwOFoYDzIw
NTYxMDA1MTc0ODQxWjCBmzELMAkGA1UEBhMCVVMxGDAWBgNVBAoTD0V4dHJlbWUg
RGlzY29yZDEOMAwGA1UECxMFQ2hhb3MxFDASBgNVBAcTC1RhbGxhaGFzc2VlMQsw
CQYDVQQIEwJGTDEcMBoGA1UECRMTMzIxMCBIb2xseSBNaWxsIFJ1bjEOMAwGA1UE
ERMFMzAwNjIxDzANBgNVBAMTBmdvdi51czEAMIIBIjANBgkqhkiG9w0BAQEFAAOC
AQ8AMIIBCgKCAQEAz6iqNm+0M4ps5OiF6fsseuI2u/knOa16or1TPLWavMYuR6hG
BPGwB4EZ6cIkV6xGznf/4VwRqJJ5qUf1m46dec8w7dV1qmpg5lJn3z8f/heM1Zaz
C6gND5JZ/CYewzfcsPY8Xu6SjG7k/2FiyfQf1kudyNj8JYnNOqx/KMBYO0343RS3
Z58HV3dsTwgVVTYIhErc646wUud8TGzJaZAkWkFNc+WDRPV5jaQI8dT7K5qDsQ7w
eZtp8GdtQm0woVRT12FoZapuPP8jT4x1R+2pj+NRYTiZwrso1NVQbqZggyt4uX4A
Z5mEtBDQ8Ag/bO81LjWCKzJT2DZIyDjcBgayIQIDAQABo4ICzjCCAsowDgYDVR0P
AQH/BAQDAgCkMB0GA1UdJQQWMBQGCCsGAQUFBwMCBggrBgEFBQcDATAPBgNVHRMB
Af8EBTADAQH/MA4GA1UdIwQHMAWAAwECAzBiBggrBgEFBQcBAQRWMFQwIQYIKwYB
BQUHMAGGFWh0dHA6Ly90aGVjYS5uZXQvb2NzcDAvBggrBgEFBQcwAoYjaHR0cDov
L3RoZWNhLm5ldC90b3RhbGx5dGhlY2VydC5jcnQwOAYDVR0RBDEwL4YgaXJyZWxl
dmFudGluZm8vL3VzZXJAMTkyLjE2OC4xLjGCC3d3dy5kbnMuY29tMA4GA1UdEgQH
MAWCAznjwTAbBgNVHSAEFDASMAgGBmeBDAECAjAGBgQqAwQFMIIBqwYDVR0eBIIB
ojCCAZ6ggc4wE4ERZ29vZF9lbWFpbEBnZy5jb20wCYEHTHVsTWFpbDAPgg1wZXJt
aXR0ZWQuY29tMIGOpIGLMIGIMQswCQYDVQQGEwJVUzENMAsGA1UEChMEVUlVQzEM
MAoGA1UECxMDRUNFMRIwEAYDVQQHEwlDaGFtcGFpZ24xCzAJBgNVBAgTAklMMRYw
FAYDVQQJEw02MDEgV3JpZ2h0IFN0MQ4wDAYDVQQREwU2MTgyMDERMA8GA1UEAxMI
dWl1Yy5uZXQxADAKhwhKfeBI//8AAKGByjASgRBiYWRfZW1haWxAZ2cuY29tMAmB
B0x1bE1haWwwDIIKYmFubmVkLmNvbTCBjqSBizCBiDELMAkGA1UEBhMCVVMxDjAM
BgNVBAoTBVVtaWNoMQswCQYDVQQLEwJDUzESMBAGA1UEBxMJQW5uIEFyYm9yMQsw
CQYDVQQIEwJNSTEVMBMGA1UECRMMNTAwIFN0YXRlIFN0MQ4wDAYDVQQREwU0ODEw
OTESMBAGA1UEAxMJdW1pY2gubmV0MQAwCocIwKgBAf//AAAwCwYJKoZIhvcNAQEL
A4IBAQCNGi1zPXP0G6ogK+NFAgFb2ZeqZG330gV2qLbvoOWYzYF861FiezKqo2mR
89/kV79xOIuRALX6Jo4CWsYCYzuRE8Tj3xVUvzf0YleYGjY9E9FlHFBxbh2X6Og2
DZonHjOqcju3G+vuMuSkrgKoDDiY96OLwWUk3+lUZh/opKcF9gw78f9ED/toxzq6
iShNCvuUtU48VAlADatQO+xuZc7TkkrmIBhNCWOPDyfL5VDk8yGXjC5j3TZx3Uqh
4zddC9K/J3vcB2R7HulayNqtjNjjWJhefMtaYmHUtDCDbUOxll/mLLoc0qykvn1Q
Wo6FTx9Eq3WZRMKFd59b5r2HSZcN
-----END CERTIFICATE-----
