Certificate:
    Data:
        Version: 3 (0x2)
        Serial Number: 18008675309 (0x4316693ed)
    Signature Algorithm: sha256WithRSAEncryption
        Issuer: C = US, O = Mother Nature, OU = Everything, CN = Name constraint
        Validity
            Not Before: Dec  1 06:07:08 2055 GMT
            Not After : Oct  5 23:52:58 2056 GMT
        Subject: C = US, O = Extreme Discord, OU = Chaos, L = Tallahassee, ST = FL, street = 3210 Holly Mill Run, postalCode = 30062, CN = gov.us
        Subject Public Key Info:
            Public Key Algorithm: rsaEncryption
                Public-Key: (2048 bit)
                Modulus:
                    00:da:55:68:f2:6d:b7:c8:b1:94:e4:60:4e:6f:18:
                    46:00:c6:09:35:f3:31:2d:7c:26:19:a6:03:40:63:
                    7f:66:bf:36:64:af:98:e6:86:30:0d:df:0e:a5:99:
                    8b:c5:4d:5a:45:f5:a8:2d:2b:3a:25:0f:cb:6d:fb:
                    5d:bd:3e:67:9e:cf:b1:14:3f:d9:a5:ba:1e:82:19:
                    59:be:90:3c:7a:ca:4c:e7:30:d1:e6:2e:10:b3:ca:
                    66:7e:a6:eb:01:17:4a:57:59:21:4c:37:e0:17:0e:
                    9a:19:39:9a:b5:d1:dc:c1:f2:7e:53:a8:ce:69:73:
                    d3:23:c4:b8:a2:53:78:2e:cc:95:d2:c0:9a:25:3f:
                    dc:d5:20:57:39:d7:d0:8c:b1:9e:d9:cc:70:23:20:
                    73:bf:0c:63:d3:b8:2e:b9:8c:ea:dc:a8:fb:d9:df:
                    6c:2b:25:8f:01:d4:dd:06:78:2d:28:7d:a3:bd:5a:
                    bd:5e:77:05:a3:e8:ee:0f:e9:e1:40:eb:11:3c:2a:
                    80:68:4e:5c:76:c7:52:17:e6:13:b8:91:7f:66:b0:
                    1e:e6:88:58:d1:48:b2:4e:0f:45:af:15:5e:f2:17:
                    f7:3c:1d:eb:87:dc:a3:1e:e0:bb:27:40:f4:33:7f:
                    7e:76:68:66:c9:f6:2b:03:30:e9:f4:d9:d7:b1:65:
                    d5:bd
                Exponent: 65537 (0x10001)
        X509v3 extensions:
            X509v3 Key Usage: critical
                Digital Signature, Key Encipherment, Certificate Sign
            X509v3 Extended Key Usage: 
                TLS Web Client Authentication, TLS Web Server Authentication
            X509v3 Basic Constraints: critical
                CA:TRUE
            X509v3 Authority Key Identifier: 
                keyid:01:02:03

            Authority Information Access: 
                OCSP - URI:http://theca.net/ocsp
                CA Issuers - URI:http://theca.net/totallythecert.crt

            X509v3 Subject Alternative Name: 
                URI:irrelevantinfo//user@192.168.1.1, DNS:www.dns.com
            X509v3 Issuer Alternative Name: 
                <EMPTY>

            X509v3 Certificate Policies: 
                Policy: 2.23.140.1.2.2
                Policy: 1.2.3.4.5

            X509v3 Name Constraints: 
                Permitted:
                  email:good_email@gg.com
                  email:LulMail
                  DNS:permitted.com
                  DirName:C = US, O = UIUC, OU = ECE, L = Champaign, ST = IL, street = 601 Wright St, postalCode = 61820, CN = uiuc.net
                  IP:74.125.224.72/255.255.0.0
                Excluded:
                  email:bad_email@gg.com
                  email:LulMail
                  DNS:banned.com
                  DirName:C = US, O = Umich, OU = CS, L = Ann Arbor, ST = MI, street = 500 State St, postalCode = 48109, CN = umich.net
                  IP:192.168.1.1/255.255.0.0

    Signature Algorithm: sha256WithRSAEncryption
         df:03:bc:31:f3:70:99:a3:e4:86:fa:b7:af:af:7d:8b:69:c1:
         c0:fc:44:05:1c:62:38:97:21:d0:59:b0:5d:56:c0:c2:6f:a3:
         7b:c3:d7:cd:5c:20:b7:f8:c4:68:71:66:0d:35:67:2d:96:fc:
         84:65:f0:e8:53:f9:ac:86:1d:af:a4:04:1c:2f:9e:ad:a0:c2:
         58:09:7f:3e:e8:67:80:24:21:88:4b:8c:83:ee:4b:3e:8f:b1:
         98:fa:4c:d1:3a:75:b5:03:78:ab:82:50:f2:70:5d:db:95:0a:
         1a:18:9b:0b:a7:de:15:8f:23:b3:11:28:74:fa:73:70:ca:97:
         c5:d6:51:99:17:38:c1:a5:71:ac:2f:4e:21:2b:30:11:ec:20:
         00:0d:9e:ea:48:7b:c1:df:da:3c:55:d1:17:d2:da:16:93:bf:
         75:1b:ec:b2:b3:bb:a0:c7:fa:40:c5:62:29:99:85:3a:f2:57:
         28:f5:2f:3a:d0:ac:40:eb:a9:67:ee:cd:e0:d8:a8:1d:a8:2e:
         24:53:d6:ae:50:cd:ed:bc:71:6a:76:75:df:6c:16:12:60:2d:
         6a:be:28:4a:c2:67:85:6c:29:80:82:c2:87:d6:b9:b8:c7:83:
         ae:12:88:5b:7b:07:25:10:67:af:70:96:b2:10:7c:90:8d:83:
         70:b5:77:e0
-----BEGIN CERTIFICATE-----
MIIGPjCCBSigAwIBAgIFBDFmk+0wCwYJKoZIhvcNAQELMFYxCzAJBgNVBAYTAlVT
MRYwFAYDVQQKEw1Nb3RoZXIgTmF0dXJlMRMwEQYDVQQLEwpFdmVyeXRoaW5nMRgw
FgYDVQQDEw9OYW1lIGNvbnN0cmFpbnQxADAiGA8yMDU1MTIwMTA2MDcwOFoYDzIw
NTYxMDA1MjM1MjU4WjCBmzELMAkGA1UEBhMCVVMxGDAWBgNVBAoTD0V4dHJlbWUg
RGlzY29yZDEOMAwGA1UECxMFQ2hhb3MxFDASBgNVBAcTC1RhbGxhaGFzc2VlMQsw
CQYDVQQIEwJGTDEcMBoGA1UECRMTMzIxMCBIb2xseSBNaWxsIFJ1bjEOMAwGA1UE
ERMFMzAwNjIxDzANBgNVBAMTBmdvdi51czEAMIIBIjANBgkqhkiG9w0BAQEFAAOC
AQ8AMIIBCgKCAQEA2lVo8m23yLGU5GBObxhGAMYJNfMxLXwmGaYDQGN/Zr82ZK+Y
5oYwDd8OpZmLxU1aRfWoLSs6JQ/LbftdvT5nns+xFD/ZpboeghlZvpA8espM5zDR
5i4Qs8pmfqbrARdKV1khTDfgFw6aGTmatdHcwfJ+U6jOaXPTI8S4olN4LsyV0sCa
JT/c1SBXOdfQjLGe2cxwIyBzvwxj07guuYzq3Kj72d9sKyWPAdTdBngtKH2jvVq9
XncFo+juD+nhQOsRPCqAaE5cdsdSF+YTuJF/ZrAe5ohY0UiyTg9FrxVe8hf3PB3r
h9yjHuC7J0D0M39+dmhmyfYrAzDp9NnXsWXVvQIDAQABo4ICyzCCAscwDgYDVR0P
AQH/BAQDAgCkMB0GA1UdJQQWMBQGCCsGAQUFBwMCBggrBgEFBQcDATAPBgNVHRMB
Af8EBTADAQH/MA4GA1UdIwQHMAWAAwECAzBiBggrBgEFBQcBAQRWMFQwIQYIKwYB
BQUHMAGGFWh0dHA6Ly90aGVjYS5uZXQvb2NzcDAvBggrBgEFBQcwAoYjaHR0cDov
L3RoZWNhLm5ldC90b3RhbGx5dGhlY2VydC5jcnQwOAYDVR0RBDEwL4YgaXJyZWxl
dmFudGluZm8vL3VzZXJAMTkyLjE2OC4xLjGCC3d3dy5kbnMuY29tMAsGA1UdEgQE
MACCADAbBgNVHSAEFDASMAgGBmeBDAECAjAGBgQqAwQFMIIBqwYDVR0eBIIBojCC
AZ6ggc4wE4ERZ29vZF9lbWFpbEBnZy5jb20wCYEHTHVsTWFpbDAPgg1wZXJtaXR0
ZWQuY29tMIGOpIGLMIGIMQswCQYDVQQGEwJVUzENMAsGA1UEChMEVUlVQzEMMAoG
A1UECxMDRUNFMRIwEAYDVQQHEwlDaGFtcGFpZ24xCzAJBgNVBAgTAklMMRYwFAYD
VQQJEw02MDEgV3JpZ2h0IFN0MQ4wDAYDVQQREwU2MTgyMDERMA8GA1UEAxMIdWl1
Yy5uZXQxADAKhwhKfeBI//8AAKGByjASgRBiYWRfZW1haWxAZ2cuY29tMAmBB0x1
bE1haWwwDIIKYmFubmVkLmNvbTCBjqSBizCBiDELMAkGA1UEBhMCVVMxDjAMBgNV
BAoTBVVtaWNoMQswCQYDVQQLEwJDUzESMBAGA1UEBxMJQW5uIEFyYm9yMQswCQYD
VQQIEwJNSTEVMBMGA1UECRMMNTAwIFN0YXRlIFN0MQ4wDAYDVQQREwU0ODEwOTES
MBAGA1UEAxMJdW1pY2gubmV0MQAwCocIwKgBAf//AAAwCwYJKoZIhvcNAQELA4IB
AQDfA7wx83CZo+SG+revr32LacHA/EQFHGI4lyHQWbBdVsDCb6N7w9fNXCC3+MRo
cWYNNWctlvyEZfDoU/mshh2vpAQcL56toMJYCX8+6GeAJCGIS4yD7ks+j7GY+kzR
OnW1A3irglDycF3blQoaGJsLp94VjyOzESh0+nNwypfF1lGZFzjBpXGsL04hKzAR
7CAADZ7qSHvB39o8VdEX0toWk791G+yys7ugx/pAxWIpmYU68lco9S860KxA66ln
7s3g2KgdqC4kU9auUM3tvHFqdnXfbBYSYC1qvihKwmeFbCmAgsKH1rm4x4OuEohb
ewclEGevcJayEHyQjYNwtXfg
-----END CERTIFICATE-----
