Certificate:
    Data:
        Version: 3 (0x2)
        Serial Number: 18008675309 (0x4316693ed)
    Signature Algorithm: sha256WithRSAEncryption
        Issuer: C = US, O = Mother Nature, OU = Everything, CN = Mother Nature
        Validity
            Not Before: Jun 30 16:14:08 2016 GMT
            Not After : Sep 11 16:14:08 2016 GMT
        Subject: C = US, ST = FL, L = Tallahassee, street = 3210 Holly Mill Run, postalCode = 30062, O = Extreme Discord, OU = Chaos, CN = gov.us
        Subject Public Key Info:
            Public Key Algorithm: rsaEncryption
                Public-Key: (2048 bit)
                Modulus:
                    00:da:97:65:3b:96:7c:73:b8:72:24:e9:de:b2:fc:
                    e6:4a:42:df:36:aa:19:7f:11:49:4b:61:9c:13:63:
                    8b:25:a5:2d:44:f8:99:ed:e8:b2:e6:5b:b1:35:98:
                    db:88:1e:ce:bd:21:c3:72:75:c6:55:2e:07:22:dc:
                    29:5a:93:8a:5b:18:1d:d4:46:98:b7:75:cb:8e:3f:
                    7c:14:d4:51:fa:0f:0a:2c:15:d7:e5:b9:e1:ef:86:
                    24:21:f0:7e:f3:4b:36:e7:92:da:8e:58:9d:22:e6:
                    57:a9:45:2b:91:d3:fe:0b:e0:e8:aa:ca:23:a1:26:
                    f8:4f:98:25:92:7b:01:f3:50:0a:6c:da:ab:af:89:
                    fe:2c:25:e3:1c:ce:8f:81:eb:da:85:b7:02:d6:2e:
                    b0:a9:1a:b5:22:d4:dd:4b:47:f2:51:b8:7e:27:ce:
                    e5:28:0e:07:e7:25:4e:ba:7a:c5:3b:94:37:ea:b4:
                    74:c0:5b:e2:c4:ea:63:09:b4:28:0d:83:67:b3:ce:
                    45:de:2d:70:f9:c3:b4:86:59:e7:a0:32:5d:15:30:
                    a1:ce:d1:7f:95:88:74:87:57:88:5a:aa:49:d6:97:
                    e8:be:2b:33:cb:86:92:62:62:c7:45:98:73:0b:bc:
                    d4:0f:60:19:6f:26:d3:67:d2:00:5a:5b:f0:be:63:
                    e4:81
                Exponent: 65537 (0x10001)
        X509v3 extensions:
            X509v3 Key Usage: critical
                Digital Signature, Key Encipherment
            X509v3 Extended Key Usage: 
                TLS Web Client Authentication, TLS Web Server Authentication
            X509v3 Basic Constraints: critical
                CA:FALSE
            X509v3 Authority Key Identifier: 
                keyid:01:02:03

            Authority Information Access: 
                OCSP - URI:http://theca.net/ocsp
                CA Issuers - URI:http://theca.net/totallythecert.crt

            X509v3 Certificate Policies: 
                Policy: 1.3.6.1.5.5.7.13.1
                Policy: 2.23.140.1.2.2
                Policy: 1.3.6.1.5.5.7.13.1

            X509v3 Subject Key Identifier: 
                04:03:02:01
            X509v3 Subject Alternative Name: 
                DNS:*.gov.us, DNS:gov.us
            X509v3 Issuer Alternative Name: 
                DNS:allthethings.net, DNS:theca.net
    Signature Algorithm: sha256WithRSAEncryption
         09:13:26:fb:7d:76:77:f1:26:ec:62:ad:f1:ea:e2:16:a1:f9:
         2d:59:da:51:cf:23:c2:75:39:75:a7:98:ef:a7:1a:ba:61:4c:
         57:cb:81:a4:72:26:fa:01:8a:a3:83:35:d6:e3:ba:f8:60:d0:
         3f:75:60:59:80:56:a4:0d:43:f7:47:20:66:19:d8:3b:1b:6a:
         3b:1f:7e:b3:fa:6a:e2:d4:e7:ab:ba:d2:a7:4e:61:a5:15:d6:
         b1:a7:f3:be:8a:b3:75:98:09:86:dd:63:41:44:8f:9b:98:bf:
         86:33:80:03:a7:74:db:c4:8a:de:11:7c:c4:2c:31:7b:bd:11:
         97:fb:32:00:b6:54:73:ae:f2:ea:69:00:d7:86:dc:45:82:57:
         49:2c:7d:cc:50:90:16:bc:55:c6:fc:60:bf:14:46:c0:c8:43:
         e2:69:7f:e7:4f:3e:6e:cb:f0:4e:05:70:11:a7:87:81:cb:09:
         78:7a:f9:ad:46:a8:7d:b2:81:10:f8:7f:42:01:76:bf:98:9a:
         38:f2:a6:52:db:8d:9e:91:7f:da:56:be:cf:f0:c3:ae:93:2f:
         15:ea:44:dc:e0:1b:8a:e2:33:54:8b:eb:9c:26:27:4c:0d:98:
         99:fa:c7:fe:f1:14:c7:aa:3d:8a:d7:73:7e:5c:bc:e1:4f:6f:
         4f:d3:6e:64
-----BEGIN CERTIFICATE-----
MIIEozCCA4ugAwIBAgIFBDFmk+0wDQYJKoZIhvcNAQELBQAwUjELMAkGA1UEBhMC
VVMxFjAUBgNVBAoTDU1vdGhlciBOYXR1cmUxEzARBgNVBAsTCkV2ZXJ5dGhpbmcx
FjAUBgNVBAMTDU1vdGhlciBOYXR1cmUwHhcNMTYwNjMwMTYxNDA4WhcNMTYwOTEx
MTYxNDA4WjCBmTELMAkGA1UEBhMCVVMxCzAJBgNVBAgTAkZMMRQwEgYDVQQHEwtU
YWxsYWhhc3NlZTEcMBoGA1UECRMTMzIxMCBIb2xseSBNaWxsIFJ1bjEOMAwGA1UE
ERMFMzAwNjIxGDAWBgNVBAoTD0V4dHJlbWUgRGlzY29yZDEOMAwGA1UECxMFQ2hh
b3MxDzANBgNVBAMTBmdvdi51czCCASIwDQYJKoZIhvcNAQEBBQADggEPADCCAQoC
ggEBANqXZTuWfHO4ciTp3rL85kpC3zaqGX8RSUthnBNjiyWlLUT4me3osuZbsTWY
24gezr0hw3J1xlUuByLcKVqTilsYHdRGmLd1y44/fBTUUfoPCiwV1+W54e+GJCHw
fvNLNueS2o5YnSLmV6lFK5HT/gvg6KrKI6Em+E+YJZJ7AfNQCmzaq6+J/iwl4xzO
j4Hr2oW3AtYusKkatSLU3UtH8lG4fifO5SgOB+clTrp6xTuUN+q0dMBb4sTqYwm0
KA2DZ7PORd4tcPnDtIZZ56AyXRUwoc7Rf5WIdIdXiFqqSdaX6L4rM8uGkmJix0WY
cwu81A9gGW8m02fSAFpb8L5j5IECAwEAAaOCATYwggEyMA4GA1UdDwEB/wQEAwIF
oDAdBgNVHSUEFjAUBggrBgEFBQcDAgYIKwYBBQUHAwEwDAYDVR0TAQH/BAIwADAO
BgNVHSMEBzAFgAMBAgMwYgYIKwYBBQUHAQEEVjBUMCEGCCsGAQUFBzABhhVodHRw
Oi8vdGhlY2EubmV0L29jc3AwLwYIKwYBBQUHMAKGI2h0dHA6Ly90aGVjYS5uZXQv
dG90YWxseXRoZWNlcnQuY3J0MCsGA1UdIAQkMCIwCgYIKwYBBQUHDQEwCAYGZ4EM
AQICMAoGCCsGAQUFBw0BMA0GA1UdDgQGBAQEAwIBMBsGA1UdEQQUMBKCCCouZ292
LnVzggZnb3YudXMwJgYDVR0SBB8wHYIQYWxsdGhldGhpbmdzLm5ldIIJdGhlY2Eu
bmV0MA0GCSqGSIb3DQEBCwUAA4IBAQAJEyb7fXZ38SbsYq3x6uIWofktWdpRzyPC
dTl1p5jvpxq6YUxXy4Gkcib6AYqjgzXW47r4YNA/dWBZgFakDUP3RyBmGdg7G2o7
H36z+mri1OerutKnTmGlFdaxp/O+irN1mAmG3WNBRI+bmL+GM4ADp3TbxIreEXzE
LDF7vRGX+zIAtlRzrvLqaQDXhtxFgldJLH3MUJAWvFXG/GC/FEbAyEPiaX/nTz5u
y/BOBXARp4eBywl4evmtRqh9soEQ+H9CAXa/mJo48qZS242ekX/aVr7P8MOuky8V
6kTc4BuK4jNUi+ucJidMDZiZ+sf+8RTHqj2K13N+XLzhT29P025k
-----END CERTIFICATE-----
