Certificate:
    Data:
        Version: 3 (0x2)
        Serial Number: 18008675309 (0x4316693ed)
    Signature Algorithm: sha256WithRSAEncryption
        Issuer: C = US, O = Mother Nature, OU = Everything, CN = Mother Nature
        Validity
            Not Before: Apr 14 21:19:53 2017 GMT
            Not After : Jun 26 21:19:53 2017 GMT
        Subject: C = US, ST = FL, L = Tallahassee, street = 3210 Holly Mill Run, postalCode = 30062, O = Extreme Discord, OU = Chaos, CN = gov.us
        Subject Public Key Info:
            Public Key Algorithm: rsaEncryption
                Public-Key: (2048 bit)
                Modulus:
                    00:9e:b5:25:09:49:af:a0:89:0b:40:d8:2b:a4:2c:
                    fc:00:8d:e4:96:bd:1f:5b:bb:b2:69:ce:44:dd:ba:
                    04:5e:e2:f3:ef:2f:4e:84:dc:f5:a2:71:8d:15:cd:
                    6f:e2:3b:46:74:22:2f:5f:7f:ea:dd:f3:19:1f:70:
                    95:87:ac:81:9c:78:0b:2b:48:e0:be:85:01:79:e2:
                    71:7e:51:20:13:7e:bb:15:d3:22:e7:c9:bf:80:1b:
                    8a:56:12:8b:80:43:87:d2:4e:88:ff:d2:de:26:4f:
                    0d:a1:c4:86:79:81:02:f4:1b:28:5e:95:60:9c:e1:
                    c7:47:39:78:88:c5:c4:96:b0:48:aa:ed:4a:f2:5f:
                    97:ff:a7:76:28:eb:5f:97:bd:53:86:68:8c:5e:68:
                    f5:83:7a:36:1c:5e:d8:18:b5:98:89:9a:3b:f4:11:
                    40:9f:64:26:f0:4a:f8:8e:73:39:e8:12:ba:80:11:
                    d4:44:2f:70:0a:b1:3b:d4:e6:9c:17:a6:2f:0f:f8:
                    f6:9e:2d:e8:4a:0d:92:0b:27:f1:43:7b:84:92:7c:
                    87:d6:3a:ab:7c:bb:5e:6c:86:36:b4:92:b3:79:b6:
                    8b:8a:3a:0b:18:25:b3:38:2a:80:13:c2:15:12:5e:
                    a2:2e:87:e4:f9:2a:c9:92:59:79:fb:b8:8e:db:9d:
                    39:c3
                Exponent: 65537 (0x10001)
        X509v3 extensions:
            X509v3 Key Usage: critical
                Digital Signature, Key Encipherment
            X509v3 Extended Key Usage: 
                TLS Web Client Authentication, TLS Web Server Authentication
            X509v3 Basic Constraints: critical
                CA:FALSE
            X509v3 Authority Key Identifier: 
                keyid:01:02:03

            Authority Information Access: 
                OCSP - URI:http://theca.net/ocsp
                CA Issuers - URI:http://theca.net/totallythecert.crt

            X509v3 Certificate Policies: 
                Policy: 2.23.140.1.2.2

            X509v3 Subject Key Identifier: 
                04:03:02:01
            X509v3 Issuer Alternative Name: 
                DNS:gov, DNS:gov.us
    Signature Algorithm: sha256WithRSAEncryption
         ae:48:02:ad:bc:f2:c2:78:d2:d3:00:7f:5f:9f:5f:3d:8d:a4:
         40:15:43:05:4c:de:f1:d6:b3:3c:a3:63:e9:c8:8a:75:53:58:
         50:0f:de:76:8c:43:e4:e6:a9:01:88:c2:67:9b:5d:85:bd:f3:
         9d:00:a5:2a:24:af:5c:fe:07:aa:ba:aa:c5:e1:d4:41:ae:b8:
         d5:b3:6d:d9:53:6c:e1:84:6e:59:64:6c:fd:fb:56:dc:96:ef:
         6e:8b:f8:9c:93:d7:5e:b7:a4:a6:68:68:76:60:e4:48:de:73:
         83:ba:d2:e7:ba:9c:b6:d5:8b:b8:27:9d:67:0d:9f:bf:fa:75:
         a8:6b:ff:13:5a:3c:48:5e:ec:75:c0:b9:1a:20:37:0d:d3:d9:
         18:2d:4c:19:43:6c:99:97:d1:18:43:04:4e:4c:54:45:ca:70:
         0b:61:71:fe:57:6f:6e:e0:2f:62:af:f5:fd:a5:ea:17:36:d8:
         44:20:2d:d9:a1:e5:4d:6b:9e:c0:64:ce:77:af:01:fe:2d:b2:
         8f:48:1b:27:9b:9d:12:c1:55:f6:58:b9:bb:d0:36:32:af:26:
         2b:fe:9c:00:d3:57:48:76:ac:12:20:4e:b7:db:f8:cd:93:78:
         c9:b5:38:da:0a:17:ae:a2:05:ac:2d:87:4d:60:c8:18:33:0b:
         7e:c6:33:be
-----BEGIN CERTIFICATE-----
MIIEXDCCA0SgAwIBAgIFBDFmk+0wDQYJKoZIhvcNAQELBQAwUjELMAkGA1UEBhMC
VVMxFjAUBgNVBAoTDU1vdGhlciBOYXR1cmUxEzARBgNVBAsTCkV2ZXJ5dGhpbmcx
FjAUBgNVBAMTDU1vdGhlciBOYXR1cmUwHhcNMTcwNDE0MjExOTUzWhcNMTcwNjI2
MjExOTUzWjCBmTELMAkGA1UEBhMCVVMxCzAJBgNVBAgTAkZMMRQwEgYDVQQHEwtU
YWxsYWhhc3NlZTEcMBoGA1UECRMTMzIxMCBIb2xseSBNaWxsIFJ1bjEOMAwGA1UE
ERMFMzAwNjIxGDAWBgNVBAoTD0V4dHJlbWUgRGlzY29yZDEOMAwGA1UECxMFQ2hh
b3MxDzANBgNVBAMTBmdvdi51czCCASIwDQYJKoZIhvcNAQEBBQADggEPADCCAQoC
ggEBAJ61JQlJr6CJC0DYK6Qs/ACN5Ja9H1u7smnORN26BF7i8+8vToTc9aJxjRXN
b+I7RnQiL19/6t3zGR9wlYesgZx4CytI4L6FAXnicX5RIBN+uxXTIufJv4AbilYS
i4BDh9JOiP/S3iZPDaHEhnmBAvQbKF6VYJzhx0c5eIjFxJawSKrtSvJfl/+ndijr
X5e9U4ZojF5o9YN6Nhxe2Bi1mImaO/QRQJ9kJvBK+I5zOegSuoAR1EQvcAqxO9Tm
nBemLw/49p4t6EoNkgsn8UN7hJJ8h9Y6q3y7XmyGNrSSs3m2i4o6CxglszgqgBPC
FRJeoi6H5PkqyZJZefu4jtudOcMCAwEAAaOB8DCB7TAOBgNVHQ8BAf8EBAMCBaAw
HQYDVR0lBBYwFAYIKwYBBQUHAwIGCCsGAQUFBwMBMAwGA1UdEwEB/wQCMAAwDgYD
VR0jBAcwBYADAQIDMGIGCCsGAQUFBwEBBFYwVDAhBggrBgEFBQcwAYYVaHR0cDov
L3RoZWNhLm5ldC9vY3NwMC8GCCsGAQUFBzAChiNodHRwOi8vdGhlY2EubmV0L3Rv
dGFsbHl0aGVjZXJ0LmNydDATBgNVHSAEDDAKMAgGBmeBDAECAjANBgNVHQ4EBgQE
BAMCATAWBgNVHRIEDzANggNnb3aCBmdvdi51czANBgkqhkiG9w0BAQsFAAOCAQEA
rkgCrbzywnjS0wB/X59fPY2kQBVDBUze8dazPKNj6ciKdVNYUA/edoxD5OapAYjC
Z5tdhb3znQClKiSvXP4HqrqqxeHUQa641bNt2VNs4YRuWWRs/ftW3Jbvbov4nJPX
XrekpmhodmDkSN5zg7rS57qcttWLuCedZw2fv/p1qGv/E1o8SF7sdcC5GiA3DdPZ
GC1MGUNsmZfRGEMETkxURcpwC2Fx/ldvbuAvYq/1/aXqFzbYRCAt2aHlTWuewGTO
d68B/i2yj0gbJ5udEsFV9li5u9A2Mq8mK/6cANNXSHasEiBOt9v4zZN4ybU42goX
rqIFrC2HTWDIGDMLfsYzvg==
-----END CERTIFICATE-----
