Certificate:
    Data:
        Version: 3 (0x2)
        Serial Number: 18008675309 (0x4316693ed)
    Signature Algorithm: sha256WithRSAEncryption
        Issuer: C = US, O = Mother Nature, OU = Everything, CN = Mother Nature
        Validity
            Not Before: Mar 17 22:13:02 2017 GMT
            Not After : May 29 22:13:02 2017 GMT
        Subject: C = US, O = Extreme Discord, OU = Chaos, L = Tallahassee, ST = FL, street = 3210 Holly Mill Run, postalCode = 30062, CN = gov.us
        Subject Public Key Info:
            Public Key Algorithm: rsaEncryption
                Public-Key: (2048 bit)
                Modulus:
                    00:cc:e4:c1:a3:71:11:ad:9e:8b:ee:7c:05:9d:0f:
                    71:7a:e7:7c:f5:9f:2a:ad:b6:5f:6b:5a:f4:e6:df:
                    bb:94:d5:17:2e:ea:9b:21:1a:d5:ca:5e:27:a7:99:
                    cc:d8:3f:ab:8f:c6:c1:dd:b7:3a:9f:b5:86:e7:85:
                    22:d0:46:b5:8a:c4:21:57:bc:6c:39:f7:91:53:85:
                    7b:ae:b8:9f:ae:7b:cf:e5:e7:ac:5e:a5:d0:4b:83:
                    20:2a:ed:70:7a:24:6e:6c:39:c4:05:20:20:fb:47:
                    c8:44:02:2c:d3:b7:06:ad:52:a7:ca:da:76:e0:44:
                    80:6b:d8:63:09:ab:a0:9f:ef:95:e4:b0:3c:1d:05:
                    ee:c1:38:64:89:c9:50:31:e5:2c:e8:35:10:3c:5b:
                    59:3b:95:b4:a1:ce:f0:2c:7e:d9:9a:98:9b:0a:5a:
                    1c:68:19:4b:b5:0b:fb:7b:ec:1e:03:f1:bc:87:2c:
                    31:4f:4b:99:f2:77:bf:db:6b:14:46:06:22:8f:07:
                    32:a0:92:32:f3:a7:c2:9d:6b:73:a0:79:bc:82:ad:
                    fa:03:f4:ba:f3:8d:23:5b:b6:37:6e:9f:ed:af:c2:
                    e3:c6:c0:69:79:48:3d:cd:10:5c:a2:58:fe:55:b1:
                    0b:e8:5a:c2:8a:ca:9d:63:47:fb:b8:de:92:aa:1e:
                    6d:0f
                Exponent: 65537 (0x10001)
        X509v3 extensions:
            X509v3 Key Usage: critical
                Digital Signature, Key Encipherment
            X509v3 Extended Key Usage: 
                TLS Web Client Authentication, TLS Web Server Authentication
            X509v3 Basic Constraints: critical
                CA:FALSE
            X509v3 Authority Key Identifier: 
                keyid:01:02:03

            Authority Information Access: 
                OCSP - URI:http://theca.net/ocsp
                CA Issuers - URI:http://theca.net/totallythecert.crt

            X509v3 Subject Alternative Name: 
                DNS:*.example.com
            X509v3 Issuer Alternative Name: 
                URI:test//user@*:1337/test
            X509v3 Certificate Policies: 
                Policy: 2.23.140.1.2.2

    Signature Algorithm: sha256WithRSAEncryption
         7d:90:20:a1:ad:b8:e9:0d:6a:02:dc:c6:f4:f0:02:c1:3f:01:
         f1:7d:3b:f3:2e:f0:3f:92:3e:cc:2a:b6:50:9d:22:b4:bb:de:
         24:41:78:d5:08:78:cb:ad:56:c4:07:88:ba:9a:0c:d2:d6:52:
         e6:02:54:8a:cf:f8:94:7a:db:43:7b:40:68:d9:77:f6:a9:c0:
         9e:fc:5a:a2:a0:47:a5:8a:bf:29:1c:57:1f:f0:c5:59:ef:b6:
         4b:db:13:e6:3a:13:4a:20:a0:f3:eb:9a:0b:19:c3:48:b9:b8:
         4d:53:ba:58:84:cb:c8:83:24:6c:f3:a6:6e:9e:f2:26:96:0b:
         8b:e7:73:8e:17:2c:4b:dd:64:4c:97:cc:15:2a:72:fd:34:30:
         34:44:73:9a:59:05:ce:f3:bc:92:20:cc:9d:79:7a:94:25:b0:
         8c:8e:45:56:4b:86:96:f1:8d:b1:21:54:19:af:b7:4f:b1:2f:
         c0:ba:83:b8:a1:ac:67:d3:18:28:f4:4f:f5:48:23:c4:b6:20:
         2c:73:c7:09:0e:a3:b4:58:45:0f:7c:50:37:43:5f:50:e4:a7:
         a9:fe:7e:1c:08:5b:b8:d0:fe:cd:6f:d6:fe:b3:28:7c:39:7d:
         b9:54:b6:09:5c:37:0b:58:3f:2e:13:cc:96:46:96:ff:77:69:
         fd:bd:9b:b6
-----BEGIN CERTIFICATE-----
MIIEdDCCA16gAwIBAgIFBDFmk+0wCwYJKoZIhvcNAQELMFQxCzAJBgNVBAYTAlVT
MRYwFAYDVQQKEw1Nb3RoZXIgTmF0dXJlMRMwEQYDVQQLEwpFdmVyeXRoaW5nMRYw
FAYDVQQDEw1Nb3RoZXIgTmF0dXJlMQAwHhcNMTcwMzE3MjIxMzAyWhcNMTcwNTI5
MjIxMzAyWjCBmzELMAkGA1UEBhMCVVMxGDAWBgNVBAoTD0V4dHJlbWUgRGlzY29y
ZDEOMAwGA1UECxMFQ2hhb3MxFDASBgNVBAcTC1RhbGxhaGFzc2VlMQswCQYDVQQI
EwJGTDEcMBoGA1UECRMTMzIxMCBIb2xseSBNaWxsIFJ1bjEOMAwGA1UEERMFMzAw
NjIxDzANBgNVBAMTBmdvdi51czEAMIIBIjANBgkqhkiG9w0BAQEFAAOCAQ8AMIIB
CgKCAQEAzOTBo3ERrZ6L7nwFnQ9xeud89Z8qrbZfa1r05t+7lNUXLuqbIRrVyl4n
p5nM2D+rj8bB3bc6n7WG54Ui0Ea1isQhV7xsOfeRU4V7rrifrnvP5eesXqXQS4Mg
Ku1weiRubDnEBSAg+0fIRAIs07cGrVKnytp24ESAa9hjCaugn++V5LA8HQXuwThk
iclQMeUs6DUQPFtZO5W0oc7wLH7ZmpibClocaBlLtQv7e+weA/G8hywxT0uZ8ne/
22sURgYijwcyoJIy86fCnWtzoHm8gq36A/S6840jW7Y3bp/tr8LjxsBpeUg9zRBc
olj+VbEL6FrCisqdY0f7uN6Sqh5tDwIDAQABo4IBBzCCAQMwDgYDVR0PAQH/BAQD
AgCgMB0GA1UdJQQWMBQGCCsGAQUFBwMCBggrBgEFBQcDATAMBgNVHRMBAf8EAjAA
MA4GA1UdIwQHMAWAAwECAzBiBggrBgEFBQcBAQRWMFQwIQYIKwYBBQUHMAGGFWh0
dHA6Ly90aGVjYS5uZXQvb2NzcDAvBggrBgEFBQcwAoYjaHR0cDovL3RoZWNhLm5l
dC90b3RhbGx5dGhlY2VydC5jcnQwGAYDVR0RBBEwD4INKi5leGFtcGxlLmNvbTAh
BgNVHRIEGjAYhhZ0ZXN0Ly91c2VyQCo6MTMzNy90ZXN0MBMGA1UdIAQMMAowCAYG
Z4EMAQICMAsGCSqGSIb3DQEBCwOCAQEAfZAgoa246Q1qAtzG9PACwT8B8X078y7w
P5I+zCq2UJ0itLveJEF41Qh4y61WxAeIupoM0tZS5gJUis/4lHrbQ3tAaNl39qnA
nvxaoqBHpYq/KRxXH/DFWe+2S9sT5joTSiCg8+uaCxnDSLm4TVO6WITLyIMkbPOm
bp7yJpYLi+dzjhcsS91kTJfMFSpy/TQwNERzmlkFzvO8kiDMnXl6lCWwjI5FVkuG
lvGNsSFUGa+3T7EvwLqDuKGsZ9MYKPRP9UgjxLYgLHPHCQ6jtFhFD3xQN0NfUOSn
qf5+HAhbuND+zW/W/rMofDl9uVS2CVw3C1g/LhPMlkaW/3dp/b2btg==
-----END CERTIFICATE-----
