Certificate:
    Data:
        Version: 3 (0x2)
        Serial Number: 18008675309 (0x4316693ed)
    Signature Algorithm: sha256WithRSAEncryption
        Issuer: C = US, O = Mother Nature, OU = Everything, CN = Mother Nature
        Validity
            Not Before: Mar 17 22:12:23 2017 GMT
            Not After : May 29 22:12:23 2017 GMT
        Subject: C = US, O = Extreme Discord, OU = Chaos, L = Tallahassee, ST = FL, street = 3210 Holly Mill Run, postalCode = 30062, CN = gov.us
        Subject Public Key Info:
            Public Key Algorithm: rsaEncryption
                Public-Key: (2048 bit)
                Modulus:
                    00:ca:90:8c:4c:3f:ea:73:28:7a:81:ec:a2:63:36:
                    34:fa:37:2a:d8:8a:65:c0:22:9f:e9:46:8f:48:5c:
                    23:bb:e9:c9:90:8a:3c:c1:cd:a9:37:62:16:33:6a:
                    84:10:bc:d2:7d:35:0f:93:c7:4d:35:c0:c0:e3:5b:
                    54:7e:6e:52:56:0f:c8:1e:2e:fc:c8:77:94:41:59:
                    be:55:63:29:6b:bf:7f:22:2c:b5:da:d0:80:20:03:
                    1d:52:2f:79:e2:ac:e1:9e:89:6e:a8:bf:3f:b1:08:
                    60:44:88:57:31:6b:49:a8:c3:61:96:3b:3e:0b:57:
                    e6:50:4f:62:c1:6e:0b:d1:b4:25:f5:ba:83:65:d2:
                    50:63:f2:4e:1d:eb:f3:45:b9:fd:a8:04:03:f2:3d:
                    bd:ce:05:75:45:09:ee:c8:89:b0:7b:b1:42:a5:5b:
                    19:c1:ee:11:c0:fe:13:7a:77:45:10:b7:71:92:52:
                    ce:23:84:23:94:73:64:06:a1:a3:8a:0e:da:3c:a0:
                    1a:dc:7b:ee:ee:da:50:37:d4:b3:91:1f:65:e5:20:
                    b9:8c:1e:b9:4d:00:b1:20:67:24:e7:d9:b7:0c:60:
                    4b:57:b7:66:18:78:28:42:25:a8:43:80:bc:c5:6a:
                    81:3c:a7:62:fa:47:ad:8c:2b:fb:f6:78:60:ab:99:
                    d8:f9
                Exponent: 65537 (0x10001)
        X509v3 extensions:
            X509v3 Key Usage: critical
                Digital Signature, Key Encipherment
            X509v3 Extended Key Usage: 
                TLS Web Client Authentication, TLS Web Server Authentication
            X509v3 Basic Constraints: critical
                CA:FALSE
            X509v3 Authority Key Identifier: 
                keyid:01:02:03

            Authority Information Access: 
                OCSP - URI:http://theca.net/ocsp
                CA Issuers - URI:http://theca.net/totallythecert.crt

            X509v3 Subject Alternative Name: 
                DNS:*.example.com
            X509v3 Issuer Alternative Name: 
                URI:test//user@*.com:1337/test
            X509v3 Certificate Policies: 
                Policy: 2.23.140.1.2.2

    Signature Algorithm: sha256WithRSAEncryption
         dd:a9:a9:cd:05:bc:86:3f:00:b5:36:8f:e1:68:4f:10:6a:7d:
         32:c9:9f:18:96:34:f5:fb:10:84:27:5d:c4:dc:fa:c6:9c:43:
         7b:82:1e:bf:33:02:c1:06:d4:a1:9d:e7:45:1f:b5:57:e3:3e:
         0d:ff:9d:38:7a:fc:22:31:27:b4:f9:57:04:e0:2f:24:85:70:
         ac:e6:f6:bd:f6:7a:7c:24:98:8a:61:b4:ad:e7:0a:77:07:9a:
         fd:8d:21:20:64:6b:e3:91:02:11:5f:4f:78:72:11:b2:39:d1:
         33:3f:a1:7c:76:3b:7a:39:93:eb:55:be:92:d8:e2:9a:d1:14:
         48:cd:aa:e6:50:3c:85:07:fc:3a:10:1e:cd:a7:d4:e9:94:65:
         bc:10:38:32:a7:da:c7:b5:e7:76:ec:c9:04:a1:f5:d4:4c:4c:
         2c:60:fd:79:a8:dd:b3:92:55:57:c2:d7:62:37:73:4f:1d:9f:
         bf:3e:d7:50:25:8a:71:3e:65:b2:e3:f8:73:9e:17:45:01:b8:
         55:51:d4:23:36:2b:e5:46:d2:80:29:99:b6:cb:a2:0e:13:e2:
         e6:5d:cc:16:a2:d5:8f:ff:d3:fb:2e:ef:54:61:aa:6a:25:fc:
         0d:ae:c0:30:c0:83:fa:9c:44:42:e7:83:54:63:83:8c:cc:9d:
         6c:52:ef:7b
-----BEGIN CERTIFICATE-----
MIIEeDCCA2KgAwIBAgIFBDFmk+0wCwYJKoZIhvcNAQELMFQxCzAJBgNVBAYTAlVT
MRYwFAYDVQQKEw1Nb3RoZXIgTmF0dXJlMRMwEQYDVQQLEwpFdmVyeXRoaW5nMRYw
FAYDVQQDEw1Nb3RoZXIgTmF0dXJlMQAwHhcNMTcwMzE3MjIxMjIzWhcNMTcwNTI5
MjIxMjIzWjCBmzELMAkGA1UEBhMCVVMxGDAWBgNVBAoTD0V4dHJlbWUgRGlzY29y
ZDEOMAwGA1UECxMFQ2hhb3MxFDASBgNVBAcTC1RhbGxhaGFzc2VlMQswCQYDVQQI
EwJGTDEcMBoGA1UECRMTMzIxMCBIb2xseSBNaWxsIFJ1bjEOMAwGA1UEERMFMzAw
NjIxDzANBgNVBAMTBmdvdi51czEAMIIBIjANBgkqhkiG9w0BAQEFAAOCAQ8AMIIB
CgKCAQEAypCMTD/qcyh6geyiYzY0+jcq2IplwCKf6UaPSFwju+nJkIo8wc2pN2IW
M2qEELzSfTUPk8dNNcDA41tUfm5SVg/IHi78yHeUQVm+VWMpa79/Iiy12tCAIAMd
Ui954qzhnoluqL8/sQhgRIhXMWtJqMNhljs+C1fmUE9iwW4L0bQl9bqDZdJQY/JO
HevzRbn9qAQD8j29zgV1RQnuyImwe7FCpVsZwe4RwP4TendFELdxklLOI4QjlHNk
BqGjig7aPKAa3Hvu7tpQN9SzkR9l5SC5jB65TQCxIGck59m3DGBLV7dmGHgoQiWo
Q4C8xWqBPKdi+ketjCv79nhgq5nY+QIDAQABo4IBCzCCAQcwDgYDVR0PAQH/BAQD
AgCgMB0GA1UdJQQWMBQGCCsGAQUFBwMCBggrBgEFBQcDATAMBgNVHRMBAf8EAjAA
MA4GA1UdIwQHMAWAAwECAzBiBggrBgEFBQcBAQRWMFQwIQYIKwYBBQUHMAGGFWh0
dHA6Ly90aGVjYS5uZXQvb2NzcDAvBggrBgEFBQcwAoYjaHR0cDovL3RoZWNhLm5l
dC90b3RhbGx5dGhlY2VydC5jcnQwGAYDVR0RBBEwD4INKi5leGFtcGxlLmNvbTAl
BgNVHRIEHjAchhp0ZXN0Ly91c2VyQCouY29tOjEzMzcvdGVzdDATBgNVHSAEDDAK
MAgGBmeBDAECAjALBgkqhkiG9w0BAQsDggEBAN2pqc0FvIY/ALU2j+FoTxBqfTLJ
nxiWNPX7EIQnXcTc+sacQ3uCHr8zAsEG1KGd50UftVfjPg3/nTh6/CIxJ7T5VwTg
LySFcKzm9r32enwkmIphtK3nCncHmv2NISBka+ORAhFfT3hyEbI50TM/oXx2O3o5
k+tVvpLY4prRFEjNquZQPIUH/DoQHs2n1OmUZbwQODKn2se153bsyQSh9dRMTCxg
/Xmo3bOSVVfC12I3c08dn78+11AlinE+ZbLj+HOeF0UBuFVR1CM2K+VG0oApmbbL
og4T4uZdzBai1Y//0/su71Rhqmol/A2uwDDAg/qcRELng1Rjg4zMnWxS73s=
-----END CERTIFICATE-----
