Certificate:
    Data:
        Version: 3 (0x2)
        Serial Number: 18008675309 (0x4316693ed)
    Signature Algorithm: sha256WithRSAEncryption
        Issuer: C = US, O = Mother Nature, OU = Everything, CN = Mother Nature
        Validity
            Not Before: Apr 14 21:19:03 2017 GMT
            Not After : Jun 26 21:19:03 2017 GMT
        Subject: C = US, ST = FL, L = Tallahassee, street = 3210 Holly Mill Run, postalCode = 30062, O = Extreme Discord, OU = Chaos, CN = gov.us
        Subject Public Key Info:
            Public Key Algorithm: rsaEncryption
                Public-Key: (2048 bit)
                Modulus:
                    00:ba:be:f0:7a:07:07:80:d8:94:ab:76:e5:df:f5:
                    3b:65:b7:af:46:52:f7:90:6b:84:ab:c7:c2:df:61:
                    64:fd:a3:81:47:36:23:8f:60:54:83:de:22:98:24:
                    b1:d9:cc:ce:2a:02:97:56:58:9e:7e:d7:04:72:55:
                    10:7b:f0:81:05:ab:04:b5:63:f1:a6:df:79:20:8d:
                    7f:8b:ac:de:9b:65:2f:0b:6d:9c:34:76:06:33:2a:
                    bb:d1:e9:5d:d1:d5:d2:61:81:7e:26:dd:22:b0:48:
                    8a:e1:cc:7c:fd:48:3b:83:b3:50:ce:69:4b:3e:42:
                    ad:82:b7:93:4c:ea:02:0e:a5:f3:28:0d:73:ee:0c:
                    eb:93:4a:89:00:74:2b:45:ed:eb:f4:85:e2:b1:a0:
                    2a:2d:b1:80:d2:eb:fd:ad:8a:c9:8c:75:ee:1f:a3:
                    ca:70:0d:54:fb:e0:93:8b:fa:ab:83:49:dc:2d:b6:
                    9e:38:3b:31:fe:89:1c:eb:63:0d:2c:31:14:c2:9b:
                    f1:c8:62:79:37:f0:d6:fe:10:84:be:ed:1a:8a:e0:
                    a5:3d:57:d4:2d:bc:71:27:26:b2:8c:4e:95:09:7a:
                    8e:62:33:f2:ee:5a:36:90:eb:f9:01:43:36:57:9d:
                    83:22:73:30:fd:0c:06:8b:14:09:d7:21:51:1b:2b:
                    7a:b5
                Exponent: 65537 (0x10001)
        X509v3 extensions:
            X509v3 Key Usage: critical
                Digital Signature, Key Encipherment
            X509v3 Extended Key Usage: 
                TLS Web Client Authentication, TLS Web Server Authentication
            X509v3 Basic Constraints: critical
                CA:FALSE
            X509v3 Authority Key Identifier: 
                keyid:01:02:03

            Authority Information Access: 
                OCSP - URI:http://theca.net/ocsp
                CA Issuers - URI:http://theca.net/totallythecert.crt

            X509v3 Certificate Policies: 
                Policy: 2.23.140.1.2.2

            X509v3 Subject Key Identifier: 
                04:03:02:01
            X509v3 Issuer Alternative Name: 
                DNS:gov, DNS:gov.us
    Signature Algorithm: sha256WithRSAEncryption
         0c:e0:3e:13:5e:f8:dc:13:91:52:56:d5:f5:8f:21:56:04:1e:
         24:be:3f:17:ae:b1:8f:28:97:ad:98:ef:e0:29:70:91:96:dc:
         df:3a:04:72:ee:81:cf:51:6f:b2:25:e8:38:46:ff:5c:e8:54:
         d7:ec:86:a4:0d:c9:b5:7c:a0:96:c8:1b:3c:e4:16:f8:f6:74:
         ce:2e:40:77:e7:41:2f:c9:bb:36:50:b0:e6:e6:0a:2a:3b:1b:
         49:e0:df:c7:5b:9f:97:b8:11:4a:53:a6:6c:cb:b3:e2:7e:ee:
         0b:a8:c0:91:64:3b:0c:81:91:87:31:8d:05:e5:90:f5:47:19:
         aa:f9:65:cb:a4:e6:dd:29:8d:3d:9f:d4:bc:a0:3f:46:ee:c1:
         61:5d:2b:86:33:52:53:d6:d3:47:04:f1:39:c7:d1:6d:96:4f:
         33:68:76:95:60:d4:fe:6d:70:35:5f:3a:c4:e9:d5:42:47:0c:
         fb:52:0d:63:75:6c:10:43:1e:57:15:18:ca:f4:99:d4:5c:1e:
         53:2c:a8:57:4e:38:ee:11:f3:5c:e2:d2:f5:94:0b:ac:a4:e5:
         fe:ea:bf:76:45:75:22:2c:f9:8c:ef:e8:ac:30:ce:0f:cd:c3:
         29:50:20:83:1d:dd:2c:3b:08:f0:85:54:bb:2e:5a:3f:51:9d:
         e9:7a:7b:7f
-----BEGIN CERTIFICATE-----
MIIEXDCCA0SgAwIBAgIFBDFmk+0wDQYJKoZIhvcNAQELBQAwUjELMAkGA1UEBhMC
VVMxFjAUBgNVBAoTDU1vdGhlciBOYXR1cmUxEzARBgNVBAsTCkV2ZXJ5dGhpbmcx
FjAUBgNVBAMTDU1vdGhlciBOYXR1cmUwHhcNMTcwNDE0MjExOTAzWhcNMTcwNjI2
MjExOTAzWjCBmTELMAkGA1UEBhMCVVMxCzAJBgNVBAgTAkZMMRQwEgYDVQQHEwtU
YWxsYWhhc3NlZTEcMBoGA1UECRMTMzIxMCBIb2xseSBNaWxsIFJ1bjEOMAwGA1UE
ERMFMzAwNjIxGDAWBgNVBAoTD0V4dHJlbWUgRGlzY29yZDEOMAwGA1UECxMFQ2hh
b3MxDzANBgNVBAMTBmdvdi51czCCASIwDQYJKoZIhvcNAQEBBQADggEPADCCAQoC
ggEBALq+8HoHB4DYlKt25d/1O2W3r0ZS95BrhKvHwt9hZP2jgUc2I49gVIPeIpgk
sdnMzioCl1ZYnn7XBHJVEHvwgQWrBLVj8abfeSCNf4us3ptlLwttnDR2BjMqu9Hp
XdHV0mGBfibdIrBIiuHMfP1IO4OzUM5pSz5CrYK3k0zqAg6l8ygNc+4M65NKiQB0
K0Xt6/SF4rGgKi2xgNLr/a2KyYx17h+jynANVPvgk4v6q4NJ3C22njg7Mf6JHOtj
DSwxFMKb8chieTfw1v4QhL7tGorgpT1X1C28cScmsoxOlQl6jmIz8u5aNpDr+QFD
NledgyJzMP0MBosUCdchURsrerUCAwEAAaOB8DCB7TAOBgNVHQ8BAf8EBAMCBaAw
HQYDVR0lBBYwFAYIKwYBBQUHAwIGCCsGAQUFBwMBMAwGA1UdEwEB/wQCMAAwDgYD
VR0jBAcwBYADAQIDMGIGCCsGAQUFBwEBBFYwVDAhBggrBgEFBQcwAYYVaHR0cDov
L3RoZWNhLm5ldC9vY3NwMC8GCCsGAQUFBzAChiNodHRwOi8vdGhlY2EubmV0L3Rv
dGFsbHl0aGVjZXJ0LmNydDATBgNVHSAEDDAKMAgGBmeBDAECAjANBgNVHQ4EBgQE
BAMCATAWBgNVHRIEDzANggNnb3aCBmdvdi51czANBgkqhkiG9w0BAQsFAAOCAQEA
DOA+E1743BORUlbV9Y8hVgQeJL4/F66xjyiXrZjv4ClwkZbc3zoEcu6Bz1FvsiXo
OEb/XOhU1+yGpA3JtXyglsgbPOQW+PZ0zi5Ad+dBL8m7NlCw5uYKKjsbSeDfx1uf
l7gRSlOmbMuz4n7uC6jAkWQ7DIGRhzGNBeWQ9UcZqvlly6Tm3SmNPZ/UvKA/Ru7B
YV0rhjNSU9bTRwTxOcfRbZZPM2h2lWDU/m1wNV86xOnVQkcM+1INY3VsEEMeVxUY
yvSZ1FweUyyoV0447hHzXOLS9ZQLrKTl/uq/dkV1Iiz5jO/orDDOD83DKVAggx3d
LDsI8IVUuy5aP1Gd6Xp7fw==
-----END CERTIFICATE-----
