Certificate:
    Data:
        Version: 3 (0x2)
        Serial Number: 1 (0x1)
    Signature Algorithm: sha256WithRSAEncryption
        Issuer: CN=Mother Nature, OU=Everything, O=Mother Nature/postalCode=postalcode, C=US, GN=givenname, SN=surname
        Validity
            Not Before: Aug 25 14:52:58 2017 GMT
            Not After : Nov  6 15:52:58 2017 GMT
        Subject: CN=gov.us, OU=Chaos, O=org/street=3210 Holly Mill Run, ST=province/postalCode=30062, GN=hello, SN=surname
        Subject Public Key Info:
            Public Key Algorithm: rsaEncryption
                Public-Key: (2048 bit)
                Modulus:
                    00:9d:7c:89:cf:e3:7a:53:41:68:56:1f:d6:44:63:
                    79:5b:a4:e6:14:bb:9b:03:3a:32:38:a8:e3:b7:24:
                    f9:9a:bb:6d:3e:f3:4d:f9:13:12:70:ca:7e:90:00:
                    97:7b:d0:68:cd:d0:c9:bd:e5:18:c8:12:07:65:99:
                    b6:52:9d:0d:5f:38:19:d1:d6:ff:e9:ac:c7:25:5f:
                    8b:ad:c5:6c:e6:3f:f1:1c:82:ff:c5:e0:7b:e0:69:
                    05:59:0e:fc:47:e1:48:aa:1b:02:98:9d:a9:47:f7:
                    05:25:33:96:89:d9:b7:14:f2:95:b7:62:78:8c:0d:
                    75:88:35:71:e4:57:7f:6c:a7:b2:be:e8:64:dc:a4:
                    91:01:ae:45:07:d7:95:3a:cb:88:42:cd:cb:0f:90:
                    6b:93:82:ad:f5:78:0a:96:cf:60:a3:e7:5a:b1:20:
                    f2:31:20:a9:8f:b6:52:ab:0d:f4:ca:bb:21:64:77:
                    b5:8a:a4:f6:1c:43:3b:82:25:6a:b6:61:d4:6d:0d:
                    25:88:11:8a:0c:ab:4b:18:25:85:40:f4:16:da:8f:
                    6c:ad:6d:2e:52:9b:68:26:50:82:6c:5c:c9:26:ed:
                    1a:ac:d1:55:3d:78:57:bd:43:19:11:02:29:ff:41:
                    98:01:8c:f2:8a:82:35:3c:b9:8e:cd:79:76:f8:73:
                    e6:2f
                Exponent: 65537 (0x10001)
        X509v3 extensions:
            X509v3 Key Usage: critical
                Digital Signature, Key Encipherment
            X509v3 Extended Key Usage: 
                TLS Web Client Authentication, TLS Web Server Authentication
            X509v3 Basic Constraints: critical
                CA:TRUE
            X509v3 Authority Key Identifier: 
                keyid:01:02:03

            Authority Information Access: 
                OCSP - URI:http://theca.net/ocsp
                CA Issuers - URI:http://theca.net/totallythecert.crt

            X509v3 Subject Alternative Name: 
                DNS:xn--12311613412431243.com
            X509v3 Certificate Policies: 
                Policy: X509v3 Any Policy

    Signature Algorithm: sha256WithRSAEncryption
         89:91:9b:2d:3c:54:f6:f0:2d:1c:16:56:ec:b5:f1:4a:1c:9b:
         a6:54:11:eb:2f:94:b9:f0:10:89:44:0e:87:8b:59:78:4a:ef:
         9e:33:d2:e1:5e:9b:18:7f:2a:dd:09:d0:27:e7:e8:e2:69:dc:
         cd:09:db:95:89:ca:0d:f7:52:84:b5:7e:56:d4:4d:85:19:e3:
         50:21:11:73:99:c4:13:28:6b:66:2e:a5:76:f2:33:0e:19:e2:
         8c:33:9c:f7:96:ec:5f:41:b4:7f:73:d4:24:60:f6:90:3a:50:
         84:da:93:b0:36:69:6f:1c:7b:74:4f:59:65:d3:0d:b9:00:a2:
         65:75:97:ad:82:39:f4:c1:bb:8e:b1:55:db:3d:79:65:32:31:
         a6:22:de:e8:16:16:8b:c9:a9:28:3e:e9:c7:e9:4f:8f:ba:60:
         39:1e:d5:ac:ce:7d:7e:92:43:86:ca:e6:cd:3c:d0:6d:bd:fd:
         ec:d7:d6:d0:28:71:6a:f0:9b:98:39:8c:70:2e:f9:05:9e:01:
         51:8c:a0:23:19:23:ef:fb:8f:0d:94:4c:e0:8e:ce:5b:14:e9:
         e8:4a:51:a5:67:4c:bb:b3:fb:3a:b2:e7:f3:8a:2d:b7:fd:d9:
         f7:06:11:91:35:78:f1:c9:4b:a7:77:cd:0d:80:80:63:f1:3d:
         72:7d:90:a5
-----BEGIN CERTIFICATE-----
MIIEjTCCA3egAwIBAgIBATALBgkqhkiG9w0BAQswgY8xFjAUBgNVBAMTDU1vdGhl
ciBOYXR1cmUxEzARBgNVBAsTCkV2ZXJ5dGhpbmcxFjAUBgNVBAoTDU1vdGhlciBO
YXR1cmUxEzARBgNVBBETCnBvc3RhbGNvZGUxCzAJBgNVBAYTAlVTMRIwEAYDVQQq
EwlnaXZlbm5hbWUxEDAOBgNVBAQTB3N1cm5hbWUxADAeFw0xNzA4MjUxNDUyNTha
Fw0xNzExMDYxNTUyNThaMIGUMQ8wDQYDVQQDEwZnb3YudXMxDjAMBgNVBAsTBUNo
YW9zMQwwCgYDVQQKEwNvcmcxHDAaBgNVBAkTEzMyMTAgSG9sbHkgTWlsbCBSdW4x
ETAPBgNVBAgTCHByb3ZpbmNlMQ4wDAYDVQQREwUzMDA2MjEOMAwGA1UEKhMFaGVs
bG8xEDAOBgNVBAQTB3N1cm5hbWUxADCCASIwDQYJKoZIhvcNAQEBBQADggEPADCC
AQoCggEBAJ18ic/jelNBaFYf1kRjeVuk5hS7mwM6Mjio47ck+Zq7bT7zTfkTEnDK
fpAAl3vQaM3Qyb3lGMgSB2WZtlKdDV84GdHW/+msxyVfi63FbOY/8RyC/8Xge+Bp
BVkO/EfhSKobApidqUf3BSUzlonZtxTylbdieIwNdYg1ceRXf2ynsr7oZNykkQGu
RQfXlTrLiELNyw+Qa5OCrfV4CpbPYKPnWrEg8jEgqY+2UqsN9Mq7IWR3tYqk9hxD
O4IlarZh1G0NJYgRigyrSxglhUD0FtqPbK1tLlKbaCZQgmxcySbtGqzRVT14V71D
GRECKf9BmAGM8oqCNTy5js15dvhz5i8CAwEAAaOB8DCB7TAOBgNVHQ8BAf8EBAMC
AKAwHQYDVR0lBBYwFAYIKwYBBQUHAwIGCCsGAQUFBwMBMA8GA1UdEwEB/wQFMAMB
Af8wDgYDVR0jBAcwBYADAQIDMGIGCCsGAQUFBwEBBFYwVDAhBggrBgEFBQcwAYYV
aHR0cDovL3RoZWNhLm5ldC9vY3NwMC8GCCsGAQUFBzAChiNodHRwOi8vdGhlY2Eu
bmV0L3RvdGFsbHl0aGVjZXJ0LmNydDAkBgNVHREEHTAbghl4bi0tMTIzMTE2MTM0
MTI0MzEyNDMuY29tMBEGA1UdIAQKMAgwBgYEVR0gADALBgkqhkiG9w0BAQsDggEB
AImRmy08VPbwLRwWVuy18Uocm6ZUEesvlLnwEIlEDoeLWXhK754z0uFemxh/Kt0J
0Cfn6OJp3M0J25WJyg33UoS1flbUTYUZ41AhEXOZxBMoa2YupXbyMw4Z4owznPeW
7F9BtH9z1CRg9pA6UITak7A2aW8ce3RPWWXTDbkAomV1l62COfTBu46xVds9eWUy
MaYi3ugWFovJqSg+6cfpT4+6YDke1azOfX6SQ4bK5s080G29/ezX1tAocWrwm5g5
jHAu+QWeAVGMoCMZI+/7jw2UTOCOzlsU6ehKUaVnTLuz+zqy5/OKLbf92fcGEZE1
ePHJS6d3zQ2AgGPxPXJ9kKU=
-----END CERTIFICATE-----
