Certificate:
    Data:
        Version: 3 (0x2)
        Serial Number: 18008675309 (0x4316693ed)
    Signature Algorithm: sha256WithRSAEncryption
        Issuer: C = US, O = Mother Nature, OU = Everything, CN = Mother Nature
        Validity
            Not Before: Jun 27 23:58:56 2016 GMT
            Not After : Sep  8 23:58:56 2016 GMT
        Subject: C = US, ST = FL, L = Tallahassee, street = 3210 Holly Mill Run, postalCode = 30062, CN = gov.us, GN = Alexander, SN = Washington
        Subject Public Key Info:
            Public Key Algorithm: rsaEncryption
                Public-Key: (2048 bit)
                Modulus:
                    00:db:89:99:1a:f0:38:e4:72:10:68:a2:b2:8c:ff:
                    df:f8:1b:52:bf:3f:af:b6:27:e5:d6:7d:1a:93:89:
                    20:81:48:14:1c:0d:b6:89:1a:5b:b6:84:c0:a9:06:
                    77:63:54:ec:f5:ba:74:03:4f:27:b5:c6:71:de:4c:
                    69:a0:37:49:33:8b:11:8c:87:2c:b5:67:76:27:b5:
                    79:12:8f:ea:d3:05:05:a9:ab:8b:da:b5:5f:9b:5b:
                    31:00:8b:4e:6c:ac:f3:c2:57:00:b8:b7:b7:cf:f6:
                    ea:ad:12:9c:31:01:95:74:83:9f:8a:60:e4:f5:f7:
                    7a:4a:fd:7a:37:a2:51:6f:6f:f2:c8:59:74:da:d8:
                    a4:7c:42:b1:bf:a5:fe:53:ac:89:c4:ff:bc:3a:90:
                    26:c7:21:53:bc:f3:c8:c4:16:20:d1:8d:9b:8a:6d:
                    28:7f:90:d6:25:40:ec:e9:b5:74:5a:2e:2c:d6:ca:
                    f7:f0:97:55:2a:f4:2e:e4:76:89:69:19:c1:16:5d:
                    cf:22:83:14:39:f1:68:3b:d9:eb:2a:f8:7a:71:33:
                    7e:60:59:e2:01:16:3b:bc:26:fd:08:e3:81:98:6b:
                    1a:f3:55:68:f8:fe:59:da:b5:c3:aa:84:cd:e5:6a:
                    0f:ec:25:f7:f5:a4:01:eb:3a:5c:60:83:0d:e1:92:
                    91:f7
                Exponent: 65537 (0x10001)
        X509v3 extensions:
            X509v3 Key Usage: critical
                Digital Signature, Key Encipherment
            X509v3 Extended Key Usage: 
                TLS Web Client Authentication, TLS Web Server Authentication
            X509v3 Basic Constraints: critical
                CA:FALSE
            X509v3 Authority Key Identifier: 
                keyid:01:02:03

            Authority Information Access: 
                OCSP - URI:http://theca.net/ocsp
                CA Issuers - URI:http://theca.net/totallythecert.crt

            X509v3 Certificate Policies: 
                Policy: 2.23.140.1.2.3

            X509v3 Subject Key Identifier: 
                04:03:02:01
            X509v3 Subject Alternative Name: 
                DNS:*.gov.us, DNS:gov.us
    Signature Algorithm: sha256WithRSAEncryption
         a4:87:a4:61:53:83:d5:0f:21:53:91:e0:42:d4:3f:da:da:76:
         84:dd:54:a6:98:b5:74:c3:d8:f8:55:b8:ae:1e:6f:33:47:77:
         59:03:c2:09:8b:5a:ee:84:19:7e:0b:4c:0d:66:a7:05:0d:24:
         be:67:d7:e6:8c:67:47:40:a8:82:b2:f7:62:a9:2c:db:ef:83:
         b1:c2:ab:e1:a1:c3:bc:f7:91:05:60:18:85:c1:05:e9:2b:b7:
         ec:95:22:0b:e5:98:64:7d:7d:a9:e7:13:91:b6:29:45:09:7a:
         64:bd:bc:cb:4f:31:72:e2:7c:f4:d0:ab:c4:8c:f6:6b:1c:cf:
         d8:c4:89:0c:94:1e:80:30:a6:ec:7d:31:44:b6:e7:82:44:73:
         79:6a:ea:71:a9:cf:c0:1c:70:78:c8:6c:7d:e4:42:89:49:fe:
         fa:83:b2:6d:7c:e6:38:f8:a8:59:ab:11:79:50:93:24:d9:d4:
         44:b4:6e:ac:64:ee:89:51:39:de:f4:d8:eb:ee:1b:ae:8c:c5:
         66:56:ed:62:9e:66:da:a9:86:d9:af:08:73:73:fe:46:6e:92:
         c9:77:bd:a8:f8:71:84:65:57:ef:64:c5:77:7e:6f:97:f3:a5:
         0f:50:06:98:e2:71:03:e8:2a:07:bf:1f:83:17:e8:4e:b8:f3:
         b6:84:03:0f
-----BEGIN CERTIFICATE-----
MIIEYDCCA0igAwIBAgIFBDFmk+0wDQYJKoZIhvcNAQELBQAwUjELMAkGA1UEBhMC
VVMxFjAUBgNVBAoTDU1vdGhlciBOYXR1cmUxEzARBgNVBAsTCkV2ZXJ5dGhpbmcx
FjAUBgNVBAMTDU1vdGhlciBOYXR1cmUwHhcNMTYwNjI3MjM1ODU2WhcNMTYwOTA4
MjM1ODU2WjCBmDELMAkGA1UEBhMCVVMxCzAJBgNVBAgTAkZMMRQwEgYDVQQHEwtU
YWxsYWhhc3NlZTEcMBoGA1UECRMTMzIxMCBIb2xseSBNaWxsIFJ1bjEOMAwGA1UE
ERMFMzAwNjIxDzANBgNVBAMTBmdvdi51czESMBAGA1UEKhMJQWxleGFuZGVyMRMw
EQYDVQQEEwpXYXNoaW5ndG9uMIIBIjANBgkqhkiG9w0BAQEFAAOCAQ8AMIIBCgKC
AQEA24mZGvA45HIQaKKyjP/f+BtSvz+vtifl1n0ak4kggUgUHA22iRpbtoTAqQZ3
Y1Ts9bp0A08ntcZx3kxpoDdJM4sRjIcstWd2J7V5Eo/q0wUFqauL2rVfm1sxAItO
bKzzwlcAuLe3z/bqrRKcMQGVdIOfimDk9fd6Sv16N6JRb2/yyFl02tikfEKxv6X+
U6yJxP+8OpAmxyFTvPPIxBYg0Y2bim0of5DWJUDs6bV0Wi4s1sr38JdVKvQu5HaJ
aRnBFl3PIoMUOfFoO9nrKvh6cTN+YFniARY7vCb9COOBmGsa81Vo+P5Z2rXDqoTN
5WoP7CX39aQB6zpcYIMN4ZKR9wIDAQABo4H1MIHyMA4GA1UdDwEB/wQEAwIFoDAd
BgNVHSUEFjAUBggrBgEFBQcDAgYIKwYBBQUHAwEwDAYDVR0TAQH/BAIwADAOBgNV
HSMEBzAFgAMBAgMwYgYIKwYBBQUHAQEEVjBUMCEGCCsGAQUFBzABhhVodHRwOi8v
dGhlY2EubmV0L29jc3AwLwYIKwYBBQUHMAKGI2h0dHA6Ly90aGVjYS5uZXQvdG90
YWxseXRoZWNlcnQuY3J0MBMGA1UdIAQMMAowCAYGZ4EMAQIDMA0GA1UdDgQGBAQE
AwIBMBsGA1UdEQQUMBKCCCouZ292LnVzggZnb3YudXMwDQYJKoZIhvcNAQELBQAD
ggEBAKSHpGFTg9UPIVOR4ELUP9radoTdVKaYtXTD2PhVuK4ebzNHd1kDwgmLWu6E
GX4LTA1mpwUNJL5n1+aMZ0dAqIKy92KpLNvvg7HCq+Ghw7z3kQVgGIXBBekrt+yV
IgvlmGR9fannE5G2KUUJemS9vMtPMXLifPTQq8SM9mscz9jEiQyUHoAwpux9MUS2
54JEc3lq6nGpz8AccHjIbH3kQolJ/vqDsm185jj4qFmrEXlQkyTZ1ES0bqxk7olR
Od702OvuG66MxWZW7WKeZtqphtmvCHNz/kZuksl3vaj4cYRlV+9kxXd+b5fzpQ9Q
BpjicQPoKge/H4MX6E6487aEAw8=
-----END CERTIFICATE-----
