Certificate:
    Data:
        Version: 3 (0x2)
        Serial Number: 18008675309 (0x4316693ed)
    Signature Algorithm: sha256WithRSAEncryption
        Issuer: C = US, O = Mother Nature, OU = Everything, CN = Mother Nature
        Validity
            Not Before: Jun 28 00:10:23 2016 GMT
            Not After : Sep  9 00:10:23 2016 GMT
        Subject: C = US, ST = FL, street = 3210 Holly Mill Run, postalCode = 30062, CN = gov.us, GN = Alexander, SN = Washington
        Subject Public Key Info:
            Public Key Algorithm: rsaEncryption
                Public-Key: (2048 bit)
                Modulus:
                    00:b9:b2:26:e7:eb:7a:f9:89:34:22:96:24:ab:22:
                    0d:25:c4:be:6a:ab:b1:ec:23:79:c2:40:d9:b4:71:
                    fd:15:bb:f2:f9:e6:eb:a3:28:ba:1f:f9:7b:85:ef:
                    89:ae:82:a9:d6:d2:2b:68:d3:5e:fc:54:7a:3b:94:
                    3d:43:92:3e:02:d1:ae:bc:3d:62:6b:b0:d5:33:56:
                    a0:14:f0:71:05:ea:95:46:a4:c5:aa:bb:d4:89:b3:
                    8f:4f:31:e4:1a:ba:f9:29:45:dc:6a:78:8d:a7:9d:
                    58:5b:5a:b2:57:fc:a5:35:0b:93:31:12:57:93:35:
                    ab:bb:58:e9:78:5c:69:d6:a0:8c:90:f5:7c:0f:46:
                    a3:f6:e4:f0:6c:93:68:60:44:02:4b:45:ae:d4:04:
                    6e:dc:90:ef:64:02:e2:af:47:59:c6:8b:2a:0d:f0:
                    db:ff:a8:e1:64:47:c0:bb:6e:9a:7f:f4:2e:4a:76:
                    ad:9b:72:11:4e:9a:3b:d7:29:6b:15:99:69:57:f1:
                    f9:18:c5:b7:98:c2:c1:35:ae:20:09:47:30:91:3b:
                    84:f0:4f:92:27:74:fe:38:f5:12:81:b6:68:4f:2d:
                    b8:34:0a:c9:7c:49:13:62:a2:ed:44:98:64:be:f9:
                    20:2f:3a:3e:17:36:9f:da:fc:3c:47:0c:47:b0:5c:
                    fd:97
                Exponent: 65537 (0x10001)
        X509v3 extensions:
            X509v3 Key Usage: critical
                Digital Signature, Key Encipherment
            X509v3 Extended Key Usage: 
                TLS Web Client Authentication, TLS Web Server Authentication
            X509v3 Basic Constraints: critical
                CA:FALSE
            X509v3 Authority Key Identifier: 
                keyid:01:02:03

            Authority Information Access: 
                OCSP - URI:http://theca.net/ocsp
                CA Issuers - URI:http://theca.net/totallythecert.crt

            X509v3 Certificate Policies: 
                Policy: 2.23.140.1.2.3

            X509v3 Subject Key Identifier: 
                04:03:02:01
            X509v3 Subject Alternative Name: 
                DNS:*.gov.us, DNS:gov.us
    Signature Algorithm: sha256WithRSAEncryption
         40:73:2c:45:ba:74:86:6a:20:04:1a:7f:51:1f:3e:a5:05:6d:
         29:00:b1:3f:d7:c8:27:f8:f8:f0:7e:6a:8f:b6:4c:66:ba:19:
         ce:76:7e:4c:56:19:62:f5:5f:e1:ea:a0:af:ed:0e:4e:f2:be:
         3d:a4:9c:39:11:c9:e5:e4:96:00:f9:9c:f8:35:cb:f2:92:3c:
         f4:e9:9b:43:cb:0f:a6:5d:7a:91:43:3d:8f:b0:ed:1b:85:85:
         2b:4c:f0:80:a0:ee:b5:f6:41:a7:ef:f1:6e:e8:00:30:89:2b:
         a7:b7:05:38:9f:4a:16:ea:9f:73:99:f2:66:ae:7f:1f:ab:6a:
         3a:98:cb:60:a4:60:03:14:62:6e:c1:d1:6d:87:72:0e:a9:de:
         06:50:18:98:f6:0a:00:40:aa:f3:33:06:ae:73:3e:a4:bd:ca:
         cb:46:51:0f:c2:24:1a:fb:0a:94:75:a3:3a:bb:45:37:c3:79:
         34:49:6f:cb:ec:79:fa:62:73:34:7c:c3:eb:4b:3b:ac:55:af:
         3f:b5:62:c8:b7:1c:a8:6f:7b:dd:de:05:1f:5a:c2:81:41:b6:
         43:73:8a:65:c8:d5:68:b9:c6:54:47:0c:29:90:d9:c6:68:7e:
         d5:68:f1:f3:7a:70:24:d0:f5:00:14:af:6d:65:d2:3f:6f:1a:
         c2:88:3f:c1
-----BEGIN CERTIFICATE-----
MIIESjCCAzKgAwIBAgIFBDFmk+0wDQYJKoZIhvcNAQELBQAwUjELMAkGA1UEBhMC
VVMxFjAUBgNVBAoTDU1vdGhlciBOYXR1cmUxEzARBgNVBAsTCkV2ZXJ5dGhpbmcx
FjAUBgNVBAMTDU1vdGhlciBOYXR1cmUwHhcNMTYwNjI4MDAxMDIzWhcNMTYwOTA5
MDAxMDIzWjCBgjELMAkGA1UEBhMCVVMxCzAJBgNVBAgTAkZMMRwwGgYDVQQJExMz
MjEwIEhvbGx5IE1pbGwgUnVuMQ4wDAYDVQQREwUzMDA2MjEPMA0GA1UEAxMGZ292
LnVzMRIwEAYDVQQqEwlBbGV4YW5kZXIxEzARBgNVBAQTCldhc2hpbmd0b24wggEi
MA0GCSqGSIb3DQEBAQUAA4IBDwAwggEKAoIBAQC5sibn63r5iTQiliSrIg0lxL5q
q7HsI3nCQNm0cf0Vu/L55uujKLof+XuF74mugqnW0ito0178VHo7lD1Dkj4C0a68
PWJrsNUzVqAU8HEF6pVGpMWqu9SJs49PMeQauvkpRdxqeI2nnVhbWrJX/KU1C5Mx
EleTNau7WOl4XGnWoIyQ9XwPRqP25PBsk2hgRAJLRa7UBG7ckO9kAuKvR1nGiyoN
8Nv/qOFkR8C7bpp/9C5Kdq2bchFOmjvXKWsVmWlX8fkYxbeYwsE1riAJRzCRO4Tw
T5IndP449RKBtmhPLbg0Csl8SRNiou1EmGS++SAvOj4XNp/a/DxHDEewXP2XAgMB
AAGjgfUwgfIwDgYDVR0PAQH/BAQDAgWgMB0GA1UdJQQWMBQGCCsGAQUFBwMCBggr
BgEFBQcDATAMBgNVHRMBAf8EAjAAMA4GA1UdIwQHMAWAAwECAzBiBggrBgEFBQcB
AQRWMFQwIQYIKwYBBQUHMAGGFWh0dHA6Ly90aGVjYS5uZXQvb2NzcDAvBggrBgEF
BQcwAoYjaHR0cDovL3RoZWNhLm5ldC90b3RhbGx5dGhlY2VydC5jcnQwEwYDVR0g
BAwwCjAIBgZngQwBAgMwDQYDVR0OBAYEBAQDAgEwGwYDVR0RBBQwEoIIKi5nb3Yu
dXOCBmdvdi51czANBgkqhkiG9w0BAQsFAAOCAQEAQHMsRbp0hmogBBp/UR8+pQVt
KQCxP9fIJ/j48H5qj7ZMZroZznZ+TFYZYvVf4eqgr+0OTvK+PaScORHJ5eSWAPmc
+DXL8pI89OmbQ8sPpl16kUM9j7DtG4WFK0zwgKDutfZBp+/xbugAMIkrp7cFOJ9K
Fuqfc5nyZq5/H6tqOpjLYKRgAxRibsHRbYdyDqneBlAYmPYKAECq8zMGrnM+pL3K
y0ZRD8IkGvsKlHWjOrtFN8N5NElvy+x5+mJzNHzD60s7rFWvP7ViyLccqG973d4F
H1rCgUG2Q3OKZcjVaLnGVEcMKZDZxmh+1Wjx83pwJND1ABSvbWXSP28awog/wQ==
-----END CERTIFICATE-----
