Certificate:
    Data:
        Version: 3 (0x2)
        Serial Number: 18008675309 (0x4316693ed)
    Signature Algorithm: sha256WithRSAEncryption
        Issuer: C = US, O = Mother Nature, OU = Everything, CN = Mother Nature
        Validity
            Not Before: Jun 28 00:08:30 2016 GMT
            Not After : Sep  9 00:08:30 2016 GMT
        Subject: ST = FL, L = Tallahassee, street = 3210 Holly Mill Run, postalCode = 30062, CN = gov.us, GN = Alexander, SN = Washington
        Subject Public Key Info:
            Public Key Algorithm: rsaEncryption
                Public-Key: (2048 bit)
                Modulus:
                    00:c5:a2:b4:0b:20:ff:e7:39:b7:4e:88:60:22:f5:
                    29:54:93:f4:86:cf:67:2e:c6:e6:89:a3:1c:43:7f:
                    6d:23:e6:36:b4:aa:cf:4e:e8:fa:c8:2d:c4:3f:26:
                    d4:3d:4a:0c:81:95:7b:b4:2e:02:c6:95:60:26:88:
                    9a:e3:9f:44:7c:66:54:b0:6d:10:09:64:7b:cd:6a:
                    53:36:2b:76:18:f7:fc:e4:a3:03:d5:57:9f:0b:e8:
                    e8:7c:90:de:de:e5:60:c7:8b:3a:30:22:42:34:69:
                    62:f9:e3:7b:18:7d:85:6a:4f:13:9d:48:fa:b2:b8:
                    5b:9d:e2:66:95:d2:1b:26:80:ad:13:e4:40:3c:e7:
                    79:4f:17:36:1b:f8:39:90:b7:b2:c5:80:1a:fe:1f:
                    06:ac:13:84:8f:1f:7f:e7:a3:9a:f7:18:9c:3b:f8:
                    5d:8f:47:62:aa:4d:70:5e:70:a6:c9:26:90:e4:69:
                    fe:4e:2f:b3:1f:2b:c6:de:33:c8:e6:c4:29:5f:95:
                    fd:56:e0:83:7a:e0:d5:36:c9:77:23:04:63:17:e4:
                    ea:2b:31:0c:9f:28:76:17:99:7f:cb:13:be:a5:78:
                    8b:50:1b:ee:28:dd:78:0b:00:17:5d:bf:69:cc:ec:
                    11:84:8d:dc:cf:56:3b:40:44:44:f9:dc:e9:f4:fc:
                    c9:99
                Exponent: 65537 (0x10001)
        X509v3 extensions:
            X509v3 Key Usage: critical
                Digital Signature, Key Encipherment
            X509v3 Extended Key Usage: 
                TLS Web Client Authentication, TLS Web Server Authentication
            X509v3 Basic Constraints: critical
                CA:FALSE
            X509v3 Authority Key Identifier: 
                keyid:01:02:03

            Authority Information Access: 
                OCSP - URI:http://theca.net/ocsp
                CA Issuers - URI:http://theca.net/totallythecert.crt

            X509v3 Certificate Policies: 
                Policy: 2.23.140.1.2.3

            X509v3 Subject Key Identifier: 
                04:03:02:01
            X509v3 Subject Alternative Name: 
                DNS:*.gov.us, DNS:gov.us
    Signature Algorithm: sha256WithRSAEncryption
         59:ee:de:a4:d5:5f:2b:c2:f5:68:32:2b:e5:cd:94:a9:1c:7e:
         f5:ec:81:a2:bc:96:4f:65:90:0f:4d:4b:46:07:9d:bf:e4:d9:
         43:17:12:d3:34:57:dc:d0:03:68:65:77:a3:76:6f:0d:97:25:
         fc:f1:64:8e:5a:ec:be:5d:4b:c6:58:88:b3:e8:be:18:ec:ce:
         65:39:7e:7c:da:b4:97:67:14:dc:6a:b2:fd:bf:b1:24:c1:6e:
         9c:85:d7:e3:7a:52:a8:ae:45:45:b3:27:20:08:bc:eb:4f:78:
         36:db:6c:e1:dd:47:f4:19:d4:ed:4d:f9:db:1f:ad:68:35:05:
         f3:e5:e7:87:a1:41:ad:ce:99:d3:7d:8f:15:40:cb:43:fc:f8:
         04:66:35:7e:60:4b:9e:98:2a:67:07:fd:eb:14:19:b9:45:d1:
         4a:d2:b8:b3:02:a0:a8:b4:4c:4b:ea:93:82:12:65:66:c8:f2:
         78:68:a2:98:9b:f0:66:00:bd:49:9f:56:a0:74:b0:4e:b0:d8:
         84:a1:6b:57:92:60:9c:ca:72:3e:0e:8b:c1:4d:fe:3a:18:5d:
         a8:dd:84:ef:5b:f3:ad:af:2f:5f:c6:bf:7c:ea:24:85:80:59:
         cf:f8:8a:8b:b8:5c:1b:34:29:6e:82:0f:be:fc:90:c4:c5:aa:
         51:07:38:c8
-----BEGIN CERTIFICATE-----
MIIEUzCCAzugAwIBAgIFBDFmk+0wDQYJKoZIhvcNAQELBQAwUjELMAkGA1UEBhMC
VVMxFjAUBgNVBAoTDU1vdGhlciBOYXR1cmUxEzARBgNVBAsTCkV2ZXJ5dGhpbmcx
FjAUBgNVBAMTDU1vdGhlciBOYXR1cmUwHhcNMTYwNjI4MDAwODMwWhcNMTYwOTA5
MDAwODMwWjCBizELMAkGA1UECBMCRkwxFDASBgNVBAcTC1RhbGxhaGFzc2VlMRww
GgYDVQQJExMzMjEwIEhvbGx5IE1pbGwgUnVuMQ4wDAYDVQQREwUzMDA2MjEPMA0G
A1UEAxMGZ292LnVzMRIwEAYDVQQqEwlBbGV4YW5kZXIxEzARBgNVBAQTCldhc2hp
bmd0b24wggEiMA0GCSqGSIb3DQEBAQUAA4IBDwAwggEKAoIBAQDForQLIP/nObdO
iGAi9SlUk/SGz2cuxuaJoxxDf20j5ja0qs9O6PrILcQ/JtQ9SgyBlXu0LgLGlWAm
iJrjn0R8ZlSwbRAJZHvNalM2K3YY9/zkowPVV58L6Oh8kN7e5WDHizowIkI0aWL5
43sYfYVqTxOdSPqyuFud4maV0hsmgK0T5EA853lPFzYb+DmQt7LFgBr+HwasE4SP
H3/no5r3GJw7+F2PR2KqTXBecKbJJpDkaf5OL7MfK8beM8jmxClflf1W4IN64NU2
yXcjBGMX5OorMQyfKHYXmX/LE76leItQG+4o3XgLABddv2nM7BGEjdzPVjtARET5
3On0/MmZAgMBAAGjgfUwgfIwDgYDVR0PAQH/BAQDAgWgMB0GA1UdJQQWMBQGCCsG
AQUFBwMCBggrBgEFBQcDATAMBgNVHRMBAf8EAjAAMA4GA1UdIwQHMAWAAwECAzBi
BggrBgEFBQcBAQRWMFQwIQYIKwYBBQUHMAGGFWh0dHA6Ly90aGVjYS5uZXQvb2Nz
cDAvBggrBgEFBQcwAoYjaHR0cDovL3RoZWNhLm5ldC90b3RhbGx5dGhlY2VydC5j
cnQwEwYDVR0gBAwwCjAIBgZngQwBAgMwDQYDVR0OBAYEBAQDAgEwGwYDVR0RBBQw
EoIIKi5nb3YudXOCBmdvdi51czANBgkqhkiG9w0BAQsFAAOCAQEAWe7epNVfK8L1
aDIr5c2UqRx+9eyBoryWT2WQD01LRgedv+TZQxcS0zRX3NADaGV3o3ZvDZcl/PFk
jlrsvl1LxliIs+i+GOzOZTl+fNq0l2cU3Gqy/b+xJMFunIXX43pSqK5FRbMnIAi8
6094Ntts4d1H9BnU7U352x+taDUF8+Xnh6FBrc6Z032PFUDLQ/z4BGY1fmBLnpgq
Zwf96xQZuUXRStK4swKgqLRMS+qTghJlZsjyeGiimJvwZgC9SZ9WoHSwTrDYhKFr
V5JgnMpyPg6LwU3+OhhdqN2E71vzra8vX8a/fOokhYBZz/iKi7hcGzQpboIPvvyQ
xMWqUQc4yA==
-----END CERTIFICATE-----
