Certificate:
    Data:
        Version: 3 (0x2)
        Serial Number: 18008675309 (0x4316693ed)
    Signature Algorithm: sha256WithRSAEncryption
        Issuer: C = US, O = Mother Nature, OU = Everything, CN = Mother Nature
        Validity
            Not Before: Jun 27 23:54:24 2016 GMT
            Not After : Sep  8 23:54:24 2016 GMT
        Subject: C = US, ST = FL, L = Tallahassee, street = 3210 Holly Mill Run, postalCode = 30062, O = Extreme Discord, CN = gov.us, GN = Alexander, SN = Washington
        Subject Public Key Info:
            Public Key Algorithm: rsaEncryption
                Public-Key: (2048 bit)
                Modulus:
                    00:cd:c7:ef:0d:ea:58:2b:14:67:e6:e5:54:12:69:
                    4f:0b:25:da:bf:ae:66:4a:20:ee:b3:af:26:1f:27:
                    ed:b3:fa:64:8c:fb:c4:24:18:03:1a:ce:99:b0:1e:
                    4e:f3:e9:4b:d4:29:28:fe:7d:68:6a:d4:98:1f:86:
                    d8:72:7b:0c:00:18:97:69:d3:59:0c:1b:cc:c0:e8:
                    95:35:58:fb:58:1a:93:32:67:78:f6:d2:dd:0d:59:
                    8f:09:67:2d:77:34:15:57:33:6a:27:56:26:9a:de:
                    a7:5f:d5:d6:70:28:ed:33:b4:8f:cc:98:e2:44:4a:
                    ae:8f:ca:eb:28:6a:f4:a5:3a:df:1f:e3:5f:58:0e:
                    27:ee:b9:46:1b:23:b7:7f:59:7d:a5:25:23:39:35:
                    1c:41:37:e8:57:4f:8b:c6:d9:79:44:49:d4:bf:f1:
                    30:8b:c3:04:ed:22:34:c7:e0:a4:f0:88:16:64:53:
                    d7:b0:5b:8e:09:2f:5d:3f:36:e6:9f:81:de:2a:c4:
                    aa:c8:5c:c0:a1:3b:9c:8a:79:6d:7e:a8:6c:42:ff:
                    c6:38:e1:0d:c2:21:66:a1:76:4d:54:dc:60:1f:5b:
                    c1:72:03:91:fe:26:99:a0:74:01:59:05:fa:4b:63:
                    b7:0b:31:5e:a7:69:ca:b8:1f:d9:16:8c:fc:53:3f:
                    5c:b7
                Exponent: 65537 (0x10001)
        X509v3 extensions:
            X509v3 Key Usage: critical
                Digital Signature, Key Encipherment
            X509v3 Extended Key Usage: 
                TLS Web Client Authentication, TLS Web Server Authentication
            X509v3 Basic Constraints: critical
                CA:FALSE
            X509v3 Authority Key Identifier: 
                keyid:01:02:03

            Authority Information Access: 
                OCSP - URI:http://theca.net/ocsp
                CA Issuers - URI:http://theca.net/totallythecert.crt

            X509v3 Certificate Policies: 
                Policy: 2.23.140.1.2.3

            X509v3 Subject Key Identifier: 
                04:03:02:01
            X509v3 Subject Alternative Name: 
                DNS:*.gov.us, DNS:gov.us
    Signature Algorithm: sha256WithRSAEncryption
         70:95:84:cc:7b:e7:32:dd:04:ad:e4:a6:6e:75:c0:9f:b8:8d:
         77:8f:6d:67:5f:34:22:46:55:cd:a3:fb:33:44:0c:db:70:2e:
         eb:75:4d:ed:4b:79:40:85:dc:ad:1a:79:aa:7c:63:c4:0e:31:
         7d:14:e1:3c:1a:4b:d6:68:55:62:cd:99:4f:4b:a8:d8:0d:f2:
         38:b1:77:5f:cf:e9:d9:5c:62:d0:63:ea:45:fa:25:4c:a3:30:
         bf:dd:63:d3:3d:e3:81:90:25:31:f4:a9:9a:b1:b1:89:9e:c1:
         0c:df:e9:0e:32:a0:67:17:50:6b:f6:09:b7:a1:3d:30:b7:a1:
         a2:2f:a5:16:40:14:ce:bf:aa:ba:03:95:41:e1:cd:fa:be:0a:
         12:d6:84:42:52:ee:fc:5f:62:11:db:29:79:27:8c:f0:60:e3:
         9f:71:10:9d:b9:ca:ce:ba:d8:6b:da:b0:ff:8e:7a:54:4c:c5:
         ca:01:d8:6d:c7:cc:51:50:52:07:72:7c:38:89:81:37:04:3b:
         3a:53:cd:a8:81:45:d9:e5:2f:0e:66:98:69:62:df:57:58:89:
         55:33:87:d0:0f:c0:29:0e:10:27:40:36:df:70:9d:99:f0:37:
         13:7e:19:06:e5:eb:9e:21:f3:bb:db:55:33:e9:61:53:6d:fa:
         25:ee:3e:a5
-----BEGIN CERTIFICATE-----
MIIEejCCA2KgAwIBAgIFBDFmk+0wDQYJKoZIhvcNAQELBQAwUjELMAkGA1UEBhMC
VVMxFjAUBgNVBAoTDU1vdGhlciBOYXR1cmUxEzARBgNVBAsTCkV2ZXJ5dGhpbmcx
FjAUBgNVBAMTDU1vdGhlciBOYXR1cmUwHhcNMTYwNjI3MjM1NDI0WhcNMTYwOTA4
MjM1NDI0WjCBsjELMAkGA1UEBhMCVVMxCzAJBgNVBAgTAkZMMRQwEgYDVQQHEwtU
YWxsYWhhc3NlZTEcMBoGA1UECRMTMzIxMCBIb2xseSBNaWxsIFJ1bjEOMAwGA1UE
ERMFMzAwNjIxGDAWBgNVBAoTD0V4dHJlbWUgRGlzY29yZDEPMA0GA1UEAxMGZ292
LnVzMRIwEAYDVQQqEwlBbGV4YW5kZXIxEzARBgNVBAQTCldhc2hpbmd0b24wggEi
MA0GCSqGSIb3DQEBAQUAA4IBDwAwggEKAoIBAQDNx+8N6lgrFGfm5VQSaU8LJdq/
rmZKIO6zryYfJ+2z+mSM+8QkGAMazpmwHk7z6UvUKSj+fWhq1JgfhthyewwAGJdp
01kMG8zA6JU1WPtYGpMyZ3j20t0NWY8JZy13NBVXM2onViaa3qdf1dZwKO0ztI/M
mOJESq6PyusoavSlOt8f419YDifuuUYbI7d/WX2lJSM5NRxBN+hXT4vG2XlESdS/
8TCLwwTtIjTH4KTwiBZkU9ewW44JL10/Nuafgd4qxKrIXMChO5yKeW1+qGxC/8Y4
4Q3CIWahdk1U3GAfW8FyA5H+JpmgdAFZBfpLY7cLMV6nacq4H9kWjPxTP1y3AgMB
AAGjgfUwgfIwDgYDVR0PAQH/BAQDAgWgMB0GA1UdJQQWMBQGCCsGAQUFBwMCBggr
BgEFBQcDATAMBgNVHRMBAf8EAjAAMA4GA1UdIwQHMAWAAwECAzBiBggrBgEFBQcB
AQRWMFQwIQYIKwYBBQUHMAGGFWh0dHA6Ly90aGVjYS5uZXQvb2NzcDAvBggrBgEF
BQcwAoYjaHR0cDovL3RoZWNhLm5ldC90b3RhbGx5dGhlY2VydC5jcnQwEwYDVR0g
BAwwCjAIBgZngQwBAgMwDQYDVR0OBAYEBAQDAgEwGwYDVR0RBBQwEoIIKi5nb3Yu
dXOCBmdvdi51czANBgkqhkiG9w0BAQsFAAOCAQEAcJWEzHvnMt0EreSmbnXAn7iN
d49tZ180IkZVzaP7M0QM23Au63VN7Ut5QIXcrRp5qnxjxA4xfRThPBpL1mhVYs2Z
T0uo2A3yOLF3X8/p2Vxi0GPqRfolTKMwv91j0z3jgZAlMfSpmrGxiZ7BDN/pDjKg
ZxdQa/YJt6E9MLehoi+lFkAUzr+qugOVQeHN+r4KEtaEQlLu/F9iEdspeSeM8GDj
n3EQnbnKzrrYa9qw/456VEzFygHYbcfMUVBSB3J8OImBNwQ7OlPNqIFF2eUvDmaY
aWLfV1iJVTOH0A/AKQ4QJ0A233CdmfA3E34ZBuXrniHzu9tVM+lhU236Je4+pQ==
-----END CERTIFICATE-----
