Certificate:
    Data:
        Version: 3 (0x2)
        Serial Number: 18008675309 (0x4316693ed)
    Signature Algorithm: sha256WithRSAEncryption
        Issuer: C = US, O = Mother Nature, OU = Everything, CN = Mother Nature
        Validity
            Not Before: Jun 28 00:04:51 2016 GMT
            Not After : Sep  9 00:04:51 2016 GMT
        Subject: C = US, ST = FL, L = Tallahassee, street = 3210 Holly Mill Run, postalCode = 30062, CN = gov.us, SN = Washington
        Subject Public Key Info:
            Public Key Algorithm: rsaEncryption
                Public-Key: (2048 bit)
                Modulus:
                    00:9d:f1:85:30:44:3b:f9:44:0d:59:91:ba:90:48:
                    bd:63:77:4f:c7:dd:5b:1a:67:e6:f8:33:74:40:c7:
                    c8:e2:98:f3:5d:cc:ba:9e:3b:8c:22:00:5e:66:74:
                    9f:32:6b:09:cf:07:4d:cd:40:e4:5d:3d:03:32:6d:
                    bc:7e:ee:c7:f6:0c:40:4f:2a:22:8b:5c:e8:11:cb:
                    b1:b2:58:68:0d:0a:88:9f:1f:c2:0a:4e:58:af:1e:
                    29:bc:73:cd:f9:e8:87:f4:4e:a0:f1:78:d5:a4:10:
                    ec:66:ef:e5:db:0a:d8:61:38:da:ae:e7:e9:8f:2a:
                    b4:65:78:5f:0c:a7:dc:ff:5b:40:af:d2:6f:bf:fb:
                    09:47:7a:48:6d:84:b3:e3:ac:65:1a:8f:81:44:5f:
                    02:c7:4e:5c:b3:18:2e:3c:7f:d8:2a:b4:40:c8:84:
                    64:0c:7f:f1:12:f7:ba:0d:ca:08:63:37:0b:4c:e3:
                    d6:a5:a4:19:e6:0f:78:d5:ea:9c:85:f9:ed:ad:2e:
                    c7:19:a0:ad:47:94:33:2a:63:96:66:66:60:73:44:
                    6a:6d:86:f3:11:7e:24:23:8b:e4:c8:3c:a1:b7:87:
                    c3:d8:15:09:15:ea:c3:52:4f:1d:aa:44:03:77:56:
                    50:3e:f4:14:0b:f8:18:88:ea:b3:59:c3:a1:e6:bb:
                    d8:87
                Exponent: 65537 (0x10001)
        X509v3 extensions:
            X509v3 Key Usage: critical
                Digital Signature, Key Encipherment
            X509v3 Extended Key Usage: 
                TLS Web Client Authentication, TLS Web Server Authentication
            X509v3 Basic Constraints: critical
                CA:FALSE
            X509v3 Authority Key Identifier: 
                keyid:01:02:03

            Authority Information Access: 
                OCSP - URI:http://theca.net/ocsp
                CA Issuers - URI:http://theca.net/totallythecert.crt

            X509v3 Certificate Policies: 
                Policy: 2.23.140.1.2.3

            X509v3 Subject Key Identifier: 
                04:03:02:01
            X509v3 Subject Alternative Name: 
                DNS:*.gov.us, DNS:gov.us
    Signature Algorithm: sha256WithRSAEncryption
         20:d8:91:d2:af:e3:04:d8:21:3f:9e:b1:5d:1a:9b:2c:eb:08:
         38:01:06:3f:8a:ac:04:d2:bb:b7:67:47:99:08:9f:60:6e:b7:
         ac:0d:64:09:76:5b:94:52:c0:29:2d:d7:6f:1f:8a:63:ce:c6:
         e7:69:e8:7a:f1:3a:ea:a5:13:45:93:e8:7b:f1:b7:9e:a2:a9:
         da:97:92:6c:31:c2:d0:c6:4d:a9:c3:83:77:d6:7a:31:67:2f:
         be:2d:8f:27:53:48:ed:9f:fd:f1:14:a2:96:f1:2f:88:a3:c4:
         93:23:4c:8e:f7:9e:c1:f3:ab:c9:6c:21:52:59:4b:8d:50:04:
         a2:d2:91:50:07:ad:d9:c0:de:90:0a:3b:b3:2b:84:84:08:73:
         b3:2c:cf:68:3e:bf:9f:80:78:85:02:f5:ed:3e:cb:86:f6:7f:
         f1:c6:88:53:f1:f4:45:cd:05:d2:c7:7b:45:49:c2:4a:61:83:
         15:98:62:b8:8b:ac:7e:4b:9c:4a:e7:36:82:ee:31:e7:43:99:
         55:8f:fc:37:4d:cd:6d:46:7c:33:40:d9:7d:f8:c2:3c:a3:01:
         8a:57:46:a9:37:bf:7c:f0:94:d5:5b:e6:02:5e:bb:e3:e4:d5:
         ca:77:80:c5:5c:83:78:9d:0a:90:86:4f:4c:f9:b1:27:ee:0f:
         77:a3:e8:b2
-----BEGIN CERTIFICATE-----
MIIETDCCAzSgAwIBAgIFBDFmk+0wDQYJKoZIhvcNAQELBQAwUjELMAkGA1UEBhMC
VVMxFjAUBgNVBAoTDU1vdGhlciBOYXR1cmUxEzARBgNVBAsTCkV2ZXJ5dGhpbmcx
FjAUBgNVBAMTDU1vdGhlciBOYXR1cmUwHhcNMTYwNjI4MDAwNDUxWhcNMTYwOTA5
MDAwNDUxWjCBhDELMAkGA1UEBhMCVVMxCzAJBgNVBAgTAkZMMRQwEgYDVQQHEwtU
YWxsYWhhc3NlZTEcMBoGA1UECRMTMzIxMCBIb2xseSBNaWxsIFJ1bjEOMAwGA1UE
ERMFMzAwNjIxDzANBgNVBAMTBmdvdi51czETMBEGA1UEBBMKV2FzaGluZ3RvbjCC
ASIwDQYJKoZIhvcNAQEBBQADggEPADCCAQoCggEBAJ3xhTBEO/lEDVmRupBIvWN3
T8fdWxpn5vgzdEDHyOKY813Mup47jCIAXmZ0nzJrCc8HTc1A5F09AzJtvH7ux/YM
QE8qIotc6BHLsbJYaA0KiJ8fwgpOWK8eKbxzzfnoh/ROoPF41aQQ7Gbv5dsK2GE4
2q7n6Y8qtGV4Xwyn3P9bQK/Sb7/7CUd6SG2Es+OsZRqPgURfAsdOXLMYLjx/2Cq0
QMiEZAx/8RL3ug3KCGM3C0zj1qWkGeYPeNXqnIX57a0uxxmgrUeUMypjlmZmYHNE
am2G8xF+JCOL5Mg8obeHw9gVCRXqw1JPHapEA3dWUD70FAv4GIjqs1nDoea72IcC
AwEAAaOB9TCB8jAOBgNVHQ8BAf8EBAMCBaAwHQYDVR0lBBYwFAYIKwYBBQUHAwIG
CCsGAQUFBwMBMAwGA1UdEwEB/wQCMAAwDgYDVR0jBAcwBYADAQIDMGIGCCsGAQUF
BwEBBFYwVDAhBggrBgEFBQcwAYYVaHR0cDovL3RoZWNhLm5ldC9vY3NwMC8GCCsG
AQUFBzAChiNodHRwOi8vdGhlY2EubmV0L3RvdGFsbHl0aGVjZXJ0LmNydDATBgNV
HSAEDDAKMAgGBmeBDAECAzANBgNVHQ4EBgQEBAMCATAbBgNVHREEFDASgggqLmdv
di51c4IGZ292LnVzMA0GCSqGSIb3DQEBCwUAA4IBAQAg2JHSr+ME2CE/nrFdGpss
6wg4AQY/iqwE0ru3Z0eZCJ9gbresDWQJdluUUsApLddvH4pjzsbnaeh68TrqpRNF
k+h78beeoqnal5JsMcLQxk2pw4N31noxZy++LY8nU0jtn/3xFKKW8S+Io8STI0yO
957B86vJbCFSWUuNUASi0pFQB63ZwN6QCjuzK4SECHOzLM9oPr+fgHiFAvXtPsuG
9n/xxohT8fRFzQXSx3tFScJKYYMVmGK4i6x+S5xK5zaC7jHnQ5lVj/w3Tc1tRnwz
QNl9+MI8owGKV0apN7988JTVW+YCXrvj5NXKd4DFXIN4nQqQhk9M+bEn7g93o+iy
-----END CERTIFICATE-----
