Certificate:
    Data:
        Version: 3 (0x2)
        Serial Number:
            16:e3:9f:2c:68:44:05:d6:2f:4a:8a:9e:2c:d7:d2:f7:40:00:00:00:00
    Signature Algorithm: sha256WithRSAEncryption
        Issuer: C = US, O = Mother Nature, OU = Everything, CN = Mother Nature
        Validity
            Not Before: Jul  7 20:54:46 2016 GMT
            Not After : Sep 19 20:54:46 2016 GMT
        Subject: C = US, ST = FL, L = Tallahassee, street = 3210 Holly Mill Run, postalCode = 30062, O = Extreme Discord, OU = Chaos, CN = gov.us
        Subject Public Key Info:
            Public Key Algorithm: rsaEncryption
                Public-Key: (2048 bit)
                Modulus:
                    00:ec:b9:f1:59:3d:4e:62:c5:23:7a:e0:07:ca:d9:
                    c3:ba:3d:ef:83:f6:82:36:c3:53:5c:ba:34:55:35:
                    69:82:ac:b0:2b:12:73:8b:8f:9f:a7:85:d5:cf:17:
                    43:84:24:45:6c:b2:f6:78:93:44:11:28:39:5b:a4:
                    3b:40:1a:5a:01:e2:52:0f:68:f6:0e:e2:0b:07:1d:
                    66:be:c2:5c:94:c8:3d:05:b0:91:a7:5e:09:b8:79:
                    ad:db:dc:5d:d4:06:a0:dc:f6:0d:5b:9c:84:c9:ff:
                    b2:93:cc:5a:c8:ac:7f:41:b4:c9:5d:e3:f0:c9:5d:
                    e0:5c:74:d6:d9:be:ec:9c:87:82:56:0f:ff:f1:e5:
                    87:b8:de:ab:b7:23:83:bd:36:4f:fb:5c:57:e7:97:
                    aa:db:ed:2e:c3:5e:4f:33:e3:0c:6c:bb:db:94:f6:
                    35:7d:5a:17:6b:5f:33:b7:34:ae:c4:34:e4:03:fd:
                    b1:47:4c:0c:95:6e:74:96:03:74:a2:9b:1a:a0:a2:
                    c7:05:9c:58:4b:25:2b:e1:fa:44:1f:48:ef:10:ce:
                    bc:42:16:7b:27:d1:a1:5b:30:d9:da:67:d7:a4:96:
                    f9:16:ba:25:6a:34:66:22:8d:74:ad:03:a3:88:4d:
                    09:e3:46:b3:6f:5b:ce:30:33:1e:89:38:01:92:7c:
                    f3:13
                Exponent: 65537 (0x10001)
        X509v3 extensions:
            X509v3 Basic Constraints: critical
                CA:TRUE
            X509v3 Authority Key Identifier: 
                keyid:01:02:03

            X509v3 Subject Key Identifier: 
                04:03:02:01
            X509v3 Subject Alternative Name: 
                DNS:*.gov.us, DNS:gov.us
            X509v3 Key Usage: 
                Digital Signature, Certificate Sign, CRL Sign
            X509v3 Extended Key Usage: critical
                TLS Web Server Authentication, TLS Web Client Authentication
            X509v3 CRL Distribution Points: critical

                Full Name:
                  URI:http://crl.starfieldtech.com/sfig2s1-17.crl

            X509v3 Inhibit Any Policy: critical
                131330
    Signature Algorithm: sha256WithRSAEncryption
         be:cf:00:c8:7f:9d:cf:b2:46:17:c2:a8:b6:5d:18:30:f1:d5:
         7b:00:40:e4:a5:64:14:86:4f:ee:d1:a0:9c:1d:03:11:c5:43:
         c8:1c:a7:a9:80:4b:19:1a:df:21:70:ae:57:36:58:88:93:b2:
         41:a1:c6:74:5c:3c:52:3a:22:c3:f0:55:e0:9d:23:89:70:16:
         fa:6e:fe:17:fa:cd:df:b7:4e:c3:f4:d0:6e:cb:c3:94:bb:44:
         e2:b4:e4:43:c5:e2:4f:68:67:b7:79:79:42:e0:46:fd:dd:10:
         00:9f:ca:2c:7c:9b:08:25:44:92:66:29:ea:9b:11:18:42:aa:
         04:7a:03:65:0a:db:00:db:d0:5c:f2:39:3a:74:b5:cc:85:13:
         0e:f0:43:11:57:f9:48:e9:97:4b:4e:f0:1b:04:2b:5a:87:38:
         56:3b:c8:ef:aa:5a:7d:5d:32:80:2a:ff:39:03:4a:42:04:f2:
         46:f1:8a:37:d6:63:f3:f2:e3:22:a3:13:82:8d:4a:bb:23:5a:
         b1:7d:4a:62:60:29:65:e3:ef:f6:d0:85:ac:07:ca:c5:41:7d:
         75:b5:f6:e6:ef:7f:72:a3:c4:fe:fb:a7:d1:87:d3:7b:e5:cb:
         60:88:b2:a8:4a:0d:bd:21:e8:aa:d1:09:5c:5a:a2:5d:89:d5:
         0f:ce:83:4d
-----BEGIN CERTIFICATE-----
MIIETTCCAzWgAwIBAgIVFuOfLGhEBdYvSoqeLNfS90AAAAAAMA0GCSqGSIb3DQEB
CwUAMFIxCzAJBgNVBAYTAlVTMRYwFAYDVQQKEw1Nb3RoZXIgTmF0dXJlMRMwEQYD
VQQLEwpFdmVyeXRoaW5nMRYwFAYDVQQDEw1Nb3RoZXIgTmF0dXJlMB4XDTE2MDcw
NzIwNTQ0NloXDTE2MDkxOTIwNTQ0NlowgZkxCzAJBgNVBAYTAlVTMQswCQYDVQQI
EwJGTDEUMBIGA1UEBxMLVGFsbGFoYXNzZWUxHDAaBgNVBAkTEzMyMTAgSG9sbHkg
TWlsbCBSdW4xDjAMBgNVBBETBTMwMDYyMRgwFgYDVQQKEw9FeHRyZW1lIERpc2Nv
cmQxDjAMBgNVBAsTBUNoYW9zMQ8wDQYDVQQDEwZnb3YudXMwggEiMA0GCSqGSIb3
DQEBAQUAA4IBDwAwggEKAoIBAQDsufFZPU5ixSN64AfK2cO6Pe+D9oI2w1NcujRV
NWmCrLArEnOLj5+nhdXPF0OEJEVssvZ4k0QRKDlbpDtAGloB4lIPaPYO4gsHHWa+
wlyUyD0FsJGnXgm4ea3b3F3UBqDc9g1bnITJ/7KTzFrIrH9BtMld4/DJXeBcdNbZ
vuych4JWD//x5Ye43qu3I4O9Nk/7XFfnl6rb7S7DXk8z4wxsu9uU9jV9WhdrXzO3
NK7ENOQD/bFHTAyVbnSWA3SimxqgoscFnFhLJSvh+kQfSO8QzrxCFnsn0aFbMNna
Z9eklvkWuiVqNGYijXStA6OITQnjRrNvW84wMx6JOAGSfPMTAgMBAAGjgdEwgc4w
DwYDVR0TAQH/BAUwAwEB/zAOBgNVHSMEBzAFgAMBAgMwDQYDVR0OBAYEBAQDAgEw
GwYDVR0RBBQwEoIIKi5nb3YudXOCBmdvdi51czALBgNVHQ8EBAMCAYYwIAYDVR0l
AQH/BBYwFAYIKwYBBQUHAwEGCCsGAQUFBwMCMD8GA1UdHwEB/wQ1MDMwMaAvoC2G
K2h0dHA6Ly9jcmwuc3RhcmZpZWxkdGVjaC5jb20vc2ZpZzJzMS0xNy5jcmwwDwYD
VR02AQH/BAUCAwIBAjANBgkqhkiG9w0BAQsFAAOCAQEAvs8AyH+dz7JGF8Kotl0Y
MPHVewBA5KVkFIZP7tGgnB0DEcVDyBynqYBLGRrfIXCuVzZYiJOyQaHGdFw8Ujoi
w/BV4J0jiXAW+m7+F/rN37dOw/TQbsvDlLtE4rTkQ8XiT2hnt3l5QuBG/d0QAJ/K
LHybCCVEkmYp6psRGEKqBHoDZQrbANvQXPI5OnS1zIUTDvBDEVf5SOmXS07wGwQr
Woc4VjvI76pafV0ygCr/OQNKQgTyRvGKN9Zj8/LjIqMTgo1KuyNasX1KYmApZePv
9tCFrAfKxUF9dbX25u9/cqPE/vun0YfTe+XLYIiyqEoNvSHoqtEJXFqiXYnVD86D
TQ==
-----END CERTIFICATE-----
