Certificate:
    Data:
        Version: 3 (0x2)
        Serial Number: 1 (0x1)
    Signature Algorithm: sha256WithRSAEncryption
        Issuer: CN=Mother Nature, OU=Everything, O=Mother Nature/postalCode=postalcode, C=US, GN=givenname, SN=surname
        Validity
            Not Before: Aug 29 18:59:44 2017 GMT
            Not After : Nov 10 19:59:44 2017 GMT
        Subject: CN=gov.us, OU=Chaos, O=org/street=3210 Holly Mill Run, ST=province/postalCode=30062, GN=hello, SN=surname
        Subject Public Key Info:
            Public Key Algorithm: rsaEncryption
                Public-Key: (2048 bit)
                Modulus:
                    00:d3:00:f6:84:c2:5b:82:73:33:6a:51:36:79:6f:
                    ef:05:44:01:30:62:49:75:63:d9:75:c8:cd:9d:bd:
                    85:cf:7d:7a:c4:87:f0:61:66:b0:55:d9:64:8a:cf:
                    0f:69:1e:25:02:11:0e:69:65:e0:48:bb:89:90:b1:
                    56:73:2c:36:d5:44:ee:a6:da:c5:bd:39:fc:b5:c2:
                    d0:ea:7f:9a:a4:0f:76:d8:ef:b1:2e:12:4b:c4:6d:
                    da:ab:a0:e2:61:d3:3e:71:a1:9b:00:63:20:72:2c:
                    e6:5c:3e:cc:6a:bc:df:a0:71:c5:37:42:f4:2e:66:
                    41:70:16:36:a9:36:c8:b4:7e:74:b6:6a:37:95:b3:
                    a8:45:8f:4f:bc:a8:db:e9:0c:5c:7c:ae:d3:25:b4:
                    0a:02:de:16:22:84:1d:fc:cc:57:e3:d6:22:53:b6:
                    12:78:c0:10:24:5a:6e:c6:17:e4:42:70:b8:40:2e:
                    9c:ec:ce:fa:24:41:11:a3:ba:83:81:36:38:3d:3b:
                    21:96:0c:1d:49:27:fc:3a:6b:c5:b2:f5:d8:b5:48:
                    94:2b:f0:00:a3:2d:58:bc:05:20:1e:99:b7:ff:f1:
                    57:d6:35:3b:2f:30:5e:43:79:ae:5e:2b:d6:18:d5:
                    b8:72:8e:51:61:52:b6:88:6e:2d:9f:6d:59:49:ff:
                    48:49
                Exponent: 65537 (0x10001)
        X509v3 extensions:
            X509v3 Key Usage: critical
                Digital Signature, Key Encipherment, Certificate Sign
            X509v3 Extended Key Usage: 
                TLS Web Client Authentication, TLS Web Server Authentication
            X509v3 Basic Constraints: critical
                CA:TRUE
            X509v3 Authority Key Identifier: 
                keyid:01:02:03

            Authority Information Access: 
                OCSP - URI:http://theca.net/ocsp
                CA Issuers - URI:http://theca.net/totallythecert.crt

            X509v3 Subject Alternative Name: 
                DNS:hell,o.com.uk
            X509v3 Certificate Policies: 
                Policy: X509v3 Any Policy

    Signature Algorithm: sha256WithRSAEncryption
         15:1a:c2:97:d2:a8:71:07:7a:b8:ed:1c:66:80:c9:f5:80:4e:
         64:8a:09:84:e3:3c:67:c1:15:e3:89:21:54:63:48:7e:cf:a3:
         61:4a:b8:f4:d0:95:9d:cd:ee:0e:34:75:40:0b:f7:14:be:bb:
         f2:fc:02:ed:40:a1:f6:43:49:70:c3:74:02:29:85:79:6b:a7:
         17:ed:1d:f5:43:03:d1:c9:a0:32:4d:84:f1:28:5d:0f:c2:be:
         64:70:b4:9c:8f:85:86:25:f8:05:20:ea:6f:13:11:55:fe:fc:
         6d:1b:f5:9d:c7:35:a7:2f:ef:79:a1:e8:41:30:95:85:0c:0f:
         fd:08:f8:8e:bf:5f:77:ca:43:e0:87:55:57:ca:93:9e:4f:48:
         19:ed:ef:9f:30:cc:34:b7:05:ad:57:3f:4a:59:74:12:49:af:
         d4:04:3f:30:8f:c4:d3:dc:c1:9b:10:ec:8e:54:60:56:be:92:
         35:7e:07:c6:b1:62:c1:ef:4c:e9:2e:de:8c:90:e4:b5:e2:85:
         d9:fa:d0:9d:88:46:27:71:86:54:f0:fd:01:6a:e6:91:0c:d6:
         c5:02:84:13:e9:a7:cd:3a:75:5f:3b:7a:ba:4e:3b:41:4a:92:
         21:bd:35:75:a9:9a:ac:ad:50:58:d9:12:ba:10:35:72:5a:ee:
         2f:28:c9:3e
-----BEGIN CERTIFICATE-----
MIIEgTCCA2ugAwIBAgIBATALBgkqhkiG9w0BAQswgY8xFjAUBgNVBAMTDU1vdGhl
ciBOYXR1cmUxEzARBgNVBAsTCkV2ZXJ5dGhpbmcxFjAUBgNVBAoTDU1vdGhlciBO
YXR1cmUxEzARBgNVBBETCnBvc3RhbGNvZGUxCzAJBgNVBAYTAlVTMRIwEAYDVQQq
EwlnaXZlbm5hbWUxEDAOBgNVBAQTB3N1cm5hbWUxADAeFw0xNzA4MjkxODU5NDRa
Fw0xNzExMTAxOTU5NDRaMIGUMQ8wDQYDVQQDEwZnb3YudXMxDjAMBgNVBAsTBUNo
YW9zMQwwCgYDVQQKEwNvcmcxHDAaBgNVBAkTEzMyMTAgSG9sbHkgTWlsbCBSdW4x
ETAPBgNVBAgTCHByb3ZpbmNlMQ4wDAYDVQQREwUzMDA2MjEOMAwGA1UEKhMFaGVs
bG8xEDAOBgNVBAQTB3N1cm5hbWUxADCCASIwDQYJKoZIhvcNAQEBBQADggEPADCC
AQoCggEBANMA9oTCW4JzM2pRNnlv7wVEATBiSXVj2XXIzZ29hc99esSH8GFmsFXZ
ZIrPD2keJQIRDmll4Ei7iZCxVnMsNtVE7qbaxb05/LXC0Op/mqQPdtjvsS4SS8Rt
2qug4mHTPnGhmwBjIHIs5lw+zGq836BxxTdC9C5mQXAWNqk2yLR+dLZqN5WzqEWP
T7yo2+kMXHyu0yW0CgLeFiKEHfzMV+PWIlO2EnjAECRabsYX5EJwuEAunOzO+iRB
EaO6g4E2OD07IZYMHUkn/DprxbL12LVIlCvwAKMtWLwFIB6Zt//xV9Y1Oy8wXkN5
rl4r1hjVuHKOUWFStohuLZ9tWUn/SEkCAwEAAaOB5DCB4TAOBgNVHQ8BAf8EBAMC
AKQwHQYDVR0lBBYwFAYIKwYBBQUHAwIGCCsGAQUFBwMBMA8GA1UdEwEB/wQFMAMB
Af8wDgYDVR0jBAcwBYADAQIDMGIGCCsGAQUFBwEBBFYwVDAhBggrBgEFBQcwAYYV
aHR0cDovL3RoZWNhLm5ldC9vY3NwMC8GCCsGAQUFBzAChiNodHRwOi8vdGhlY2Eu
bmV0L3RvdGFsbHl0aGVjZXJ0LmNydDAYBgNVHREEETAPgg1oZWxsLG8uY29tLnVr
MBEGA1UdIAQKMAgwBgYEVR0gADALBgkqhkiG9w0BAQsDggEBABUawpfSqHEHerjt
HGaAyfWATmSKCYTjPGfBFeOJIVRjSH7Po2FKuPTQlZ3N7g40dUAL9xS+u/L8Au1A
ofZDSXDDdAIphXlrpxftHfVDA9HJoDJNhPEoXQ/CvmRwtJyPhYYl+AUg6m8TEVX+
/G0b9Z3HNacv73mh6EEwlYUMD/0I+I6/X3fKQ+CHVVfKk55PSBnt758wzDS3Ba1X
P0pZdBJJr9QEPzCPxNPcwZsQ7I5UYFa+kjV+B8axYsHvTOku3oyQ5LXihdn60J2I
RidxhlTw/QFq5pEM1sUChBPpp806dV87erpOO0FKkiG9NXWpmqytUFjZEroQNXJa
7i8oyT4=
-----END CERTIFICATE-----
