Certificate:
    Data:
        Version: 3 (0x2)
        Serial Number: 18008675984 (0x431669690)
    Signature Algorithm: sha256WithRSAEncryption
        Issuer: C = US, O = Mother Nature, OU = Everything, CN = Mother Nature
        Validity
            Not Before: Jul  6 16:34:08 2016 GMT
            Not After : Sep 18 16:34:08 2016 GMT
        Subject: C = US, ST = FL, L = Tallahassee, street = 3210 Holly Mill Run, postalCode = 30062, O = Extreme Discord, OU = Chaos, CN = gov.us
        Subject Public Key Info:
            Public Key Algorithm: rsaEncryption
                Public-Key: (2048 bit)
                Modulus:
                    00:a9:46:42:79:c3:ac:f9:8f:22:d6:ae:77:1e:ef:
                    83:a0:5f:ed:6b:4b:64:47:32:9b:a3:d0:e3:5a:2a:
                    3d:05:79:57:5c:58:a5:39:56:05:a9:e3:27:3a:ac:
                    31:a6:fb:86:8b:f5:d8:fc:ee:25:45:5c:9e:98:5d:
                    77:5b:5f:7f:ef:dc:38:63:56:c0:74:16:89:88:28:
                    98:15:3e:fa:8f:94:90:ef:36:9f:0f:b6:b5:d0:96:
                    84:fa:5e:ce:d9:5d:a7:4e:79:cc:f7:aa:0a:29:49:
                    3a:59:be:6c:3c:44:d5:aa:40:ae:b1:99:f7:b1:c0:
                    82:a9:22:8f:eb:43:51:4c:8d:96:3e:e3:0f:b4:f0:
                    88:ec:18:ab:de:02:2d:06:8d:1a:1c:af:ac:cc:f8:
                    09:c1:00:8d:46:c9:e3:73:4d:9b:dd:2a:60:51:ed:
                    3a:e3:57:1d:6d:20:f4:05:53:f5:c1:af:64:8e:a2:
                    f5:2e:98:4c:45:d7:da:3d:2f:84:9a:8b:55:76:36:
                    80:02:b5:1f:6d:de:b3:b7:f5:cf:d9:37:c1:e4:4c:
                    f5:89:7f:da:d6:3e:7c:1e:df:34:83:87:d2:0e:4d:
                    03:38:a2:a2:3a:00:fe:a3:fe:7c:b0:ea:10:ee:2f:
                    4d:b4:a7:76:eb:2b:30:6a:d4:4d:1d:17:89:a7:95:
                    a6:07
                Exponent: 65537 (0x10001)
        X509v3 extensions:
            X509v3 Extended Key Usage: 
                TLS Web Client Authentication, TLS Web Server Authentication
            X509v3 Basic Constraints: critical
                CA:TRUE
            X509v3 Authority Key Identifier: 
                keyid:01:02:03

            Authority Information Access: 
                OCSP - URI:http://theca.net/ocsp
                CA Issuers - URI:http://theca.net/totallythecert.crt

            X509v3 Certificate Policies: 
                Policy: 1.3.6.1.5.5.7.13.1
                Policy: 2.23.140.1.2.2

            X509v3 Subject Key Identifier: 
                04:03:02:01
            X509v3 Subject Alternative Name: 
                DNS:*.gov.us, DNS:gov.us
            X509v3 Issuer Alternative Name: 
                DNS:allthethings.net, DNS:theca.net
            X509v3 Key Usage: critical
                ....
    Signature Algorithm: sha256WithRSAEncryption
         06:d3:4d:0b:e9:bc:68:0f:fb:98:6e:1c:e2:88:d7:8d:ed:d2:
         b6:bf:f9:63:26:9f:8e:3d:0a:51:c5:f0:e1:70:7a:45:51:b8:
         ee:42:f9:30:7a:12:23:cb:ff:55:b3:48:55:58:cd:29:2f:c3:
         8e:30:2c:df:31:3e:53:ac:26:91:ec:28:33:b9:16:93:cd:31:
         1e:bd:7d:8c:e6:3f:c3:59:dc:84:b7:1f:bc:d6:9e:db:47:7a:
         90:b5:03:86:fe:0b:f1:7c:46:50:59:2c:7a:23:c9:83:e9:df:
         a3:68:2c:e3:8e:8b:ba:da:05:d1:0b:fe:5d:69:d3:ae:3e:23:
         c9:ee:b9:ef:54:fa:9d:1a:d7:11:4e:3d:cf:27:7e:ba:10:89:
         21:93:fe:20:60:02:9f:92:1a:fc:c2:f2:c5:df:be:7d:b4:8d:
         15:3f:68:e5:7a:46:bc:86:eb:23:cd:86:62:ee:0d:3e:90:01:
         80:06:12:23:83:76:02:45:b3:10:98:a1:76:f0:a0:9a:b7:a5:
         a6:db:05:7d:6c:5f:a1:02:16:50:53:c8:cb:cb:5b:84:4b:6f:
         60:3f:bf:1f:f1:85:12:01:4f:00:96:cc:47:96:31:09:1f:84:
         f4:61:95:00:82:aa:9d:de:4c:7a:dd:ca:da:8f:26:8b:e3:8a:
         f7:cf:51:0a
-----BEGIN CERTIFICATE-----
MIIEmjCCA4KgAwIBAgIFBDFmlpAwDQYJKoZIhvcNAQELBQAwUjELMAkGA1UEBhMC
VVMxFjAUBgNVBAoTDU1vdGhlciBOYXR1cmUxEzARBgNVBAsTCkV2ZXJ5dGhpbmcx
FjAUBgNVBAMTDU1vdGhlciBOYXR1cmUwHhcNMTYwNzA2MTYzNDA4WhcNMTYwOTE4
MTYzNDA4WjCBmTELMAkGA1UEBhMCVVMxCzAJBgNVBAgTAkZMMRQwEgYDVQQHEwtU
YWxsYWhhc3NlZTEcMBoGA1UECRMTMzIxMCBIb2xseSBNaWxsIFJ1bjEOMAwGA1UE
ERMFMzAwNjIxGDAWBgNVBAoTD0V4dHJlbWUgRGlzY29yZDEOMAwGA1UECxMFQ2hh
b3MxDzANBgNVBAMTBmdvdi51czCCASIwDQYJKoZIhvcNAQEBBQADggEPADCCAQoC
ggEBAKlGQnnDrPmPItaudx7vg6Bf7WtLZEcym6PQ41oqPQV5V1xYpTlWBanjJzqs
Mab7hov12PzuJUVcnphdd1tff+/cOGNWwHQWiYgomBU++o+UkO82nw+2tdCWhPpe
ztldp055zPeqCilJOlm+bDxE1apArrGZ97HAgqkij+tDUUyNlj7jD7TwiOwYq94C
LQaNGhyvrMz4CcEAjUbJ43NNm90qYFHtOuNXHW0g9AVT9cGvZI6i9S6YTEXX2j0v
hJqLVXY2gAK1H23es7f1z9k3weRM9Yl/2tY+fB7fNIOH0g5NAziiojoA/qP+fLDq
EO4vTbSndusrMGrUTR0XiaeVpgcCAwEAAaOCAS0wggEpMB0GA1UdJQQWMBQGCCsG
AQUFBwMCBggrBgEFBQcDATAPBgNVHRMBAf8EBTADAQH/MA4GA1UdIwQHMAWAAwEC
AzBiBggrBgEFBQcBAQRWMFQwIQYIKwYBBQUHMAGGFWh0dHA6Ly90aGVjYS5uZXQv
b2NzcDAvBggrBgEFBQcwAoYjaHR0cDovL3RoZWNhLm5ldC90b3RhbGx5dGhlY2Vy
dC5jcnQwHwYDVR0gBBgwFjAKBggrBgEFBQcNATAIBgZngQwBAgIwDQYDVR0OBAYE
BAQDAgEwGwYDVR0RBBQwEoIIKi5nb3YudXOCBmdvdi51czAmBgNVHRIEHzAdghBh
bGx0aGV0aGluZ3MubmV0ggl0aGVjYS5uZXQwDgYDVR0PAQH/BAQDAgEAMA0GCSqG
SIb3DQEBCwUAA4IBAQAG000L6bxoD/uYbhziiNeN7dK2v/ljJp+OPQpRxfDhcHpF
UbjuQvkwehIjy/9Vs0hVWM0pL8OOMCzfMT5TrCaR7CgzuRaTzTEevX2M5j/DWdyE
tx+81p7bR3qQtQOG/gvxfEZQWSx6I8mD6d+jaCzjjou62gXRC/5dadOuPiPJ7rnv
VPqdGtcRTj3PJ366EIkhk/4gYAKfkhr8wvLF3759tI0VP2jleka8husjzYZi7g0+
kAGABhIjg3YCRbMQmKF28KCat6Wm2wV9bF+hAhZQU8jLy1uES29gP78f8YUSAU8A
lsxHljEJH4T0YZUAgqqd3kx63crajyaL44r3z1EK
-----END CERTIFICATE-----
