Certificate:
    Data:
        Version: 3 (0x2)
        Serial Number: 18008675984 (0x431669690)
    Signature Algorithm: sha256WithRSAEncryption
        Issuer: C = US, O = Mother Nature, OU = Everything, CN = Mother Nature
        Validity
            Not Before: Jul  6 15:46:14 2016 GMT
            Not After : Sep 18 15:46:14 2016 GMT
        Subject: C = US, ST = FL, L = Tallahassee, street = 3210 Holly Mill Run, postalCode = 30062, O = Extreme Discord, OU = Chaos, CN = gov.us
        Subject Public Key Info:
            Public Key Algorithm: rsaEncryption
                Public-Key: (2048 bit)
                Modulus:
                    00:f0:1c:ff:b7:1b:a4:16:31:c3:62:a2:8d:ab:50:
                    80:a6:90:61:c6:8e:6a:fc:2a:d2:ee:46:a1:aa:0f:
                    c8:34:91:5e:63:31:67:f0:c8:04:b6:61:30:ff:fa:
                    d7:a6:fe:5d:69:9f:88:f9:da:ef:d2:10:7c:f5:d4:
                    21:60:7d:19:5c:d7:a5:c3:4e:5e:9f:30:8a:d9:24:
                    36:80:fc:f4:1b:f7:ca:3f:c4:f0:c9:f9:ab:de:9b:
                    f5:7b:fa:0a:69:cc:6b:7a:1e:c8:55:bb:ee:f5:e8:
                    16:c8:f5:1f:35:d0:16:e9:d5:48:c8:64:13:36:02:
                    68:94:d1:1a:7d:68:ae:83:22:c1:09:07:ca:8a:0f:
                    9e:7b:94:25:68:82:ae:01:a5:df:bb:35:0c:12:a6:
                    1f:11:e6:41:ac:bd:7c:c8:fc:00:e5:11:dc:20:8a:
                    ed:c2:f4:1b:ee:7d:92:49:ef:6b:01:64:d2:b0:8e:
                    1b:1f:2f:8f:2c:e2:46:b5:0c:69:10:6f:ad:5b:af:
                    ef:e5:29:0a:e5:30:d8:0f:fa:17:f7:c1:6a:61:f0:
                    8f:88:06:34:85:28:9d:21:17:6f:f8:2a:98:f7:85:
                    35:80:5d:10:75:b5:2a:0e:25:b7:ab:bd:0c:85:33:
                    cf:cc:89:7e:12:af:33:c7:79:f8:e1:7b:77:70:54:
                    14:95
                Exponent: 65537 (0x10001)
        X509v3 extensions:
            X509v3 Key Usage: critical
                Digital Signature, Key Encipherment, Certificate Sign
            X509v3 Extended Key Usage: 
                TLS Web Client Authentication, TLS Web Server Authentication
            X509v3 Basic Constraints: critical
                CA:FALSE
            X509v3 Authority Key Identifier: 
                keyid:01:02:03

            Authority Information Access: 
                OCSP - URI:http://theca.net/ocsp
                CA Issuers - URI:http://theca.net/totallythecert.crt

            X509v3 Certificate Policies: 
                Policy: 1.3.6.1.5.5.7.13.1
                Policy: 2.23.140.1.2.2

            X509v3 Subject Key Identifier: 
                04:03:02:01
            X509v3 Subject Alternative Name: 
                DNS:*.gov.us, DNS:gov.us
            X509v3 Issuer Alternative Name: 
                DNS:allthethings.net, DNS:theca.net
    Signature Algorithm: sha256WithRSAEncryption
         a6:93:23:ed:ca:72:ff:e1:39:6d:d6:fb:9e:2d:44:ab:25:3a:
         b1:3b:f5:82:8d:6c:89:4f:d6:be:0f:9d:c4:63:c0:6e:df:9a:
         79:36:31:6b:be:d9:4d:0d:6c:71:c0:f4:b5:cf:72:2b:b0:4f:
         18:60:dd:66:e1:5f:47:0b:c5:73:fd:f3:b8:1b:bc:9a:ea:17:
         fe:c2:a9:d5:91:29:dc:42:1b:94:3a:b9:59:29:28:24:e4:a8:
         e7:0d:17:16:90:40:a5:63:d0:62:9f:17:c1:60:e2:f3:48:47:
         4c:2d:a9:f3:f8:1b:f6:11:27:f7:cf:c0:10:5b:10:29:f2:83:
         47:9a:a6:af:05:c6:89:bb:cf:3d:2e:c2:0f:bf:8e:bf:6a:a0:
         9f:2d:a7:2a:31:cc:53:d5:e3:cd:90:26:1e:54:2a:07:a3:e8:
         af:ea:9c:91:d3:13:74:c7:b0:8f:7a:0a:3f:aa:4b:55:14:56:
         59:24:46:f7:82:95:4a:a2:22:ec:15:69:65:20:28:c9:1b:9c:
         f2:5b:96:d5:b3:4b:7d:dc:33:b0:ca:55:97:e0:8a:60:1f:61:
         b1:d1:6a:8f:5e:2d:af:fc:38:cb:29:ac:cb:51:e0:4e:e2:26:
         e7:b0:a8:9e:62:5a:a4:e4:c4:84:44:83:0a:6d:59:50:d9:64:
         21:c4:db:a2
-----BEGIN CERTIFICATE-----
MIIElzCCA3+gAwIBAgIFBDFmlpAwDQYJKoZIhvcNAQELBQAwUjELMAkGA1UEBhMC
VVMxFjAUBgNVBAoTDU1vdGhlciBOYXR1cmUxEzARBgNVBAsTCkV2ZXJ5dGhpbmcx
FjAUBgNVBAMTDU1vdGhlciBOYXR1cmUwHhcNMTYwNzA2MTU0NjE0WhcNMTYwOTE4
MTU0NjE0WjCBmTELMAkGA1UEBhMCVVMxCzAJBgNVBAgTAkZMMRQwEgYDVQQHEwtU
YWxsYWhhc3NlZTEcMBoGA1UECRMTMzIxMCBIb2xseSBNaWxsIFJ1bjEOMAwGA1UE
ERMFMzAwNjIxGDAWBgNVBAoTD0V4dHJlbWUgRGlzY29yZDEOMAwGA1UECxMFQ2hh
b3MxDzANBgNVBAMTBmdvdi51czCCASIwDQYJKoZIhvcNAQEBBQADggEPADCCAQoC
ggEBAPAc/7cbpBYxw2KijatQgKaQYcaOavwq0u5GoaoPyDSRXmMxZ/DIBLZhMP/6
16b+XWmfiPna79IQfPXUIWB9GVzXpcNOXp8witkkNoD89Bv3yj/E8Mn5q96b9Xv6
CmnMa3oeyFW77vXoFsj1HzXQFunVSMhkEzYCaJTRGn1oroMiwQkHyooPnnuUJWiC
rgGl37s1DBKmHxHmQay9fMj8AOUR3CCK7cL0G+59kknvawFk0rCOGx8vjyziRrUM
aRBvrVuv7+UpCuUw2A/6F/fBamHwj4gGNIUonSEXb/gqmPeFNYBdEHW1Kg4lt6u9
DIUzz8yJfhKvM8d5+OF7d3BUFJUCAwEAAaOCASowggEmMA4GA1UdDwEB/wQEAwIC
pDAdBgNVHSUEFjAUBggrBgEFBQcDAgYIKwYBBQUHAwEwDAYDVR0TAQH/BAIwADAO
BgNVHSMEBzAFgAMBAgMwYgYIKwYBBQUHAQEEVjBUMCEGCCsGAQUFBzABhhVodHRw
Oi8vdGhlY2EubmV0L29jc3AwLwYIKwYBBQUHMAKGI2h0dHA6Ly90aGVjYS5uZXQv
dG90YWxseXRoZWNlcnQuY3J0MB8GA1UdIAQYMBYwCgYIKwYBBQUHDQEwCAYGZ4EM
AQICMA0GA1UdDgQGBAQEAwIBMBsGA1UdEQQUMBKCCCouZ292LnVzggZnb3YudXMw
JgYDVR0SBB8wHYIQYWxsdGhldGhpbmdzLm5ldIIJdGhlY2EubmV0MA0GCSqGSIb3
DQEBCwUAA4IBAQCmkyPtynL/4Tlt1vueLUSrJTqxO/WCjWyJT9a+D53EY8Bu35p5
NjFrvtlNDWxxwPS1z3IrsE8YYN1m4V9HC8Vz/fO4G7ya6hf+wqnVkSncQhuUOrlZ
KSgk5KjnDRcWkEClY9BinxfBYOLzSEdMLanz+Bv2ESf3z8AQWxAp8oNHmqavBcaJ
u889LsIPv46/aqCfLacqMcxT1ePNkCYeVCoHo+iv6pyR0xN0x7CPego/qktVFFZZ
JEb3gpVKoiLsFWllICjJG5zyW5bVs0t93DOwylWX4IpgH2Gx0WqPXi2v/DjLKazL
UeBO4ibnsKieYlqk5MSERIMKbVlQ2WQhxNui
-----END CERTIFICATE-----
