Certificate:
    Data:
        Version: 3 (0x2)
        Serial Number:
            02:00:00:00:00:00:d6:78:b8:8d:8d
    Signature Algorithm: md5WithRSAEncryption
        Issuer: C=BE, O=GlobalSign nv-sa, OU=Root CA, CN=GlobalSign Root CA
        Validity
            Not Before: Jan 28 12:00:00 1999 GMT
            Not After : Jan 28 12:00:00 2009 GMT
        Subject: C=BE, O=GlobalSign nv-sa, OU=Primary Class 2 CA, CN=GlobalSign Primary Class 2 CA
        Subject Public Key Info:
            Public Key Algorithm: rsaEncryption
                Public-Key: (2048 bit)
                Modulus:
                    00:92:8c:fe:ef:f4:45:8e:17:41:6e:fc:d8:bf:21:
                    6f:ab:06:9d:52:c1:2c:00:9d:3f:8e:85:b8:7f:4a:
                    8f:bd:a0:63:2a:ca:49:27:ae:5a:82:f4:74:e2:55:
                    92:ff:c2:d1:aa:79:a2:b6:fa:d5:9d:82:04:4f:c6:
                    b2:c6:5e:63:a7:3a:ba:d8:ee:eb:8a:6f:9f:b6:bb:
                    28:41:c0:22:fb:4e:48:1a:06:92:d7:bf:d7:cf:b9:
                    d9:bd:38:4f:3b:0d:44:6e:55:41:fe:fc:09:db:d8:
                    bf:f3:8e:21:f1:e8:12:b5:f6:13:a5:d3:c6:4c:93:
                    22:b0:02:ff:ee:1d:0c:c4:a8:6b:4f:75:68:56:e8:
                    dc:28:12:50:f7:a8:24:9d:2e:24:39:fb:09:05:de:
                    e5:a3:64:49:21:d0:68:7e:71:30:91:b1:60:e0:39:
                    f4:50:f8:7a:4d:98:00:6b:7c:79:ba:4e:ce:4a:e2:
                    ba:36:1d:b7:c5:36:15:95:9c:64:42:ea:5f:c4:ba:
                    f5:40:05:be:e1:3a:59:bd:84:a7:19:b8:de:4d:53:
                    50:ce:07:d1:d2:51:d3:ef:0d:81:6c:e6:e7:6d:cb:
                    5d:7c:3f:7c:cc:ec:4f:83:27:25:ff:70:50:f6:83:
                    59:75:84:06:66:58:2c:de:89:8d:00:a6:49:f9:a5:
                    43:77
                Exponent: 65537 (0x10001)
        X509v3 extensions:
            X509v3 Key Usage: critical
                Certificate Sign, CRL Sign
            X509v3 Subject Key Identifier: 
                7C:E7:B2:B1:2C:DE:B1:A7:6B:E9:76:0C:E1:A3:FD:4E:6C:C7:B9:F6
            X509v3 Authority Key Identifier: 
                keyid:60:7B:66:1A:45:0D:97:CA:89:50:2F:7D:04:CD:34:A8:FF:FC:FD:4B

            X509v3 Basic Constraints: critical
                CA:TRUE
    Signature Algorithm: md5WithRSAEncryption
         63:dd:59:ce:8a:79:aa:98:9d:4e:c5:89:64:37:7e:8a:93:67:
         2f:10:ea:6f:27:c3:8d:77:6d:f2:5c:56:94:19:1a:69:60:30:
         46:5d:8f:f2:6d:45:3c:8e:35:97:7c:2f:b8:51:e2:e8:89:bd:
         88:cf:27:1c:08:34:5c:88:c1:68:24:db:91:85:e4:cf:fb:fb:
         43:8d:e8:25:01:1b:c4:0e:f7:00:42:48:86:1f:24:08:58:5a:
         8c:8d:f2:6b:47:2c:68:91:b1:69:42:fd:0d:8d:c9:26:e6:92:
         86:a6:64:6e:92:c5:ce:3e:3c:7d:71:e3:23:a4:ab:c7:d5:a8:
         a9:df:82:a7:3b:e8:86:d5:c3:4f:18:e3:44:d0:e0:dc:f3:c5:
         68:2e:fe:a5:2f:05:84:c8:7e:47:42:53:6b:87:4a:fe:32:ff:
         5e:3e:70:8c:b7:a8:15:cc:17:c2:ff:46:ec:d0:ec:2d:b4:6e:
         12:28:a9:f9:40:e9:eb:d4:66:97:53:a9:69:55:c0:a9:aa:b2:
         2e:cd:d1:69:f4:be:f8:bb:7c:69:ee:54:a6:db:9e:fb:5a:a6:
         3e:fe:9a:ef:94:51:4b:75:ee:d8:d4:e1:9a:f1:02:56:13:89:
         0e:a7:42:8b:96:8b:85:0c:1b:85:be:26:ae:ab:a6:99:bc:22:
         f1:73:df:42
-----BEGIN CERTIFICATE-----
MIIDrDCCApSgAwIBAgILAgAAAAAA1ni4jY0wDQYJKoZIhvcNAQEEBQAwVzELMAkG
A1UEBhMCQkUxGTAXBgNVBAoTEEdsb2JhbFNpZ24gbnYtc2ExEDAOBgNVBAsTB1Jv
b3QgQ0ExGzAZBgNVBAMTEkdsb2JhbFNpZ24gUm9vdCBDQTAeFw05OTAxMjgxMjAw
MDBaFw0wOTAxMjgxMjAwMDBaMG0xCzAJBgNVBAYTAkJFMRkwFwYDVQQKExBHbG9i
YWxTaWduIG52LXNhMRswGQYDVQQLExJQcmltYXJ5IENsYXNzIDIgQ0ExJjAkBgNV
BAMTHUdsb2JhbFNpZ24gUHJpbWFyeSBDbGFzcyAyIENBMIIBIjANBgkqhkiG9w0B
AQEFAAOCAQ8AMIIBCgKCAQEAkoz+7/RFjhdBbvzYvyFvqwadUsEsAJ0/joW4f0qP
vaBjKspJJ65agvR04lWS/8LRqnmitvrVnYIET8ayxl5jpzq62O7rim+ftrsoQcAi
+05IGgaS17/Xz7nZvThPOw1EblVB/vwJ29i/844h8egStfYTpdPGTJMisAL/7h0M
xKhrT3VoVujcKBJQ96gknS4kOfsJBd7lo2RJIdBofnEwkbFg4Dn0UPh6TZgAa3x5
uk7OSuK6Nh23xTYVlZxkQupfxLr1QAW+4TpZvYSnGbjeTVNQzgfR0lHT7w2BbObn
bctdfD98zOxPgycl/3BQ9oNZdYQGZlgs3omNAKZJ+aVDdwIDAQABo2MwYTAOBgNV
HQ8BAf8EBAMCAAYwHQYDVR0OBBYEFHznsrEs3rGna+l2DOGj/U5sx7n2MB8GA1Ud
IwQYMBaAFGB7ZhpFDZfKiVAvfQTNNKj//P1LMA8GA1UdEwEB/wQFMAMBAf8wDQYJ
KoZIhvcNAQEEBQADggEBAGPdWc6KeaqYnU7FiWQ3foqTZy8Q6m8nw413bfJcVpQZ
GmlgMEZdj/JtRTyONZd8L7hR4uiJvYjPJxwINFyIwWgk25GF5M/7+0ON6CUBG8QO
9wBCSIYfJAhYWoyN8mtHLGiRsWlC/Q2NySbmkoamZG6Sxc4+PH1x4yOkq8fVqKnf
gqc76IbVw08Y40TQ4NzzxWgu/qUvBYTIfkdCU2uHSv4y/14+cIy3qBXMF8L/RuzQ
7C20bhIoqflA6evUZpdTqWlVwKmqsi7N0Wn0vvi7fGnuVKbbnvtapj7+mu+UUUt1
7tjU4ZrxAlYTiQ6nQouWi4UMG4W+Jq6rppm8IvFz30I=
-----END CERTIFICATE-----
