Certificate:
    Data:
        Version: 3 (0x2)
        Serial Number: 11 (0xb)
        Signature Algorithm: ecdsa-with-SHA256
        Issuer: C = US, ST = California, L = San Francisco, O = Bogus Inc., OU = Operations, CN = Zlint test certificates ECDSA CA
        Validity
            Not Before: Sep 30 13:03:28 2019 GMT
            Not After : Sep 29 13:03:28 2021 GMT
        Subject: C = US, ST = California, L = San Francisco, O = Bogus Inc., OU = Operations, CN = ecdsa3.example.com
        Subject Public Key Info:
            Public Key Algorithm: id-ecPublicKey
                Public-Key: (521 bit)
                pub:
                    04:01:54:86:b9:42:ee:8d:24:9c:3b:d0:c2:f0:83:
                    58:47:25:b6:f7:83:7b:33:a9:a0:7b:66:35:f7:63:
                    00:c4:18:52:dc:a3:d2:16:48:c0:0d:bb:a7:a8:cd:
                    5c:9e:61:a8:e1:eb:51:67:7f:52:e3:cd:bf:c6:fa:
                    61:27:e4:7a:64:94:7f:01:d6:a1:a1:e2:e5:5f:36:
                    76:d5:61:f5:3e:eb:bb:4e:84:89:c4:b4:b1:61:bb:
                    fd:21:11:f9:4d:19:7f:84:bc:f0:2d:1e:ca:54:6a:
                    4a:a8:0e:71:56:23:38:68:c6:59:23:2d:72:1c:d2:
                    e0:a2:a1:eb:61:41:86:a0:77:91:b7:3c:94
                ASN1 OID: secp521r1
                NIST CURVE: P-521
        X509v3 extensions:
            X509v3 Key Usage: critical
                Digital Signature, Key Encipherment
            X509v3 Basic Constraints: 
                CA:FALSE
            X509v3 Extended Key Usage: 
                TLS Web Server Authentication, TLS Web Client Authentication
            X509v3 Subject Key Identifier: 
                3A:85:48:EB:A7:A0:FB:A9:47:A5:8A:35:FF:FE:F4:25:38:92:16:01
            X509v3 Subject Alternative Name: 
                DNS:ecdsa3.example.com
            X509v3 Authority Key Identifier: 
                keyid:52:B1:37:DB:0D:A5:20:37:C7:C6:61:66:1E:D5:68:1C:A1:A4:D7:4F

            Authority Information Access: 
                CA Issuers - URI:http://example.com/ca/rootecdsa.crt

            X509v3 CRL Distribution Points: 

                Full Name:
                  URI:http://example.com/ca/rootecdsa.crl

    Signature Algorithm: ecdsa-with-SHA256
         30:46:02:21:00:db:0b:41:72:a5:d5:d4:3d:e5:48:19:82:5d:
         0e:45:5b:cf:32:df:6c:6d:20:74:a5:77:a8:ce:b6:1c:2d:b0:
         6f:02:21:00:f3:ed:ef:6c:5e:78:a0:a7:f1:f7:af:37:ee:f8:
         95:2c:ef:b1:55:46:61:b3:60:de:c0:c1:2d:e7:31:16:66:86
-----BEGIN CERTIFICATE-----
MIIDWzCCAwCgAwIBAgIBCzAKBggqhkjOPQQDAjCBjzELMAkGA1UEBhMCVVMxEzAR
BgNVBAgMCkNhbGlmb3JuaWExFjAUBgNVBAcMDVNhbiBGcmFuY2lzY28xEzARBgNV
BAoMCkJvZ3VzIEluYy4xEzARBgNVBAsMCk9wZXJhdGlvbnMxKTAnBgNVBAMMIFps
aW50IHRlc3QgY2VydGlmaWNhdGVzIEVDRFNBIENBMB4XDTE5MDkzMDEzMDMyOFoX
DTIxMDkyOTEzMDMyOFowgYExCzAJBgNVBAYTAlVTMRMwEQYDVQQIDApDYWxpZm9y
bmlhMRYwFAYDVQQHDA1TYW4gRnJhbmNpc2NvMRMwEQYDVQQKDApCb2d1cyBJbmMu
MRMwEQYDVQQLDApPcGVyYXRpb25zMRswGQYDVQQDDBJlY2RzYTMuZXhhbXBsZS5j
b20wgZswEAYHKoZIzj0CAQYFK4EEACMDgYYABAFUhrlC7o0knDvQwvCDWEcltveD
ezOpoHtmNfdjAMQYUtyj0hZIwA27p6jNXJ5hqOHrUWd/UuPNv8b6YSfkemSUfwHW
oaHi5V82dtVh9T7ru06EicS0sWG7/SER+U0Zf4S88C0eylRqSqgOcVYjOGjGWSMt
chzS4KKh62FBhqB3kbc8lKOCARQwggEQMA4GA1UdDwEB/wQEAwIFoDAJBgNVHRME
AjAAMB0GA1UdJQQWMBQGCCsGAQUFBwMBBggrBgEFBQcDAjAdBgNVHQ4EFgQUOoVI
66eg+6lHpYo1//70JTiSFgEwHQYDVR0RBBYwFIISZWNkc2EzLmV4YW1wbGUuY29t
MB8GA1UdIwQYMBaAFFKxN9sNpSA3x8ZhZh7VaByhpNdPMD8GCCsGAQUFBwEBBDMw
MTAvBggrBgEFBQcwAoYjaHR0cDovL2V4YW1wbGUuY29tL2NhL3Jvb3RlY2RzYS5j
cnQwNAYDVR0fBC0wKzApoCegJYYjaHR0cDovL2V4YW1wbGUuY29tL2NhL3Jvb3Rl
Y2RzYS5jcmwwCgYIKoZIzj0EAwIDSQAwRgIhANsLQXKl1dQ95UgZgl0ORVvPMt9s
bSB0pXeozrYcLbBvAiEA8+3vbF54oKfx96837viVLO+xVUZhs2DewMEt5zEWZoY=
-----END CERTIFICATE-----
