Certificate:
    Data:
        Version: 3 (0x2)
        Serial Number: 10 (0xa)
        Signature Algorithm: ecdsa-with-SHA384
        Issuer: C = US, ST = California, L = San Francisco, O = Bogus Inc., OU = Operations, CN = Zlint test certificates ECDSA CA
        Validity
            Not Before: Sep 30 12:47:01 2019 GMT
            Not After : Sep 29 12:47:01 2021 GMT
        Subject: C = US, ST = California, L = San Francisco, O = Bogus Inc., OU = Operations, CN = ecdsa2.example.com
        Subject Public Key Info:
            Public Key Algorithm: id-ecPublicKey
                Public-Key: (384 bit)
                pub:
                    04:60:f7:bc:80:aa:05:9d:86:2a:66:f4:dc:cb:32:
                    ca:5f:de:b0:0f:3d:b1:69:37:70:ae:8a:6d:3b:c1:
                    64:b0:3e:a9:c6:8f:cf:f1:4a:5a:36:39:0d:a5:30:
                    9f:95:86:a2:bb:88:c6:13:72:7a:29:a2:14:01:84:
                    39:3c:35:f4:a3:4a:c9:56:d3:4e:69:e4:af:39:7a:
                    5f:f9:be:b9:b1:5d:31:0d:b8:86:9c:7e:10:2f:50:
                    6b:05:a6:cd:89:c2:33
                ASN1 OID: secp384r1
                NIST CURVE: P-384
        X509v3 extensions:
            X509v3 Key Usage: critical
                Digital Signature, Key Encipherment
            X509v3 Basic Constraints: 
                CA:FALSE
            X509v3 Extended Key Usage: 
                TLS Web Server Authentication, TLS Web Client Authentication
            X509v3 Subject Key Identifier: 
                26:D5:69:2D:68:B0:D0:E8:02:7C:21:F2:CA:13:69:87:EC:99:6E:68
            X509v3 Subject Alternative Name: 
                DNS:ecdsa2.example.com
            X509v3 Authority Key Identifier: 
                keyid:52:B1:37:DB:0D:A5:20:37:C7:C6:61:66:1E:D5:68:1C:A1:A4:D7:4F

            Authority Information Access: 
                CA Issuers - URI:http://example.com/ca/rootecdsa.crt

            X509v3 CRL Distribution Points: 

                Full Name:
                  URI:http://example.com/ca/rootecdsa.crl

    Signature Algorithm: ecdsa-with-SHA384
         30:45:02:20:67:52:70:43:33:30:ee:49:20:ef:ba:2e:c6:74:
         f3:e9:90:5e:41:6d:02:fa:4f:1d:12:8e:9c:b9:0b:d1:28:9a:
         02:21:00:e9:65:c9:d3:27:b4:98:a3:08:bc:f2:c2:1a:fa:e6:
         86:86:17:4e:11:06:b6:40:93:a6:d9:4d:db:35:d1:ec:5d
-----BEGIN CERTIFICATE-----
MIIDNDCCAtqgAwIBAgIBCjAKBggqhkjOPQQDAzCBjzELMAkGA1UEBhMCVVMxEzAR
BgNVBAgMCkNhbGlmb3JuaWExFjAUBgNVBAcMDVNhbiBGcmFuY2lzY28xEzARBgNV
BAoMCkJvZ3VzIEluYy4xEzARBgNVBAsMCk9wZXJhdGlvbnMxKTAnBgNVBAMMIFps
aW50IHRlc3QgY2VydGlmaWNhdGVzIEVDRFNBIENBMB4XDTE5MDkzMDEyNDcwMVoX
DTIxMDkyOTEyNDcwMVowgYExCzAJBgNVBAYTAlVTMRMwEQYDVQQIDApDYWxpZm9y
bmlhMRYwFAYDVQQHDA1TYW4gRnJhbmNpc2NvMRMwEQYDVQQKDApCb2d1cyBJbmMu
MRMwEQYDVQQLDApPcGVyYXRpb25zMRswGQYDVQQDDBJlY2RzYTIuZXhhbXBsZS5j
b20wdjAQBgcqhkjOPQIBBgUrgQQAIgNiAARg97yAqgWdhipm9NzLMspf3rAPPbFp
N3Cuim07wWSwPqnGj8/xSlo2OQ2lMJ+VhqK7iMYTcnopohQBhDk8NfSjSslW005p
5K85el/5vrmxXTENuIacfhAvUGsFps2JwjOjggEUMIIBEDAOBgNVHQ8BAf8EBAMC
BaAwCQYDVR0TBAIwADAdBgNVHSUEFjAUBggrBgEFBQcDAQYIKwYBBQUHAwIwHQYD
VR0OBBYEFCbVaS1osNDoAnwh8soTaYfsmW5oMB0GA1UdEQQWMBSCEmVjZHNhMi5l
eGFtcGxlLmNvbTAfBgNVHSMEGDAWgBRSsTfbDaUgN8fGYWYe1WgcoaTXTzA/Bggr
BgEFBQcBAQQzMDEwLwYIKwYBBQUHMAKGI2h0dHA6Ly9leGFtcGxlLmNvbS9jYS9y
b290ZWNkc2EuY3J0MDQGA1UdHwQtMCswKaAnoCWGI2h0dHA6Ly9leGFtcGxlLmNv
bS9jYS9yb290ZWNkc2EuY3JsMAoGCCqGSM49BAMDA0gAMEUCIGdScEMzMO5JIO+6
LsZ08+mQXkFtAvpPHRKOnLkL0SiaAiEA6WXJ0ye0mKMIvPLCGvrmhoYXThEGtkCT
ptlN2zXR7F0=
-----END CERTIFICATE-----
