Certificate:
    Data:
        Version: 3 (0x2)
        Serial Number: 5 (0x5)
        Signature Algorithm: ecdsa-with-SHA256
        Issuer: C = US, ST = California, L = San Francisco, O = Bogus Inc., OU = Operations, CN = Zlint test certificates ECDSA CA
        Validity
            Not Before: Sep 30 12:41:45 2019 GMT
            Not After : Sep 29 12:41:45 2021 GMT
        Subject: C = US, ST = California, L = San Francisco, O = Bogus Inc., OU = Operations, CN = ecdsa1.example.com
        Subject Public Key Info:
            Public Key Algorithm: id-ecPublicKey
                Public-Key: (256 bit)
                pub:
                    04:8e:de:b7:3e:89:5f:fc:4a:76:56:50:ec:cf:f1:
                    7c:fa:46:b6:7f:66:53:17:7c:e7:44:89:c3:d0:26:
                    97:64:37:87:15:d8:63:10:b9:de:71:55:b3:f1:68:
                    46:77:6d:03:cd:a1:75:c4:2a:53:d1:a2:83:d9:5d:
                    19:b3:6d:6c:ee
                ASN1 OID: prime256v1
                NIST CURVE: P-256
        X509v3 extensions:
            X509v3 Key Usage: critical
                Digital Signature, Key Encipherment
            X509v3 Basic Constraints: 
                CA:FALSE
            X509v3 Extended Key Usage: 
                TLS Web Server Authentication, TLS Web Client Authentication
            X509v3 Subject Key Identifier: 
                CD:A5:40:5A:2C:3D:B3:73:4E:78:C3:56:B7:CE:7A:AE:40:B4:2E:82
            X509v3 Subject Alternative Name: 
                DNS:ecdsa1.example.com
            X509v3 Authority Key Identifier: 
                keyid:2B:F2:7B:12:FE:66:45:34:39:87:30:5D:90:BA:BA:C4:D7:68:02:AC

            Authority Information Access: 
                CA Issuers - URI:http://example.com/ca/rootecdsa.crt

            X509v3 CRL Distribution Points: 

                Full Name:
                  URI:http://example.com/ca/rootecdsa.crl

    Signature Algorithm: ecdsa-with-SHA256
         30:64:02:30:2c:40:ca:94:81:0b:69:b0:bc:1e:9b:d6:4a:34:
         e7:00:95:a3:03:c9:c3:21:7e:e7:4b:3b:4f:46:ec:e7:4b:48:
         2f:07:8e:f9:12:15:dd:b4:cd:51:92:df:94:bc:52:aa:02:30:
         55:fe:37:62:74:89:46:3d:05:43:7f:15:16:73:66:4d:fe:ff:
         89:f2:63:51:30:b7:3d:25:5f:f7:e7:da:e1:78:04:06:0d:44:
         bd:f0:2a:09:80:5c:79:ab:31:87:34:c6
-----BEGIN CERTIFICATE-----
MIIDNjCCAr2gAwIBAgIBBTAKBggqhkjOPQQDAjCBjzELMAkGA1UEBhMCVVMxEzAR
BgNVBAgMCkNhbGlmb3JuaWExFjAUBgNVBAcMDVNhbiBGcmFuY2lzY28xEzARBgNV
BAoMCkJvZ3VzIEluYy4xEzARBgNVBAsMCk9wZXJhdGlvbnMxKTAnBgNVBAMMIFps
aW50IHRlc3QgY2VydGlmaWNhdGVzIEVDRFNBIENBMB4XDTE5MDkzMDEyNDE0NVoX
DTIxMDkyOTEyNDE0NVowgYExCzAJBgNVBAYTAlVTMRMwEQYDVQQIDApDYWxpZm9y
bmlhMRYwFAYDVQQHDA1TYW4gRnJhbmNpc2NvMRMwEQYDVQQKDApCb2d1cyBJbmMu
MRMwEQYDVQQLDApPcGVyYXRpb25zMRswGQYDVQQDDBJlY2RzYTEuZXhhbXBsZS5j
b20wWTATBgcqhkjOPQIBBggqhkjOPQMBBwNCAASO3rc+iV/8SnZWUOzP8Xz6RrZ/
ZlMXfOdEicPQJpdkN4cV2GMQud5xVbPxaEZ3bQPNoXXEKlPRooPZXRmzbWzuo4IB
FDCCARAwDgYDVR0PAQH/BAQDAgWgMAkGA1UdEwQCMAAwHQYDVR0lBBYwFAYIKwYB
BQUHAwEGCCsGAQUFBwMCMB0GA1UdDgQWBBTNpUBaLD2zc054w1a3znquQLQugjAd
BgNVHREEFjAUghJlY2RzYTEuZXhhbXBsZS5jb20wHwYDVR0jBBgwFoAUK/J7Ev5m
RTQ5hzBdkLq6xNdoAqwwPwYIKwYBBQUHAQEEMzAxMC8GCCsGAQUFBzAChiNodHRw
Oi8vZXhhbXBsZS5jb20vY2Evcm9vdGVjZHNhLmNydDA0BgNVHR8ELTArMCmgJ6Al
hiNodHRwOi8vZXhhbXBsZS5jb20vY2Evcm9vdGVjZHNhLmNybDAKBggqhkjOPQQD
AgNnADBkAjAsQMqUgQtpsLwem9ZKNOcAlaMDycMhfudLO09G7OdLSC8HjvkSFd20
zVGS35S8UqoCMFX+N2J0iUY9BUN/FRZzZk3+/4nyY1Ewtz0lX/fn2uF4BAYNRL3w
KgmAXHmrMYc0xg==
-----END CERTIFICATE-----
