Certificate:
    Data:
        Version: 3 (0x2)
        Serial Number: 8 (0x8)
        Signature Algorithm: sha256WithRSAEncryption
        Issuer: C = US, ST = California, L = San Francisco, O = Bogus Inc., OU = Operations, CN = Zlint test certificates CA
        Validity
            Not Before: Oct  1 14:17:56 2019 GMT
            Not After : Sep 30 14:17:56 2021 GMT
        Subject: C = US, ST = California, L = San Francisco, O = Bogus Inc., OU = Operations, CN = rsa4095.example.com
        Subject Public Key Info:
            Public Key Algorithm: rsaEncryption
                RSA Public-Key: (4095 bit)
                Modulus:
                    5f:8c:39:78:82:3b:cf:17:a5:d3:80:fe:81:eb:2f:
                    91:bb:a3:68:da:c9:70:c9:e5:ff:bb:fd:83:c9:c7:
                    99:d6:c2:27:aa:3c:7a:96:f1:8e:2f:8c:85:94:6b:
                    60:8f:62:17:f5:f0:0d:cf:e6:7a:8f:ab:a6:fd:bd:
                    56:87:2f:77:95:bc:26:b5:59:9b:f0:ca:ba:44:43:
                    80:eb:14:75:1b:37:5e:91:00:94:34:74:fa:89:cd:
                    df:bc:e8:23:78:45:60:f3:5a:4a:2a:d7:53:66:43:
                    3a:f9:2a:80:aa:ad:76:0a:35:1f:01:61:97:d2:92:
                    42:40:fb:90:59:ea:5a:a9:36:9a:1b:b8:b4:7b:cb:
                    2e:24:df:ab:ad:01:d0:84:6b:e3:1d:16:50:19:3e:
                    9e:9a:b1:8a:67:5f:a0:2b:9a:d6:8e:4c:3a:49:5d:
                    66:c4:ad:83:c7:da:60:58:fe:d6:6e:5d:18:bf:6e:
                    e2:b2:2b:b5:c5:39:17:4d:50:53:6b:af:4c:75:25:
                    09:e8:54:9d:eb:c7:bd:9e:59:1b:c8:cd:e9:04:21:
                    dd:0b:d4:90:4c:d1:ef:71:5d:b1:9f:86:e9:21:81:
                    31:bc:4c:f6:b7:21:49:84:4d:22:b0:ed:e5:8c:0e:
                    40:b9:be:54:3e:47:50:3a:49:2b:b4:16:a2:7b:4e:
                    07:35:7c:75:45:1c:71:ee:2d:39:ba:d0:4c:88:dc:
                    a9:68:40:b0:60:13:f1:a3:eb:96:5f:d1:da:40:71:
                    61:3c:80:68:59:82:20:c0:00:75:54:b9:1f:7f:53:
                    80:6e:45:46:77:c1:4d:4d:f6:8e:95:56:a0:0c:43:
                    f2:df:84:90:30:f4:fa:ba:68:ef:75:2f:06:d3:0f:
                    b3:d2:1b:f1:da:35:c1:c5:97:3f:57:f3:09:85:8f:
                    50:07:1b:b5:ee:be:0e:f9:99:d3:49:f2:a7:38:e4:
                    a2:e9:b6:95:b5:8e:fe:20:47:33:20:11:17:c9:d2:
                    0f:96:d7:e0:98:b0:36:67:af:ed:86:c5:7e:8e:de:
                    0c:c7:1f:d3:91:44:d0:2f:32:9f:20:70:ac:41:f0:
                    82:0e:66:72:09:98:dd:d5:50:5c:3c:b1:90:3a:7b:
                    7e:a3:3e:5a:02:19:ca:0a:37:ab:3c:0f:7e:03:1b:
                    50:e0:da:5d:c6:08:29:6b:12:91:90:e7:6d:b2:fe:
                    1f:22:9a:58:98:63:c1:7c:f2:6f:91:49:37:ef:4a:
                    79:92:2e:1f:27:09:ed:8b:f9:34:db:d6:ce:b2:5d:
                    87:99:92:50:62:76:75:f2:32:9a:6f:34:61:18:66:
                    d6:3a:42:76:46:19:57:12:74:32:89:2c:93:40:49:
                    8e:71
                Exponent: 65537 (0x10001)
        X509v3 extensions:
            X509v3 Key Usage: critical
                Digital Signature, Key Encipherment
            X509v3 Basic Constraints: 
                CA:FALSE
            X509v3 Extended Key Usage: 
                TLS Web Server Authentication, TLS Web Client Authentication
            X509v3 Subject Key Identifier: 
                EB:4C:BB:D7:D9:FC:F0:6F:16:09:AD:9D:53:02:0E:DE:24:26:56:D7
            X509v3 Subject Alternative Name: 
                DNS:rsa4095.example.com, DNS:rsa4095.example.com
            X509v3 Authority Key Identifier: 
                keyid:F6:6E:67:49:02:D7:15:70:11:9C:8C:06:86:74:E0:32:61:16:C7:0E

            Authority Information Access: 
                CA Issuers - URI:http://example.com/ca/root.crt

            X509v3 CRL Distribution Points: 

                Full Name:
                  URI:http://example.com/ca/root.crl

    Signature Algorithm: sha256WithRSAEncryption
         4a:65:72:98:5f:a5:7a:f1:b9:e1:6b:c5:9a:f4:8c:6f:fe:f1:
         ca:9a:4a:0e:05:b7:a4:aa:0b:74:79:7f:5d:43:ba:3e:c7:05:
         73:6f:1b:9a:1e:e9:78:c7:4b:50:d1:1b:df:09:1f:c1:4a:c6:
         3e:46:84:8c:20:32:72:e9:6c:c0:c1:d5:6d:64:f1:fb:6c:68:
         19:fb:de:b5:d0:5f:55:7b:ed:af:5c:d4:c7:ff:b0:5e:cf:20:
         dd:ab:c4:90:75:f4:c8:85:c8:e0:85:da:ed:c4:15:c4:38:68:
         c7:98:b0:0b:dd:fa:7e:66:8d:32:fa:aa:17:4f:7a:e2:f8:69:
         79:0d:65:26:63:1b:8a:18:d1:84:f4:33:26:f4:b1:e2:90:0c:
         15:6d:ab:71:79:b4:2d:38:c9:b9:65:fd:bd:44:8b:63:d4:db:
         aa:ae:b4:58:8b:e2:1b:dd:38:ac:6e:02:41:bd:c8:4c:10:d6:
         8e:b4:1b:be:0f:1a:22:7d:3d:49:6b:05:d9:ee:de:64:0b:62:
         33:fe:89:b2:ac:d2:e2:f2:c0:2f:00:6d:3a:40:4d:02:a8:d3:
         c6:31:6d:1f:4f:d7:c0:a3:36:57:09:b5:06:6c:e8:40:bc:a4:
         7e:07:fb:89:68:28:91:50:0b:2e:f0:95:3b:88:0a:73:2f:ec:
         79:a9:bb:d7:90:42:48:20:88:c4:80:27:09:b3:4a:35:07:b6:
         cd:29:03:f4:04:99:7b:3c:9a:3b:94:87:42:cd:35:cd:58:d1:
         d7:03:6c:52:24:88:54:ea:4d:8a:f9:02:95:f6:84:6b:d2:fb:
         c0:80:05:9c:69:0e:4e:e7:8c:c6:3c:c3:43:90:fa:fa:e8:74:
         fe:b3:3a:e1:35:9d:02:57:ea:a8:e4:a5:46:c7:0a:31:19:8b:
         4b:d1:b2:f5:29:1c:55:16:bd:8e:4b:06:b6:be:c3:f5:8a:46:
         50:ae:b2:3a:72:67:66:16:d8:40:40:cb:e4:1c:8d:82:79:4a:
         a9:db:4b:dc:60:fb:4b:10:34:55:66:8a:85:61:24:e3:38:66:
         6d:8e:bf:c3:85:d0:3a:e1:47:7c:31:98:1f:6f:c0:c9:4b:7d:
         d7:a8:12:cc:dc:f4:10:77:98:4d:5b:e8:53:2b:03:71:2e:2d:
         2b:cd:32:a7:c4:0c:f9:bc:31:4e:91:da:74:98:fb:57:60:53:
         c0:1e:24:35:1e:fb:50:a1:ea:23:94:97:a6:4b:c5:49:7e:9a:
         51:c1:56:94:39:5c:a1:fb:78:6b:3a:a7:ac:68:08:3b:b3:25:
         69:e5:1c:34:81:b5:1f:d8:ad:f9:bf:38:95:cb:a1:e9:d1:05:
         fb:56:12:7e:c9:e3:ce:e9
-----BEGIN CERTIFICATE-----
MIIGqTCCBJGgAwIBAgIBCDANBgkqhkiG9w0BAQsFADCBiTELMAkGA1UEBhMCVVMx
EzARBgNVBAgMCkNhbGlmb3JuaWExFjAUBgNVBAcMDVNhbiBGcmFuY2lzY28xEzAR
BgNVBAoMCkJvZ3VzIEluYy4xEzARBgNVBAsMCk9wZXJhdGlvbnMxIzAhBgNVBAMM
GlpsaW50IHRlc3QgY2VydGlmaWNhdGVzIENBMB4XDTE5MTAwMTE0MTc1NloXDTIx
MDkzMDE0MTc1NlowgYIxCzAJBgNVBAYTAlVTMRMwEQYDVQQIDApDYWxpZm9ybmlh
MRYwFAYDVQQHDA1TYW4gRnJhbmNpc2NvMRMwEQYDVQQKDApCb2d1cyBJbmMuMRMw
EQYDVQQLDApPcGVyYXRpb25zMRwwGgYDVQQDDBNyc2E0MDk1LmV4YW1wbGUuY29t
MIICITANBgkqhkiG9w0BAQEFAAOCAg4AMIICCQKCAgBfjDl4gjvPF6XTgP6B6y+R
u6No2slwyeX/u/2DyceZ1sInqjx6lvGOL4yFlGtgj2IX9fANz+Z6j6um/b1Why93
lbwmtVmb8Mq6REOA6xR1GzdekQCUNHT6ic3fvOgjeEVg81pKKtdTZkM6+SqAqq12
CjUfAWGX0pJCQPuQWepaqTaaG7i0e8suJN+rrQHQhGvjHRZQGT6emrGKZ1+gK5rW
jkw6SV1mxK2Dx9pgWP7Wbl0Yv27isiu1xTkXTVBTa69MdSUJ6FSd68e9nlkbyM3p
BCHdC9SQTNHvcV2xn4bpIYExvEz2tyFJhE0isO3ljA5Aub5UPkdQOkkrtBaie04H
NXx1RRxx7i05utBMiNypaECwYBPxo+uWX9HaQHFhPIBoWYIgwAB1VLkff1OAbkVG
d8FNTfaOlVagDEPy34SQMPT6umjvdS8G0w+z0hvx2jXBxZc/V/MJhY9QBxu17r4O
+ZnTSfKnOOSi6baVtY7+IEczIBEXydIPltfgmLA2Z6/thsV+jt4Mxx/TkUTQLzKf
IHCsQfCCDmZyCZjd1VBcPLGQOnt+oz5aAhnKCjerPA9+AxtQ4NpdxggpaxKRkOdt
sv4fIppYmGPBfPJvkUk370p5ki4fJwnti/k029bOsl2HmZJQYnZ18jKabzRhGGbW
OkJ2RhlXEnQyiSyTQEmOcQIDAQABo4IBIDCCARwwDgYDVR0PAQH/BAQDAgWgMAkG
A1UdEwQCMAAwHQYDVR0lBBYwFAYIKwYBBQUHAwEGCCsGAQUFBwMCMB0GA1UdDgQW
BBTrTLvX2fzwbxYJrZ1TAg7eJCZW1zAzBgNVHREELDAqghNyc2E0MDk1LmV4YW1w
bGUuY29tghNyc2E0MDk1LmV4YW1wbGUuY29tMB8GA1UdIwQYMBaAFPZuZ0kC1xVw
EZyMBoZ04DJhFscOMDoGCCsGAQUFBwEBBC4wLDAqBggrBgEFBQcwAoYeaHR0cDov
L2V4YW1wbGUuY29tL2NhL3Jvb3QuY3J0MC8GA1UdHwQoMCYwJKAioCCGHmh0dHA6
Ly9leGFtcGxlLmNvbS9jYS9yb290LmNybDANBgkqhkiG9w0BAQsFAAOCAgEASmVy
mF+levG54WvFmvSMb/7xyppKDgW3pKoLdHl/XUO6PscFc28bmh7peMdLUNEb3wkf
wUrGPkaEjCAyculswMHVbWTx+2xoGfvetdBfVXvtr1zUx/+wXs8g3avEkHX0yIXI
4IXa7cQVxDhox5iwC936fmaNMvqqF0964vhpeQ1lJmMbihjRhPQzJvSx4pAMFW2r
cXm0LTjJuWX9vUSLY9Tbqq60WIviG904rG4CQb3ITBDWjrQbvg8aIn09SWsF2e7e
ZAtiM/6JsqzS4vLALwBtOkBNAqjTxjFtH0/XwKM2Vwm1BmzoQLykfgf7iWgokVAL
LvCVO4gKcy/seam715BCSCCIxIAnCbNKNQe2zSkD9ASZezyaO5SHQs01zVjR1wNs
UiSIVOpNivkClfaEa9L7wIAFnGkOTueMxjzDQ5D6+uh0/rM64TWdAlfqqOSlRscK
MRmLS9Gy9SkcVRa9jksGtr7D9YpGUK6yOnJnZhbYQEDL5ByNgnlKqdtL3GD7SxA0
VWaKhWEk4zhmbY6/w4XQOuFHfDGYH2/AyUt916gSzNz0EHeYTVvoUysDcS4tK80y
p8QM+bwxTpHadJj7V2BTwB4kNR77UKHqI5SXpkvFSX6aUcFWlDlcoft4azqnrGgI
O7MlaeUcNIG1H9it+b84lcuh6dEF+1YSfsnjzuk=
-----END CERTIFICATE-----
