Certificate:
    Data:
        Version: 3 (0x2)
        Serial Number: 6 (0x6)
        Signature Algorithm: sha256WithRSAEncryption
        Issuer: C = US, ST = California, L = San Francisco, O = Bogus Inc., OU = Operations, CN = Zlint test certificates CA
        Validity
            Not Before: Oct  1 09:04:17 2019 GMT
            Not After : Sep 30 09:04:17 2029 GMT
        Subject: C = US, ST = California, L = San Francisco, O = Bogus Inc., OU = Operations, CN = Zlint EKU SubCA 4
        Subject Public Key Info:
            Public Key Algorithm: rsaEncryption
                RSA Public-Key: (2048 bit)
                Modulus:
                    00:c9:9d:52:30:0c:f3:2e:c9:88:69:fe:3f:e1:4c:
                    55:c7:b0:92:0c:ed:d6:4b:10:07:ae:53:54:d2:da:
                    12:c0:6e:45:8d:65:61:b3:1e:ad:d7:52:c2:8f:37:
                    68:35:32:2f:eb:9a:f5:3d:c1:47:89:dc:c7:47:84:
                    5a:9d:12:ec:c8:1b:65:d1:16:57:17:7d:75:c5:57:
                    0f:da:81:66:4c:d2:65:aa:27:80:4e:22:b1:c8:ac:
                    81:20:c9:35:70:cf:4f:8f:5e:54:dc:24:82:4c:45:
                    d3:9e:c0:d5:62:22:9f:93:28:90:5c:91:b2:05:50:
                    4a:37:2e:84:00:99:c2:1b:06:6d:6a:62:7f:0e:b3:
                    ea:31:28:1e:a6:4f:d5:be:ea:b7:e0:16:4f:49:8a:
                    11:83:08:3a:cc:3c:59:33:5c:8b:28:87:23:27:69:
                    ed:e0:e7:75:0e:45:51:31:9c:6a:c5:73:b2:8a:84:
                    e8:40:54:be:57:da:1c:db:df:18:f5:8a:95:47:07:
                    f8:56:05:d5:ed:8a:5d:01:c7:c0:93:ab:8a:3f:ee:
                    1c:46:b6:58:f7:4c:ef:f7:d7:5c:f7:6c:b5:30:be:
                    2e:55:2b:c6:9e:8a:25:6a:96:d9:98:13:07:43:2b:
                    9d:99:8b:b5:38:c7:2f:76:a0:14:3e:9d:28:0a:af:
                    a6:cf
                Exponent: 65537 (0x10001)
        X509v3 extensions:
            X509v3 Key Usage: critical
                Certificate Sign, CRL Sign
            X509v3 Basic Constraints: critical
                CA:TRUE, pathlen:0
            X509v3 Subject Key Identifier: 
                70:0D:B0:3B:EC:A8:53:28:F4:47:00:57:5B:D9:55:5E:F0:D0:54:4F
            X509v3 Authority Key Identifier: 
                keyid:F6:6E:67:49:02:D7:15:70:11:9C:8C:06:86:74:E0:32:61:16:C7:0E

            Authority Information Access: 
                CA Issuers - URI:http://example.com/ca/root.crt

            X509v3 CRL Distribution Points: 

                Full Name:
                  URI:http://example.com/ca/root.crl

            X509v3 Extended Key Usage: 
                TLS Web Server Authentication
    Signature Algorithm: sha256WithRSAEncryption
         00:6c:8e:9f:5d:bb:c1:83:0a:34:d3:93:80:d8:d7:df:48:60:
         4d:67:34:2d:d1:ce:98:2f:02:3d:d4:50:58:28:00:3b:a5:f7:
         50:87:74:b6:e7:25:c0:96:fc:dc:e4:fd:75:1f:28:91:28:7d:
         c0:af:b3:fc:eb:e6:6f:1d:a1:00:a9:d1:bb:59:d5:bd:11:8a:
         f9:74:30:2e:f9:d7:61:35:31:8b:16:25:93:39:cf:e5:24:1c:
         e1:f8:4a:58:cb:78:41:57:f8:ab:fd:07:83:7f:2a:85:bd:df:
         8d:49:a0:73:5b:a3:19:ae:d3:13:8e:35:a3:af:8c:0e:da:d7:
         15:48:24:3c:da:fa:67:4e:12:38:d3:cf:12:19:37:b1:b3:71:
         93:17:76:8f:b4:ac:11:08:ce:08:22:54:02:1c:cd:ec:ae:e7:
         d9:3a:03:dd:1e:91:1b:75:e0:34:4f:27:b5:6b:f0:f4:8f:17:
         09:7e:b9:4f:91:90:08:b2:5d:34:02:56:be:de:63:2d:3f:35:
         23:98:35:a6:1e:e4:60:b7:7a:18:7a:78:b7:d9:75:d1:19:0a:
         c6:f9:d8:2e:2c:a5:1a:37:3d:0f:f7:1a:38:3e:af:55:e0:5e:
         cf:bd:46:66:d2:8d:08:47:54:51:a8:49:93:af:52:e4:98:90:
         d3:87:84:ae:7d:21:ad:0e:89:43:94:fa:ec:e8:a1:b8:21:96:
         88:4c:ad:7e:59:76:d9:ad:2d:a8:79:03:c6:de:f4:17:d5:05:
         38:ff:c9:01:56:c0:3d:02:a2:df:c2:a5:3d:c6:7f:eb:d0:1b:
         7e:88:37:9e:92:83:d8:2e:63:b6:61:48:46:62:dd:00:1e:58:
         5b:52:14:b9:77:db:8e:15:74:56:82:c2:f8:70:ae:20:26:aa:
         e4:8d:de:27:df:fe:9e:4e:dc:77:00:39:1a:55:97:54:f4:43:
         4a:12:ea:db:44:14:dd:9a:9f:6d:ea:5b:a9:50:dd:f9:19:bb:
         c2:76:ab:be:0d:b5:98:20:e7:c5:e6:d2:c7:2d:50:d2:7a:fb:
         26:12:39:ef:f0:f6:cf:d7:06:ab:99:0a:de:c1:88:95:86:39:
         54:2b:0a:06:9c:d5:fc:ca:0d:6e:20:ec:91:af:e3:08:25:7a:
         70:86:73:0e:56:e5:89:53:b0:25:95:99:82:30:af:45:5a:49:
         11:2f:24:39:9b:c0:f9:19:b8:8b:52:ad:c5:45:90:fe:c7:2d:
         a5:ca:00:f5:8f:aa:27:69:f7:2d:5d:a9:2f:01:2c:66:78:ed:
         b7:89:c6:f4:f1:f7:06:75:db:44:17:25:b8:10:a3:2e:9f:9d:
         0b:ab:c3:e1:b3:dc:91:e2
-----BEGIN CERTIFICATE-----
MIIFcDCCA1igAwIBAgIBBjANBgkqhkiG9w0BAQsFADCBiTELMAkGA1UEBhMCVVMx
EzARBgNVBAgMCkNhbGlmb3JuaWExFjAUBgNVBAcMDVNhbiBGcmFuY2lzY28xEzAR
BgNVBAoMCkJvZ3VzIEluYy4xEzARBgNVBAsMCk9wZXJhdGlvbnMxIzAhBgNVBAMM
GlpsaW50IHRlc3QgY2VydGlmaWNhdGVzIENBMB4XDTE5MTAwMTA5MDQxN1oXDTI5
MDkzMDA5MDQxN1owgYAxCzAJBgNVBAYTAlVTMRMwEQYDVQQIDApDYWxpZm9ybmlh
MRYwFAYDVQQHDA1TYW4gRnJhbmNpc2NvMRMwEQYDVQQKDApCb2d1cyBJbmMuMRMw
EQYDVQQLDApPcGVyYXRpb25zMRowGAYDVQQDDBFabGludCBFS1UgU3ViQ0EgNDCC
ASIwDQYJKoZIhvcNAQEBBQADggEPADCCAQoCggEBAMmdUjAM8y7JiGn+P+FMVcew
kgzt1ksQB65TVNLaEsBuRY1lYbMerddSwo83aDUyL+ua9T3BR4ncx0eEWp0S7Mgb
ZdEWVxd9dcVXD9qBZkzSZaongE4iscisgSDJNXDPT49eVNwkgkxF057A1WIin5Mo
kFyRsgVQSjcuhACZwhsGbWpifw6z6jEoHqZP1b7qt+AWT0mKEYMIOsw8WTNciyiH
Iydp7eDndQ5FUTGcasVzsoqE6EBUvlfaHNvfGPWKlUcH+FYF1e2KXQHHwJOrij/u
HEa2WPdM7/fXXPdstTC+LlUrxp6KJWqW2ZgTB0MrnZmLtTjHL3agFD6dKAqvps8C
AwEAAaOB6TCB5jAOBgNVHQ8BAf8EBAMCAQYwEgYDVR0TAQH/BAgwBgEB/wIBADAd
BgNVHQ4EFgQUcA2wO+yoUyj0RwBXW9lVXvDQVE8wHwYDVR0jBBgwFoAU9m5nSQLX
FXARnIwGhnTgMmEWxw4wOgYIKwYBBQUHAQEELjAsMCoGCCsGAQUFBzAChh5odHRw
Oi8vZXhhbXBsZS5jb20vY2Evcm9vdC5jcnQwLwYDVR0fBCgwJjAkoCKgIIYeaHR0
cDovL2V4YW1wbGUuY29tL2NhL3Jvb3QuY3JsMBMGA1UdJQQMMAoGCCsGAQUFBwMB
MA0GCSqGSIb3DQEBCwUAA4ICAQAAbI6fXbvBgwo005OA2NffSGBNZzQt0c6YLwI9
1FBYKAA7pfdQh3S25yXAlvzc5P11HyiRKH3Ar7P86+ZvHaEAqdG7WdW9EYr5dDAu
+ddhNTGLFiWTOc/lJBzh+EpYy3hBV/ir/QeDfyqFvd+NSaBzW6MZrtMTjjWjr4wO
2tcVSCQ82vpnThI4088SGTexs3GTF3aPtKwRCM4IIlQCHM3srufZOgPdHpEbdeA0
Tye1a/D0jxcJfrlPkZAIsl00Ala+3mMtPzUjmDWmHuRgt3oYeni32XXRGQrG+dgu
LKUaNz0P9xo4Pq9V4F7PvUZm0o0IR1RRqEmTr1LkmJDTh4SufSGtDolDlPrs6KG4
IZaITK1+WXbZrS2oeQPG3vQX1QU4/8kBVsA9AqLfwqU9xn/r0Bt+iDeekoPYLmO2
YUhGYt0AHlhbUhS5d9uOFXRWgsL4cK4gJqrkjd4n3/6eTtx3ADkaVZdU9ENKEurb
RBTdmp9t6lupUN35GbvCdqu+DbWYIOfF5tLHLVDSevsmEjnv8PbP1warmQrewYiV
hjlUKwoGnNX8yg1uIOyRr+MIJXpwhnMOVuWJU7AllZmCMK9FWkkRLyQ5m8D5GbiL
Uq3FRZD+xy2lygD1j6onafctXakvASxmeO23icb08fcGddtEFyW4EKMun50Lq8Ph
s9yR4g==
-----END CERTIFICATE-----
