Certificate:
    Data:
        Version: 3 (0x2)
        Serial Number: 1 (0x1)
    Signature Algorithm: sha256WithRSAEncryption
        Issuer: CN=Mother Nature, OU=Everything, O=Mother Nature/postalCode=postalcode, C=US, GN=givenname, SN=surname
        Validity
            Not Before: Aug 29 22:13:38 2017 GMT
            Not After : Nov 10 23:13:38 2017 GMT
        Subject: CN=gov.us, OU=Chaos, O=org/street=3210 Holly Mill Run, ST=province/postalCode=30062, GN=hello, SN=surname
        Subject Public Key Info:
            Public Key Algorithm: rsaEncryption
                Public-Key: (2048 bit)
                Modulus:
                    00:dc:3c:9f:7a:db:61:91:3b:79:9a:c1:4d:a4:41:
                    c7:2b:9c:40:e6:a8:0f:2b:d1:2b:3c:7e:8c:c9:24:
                    b5:18:f9:b9:1c:e1:fe:28:e4:ef:da:d5:cf:67:79:
                    b0:99:d6:2c:15:76:57:e0:a9:80:ba:6e:9f:91:43:
                    94:5b:2b:90:da:4b:a5:a9:78:6c:3e:ff:a6:60:4f:
                    a7:f2:0e:e6:cd:13:77:bd:4c:16:d3:05:38:9d:a5:
                    66:2d:9b:52:8c:57:9c:c9:74:c9:05:f9:5e:da:7f:
                    16:5f:b3:a0:d8:dd:5f:4f:ac:a3:d5:45:57:fe:13:
                    78:6f:5f:d4:80:37:fd:74:ad:10:9f:a9:eb:b1:f1:
                    96:14:87:ad:00:04:4a:af:8b:22:13:8d:49:5f:f6:
                    74:3e:f6:f8:34:68:7c:43:58:a8:f2:96:e4:d7:97:
                    be:ec:00:f0:a9:3e:96:f0:65:80:59:9d:79:4d:39:
                    e5:c4:96:06:d6:c2:13:0a:ed:0f:82:d1:4c:4f:cd:
                    e2:b6:67:18:26:2d:91:2d:dd:5c:e6:2f:a6:df:ed:
                    25:85:00:8f:92:89:e7:da:b7:6d:f8:f2:64:3e:cc:
                    42:6c:98:20:2b:99:b1:1a:d6:58:80:33:83:d6:20:
                    92:8e:77:fe:19:80:94:36:d3:90:46:09:94:f5:41:
                    6c:25
                Exponent: 65537 (0x10001)
        X509v3 extensions:
            X509v3 Key Usage: critical
                Digital Signature, Key Encipherment
            X509v3 Extended Key Usage: 
                TLS Web Client Authentication, TLS Web Server Authentication
            X509v3 Basic Constraints: critical
                CA:TRUE
            X509v3 Authority Key Identifier: 
                keyid:01:02:03

            Authority Information Access: 
                OCSP - URI:http://theca.net/ocsp
                CA Issuers - URI:http://theca.net/totallythecert.crt

            X509v3 Subject Alternative Name: 
                DNS:hell,o.com.uk
            X509v3 Certificate Policies: 
                Policy: X509v3 Any Policy

    Signature Algorithm: sha256WithRSAEncryption
         9a:46:58:73:88:e5:23:16:ba:52:ee:26:c9:ba:52:74:d9:15:
         30:bd:e7:e2:64:47:cb:1f:53:41:45:d6:06:7e:a9:e7:03:51:
         af:b2:7e:83:34:2e:62:e9:9b:2d:33:2a:f2:97:0e:57:15:b6:
         e0:f5:7d:4a:12:47:33:39:ce:df:9f:04:db:6b:2d:2d:d3:e0:
         73:90:9e:3e:c2:28:ea:96:40:9d:e7:b7:0a:a5:47:f3:64:2e:
         87:b4:5d:21:dc:c8:e3:51:df:ba:39:8f:f9:44:5a:5f:e2:a7:
         6a:6e:92:bf:4a:fe:ef:74:2d:5d:19:e5:2d:08:40:60:49:c1:
         5e:00:ae:35:38:3d:c7:f7:48:5a:1a:17:7a:95:f4:c0:f9:4c:
         e6:b2:18:02:c8:7c:17:93:32:b5:48:e4:2a:a9:fd:44:68:66:
         57:a3:5c:a3:5c:8c:f1:47:82:e3:bf:1c:ed:ea:dd:c1:fa:1c:
         e1:9b:30:8f:c3:7c:82:55:4f:fa:11:d0:66:4d:31:d2:b9:e5:
         a2:ad:4a:0b:d5:14:d4:5a:61:af:b2:6d:03:b9:3c:7e:85:2f:
         5f:21:8b:01:46:30:c7:c9:d4:19:fe:72:57:9f:8e:5a:85:e1:
         92:4d:1e:23:be:08:02:b6:e2:b6:94:29:38:c1:2b:eb:a5:1d:
         94:fe:a6:62
-----BEGIN CERTIFICATE-----
MIIEgTCCA2ugAwIBAgIBATALBgkqhkiG9w0BAQswgY8xFjAUBgNVBAMTDU1vdGhl
ciBOYXR1cmUxEzARBgNVBAsTCkV2ZXJ5dGhpbmcxFjAUBgNVBAoTDU1vdGhlciBO
YXR1cmUxEzARBgNVBBETCnBvc3RhbGNvZGUxCzAJBgNVBAYTAlVTMRIwEAYDVQQq
EwlnaXZlbm5hbWUxEDAOBgNVBAQTB3N1cm5hbWUxADAeFw0xNzA4MjkyMjEzMzha
Fw0xNzExMTAyMzEzMzhaMIGUMQ8wDQYDVQQDEwZnb3YudXMxDjAMBgNVBAsTBUNo
YW9zMQwwCgYDVQQKEwNvcmcxHDAaBgNVBAkTEzMyMTAgSG9sbHkgTWlsbCBSdW4x
ETAPBgNVBAgTCHByb3ZpbmNlMQ4wDAYDVQQREwUzMDA2MjEOMAwGA1UEKhMFaGVs
bG8xEDAOBgNVBAQTB3N1cm5hbWUxADCCASIwDQYJKoZIhvcNAQEBBQADggEPADCC
AQoCggEBANw8n3rbYZE7eZrBTaRBxyucQOaoDyvRKzx+jMkktRj5uRzh/ijk79rV
z2d5sJnWLBV2V+CpgLpun5FDlFsrkNpLpal4bD7/pmBPp/IO5s0Td71MFtMFOJ2l
Zi2bUoxXnMl0yQX5Xtp/Fl+zoNjdX0+so9VFV/4TeG9f1IA3/XStEJ+p67HxlhSH
rQAESq+LIhONSV/2dD72+DRofENYqPKW5NeXvuwA8Kk+lvBlgFmdeU055cSWBtbC
EwrtD4LRTE/N4rZnGCYtkS3dXOYvpt/tJYUAj5KJ59q3bfjyZD7MQmyYICuZsRrW
WIAzg9Ygko53/hmAlDbTkEYJlPVBbCUCAwEAAaOB5DCB4TAOBgNVHQ8BAf8EBAMC
AKAwHQYDVR0lBBYwFAYIKwYBBQUHAwIGCCsGAQUFBwMBMA8GA1UdEwEB/wQFMAMB
Af8wDgYDVR0jBAcwBYADAQIDMGIGCCsGAQUFBwEBBFYwVDAhBggrBgEFBQcwAYYV
aHR0cDovL3RoZWNhLm5ldC9vY3NwMC8GCCsGAQUFBzAChiNodHRwOi8vdGhlY2Eu
bmV0L3RvdGFsbHl0aGVjZXJ0LmNydDAYBgNVHREEETAPgg1oZWxsLG8uY29tLnVr
MBEGA1UdIAQKMAgwBgYEVR0gADALBgkqhkiG9w0BAQsDggEBAJpGWHOI5SMWulLu
Jsm6UnTZFTC95+JkR8sfU0FF1gZ+qecDUa+yfoM0LmLpmy0zKvKXDlcVtuD1fUoS
RzM5zt+fBNtrLS3T4HOQnj7CKOqWQJ3ntwqlR/NkLoe0XSHcyONR37o5j/lEWl/i
p2pukr9K/u90LV0Z5S0IQGBJwV4ArjU4Pcf3SFoaF3qV9MD5TOayGALIfBeTMrVI
5Cqp/URoZlejXKNcjPFHguO/HO3q3cH6HOGbMI/DfIJVT/oR0GZNMdK55aKtSgvV
FNRaYa+ybQO5PH6FL18hiwFGMMfJ1Bn+clefjlqF4ZJNHiO+CAK24raUKTjBK+ul
HZT+pmI=
-----END CERTIFICATE-----
