Certificate:
    Data:
        Version: 3 (0x2)
        Serial Number: 18008675309 (0x4316693ed)
    Signature Algorithm: sha256WithRSAEncryption
        Issuer: C = US, O = Mother Nature, OU = Everything, CN = Mother Nature
        Validity
            Not Before: Dec  1 06:07:08 2055 GMT
            Not After : Aug 12 04:37:54 2056 GMT
        Subject: C = US, O = Extreme Discord, OU = Chaos, L = Tallahassee, ST = FL, street = 3210 Holly Mill Run, postalCode = 30062, CN = gov.us
        Subject Public Key Info:
            Public Key Algorithm: rsaEncryption
                Public-Key: (512 bit)
                Modulus:
                    00:dc:f2:c2:5d:c5:56:32:32:1a:d0:0a:18:24:56:
                    5d:94:42:46:be:9c:3d:67:29:a7:dc:65:92:17:57:
                    de:2d:99:e1:5a:16:01:a6:e1:ab:2d:b9:ec:f2:88:
                    87:f8:9c:ee:02:7f:a5:22:b3:f3:6a:f4:6a:2c:28:
                    dd:2e:88:a4:3d
                Exponent: 65537 (0x10001)
        X509v3 extensions:
            X509v3 Key Usage: critical
                Digital Signature, Key Encipherment, Certificate Sign
            X509v3 Extended Key Usage: 
                TLS Web Client Authentication, TLS Web Server Authentication
            X509v3 Basic Constraints: critical
                CA:FALSE
            X509v3 Authority Key Identifier: 
                keyid:01:02:03

            Authority Information Access: 
                OCSP - URI:http://theca.net/ocsp
                CA Issuers - URI:http://theca.net/totallythecert.crt

            X509v3 Certificate Policies: 
                Policy: 2.23.140.1.2.2

            X509v3 Name Constraints: 
                Permitted:
                  DNS:example.com
                  DNS:test.com

            X509v3 Subject Key Identifier: 
                04:03:02:01
            X509v3 Subject Alternative Name: 
                DNS:gov.us, DNS:ˬ
            X509v3 Inhibit Any Policy: 
                ..
            Subject Information Access: 
                ..
    Signature Algorithm: sha256WithRSAEncryption
         9c:70:57:98:ac:29:48:ca:88:2e:11:17:5e:40:6d:65:57:28:
         aa:0f:f3:3f:b8:81:60:df:de:cb:d0:c0:50:32:b4:0a:e0:81:
         36:2a:2f:31:70:d8:04:92:32:26:5a:c5:c9:17:9a:db:e6:7e:
         e9:d3:66:fc:e3:90:95:c3:33:f2
-----BEGIN CERTIFICATE-----
MIIDIDCCAsygAwIBAgIFBDFmk+0wCwYJKoZIhvcNAQELMFQxCzAJBgNVBAYTAlVT
MRYwFAYDVQQKEw1Nb3RoZXIgTmF0dXJlMRMwEQYDVQQLEwpFdmVyeXRoaW5nMRYw
FAYDVQQDEw1Nb3RoZXIgTmF0dXJlMQAwIhgPMjA1NTEyMDEwNjA3MDhaGA8yMDU2
MDgxMjA0Mzc1NFowgZsxCzAJBgNVBAYTAlVTMRgwFgYDVQQKEw9FeHRyZW1lIERp
c2NvcmQxDjAMBgNVBAsTBUNoYW9zMRQwEgYDVQQHEwtUYWxsYWhhc3NlZTELMAkG
A1UECBMCRkwxHDAaBgNVBAkTEzMyMTAgSG9sbHkgTWlsbCBSdW4xDjAMBgNVBBET
BTMwMDYyMQ8wDQYDVQQDEwZnb3YudXMxADBcMA0GCSqGSIb3DQEBAQUAA0sAMEgC
QQDc8sJdxVYyMhrQChgkVl2UQka+nD1nKafcZZIXV94tmeFaFgGm4astuezyiIf4
nO4Cf6Uis/Nq9GosKN0uiKQ9AgMBAAGjggE5MIIBNTAOBgNVHQ8BAf8EBAMCAKQw
HQYDVR0lBBYwFAYIKwYBBQUHAwIGCCsGAQUFBwMBMAwGA1UdEwEB/wQCMAAwDgYD
VR0jBAcwBYADAQIDMGIGCCsGAQUFBwEBBFYwVDAhBggrBgEFBQcwAYYVaHR0cDov
L3RoZWNhLm5ldC9vY3NwMC8GCCsGAQUFBzAChiNodHRwOi8vdGhlY2EubmV0L3Rv
dGFsbHl0aGVjZXJ0LmNydDATBgNVHSAEDDAKMAgGBmeBDAECAjAsBgNVHR4EJTAj
oCEwEIILZXhhbXBsZS5jb22AAQAwDYIIdGVzdC5jb22AAQAwDQYDVR0OBAYEBAQD
AgEwFQYDVR0RBA4wDIIGZ292LnVzggLAqDAJBgNVHTYEAgIBMA4GCCsGAQUFBwEL
BAICATALBgkqhkiG9w0BAQsDQQCccFeYrClIyoguERdeQG1lVyiqD/M/uIFg397L
0MBQMrQK4IE2Ki8xcNgEkjImWsXJF5rb5n7p02b845CVwzPy
-----END CERTIFICATE-----
