Certificate:
    Data:
        Version: 3 (0x2)
        Serial Number: 18008675309 (0x4316693ed)
    Signature Algorithm: sha256WithRSAEncryption
        Issuer: C = US, O = Mother Nature, OU = Everything, CN = Mother Nature
        Validity
            Not Before: Dec  1 06:07:08 2055 GMT
            Not After : Aug 12 04:09:53 2056 GMT
        Subject: C = US, O = Extreme Discord, OU = Chaos, L = Tallahassee, ST = FL, street = 3210 Holly Mill Run, postalCode = 30062, CN = gov.us
        Subject Public Key Info:
            Public Key Algorithm: rsaEncryption
                Public-Key: (512 bit)
                Modulus:
                    00:bf:2d:a4:c3:34:15:b8:0b:c4:dc:60:59:6c:92:
                    78:8d:f8:d8:a0:33:97:7e:05:ee:81:31:b1:4b:40:
                    75:aa:a4:0c:0e:de:ce:db:39:4f:ac:84:5f:14:ee:
                    88:78:e5:cd:d8:18:3f:a4:4e:b3:17:9e:2c:46:66:
                    d7:4d:01:de:2f
                Exponent: 65537 (0x10001)
        X509v3 extensions:
            X509v3 Key Usage: critical
                Digital Signature, Key Encipherment, Certificate Sign
            X509v3 Extended Key Usage: 
                TLS Web Client Authentication, TLS Web Server Authentication
            X509v3 Basic Constraints: critical
                CA:FALSE
            X509v3 Authority Key Identifier: 
                keyid:01:02:03

            Authority Information Access: 
                OCSP - URI:http://theca.net/ocsp
                CA Issuers - URI:http://theca.net/totallythecert.crt

            X509v3 Certificate Policies: 
                Policy: 2.23.140.1.2.2

            X509v3 Name Constraints: 
                Permitted:
                  DNS:example.com
                  DNS:test.com

            X509v3 Subject Key Identifier: 
                04:03:02:01
            X509v3 Subject Alternative Name: 
                DNS:gov.us, DNS:ˬ
            X509v3 Inhibit Any Policy: 
                ..
            Subject Information Access: 
                ..
    Signature Algorithm: sha256WithRSAEncryption
         8a:2d:a3:17:d3:ee:47:6c:30:6b:4d:89:60:95:33:87:cf:0a:
         d8:f5:84:16:43:f1:e3:11:a1:50:88:a4:07:cf:99:22:b2:9d:
         15:6f:d3:1b:5b:7d:a3:71:fa:d0:e9:00:68:18:c4:24:5c:2c:
         7f:c2:f6:61:3b:cf:d3:8b:c0:ec
-----BEGIN CERTIFICATE-----
MIIDIDCCAsygAwIBAgIFBDFmk+0wCwYJKoZIhvcNAQELMFQxCzAJBgNVBAYTAlVT
MRYwFAYDVQQKEw1Nb3RoZXIgTmF0dXJlMRMwEQYDVQQLEwpFdmVyeXRoaW5nMRYw
FAYDVQQDEw1Nb3RoZXIgTmF0dXJlMQAwIhgPMjA1NTEyMDEwNjA3MDhaGA8yMDU2
MDgxMjA0MDk1M1owgZsxCzAJBgNVBAYTAlVTMRgwFgYDVQQKEw9FeHRyZW1lIERp
c2NvcmQxDjAMBgNVBAsTBUNoYW9zMRQwEgYDVQQHEwtUYWxsYWhhc3NlZTELMAkG
A1UECBMCRkwxHDAaBgNVBAkTEzMyMTAgSG9sbHkgTWlsbCBSdW4xDjAMBgNVBBET
BTMwMDYyMQ8wDQYDVQQDEwZnb3YudXMxADBcMA0GCSqGSIb3DQEBAQUAA0sAMEgC
QQC/LaTDNBW4C8TcYFlskniN+NigM5d+Be6BMbFLQHWqpAwO3s7bOU+shF8U7oh4
5c3YGD+kTrMXnixGZtdNAd4vAgMBAAGjggE5MIIBNTAOBgNVHQ8BAf8EBAMCAKQw
HQYDVR0lBBYwFAYIKwYBBQUHAwIGCCsGAQUFBwMBMAwGA1UdEwEB/wQCMAAwDgYD
VR0jBAcwBYADAQIDMGIGCCsGAQUFBwEBBFYwVDAhBggrBgEFBQcwAYYVaHR0cDov
L3RoZWNhLm5ldC9vY3NwMC8GCCsGAQUFBzAChiNodHRwOi8vdGhlY2EubmV0L3Rv
dGFsbHl0aGVjZXJ0LmNydDATBgNVHSAEDDAKMAgGBmeBDAECAjAsBgNVHR4EJTAj
oCEwEIILZXhhbXBsZS5jb22AAQcwDYIIdGVzdC5jb22AAQcwDQYDVR0OBAYEBAQD
AgEwFQYDVR0RBA4wDIIGZ292LnVzggLAqDAJBgNVHTYEAgIBMA4GCCsGAQUFBwEL
BAICATALBgkqhkiG9w0BAQsDQQCKLaMX0+5HbDBrTYlglTOHzwrY9YQWQ/HjEaFQ
iKQHz5kisp0Vb9MbW32jcfrQ6QBoGMQkXCx/wvZhO8/Ti8Ds
-----END CERTIFICATE-----
