Certificate:
    Data:
        Version: 3 (0x2)
        Serial Number: 18008675309 (0x4316693ed)
    Signature Algorithm: sha256WithRSAEncryption
        Issuer: C = US, O = Mother Nature, OU = Everything, CN = Name constraint
        Validity
            Not Before: Dec  1 06:07:08 2055 GMT
            Not After : Sep  2 02:02:13 2056 GMT
        Subject: C = US, O = Extreme Discord, OU = Chaos, L = Tallahassee, ST = FL, street = 3210 Holly Mill Run, postalCode = 30062, CN = gov.us
        Subject Public Key Info:
            Public Key Algorithm: rsaEncryption
                Public-Key: (2048 bit)
                Modulus:
                    00:c7:91:70:71:16:d8:4f:5e:d3:c4:4e:51:1c:01:
                    3b:f5:3d:6c:6b:38:e9:7a:e9:f0:ed:b9:52:5b:8b:
                    7f:65:54:c8:bb:c8:42:6a:7b:e1:64:4e:96:e0:0b:
                    30:ff:08:58:c2:4f:cf:ec:49:78:6d:fe:13:b7:31:
                    f8:5f:31:4b:9c:37:1b:76:03:8c:69:31:19:aa:f9:
                    6a:d9:65:2d:0a:22:21:27:5b:31:e6:37:5b:bb:94:
                    83:70:07:5e:6d:5e:83:c6:15:00:3c:7b:e8:aa:d1:
                    7c:0b:7a:cf:c2:09:b3:27:8a:f1:ab:41:f9:8c:df:
                    29:5c:b8:52:55:c7:c2:a2:cd:21:8b:ff:13:f0:85:
                    af:71:15:01:0a:18:4e:28:8d:37:b8:d5:bd:f5:e7:
                    a9:4a:eb:98:8b:5a:e1:04:00:d0:71:a7:8e:6a:ce:
                    04:de:70:fb:b4:07:1c:4b:04:66:1a:98:a5:fb:38:
                    43:1f:6d:86:13:db:2f:18:69:7b:1d:62:5f:f3:10:
                    ab:91:49:45:ea:fa:d9:02:df:db:dc:af:19:d9:79:
                    7c:aa:2a:0e:8b:b3:72:c0:16:49:f2:57:95:05:a1:
                    34:0e:91:20:e9:38:a1:55:e2:72:cb:f4:0a:66:83:
                    33:08:d7:1f:e4:65:97:02:ee:16:d0:52:68:b0:2d:
                    2a:1d
                Exponent: 65537 (0x10001)
        X509v3 extensions:
            X509v3 Key Usage: critical
                Digital Signature, Key Encipherment, Certificate Sign
            X509v3 Extended Key Usage: 
                TLS Web Client Authentication, TLS Web Server Authentication
            X509v3 Basic Constraints: critical
                CA:TRUE
            X509v3 Authority Key Identifier: 
                keyid:01:02:03

            Authority Information Access: 
                OCSP - URI:http://theca.net/ocsp
                CA Issuers - URI:http://theca.net/totallythecert.crt

            X509v3 Certificate Policies: 
                Policy: 2.23.140.1.2.2
                Policy: 1.2.3.4.5

            X509v3 Name Constraints: 
                0.....0...2330...email0...LulMail0.....0..1.0...U....US10...U.
..UIUC1.0
..U....ECE1.0...U....Champaign1.0...U....IL1.0...U...601 Wright St1.0...U....618201.0...U....uiuc.net1...0..
banned.com0
..........
            X509v3 Subject Alternative Name: 
                DNS:gov.us
    Signature Algorithm: sha256WithRSAEncryption
         6b:4a:26:f0:2f:d2:89:b8:33:8c:6b:5c:71:e4:64:26:33:3c:
         de:b7:a6:9b:d6:e3:7b:af:b3:e9:70:2c:8c:dc:99:17:22:45:
         37:15:b5:ca:21:02:66:7b:30:4d:50:7e:53:f0:f4:6b:17:4b:
         52:f5:cb:cc:b3:df:8e:98:5d:f3:2e:45:5d:d6:7e:ef:ea:d6:
         04:21:c8:0f:50:7e:6f:02:fe:58:6a:93:59:60:8d:bd:93:9b:
         1f:1d:ee:4c:cf:fd:1c:2a:48:f0:76:29:7a:2b:cd:ef:7a:b6:
         f7:d9:b5:03:e9:a8:fa:e4:82:a3:6d:f0:83:30:77:c7:93:98:
         c9:e5:cd:d9:80:b2:05:97:63:4c:f7:22:d7:fa:30:c7:d4:26:
         e2:db:8d:41:2a:59:c9:49:c9:db:1c:6a:28:d7:b9:0c:4c:4d:
         ca:bf:cd:83:22:50:f7:94:cf:1a:23:14:0e:a7:dd:ba:e5:dd:
         83:ce:c1:3f:ee:26:9c:2c:56:15:07:1e:40:01:c9:dd:b6:c0:
         68:1d:25:f5:82:bb:46:78:ba:97:79:82:a0:8d:1f:51:55:b4:
         1c:9b:b8:9f:24:23:b4:8e:06:da:f8:97:dc:6c:06:2a:e1:8d:
         85:af:6b:47:10:3b:09:90:67:72:7b:ee:19:90:7f:d0:34:bb:
         95:1a:7e:4a
-----BEGIN CERTIFICATE-----
MIIFNDCCBB6gAwIBAgIFBDFmk+0wCwYJKoZIhvcNAQELMFYxCzAJBgNVBAYTAlVT
MRYwFAYDVQQKEw1Nb3RoZXIgTmF0dXJlMRMwEQYDVQQLEwpFdmVyeXRoaW5nMRgw
FgYDVQQDEw9OYW1lIGNvbnN0cmFpbnQxADAiGA8yMDU1MTIwMTA2MDcwOFoYDzIw
NTYwOTAyMDIwMjEzWjCBmzELMAkGA1UEBhMCVVMxGDAWBgNVBAoTD0V4dHJlbWUg
RGlzY29yZDEOMAwGA1UECxMFQ2hhb3MxFDASBgNVBAcTC1RhbGxhaGFzc2VlMQsw
CQYDVQQIEwJGTDEcMBoGA1UECRMTMzIxMCBIb2xseSBNaWxsIFJ1bjEOMAwGA1UE
ERMFMzAwNjIxDzANBgNVBAMTBmdvdi51czEAMIIBIjANBgkqhkiG9w0BAQEFAAOC
AQ8AMIIBCgKCAQEAx5FwcRbYT17TxE5RHAE79T1sazjpeunw7blSW4t/ZVTIu8hC
anvhZE6W4Asw/whYwk/P7El4bf4TtzH4XzFLnDcbdgOMaTEZqvlq2WUtCiIhJ1sx
5jdbu5SDcAdebV6DxhUAPHvoqtF8C3rPwgmzJ4rxq0H5jN8pXLhSVcfCos0hi/8T
8IWvcRUBChhOKI03uNW99eepSuuYi1rhBADQcaeOas4E3nD7tAccSwRmGpil+zhD
H22GE9svGGl7HWJf8xCrkUlF6vrZAt/b3K8Z2Xl8qioOi7NywBZJ8leVBaE0DpEg
6TihVeJyy/QKZoMzCNcf5GWXAu4W0FJosC0qHQIDAQABo4IBwTCCAb0wDgYDVR0P
AQH/BAQDAgCkMB0GA1UdJQQWMBQGCCsGAQUFBwMCBggrBgEFBQcDATAPBgNVHRMB
Af8EBTADAQH/MA4GA1UdIwQHMAWAAwECAzBiBggrBgEFBQcBAQRWMFQwIQYIKwYB
BQUHMAGGFWh0dHA6Ly90aGVjYS5uZXQvb2NzcDAvBggrBgEFBQcwAoYjaHR0cDov
L3RoZWNhLm5ldC90b3RhbGx5dGhlY2VydC5jcnQwGwYDVR0gBBQwEjAIBgZngQwB
AgIwBgYEKgMEBTCB1gYDVR0eBIHOMIHLoIGsMAWDAzIzMzAHgQVlbWFpbDAJgQdM
dWxNYWlsMIGOpIGLMIGIMQswCQYDVQQGEwJVUzENMAsGA1UEChMEVUlVQzEMMAoG
A1UECxMDRUNFMRIwEAYDVQQHEwlDaGFtcGFpZ24xCzAJBgNVBAgTAklMMRYwFAYD
VQQJEw02MDEgV3JpZ2h0IFN0MQ4wDAYDVQQREwU2MTgyMDERMA8GA1UEAxMIdWl1
Yy5uZXQxAKEaMAyCCmJhbm5lZC5jb20wCocIwKgBAf//AAAwEQYDVR0RBAowCIIG
Z292LnVzMAsGCSqGSIb3DQEBCwOCAQEAa0om8C/SibgzjGtcceRkJjM83remm9bj
e6+z6XAsjNyZFyJFNxW1yiECZnswTVB+U/D0axdLUvXLzLPfjphd8y5FXdZ+7+rW
BCHID1B+bwL+WGqTWWCNvZObHx3uTM/9HCpI8HYpeivN73q299m1A+mo+uSCo23w
gzB3x5OYyeXN2YCyBZdjTPci1/owx9Qm4tuNQSpZyUnJ2xxqKNe5DExNyr/NgyJQ
95TPGiMUDqfduuXdg87BP+4mnCxWFQceQAHJ3bbAaB0l9YK7Rni6l3mCoI0fUVW0
HJu4nyQjtI4G2viX3GwGKuGNha9rRxA7CZBncnvuGZB/0DS7lRp+Sg==
-----END CERTIFICATE-----
