Certificate:
    Data:
        Version: 3 (0x2)
        Serial Number: 18008675309 (0x4316693ed)
    Signature Algorithm: sha256WithRSAEncryption
        Issuer: C = US, O = Mother Nature, OU = Everything, CN = Mother Nature
        Validity
            Not Before: Dec 31 00:00:00 2010 GMT
            Not After : Jan  1 00:00:00 2013 GMT
        Subject: C = US, O = Extreme Discord, OU = Chaos, L = Tallahassee, ST = FL, street = 3210 Holly Mill Run, postalCode = 30062, CN = gov.us
        Subject Public Key Info:
            Public Key Algorithm: rsaEncryption
                Public-Key: (2048 bit)
                Modulus:
                    00:dd:99:1b:d7:53:6b:79:f7:01:d6:4c:f0:08:dc:
                    d9:fa:6e:b8:b9:49:0b:3f:36:4a:fc:8c:cb:f1:7a:
                    34:5d:d8:40:6a:a0:24:a9:2c:dc:ad:28:7a:d6:8b:
                    5e:98:14:b3:ac:70:e0:46:1f:b8:b0:83:e6:72:21:
                    b4:4f:42:ae:38:54:68:7f:bd:11:6c:27:8f:87:d0:
                    ac:66:51:5c:45:0d:9a:18:89:90:8f:df:c5:4b:4a:
                    69:33:b1:00:7c:18:b2:87:38:ed:67:17:76:49:cd:
                    33:14:22:a7:c6:0a:55:58:c0:07:82:7a:6a:86:40:
                    24:80:50:5a:31:f3:0a:3e:94:43:2d:98:03:10:db:
                    f2:5b:d0:bf:8e:c2:44:05:1e:8f:e4:98:7b:dc:74:
                    2b:d5:98:68:3d:86:d7:9a:bb:bc:3e:80:0d:64:f4:
                    e7:be:21:ac:f7:1b:62:77:c5:18:32:7c:c1:df:69:
                    d8:23:9f:17:fb:aa:8d:cf:7c:58:cb:6e:f6:d7:b3:
                    5e:59:74:4a:8e:29:0e:22:b0:00:fb:1e:f9:8a:1e:
                    c2:9e:24:ca:3d:5b:d0:f4:1b:2b:7e:a7:7c:73:90:
                    4b:2f:69:0b:7e:09:9d:58:1c:86:48:e5:64:89:8c:
                    61:6c:df:7d:6e:79:e6:46:6e:28:cf:1a:9a:34:cb:
                    de:a5
                Exponent: 65537 (0x10001)
        X509v3 extensions:
            X509v3 Key Usage: critical
                Digital Signature, Key Encipherment
            X509v3 Extended Key Usage: 
                TLS Web Client Authentication, TLS Web Server Authentication
            X509v3 Basic Constraints: critical
                CA:FALSE
            X509v3 Authority Key Identifier: 
                keyid:01:02:03

            Authority Information Access: 
                OCSP - URI:http://theca.net/ocsp
                CA Issuers - URI:http://theca.net/totallythecert.crt

            X509v3 Certificate Policies: 
                Policy: 2.23.140.1.2.2

            X509v3 Subject Key Identifier: 
                04:03:02:01
            X509v3 Subject Alternative Name: 
                DNS:*.gov.us, DNS:gov.us
            X509v3 Name Constraints: 

    Signature Algorithm: sha256WithRSAEncryption
         c6:e2:3b:4d:46:6f:6f:b5:c3:b8:57:d7:12:fe:ce:58:89:e4:
         52:b8:07:f2:6d:4c:93:7f:6b:f0:a9:60:7b:ed:4a:4f:2f:f6:
         a2:c6:e3:f6:f5:73:5b:2a:24:68:d7:56:54:93:92:c1:0f:25:
         d5:6d:da:da:ec:33:b7:6f:ca:0e:94:1d:75:5a:16:3e:9c:b8:
         ec:9d:69:8b:71:d8:f4:fc:d9:2b:36:b0:87:90:54:be:74:f1:
         74:67:92:41:fc:44:1b:f4:e8:3e:5a:ce:6a:ab:99:95:3f:6b:
         4d:58:5a:e3:fc:0b:f7:2a:b8:b1:d1:25:48:d6:d9:26:a0:85:
         95:c9:fa:57:9f:a5:4e:1b:20:b6:19:30:48:bc:22:31:4f:8a:
         82:97:c3:1c:bb:b0:f8:74:03:56:7b:0e:e8:df:0b:54:0c:66:
         9c:33:09:47:2a:1c:62:4f:46:7f:6d:17:0f:7d:9f:fb:68:3a:
         12:24:dd:18:9c:9c:8d:a7:b8:54:2e:69:0f:14:48:30:dd:d8:
         35:9d:84:ae:2a:48:19:df:85:5d:90:44:6e:a7:50:86:c5:41:
         8f:96:f6:7f:6a:c8:32:d7:29:5d:25:ad:24:ef:8b:92:c6:32:
         91:28:af:c7:63:c3:c4:ff:f5:ae:b3:4f:91:eb:08:b5:e3:38:
         b1:19:a6:af
-----BEGIN CERTIFICATE-----
MIIEbTCCA1WgAwIBAgIFBDFmk+0wDQYJKoZIhvcNAQELBQAwUjELMAkGA1UEBhMC
VVMxFjAUBgNVBAoTDU1vdGhlciBOYXR1cmUxEzARBgNVBAsTCkV2ZXJ5dGhpbmcx
FjAUBgNVBAMTDU1vdGhlciBOYXR1cmUwHhcNMTAxMjMxMDAwMDAwWhcNMTMwMTAx
MDAwMDAwWjCBmTELMAkGA1UEBhMCVVMxGDAWBgNVBAoTD0V4dHJlbWUgRGlzY29y
ZDEOMAwGA1UECxMFQ2hhb3MxFDASBgNVBAcTC1RhbGxhaGFzc2VlMQswCQYDVQQI
EwJGTDEcMBoGA1UECRMTMzIxMCBIb2xseSBNaWxsIFJ1bjEOMAwGA1UEERMFMzAw
NjIxDzANBgNVBAMTBmdvdi51czCCASIwDQYJKoZIhvcNAQEBBQADggEPADCCAQoC
ggEBAN2ZG9dTa3n3AdZM8Ajc2fpuuLlJCz82SvyMy/F6NF3YQGqgJKks3K0oetaL
XpgUs6xw4EYfuLCD5nIhtE9CrjhUaH+9EWwnj4fQrGZRXEUNmhiJkI/fxUtKaTOx
AHwYsoc47WcXdknNMxQip8YKVVjAB4J6aoZAJIBQWjHzCj6UQy2YAxDb8lvQv47C
RAUej+SYe9x0K9WYaD2G15q7vD6ADWT0574hrPcbYnfFGDJ8wd9p2COfF/uqjc98
WMtu9tezXll0So4pDiKwAPse+Yoewp4kyj1b0PQbK36nfHOQSy9pC34JnVgchkjl
ZImMYWzffW555kZuKM8amjTL3qUCAwEAAaOCAQAwgf0wDgYDVR0PAQH/BAQDAgWg
MB0GA1UdJQQWMBQGCCsGAQUFBwMCBggrBgEFBQcDATAMBgNVHRMBAf8EAjAAMA4G
A1UdIwQHMAWAAwECAzBiBggrBgEFBQcBAQRWMFQwIQYIKwYBBQUHMAGGFWh0dHA6
Ly90aGVjYS5uZXQvb2NzcDAvBggrBgEFBQcwAoYjaHR0cDovL3RoZWNhLm5ldC90
b3RhbGx5dGhlY2VydC5jcnQwEwYDVR0gBAwwCjAIBgZngQwBAgIwDQYDVR0OBAYE
BAQDAgEwGwYDVR0RBBQwEoIIKi5nb3YudXOCBmdvdi51czAJBgNVHR4EAjAAMA0G
CSqGSIb3DQEBCwUAA4IBAQDG4jtNRm9vtcO4V9cS/s5YieRSuAfybUyTf2vwqWB7
7UpPL/aixuP29XNbKiRo11ZUk5LBDyXVbdra7DO3b8oOlB11WhY+nLjsnWmLcdj0
/NkrNrCHkFS+dPF0Z5JB/EQb9Og+Ws5qq5mVP2tNWFrj/Av3Krix0SVI1tkmoIWV
yfpXn6VOGyC2GTBIvCIxT4qCl8Mcu7D4dANWew7o3wtUDGacMwlHKhxiT0Z/bRcP
fZ/7aDoSJN0YnJyNp7hULmkPFEgw3dg1nYSuKkgZ34VdkERup1CGxUGPlvZ/asgy
1yldJa0k74uSxjKRKK/HY8PE//Wus0+R6wi14zixGaav
-----END CERTIFICATE-----
