Certificate:
    Data:
        Version: 3 (0x2)
        Serial Number: 18008675309 (0x4316693ed)
    Signature Algorithm: sha256WithRSAEncryption
        Issuer: C = US, O = Mother Nature, OU = Everything, CN = Mother Nature
        Validity
            Not Before: Jan  1 00:00:00 2014 GMT
            Not After : Jan  1 00:00:00 2015 GMT
        Subject: C = US, O = Extreme Discord, OU = Chaos, L = Tallahassee, ST = FL, street = 3210 Holly Mill Run, postalCode = 30062, CN = gov.us
        Subject Public Key Info:
            Public Key Algorithm: rsaEncryption
                Public-Key: (512 bit)
                Modulus:
                    00:d8:9a:d0:3b:35:f5:93:e7:83:31:b7:90:01:3c:
                    71:b4:2b:7c:48:c7:d4:9f:10:d4:2d:c5:d7:c3:3f:
                    0d:19:45:64:1a:ba:e2:a6:4b:aa:4b:e2:42:a4:2b:
                    6e:10:91:43:05:c6:86:f0:d6:d2:ff:40:a9:50:77:
                    1d:10:ef:5a:29
                Exponent: 65537 (0x10001)
        X509v3 extensions:
            X509v3 Key Usage: critical
                Digital Signature, Key Encipherment, Certificate Sign
            X509v3 Extended Key Usage: 
                TLS Web Client Authentication, TLS Web Server Authentication
            X509v3 Basic Constraints: critical
                CA:TRUE
            X509v3 Authority Key Identifier: 
                keyid:01:02:03

            Authority Information Access: 
                OCSP - URI:http://theca.net/ocsp
                CA Issuers - URI:http://theca.net/totallythecert.crt

            X509v3 Certificate Policies: 
                Policy: 2.23.140.1.2.2

            X509v3 Name Constraints: 
                Permitted:
                  DNS:example.com

            X509v3 Subject Key Identifier: 
                04:03:02:01
            X509v3 Subject Alternative Name: 
                URI:, DNS:ˬ
            X509v3 Inhibit Any Policy: 
                ..
            Subject Information Access: 
                ..
    Signature Algorithm: sha256WithRSAEncryption
         5b:86:1f:58:b6:cd:8a:87:a0:fd:90:cc:a0:10:c9:39:40:86:
         72:7d:4f:a7:81:22:cb:bf:bd:b4:c2:08:4f:9b:35:43:ce:a1:
         c7:63:4f:3f:fa:26:45:0c:7f:9e:d2:6d:c2:c5:3f:cb:98:01:
         71:04:12:a0:63:dc:3f:d8:ad:d9
-----BEGIN CERTIFICATE-----
MIIDBzCCArOgAwIBAgIFBDFmk+0wCwYJKoZIhvcNAQELMFQxCzAJBgNVBAYTAlVT
MRYwFAYDVQQKEw1Nb3RoZXIgTmF0dXJlMRMwEQYDVQQLEwpFdmVyeXRoaW5nMRYw
FAYDVQQDEw1Nb3RoZXIgTmF0dXJlMQAwHhcNMTQwMTAxMDAwMDAwWhcNMTUwMTAx
MDAwMDAwWjCBmzELMAkGA1UEBhMCVVMxGDAWBgNVBAoTD0V4dHJlbWUgRGlzY29y
ZDEOMAwGA1UECxMFQ2hhb3MxFDASBgNVBAcTC1RhbGxhaGFzc2VlMQswCQYDVQQI
EwJGTDEcMBoGA1UECRMTMzIxMCBIb2xseSBNaWxsIFJ1bjEOMAwGA1UEERMFMzAw
NjIxDzANBgNVBAMTBmdvdi51czEAMFwwDQYJKoZIhvcNAQEBBQADSwAwSAJBANia
0Ds19ZPngzG3kAE8cbQrfEjH1J8Q1C3F18M/DRlFZBq64qZLqkviQqQrbhCRQwXG
hvDW0v9AqVB3HRDvWikCAwEAAaOCASQwggEgMA4GA1UdDwEB/wQEAwIApDAdBgNV
HSUEFjAUBggrBgEFBQcDAgYIKwYBBQUHAwEwDwYDVR0TAQH/BAUwAwEB/zAOBgNV
HSMEBzAFgAMBAgMwYgYIKwYBBQUHAQEEVjBUMCEGCCsGAQUFBzABhhVodHRwOi8v
dGhlY2EubmV0L29jc3AwLwYIKwYBBQUHMAKGI2h0dHA6Ly90aGVjYS5uZXQvdG90
YWxseXRoZWNlcnQuY3J0MBMGA1UdIAQMMAowCAYGZ4EMAQICMBoGA1UdHgQTMBGg
DzANggtleGFtcGxlLmNvbTANBgNVHQ4EBgQEBAMCATAPBgNVHREECDAGhgCCAsCo
MAkGA1UdNgQCAgEwDgYIKwYBBQUHAQsEAgIBMAsGCSqGSIb3DQEBCwNBAFuGH1i2
zYqHoP2QzKAQyTlAhnJ9T6eBIsu/vbTCCE+bNUPOocdjTz/6JkUMf57SbcLFP8uY
AXEEEqBj3D/Yrdk=
-----END CERTIFICATE-----
