Certificate:
    Data:
        Version: 3 (0x2)
        Serial Number: 18008675309 (0x4316693ed)
    Signature Algorithm: sha256WithRSAEncryption
        Issuer: C = US, O = Mother Nature, OU = Everything, CN = Mother Nature
        Validity
            Not Before: Jan  1 00:00:00 2014 GMT
            Not After : Jan  1 00:00:00 2015 GMT
        Subject: C = US, O = Extreme Discord, OU = Chaos, L = Tallahassee, ST = FL, street = 3210 Holly Mill Run, postalCode = 30062, CN = gov.us
        Subject Public Key Info:
            Public Key Algorithm: rsaEncryption
                Public-Key: (512 bit)
                Modulus:
                    00:b5:a0:7b:36:6c:87:27:4f:70:97:1d:d8:33:d6:
                    7b:0d:bd:30:5b:40:6b:96:5b:9f:77:13:ee:1a:c6:
                    56:a4:d5:b2:a1:b6:5c:f8:49:d7:f9:df:9b:b8:ab:
                    33:0e:e1:6d:f4:89:af:68:48:8d:b5:27:e4:1b:ad:
                    2f:4f:47:82:b7
                Exponent: 65537 (0x10001)
        X509v3 extensions:
            X509v3 Key Usage: critical
                Digital Signature, Key Encipherment, Certificate Sign
            X509v3 Extended Key Usage: 
                TLS Web Client Authentication, TLS Web Server Authentication
            X509v3 Basic Constraints: critical
                CA:TRUE
            X509v3 Authority Key Identifier: 
                keyid:01:02:03

            Authority Information Access: 
                OCSP - URI:http://theca.net/ocsp
                CA Issuers - URI:http://theca.net/totallythecert.crt

            X509v3 Certificate Policies: 
                Policy: 2.23.140.1.2.2

            X509v3 Name Constraints: 
                Permitted:
                  IP:192.168.1.1/1.2.3.4

            X509v3 Subject Key Identifier: 
                04:03:02:01
            X509v3 Subject Alternative Name: 
                URI:, DNS:ˬ
            X509v3 Inhibit Any Policy: 
                ..
            Subject Information Access: 
                ..
    Signature Algorithm: sha256WithRSAEncryption
         99:0d:21:e0:ae:a0:fe:90:fb:74:72:c5:7a:87:59:11:d3:50:
         f5:f8:9d:be:ca:92:57:ae:df:55:2c:25:79:5b:e4:8f:0e:ea:
         9a:1a:45:29:13:d6:e6:0e:9c:aa:11:47:f8:86:84:1e:ea:f9:
         b8:d6:dd:6b:74:b7:e5:88:f3:11
-----BEGIN CERTIFICATE-----
MIIDBDCCArCgAwIBAgIFBDFmk+0wCwYJKoZIhvcNAQELMFQxCzAJBgNVBAYTAlVT
MRYwFAYDVQQKEw1Nb3RoZXIgTmF0dXJlMRMwEQYDVQQLEwpFdmVyeXRoaW5nMRYw
FAYDVQQDEw1Nb3RoZXIgTmF0dXJlMQAwHhcNMTQwMTAxMDAwMDAwWhcNMTUwMTAx
MDAwMDAwWjCBmzELMAkGA1UEBhMCVVMxGDAWBgNVBAoTD0V4dHJlbWUgRGlzY29y
ZDEOMAwGA1UECxMFQ2hhb3MxFDASBgNVBAcTC1RhbGxhaGFzc2VlMQswCQYDVQQI
EwJGTDEcMBoGA1UECRMTMzIxMCBIb2xseSBNaWxsIFJ1bjEOMAwGA1UEERMFMzAw
NjIxDzANBgNVBAMTBmdvdi51czEAMFwwDQYJKoZIhvcNAQEBBQADSwAwSAJBALWg
ezZshydPcJcd2DPWew29MFtAa5Zbn3cT7hrGVqTVsqG2XPhJ1/nfm7irMw7hbfSJ
r2hIjbUn5ButL09HgrcCAwEAAaOCASEwggEdMA4GA1UdDwEB/wQEAwIApDAdBgNV
HSUEFjAUBggrBgEFBQcDAgYIKwYBBQUHAwEwDwYDVR0TAQH/BAUwAwEB/zAOBgNV
HSMEBzAFgAMBAgMwYgYIKwYBBQUHAQEEVjBUMCEGCCsGAQUFBzABhhVodHRwOi8v
dGhlY2EubmV0L29jc3AwLwYIKwYBBQUHMAKGI2h0dHA6Ly90aGVjYS5uZXQvdG90
YWxseXRoZWNlcnQuY3J0MBMGA1UdIAQMMAowCAYGZ4EMAQICMBcGA1UdHgQQMA6g
DDAKhwjAqAEBAQIDBDANBgNVHQ4EBgQEBAMCATAPBgNVHREECDAGhgCCAsCoMAkG
A1UdNgQCAgEwDgYIKwYBBQUHAQsEAgIBMAsGCSqGSIb3DQEBCwNBAJkNIeCuoP6Q
+3RyxXqHWRHTUPX4nb7Kkleu31UsJXlb5I8O6poaRSkT1uYOnKoRR/iGhB7q+bjW
3Wt0t+WI8xE=
-----END CERTIFICATE-----
