Certificate:
    Data:
        Version: 3 (0x2)
        Serial Number: 18008675309 (0x4316693ed)
    Signature Algorithm: sha256WithRSAEncryption
        Issuer: C = US, O = Mother Nature, OU = Everything, CN = Mother Nature
        Validity
            Not Before: Jul  5 16:30:12 2016 GMT
            Not After : Sep 17 16:30:12 2016 GMT
        Subject: C = US, O = Extreme Discord, OU = Chaos, L = Tallahassee, ST = FL, street = 3210 Holly Mill Run, postalCode = 30062, CN = gov.us
        Subject Public Key Info:
            Public Key Algorithm: rsaEncryption
                Public-Key: (2048 bit)
                Modulus:
                    00:a2:40:7e:ee:b6:de:93:4b:59:31:37:8b:5f:8c:
                    92:d4:2d:4a:19:b2:12:f4:0d:5e:42:9a:57:63:eb:
                    91:e3:28:80:6e:87:30:53:4b:9e:b7:72:cb:13:51:
                    37:c7:fc:5d:d5:46:35:7e:13:2a:22:3d:2b:17:ac:
                    7f:45:95:80:c0:47:48:83:55:4b:25:49:d0:35:6b:
                    86:52:c2:b8:63:97:07:12:35:1a:87:65:ae:0e:76:
                    71:b2:c4:39:7e:12:10:9c:f5:0f:82:11:f8:12:b6:
                    47:1e:ae:c1:90:fe:c6:9c:75:fe:95:5a:e6:18:5e:
                    60:25:85:8e:1a:67:5c:ba:13:44:4c:84:37:83:72:
                    f9:72:33:21:e1:d1:84:35:92:cc:3a:46:e4:22:67:
                    28:80:02:c5:a4:a8:bc:ca:55:0f:e9:bd:ca:3d:f7:
                    bb:ec:b5:d9:c4:9f:a4:fe:f3:9f:59:46:d8:7a:70:
                    78:c7:20:1f:ce:8b:ee:9e:72:5a:47:8a:fd:6b:37:
                    0d:74:87:04:ac:cd:75:b5:36:20:dd:3f:20:23:fe:
                    81:70:7c:a9:d1:9a:54:64:ad:2d:fe:45:9f:e4:b4:
                    b2:c7:3a:d2:24:05:0f:24:a4:ac:35:15:8e:59:33:
                    d5:d3:15:80:4f:43:e2:3d:84:12:f2:43:f7:a3:8c:
                    5a:5b
                Exponent: 233 (0xe9)
        X509v3 extensions:
            X509v3 Key Usage: critical
                Digital Signature, Key Encipherment
            X509v3 Extended Key Usage: 
                TLS Web Client Authentication, TLS Web Server Authentication
            X509v3 Basic Constraints: critical
                CA:FALSE
            X509v3 Authority Key Identifier: 
                keyid:01:02:03

            Authority Information Access: 
                OCSP - URI:http://theca.net/ocsp
                CA Issuers - URI:http://theca.net/totallythecert.crt

            X509v3 Certificate Policies: 
                Policy: 2.23.140.1.2.2

            X509v3 Subject Key Identifier: 
                04:03:02:01
            X509v3 Subject Alternative Name: 
                DNS:*.gov.us, DNS:gov.us
    Signature Algorithm: sha256WithRSAEncryption
         0e:fb:dc:d7:5d:8f:af:51:e0:5d:aa:b8:22:e8:08:f7:5f:cc:
         17:83:16:74:9d:c1:d5:5f:35:e8:11:d4:34:f2:8e:de:4c:7b:
         05:70:07:17:a8:a5:00:24:c6:db:6b:f6:27:c0:05:91:5f:61:
         46:06:82:0c:d9:31:9a:0b:ed:14:7a:33:c8:3b:6f:83:13:17:
         9b:3c:c9:70:66:bb:bc:a6:72:4b:78:43:e3:f8:6f:1f:27:2d:
         9c:d8:80:7b:87:71:5d:41:ca:62:e2:61:34:36:d5:8f:d2:b8:
         8e:f8:40:09:d6:fa:29:34:99:97:4b:ec:d1:69:1b:b2:49:0c:
         e0:34:23:a2:3e:5f:f9:4e:da:bf:6b:75:ee:6e:fc:1b:75:1c:
         6a:c5:d7:9c:63:75:79:09:bb:7e:7e:ba:20:d3:4b:bc:04:de:
         75:6d:08:ee:76:49:a6:3b:fa:d6:89:af:dc:25:43:2e:e1:46:
         18:80:b5:2c:e3:68:83:f2:d0:0b:1b:e1:30:ae:11:a1:6c:e0:
         64:00:0d:cf:23:1a:31:01:dc:e6:56:57:90:55:bb:d8:fc:76:
         f3:fd:20:bb:91:38:9e:c3:c6:62:7e:1b:87:f3:76:8c:20:60:
         9a:df:90:da:a4:b5:08:f2:51:23:62:1f:5e:e1:c8:ac:62:cf:
         09:25:fd:db
-----BEGIN CERTIFICATE-----
MIIEYDCCA0igAwIBAgIFBDFmk+0wDQYJKoZIhvcNAQELBQAwUjELMAkGA1UEBhMC
VVMxFjAUBgNVBAoTDU1vdGhlciBOYXR1cmUxEzARBgNVBAsTCkV2ZXJ5dGhpbmcx
FjAUBgNVBAMTDU1vdGhlciBOYXR1cmUwHhcNMTYwNzA1MTYzMDEyWhcNMTYwOTE3
MTYzMDEyWjCBmTELMAkGA1UEBhMCVVMxGDAWBgNVBAoTD0V4dHJlbWUgRGlzY29y
ZDEOMAwGA1UECxMFQ2hhb3MxFDASBgNVBAcTC1RhbGxhaGFzc2VlMQswCQYDVQQI
EwJGTDEcMBoGA1UECRMTMzIxMCBIb2xseSBNaWxsIFJ1bjEOMAwGA1UEERMFMzAw
NjIxDzANBgNVBAMTBmdvdi51czCCASEwDQYJKoZIhvcNAQEBBQADggEOADCCAQkC
ggEBAKJAfu623pNLWTE3i1+MktQtShmyEvQNXkKaV2PrkeMogG6HMFNLnrdyyxNR
N8f8XdVGNX4TKiI9Kxesf0WVgMBHSINVSyVJ0DVrhlLCuGOXBxI1Godlrg52cbLE
OX4SEJz1D4IR+BK2Rx6uwZD+xpx1/pVa5hheYCWFjhpnXLoTREyEN4Ny+XIzIeHR
hDWSzDpG5CJnKIACxaSovMpVD+m9yj33u+y12cSfpP7zn1lG2HpweMcgH86L7p5y
WkeK/Ws3DXSHBKzNdbU2IN0/ICP+gXB8qdGaVGStLf5Fn+S0ssc60iQFDySkrDUV
jlkz1dMVgE9D4j2EEvJD96OMWlsCAgDpo4H1MIHyMA4GA1UdDwEB/wQEAwIFoDAd
BgNVHSUEFjAUBggrBgEFBQcDAgYIKwYBBQUHAwEwDAYDVR0TAQH/BAIwADAOBgNV
HSMEBzAFgAMBAgMwYgYIKwYBBQUHAQEEVjBUMCEGCCsGAQUFBzABhhVodHRwOi8v
dGhlY2EubmV0L29jc3AwLwYIKwYBBQUHMAKGI2h0dHA6Ly90aGVjYS5uZXQvdG90
YWxseXRoZWNlcnQuY3J0MBMGA1UdIAQMMAowCAYGZ4EMAQICMA0GA1UdDgQGBAQE
AwIBMBsGA1UdEQQUMBKCCCouZ292LnVzggZnb3YudXMwDQYJKoZIhvcNAQELBQAD
ggEBAA773Nddj69R4F2quCLoCPdfzBeDFnSdwdVfNegR1DTyjt5MewVwBxeopQAk
xttr9ifABZFfYUYGggzZMZoL7RR6M8g7b4MTF5s8yXBmu7ymckt4Q+P4bx8nLZzY
gHuHcV1BymLiYTQ21Y/SuI74QAnW+ik0mZdL7NFpG7JJDOA0I6I+X/lO2r9rde5u
/Bt1HGrF15xjdXkJu35+uiDTS7wE3nVtCO52SaY7+taJr9wlQy7hRhiAtSzjaIPy
0Asb4TCuEaFs4GQADc8jGjEB3OZWV5BVu9j8dvP9ILuROJ7DxmJ+G4fzdowgYJrf
kNqktQjyUSNiH17hyKxizwkl/ds=
-----END CERTIFICATE-----
