Certificate:
    Data:
        Version: 3 (0x2)
        Serial Number: 18008675309 (0x4316693ed)
    Signature Algorithm: sha256WithRSAEncryption
        Issuer: C = US, O = Mother Nature, OU = Everything, CN = Mother Nature
        Validity
            Not Before: Jul  1 16:33:36 2016 GMT
            Not After : Sep 13 16:33:36 2016 GMT
        Subject: C = US, O = Extreme Discord, OU = Chaos, L = Tallahassee, ST = FL, street = 3210 Holly Mill Run, postalCode = 30062, CN = gov.us
        Subject Public Key Info:
            Public Key Algorithm: rsaEncryption
                Public-Key: (2048 bit)
                Modulus:
                    00:ba:a8:6d:fa:50:16:ba:ec:8f:d1:2f:77:ef:90:
                    ca:53:0f:76:8a:4e:8c:35:d3:80:9d:84:36:6f:26:
                    f7:ed:e8:0e:99:20:29:8e:6d:a8:e5:9b:e2:08:cd:
                    8a:59:62:c0:d0:63:c8:49:92:7b:a3:e8:44:8e:cb:
                    be:41:e8:dc:c6:dc:c6:e1:25:f7:08:47:42:03:42:
                    3d:e3:16:cd:31:4d:ab:9f:f1:f3:dc:6a:aa:f8:fd:
                    70:b9:27:f4:3e:6b:2e:23:c3:89:d0:d7:6b:1a:d3:
                    86:93:d6:3a:5e:6f:cd:1c:c6:16:77:c3:48:16:98:
                    9b:06:77:2b:7a:cf:4b:a6:18:b4:33:5c:91:5d:99:
                    63:6c:29:1e:96:60:99:b4:35:90:a5:33:04:91:13:
                    80:93:85:81:4c:56:24:41:c4:8b:80:80:80:78:0a:
                    c0:a7:f9:f2:e1:d4:10:fe:92:fd:75:b5:2e:b3:ba:
                    c6:98:31:be:19:55:ce:ba:59:fc:fa:92:6f:59:28:
                    46:db:20:ce:5f:d6:91:86:4f:9a:66:84:25:04:ca:
                    03:6f:fb:41:7f:6d:90:e0:f0:28:87:85:fa:7c:61:
                    c7:60:a3:73:69:91:5c:86:53:17:1a:fb:8c:10:61:
                    49:38:67:c7:6a:08:3e:bb:ca:10:06:58:35:a9:11:
                    98:d9
                Exponent: 65537 (0x10001)
        X509v3 extensions:
            X509v3 Key Usage: critical
                Digital Signature, Key Encipherment
            X509v3 Extended Key Usage: 
                TLS Web Client Authentication, TLS Web Server Authentication
            X509v3 Basic Constraints: critical
                CA:FALSE
            X509v3 Authority Key Identifier: 
                keyid:01:02:03

            Authority Information Access: 
                OCSP - URI:http://theca.net/ocsp
                CA Issuers - URI:http://theca.net/totallythecert.crt

            X509v3 Certificate Policies: 
                Policy: 2.23.140.1.2.2

            X509v3 Subject Key Identifier: 
                04:03:02:01
            X509v3 Subject Alternative Name: 
                DNS:*.gov.us, DNS:gov.us
    Signature Algorithm: sha256WithRSAEncryption
         1b:2b:77:45:e0:03:f5:65:21:8e:39:08:5d:1e:08:53:35:e8:
         a2:9b:d8:07:4e:3e:2f:f1:25:26:9d:d9:dc:c2:56:dc:0b:b2:
         d2:bd:48:29:51:f8:2e:31:e2:3f:a7:bb:93:ee:39:95:ac:8f:
         69:3c:35:41:bc:ca:c8:9a:87:a7:d5:5f:0d:b3:6b:62:2d:78:
         87:0f:e1:a8:ac:c5:55:5f:c7:66:27:8a:99:2f:7f:f0:2f:1d:
         12:aa:20:fd:b1:1f:7f:05:01:12:3a:aa:2d:e2:9c:c6:40:f7:
         05:0d:b3:03:29:93:ce:4b:77:b8:b7:ef:d4:4c:a1:c4:64:d8:
         8f:a1:73:ae:fb:d2:5a:46:3d:46:31:2e:04:f0:65:b0:2d:a3:
         fb:40:d4:36:22:3b:02:b9:cb:3a:dd:4c:1b:04:e1:0d:ac:e0:
         5b:7d:2e:84:3c:24:f4:96:90:4c:5f:21:99:4a:64:99:f0:a7:
         7f:e5:e3:6c:17:e2:9d:de:b6:4d:48:26:28:f3:3b:1d:5d:4f:
         57:e9:c6:6f:2d:ae:10:b2:e2:1f:36:77:87:e0:63:ec:e7:20:
         30:ca:a6:e6:bf:42:82:b4:da:2c:86:18:fe:0d:4e:0e:da:58:
         94:e2:da:22:f7:cd:70:8f:6d:29:e5:31:be:f1:c5:b6:05:47:
         11:5a:c0:0e
-----BEGIN CERTIFICATE-----
MIIEYTCCA0mgAwIBAgIFBDFmk+0wDQYJKoZIhvcNAQELBQAwUjELMAkGA1UEBhMC
VVMxFjAUBgNVBAoTDU1vdGhlciBOYXR1cmUxEzARBgNVBAsTCkV2ZXJ5dGhpbmcx
FjAUBgNVBAMTDU1vdGhlciBOYXR1cmUwHhcNMTYwNzAxMTYzMzM2WhcNMTYwOTEz
MTYzMzM2WjCBmTELMAkGA1UEBhMCVVMxGDAWBgNVBAoTD0V4dHJlbWUgRGlzY29y
ZDEOMAwGA1UECxMFQ2hhb3MxFDASBgNVBAcTC1RhbGxhaGFzc2VlMQswCQYDVQQI
EwJGTDEcMBoGA1UECRMTMzIxMCBIb2xseSBNaWxsIFJ1bjEOMAwGA1UEERMFMzAw
NjIxDzANBgNVBAMTBmdvdi51czCCASIwDQYJKoZIhvcNAQEBBQADggEPADCCAQoC
ggEBALqobfpQFrrsj9Evd++QylMPdopOjDXTgJ2ENm8m9+3oDpkgKY5tqOWb4gjN
illiwNBjyEmSe6PoRI7LvkHo3MbcxuEl9whHQgNCPeMWzTFNq5/x89xqqvj9cLkn
9D5rLiPDidDXaxrThpPWOl5vzRzGFnfDSBaYmwZ3K3rPS6YYtDNckV2ZY2wpHpZg
mbQ1kKUzBJETgJOFgUxWJEHEi4CAgHgKwKf58uHUEP6S/XW1LrO6xpgxvhlVzrpZ
/PqSb1koRtsgzl/WkYZPmmaEJQTKA2/7QX9tkODwKIeF+nxhx2Cjc2mRXIZTFxr7
jBBhSThnx2oIPrvKEAZYNakRmNkCAwEAAaOB9TCB8jAOBgNVHQ8BAf8EBAMCBaAw
HQYDVR0lBBYwFAYIKwYBBQUHAwIGCCsGAQUFBwMBMAwGA1UdEwEB/wQCMAAwDgYD
VR0jBAcwBYADAQIDMGIGCCsGAQUFBwEBBFYwVDAhBggrBgEFBQcwAYYVaHR0cDov
L3RoZWNhLm5ldC9vY3NwMC8GCCsGAQUFBzAChiNodHRwOi8vdGhlY2EubmV0L3Rv
dGFsbHl0aGVjZXJ0LmNydDATBgNVHSAEDDAKMAgGBmeBDAECAjANBgNVHQ4EBgQE
BAMCATAbBgNVHREEFDASgggqLmdvdi51c4IGZ292LnVzMA0GCSqGSIb3DQEBCwUA
A4IBAQAbK3dF4AP1ZSGOOQhdHghTNeiim9gHTj4v8SUmndncwlbcC7LSvUgpUfgu
MeI/p7uT7jmVrI9pPDVBvMrImoen1V8Ns2tiLXiHD+GorMVVX8dmJ4qZL3/wLx0S
qiD9sR9/BQESOqot4pzGQPcFDbMDKZPOS3e4t+/UTKHEZNiPoXOu+9JaRj1GMS4E
8GWwLaP7QNQ2IjsCucs63UwbBOENrOBbfS6EPCT0lpBMXyGZSmSZ8Kd/5eNsF+Kd
3rZNSCYo8zsdXU9X6cZvLa4QsuIfNneH4GPs5yAwyqbmv0KCtNoshhj+DU4O2liU
4toi981wj20p5TG+8cW2BUcRWsAO
-----END CERTIFICATE-----
