Certificate:
    Data:
        Version: 3 (0x2)
        Serial Number: 18008675309 (0x4316693ed)
    Signature Algorithm: sha256WithRSAEncryption
        Issuer: C = US, O = Mother Nature, OU = Everything, CN = Mother Nature
        Validity
            Not Before: Dec 31 00:00:00 2010 GMT
            Not After : Sep 19 15:42:38 2016 GMT
        Subject: C = US, O = Mother Nature, OU = Everything, CN = Mother Nature
        Subject Public Key Info:
            Public Key Algorithm: rsaEncryption
                Public-Key: (2048 bit)
                Modulus:
                    00:e9:a9:b7:ef:26:e9:ac:31:4b:da:2d:cd:76:8c:
                    da:b6:5c:71:55:7d:ab:20:47:cb:23:24:f9:15:3d:
                    4e:a7:13:6e:67:bf:b5:e3:5b:e1:fc:45:fe:4a:6d:
                    ef:3a:78:43:a7:2e:bd:a8:dd:9c:89:f1:4c:54:3b:
                    4e:c3:74:92:29:ca:cd:45:6f:d9:b4:4a:97:b2:90:
                    a3:2e:c2:e7:44:8c:19:4d:38:58:f7:ef:7c:f6:cf:
                    8d:d9:e9:ce:30:39:f4:c1:53:37:29:a3:47:32:0b:
                    8a:43:8c:7e:ab:e7:ae:2a:2b:5b:27:09:2c:c0:c8:
                    42:62:04:25:1e:d1:be:f2:ed:97:b3:eb:d0:2a:06:
                    4a:0b:b6:ba:c0:24:94:8b:9b:0c:4d:2d:d5:26:08:
                    c9:66:0e:54:d2:5d:2e:40:0b:e8:c8:40:6a:4f:62:
                    94:12:7d:2e:0c:6c:6e:ff:e9:84:2d:34:ac:59:0d:
                    18:d2:ba:e8:a4:2e:d4:fe:41:91:3a:68:a9:82:d8:
                    21:38:b9:57:40:3a:d0:40:a1:8c:a3:03:fc:fb:b9:
                    7f:30:0b:bd:9b:e5:5d:ce:fb:0a:43:ee:fb:71:ca:
                    ca:e8:d1:d6:d4:e4:2d:3e:4f:5e:7a:45:dc:3e:4c:
                    e7:d1:19:7d:41:a4:90:a9:bf:84:ab:9a:b2:33:11:
                    04:07
                Exponent: 65537 (0x10001)
        X509v3 extensions:
            X509v3 Key Usage: critical
                Digital Signature, Key Encipherment
            X509v3 Extended Key Usage: 
                TLS Web Client Authentication, TLS Web Server Authentication
            X509v3 Basic Constraints: critical
                CA:TRUE
            X509v3 Authority Key Identifier: 
                keyid:01:02:03

            Authority Information Access: 
                OCSP - URI:http://theca.net/ocsp
                CA Issuers - URI:http://theca.net/totallythecert.crt

            X509v3 Certificate Policies: 
                Policy: 2.23.140.1.2.2

            X509v3 Subject Key Identifier: 
                04:03:02:01
            X509v3 Subject Alternative Name: 
                DNS:*.gov.us, DNS:gov.us
    Signature Algorithm: sha256WithRSAEncryption
         da:0f:6b:12:f8:28:33:11:0c:ac:5a:6b:98:37:ae:fd:97:a8:
         45:7b:7a:69:a1:c4:5e:fa:e3:2c:10:6c:07:2a:1d:90:61:71:
         65:cc:a5:23:9d:40:45:7e:f4:91:f5:2f:3c:a7:08:2d:90:22:
         43:8d:47:45:6e:a6:a6:0d:4c:a6:31:35:a1:88:ac:2f:9f:fd:
         b8:02:7e:79:a3:0a:76:3e:55:69:52:58:61:3e:85:6e:43:75:
         49:e8:21:11:57:99:24:49:93:da:d6:fb:03:44:59:ab:2b:1a:
         ad:b9:6c:e9:59:9c:0b:e8:fc:e4:ff:79:14:35:17:46:3e:2a:
         cb:5f:49:4f:c2:3b:f4:b1:9c:fe:5d:64:98:f5:0a:fe:4c:b5:
         d0:1f:1f:f4:b6:c3:38:fa:56:6d:32:2f:0d:af:39:4a:c9:64:
         3e:82:62:de:d9:35:4a:b0:b0:5b:e6:ba:86:01:a2:2c:82:75:
         c6:3c:21:eb:e5:f9:71:4b:b1:ee:4e:55:6e:e3:41:19:ec:4e:
         19:35:0c:34:a0:0f:0c:ce:a1:62:92:70:fc:4d:a7:2f:b5:cc:
         f0:ac:a5:29:17:48:5b:a2:64:79:db:9c:9b:c2:f4:5e:77:9a:
         00:2d:da:66:27:89:b2:d9:92:56:37:0d:2e:33:f2:0c:e6:e2:
         36:4e:b0:8f
-----BEGIN CERTIFICATE-----
MIIEHDCCAwSgAwIBAgIFBDFmk+0wDQYJKoZIhvcNAQELBQAwUjELMAkGA1UEBhMC
VVMxFjAUBgNVBAoTDU1vdGhlciBOYXR1cmUxEzARBgNVBAsTCkV2ZXJ5dGhpbmcx
FjAUBgNVBAMTDU1vdGhlciBOYXR1cmUwHhcNMTAxMjMxMDAwMDAwWhcNMTYwOTE5
MTU0MjM4WjBSMQswCQYDVQQGEwJVUzEWMBQGA1UEChMNTW90aGVyIE5hdHVyZTET
MBEGA1UECxMKRXZlcnl0aGluZzEWMBQGA1UEAxMNTW90aGVyIE5hdHVyZTCCASIw
DQYJKoZIhvcNAQEBBQADggEPADCCAQoCggEBAOmpt+8m6awxS9otzXaM2rZccVV9
qyBHyyMk+RU9TqcTbme/teNb4fxF/kpt7zp4Q6cuvajdnInxTFQ7TsN0kinKzUVv
2bRKl7KQoy7C50SMGU04WPfvfPbPjdnpzjA59MFTNymjRzILikOMfqvnriorWycJ
LMDIQmIEJR7RvvLtl7Pr0CoGSgu2usAklIubDE0t1SYIyWYOVNJdLkAL6MhAak9i
lBJ9Lgxsbv/phC00rFkNGNK66KQu1P5BkTpoqYLYITi5V0A60EChjKMD/Pu5fzAL
vZvlXc77CkPu+3HKyujR1tTkLT5PXnpF3D5M59EZfUGkkKm/hKuasjMRBAcCAwEA
AaOB+DCB9TAOBgNVHQ8BAf8EBAMCBaAwHQYDVR0lBBYwFAYIKwYBBQUHAwIGCCsG
AQUFBwMBMA8GA1UdEwEB/wQFMAMBAf8wDgYDVR0jBAcwBYADAQIDMGIGCCsGAQUF
BwEBBFYwVDAhBggrBgEFBQcwAYYVaHR0cDovL3RoZWNhLm5ldC9vY3NwMC8GCCsG
AQUFBzAChiNodHRwOi8vdGhlY2EubmV0L3RvdGFsbHl0aGVjZXJ0LmNydDATBgNV
HSAEDDAKMAgGBmeBDAECAjANBgNVHQ4EBgQEBAMCATAbBgNVHREEFDASgggqLmdv
di51c4IGZ292LnVzMA0GCSqGSIb3DQEBCwUAA4IBAQDaD2sS+CgzEQysWmuYN679
l6hFe3ppocRe+uMsEGwHKh2QYXFlzKUjnUBFfvSR9S88pwgtkCJDjUdFbqamDUym
MTWhiKwvn/24An55owp2PlVpUlhhPoVuQ3VJ6CERV5kkSZPa1vsDRFmrKxqtuWzp
WZwL6Pzk/3kUNRdGPirLX0lPwjv0sZz+XWSY9Qr+TLXQHx/0tsM4+lZtMi8NrzlK
yWQ+gmLe2TVKsLBb5rqGAaIsgnXGPCHr5flxS7HuTlVu40EZ7E4ZNQw0oA8MzqFi
knD8TacvtczwrKUpF0hbomR525ybwvRed5oALdpmJ4my2ZJWNw0uM/IM5uI2TrCP
-----END CERTIFICATE-----
