Certificate:
    Data:
        Version: 3 (0x2)
        Serial Number: 18008675309 (0x4316693ed)
    Signature Algorithm: sha256WithRSAEncryption
        Issuer: C = US, O = Mother Nature, OU = Everything, CN = Mother Nature
        Validity
            Not Before: Dec 31 00:00:00 2010 GMT
            Not After : Sep 19 15:32:06 2016 GMT
        Subject: C = US, O = Mother Nature, OU = Everything, CN = Mother Nature
        Subject Public Key Info:
            Public Key Algorithm: rsaEncryption
                Public-Key: (1024 bit)
                Modulus:
                    00:c1:b2:82:b1:62:62:53:39:a6:0d:5f:a0:2f:20:
                    f9:63:76:0c:2d:0a:26:97:5c:54:b5:a0:fb:24:39:
                    e7:8b:06:50:5e:ab:5e:25:a8:73:09:2d:06:5b:3c:
                    ad:07:aa:7a:60:66:3a:30:d3:5e:9a:d6:c9:29:3a:
                    82:cb:c2:36:4c:bd:83:10:29:79:3c:10:d3:cd:86:
                    f3:0d:ea:90:76:6b:30:37:b4:07:c7:32:a8:7b:97:
                    f9:cc:fd:29:2f:62:1b:44:38:30:d6:31:d4:f8:2b:
                    12:d6:7e:fb:4b:5a:5f:e8:59:59:c6:bd:60:a4:88:
                    6f:aa:08:58:45:b9:1c:a4:b9
                Exponent: 65537 (0x10001)
        X509v3 extensions:
            X509v3 Key Usage: critical
                Digital Signature, Key Encipherment
            X509v3 Extended Key Usage: 
                TLS Web Client Authentication, TLS Web Server Authentication
            X509v3 Basic Constraints: critical
                CA:TRUE
            X509v3 Authority Key Identifier: 
                keyid:01:02:03

            Authority Information Access: 
                OCSP - URI:http://theca.net/ocsp
                CA Issuers - URI:http://theca.net/totallythecert.crt

            X509v3 Certificate Policies: 
                Policy: 2.23.140.1.2.2

            X509v3 Subject Key Identifier: 
                04:03:02:01
            X509v3 Subject Alternative Name: 
                DNS:*.gov.us, DNS:gov.us
    Signature Algorithm: sha256WithRSAEncryption
         6d:32:5d:57:93:a9:07:1d:c3:90:c3:e9:e8:b7:9a:ab:39:40:
         29:07:79:dc:e3:38:05:5f:64:ce:3f:5f:a5:f9:65:7a:c1:78:
         bb:1f:1a:ee:76:5e:7c:57:bd:44:c1:af:7f:98:87:be:a4:b7:
         4b:43:1e:c6:6f:ac:19:c6:e6:f6:c0:2f:40:b5:27:16:59:60:
         1d:c6:d2:2d:7a:b7:09:33:85:d1:d8:90:22:e3:ff:41:76:71:
         e0:32:ff:bd:86:6f:df:48:57:7e:53:81:8d:89:2d:e0:05:ad:
         e4:1c:8f:16:2b:ee:50:d5:b7:f2:0a:06:1d:ba:31:e8:c2:ea:
         69:86
-----BEGIN CERTIFICATE-----
MIIDFzCCAoCgAwIBAgIFBDFmk+0wDQYJKoZIhvcNAQELBQAwUjELMAkGA1UEBhMC
VVMxFjAUBgNVBAoTDU1vdGhlciBOYXR1cmUxEzARBgNVBAsTCkV2ZXJ5dGhpbmcx
FjAUBgNVBAMTDU1vdGhlciBOYXR1cmUwHhcNMTAxMjMxMDAwMDAwWhcNMTYwOTE5
MTUzMjA2WjBSMQswCQYDVQQGEwJVUzEWMBQGA1UEChMNTW90aGVyIE5hdHVyZTET
MBEGA1UECxMKRXZlcnl0aGluZzEWMBQGA1UEAxMNTW90aGVyIE5hdHVyZTCBnzAN
BgkqhkiG9w0BAQEFAAOBjQAwgYkCgYEAwbKCsWJiUzmmDV+gLyD5Y3YMLQoml1xU
taD7JDnniwZQXqteJahzCS0GWzytB6p6YGY6MNNemtbJKTqCy8I2TL2DECl5PBDT
zYbzDeqQdmswN7QHxzKoe5f5zP0pL2IbRDgw1jHU+CsS1n77S1pf6FlZxr1gpIhv
qghYRbkcpLkCAwEAAaOB+DCB9TAOBgNVHQ8BAf8EBAMCBaAwHQYDVR0lBBYwFAYI
KwYBBQUHAwIGCCsGAQUFBwMBMA8GA1UdEwEB/wQFMAMBAf8wDgYDVR0jBAcwBYAD
AQIDMGIGCCsGAQUFBwEBBFYwVDAhBggrBgEFBQcwAYYVaHR0cDovL3RoZWNhLm5l
dC9vY3NwMC8GCCsGAQUFBzAChiNodHRwOi8vdGhlY2EubmV0L3RvdGFsbHl0aGVj
ZXJ0LmNydDATBgNVHSAEDDAKMAgGBmeBDAECAjANBgNVHQ4EBgQEBAMCATAbBgNV
HREEFDASgggqLmdvdi51c4IGZ292LnVzMA0GCSqGSIb3DQEBCwUAA4GBAG0yXVeT
qQcdw5DD6ei3mqs5QCkHedzjOAVfZM4/X6X5ZXrBeLsfGu52XnxXvUTBr3+Yh76k
t0tDHsZvrBnG5vbAL0C1JxZZYB3G0i16twkzhdHYkCLj/0F2ceAy/72Gb99IV35T
gY2JLeAFreQcjxYr7lDVt/IKBh26MejC6mmG
-----END CERTIFICATE-----
