Certificate:
    Data:
        Version: 3 (0x2)
        Serial Number: 18008675309 (0x4316693ed)
    Signature Algorithm: sha256WithRSAEncryption
        Issuer: C = US, O = Mother Nature, OU = Everything, CN = Mother Nature
        Validity
            Not Before: Jan  1 00:00:00 2010 GMT
            Not After : Jan  1 00:00:00 2013 GMT
        Subject: C = US, O = Extreme Discord, OU = Chaos, L = Tallahassee, ST = FL, street = 3210 Holly Mill Run, postalCode = 30062, CN = gov.us
        Subject Public Key Info:
            Public Key Algorithm: rsaEncryption
                Public-Key: (1024 bit)
                Modulus:
                    00:a2:8e:c4:ce:ff:11:62:7d:c4:63:34:34:f1:0f:
                    2f:5b:ed:3d:e4:49:45:75:78:60:16:63:7a:15:29:
                    82:23:55:b8:1d:cc:1c:93:4b:34:29:ff:ef:6a:47:
                    9e:6f:e3:08:ab:f4:16:fd:ae:bd:a6:21:da:f3:65:
                    a1:da:17:88:c2:cc:1c:fc:e6:41:11:87:f3:06:73:
                    29:e6:b1:c5:d4:cd:7f:f6:01:29:79:76:f6:c2:eb:
                    cf:fa:19:eb:f2:c2:7a:7e:a8:c9:82:6e:a7:fd:6b:
                    9e:cc:64:a9:63:b8:10:83:b3:c1:70:4c:6a:de:1f:
                    a6:d2:18:91:a3:71:19:fb:f5
                Exponent: 65537 (0x10001)
        X509v3 extensions:
            X509v3 Key Usage: critical
                Digital Signature, Key Encipherment
            X509v3 Extended Key Usage: 
                TLS Web Client Authentication, TLS Web Server Authentication
            X509v3 Basic Constraints: critical
                CA:TRUE
            X509v3 Authority Key Identifier: 
                keyid:01:02:03

            Authority Information Access: 
                OCSP - URI:http://theca.net/ocsp
                CA Issuers - URI:http://theca.net/totallythecert.crt

            X509v3 Certificate Policies: 
                Policy: 2.23.140.1.2.2

            X509v3 Subject Key Identifier: 
                04:03:02:01
            X509v3 Subject Alternative Name: 
                DNS:*.gov.us, DNS:gov.us
    Signature Algorithm: sha256WithRSAEncryption
         7a:05:fa:08:d5:ef:61:c7:37:9f:0f:77:fe:25:aa:4d:66:84:
         7b:50:04:46:56:77:89:39:a6:c9:59:79:f0:e7:f1:a4:df:6e:
         e7:44:dc:b1:54:a6:9f:cf:fd:24:3d:69:66:38:63:ed:2b:55:
         4c:ac:7a:20:5f:dd:9e:77:7f:09:03:19:4f:72:f1:47:85:9d:
         46:4f:89:c1:81:27:e8:1c:da:4d:70:01:92:3c:30:d6:59:ae:
         67:10:93:95:56:a5:4c:3c:8d:af:2a:85:6c:0e:b0:3f:b4:36:
         a6:93:4a:68:71:9f:b0:1f:01:3d:94:ef:29:6d:d0:ab:c2:02:
         3c:9d
-----BEGIN CERTIFICATE-----
MIIDXzCCAsigAwIBAgIFBDFmk+0wDQYJKoZIhvcNAQELBQAwUjELMAkGA1UEBhMC
VVMxFjAUBgNVBAoTDU1vdGhlciBOYXR1cmUxEzARBgNVBAsTCkV2ZXJ5dGhpbmcx
FjAUBgNVBAMTDU1vdGhlciBOYXR1cmUwHhcNMTAwMTAxMDAwMDAwWhcNMTMwMTAx
MDAwMDAwWjCBmTELMAkGA1UEBhMCVVMxGDAWBgNVBAoTD0V4dHJlbWUgRGlzY29y
ZDEOMAwGA1UECxMFQ2hhb3MxFDASBgNVBAcTC1RhbGxhaGFzc2VlMQswCQYDVQQI
EwJGTDEcMBoGA1UECRMTMzIxMCBIb2xseSBNaWxsIFJ1bjEOMAwGA1UEERMFMzAw
NjIxDzANBgNVBAMTBmdvdi51czCBnzANBgkqhkiG9w0BAQEFAAOBjQAwgYkCgYEA
oo7Ezv8RYn3EYzQ08Q8vW+095ElFdXhgFmN6FSmCI1W4Hcwck0s0Kf/vakeeb+MI
q/QW/a69piHa82Wh2heIwswc/OZBEYfzBnMp5rHF1M1/9gEpeXb2wuvP+hnr8sJ6
fqjJgm6n/WuezGSpY7gQg7PBcExq3h+m0hiRo3EZ+/UCAwEAAaOB+DCB9TAOBgNV
HQ8BAf8EBAMCBaAwHQYDVR0lBBYwFAYIKwYBBQUHAwIGCCsGAQUFBwMBMA8GA1Ud
EwEB/wQFMAMBAf8wDgYDVR0jBAcwBYADAQIDMGIGCCsGAQUFBwEBBFYwVDAhBggr
BgEFBQcwAYYVaHR0cDovL3RoZWNhLm5ldC9vY3NwMC8GCCsGAQUFBzAChiNodHRw
Oi8vdGhlY2EubmV0L3RvdGFsbHl0aGVjZXJ0LmNydDATBgNVHSAEDDAKMAgGBmeB
DAECAjANBgNVHQ4EBgQEBAMCATAbBgNVHREEFDASgggqLmdvdi51c4IGZ292LnVz
MA0GCSqGSIb3DQEBCwUAA4GBAHoF+gjV72HHN58Pd/4lqk1mhHtQBEZWd4k5pslZ
efDn8aTfbudE3LFUpp/P/SQ9aWY4Y+0rVUyseiBf3Z53fwkDGU9y8UeFnUZPicGB
J+gc2k1wAZI8MNZZrmcQk5VWpUw8ja8qhWwOsD+0NqaTSmhxn7AfAT2U7ylt0KvC
Ajyd
-----END CERTIFICATE-----
