Certificate:
    Data:
        Version: 3 (0x2)
        Serial Number: 18008675309 (0x4316693ed)
    Signature Algorithm: sha256WithRSAEncryption
        Issuer: C = US, O = Mother Nature, OU = Everything, CN = Mother Nature
        Validity
            Not Before: Dec 31 00:00:00 2010 GMT
            Not After : Jan  1 00:00:00 2013 GMT
        Subject: C = US, O = Extreme Discord, OU = Chaos, L = Tallahassee, ST = FL, street = 3210 Holly Mill Run, postalCode = 30062, CN = gov.us
        Subject Public Key Info:
            Public Key Algorithm: rsaEncryption
                Public-Key: (512 bit)
                Modulus:
                    00:f0:46:23:b6:aa:fc:62:8c:43:35:55:37:bd:c0:
                    6e:0a:b4:34:f1:ad:b6:df:9b:4f:ba:ff:68:08:f1:
                    e6:28:4f:e2:c4:e6:c8:7e:f5:9e:43:3a:b0:27:fb:
                    6c:bd:26:56:2b:d9:21:74:4c:8d:a6:49:89:97:ae:
                    02:80:1b:21:91
                Exponent: 65537 (0x10001)
        X509v3 extensions:
            X509v3 Key Usage: critical
                Digital Signature, Key Encipherment
            X509v3 Extended Key Usage: 
                TLS Web Client Authentication, TLS Web Server Authentication
            X509v3 Basic Constraints: critical
                CA:FALSE
            X509v3 Authority Key Identifier: 
                keyid:01:02:03

            Authority Information Access: 
                OCSP - URI:http://theca.net/ocsp
                CA Issuers - URI:http://theca.net/totallythecert.crt

            X509v3 Certificate Policies: 
                Policy: 2.23.140.1.2.2

            X509v3 Subject Key Identifier: 
                04:03:02:01
            X509v3 Subject Alternative Name: 
                DNS:*.gov.us, DNS:gov.us
    Signature Algorithm: sha256WithRSAEncryption
         03:79:a6:47:51:dd:67:e3:64:87:46:27:34:0c:01:38:4c:f9:
         40:d2:07:94:31:ea:32:bc:26:94:40:c7:fa:1a:f4:2e:e5:6f:
         de:1e:35:af:fa:f3:63:55:90:4a:82:ca:e8:9c:ac:b7:26:f9:
         24:52:8c:6e:79:90:90:9c:2a:d2
-----BEGIN CERTIFICATE-----
MIIC1zCCAoGgAwIBAgIFBDFmk+0wDQYJKoZIhvcNAQELBQAwUjELMAkGA1UEBhMC
VVMxFjAUBgNVBAoTDU1vdGhlciBOYXR1cmUxEzARBgNVBAsTCkV2ZXJ5dGhpbmcx
FjAUBgNVBAMTDU1vdGhlciBOYXR1cmUwHhcNMTAxMjMxMDAwMDAwWhcNMTMwMTAx
MDAwMDAwWjCBmTELMAkGA1UEBhMCVVMxGDAWBgNVBAoTD0V4dHJlbWUgRGlzY29y
ZDEOMAwGA1UECxMFQ2hhb3MxFDASBgNVBAcTC1RhbGxhaGFzc2VlMQswCQYDVQQI
EwJGTDEcMBoGA1UECRMTMzIxMCBIb2xseSBNaWxsIFJ1bjEOMAwGA1UEERMFMzAw
NjIxDzANBgNVBAMTBmdvdi51czBcMA0GCSqGSIb3DQEBAQUAA0sAMEgCQQDwRiO2
qvxijEM1VTe9wG4KtDTxrbbfm0+6/2gI8eYoT+LE5sh+9Z5DOrAn+2y9JlYr2SF0
TI2mSYmXrgKAGyGRAgMBAAGjgfUwgfIwDgYDVR0PAQH/BAQDAgWgMB0GA1UdJQQW
MBQGCCsGAQUFBwMCBggrBgEFBQcDATAMBgNVHRMBAf8EAjAAMA4GA1UdIwQHMAWA
AwECAzBiBggrBgEFBQcBAQRWMFQwIQYIKwYBBQUHMAGGFWh0dHA6Ly90aGVjYS5u
ZXQvb2NzcDAvBggrBgEFBQcwAoYjaHR0cDovL3RoZWNhLm5ldC90b3RhbGx5dGhl
Y2VydC5jcnQwEwYDVR0gBAwwCjAIBgZngQwBAgIwDQYDVR0OBAYEBAQDAgEwGwYD
VR0RBBQwEoIIKi5nb3YudXOCBmdvdi51czANBgkqhkiG9w0BAQsFAANBAAN5pkdR
3WfjZIdGJzQMAThM+UDSB5Qx6jK8JpRAx/oa9C7lb94eNa/682NVkEqCyuicrLcm
+SRSjG55kJCcKtI=
-----END CERTIFICATE-----
