Certificate:
    Data:
        Version: 3 (0x2)
        Serial Number: 18008675309 (0x4316693ed)
    Signature Algorithm: sha256WithRSAEncryption
        Issuer: C = US, O = Mother Nature, OU = Everything, CN = Mother Nature
        Validity
            Not Before: Jun 30 19:17:10 2016 GMT
            Not After : Sep 11 19:17:10 2016 GMT
        Subject: O = Extreme Discord, OU = Chaos, L = Tallahassee, ST = FL, street = 3210 Holly Mill Run, postalCode = 30062, CN = gov.us
        Subject Public Key Info:
            Public Key Algorithm: rsaEncryption
                Public-Key: (2048 bit)
                Modulus:
                    00:c2:bb:01:01:32:ba:1a:78:84:c1:3a:1f:b9:22:
                    ce:fc:6a:fc:97:fb:53:32:25:4b:38:e0:3d:74:32:
                    9d:8b:18:9f:13:3f:0e:1c:94:6c:b3:81:e3:14:2b:
                    21:bc:28:1c:4e:ae:fa:76:8b:ac:84:e2:87:bf:e4:
                    5e:38:8d:d7:58:37:e4:99:bf:ba:c9:f8:d6:26:ff:
                    00:6a:27:0c:c5:26:34:16:69:bc:f0:1d:c8:58:52:
                    7b:34:d2:71:a2:b2:b5:cb:41:dd:9a:1b:5e:72:44:
                    7e:d4:1e:b6:7b:06:bb:2d:e9:3f:3f:ee:ab:c0:f1:
                    78:08:bf:1f:80:3e:ba:c8:57:c9:ad:fa:2b:39:04:
                    92:d0:6f:d5:96:d0:77:06:66:cf:22:66:33:22:8f:
                    19:3f:a8:67:cf:08:a0:a6:e6:19:96:1c:e0:71:0f:
                    c1:68:0f:26:2e:d7:9f:93:33:81:a4:51:3c:06:a8:
                    7a:4a:f1:64:af:3d:34:a1:40:c9:6a:3f:b4:c5:46:
                    bc:ce:12:76:96:29:af:0e:31:fa:85:45:8a:67:03:
                    68:dd:74:02:03:5c:6a:52:78:1c:43:f4:48:bf:be:
                    ec:8b:dc:52:17:a1:97:88:9b:f8:ff:a3:48:6b:dc:
                    8f:f9:fb:27:75:aa:9a:53:96:e6:9a:ab:85:dd:d9:
                    a5:f5
                Exponent: 65537 (0x10001)
        X509v3 extensions:
            X509v3 Key Usage: critical
                Digital Signature, Key Encipherment
            X509v3 Extended Key Usage: 
                TLS Web Client Authentication, TLS Web Server Authentication
            X509v3 Basic Constraints: critical
                CA:FALSE
            X509v3 Authority Key Identifier: 
                keyid:01:02:03

            Authority Information Access: 
                OCSP - URI:http://theca.net/ocsp
                CA Issuers - URI:http://theca.net/totallythecert.crt

            X509v3 Certificate Policies: 
                Policy: 2.23.140.1.2.2

            X509v3 Subject Key Identifier: 
                04:03:02:01
            X509v3 Subject Alternative Name: 
                DNS:*.gov.us, DNS:gov.us
    Signature Algorithm: sha256WithRSAEncryption
         79:3b:ba:cd:76:6f:d5:99:ef:7e:e1:73:95:12:55:53:5a:64:
         63:3c:ad:38:21:2f:41:62:20:de:57:96:f1:e1:3f:4b:16:78:
         c7:27:73:e7:ff:a6:1d:8f:3d:42:c2:59:88:2b:74:9f:6b:f7:
         5b:dd:cf:e3:fa:99:d0:d9:77:27:11:ac:97:fe:00:a4:fa:b8:
         e2:2c:81:3b:ea:32:09:93:44:dc:b4:40:fa:8a:1c:50:3d:fc:
         e8:ee:a5:c9:49:7c:05:e7:f8:d9:b3:37:e3:09:3f:6c:58:1a:
         fb:95:46:f6:59:3c:42:ba:fe:ef:12:a8:05:02:e5:a1:0f:b2:
         53:51:a6:ec:a6:68:0e:3b:e2:d4:1e:f7:58:87:c7:14:5d:d1:
         6c:eb:55:76:27:4c:33:d7:13:0d:42:c3:f0:64:f0:63:80:a1:
         20:7c:ae:25:20:d0:98:c4:10:99:9b:b1:1a:64:a4:f5:7c:95:
         55:40:93:49:f0:d6:98:c5:b3:75:e7:02:7a:1f:6e:c8:dc:68:
         4e:bb:8f:ea:8b:27:49:bb:9b:56:9b:35:09:7e:cb:2b:f2:e7:
         df:20:0c:b3:1b:a2:6f:09:71:db:0c:84:69:e2:97:df:3d:00:
         59:b5:8e:f8:34:be:bf:29:2b:b2:ca:5d:de:c6:9c:a5:dc:c6:
         76:6b:d2:67
-----BEGIN CERTIFICATE-----
MIIEVDCCAzygAwIBAgIFBDFmk+0wDQYJKoZIhvcNAQELBQAwUjELMAkGA1UEBhMC
VVMxFjAUBgNVBAoTDU1vdGhlciBOYXR1cmUxEzARBgNVBAsTCkV2ZXJ5dGhpbmcx
FjAUBgNVBAMTDU1vdGhlciBOYXR1cmUwHhcNMTYwNjMwMTkxNzEwWhcNMTYwOTEx
MTkxNzEwWjCBjDEYMBYGA1UEChMPRXh0cmVtZSBEaXNjb3JkMQ4wDAYDVQQLEwVD
aGFvczEUMBIGA1UEBxMLVGFsbGFoYXNzZWUxCzAJBgNVBAgTAkZMMRwwGgYDVQQJ
ExMzMjEwIEhvbGx5IE1pbGwgUnVuMQ4wDAYDVQQREwUzMDA2MjEPMA0GA1UEAxMG
Z292LnVzMIIBIjANBgkqhkiG9w0BAQEFAAOCAQ8AMIIBCgKCAQEAwrsBATK6GniE
wTofuSLO/Gr8l/tTMiVLOOA9dDKdixifEz8OHJRss4HjFCshvCgcTq76doushOKH
v+ReOI3XWDfkmb+6yfjWJv8AaicMxSY0Fmm88B3IWFJ7NNJxorK1y0HdmhteckR+
1B62ewa7Lek/P+6rwPF4CL8fgD66yFfJrforOQSS0G/VltB3BmbPImYzIo8ZP6hn
zwigpuYZlhzgcQ/BaA8mLtefkzOBpFE8Bqh6SvFkrz00oUDJaj+0xUa8zhJ2limv
DjH6hUWKZwNo3XQCA1xqUngcQ/RIv77si9xSF6GXiJv4/6NIa9yP+fsndaqaU5bm
mquF3dml9QIDAQABo4H1MIHyMA4GA1UdDwEB/wQEAwIFoDAdBgNVHSUEFjAUBggr
BgEFBQcDAgYIKwYBBQUHAwEwDAYDVR0TAQH/BAIwADAOBgNVHSMEBzAFgAMBAgMw
YgYIKwYBBQUHAQEEVjBUMCEGCCsGAQUFBzABhhVodHRwOi8vdGhlY2EubmV0L29j
c3AwLwYIKwYBBQUHMAKGI2h0dHA6Ly90aGVjYS5uZXQvdG90YWxseXRoZWNlcnQu
Y3J0MBMGA1UdIAQMMAowCAYGZ4EMAQICMA0GA1UdDgQGBAQEAwIBMBsGA1UdEQQU
MBKCCCouZ292LnVzggZnb3YudXMwDQYJKoZIhvcNAQELBQADggEBAHk7us12b9WZ
737hc5USVVNaZGM8rTghL0FiIN5XlvHhP0sWeMcnc+f/ph2PPULCWYgrdJ9r91vd
z+P6mdDZdycRrJf+AKT6uOIsgTvqMgmTRNy0QPqKHFA9/OjupclJfAXn+NmzN+MJ
P2xYGvuVRvZZPEK6/u8SqAUC5aEPslNRpuymaA474tQe91iHxxRd0WzrVXYnTDPX
Ew1Cw/Bk8GOAoSB8riUg0JjEEJmbsRpkpPV8lVVAk0nw1pjFs3XnAnofbsjcaE67
j+qLJ0m7m1abNQl+yyvy598gDLMbom8JcdsMhGnil989AFm1jvg0vr8pK7LKXd7G
nKXcxnZr0mc=
-----END CERTIFICATE-----
