Certificate:
    Data:
        Version: 3 (0x2)
        Serial Number: 18008675309 (0x4316693ed)
    Signature Algorithm: sha256WithRSAEncryption
        Issuer: C = US, O = Mother Nature, OU = Everything, CN = Mother Nature
        Validity
            Not Before: Jun 30 18:55:17 2016 GMT
            Not After : Sep 11 18:55:17 2016 GMT
        Subject: C = US, O = Extreme Discord, OU = Chaos, ST = FL, street = 3210 Holly Mill Run, postalCode = 30062, CN = gov.us
        Subject Public Key Info:
            Public Key Algorithm: rsaEncryption
                Public-Key: (2048 bit)
                Modulus:
                    00:a4:b0:7b:5e:6b:b3:f3:b9:4c:c1:80:39:7d:8d:
                    30:af:42:77:57:43:f3:be:07:11:1e:d3:3b:d6:8c:
                    df:58:e1:6a:0a:8f:e6:2f:29:52:be:10:4d:c9:02:
                    d3:f4:8b:89:84:f1:ae:e9:5b:bd:a6:31:90:0d:23:
                    d3:7e:55:50:e1:74:9a:73:5c:20:1d:69:46:54:26:
                    b9:30:38:e2:d7:da:30:7c:7b:60:4b:8d:11:9f:bb:
                    18:f0:d3:2c:e0:ca:c4:12:83:01:28:4a:8b:62:97:
                    77:ea:92:2a:4c:6a:dd:7b:c0:2e:21:e9:53:26:5d:
                    a7:dc:67:0e:8e:d4:48:62:cb:63:fa:40:c0:96:0c:
                    db:d8:3f:8f:7c:03:d4:22:42:d4:55:38:87:8a:a4:
                    3a:2a:d7:26:f0:42:66:fb:c8:3a:d2:d8:a3:b9:14:
                    8f:d4:0f:4a:b4:a6:3f:ee:5a:6b:e9:4a:ae:18:0e:
                    9d:d9:f6:b1:4f:18:78:16:b5:38:ed:ad:8c:85:86:
                    74:77:8e:13:d8:c1:e0:0f:fd:ed:8a:83:cd:24:d3:
                    27:f3:2d:9f:73:c9:f1:86:18:d7:82:0f:08:22:b2:
                    0a:a1:92:bb:4f:44:9f:89:0e:db:90:a2:04:8e:fa:
                    f6:00:4f:e9:ad:7a:b9:9e:5a:ff:82:ec:36:70:b4:
                    46:81
                Exponent: 65537 (0x10001)
        X509v3 extensions:
            X509v3 Key Usage: critical
                Digital Signature, Key Encipherment
            X509v3 Extended Key Usage: 
                TLS Web Client Authentication, TLS Web Server Authentication
            X509v3 Basic Constraints: critical
                CA:FALSE
            X509v3 Authority Key Identifier: 
                keyid:01:02:03

            Authority Information Access: 
                OCSP - URI:http://theca.net/ocsp
                CA Issuers - URI:http://theca.net/totallythecert.crt

            X509v3 Certificate Policies: 
                Policy: 2.23.140.1.2.2

            X509v3 Subject Key Identifier: 
                04:03:02:01
            X509v3 Subject Alternative Name: 
                DNS:*.gov.us, DNS:gov.us
    Signature Algorithm: sha256WithRSAEncryption
         79:dd:7d:bf:77:3b:e5:0f:94:74:24:ff:0d:6c:8a:85:eb:7b:
         1f:20:ba:33:7d:e5:b4:20:b4:2d:c6:fc:30:15:7c:f5:b7:dc:
         5f:6d:20:88:a7:9c:75:83:7c:21:29:7d:b5:52:ac:85:b0:9d:
         e7:5b:52:7d:3a:3f:84:f7:69:37:30:c0:38:60:57:b9:64:89:
         96:0c:6e:db:65:e7:45:8a:a4:8d:f3:73:e7:6f:b1:5d:7e:17:
         48:61:e1:8e:95:b6:b8:cf:d6:e3:64:76:bb:58:d5:26:48:e8:
         c6:8a:71:49:f0:7a:f3:ba:cb:c4:92:9f:94:02:9f:be:62:79:
         fe:ed:03:c0:f3:25:b5:fe:24:11:e3:3b:b6:2d:26:77:b4:49:
         ca:14:bd:f5:5a:9d:fb:46:82:de:b6:03:ae:00:29:f8:a3:81:
         b3:93:9a:9a:a6:a8:3a:de:f0:00:f8:2b:96:90:9a:8f:3c:bf:
         55:db:ab:c3:4a:b8:22:d0:c1:56:01:a3:f1:74:de:a1:e1:c2:
         b8:3f:43:3e:46:ae:0e:59:21:f4:ee:58:7f:fa:c0:0d:25:11:
         05:97:d1:d0:ff:d7:f5:39:c1:0f:97:0e:69:6f:49:58:33:0c:
         d1:23:b0:f6:19:4c:46:0a:ff:f5:50:f8:fa:9b:da:8f:4d:9a:
         0d:24:f7:18
-----BEGIN CERTIFICATE-----
MIIESzCCAzOgAwIBAgIFBDFmk+0wDQYJKoZIhvcNAQELBQAwUjELMAkGA1UEBhMC
VVMxFjAUBgNVBAoTDU1vdGhlciBOYXR1cmUxEzARBgNVBAsTCkV2ZXJ5dGhpbmcx
FjAUBgNVBAMTDU1vdGhlciBOYXR1cmUwHhcNMTYwNjMwMTg1NTE3WhcNMTYwOTEx
MTg1NTE3WjCBgzELMAkGA1UEBhMCVVMxGDAWBgNVBAoTD0V4dHJlbWUgRGlzY29y
ZDEOMAwGA1UECxMFQ2hhb3MxCzAJBgNVBAgTAkZMMRwwGgYDVQQJExMzMjEwIEhv
bGx5IE1pbGwgUnVuMQ4wDAYDVQQREwUzMDA2MjEPMA0GA1UEAxMGZ292LnVzMIIB
IjANBgkqhkiG9w0BAQEFAAOCAQ8AMIIBCgKCAQEApLB7Xmuz87lMwYA5fY0wr0J3
V0PzvgcRHtM71ozfWOFqCo/mLylSvhBNyQLT9IuJhPGu6Vu9pjGQDSPTflVQ4XSa
c1wgHWlGVCa5MDji19owfHtgS40Rn7sY8NMs4MrEEoMBKEqLYpd36pIqTGrde8Au
IelTJl2n3GcOjtRIYstj+kDAlgzb2D+PfAPUIkLUVTiHiqQ6Ktcm8EJm+8g60tij
uRSP1A9KtKY/7lpr6UquGA6d2faxTxh4FrU47a2MhYZ0d44T2MHgD/3tioPNJNMn
8y2fc8nxhhjXgg8IIrIKoZK7T0SfiQ7bkKIEjvr2AE/prXq5nlr/guw2cLRGgQID
AQABo4H1MIHyMA4GA1UdDwEB/wQEAwIFoDAdBgNVHSUEFjAUBggrBgEFBQcDAgYI
KwYBBQUHAwEwDAYDVR0TAQH/BAIwADAOBgNVHSMEBzAFgAMBAgMwYgYIKwYBBQUH
AQEEVjBUMCEGCCsGAQUFBzABhhVodHRwOi8vdGhlY2EubmV0L29jc3AwLwYIKwYB
BQUHMAKGI2h0dHA6Ly90aGVjYS5uZXQvdG90YWxseXRoZWNlcnQuY3J0MBMGA1Ud
IAQMMAowCAYGZ4EMAQICMA0GA1UdDgQGBAQEAwIBMBsGA1UdEQQUMBKCCCouZ292
LnVzggZnb3YudXMwDQYJKoZIhvcNAQELBQADggEBAHndfb93O+UPlHQk/w1sioXr
ex8gujN95bQgtC3G/DAVfPW33F9tIIinnHWDfCEpfbVSrIWwnedbUn06P4T3aTcw
wDhgV7lkiZYMbttl50WKpI3zc+dvsV1+F0hh4Y6VtrjP1uNkdrtY1SZI6MaKcUnw
evO6y8SSn5QCn75ief7tA8DzJbX+JBHjO7YtJne0ScoUvfVanftGgt62A64AKfij
gbOTmpqmqDre8AD4K5aQmo88v1Xbq8NKuCLQwVYBo/F03qHhwrg/Qz5Grg5ZIfTu
WH/6wA0lEQWX0dD/1/U5wQ+XDmlvSVgzDNEjsPYZTEYK//VQ+Pqb2o9Nmg0k9xg=
-----END CERTIFICATE-----
