Certificate:
    Data:
        Version: 3 (0x2)
        Serial Number: 18008675309 (0x4316693ed)
    Signature Algorithm: sha256WithRSAEncryption
        Issuer: C = US, O = Mother Nature, OU = Everything, CN = Mother Nature
        Validity
            Not Before: Jun 27 22:58:55 2016 GMT
            Not After : Sep  8 22:58:55 2016 GMT
        Subject: C = US, ST = FL, O = Extreme Discord, OU = Chaos, CN = gov.us
        Subject Public Key Info:
            Public Key Algorithm: rsaEncryption
                Public-Key: (2048 bit)
                Modulus:
                    00:e7:2e:55:c1:5c:e6:64:63:96:73:04:19:e3:32:
                    09:74:1a:c9:e5:03:ff:4f:16:51:e5:2b:ea:34:ea:
                    42:df:55:67:ee:79:8e:5d:aa:a0:05:f3:d7:09:3e:
                    12:7c:95:47:86:22:81:b5:0e:69:d2:ee:99:fd:6b:
                    d0:6e:55:63:bd:f4:d0:8d:34:8a:aa:dd:da:13:e7:
                    49:f8:37:1c:30:7a:c6:4c:7c:36:64:ec:79:c1:b8:
                    00:b1:14:fd:f1:63:c2:74:15:5f:11:85:28:cf:2e:
                    28:88:60:0b:49:1b:d1:74:e3:3e:61:b0:0e:16:9d:
                    0b:1c:07:75:eb:77:d0:53:18:8f:c9:2c:5a:0e:b6:
                    12:74:71:9c:43:e8:25:38:5b:30:81:fd:fb:ef:ec:
                    9f:a4:d5:aa:de:6a:82:3b:82:3e:cb:0a:3e:d3:83:
                    f4:82:db:05:de:a2:71:be:c0:a7:a1:06:34:ae:7d:
                    2b:91:2a:98:eb:58:f8:cb:a3:bc:be:51:c6:0d:5f:
                    76:38:91:77:9e:f4:98:e8:ca:73:7a:db:c0:1f:f5:
                    4b:01:5c:b5:cb:17:18:3e:ef:e5:f3:4a:33:55:59:
                    dc:63:e0:ac:11:29:f8:4f:cc:2c:a3:c4:fd:2d:3f:
                    d3:d6:bf:5f:55:68:a2:d4:61:8a:a3:4f:58:59:9b:
                    1d:cf
                Exponent: 65537 (0x10001)
        X509v3 extensions:
            X509v3 Key Usage: critical
                Digital Signature, Key Encipherment
            X509v3 Extended Key Usage: 
                TLS Web Client Authentication, TLS Web Server Authentication
            X509v3 Basic Constraints: critical
                CA:FALSE
            X509v3 Authority Key Identifier: 
                keyid:01:02:03

            Authority Information Access: 
                OCSP - URI:http://theca.net/ocsp
                CA Issuers - URI:http://theca.net/totallythecert.crt

            X509v3 Certificate Policies: 
                Policy: 2.23.140.1.2.2

            X509v3 Subject Key Identifier: 
                04:03:02:01
            X509v3 Subject Alternative Name: 
                DNS:*.gov.us, DNS:gov.us
    Signature Algorithm: sha256WithRSAEncryption
         a1:72:0f:5d:fd:f4:76:84:bc:fd:c7:f7:55:c6:1c:a0:64:27:
         79:a5:e8:34:d0:19:a3:d3:ea:16:15:1a:f1:5d:30:39:86:fe:
         cc:56:66:af:f5:d5:4b:01:09:b0:c5:71:59:38:3b:4c:89:be:
         d0:a5:d4:3b:f5:16:09:c3:d7:ca:9c:ce:8a:25:af:7c:c0:e4:
         ad:6f:d5:60:ac:9f:7b:ef:f2:57:b3:8d:b3:a6:9a:67:be:2e:
         9b:e8:3c:0f:20:5b:4e:ce:1f:9e:0a:9f:fa:be:ce:5a:7f:af:
         e5:24:4b:8d:85:4e:0b:0e:b4:5d:56:a9:ff:c2:02:81:59:09:
         e6:a2:2b:8e:91:8d:28:64:e4:fb:d2:cb:29:01:6f:42:bc:cf:
         0b:b7:99:20:30:29:a1:21:fb:19:b0:09:76:b6:df:b1:af:4c:
         c3:ea:c2:3e:0e:f0:53:16:e4:72:36:0d:b4:d2:2a:4c:87:c0:
         c8:b7:66:35:3d:42:1a:99:12:24:bf:cd:9f:db:13:b1:56:cf:
         e3:1a:17:63:9d:b5:57:04:d1:a1:fc:8b:58:9e:52:18:32:d2:
         f5:5a:b3:81:e1:a0:e7:95:d2:d6:1d:a4:79:eb:12:cf:ca:34:
         2c:fc:8f:08:7a:6c:61:66:08:ee:30:85:3a:97:f7:d2:a8:52:
         55:0d:4c:4f
-----BEGIN CERTIFICATE-----
MIIEHDCCAwSgAwIBAgIFBDFmk+0wDQYJKoZIhvcNAQELBQAwUjELMAkGA1UEBhMC
VVMxFjAUBgNVBAoTDU1vdGhlciBOYXR1cmUxEzARBgNVBAsTCkV2ZXJ5dGhpbmcx
FjAUBgNVBAMTDU1vdGhlciBOYXR1cmUwHhcNMTYwNjI3MjI1ODU1WhcNMTYwOTA4
MjI1ODU1WjBVMQswCQYDVQQGEwJVUzELMAkGA1UECBMCRkwxGDAWBgNVBAoTD0V4
dHJlbWUgRGlzY29yZDEOMAwGA1UECxMFQ2hhb3MxDzANBgNVBAMTBmdvdi51czCC
ASIwDQYJKoZIhvcNAQEBBQADggEPADCCAQoCggEBAOcuVcFc5mRjlnMEGeMyCXQa
yeUD/08WUeUr6jTqQt9VZ+55jl2qoAXz1wk+EnyVR4YigbUOadLumf1r0G5VY730
0I00iqrd2hPnSfg3HDB6xkx8NmTsecG4ALEU/fFjwnQVXxGFKM8uKIhgC0kb0XTj
PmGwDhadCxwHdet30FMYj8ksWg62EnRxnEPoJThbMIH9++/sn6TVqt5qgjuCPssK
PtOD9ILbBd6icb7Ap6EGNK59K5EqmOtY+MujvL5Rxg1fdjiRd570mOjKc3rbwB/1
SwFctcsXGD7v5fNKM1VZ3GPgrBEp+E/MLKPE/S0/09a/X1VootRhiqNPWFmbHc8C
AwEAAaOB9TCB8jAOBgNVHQ8BAf8EBAMCBaAwHQYDVR0lBBYwFAYIKwYBBQUHAwIG
CCsGAQUFBwMBMAwGA1UdEwEB/wQCMAAwDgYDVR0jBAcwBYADAQIDMGIGCCsGAQUF
BwEBBFYwVDAhBggrBgEFBQcwAYYVaHR0cDovL3RoZWNhLm5ldC9vY3NwMC8GCCsG
AQUFBzAChiNodHRwOi8vdGhlY2EubmV0L3RvdGFsbHl0aGVjZXJ0LmNydDATBgNV
HSAEDDAKMAgGBmeBDAECAjANBgNVHQ4EBgQEBAMCATAbBgNVHREEFDASgggqLmdv
di51c4IGZ292LnVzMA0GCSqGSIb3DQEBCwUAA4IBAQChcg9d/fR2hLz9x/dVxhyg
ZCd5peg00Bmj0+oWFRrxXTA5hv7MVmav9dVLAQmwxXFZODtMib7QpdQ79RYJw9fK
nM6KJa98wOStb9VgrJ977/JXs42zpppnvi6b6DwPIFtOzh+eCp/6vs5af6/lJEuN
hU4LDrRdVqn/wgKBWQnmoiuOkY0oZOT70sspAW9CvM8Lt5kgMCmhIfsZsAl2tt+x
r0zD6sI+DvBTFuRyNg200ipMh8DIt2Y1PUIamRIkv82f2xOxVs/jGhdjnbVXBNGh
/ItYnlIYMtL1WrOB4aDnldLWHaR56xLPyjQs/I8IemxhZgjuMIU6l/fSqFJVDUxP
-----END CERTIFICATE-----
