Certificate:
    Data:
        Version: 3 (0x2)
        Serial Number: 18008675309 (0x4316693ed)
    Signature Algorithm: sha256WithRSAEncryption
        Issuer: C = US, O = Mother Nature, OU = Everything, CN = Mother Nature
        Validity
            Not Before: Jun 27 23:03:07 2016 GMT
            Not After : Sep  8 23:03:07 2016 GMT
        Subject: C = US, ST = FL, L = Tallahassee, OU = Chaos, CN = gov.us
        Subject Public Key Info:
            Public Key Algorithm: rsaEncryption
                Public-Key: (2048 bit)
                Modulus:
                    00:c1:dd:78:60:72:f5:92:74:a9:1d:d0:1e:50:04:
                    33:a9:f8:c5:16:e2:1a:51:fd:ba:00:46:99:93:42:
                    bb:f7:74:58:7d:45:71:d2:2c:1d:6b:ab:f0:b5:91:
                    9b:fc:26:12:c2:52:4e:c0:45:15:ff:2f:fd:de:a3:
                    a0:fa:86:d4:d6:73:45:23:54:16:03:ed:3b:7a:60:
                    1f:92:75:97:6a:0f:15:18:c1:f1:22:fd:59:b3:70:
                    33:4b:c7:21:af:ef:8e:31:17:31:00:16:55:21:80:
                    6c:8f:ad:f4:ee:f6:35:12:49:ff:c2:1c:f4:91:47:
                    5c:cc:c9:f2:fa:3f:18:f7:05:9b:74:bf:b3:4b:2a:
                    91:a0:36:af:10:20:f8:46:60:90:5a:e2:3a:63:74:
                    1b:35:b7:5c:25:66:53:e2:04:45:15:0c:69:63:e5:
                    f1:6e:ac:89:e8:42:77:61:d6:fa:06:a7:49:32:5f:
                    5d:32:07:bd:4c:46:0e:87:c4:2e:e7:11:cb:ec:ed:
                    ec:bf:a1:f4:06:cd:a0:5c:54:c1:04:a0:32:2d:f2:
                    fd:46:c5:da:57:0a:85:74:26:4a:31:56:cf:1d:41:
                    30:f8:89:2e:c6:cf:89:dd:88:f1:1c:1c:dc:b1:b0:
                    2a:51:79:0c:58:62:b0:d6:4f:59:b1:58:f1:58:1a:
                    f5:c1
                Exponent: 65537 (0x10001)
        X509v3 extensions:
            X509v3 Key Usage: critical
                Digital Signature, Key Encipherment
            X509v3 Extended Key Usage: 
                TLS Web Client Authentication, TLS Web Server Authentication
            X509v3 Basic Constraints: critical
                CA:FALSE
            X509v3 Authority Key Identifier: 
                keyid:01:02:03

            Authority Information Access: 
                OCSP - URI:http://theca.net/ocsp
                CA Issuers - URI:http://theca.net/totallythecert.crt

            X509v3 Certificate Policies: 
                Policy: 2.23.140.1.2.2

            X509v3 Subject Key Identifier: 
                04:03:02:01
            X509v3 Subject Alternative Name: 
                DNS:*.gov.us, DNS:gov.us
    Signature Algorithm: sha256WithRSAEncryption
         97:06:88:66:bb:f1:de:81:7a:b2:49:4c:59:dc:b5:41:c4:86:
         a1:9f:3e:22:16:18:2c:35:7b:da:fe:ac:1b:8f:d1:d5:ba:e7:
         9e:84:96:bd:c7:6d:5c:17:44:f8:2e:dd:f7:ce:ba:b7:d0:f5:
         6a:8e:ff:e4:cc:3d:70:5c:46:1e:85:3d:92:7e:82:68:9f:43:
         2e:01:b1:0e:22:33:ae:ec:3f:54:67:7b:40:76:c8:02:27:0f:
         d1:e7:cc:20:65:49:91:82:16:37:e2:fb:52:f2:94:41:16:29:
         6d:08:b1:a4:63:70:b8:b2:5d:33:37:c7:e0:75:78:2d:c8:39:
         40:41:6a:9f:ea:80:85:7e:04:94:05:6f:3d:6a:32:e4:b6:30:
         46:f1:92:5a:eb:83:c3:2c:7b:5c:6a:fc:39:09:41:45:a2:2a:
         c9:d3:28:af:ab:16:cb:e6:b5:42:1d:3d:63:eb:6b:ff:9b:d6:
         a3:34:cd:21:8e:45:2e:07:43:50:b8:f4:78:40:d3:a1:1d:c4:
         c1:31:99:4f:7f:34:a7:c6:75:88:88:f5:90:9a:2a:e7:68:b8:
         06:d0:fd:ea:cf:46:55:a9:01:c4:39:b6:cb:2d:4b:b5:3d:31:
         3c:f1:e6:7d:6b:bd:ec:25:a4:59:47:dc:a3:3d:1f:22:28:b2:
         43:1e:3a:12
-----BEGIN CERTIFICATE-----
MIIEGDCCAwCgAwIBAgIFBDFmk+0wDQYJKoZIhvcNAQELBQAwUjELMAkGA1UEBhMC
VVMxFjAUBgNVBAoTDU1vdGhlciBOYXR1cmUxEzARBgNVBAsTCkV2ZXJ5dGhpbmcx
FjAUBgNVBAMTDU1vdGhlciBOYXR1cmUwHhcNMTYwNjI3MjMwMzA3WhcNMTYwOTA4
MjMwMzA3WjBRMQswCQYDVQQGEwJVUzELMAkGA1UECBMCRkwxFDASBgNVBAcTC1Rh
bGxhaGFzc2VlMQ4wDAYDVQQLEwVDaGFvczEPMA0GA1UEAxMGZ292LnVzMIIBIjAN
BgkqhkiG9w0BAQEFAAOCAQ8AMIIBCgKCAQEAwd14YHL1knSpHdAeUAQzqfjFFuIa
Uf26AEaZk0K793RYfUVx0iwda6vwtZGb/CYSwlJOwEUV/y/93qOg+obU1nNFI1QW
A+07emAfknWXag8VGMHxIv1Zs3AzS8chr++OMRcxABZVIYBsj6307vY1Ekn/whz0
kUdczMny+j8Y9wWbdL+zSyqRoDavECD4RmCQWuI6Y3QbNbdcJWZT4gRFFQxpY+Xx
bqyJ6EJ3Ydb6BqdJMl9dMge9TEYOh8Qu5xHL7O3sv6H0Bs2gXFTBBKAyLfL9RsXa
VwqFdCZKMVbPHUEw+Ikuxs+J3YjxHBzcsbAqUXkMWGKw1k9ZsVjxWBr1wQIDAQAB
o4H1MIHyMA4GA1UdDwEB/wQEAwIFoDAdBgNVHSUEFjAUBggrBgEFBQcDAgYIKwYB
BQUHAwEwDAYDVR0TAQH/BAIwADAOBgNVHSMEBzAFgAMBAgMwYgYIKwYBBQUHAQEE
VjBUMCEGCCsGAQUFBzABhhVodHRwOi8vdGhlY2EubmV0L29jc3AwLwYIKwYBBQUH
MAKGI2h0dHA6Ly90aGVjYS5uZXQvdG90YWxseXRoZWNlcnQuY3J0MBMGA1UdIAQM
MAowCAYGZ4EMAQICMA0GA1UdDgQGBAQEAwIBMBsGA1UdEQQUMBKCCCouZ292LnVz
ggZnb3YudXMwDQYJKoZIhvcNAQELBQADggEBAJcGiGa78d6BerJJTFnctUHEhqGf
PiIWGCw1e9r+rBuP0dW6556Elr3HbVwXRPgu3ffOurfQ9WqO/+TMPXBcRh6FPZJ+
gmifQy4BsQ4iM67sP1Rne0B2yAInD9HnzCBlSZGCFjfi+1LylEEWKW0IsaRjcLiy
XTM3x+B1eC3IOUBBap/qgIV+BJQFbz1qMuS2MEbxklrrg8Mse1xq/DkJQUWiKsnT
KK+rFsvmtUIdPWPra/+b1qM0zSGORS4HQ1C49HhA06EdxMExmU9/NKfGdYiI9ZCa
KudouAbQ/erPRlWpAcQ5tsstS7U9MTzx5n1rvewlpFlH3KM9HyIoskMeOhI=
-----END CERTIFICATE-----
