Certificate:
    Data:
        Version: 3 (0x2)
        Serial Number: 18008675309 (0x4316693ed)
    Signature Algorithm: sha256WithRSAEncryption
        Issuer: C = US, O = Mother Nature, OU = Everything, CN = Mother Nature
        Validity
            Not Before: Jul  9 21:42:50 2016 GMT
            Not After : Sep 21 21:42:50 2016 GMT
        Subject: C = US, ST = FL, L = Tallahassee, street = 3210 Holly Mill Run, postalCode = 30062, O = Extreme Discord, OU = Chaos, CN = gov.us
        Subject Public Key Info:
            Public Key Algorithm: rsaEncryption
                Public-Key: (2048 bit)
                Modulus:
                    00:dc:e8:93:e0:55:46:84:fc:53:dc:76:c1:97:6e:
                    63:98:96:4e:b0:46:af:97:10:37:b2:4c:d2:1c:b6:
                    d9:e0:6b:4e:c1:22:a5:5b:fc:61:71:64:b1:7e:b9:
                    22:72:0a:1e:79:54:32:73:ef:f9:8e:ba:ad:89:0a:
                    09:03:7c:f2:30:e5:2c:e7:7f:37:8d:a4:4f:40:17:
                    44:20:9d:76:40:af:16:65:8b:3f:d8:72:88:aa:cb:
                    ff:18:db:61:de:c3:a6:bb:5b:e0:8a:82:4e:2a:bf:
                    07:23:f8:e6:eb:16:f5:fe:f3:df:e5:75:8a:aa:19:
                    08:ce:77:71:e9:64:59:8e:90:44:c0:09:57:7b:b7:
                    fc:31:e1:3a:15:d7:ae:b9:18:1f:c9:36:a7:b4:b0:
                    39:f7:73:4b:51:9f:aa:8d:13:70:b5:a4:ca:01:8e:
                    d4:35:33:4f:cd:5a:9d:bc:28:a9:6d:ca:cd:5e:65:
                    be:a4:50:75:a0:ae:2a:51:8b:33:10:ae:48:41:cc:
                    b6:6b:36:1d:d3:47:fc:32:49:94:8d:d3:9e:28:b2:
                    b0:1e:bc:e1:1e:73:df:dc:db:d0:92:a8:db:9d:12:
                    d5:66:3f:80:48:db:4c:3d:87:fd:72:0a:3f:35:01:
                    8e:e0:a5:3c:ed:7d:cf:9b:2f:97:59:7f:cd:f0:47:
                    3d:b5
                Exponent: 65537 (0x10001)
        X509v3 extensions:
            X509v3 Key Usage: critical
                Digital Signature, Key Encipherment, Certificate Sign
            X509v3 Extended Key Usage: 
                TLS Web Client Authentication, TLS Web Server Authentication
            X509v3 Basic Constraints: critical
                CA:TRUE
            Authority Information Access: 
                OCSP - URI:http://theca.net/ocsp
                CA Issuers - URI:http://theca.net/totallythecert.crt

            X509v3 Certificate Policies: 
                Policy: 1.3.6.1.5.5.7.13.1
                Policy: 2.23.140.1.2.2

            X509v3 Subject Key Identifier: 
                04:03:02:01
            X509v3 Authority Key Identifier: 
                keyid:01:02:03:04
                serial:1C:BD:7D:87:57

            X509v3 Subject Alternative Name: 
                DNS:*.gov.us, DNS:gov.us
            X509v3 Issuer Alternative Name: 
                DNS:allthethings.net, DNS:crl.allthemthings.net, DNS:theca.net
            X509v3 Freshest CRL: 

                Full Name:
                  URI:http://crl.allthemthings.net/sfig2s1-17.crl

            X509v3 Policy Mappings: critical
                1.3.6.1.5.5.7.13.1:1.3.6.1.5.5.7.13.2, X509v3 Any Policy:1.3.6.1.5.5.7.13.3
    Signature Algorithm: sha256WithRSAEncryption
         01:73:1b:d6:4a:f3:11:f5:b5:fc:22:ec:99:ca:98:3b:de:38:
         cb:37:2b:3c:9e:ba:87:04:d8:41:cd:bb:c6:36:51:ab:9c:a4:
         a8:8b:6d:ad:9b:70:cb:9a:53:a0:a0:8c:d8:38:35:3f:a7:f4:
         e5:b0:e7:b8:b9:62:a9:52:0c:19:bc:97:a7:33:f4:17:3e:e6:
         0a:58:fc:98:34:4c:03:33:28:5c:de:9f:54:69:1d:a4:ad:d0:
         e1:46:b5:f6:45:ed:94:03:fd:e5:af:a0:28:7f:49:ac:e5:8f:
         26:de:4e:e2:9e:58:05:7c:d0:62:41:f9:46:4e:84:1b:ee:6e:
         e6:1e:5e:d6:16:30:32:ba:b6:6c:1e:97:1d:40:25:33:8f:3a:
         20:3b:ca:a2:b9:9d:b9:2a:f3:5e:4a:3e:43:b8:f7:bc:9c:bd:
         b7:d6:e8:48:74:b7:36:2f:23:30:bd:59:4c:8a:29:49:17:52:
         0c:d6:2d:20:8f:16:43:90:90:0a:e6:20:82:89:70:8b:31:02:
         a3:79:98:c9:11:66:ee:a0:74:0a:78:13:9f:4e:66:e9:71:a0:
         59:35:07:42:c3:85:26:d1:db:36:60:73:a4:46:05:f3:3c:0b:
         70:6c:84:33:7b:51:ac:21:ce:71:3a:47:6b:a8:16:30:d7:26:
         03:e5:9b:9b
-----BEGIN CERTIFICATE-----
MIIFLTCCBBWgAwIBAgIFBDFmk+0wDQYJKoZIhvcNAQELBQAwUjELMAkGA1UEBhMC
VVMxFjAUBgNVBAoTDU1vdGhlciBOYXR1cmUxEzARBgNVBAsTCkV2ZXJ5dGhpbmcx
FjAUBgNVBAMTDU1vdGhlciBOYXR1cmUwHhcNMTYwNzA5MjE0MjUwWhcNMTYwOTIx
MjE0MjUwWjCBmTELMAkGA1UEBhMCVVMxCzAJBgNVBAgTAkZMMRQwEgYDVQQHEwtU
YWxsYWhhc3NlZTEcMBoGA1UECRMTMzIxMCBIb2xseSBNaWxsIFJ1bjEOMAwGA1UE
ERMFMzAwNjIxGDAWBgNVBAoTD0V4dHJlbWUgRGlzY29yZDEOMAwGA1UECxMFQ2hh
b3MxDzANBgNVBAMTBmdvdi51czCCASIwDQYJKoZIhvcNAQEBBQADggEPADCCAQoC
ggEBANzok+BVRoT8U9x2wZduY5iWTrBGr5cQN7JM0hy22eBrTsEipVv8YXFksX65
InIKHnlUMnPv+Y66rYkKCQN88jDlLOd/N42kT0AXRCCddkCvFmWLP9hyiKrL/xjb
Yd7Dprtb4IqCTiq/ByP45usW9f7z3+V1iqoZCM53celkWY6QRMAJV3u3/DHhOhXX
rrkYH8k2p7SwOfdzS1Gfqo0TcLWkygGO1DUzT81anbwoqW3KzV5lvqRQdaCuKlGL
MxCuSEHMtms2HdNH/DJJlI3TniiysB684R5z39zb0JKo250S1WY/gEjbTD2H/XIK
PzUBjuClPO19z5svl1l/zfBHPbUCAwEAAaOCAcAwggG8MA4GA1UdDwEB/wQEAwIC
pDAdBgNVHSUEFjAUBggrBgEFBQcDAgYIKwYBBQUHAwEwDwYDVR0TAQH/BAUwAwEB
/zBiBggrBgEFBQcBAQRWMFQwIQYIKwYBBQUHMAGGFWh0dHA6Ly90aGVjYS5uZXQv
b2NzcDAvBggrBgEFBQcwAoYjaHR0cDovL3RoZWNhLm5ldC90b3RhbGx5dGhlY2Vy
dC5jcnQwHwYDVR0gBBgwFjAKBggrBgEFBQcNATAIBgZngQwBAgIwDQYDVR0OBAYE
BAQDAgEwFgYDVR0jBA8wDYAEAQIDBIIFHL19h1cwGwYDVR0RBBQwEoIIKi5nb3Yu
dXOCBmdvdi51czA9BgNVHRIENjA0ghBhbGx0aGV0aGluZ3MubmV0ghVjcmwuYWxs
dGhlbXRoaW5ncy5uZXSCCXRoZWNhLm5ldDA8BgNVHS4ENTAzMDGgL6AthitodHRw
Oi8vY3JsLmFsbHRoZW10aGluZ3MubmV0L3NmaWcyczEtMTcuY3JsMDQGA1UdIQEB
/wQqMCgwFAYIKwYBBQUHDQEGCCsGAQUFBw0CMBAGBFUdIAAGCCsGAQUFBw0DMA0G
CSqGSIb3DQEBCwUAA4IBAQABcxvWSvMR9bX8IuyZypg73jjLNys8nrqHBNhBzbvG
NlGrnKSoi22tm3DLmlOgoIzYODU/p/TlsOe4uWKpUgwZvJenM/QXPuYKWPyYNEwD
Myhc3p9UaR2krdDhRrX2Re2UA/3lr6Aof0ms5Y8m3k7inlgFfNBiQflGToQb7m7m
Hl7WFjAyurZsHpcdQCUzjzogO8qiuZ25KvNeSj5DuPe8nL231uhIdLc2LyMwvVlM
iilJF1IM1i0gjxZDkJAK5iCCiXCLMQKjeZjJEWbuoHQKeBOfTmbpcaBZNQdCw4Um
0ds2YHOkRgXzPAtwbIQze1GsIc5xOkdrqBYw1yYD5Zub
-----END CERTIFICATE-----
