Certificate:
    Data:
        Version: 3 (0x2)
        Serial Number: 18008675309 (0x4316693ed)
    Signature Algorithm: sha256WithRSAEncryption
        Issuer: C = US, O = Mother Nature, OU = Everything, CN = Mother Nature
        Validity
            Not Before: Jul  9 21:40:51 2016 GMT
            Not After : Sep 21 21:40:51 2016 GMT
        Subject: C = US, ST = FL, L = Tallahassee, street = 3210 Holly Mill Run, postalCode = 30062, O = Extreme Discord, OU = Chaos, CN = gov.us
        Subject Public Key Info:
            Public Key Algorithm: rsaEncryption
                Public-Key: (2048 bit)
                Modulus:
                    00:ca:5e:74:4f:84:b6:a3:dc:3d:15:c3:57:41:12:
                    47:57:8e:74:93:3b:1a:6c:bc:6a:ca:00:31:f5:b0:
                    2b:a3:c7:d2:98:52:d4:01:6f:ba:33:c3:8d:b6:83:
                    1c:3d:ab:7f:72:6c:42:d7:9e:2e:0c:7d:d7:25:57:
                    bb:75:6f:d9:22:00:0e:1d:45:36:a8:91:b3:bc:90:
                    8d:e7:90:57:91:73:f7:7b:d3:3d:ae:97:e9:2a:e0:
                    d9:1c:3a:cb:00:1b:dc:62:f4:88:61:08:c9:4d:05:
                    4d:e7:fa:1d:8f:87:d9:b4:1b:64:ec:91:8e:cd:58:
                    66:33:fb:8a:37:3c:90:67:ca:05:30:70:7f:a5:68:
                    ee:e8:9b:85:6b:2c:b6:66:3c:23:8a:61:69:90:91:
                    16:ed:0c:71:93:54:cf:3f:97:8e:90:cf:2c:91:94:
                    be:eb:77:53:af:52:19:52:f0:ba:1f:9f:b1:b4:a8:
                    d3:a2:4a:a7:59:c7:11:c6:65:b3:31:e6:5f:42:95:
                    ec:99:bc:26:11:26:e3:38:b6:ba:c6:17:35:21:e2:
                    15:b5:59:bd:41:38:71:d6:1c:b2:a4:9e:10:3f:d4:
                    1f:4d:33:df:0b:eb:8f:71:d6:e7:80:4a:cb:3e:2b:
                    ca:eb:c4:ca:ab:bb:e7:ea:74:83:80:6f:0e:e7:54:
                    a2:bf
                Exponent: 65537 (0x10001)
        X509v3 extensions:
            X509v3 Key Usage: critical
                Digital Signature, Key Encipherment, Certificate Sign
            X509v3 Extended Key Usage: 
                TLS Web Client Authentication, TLS Web Server Authentication
            X509v3 Basic Constraints: critical
                CA:TRUE
            Authority Information Access: 
                OCSP - URI:http://theca.net/ocsp
                CA Issuers - URI:http://theca.net/totallythecert.crt

            X509v3 Certificate Policies: 
                Policy: 1.3.6.1.5.5.7.13.1
                Policy: 2.23.140.1.2.2
                Policy: X509v3 Any Policy

            X509v3 Subject Key Identifier: 
                04:03:02:01
            X509v3 Authority Key Identifier: 
                keyid:01:02:03:04
                serial:1C:BD:7D:87:57

            X509v3 Subject Alternative Name: 
                DNS:*.gov.us, DNS:gov.us
            X509v3 Issuer Alternative Name: 
                DNS:allthethings.net, DNS:crl.allthemthings.net, DNS:theca.net
            X509v3 Freshest CRL: 

                Full Name:
                  URI:http://crl.allthemthings.net/sfig2s1-17.crl

            X509v3 Policy Mappings: critical
                1.3.6.1.5.5.7.13.1:1.3.6.1.5.5.7.13.2, X509v3 Any Policy:1.3.6.1.5.5.7.13.3
    Signature Algorithm: sha256WithRSAEncryption
         71:a4:03:4e:4a:e9:ed:28:b0:a8:e7:cd:03:7d:d6:79:8b:28:
         3b:f7:eb:af:f6:e7:82:9a:1d:ed:f1:9a:20:8b:38:72:a6:49:
         97:13:31:14:ff:9d:9b:b0:66:a1:51:0d:cf:f9:3a:71:ae:7d:
         90:56:e9:be:18:97:27:c0:e0:4f:fd:94:b5:cd:f6:65:52:0a:
         55:1f:43:1c:d3:6a:9b:14:78:45:1d:9a:7e:05:df:32:54:94:
         f2:01:2d:17:22:a4:c0:89:18:d2:97:e0:28:47:6d:49:ab:76:
         65:01:7b:87:96:fa:d0:1e:6f:a6:3f:46:f4:6f:43:a8:ab:7e:
         84:a0:48:7d:e8:9f:40:5f:1c:fd:0a:64:54:f6:09:85:b5:2a:
         95:fc:db:ac:ab:a2:34:6b:c4:58:d4:c9:41:2e:74:bf:3c:fb:
         13:55:6d:63:80:a5:3d:5b:4a:69:36:e9:88:99:02:94:d6:d5:
         52:38:15:29:70:93:fc:df:80:a1:e8:38:f3:ff:97:38:ff:ea:
         30:19:47:11:43:f0:f9:b1:73:65:36:6f:48:76:1b:0a:43:f7:
         2a:05:02:b1:e4:5e:ee:20:6b:9d:b9:68:9e:88:12:87:73:32:
         72:0c:53:84:7f:04:1b:e2:5c:ff:99:03:ba:bb:b2:48:20:1d:
         5a:95:4b:cb
-----BEGIN CERTIFICATE-----
MIIFNTCCBB2gAwIBAgIFBDFmk+0wDQYJKoZIhvcNAQELBQAwUjELMAkGA1UEBhMC
VVMxFjAUBgNVBAoTDU1vdGhlciBOYXR1cmUxEzARBgNVBAsTCkV2ZXJ5dGhpbmcx
FjAUBgNVBAMTDU1vdGhlciBOYXR1cmUwHhcNMTYwNzA5MjE0MDUxWhcNMTYwOTIx
MjE0MDUxWjCBmTELMAkGA1UEBhMCVVMxCzAJBgNVBAgTAkZMMRQwEgYDVQQHEwtU
YWxsYWhhc3NlZTEcMBoGA1UECRMTMzIxMCBIb2xseSBNaWxsIFJ1bjEOMAwGA1UE
ERMFMzAwNjIxGDAWBgNVBAoTD0V4dHJlbWUgRGlzY29yZDEOMAwGA1UECxMFQ2hh
b3MxDzANBgNVBAMTBmdvdi51czCCASIwDQYJKoZIhvcNAQEBBQADggEPADCCAQoC
ggEBAMpedE+EtqPcPRXDV0ESR1eOdJM7Gmy8asoAMfWwK6PH0phS1AFvujPDjbaD
HD2rf3JsQteeLgx91yVXu3Vv2SIADh1FNqiRs7yQjeeQV5Fz93vTPa6X6Srg2Rw6
ywAb3GL0iGEIyU0FTef6HY+H2bQbZOyRjs1YZjP7ijc8kGfKBTBwf6Vo7uibhWss
tmY8I4phaZCRFu0McZNUzz+XjpDPLJGUvut3U69SGVLwuh+fsbSo06JKp1nHEcZl
szHmX0KV7Jm8JhEm4zi2usYXNSHiFbVZvUE4cdYcsqSeED/UH00z3wvrj3HW54BK
yz4ryuvEyqu75+p0g4BvDudUor8CAwEAAaOCAcgwggHEMA4GA1UdDwEB/wQEAwIC
pDAdBgNVHSUEFjAUBggrBgEFBQcDAgYIKwYBBQUHAwEwDwYDVR0TAQH/BAUwAwEB
/zBiBggrBgEFBQcBAQRWMFQwIQYIKwYBBQUHMAGGFWh0dHA6Ly90aGVjYS5uZXQv
b2NzcDAvBggrBgEFBQcwAoYjaHR0cDovL3RoZWNhLm5ldC90b3RhbGx5dGhlY2Vy
dC5jcnQwJwYDVR0gBCAwHjAKBggrBgEFBQcNATAIBgZngQwBAgIwBgYEVR0gADAN
BgNVHQ4EBgQEBAMCATAWBgNVHSMEDzANgAQBAgMEggUcvX2HVzAbBgNVHREEFDAS
gggqLmdvdi51c4IGZ292LnVzMD0GA1UdEgQ2MDSCEGFsbHRoZXRoaW5ncy5uZXSC
FWNybC5hbGx0aGVtdGhpbmdzLm5ldIIJdGhlY2EubmV0MDwGA1UdLgQ1MDMwMaAv
oC2GK2h0dHA6Ly9jcmwuYWxsdGhlbXRoaW5ncy5uZXQvc2ZpZzJzMS0xNy5jcmww
NAYDVR0hAQH/BCowKDAUBggrBgEFBQcNAQYIKwYBBQUHDQIwEAYEVR0gAAYIKwYB
BQUHDQMwDQYJKoZIhvcNAQELBQADggEBAHGkA05K6e0osKjnzQN91nmLKDv366/2
54KaHe3xmiCLOHKmSZcTMRT/nZuwZqFRDc/5OnGufZBW6b4YlyfA4E/9lLXN9mVS
ClUfQxzTapsUeEUdmn4F3zJUlPIBLRcipMCJGNKX4ChHbUmrdmUBe4eW+tAeb6Y/
RvRvQ6irfoSgSH3on0BfHP0KZFT2CYW1KpX826yrojRrxFjUyUEudL88+xNVbWOA
pT1bSmk26YiZApTW1VI4FSlwk/zfgKHoOPP/lzj/6jAZRxFD8Pmxc2U2b0h2GwpD
9yoFArHkXu4ga525aJ6IEodzMnIMU4R/BBviXP+ZA7q7skggHVqVS8s=
-----END CERTIFICATE-----
