Certificate:
    Data:
        Version: 3 (0x2)
        Serial Number: 18008675984 (0x431669690)
    Signature Algorithm: sha256WithRSAEncryption
        Issuer: C = US, O = Mother Nature, OU = Everything, CN = Mother Nature
        Validity
            Not Before: Jul 11 19:15:13 2016 GMT
            Not After : Sep 23 19:15:13 2016 GMT
        Subject: C = US, ST = FL, L = Tallahassee, street = 3210 Holly Mill Run, postalCode = 30062, O = Extreme Discord, OU = Chaos, CN = gov.us
        Subject Public Key Info:
            Public Key Algorithm: rsaEncryption
                Public-Key: (2048 bit)
                Modulus:
                    00:b3:b0:65:09:87:f6:b3:68:46:a6:9d:36:32:e8:
                    a2:18:37:21:07:46:e9:2a:b2:25:e6:0e:8d:19:e3:
                    18:b2:5a:2e:ef:e0:c3:1e:0c:43:9a:b4:3a:03:82:
                    fc:26:04:36:65:6b:22:da:33:b0:5b:7d:40:84:c8:
                    d9:f6:b4:8b:f7:4b:90:e4:d6:8a:cc:eb:a0:39:9e:
                    68:43:eb:3b:01:d0:ba:b8:d2:cc:54:8f:b3:4d:f4:
                    03:5f:d8:81:d6:26:20:6d:5c:9d:2e:bf:a6:a2:6e:
                    b5:c8:7d:31:92:42:b6:49:3e:7b:14:3a:15:a2:77:
                    48:e3:48:56:6b:45:d6:6f:15:1b:63:7c:ff:ac:78:
                    93:57:36:65:f4:2c:5d:27:8d:6d:1c:9f:02:ab:b8:
                    96:5a:bf:02:3d:b2:ad:dc:99:34:58:e9:e4:1e:51:
                    53:ad:10:ee:96:1d:ad:72:7a:e5:22:a4:8f:3a:06:
                    65:ca:6e:5e:35:39:ad:28:a3:00:47:47:90:d7:2e:
                    75:56:4b:18:80:e3:79:b4:3a:13:8c:d3:1d:9f:dc:
                    9b:a7:00:22:c4:0d:0e:87:d1:5b:e4:17:6c:4e:60:
                    af:aa:18:d2:23:49:77:ec:0c:0f:66:bb:ad:34:6d:
                    b3:74:a6:6a:50:5f:94:0f:f6:35:b2:6a:32:3c:85:
                    9e:ad
                Exponent: 65537 (0x10001)
        X509v3 extensions:
            X509v3 Key Usage: critical
                Digital Signature, Key Encipherment, Certificate Sign
            X509v3 Extended Key Usage: 
                TLS Web Client Authentication, TLS Web Server Authentication
            X509v3 Basic Constraints: critical
                CA:TRUE
            Authority Information Access: 
                OCSP - URI:http://theca.net/ocsp
                CA Issuers - URI:http://theca.net/totallythecert.crt

            X509v3 Certificate Policies: 
                Policy: 1.3.6.1.5.5.7.13.1
                Policy: 2.23.140.1.2.2
                Policy: X509v3 Any Policy

            X509v3 Subject Key Identifier: 
                04:03:02:01
            X509v3 Subject Alternative Name: 
                DNS:*.gov.us, DNS:gov.us
            X509v3 Issuer Alternative Name: 
                DNS:allthethings.net, DNS:allthemthings.net, DNS:theca.net
            X509v3 Authority Key Identifier: 
                keyid:01:02:03:04
                serial:1C:BD:7D:87:57

            X509v3 Freshest CRL: 

                Full Name:
                  URI:http://crl.allthemthings.net/sfig2s1-17.crl

            X509v3 Policy Mappings: critical
                1.3.6.1.5.5.7.13.1:1.3.6.1.5.5.7.13.2, 1.3.6.1.5.5.7.13.3:X509v3 Any Policy
    Signature Algorithm: sha256WithRSAEncryption
         31:87:cb:5d:81:37:bd:4d:0c:8d:d1:99:91:f0:71:4e:7e:cb:
         f5:c6:16:07:bc:01:f2:8e:aa:5f:e3:7c:b7:ff:44:7a:5c:ed:
         26:9b:42:21:69:cd:09:90:19:01:c5:9d:7d:bf:f8:20:27:cc:
         85:78:8d:2a:dc:b8:67:b2:99:40:b5:bd:2c:76:c8:46:5c:bb:
         f7:fa:77:94:f2:12:52:2a:62:17:9a:53:5e:59:72:2a:59:58:
         e0:bf:ca:0c:1c:71:c5:2f:1f:7d:62:28:04:e0:f2:a8:e7:10:
         de:f6:df:bb:4e:e6:61:7e:36:f6:72:a3:cd:54:f2:99:f9:83:
         5d:18:0a:8b:41:5c:34:4c:cc:44:fd:cd:fa:49:39:c6:7d:07:
         ee:59:b5:77:3f:1d:f3:9a:e6:d9:49:1f:ed:03:2b:c5:86:fa:
         75:9e:d4:6c:37:15:35:99:a3:a3:03:b4:be:ea:22:37:4b:7a:
         7f:ba:0b:b0:79:ca:89:0a:56:8f:35:be:c6:61:74:ec:85:6f:
         04:c5:d1:1d:f2:53:1d:0a:7c:71:99:e8:63:5a:85:83:d5:c2:
         aa:c7:65:b8:15:9e:91:92:cb:03:96:58:2b:9b:27:81:8c:3e:
         e0:4d:41:46:ef:f0:36:b4:cc:1f:09:fd:de:ef:b2:fe:21:8e:
         0f:88:cd:df
-----BEGIN CERTIFICATE-----
MIIFMTCCBBmgAwIBAgIFBDFmlpAwDQYJKoZIhvcNAQELBQAwUjELMAkGA1UEBhMC
VVMxFjAUBgNVBAoTDU1vdGhlciBOYXR1cmUxEzARBgNVBAsTCkV2ZXJ5dGhpbmcx
FjAUBgNVBAMTDU1vdGhlciBOYXR1cmUwHhcNMTYwNzExMTkxNTEzWhcNMTYwOTIz
MTkxNTEzWjCBmTELMAkGA1UEBhMCVVMxCzAJBgNVBAgTAkZMMRQwEgYDVQQHEwtU
YWxsYWhhc3NlZTEcMBoGA1UECRMTMzIxMCBIb2xseSBNaWxsIFJ1bjEOMAwGA1UE
ERMFMzAwNjIxGDAWBgNVBAoTD0V4dHJlbWUgRGlzY29yZDEOMAwGA1UECxMFQ2hh
b3MxDzANBgNVBAMTBmdvdi51czCCASIwDQYJKoZIhvcNAQEBBQADggEPADCCAQoC
ggEBALOwZQmH9rNoRqadNjLoohg3IQdG6SqyJeYOjRnjGLJaLu/gwx4MQ5q0OgOC
/CYENmVrItozsFt9QITI2fa0i/dLkOTWiszroDmeaEPrOwHQurjSzFSPs030A1/Y
gdYmIG1cnS6/pqJutch9MZJCtkk+exQ6FaJ3SONIVmtF1m8VG2N8/6x4k1c2ZfQs
XSeNbRyfAqu4llq/Aj2yrdyZNFjp5B5RU60Q7pYdrXJ65SKkjzoGZcpuXjU5rSij
AEdHkNcudVZLGIDjebQ6E4zTHZ/cm6cAIsQNDofRW+QXbE5gr6oY0iNJd+wMD2a7
rTRts3SmalBflA/2NbJqMjyFnq0CAwEAAaOCAcQwggHAMA4GA1UdDwEB/wQEAwIC
pDAdBgNVHSUEFjAUBggrBgEFBQcDAgYIKwYBBQUHAwEwDwYDVR0TAQH/BAUwAwEB
/zBiBggrBgEFBQcBAQRWMFQwIQYIKwYBBQUHMAGGFWh0dHA6Ly90aGVjYS5uZXQv
b2NzcDAvBggrBgEFBQcwAoYjaHR0cDovL3RoZWNhLm5ldC90b3RhbGx5dGhlY2Vy
dC5jcnQwJwYDVR0gBCAwHjAKBggrBgEFBQcNATAIBgZngQwBAgIwBgYEVR0gADAN
BgNVHQ4EBgQEBAMCATAbBgNVHREEFDASgggqLmdvdi51c4IGZ292LnVzMDkGA1Ud
EgQyMDCCEGFsbHRoZXRoaW5ncy5uZXSCEWFsbHRoZW10aGluZ3MubmV0ggl0aGVj
YS5uZXQwFgYDVR0jBA8wDYAEAQIDBIIFHL19h1cwPAYDVR0uBDUwMzAxoC+gLYYr
aHR0cDovL2NybC5hbGx0aGVtdGhpbmdzLm5ldC9zZmlnMnMxLTE3LmNybDA0BgNV
HSEBAf8EKjAoMBQGCCsGAQUFBw0BBggrBgEFBQcNAjAQBggrBgEFBQcNAwYEVR0g
ADANBgkqhkiG9w0BAQsFAAOCAQEAMYfLXYE3vU0MjdGZkfBxTn7L9cYWB7wB8o6q
X+N8t/9EelztJptCIWnNCZAZAcWdfb/4ICfMhXiNKty4Z7KZQLW9LHbIRly79/p3
lPISUipiF5pTXllyKllY4L/KDBxxxS8ffWIoBODyqOcQ3vbfu07mYX429nKjzVTy
mfmDXRgKi0FcNEzMRP3N+kk5xn0H7lm1dz8d85rm2Ukf7QMrxYb6dZ7UbDcVNZmj
owO0vuoiN0t6f7oLsHnKiQpWjzW+xmF07IVvBMXRHfJTHQp8cZnoY1qFg9XCqsdl
uBWekZLLA5ZYK5sngYw+4E1BRu/wNrTMHwn93u+y/iGOD4jN3w==
-----END CERTIFICATE-----
