Certificate:
    Data:
        Version: 3 (0x2)
        Serial Number: 18008675984 (0x431669690)
    Signature Algorithm: sha256WithRSAEncryption
        Issuer: C = US, O = Mother Nature, OU = Everything, CN = Mother Nature
        Validity
            Not Before: Jul  8 23:25:40 2016 GMT
            Not After : Sep 20 23:25:40 2016 GMT
        Subject: C = US, ST = FL, L = Tallahassee, street = 3210 Holly Mill Run, postalCode = 30062, O = Extreme Discord, OU = Chaos, CN = gov.us
        Subject Public Key Info:
            Public Key Algorithm: rsaEncryption
                Public-Key: (2048 bit)
                Modulus:
                    00:a2:86:99:4d:28:c8:ca:dc:98:e3:af:40:94:42:
                    ea:ce:7d:e7:73:4f:d0:89:62:3a:2b:ef:1f:2b:0f:
                    41:c7:6e:3e:17:8f:85:ff:95:32:cc:b3:2f:7a:43:
                    85:18:64:79:47:1b:49:5f:bb:32:ec:30:45:74:47:
                    43:0f:16:82:8f:d6:4e:f0:89:60:f0:12:e1:98:e1:
                    e0:89:14:f9:90:de:a8:7f:20:b1:6c:ff:c1:d7:8e:
                    0d:c4:a2:35:e7:12:95:5e:12:83:83:c3:56:40:c3:
                    fd:37:b8:76:65:28:36:2f:64:5c:86:f4:8f:93:9f:
                    bc:5e:fb:19:e6:07:50:41:f0:b5:31:7b:9d:84:13:
                    0a:c8:dd:41:5b:9f:93:7c:af:e0:e1:52:0d:12:ef:
                    e8:c3:a0:98:63:05:fe:2c:c2:42:72:11:70:fa:6a:
                    2b:36:b3:a8:df:24:dd:5e:21:de:36:a8:59:39:de:
                    d8:96:ac:19:ee:15:3d:99:4d:98:dc:50:00:e1:68:
                    49:f2:44:6e:eb:5b:fb:7e:a7:33:77:34:e9:34:36:
                    32:70:77:a4:64:03:d1:6f:05:08:65:ae:76:9b:c7:
                    96:19:53:6b:4a:65:ee:29:a7:08:42:ec:32:e4:7f:
                    38:a8:2e:54:7d:35:68:05:1b:cb:7e:ed:bb:77:99:
                    d6:cd
                Exponent: 65537 (0x10001)
        X509v3 extensions:
            X509v3 Key Usage: critical
                Digital Signature, Key Encipherment, Certificate Sign
            X509v3 Extended Key Usage: 
                TLS Web Client Authentication, TLS Web Server Authentication
            X509v3 Basic Constraints: critical
                CA:TRUE
            Authority Information Access: 
                OCSP - URI:http://theca.net/ocsp
                CA Issuers - URI:http://theca.net/totallythecert.crt

            X509v3 Certificate Policies: 
                Policy: 1.3.6.1.5.5.7.13.1
                Policy: 2.23.140.1.2.2

            X509v3 Subject Key Identifier: 
                04:03:02:01
            X509v3 Subject Alternative Name: 
                DNS:*.gov.us, DNS:gov.us
            X509v3 Issuer Alternative Name: 
                DNS:allthethings.net, DNS:allthemthings.net, DNS:theca.net
            X509v3 Authority Key Identifier: 
                keyid:01:02:03:04
                serial:1C:BD:7D:87:57

            X509v3 Freshest CRL: 

                Full Name:
                  URI:http://crl.allthemthings.net/sfig2s1-17.crl

            X509v3 Policy Mappings: 
                1.3.6.1.5.5.7.13.1:1.3.6.1.5.5.7.13.2, 2.23.140.1.2.2:1.3.6.1.5.5.7.13.3
    Signature Algorithm: sha256WithRSAEncryption
         66:f7:5d:3f:55:a8:06:a7:95:3f:f0:1b:b0:8b:d5:31:65:e7:
         f3:8a:64:6f:4e:5e:75:c7:b6:0e:9a:64:12:92:05:61:ea:0e:
         9c:cb:cc:47:36:d5:52:20:93:76:54:0f:bf:54:a0:52:06:0f:
         63:55:82:03:7c:8b:07:9f:dd:a0:b7:97:8b:c7:be:41:19:f8:
         f3:a2:59:9e:b4:78:8f:89:11:7c:08:fb:c7:0d:1a:f2:e3:09:
         6a:47:11:a3:42:d9:cf:3d:4c:b3:a8:6a:12:45:7f:3c:80:c9:
         1d:79:3c:6e:1c:6b:4b:87:e5:9b:34:1e:22:e0:9e:3e:eb:d2:
         19:e8:42:94:64:ec:8d:3f:33:08:7d:39:fb:ff:84:2a:ae:b3:
         b2:14:11:70:3e:62:04:71:88:49:dc:36:d7:25:65:22:20:4c:
         ac:4a:85:54:c7:99:8d:85:25:59:6f:58:d7:e0:8b:6a:84:5c:
         08:91:6a:47:8f:80:dd:44:b0:12:cb:e7:06:85:7d:4b:39:ba:
         c0:f3:4b:77:45:0d:b9:2a:d8:0f:6b:38:9f:92:c0:dd:2d:f0:
         99:a4:62:90:20:b2:7e:85:2c:8d:fb:e1:85:3b:f0:68:1d:36:
         74:e4:2e:3d:ad:01:dd:a8:d6:bd:66:ee:65:c0:f5:ef:f7:0c:
         32:81:5e:dd
-----BEGIN CERTIFICATE-----
MIIFKDCCBBCgAwIBAgIFBDFmlpAwDQYJKoZIhvcNAQELBQAwUjELMAkGA1UEBhMC
VVMxFjAUBgNVBAoTDU1vdGhlciBOYXR1cmUxEzARBgNVBAsTCkV2ZXJ5dGhpbmcx
FjAUBgNVBAMTDU1vdGhlciBOYXR1cmUwHhcNMTYwNzA4MjMyNTQwWhcNMTYwOTIw
MjMyNTQwWjCBmTELMAkGA1UEBhMCVVMxCzAJBgNVBAgTAkZMMRQwEgYDVQQHEwtU
YWxsYWhhc3NlZTEcMBoGA1UECRMTMzIxMCBIb2xseSBNaWxsIFJ1bjEOMAwGA1UE
ERMFMzAwNjIxGDAWBgNVBAoTD0V4dHJlbWUgRGlzY29yZDEOMAwGA1UECxMFQ2hh
b3MxDzANBgNVBAMTBmdvdi51czCCASIwDQYJKoZIhvcNAQEBBQADggEPADCCAQoC
ggEBAKKGmU0oyMrcmOOvQJRC6s5953NP0IliOivvHysPQcduPhePhf+VMsyzL3pD
hRhkeUcbSV+7MuwwRXRHQw8Wgo/WTvCJYPAS4Zjh4IkU+ZDeqH8gsWz/wdeODcSi
NecSlV4Sg4PDVkDD/Te4dmUoNi9kXIb0j5OfvF77GeYHUEHwtTF7nYQTCsjdQVuf
k3yv4OFSDRLv6MOgmGMF/izCQnIRcPpqKzazqN8k3V4h3jaoWTne2JasGe4VPZlN
mNxQAOFoSfJEbutb+36nM3c06TQ2MnB3pGQD0W8FCGWudpvHlhlTa0pl7imnCELs
MuR/OKguVH01aAUby37tu3eZ1s0CAwEAAaOCAbswggG3MA4GA1UdDwEB/wQEAwIC
pDAdBgNVHSUEFjAUBggrBgEFBQcDAgYIKwYBBQUHAwEwDwYDVR0TAQH/BAUwAwEB
/zBiBggrBgEFBQcBAQRWMFQwIQYIKwYBBQUHMAGGFWh0dHA6Ly90aGVjYS5uZXQv
b2NzcDAvBggrBgEFBQcwAoYjaHR0cDovL3RoZWNhLm5ldC90b3RhbGx5dGhlY2Vy
dC5jcnQwHwYDVR0gBBgwFjAKBggrBgEFBQcNATAIBgZngQwBAgIwDQYDVR0OBAYE
BAQDAgEwGwYDVR0RBBQwEoIIKi5nb3YudXOCBmdvdi51czA5BgNVHRIEMjAwghBh
bGx0aGV0aGluZ3MubmV0ghFhbGx0aGVtdGhpbmdzLm5ldIIJdGhlY2EubmV0MBYG
A1UdIwQPMA2ABAECAwSCBRy9fYdXMDwGA1UdLgQ1MDMwMaAvoC2GK2h0dHA6Ly9j
cmwuYWxsdGhlbXRoaW5ncy5uZXQvc2ZpZzJzMS0xNy5jcmwwMwYDVR0hBCwwKjAU
BggrBgEFBQcNAQYIKwYBBQUHDQIwEgYGZ4EMAQICBggrBgEFBQcNAzANBgkqhkiG
9w0BAQsFAAOCAQEAZvddP1WoBqeVP/AbsIvVMWXn84pkb05edce2DppkEpIFYeoO
nMvMRzbVUiCTdlQPv1SgUgYPY1WCA3yLB5/doLeXi8e+QRn486JZnrR4j4kRfAj7
xw0a8uMJakcRo0LZzz1Ms6hqEkV/PIDJHXk8bhxrS4flmzQeIuCePuvSGehClGTs
jT8zCH05+/+EKq6zshQRcD5iBHGISdw21yVlIiBMrEqFVMeZjYUlWW9Y1+CLaoRc
CJFqR4+A3USwEsvnBoV9Szm6wPNLd0UNuSrYD2s4n5LA3S3wmaRikCCyfoUsjfvh
hTvwaB02dOQuPa0B3ajWvWbuZcD17/cMMoFe3Q==
-----END CERTIFICATE-----
