Certificate:
    Data:
        Version: 3 (0x2)
        Serial Number: 18008675309 (0x4316693ed)
    Signature Algorithm: sha256WithRSAEncryption
        Issuer: C = US, O = Mother Nature, OU = Everything, CN = Mother Nature
        Validity
            Not Before: Jun 30 19:52:34 2016 GMT
            Not After : Sep 11 19:52:34 2016 GMT
        Subject: C = US, O = Extreme Discord, OU = Chaos, L = Tallahassee, ST = FL, street = 3210 Holly Mill Run, postalCode = 30062, CN = gov.us
        Subject Public Key Info:
            Public Key Algorithm: rsaEncryption
                Public-Key: (2048 bit)
                Modulus:
                    00:bb:a5:09:33:2e:80:fc:cd:97:2a:7b:16:9d:f0:
                    01:1a:85:6f:2f:d3:f3:5c:bd:d6:a6:b2:cb:ce:a7:
                    63:35:1a:9d:e7:07:ca:c1:a9:27:c0:ad:b1:20:11:
                    a9:10:64:ba:fe:a2:dc:ae:35:bf:9f:4b:3a:74:51:
                    ce:d4:ad:c7:ac:fb:3b:18:fa:7b:7e:88:50:18:8c:
                    40:c9:63:4b:d5:ca:32:0c:41:ab:fa:7c:d0:94:92:
                    30:c0:eb:2e:58:3b:21:d4:10:d3:f2:83:f2:d6:cc:
                    01:40:fb:88:67:89:33:01:af:c1:53:4a:dc:ad:e8:
                    c9:40:3a:e2:80:3f:72:92:93:24:14:12:6c:df:49:
                    e4:05:6d:b7:0b:09:62:67:57:ab:1f:b2:40:cb:bd:
                    d7:48:17:c5:0b:7b:ef:e8:9a:69:db:ed:83:19:9b:
                    c0:26:6e:df:a5:0b:b2:fd:0f:ae:48:83:8e:a2:19:
                    7a:e5:81:b4:1b:af:c8:5d:ed:4a:e7:ee:c0:66:82:
                    31:00:6e:e7:e1:ad:06:25:fe:f4:f9:7a:e4:70:09:
                    ea:5d:6d:db:07:72:8d:af:f7:9a:87:40:98:6f:81:
                    cb:30:b9:4f:ce:6f:ef:b5:e5:e1:65:81:b3:8f:51:
                    4b:09:31:f6:2b:00:f0:cb:c6:d4:92:ec:07:8a:de:
                    38:b3
                Exponent: 65537 (0x10001)
        X509v3 extensions:
            X509v3 Key Usage: critical
                Digital Signature, Key Encipherment
            X509v3 Extended Key Usage: 
                TLS Web Client Authentication, TLS Web Server Authentication
            X509v3 Basic Constraints: critical
                CA:FALSE
            X509v3 Authority Key Identifier: 
                keyid:01:02:03

            Authority Information Access: 
                OCSP - URI:http://theca.net/ocsp
                CA Issuers - URI:http://theca.net/totallythecert.crt

            X509v3 Certificate Policies: 
                Policy: 2.23.140.1.2.2

            X509v3 Subject Key Identifier: 
                04:03:02:01
            X509v3 Subject Alternative Name: 
                DNS:*.gov.us, DNS:gov.us
    Signature Algorithm: sha256WithRSAEncryption
         27:bc:f1:94:e8:44:74:29:16:da:ee:64:9f:14:16:1d:c4:d6:
         d4:6e:3f:ac:ce:98:d1:4f:4e:e3:02:06:9a:29:09:c4:e4:68:
         01:f5:24:e3:e6:de:36:b9:81:7b:dd:b2:e2:2a:a5:8d:5a:1d:
         35:69:a9:29:7f:58:73:7a:68:2f:02:3d:b7:3e:c5:3f:e7:ca:
         ef:59:c3:89:35:e2:77:05:c5:89:59:e4:13:e2:25:0b:c5:7a:
         52:a8:9c:c7:96:50:da:61:9e:ae:0f:f0:2f:30:08:71:25:e8:
         26:00:fd:37:c5:a5:de:8b:4e:84:b3:9d:4f:f8:96:1e:fd:4f:
         14:c9:63:9c:92:7d:6a:8d:6f:86:3f:76:e1:e6:c8:ea:d0:5b:
         96:83:ce:96:30:7c:b1:ed:ba:f7:87:02:60:56:43:dc:0d:e7:
         ea:09:a3:dc:1f:45:a1:3b:41:84:df:dd:3c:da:95:cd:c1:be:
         d1:d8:da:25:9a:36:47:1e:c0:b9:14:b7:2a:67:0b:af:3c:4d:
         fd:23:88:cb:03:f6:2e:63:4f:b8:5a:39:51:15:6e:33:d4:c6:
         e1:d3:2d:ee:d3:4a:e7:cb:ad:44:69:74:15:71:76:82:88:7f:
         7c:e8:72:1b:d8:fb:2b:6f:a1:02:1a:4b:94:ad:2c:b4:b3:4c:
         8f:3d:1a:04
-----BEGIN CERTIFICATE-----
MIIEYTCCA0mgAwIBAgIFBDFmk+0wDQYJKoZIhvcNAQELBQAwUjELMAkGA1UEBhMC
VVMxFjAUBgNVBAoTDU1vdGhlciBOYXR1cmUxEzARBgNVBAsTCkV2ZXJ5dGhpbmcx
FjAUBgNVBAMTDU1vdGhlciBOYXR1cmUwHhcNMTYwNjMwMTk1MjM0WhcNMTYwOTEx
MTk1MjM0WjCBmTELMAkGA1UEBhMCVVMxGDAWBgNVBAoTD0V4dHJlbWUgRGlzY29y
ZDEOMAwGA1UECxMFQ2hhb3MxFDASBgNVBAcTC1RhbGxhaGFzc2VlMQswCQYDVQQI
EwJGTDEcMBoGA1UECRMTMzIxMCBIb2xseSBNaWxsIFJ1bjEOMAwGA1UEERMFMzAw
NjIxDzANBgNVBAMTBmdvdi51czCCASIwDQYJKoZIhvcNAQEBBQADggEPADCCAQoC
ggEBALulCTMugPzNlyp7Fp3wARqFby/T81y91qayy86nYzUanecHysGpJ8CtsSAR
qRBkuv6i3K41v59LOnRRztStx6z7Oxj6e36IUBiMQMljS9XKMgxBq/p80JSSMMDr
Llg7IdQQ0/KD8tbMAUD7iGeJMwGvwVNK3K3oyUA64oA/cpKTJBQSbN9J5AVttwsJ
YmdXqx+yQMu910gXxQt77+iaadvtgxmbwCZu36ULsv0PrkiDjqIZeuWBtBuvyF3t
SufuwGaCMQBu5+GtBiX+9Pl65HAJ6l1t2wdyja/3modAmG+ByzC5T85v77Xl4WWB
s49RSwkx9isA8MvG1JLsB4reOLMCAwEAAaOB9TCB8jAOBgNVHQ8BAf8EBAMCBaAw
HQYDVR0lBBYwFAYIKwYBBQUHAwIGCCsGAQUFBwMBMAwGA1UdEwEB/wQCMAAwDgYD
VR0jBAcwBYADAQIDMGIGCCsGAQUFBwEBBFYwVDAhBggrBgEFBQcwAYYVaHR0cDov
L3RoZWNhLm5ldC9vY3NwMC8GCCsGAQUFBzAChiNodHRwOi8vdGhlY2EubmV0L3Rv
dGFsbHl0aGVjZXJ0LmNydDATBgNVHSAEDDAKMAgGBmeBDAECAjANBgNVHQ4EBgQE
BAMCATAbBgNVHREEFDASgggqLmdvdi51c4IGZ292LnVzMA0GCSqGSIb3DQEBCwUA
A4IBAQAnvPGU6ER0KRba7mSfFBYdxNbUbj+szpjRT07jAgaaKQnE5GgB9STj5t42
uYF73bLiKqWNWh01aakpf1hzemgvAj23PsU/58rvWcOJNeJ3BcWJWeQT4iULxXpS
qJzHllDaYZ6uD/AvMAhxJegmAP03xaXei06Es51P+JYe/U8UyWOckn1qjW+GP3bh
5sjq0FuWg86WMHyx7br3hwJgVkPcDefqCaPcH0WhO0GE39082pXNwb7R2NolmjZH
HsC5FLcqZwuvPE39I4jLA/YuY0+4WjlRFW4z1Mbh0y3u00rny61EaXQVcXaCiH98
6HIb2Psrb6ECGkuUrSy0s0yPPRoE
-----END CERTIFICATE-----
