Certificate:
    Data:
        Version: 3 (0x2)
        Serial Number: 18008675309 (0x4316693ed)
    Signature Algorithm: sha256WithRSAEncryption
        Issuer: C = US, O = Mother Nature, OU = Everything, CN = Mother Nature
        Validity
            Not Before: Jun 30 19:48:56 2016 GMT
            Not After : Sep 11 19:48:56 2016 GMT
        Subject: C = US, O = Extreme Discord, OU = Chaos, L = Tallahassee, ST = FL, street = 3210 Holly Mill Run, postalCode = 30062, CN = gov.us
        Subject Public Key Info:
            Public Key Algorithm: rsaEncryption
                Public-Key: (2048 bit)
                Modulus:
                    00:c2:3c:c1:78:f7:4c:09:dc:41:b2:27:01:d1:64:
                    0e:8d:67:57:2d:73:a5:23:f3:97:44:f6:3f:7a:39:
                    15:59:36:00:87:2d:6b:04:dd:41:5a:56:17:56:01:
                    09:1e:97:80:5a:39:0e:60:9a:73:b2:33:05:f2:e8:
                    d9:41:0b:15:a4:26:0f:df:31:3f:e7:03:56:eb:bf:
                    34:8d:b7:05:36:84:64:ad:0c:67:a9:2f:b0:67:b5:
                    82:18:bf:13:52:3b:1f:c0:d7:dd:33:69:96:a3:41:
                    1d:50:91:f9:84:e5:ea:6e:e0:5e:ba:5b:60:f6:ae:
                    6a:a5:0f:ac:5e:02:f4:e0:e9:bc:fb:38:59:14:51:
                    20:fb:aa:51:b3:d4:f8:c0:33:7d:6b:29:19:88:67:
                    9e:75:0a:8e:d2:31:c8:c9:8a:59:ed:74:e0:49:5b:
                    3d:0a:86:c5:03:ff:cd:5d:af:f9:88:dc:e4:08:92:
                    de:2b:14:9a:94:f0:92:20:28:06:6e:07:19:3f:66:
                    87:76:7f:e2:95:27:dc:9c:2d:9b:15:54:d9:12:2c:
                    11:95:e0:e3:e4:5b:65:53:40:25:7a:18:eb:ef:cf:
                    37:b2:b7:aa:a7:5a:cf:d4:03:14:fc:07:87:ad:1f:
                    be:8e:05:29:00:37:8d:f8:3f:84:40:8a:04:ed:9b:
                    c9:c7
                Exponent: 65537 (0x10001)
        X509v3 extensions:
            X509v3 Key Usage: critical
                Digital Signature, Key Encipherment
            X509v3 Extended Key Usage: 
                TLS Web Client Authentication, TLS Web Server Authentication
            X509v3 Basic Constraints: critical
                CA:FALSE
            X509v3 Authority Key Identifier: 
                keyid:01:02:03

            Authority Information Access: 
                OCSP - URI:http://theca.net/ocsp
                CA Issuers - URI:http://theca.net/totallythecert.crt

            X509v3 Certificate Policies: 
                Policy: 2.23.140.1.2.2

            X509v3 Subject Key Identifier: 
                04:03:02:01
            X509v3 Subject Alternative Name: 
                DNS:*.gov.us, DNS:gov.us
    Signature Algorithm: sha256WithRSAEncryption
         0b:a2:f7:4c:5a:81:f3:e0:d0:3d:2c:8a:12:6a:76:f0:69:a4:
         d5:cf:70:f3:94:f6:36:ce:f0:56:f4:d2:b6:06:18:9b:0d:c7:
         4b:d3:48:6e:87:cc:d6:02:ad:1c:8d:0e:b0:92:0f:d9:f4:97:
         e6:e7:26:9b:53:2a:89:2d:61:dd:03:21:1b:f0:ad:c3:7c:d5:
         92:20:2e:63:7d:9a:52:91:84:55:5b:d7:34:27:2f:85:a9:94:
         9a:2d:7b:e0:b5:21:03:35:0f:fe:a3:f2:97:22:10:b3:09:0b:
         ce:2d:d1:4d:a3:c1:c2:01:f7:98:b6:d2:0e:c1:e9:4d:03:b2:
         75:a5:c6:d0:0d:ba:2c:9c:80:0d:08:b0:64:47:95:29:4e:1e:
         32:03:e8:8d:fd:40:17:a5:5d:60:84:12:cb:aa:ec:79:8a:af:
         83:3b:02:31:ba:52:48:e1:e2:78:67:ca:1c:ce:f0:ce:4e:2e:
         38:f9:72:39:74:67:c2:10:60:08:b9:57:79:4a:d5:72:d0:12:
         0e:28:da:15:41:d6:df:e4:c4:38:fc:c4:51:16:f2:39:8c:f3:
         db:01:5e:e7:0b:18:b0:59:a4:8f:b5:43:22:1d:47:9f:e7:7e:
         1f:40:c6:39:c2:79:cd:30:71:fe:14:ab:ef:fa:0f:a9:ec:8c:
         cb:4c:8c:c1
-----BEGIN CERTIFICATE-----
MIIEYTCCA0mgAwIBAgIFBDFmk+0wDQYJKoZIhvcNAQELBQAwUjELMAkGA1UEBhMC
VVMxFjAUBgNVBAoTDU1vdGhlciBOYXR1cmUxEzARBgNVBAsTCkV2ZXJ5dGhpbmcx
FjAUBgNVBAMTDU1vdGhlciBOYXR1cmUwHhcNMTYwNjMwMTk0ODU2WhcNMTYwOTEx
MTk0ODU2WjCBmTELMAkGA1UEBhMCVVMxGDAWBgNVBAoTD0V4dHJlbWUgRGlzY29y
ZDEOMAwGA1UECxMFQ2hhb3MxFDASBgNVBAcTC1RhbGxhaGFzc2VlMQswCQYDVQQI
EwJGTDEcMBoGA1UECRMTMzIxMCBIb2xseSBNaWxsIFJ1bjEOMAwGA1UEERMFMzAw
NjIxDzANBgNVBAMTBmdvdi51czCCASIwDQYJKoZIhvcNAQEBBQADggEPADCCAQoC
ggEBAMI8wXj3TAncQbInAdFkDo1nVy1zpSPzl0T2P3o5FVk2AIctawTdQVpWF1YB
CR6XgFo5DmCac7IzBfLo2UELFaQmD98xP+cDVuu/NI23BTaEZK0MZ6kvsGe1ghi/
E1I7H8DX3TNplqNBHVCR+YTl6m7gXrpbYPauaqUPrF4C9ODpvPs4WRRRIPuqUbPU
+MAzfWspGYhnnnUKjtIxyMmKWe104ElbPQqGxQP/zV2v+Yjc5AiS3isUmpTwkiAo
Bm4HGT9mh3Z/4pUn3JwtmxVU2RIsEZXg4+RbZVNAJXoY6+/PN7K3qqdaz9QDFPwH
h60fvo4FKQA3jfg/hECKBO2byccCAwEAAaOB9TCB8jAOBgNVHQ8BAf8EBAMCBaAw
HQYDVR0lBBYwFAYIKwYBBQUHAwIGCCsGAQUFBwMBMAwGA1UdEwEB/wQCMAAwDgYD
VR0jBAcwBYADAQIDMGIGCCsGAQUFBwEBBFYwVDAhBggrBgEFBQcwAYYVaHR0cDov
L3RoZWNhLm5ldC9vY3NwMC8GCCsGAQUFBzAChiNodHRwOi8vdGhlY2EubmV0L3Rv
dGFsbHl0aGVjZXJ0LmNydDATBgNVHSAEDDAKMAgGBmeBDAECAjANBgNVHQ4EBgQE
BAMCATAbBgNVHREEFDASgggqLmdvdi51c4IGZ292LnVzMA0GCSqGSIb3DQEBCwUA
A4IBAQALovdMWoHz4NA9LIoSanbwaaTVz3DzlPY2zvBW9NK2BhibDcdL00huh8zW
Aq0cjQ6wkg/Z9Jfm5yabUyqJLWHdAyEb8K3DfNWSIC5jfZpSkYRVW9c0Jy+FqZSa
LXvgtSEDNQ/+o/KXIhCzCQvOLdFNo8HCAfeYttIOwelNA7J1pcbQDbosnIANCLBk
R5UpTh4yA+iN/UAXpV1ghBLLqux5iq+DOwIxulJI4eJ4Z8oczvDOTi44+XI5dGfC
EGAIuVd5StVy0BIOKNoVQdbf5MQ4/MRRFvI5jPPbAV7nCxiwWaSPtUMiHUef534f
QMY5wnnNMHH+FKvv+g+p7IzLTIzB
-----END CERTIFICATE-----
