Certificate:
    Data:
        Version: 3 (0x2)
        Serial Number: 18008675309 (0x4316693ed)
    Signature Algorithm: sha256WithRSAEncryption
        Issuer: C = US, O = Mother Nature, OU = Everything, CN = Mother Nature
        Validity
            Not Before: Jun 30 19:45:34 2016 GMT
            Not After : Sep 11 19:45:34 2016 GMT
        Subject: C = US, OU = Chaos, L = Tallahassee, ST = FL, street = 3210 Holly Mill Run, postalCode = 30062, CN = gov.us
        Subject Public Key Info:
            Public Key Algorithm: rsaEncryption
                Public-Key: (2048 bit)
                Modulus:
                    00:ec:10:cf:d6:b3:ce:20:01:7d:3d:d1:a6:f9:5d:
                    e1:79:52:7f:f0:d5:32:e7:c0:bf:df:01:cb:05:78:
                    ae:bd:09:47:53:7c:a6:6e:93:17:39:fa:d9:4a:23:
                    7f:8a:e6:e9:03:38:5e:4d:bd:e3:7b:a9:f4:de:83:
                    31:99:61:a8:6d:94:24:12:0f:b5:dc:d1:43:64:7f:
                    ae:4e:e1:c4:bc:a9:7d:20:55:bd:2f:42:c7:a4:af:
                    56:52:c0:01:f1:8e:88:59:60:b4:86:03:d3:d3:7c:
                    50:05:0f:d3:46:fd:3f:78:ed:1e:d0:c8:d9:84:df:
                    92:8f:d0:2a:fd:11:89:7a:d7:63:36:8d:c8:14:6d:
                    5f:6d:a8:05:d7:25:16:58:a7:51:40:d8:de:35:c8:
                    96:42:29:55:d3:c2:b4:f5:09:00:0f:1f:18:14:de:
                    62:b6:68:34:8f:23:f2:5c:4b:ea:ac:8b:09:f8:e4:
                    b8:a4:03:fd:c7:47:e6:c2:73:0f:24:28:87:7b:ac:
                    d9:b2:c4:91:d0:92:d8:e7:be:c3:cf:70:c0:6b:45:
                    db:36:f5:47:e6:dd:30:b7:e8:e4:d7:05:5f:a3:a4:
                    df:30:1e:8f:9c:48:99:b0:bc:ec:b9:47:1f:74:5f:
                    f4:76:1b:a3:67:29:43:e3:d3:b7:ec:e6:39:12:27:
                    ee:99
                Exponent: 65537 (0x10001)
        X509v3 extensions:
            X509v3 Key Usage: critical
                Digital Signature, Key Encipherment
            X509v3 Extended Key Usage: 
                TLS Web Client Authentication, TLS Web Server Authentication
            X509v3 Basic Constraints: critical
                CA:FALSE
            X509v3 Authority Key Identifier: 
                keyid:01:02:03

            Authority Information Access: 
                OCSP - URI:http://theca.net/ocsp
                CA Issuers - URI:http://theca.net/totallythecert.crt

            X509v3 Certificate Policies: 
                Policy: 2.23.140.1.2.2

            X509v3 Subject Key Identifier: 
                04:03:02:01
            X509v3 Subject Alternative Name: 
                DNS:*.gov.us, DNS:gov.us
    Signature Algorithm: sha256WithRSAEncryption
         60:19:43:38:19:c4:59:ad:92:55:c1:60:4b:66:bd:ef:7c:98:
         bf:9a:6b:4f:cd:e2:db:bf:44:d6:26:47:49:e7:6e:c5:5e:22:
         ce:d0:3d:1b:e2:fd:a2:94:81:3c:4c:99:b6:27:d6:33:bb:dd:
         25:f0:1c:60:c8:87:da:8d:34:e0:1c:b6:91:9d:df:b2:0d:b1:
         f5:7f:c1:13:27:c3:b0:6b:2e:22:c9:ae:df:09:7a:86:56:e9:
         e7:0e:76:3d:47:91:2d:6f:8c:7c:60:44:17:67:cf:9e:31:09:
         c6:89:25:0c:33:e3:1b:7b:25:32:a7:01:bd:a8:24:bf:db:df:
         c6:fb:f8:a9:35:a0:56:54:ab:9b:aa:fb:d1:b0:40:67:37:bb:
         bd:44:1c:25:85:2d:28:4d:66:1b:f1:6d:2d:70:49:93:f7:c1:
         55:86:23:0a:76:c7:9c:14:f3:ee:91:cc:3f:4e:6d:ee:ad:43:
         dd:77:48:7c:ee:ee:ae:47:42:e1:a0:90:a3:56:09:1e:7b:81:
         d1:6e:d0:14:34:e4:28:70:23:ab:2e:10:c3:d1:a2:11:de:0b:
         22:bf:13:c6:f5:9d:50:65:bd:b1:c5:5e:e8:1f:b2:bf:9a:2b:
         cb:0f:d4:c4:5f:36:74:da:9f:87:63:bd:ac:85:28:1d:aa:31:
         63:5a:b9:f3
-----BEGIN CERTIFICATE-----
MIIERjCCAy6gAwIBAgIFBDFmk+0wDQYJKoZIhvcNAQELBQAwUjELMAkGA1UEBhMC
VVMxFjAUBgNVBAoTDU1vdGhlciBOYXR1cmUxEzARBgNVBAsTCkV2ZXJ5dGhpbmcx
FjAUBgNVBAMTDU1vdGhlciBOYXR1cmUwHhcNMTYwNjMwMTk0NTM0WhcNMTYwOTEx
MTk0NTM0WjB/MQswCQYDVQQGEwJVUzEOMAwGA1UECxMFQ2hhb3MxFDASBgNVBAcT
C1RhbGxhaGFzc2VlMQswCQYDVQQIEwJGTDEcMBoGA1UECRMTMzIxMCBIb2xseSBN
aWxsIFJ1bjEOMAwGA1UEERMFMzAwNjIxDzANBgNVBAMTBmdvdi51czCCASIwDQYJ
KoZIhvcNAQEBBQADggEPADCCAQoCggEBAOwQz9azziABfT3Rpvld4XlSf/DVMufA
v98BywV4rr0JR1N8pm6TFzn62Uojf4rm6QM4Xk2943up9N6DMZlhqG2UJBIPtdzR
Q2R/rk7hxLypfSBVvS9Cx6SvVlLAAfGOiFlgtIYD09N8UAUP00b9P3jtHtDI2YTf
ko/QKv0RiXrXYzaNyBRtX22oBdclFlinUUDY3jXIlkIpVdPCtPUJAA8fGBTeYrZo
NI8j8lxL6qyLCfjkuKQD/cdH5sJzDyQoh3us2bLEkdCS2Oe+w89wwGtF2zb1R+bd
MLfo5NcFX6Ok3zAej5xImbC87LlHH3Rf9HYbo2cpQ+PTt+zmORIn7pkCAwEAAaOB
9TCB8jAOBgNVHQ8BAf8EBAMCBaAwHQYDVR0lBBYwFAYIKwYBBQUHAwIGCCsGAQUF
BwMBMAwGA1UdEwEB/wQCMAAwDgYDVR0jBAcwBYADAQIDMGIGCCsGAQUFBwEBBFYw
VDAhBggrBgEFBQcwAYYVaHR0cDovL3RoZWNhLm5ldC9vY3NwMC8GCCsGAQUFBzAC
hiNodHRwOi8vdGhlY2EubmV0L3RvdGFsbHl0aGVjZXJ0LmNydDATBgNVHSAEDDAK
MAgGBmeBDAECAjANBgNVHQ4EBgQEBAMCATAbBgNVHREEFDASgggqLmdvdi51c4IG
Z292LnVzMA0GCSqGSIb3DQEBCwUAA4IBAQBgGUM4GcRZrZJVwWBLZr3vfJi/mmtP
zeLbv0TWJkdJ527FXiLO0D0b4v2ilIE8TJm2J9Yzu90l8BxgyIfajTTgHLaRnd+y
DbH1f8ETJ8Oway4iya7fCXqGVunnDnY9R5Etb4x8YEQXZ8+eMQnGiSUMM+MbeyUy
pwG9qCS/29/G+/ipNaBWVKubqvvRsEBnN7u9RBwlhS0oTWYb8W0tcEmT98FVhiMK
dsecFPPukcw/Tm3urUPdd0h87u6uR0LhoJCjVgkee4HRbtAUNOQocCOrLhDD0aIR
3gsivxPG9Z1QZb2xxV7oH7K/mivLD9TEXzZ02p+HY72shSgdqjFjWrnz
-----END CERTIFICATE-----
