Certificate:
    Data:
        Version: 3 (0x2)
        Serial Number: 1234567890 (0x499602d2)
    Signature Algorithm: sha1WithRSAEncryption
        Issuer: C = DE, O = GMD - Forschungszentrum Informationstechnik GmbH
        Validity
            Not Before: Feb  1 10:00:00 2004 GMT
            Not After : Feb  1 10:00:00 2008 GMT
        Subject: C = DE, O = GMD Forschungszentrum Informationstechnik GmbH, GN = Petra + SN = Barzin
        Subject Public Key Info:
            Public Key Algorithm: rsaEncryption
                Public-Key: (1024 bit)
                Modulus:
                    00:dc:e7:4c:d5:a1:d5:5a:eb:01:cf:5e:cc:20:f3:
                    c3:fc:a7:87:cf:cb:57:1a:21:aa:8a:20:ad:5d:ff:
                    01:51:30:de:72:4e:5e:d3:f9:53:92:e7:bb:16:c4:
                    a7:1d:0f:31:b3:a9:92:6a:8f:08:ea:00:fd:c3:a8:
                    f2:bb:01:6d:ec:a3:b9:41:1b:a2:59:9a:2a:8c:b6:
                    55:c6:df:ea:25:bf:ed:dc:73:b5:94:fa:a0:ef:e5:
                    95:c6:12:a6:ae:5b:8c:7f:0c:a1:9c:ec:4f:e7:ab:
                    60:54:67:68:4b:b2:38:7d:5f:2f:7e:bd:bc:3e:f0:
                    a6:04:f6:b4:04:01:17:69:25
                Exponent: 65537 (0x10001)
        X509v3 extensions:
            X509v3 Subject Directory Attributes: 
                0[0...+.......1...DE0...+.......1...F0...+.......1...19711014120000Z0...+.......1...Darmstadt
            X509v3 Key Usage: critical
                Non Repudiation
            X509v3 Certificate Policies: 
                Policy: 1.3.36.8.1.1

            X509v3 Authority Key Identifier: 
                keyid:00:01:02:03:04:05:06:07:08:09:0A:0B:0C:0D:0E:0F:FE:DC:BA:98

            qcStatements: 
                0+0)..+.......0.0...municipality@darmstadt.de
    Signature Algorithm: sha1WithRSAEncryption
         8f:8c:80:bb:b2:d8:6b:75:f4:e2:1f:82:ef:e0:f2:0f:6c:55:
         88:90:a6:e7:31:18:83:59:b9:c7:8c:e7:1c:92:0c:66:c6:00:
         53:fb:c9:24:82:50:90:f2:95:b0:88:26:ea:f3:ff:1f:59:17:
         c8:0b:b4:83:61:29:cf:e5:56:3e:78:59:2b:5b:b0:f9:ac:b5:
         29:15:f0:f2:bc:36:99:1f:21:43:65:20:e9:06:47:61:d9:32:
         d8:71:f7:1f:fe:bd:ad:64:8f:a7:cf:3c:1b:c0:96:f1:12:d4:
         b8:82:b3:9f:e1:a1:6a:90:ae:1a:80:b8:a9:67:65:18:b5:aa:
         7e:97
-----BEGIN CERTIFICATE-----
MIIDEDCCAnmgAwIBAgIESZYC0jANBgkqhkiG9w0BAQUFADBIMQswCQYDVQQGEwJE
RTE5MDcGA1UECgwwR01EIC0gRm9yc2NodW5nc3plbnRydW0gSW5mb3JtYXRpb25z
dGVjaG5payBHbWJIMB4XDTA0MDIwMTEwMDAwMFoXDTA4MDIwMTEwMDAwMFowZTEL
MAkGA1UEBhMCREUxNzA1BgNVBAoMLkdNRCBGb3JzY2h1bmdzemVudHJ1bSBJbmZv
cm1hdGlvbnN0ZWNobmlrIEdtYkgxHTAMBgNVBCoMBVBldHJhMA0GA1UEBAwGQmFy
emluMIGfMA0GCSqGSIb3DQEBAQUAA4GNADCBiQKBgQDc50zVodVa6wHPXswg88P8
p4fPy1caIaqKIK1d/wFRMN5yTl7T+VOS57sWxKcdDzGzqZJqjwjqAP3DqPK7AW3s
o7lBG6JZmiqMtlXG3+olv+3cc7WU+qDv5ZXGEqauW4x/DKGc7E/nq2BUZ2hLsjh9
Xy9+vbw+8KYE9rQEARdpJQIDAQABo4HpMIHmMGQGA1UdCQRdMFswEAYIKwYBBQUH
CQQxBBMCREUwDwYIKwYBBQUHCQMxAxMBRjAdBggrBgEFBQcJATERGA8xOTcxMTAx
NDEyMDAwMFowFwYIKwYBBQUHCQIxCwwJRGFybXN0YWR0MA4GA1UdDwEB/wQEAwIG
QDASBgNVHSAECzAJMAcGBSskCAEBMB8GA1UdIwQYMBaAFAABAgMEBQYHCAkKCwwN
Dg/+3LqYMDkGCCsGAQUFBwEDBC0wKzApBggrBgEFBQcLAjAdMBuBGW11bmljaXBh
bGl0eUBkYXJtc3RhZHQuZGUwDQYJKoZIhvcNAQEFBQADgYEAj4yAu7LYa3X04h+C
7+DyD2xViJCm5zEYg1m5x4znHJIMZsYAU/vJJIJQkPKVsIgm6vP/H1kXyAu0g2Ep
z+VWPnhZK1uw+ay1KRXw8rw2mR8hQ2Ug6QZHYdky2HH3H/69rWSPp888G8CW8RLU
uIKzn+GhapCuGoC4qWdlGLWqfpc=
-----END CERTIFICATE-----
