Certificate:
    Data:
        Version: 3 (0x2)
        Serial Number: 3544891053 (0xd34abead)
    Signature Algorithm: sha256WithRSAEncryption
        Issuer: CN = Hickey Home Open Directory Certification Authority, O = Hickey Home, OU = MACOSX OpenDirectory Root CA, emailAddress = patrick.e.hickey@icloud.com
        Validity
            Not Before: Sep 30 17:56:51 2014 GMT
            Not After : Oct  1 17:56:51 2019 GMT
        Subject: CN = Hickey Home Open Directory Certification Authority, O = Hickey Home, OU = MACOSX OpenDirectory Root CA, emailAddress = patrick.e.hickey@icloud.com
        Subject Public Key Info:
            Public Key Algorithm: rsaEncryption
                Public-Key: (2048 bit)
                Modulus:
                    00:a7:8b:d3:86:4c:dd:b0:47:28:2f:48:28:42:4f:
                    6d:59:20:47:80:83:fa:50:2a:10:e1:6c:90:58:89:
                    b6:00:89:fb:ba:a6:7d:a8:78:72:31:9a:22:99:71:
                    4d:67:a0:96:33:33:f6:33:ba:9b:f9:98:f8:59:28:
                    7a:e0:67:89:a4:4c:3a:90:5b:69:98:22:4f:23:ca:
                    26:d4:e6:a5:23:a2:06:7c:fc:eb:60:5a:e9:33:33:
                    59:e1:b4:a0:a6:3c:cc:e6:07:87:62:d3:d9:eb:b7:
                    ef:22:e2:e7:61:a2:7a:1d:fe:db:48:0f:33:17:6a:
                    c6:4e:d3:26:ca:31:b3:51:3c:13:10:2b:52:b2:84:
                    60:ba:4c:d8:2a:8c:c6:e3:f4:4a:2b:5d:b2:d2:31:
                    5f:53:2d:be:a5:71:b4:f4:d6:4d:28:ff:fc:21:a6:
                    ce:52:c9:55:fa:cd:d7:cc:3b:0b:df:20:cd:ab:8b:
                    43:20:51:cc:18:63:55:cd:8e:31:c3:6c:37:73:4c:
                    dc:7a:ed:59:19:32:b8:d2:95:02:00:a6:92:4a:de:
                    13:f4:4a:59:b6:bd:e0:90:8c:f6:2e:03:95:c9:95:
                    84:93:70:06:d0:ef:49:50:6e:4d:18:f9:86:39:e3:
                    1d:62:5f:52:54:82:54:44:c0:af:14:7d:d7:81:6d:
                    5b:55
                Exponent: 65537 (0x10001)
        X509v3 extensions:
            X509v3 Basic Constraints: critical
                CA:TRUE
            X509v3 Key Usage: critical
                Digital Signature, Certificate Sign, CRL Sign
            X509v3 Extended Key Usage: critical
                TLS Web Server Authentication, 1.2.840.113635.100.4.3, Signing KDC Response, Any Extended Key Usage
            X509v3 CRL Distribution Points: 

                Full Name:
                  URI:http://Administrators-Mac-mini.local:1640/rfc2585/Hickey%20Home%20Open%20Directory%20Certification%20Authority.crl

    Signature Algorithm: sha256WithRSAEncryption
         8d:1f:1a:c6:e6:fa:89:bd:be:44:92:55:c0:2b:0e:7c:46:9f:
         14:fd:dd:26:a9:f1:10:f8:60:d1:f2:67:32:8e:ae:65:bf:d2:
         05:24:64:25:33:16:8a:33:9e:3a:90:8a:6c:07:4e:c0:c4:01:
         75:a9:ec:77:a4:5f:c6:e3:2d:71:0d:3d:b1:47:72:4c:e7:6d:
         24:34:3e:c5:99:78:f9:61:38:e9:13:f7:50:1b:fe:1f:bf:7a:
         dc:8e:fc:58:40:11:4a:43:fe:4e:99:38:b1:b6:f8:d5:f1:85:
         d6:cc:f7:74:d3:88:18:b8:74:d1:90:e1:e0:a1:ed:f5:19:27:
         98:9d:a6:7d:ba:ba:e3:6a:13:19:3f:ca:b3:87:10:5c:bc:56:
         d2:96:a0:a8:48:a3:8c:3c:9f:dd:cb:e5:d5:a8:28:27:a0:21:
         77:42:7a:83:ae:0d:58:02:70:7f:7c:31:4e:1b:b3:93:4f:c8:
         d5:b6:3d:b1:b8:db:23:56:43:8e:31:7b:5c:a9:39:0b:e2:59:
         17:9f:04:92:4f:5b:09:f4:f3:e2:d0:0b:46:0c:10:49:08:1e:
         03:bd:3e:fe:77:b9:95:e7:7a:80:d9:9e:33:18:af:f8:d0:24:
         c7:d0:9a:2d:a3:1b:8d:bd:9c:98:55:ef:84:33:26:da:bb:c5:
         a1:ea:5e:02
-----BEGIN CERTIFICATE-----
MIIEqDCCA5CgAwIBAgIFANNKvq0wCwYJKoZIhvcNAQELMIGmMTswOQYDVQQDDDJI
aWNrZXkgSG9tZSBPcGVuIERpcmVjdG9yeSBDZXJ0aWZpY2F0aW9uIEF1dGhvcml0
eTEUMBIGA1UECgwLSGlja2V5IEhvbWUxJTAjBgNVBAsMHE1BQ09TWCBPcGVuRGly
ZWN0b3J5IFJvb3QgQ0ExKjAoBgkqhkiG9w0BCQEWG3BhdHJpY2suZS5oaWNrZXlA
aWNsb3VkLmNvbTAeFw0xNDA5MzAxNzU2NTFaFw0xOTEwMDExNzU2NTFaMIGmMTsw
OQYDVQQDDDJIaWNrZXkgSG9tZSBPcGVuIERpcmVjdG9yeSBDZXJ0aWZpY2F0aW9u
IEF1dGhvcml0eTEUMBIGA1UECgwLSGlja2V5IEhvbWUxJTAjBgNVBAsMHE1BQ09T
WCBPcGVuRGlyZWN0b3J5IFJvb3QgQ0ExKjAoBgkqhkiG9w0BCQEWG3BhdHJpY2su
ZS5oaWNrZXlAaWNsb3VkLmNvbTCCASIwDQYJKoZIhvcNAQEBBQADggEPADCCAQoC
ggEBAKeL04ZM3bBHKC9IKEJPbVkgR4CD+lAqEOFskFiJtgCJ+7qmfah4cjGaIplx
TWegljMz9jO6m/mY+FkoeuBniaRMOpBbaZgiTyPKJtTmpSOiBnz862Ba6TMzWeG0
oKY8zOYHh2LT2eu37yLi52Gieh3+20gPMxdqxk7TJsoxs1E8ExArUrKEYLpM2CqM
xuP0SitdstIxX1MtvqVxtPTWTSj//CGmzlLJVfrN18w7C98gzauLQyBRzBhjVc2O
McNsN3NM3HrtWRkyuNKVAgCmkkreE/RKWba94JCM9i4DlcmVhJNwBtDvSVBuTRj5
hjnjHWJfUlSCVETArxR914FtW1UCAwEAAaOB3DCB2TAPBgNVHRMBAf8EBTADAQH/
MA4GA1UdDwEB/wQEAwIBhjAwBgNVHSUBAf8EJjAkBggrBgEFBQcDAQYJKoZIhvdj
ZAQDBgcrBgEFAgMFBgRVHSUAMIGDBgNVHR8EfDB6MHigdqB0hnJodHRwOi8vQWRt
aW5pc3RyYXRvcnMtTWFjLW1pbmkubG9jYWw6MTY0MC9yZmMyNTg1L0hpY2tleSUy
MEhvbWUlMjBPcGVuJTIwRGlyZWN0b3J5JTIwQ2VydGlmaWNhdGlvbiUyMEF1dGhv
cml0eS5jcmwwDQYJKoZIhvcNAQELBQADggEBAI0fGsbm+om9vkSSVcArDnxGnxT9
3Sap8RD4YNHyZzKOrmW/0gUkZCUzFooznjqQimwHTsDEAXWp7HekX8bjLXENPbFH
ckznbSQ0PsWZePlhOOkT91Ab/h+/etyO/FhAEUpD/k6ZOLG2+NXxhdbM93TTiBi4
dNGQ4eCh7fUZJ5idpn26uuNqExk/yrOHEFy8VtKWoKhIo4w8n93L5dWoKCegIXdC
eoOuDVgCcH98MU4bs5NPyNW2PbG42yNWQ44xe1ypOQviWRefBJJPWwn08+LQC0YM
EEkIHgO9Pv53uZXneoDZnjMYr/jQJMfQmi2jG429nJhV74QzJtq7xaHqXgI=
-----END CERTIFICATE-----
