Certificate:
    Data:
        Version: 3 (0x2)
        Serial Number: 1403568041 (0x53a8bfa9)
    Signature Algorithm: sha1WithRSAEncryption
        Issuer: CN = usg20_107BEF3949AC
        Validity
            Not Before: Jun 24 00:00:41 2014 GMT
            Not After : Jun 19 00:00:41 2034 GMT
        Subject: CN = usg20_107BEF3949AC
        Subject Public Key Info:
            Public Key Algorithm: rsaEncryption
                Public-Key: (1024 bit)
                Modulus:
                    00:9e:3f:69:f6:a5:2f:1d:74:ca:70:33:f0:4c:cd:
                    34:f3:2a:37:32:67:d8:e9:d0:db:41:b2:05:c3:9c:
                    88:40:db:3f:98:9a:45:17:f1:a9:49:b1:97:b2:ce:
                    00:00:56:08:88:2b:91:25:9c:68:b6:c3:b6:7e:bc:
                    03:b4:89:03:f9:ca:61:bf:41:b5:da:4a:4b:06:a3:
                    bd:1b:e9:ca:5c:88:1f:eb:6e:23:49:d2:37:80:aa:
                    6b:d7:94:20:94:23:67:30:ea:fb:24:ec:c8:34:6d:
                    a6:a9:1e:f2:54:1c:28:10:37:c8:f9:fd:2a:61:c2:
                    a7:99:55:0c:1b:10:62:f4:45
                Exponent: 65537 (0x10001)
        X509v3 extensions:
            X509v3 Key Usage: critical
                Digital Signature, Key Encipherment, Certificate Sign
            X509v3 Subject Alternative Name: 
                email:usg20_107BEF3949AC
            X509v3 Basic Constraints: critical
                CA:TRUE, pathlen:1
    Signature Algorithm: sha1WithRSAEncryption
         22:ec:77:cd:d9:02:d7:45:81:55:9c:de:44:31:f9:54:fb:ec:
         94:25:31:d6:56:29:8c:90:4e:f7:6d:b2:29:8f:12:ca:5d:9f:
         fa:c6:b2:0b:31:76:50:c5:ab:87:cc:4e:45:f1:c3:32:27:4e:
         bb:89:ac:d4:5f:a4:b4:3b:43:03:4c:d1:1b:3b:17:48:1e:7e:
         d4:d1:07:c6:f0:87:05:d8:70:09:54:71:54:a7:72:44:41:84:
         4a:39:0d:80:18:a2:4e:ab:97:90:5d:7b:be:c1:a2:94:11:ba:
         4a:58:ae:3b:c0:f3:9e:84:39:fc:4d:b9:2e:d9:27:f4:3f:01:
         03:f1
-----BEGIN CERTIFICATE-----
MIIB+DCCAWGgAwIBAgIEU6i/qTANBgkqhkiG9w0BAQUFADAdMRswGQYDVQQDDBJ1
c2cyMF8xMDdCRUYzOTQ5QUMwHhcNMTQwNjI0MDAwMDQxWhcNMzQwNjE5MDAwMDQx
WjAdMRswGQYDVQQDDBJ1c2cyMF8xMDdCRUYzOTQ5QUMwgZ8wDQYJKoZIhvcNAQEB
BQADgY0AMIGJAoGBAJ4/afalLx10ynAz8EzNNPMqNzJn2OnQ20GyBcOciEDbP5ia
RRfxqUmxl7LOAABWCIgrkSWcaLbDtn68A7SJA/nKYb9BtdpKSwajvRvpylyIH+tu
I0nSN4Cqa9eUIJQjZzDq+yTsyDRtpqke8lQcKBA3yPn9KmHCp5lVDBsQYvRFAgMB
AAGjRTBDMA4GA1UdDwEB/wQEAwICpDAdBgNVHREEFjAUgRJ1c2cyMF8xMDdCRUYz
OTQ5QUMwEgYDVR0TAQH/BAgwBgEB/wIBATANBgkqhkiG9w0BAQUFAAOBgQAi7HfN
2QLXRYFVnN5EMflU++yUJTHWVimMkE73bbIpjxLKXZ/6xrILMXZQxauHzE5F8cMy
J067iazUX6S0O0MDTNEbOxdIHn7U0QfG8IcF2HAJVHFUp3JEQYRKOQ2AGKJOq5eQ
XXu+waKUEbpKWK47wPOehDn8Tbku2Sf0PwED8Q==
-----END CERTIFICATE-----
