Certificate:
    Data:
        Version: 3 (0x2)
        Serial Number: 123438204759 (0x1cbd7d8757)
    Signature Algorithm: sha256WithRSAEncryption
        Issuer: C = US, O = Mother Nature, OU = Everything, CN = Mother Nature
        Validity
            Not Before: Jul  7 16:01:20 2016 GMT
            Not After : Jul 21 16:01:20 2016 GMT
        Subject: C = US, O = Mother Nature, OU = Everything, CN = Mother Nature
        Subject Public Key Info:
            Public Key Algorithm: rsaEncryption
                Public-Key: (2048 bit)
                Modulus:
                    00:d6:14:6b:59:96:50:b1:b3:f7:b7:eb:11:10:84:
                    f2:89:4a:40:87:40:0a:eb:11:91:34:6e:cb:1d:b6:
                    72:09:05:bc:f2:0d:82:35:e3:e0:73:ae:82:0e:d0:
                    f1:69:7c:a8:b8:7e:7c:01:db:7c:a5:d8:42:3d:e9:
                    76:5f:3d:a2:0b:f3:4d:d9:82:0c:36:fd:4a:9a:88:
                    b9:5b:7c:73:0c:3f:94:c5:b3:3b:55:e0:d6:0b:58:
                    6c:8d:c4:df:b5:e3:fe:d6:7b:ee:ab:ba:ba:c3:52:
                    d6:d2:f4:11:2d:a2:68:e1:9e:0a:eb:14:5f:0e:32:
                    37:3c:bd:8f:76:be:29:f5:c1:33:ab:de:8d:28:73:
                    49:1f:7d:79:d1:7a:6f:b9:77:31:7c:fc:fe:d9:f2:
                    06:6d:75:0f:49:54:94:65:61:16:82:27:cc:00:dc:
                    14:2a:6d:84:36:aa:61:d0:13:f0:48:c9:2a:e4:1c:
                    76:31:4f:a6:bf:dd:d4:ec:c7:94:11:e3:0b:1c:a7:
                    81:20:39:ff:7f:4b:59:83:f7:72:2c:bc:47:44:52:
                    af:c1:82:c0:86:6c:50:5b:a6:d5:c9:9a:b7:54:1c:
                    9a:1e:ad:33:60:95:ec:e5:79:34:42:42:55:d4:7d:
                    11:29:df:3a:f1:52:4c:00:86:a6:c1:10:72:1f:f7:
                    b6:1b
                Exponent: 65537 (0x10001)
        X509v3 extensions:
            X509v3 Key Usage: critical
                Digital Signature, Certificate Sign, CRL Sign
            X509v3 Basic Constraints: critical
                CA:TRUE
            X509v3 Subject Key Identifier: 
                01:02:03:04
            X509v3 Authority Key Identifier: 
                keyid:01:02:03:04

    Signature Algorithm: sha256WithRSAEncryption
         8d:3f:e3:b6:f0:48:56:1a:31:f2:6f:63:a9:0f:ba:43:75:78:
         01:7d:7c:4e:0d:2c:02:9f:4d:28:9b:d6:e3:7b:5d:cc:26:cd:
         27:11:0a:a9:6e:9d:57:56:82:ec:17:f7:d6:0a:ac:de:d5:ce:
         4c:93:12:01:ba:96:f4:de:e7:b7:39:e6:b9:84:af:24:f4:de:
         09:a3:4c:42:5c:eb:3b:9f:75:e2:73:ed:a3:1d:f8:d0:57:79:
         05:af:c3:cb:44:21:75:4a:77:b8:9b:3e:90:e4:63:5a:e4:38:
         f2:2e:51:dc:51:a4:73:2c:ee:55:10:25:e9:f1:00:38:26:b8:
         93:2c:0c:7d:a9:1e:66:9c:45:a4:a8:f0:44:32:37:26:63:4b:
         54:82:1a:98:c7:0f:ea:a5:cb:a1:d4:24:e6:23:69:ee:87:84:
         38:14:20:ba:0e:ad:73:a0:58:d3:3c:a5:8f:50:19:28:6d:1f:
         68:21:8a:56:69:6e:b2:88:83:c3:f6:c6:9c:ad:fd:70:83:1f:
         f2:33:d5:9a:75:13:0a:00:b2:dd:4c:84:95:07:64:cc:e0:07:
         b7:f3:a7:61:24:8d:69:8b:93:34:41:6d:41:58:2e:c6:c9:05:
         3a:54:10:8b:a2:06:ec:59:b4:b0:74:37:8b:6a:b0:7e:e9:d5:
         5a:7e:13:8e
-----BEGIN CERTIFICATE-----
MIIDZjCCAk6gAwIBAgIFHL19h1cwDQYJKoZIhvcNAQELBQAwUjELMAkGA1UEBhMC
VVMxFjAUBgNVBAoTDU1vdGhlciBOYXR1cmUxEzARBgNVBAsTCkV2ZXJ5dGhpbmcx
FjAUBgNVBAMTDU1vdGhlciBOYXR1cmUwHhcNMTYwNzA3MTYwMTIwWhcNMTYwNzIx
MTYwMTIwWjBSMQswCQYDVQQGEwJVUzEWMBQGA1UEChMNTW90aGVyIE5hdHVyZTET
MBEGA1UECxMKRXZlcnl0aGluZzEWMBQGA1UEAxMNTW90aGVyIE5hdHVyZTCCASIw
DQYJKoZIhvcNAQEBBQADggEPADCCAQoCggEBANYUa1mWULGz97frERCE8olKQIdA
CusRkTRuyx22cgkFvPINgjXj4HOugg7Q8Wl8qLh+fAHbfKXYQj3pdl89ogvzTdmC
DDb9SpqIuVt8cww/lMWzO1Xg1gtYbI3E37Xj/tZ77qu6usNS1tL0ES2iaOGeCusU
Xw4yNzy9j3a+KfXBM6vejShzSR99edF6b7l3MXz8/tnyBm11D0lUlGVhFoInzADc
FCpthDaqYdAT8EjJKuQcdjFPpr/d1OzHlBHjCxyngSA5/39LWYP3ciy8R0RSr8GC
wIZsUFum1cmat1Qcmh6tM2CV7OV5NEJCVdR9ESnfOvFSTACGpsEQch/3thsCAwEA
AaNDMEEwDgYDVR0PAQH/BAQDAgGGMA8GA1UdEwEB/wQFMAMBAf8wDQYDVR0OBAYE
BAECAwQwDwYDVR0jBAgwBoAEAQIDBDANBgkqhkiG9w0BAQsFAAOCAQEAjT/jtvBI
Vhox8m9jqQ+6Q3V4AX18Tg0sAp9NKJvW43tdzCbNJxEKqW6dV1aC7Bf31gqs3tXO
TJMSAbqW9N7ntznmuYSvJPTeCaNMQlzrO5914nPtox340Fd5Ba/Dy0QhdUp3uJs+
kORjWuQ48i5R3FGkcyzuVRAl6fEAOCa4kywMfakeZpxFpKjwRDI3JmNLVIIamMcP
6qXLodQk5iNp7oeEOBQgug6tc6BY0zylj1AZKG0faCGKVmlusoiDw/bGnK39cIMf
8jPVmnUTCgCy3UyElQdkzOAHt/OnYSSNaYuTNEFtQVguxskFOlQQi6IG7Fm0sHQ3
i2qwfunVWn4Tjg==
-----END CERTIFICATE-----
