Certificate:
    Data:
        Version: 3 (0x2)
        Serial Number: 14615016 (0xdf01e8)
    Signature Algorithm: sha256WithRSAEncryption
        Issuer: C = US, O = Mother Nature, OU = Everything, CN = Mother Nature
        Validity
            Not Before: Aug  3 16:02:45 2016 GMT
            Not After : Oct 15 16:02:45 2016 GMT
        Subject: C = US, ST = FL, L = Tallahassee, street = 3210 Holly Mill Run, postalCode = 30062, O = Extreme Discord, OU = Chaos, CN = gov.us
        Subject Public Key Info:
            Public Key Algorithm: rsaEncryption
                Public-Key: (2048 bit)
                Modulus:
                    00:c5:1a:67:71:c6:27:11:2f:7c:41:90:07:b7:57:
                    e7:bb:83:21:e9:98:e5:e6:dd:d0:02:55:e4:e2:09:
                    fc:48:69:c4:cf:96:83:fb:cc:d8:df:31:6a:b9:63:
                    e6:43:0e:c6:a1:48:91:a0:51:94:b8:8a:87:38:9a:
                    6e:e7:42:d8:f8:57:3f:db:6d:7e:28:4b:06:a8:d6:
                    c0:f5:5b:22:0f:a9:c3:0b:2e:fb:60:57:ec:b4:9e:
                    ff:c2:84:77:67:b5:de:cf:53:47:0f:38:22:53:3f:
                    b4:57:bf:df:88:94:57:db:eb:4d:c1:94:a0:68:c4:
                    23:af:cd:8c:88:a0:31:68:76:42:0d:69:6e:dc:22:
                    d7:fd:20:56:db:46:0e:e2:24:d3:65:99:a3:21:ed:
                    ba:6e:ab:ca:a1:17:8a:d2:3f:49:4c:47:f4:f7:cc:
                    cc:e0:98:11:19:f4:ed:af:36:74:56:e7:d1:b7:c5:
                    2a:91:57:81:6f:44:af:f5:0d:dd:a1:70:06:9b:61:
                    71:ea:90:eb:58:3a:be:16:f8:a6:ca:75:77:a8:8f:
                    f7:ad:e1:88:ec:39:a0:32:4a:fd:e0:c4:8d:46:fd:
                    67:e8:af:ac:3a:24:cc:62:06:07:32:33:21:74:4c:
                    02:af:55:77:b8:06:c7:4c:35:34:f3:02:e9:e7:fc:
                    18:e1
                Exponent: 65537 (0x10001)
        X509v3 extensions:
            X509v3 Basic Constraints: critical
                CA:TRUE
            X509v3 Authority Key Identifier: 
                keyid:01:02:03

            X509v3 CRL Distribution Points: 

                Full Name:
                  URI:theca.net/crlpoint

            X509v3 Subject Key Identifier: 
                04:03:02:01
            X509v3 Subject Alternative Name: 
                DNS:*.gov.us, DNS:gov.us
            X509v3 Key Usage: 
                Data Encipherment, Key Agreement
            X509v3 Extended Key Usage: 
                TLS Web Server Authentication, 1.2.840.113635.100.4.3, Signing KDC Response, Any Extended Key Usage
            X509v3 Certificate Policies: 
                Policy: 2.16.840.1.114414.1.7.23.1
                  CPS: http://certificates.starfieldtech.com/repository/

    Signature Algorithm: sha256WithRSAEncryption
         75:19:1a:53:8c:c2:a6:84:bf:ba:56:28:cf:1a:5d:44:bf:d1:
         10:ec:a8:5a:a3:b3:6d:a6:75:62:c4:0e:48:9f:9e:22:3d:72:
         cf:70:88:fa:7a:9a:ce:f0:ca:f5:21:a7:d5:19:e6:3c:df:46:
         15:36:60:01:f0:d7:21:bd:ba:39:84:9d:c2:ef:d6:e9:f8:fa:
         5b:1d:b2:57:ec:8c:ce:b0:f6:f3:56:0d:07:fd:42:eb:8b:31:
         88:58:a8:e0:4b:b5:3f:4e:36:8d:33:62:7b:68:f8:90:70:dd:
         47:1a:b0:a4:08:49:ef:4f:ec:7f:b1:8d:ae:15:d1:55:9b:0a:
         c5:42:d9:69:e0:8c:8c:7f:f4:80:35:90:53:09:d3:31:ba:79:
         9f:be:63:b8:52:46:fc:ce:fe:ec:8c:6f:3e:17:45:8e:8e:ca:
         17:10:e6:82:c1:9e:de:95:28:01:c2:12:1b:87:d4:41:4d:be:
         41:96:35:e4:54:ae:5e:8c:c4:e8:13:de:2b:bc:83:e8:1f:11:
         81:63:a3:39:15:db:d9:0b:eb:13:2b:e1:3d:bf:6f:c5:ca:b7:
         1e:1e:a7:f7:e8:52:bc:08:96:30:fc:91:c1:46:c7:fd:99:c4:
         46:a9:0e:05:a1:7d:57:a2:75:b4:91:bd:04:44:16:e1:3e:75:
         e2:7c:e5:d5
-----BEGIN CERTIFICATE-----
MIIEeTCCA2GgAwIBAgIEAN8B6DANBgkqhkiG9w0BAQsFADBSMQswCQYDVQQGEwJV
UzEWMBQGA1UEChMNTW90aGVyIE5hdHVyZTETMBEGA1UECxMKRXZlcnl0aGluZzEW
MBQGA1UEAxMNTW90aGVyIE5hdHVyZTAeFw0xNjA4MDMxNjAyNDVaFw0xNjEwMTUx
NjAyNDVaMIGZMQswCQYDVQQGEwJVUzELMAkGA1UECBMCRkwxFDASBgNVBAcTC1Rh
bGxhaGFzc2VlMRwwGgYDVQQJExMzMjEwIEhvbGx5IE1pbGwgUnVuMQ4wDAYDVQQR
EwUzMDA2MjEYMBYGA1UEChMPRXh0cmVtZSBEaXNjb3JkMQ4wDAYDVQQLEwVDaGFv
czEPMA0GA1UEAxMGZ292LnVzMIIBIjANBgkqhkiG9w0BAQEFAAOCAQ8AMIIBCgKC
AQEAxRpnccYnES98QZAHt1fnu4Mh6Zjl5t3QAlXk4gn8SGnEz5aD+8zY3zFquWPm
Qw7GoUiRoFGUuIqHOJpu50LY+Fc/221+KEsGqNbA9VsiD6nDCy77YFfstJ7/woR3
Z7Xez1NHDzgiUz+0V7/fiJRX2+tNwZSgaMQjr82MiKAxaHZCDWlu3CLX/SBW20YO
4iTTZZmjIe26bqvKoReK0j9JTEf098zM4JgRGfTtrzZ0VufRt8UqkVeBb0Sv9Q3d
oXAGm2Fx6pDrWDq+FvimynV3qI/3reGI7DmgMkr94MSNRv1n6K+sOiTMYgYHMjMh
dEwCr1V3uAbHTDU08wLp5/wY4QIDAQABo4IBDTCCAQkwDwYDVR0TAQH/BAUwAwEB
/zAOBgNVHSMEBzAFgAMBAgMwIwYDVR0fBBwwGjAYoBagFIYSdGhlY2EubmV0L2Ny
bHBvaW50MA0GA1UdDgQGBAQEAwIBMBsGA1UdEQQUMBKCCCouZ292LnVzggZnb3Yu
dXMwCwYDVR0PBAQDAgEYMC0GA1UdJQQmMCQGCCsGAQUFBwMBBgkqhkiG92NkBAMG
BysGAQUCAwUGBFUdJQAwWQYDVR0gBFIwUDBOBgtghkgBhv1uAQcXATA/MD0GCCsG
AQUFBwIBFjFodHRwOi8vY2VydGlmaWNhdGVzLnN0YXJmaWVsZHRlY2guY29tL3Jl
cG9zaXRvcnkvMA0GCSqGSIb3DQEBCwUAA4IBAQB1GRpTjMKmhL+6VijPGl1Ev9EQ
7Khao7NtpnVixA5In54iPXLPcIj6eprO8Mr1IafVGeY830YVNmAB8Nchvbo5hJ3C
79bp+PpbHbJX7IzOsPbzVg0H/ULrizGIWKjgS7U/TjaNM2J7aPiQcN1HGrCkCEnv
T+x/sY2uFdFVmwrFQtlp4IyMf/SANZBTCdMxunmfvmO4Ukb8zv7sjG8+F0WOjsoX
EOaCwZ7elSgBwhIbh9RBTb5BljXkVK5ejMToE94rvIPoHxGBY6M5FdvZC+sTK+E9
v2/FyrceHqf36FK8CJYw/JHBRsf9mcRGqQ4FoX1XonW0kb0ERBbhPnXifOXV
-----END CERTIFICATE-----
