Certificate:
    Data:
        Version: 3 (0x2)
        Serial Number:
            fb:b0:4c:2e:ab:10:9b:0c
        Signature Algorithm: sha256WithRSAEncryption
        Issuer: C = AU, ST = Some-State, O = Internet Widgits Pty Ltd
        Validity
            Not Before: Apr 23 20:50:40 2014 GMT
            Not After : Apr 22 20:50:40 2017 GMT
        Subject: C = AU, ST = Some-State, O = Internet Widgits Pty Ltd
        Subject Public Key Info:
            Public Key Algorithm: rsaEncryption
                RSA Public-Key: (1024 bit)
                Modulus:
                    00:d8:2b:c8:a6:32:e4:62:ff:4d:f3:d0:ad:59:8b:
                    45:a7:bd:f1:47:bf:09:58:7b:22:bd:35:ae:97:25:
                    86:94:a0:80:c0:b4:1f:76:91:67:46:31:d0:10:84:
                    b7:22:1e:70:23:91:72:c8:e9:6d:79:3a:85:77:80:
                    0f:c4:95:16:75:c5:4a:71:4c:c8:63:3f:a3:f2:63:
                    9c:2a:4f:9a:fa:cb:c1:71:6e:28:85:28:a0:27:1e:
                    65:1c:ae:07:d5:5b:6f:2d:43:ed:2b:90:b1:8c:af:
                    24:6d:ae:e9:17:3a:05:c1:bf:b8:1c:ae:65:3b:1b:
                    58:c2:d9:ae:d6:aa:67:88:f1
                Exponent: 65537 (0x10001)
        X509v3 extensions:
            X509v3 Subject Key Identifier: 
                8B:75:D5:AC:CB:08:BE:0E:1F:65:B7:FA:56:BE:6C:A7:75:DA:85:AF
            X509v3 Authority Key Identifier: 
                keyid:8B:75:D5:AC:CB:08:BE:0E:1F:65:B7:FA:56:BE:6C:A7:75:DA:85:AF

            X509v3 Basic Constraints: 
                CA:TRUE
    Signature Algorithm: sha256WithRSAEncryption
         a7:40:18:92:cb:86:a7:cb:4f:de:3e:d8:3a:51:f5:a3:18:89:
         62:4d:c8:26:f8:43:71:f4:ae:85:82:1c:39:86:6d:02:14:32:
         d3:6b:80:44:7e:31:47:16:0c:c4:e7:d4:ef:eb:82:f2:04:d5:
         6e:e5:f0:98:cc:47:92:93:8f:3e:2c:ae:30:a4:23:39:20:4f:
         7d:87:0b:52:41:ad:79:97:cf:36:3c:df:41:1b:a9:91:87:a8:
         4b:44:91:83:04:4c:79:2e:0c:2a:cf:93:2f:96:2a:cc:2f:a0:
         4e:92:70:7a:03:d1:4f:d1:94:c8:0d:a8:5a:c0:9d:26:ae:f1:
         d4:bc:6d:fd:95:bb:fb:c0:ed:8f:8e:a5:b3:b6:e3:08:26:c1:
         99:e7:d4:54:41:23:49:d4:b3:61:52:3b:a9:c3:fd:3f:ea:54:
         05:69:9c:0f:2c:5a:6c:68:2c:3e:2f:f8:79:2a:d8:b5:de:4f:
         19:2e:57:17:bb:ea:77:25:c7:45:6f:3c:76:ab:03:3f:fa:e9:
         99:1d:2d:f7:99:d7:f2:e1:0e:5c:7d:3d:52:b3:96:fc:9e:de:
         b1:37:8e:87:a1:c5:95:ae:fa:75:9a:7e:3c:4c:28:dc:f1:7b:
         66:35:fa:67:01:46:04:d4:df:dc:be:13:f9:4e:47:9b:ff:88:
         7d:a8:53:be
-----BEGIN CERTIFICATE-----
MIIC1zCCAb+gAwIBAgIJAPuwTC6rEJsMMAsGCSqGSIb3DQEBCzBFMQswCQYDVQQG
EwJBVTETMBEGA1UECAwKU29tZS1TdGF0ZTEhMB8GA1UECgwYSW50ZXJuZXQgV2lk
Z2l0cyBQdHkgTHRkMB4XDTE0MDQyMzIwNTA0MFoXDTE3MDQyMjIwNTA0MFowRTEL
MAkGA1UEBhMCQVUxEzARBgNVBAgMClNvbWUtU3RhdGUxITAfBgNVBAoMGEludGVy
bmV0IFdpZGdpdHMgUHR5IEx0ZDCBnzANBgkqhkiG9w0BAQEFAAOBjQAwgYkCgYEA
2CvIpjLkYv9N89CtWYtFp73xR78JWHsivTWulyWGlKCAwLQfdpFnRjHQEIS3Ih5w
I5FyyOlteTqFd4APxJUWdcVKcUzIYz+j8mOcKk+a+svBcW4ohSigJx5lHK4H1Vtv
LUPtK5CxjK8kba7pFzoFwb+4HK5lOxtYwtmu1qpniPECAwEAAaNQME4wHQYDVR0O
BBYEFIt11azLCL4OH2W3+la+bKd12oWvMB8GA1UdIwQYMBaAFIt11azLCL4OH2W3
+la+bKd12oWvMAwGA1UdEwQFMAMBAf8wDQYJKoZIhvcNAQELBQADggEBAKdAGJLL
hqfLT94+2DpR9aMYiWJNyCb4Q3H0roWCHDmGbQIUMtNrgER+MUcWDMTn1O/rgvIE
1W7l8JjMR5KTjz4srjCkIzkgT32HC1JBrXmXzzY830EbqZGHqEtEkYMETHkuDCrP
ky+WKswvoE6ScHoD0U/RlMgNqFrAnSau8dS8bf2Vu/vA7Y+OpbO24wgmwZnn1FRB
I0nUs2FSO6nD/T/qVAVpnA8sWmxoLD4v+Hkq2LXeTxkuVxe76nclx0VvPHarAz/6
6ZkdLfeZ1/LhDlx9PVKzlvye3rE3joehxZWu+nWafjxMKNzxe2Y1+mcBRgTU39y+
E/lOR5v/iH2oU74=
-----END CERTIFICATE-----
