Certificate:
    Data:
        Version: 3 (0x2)
        Serial Number:
            02:00:00:00:00:00:00:00:00
    Signature Algorithm: sha1WithRSAEncryption
        Issuer: C = US, O = Mother Nature, OU = Everything, CN = Mother Nature
        Validity
            Not Before: Mar 29 23:41:58 2017 GMT
            Not After : Jun 10 23:41:58 2017 GMT
        Subject: C = US, O = Extreme Discord, OU = Chaos, L = Tallahassee, ST = FL, street = 3210 Holly Mill Run, postalCode = 30062, CN = gov.us
        Subject Public Key Info:
            Public Key Algorithm: rsaEncryption
                Public-Key: (2048 bit)
                Modulus:
                    00:ce:63:18:05:37:4d:a5:c6:0e:3f:2d:09:14:40:
                    c4:f0:8e:37:8c:24:99:96:8e:a4:b4:ac:d8:a8:93:
                    57:f2:00:5e:f3:0e:87:43:de:59:24:93:67:14:83:
                    28:92:6b:be:93:0d:8e:f2:bc:76:0e:0d:4c:17:88:
                    1b:bf:1e:30:bd:61:f4:25:e0:ab:5d:3f:36:9f:43:
                    be:ed:71:9b:9f:ed:31:96:f4:c5:a3:6b:d8:1c:42:
                    fd:6c:da:7b:e9:7e:20:98:70:af:47:fb:08:2b:9a:
                    cb:0c:16:01:27:c0:86:67:f6:85:7b:f8:df:38:7a:
                    fd:b8:88:29:d0:2f:d2:93:2e:dd:92:e8:9a:b9:89:
                    df:50:e3:af:50:91:8a:f8:2f:aa:fe:d5:d2:42:b2:
                    49:ca:7b:d2:1b:64:ec:25:ce:90:15:f7:6d:07:ca:
                    ae:35:7a:d4:d1:cc:c1:6e:24:00:1f:a7:69:1f:dc:
                    2e:d7:15:92:c5:75:09:f8:9d:8d:93:34:bc:44:ed:
                    01:2a:98:e2:33:5d:0e:f2:b7:65:c2:dd:e0:ca:8a:
                    04:16:1f:48:e2:59:18:a6:f2:3c:06:d8:54:32:9d:
                    e4:a0:22:b3:a4:3d:33:97:7c:86:7e:6d:ec:85:e5:
                    86:32:86:d3:04:21:07:bb:36:46:1e:58:55:6e:51:
                    8f:f9
                Exponent: 65537 (0x10001)
        X509v3 extensions:
            X509v3 Key Usage: critical
                Digital Signature, Key Encipherment
            X509v3 Extended Key Usage: 
                TLS Web Client Authentication, TLS Web Server Authentication
            X509v3 Basic Constraints: critical
                CA:FALSE
            X509v3 Authority Key Identifier: 
                keyid:01:02:03

            Authority Information Access: 
                OCSP - URI:http://theca.net/ocsp
                CA Issuers - URI:http://theca.net/totallythecert.crt

            X509v3 Certificate Policies: 
                Policy: 2.23.140.1.2.2

            X509v3 Subject Key Identifier: 
                04:03:02:01
            X509v3 Subject Alternative Name: 
                DNS:www.gov.us
    Signature Algorithm: sha1WithRSAEncryption
         c5:6c:04:e0:3a:30:74:8f:46:c3:11:0d:69:93:c0:45:15:ea:
         95:b6:1b:1c:6d:5e:f6:1a:e4:b9:41:11:96:59:48:e7:c5:eb:
         66:83:8b:f3:7f:28:a6:65:ff:b7:57:fb:34:bf:36:2c:ba:00:
         a1:35:7b:63:d0:f5:6e:1a:6c:84:55:76:22:8f:ab:24:80:91:
         66:33:ff:a4:af:bf:74:e8:9f:cc:d1:70:45:97:53:7c:e8:2f:
         d0:ab:cd:f7:22:c9:84:cb:a0:67:73:b8:7d:c0:6a:84:a8:7a:
         65:bd:1a:96:9c:fb:78:12:f7:05:2a:a7:fe:c5:dc:db:31:d2:
         fa:33:f0:70:bd:03:02:38:85:8b:71:15:f0:ff:94:bd:1f:16:
         55:6f:a9:61:a7:0b:a1:b5:89:2c:72:72:be:0f:b0:a6:7e:a4:
         bf:10:bf:1e:be:ec:ac:56:28:49:2b:c7:e1:51:01:b5:f2:61:
         8c:df:74:81:dd:cc:26:23:f9:11:3d:35:85:00:1f:a8:11:03:
         62:8b:f0:cc:8d:2d:69:ca:2c:27:38:cc:5b:07:9e:1a:7a:bb:
         fe:3a:51:32:29:2b:c2:de:69:b4:32:dd:e6:e1:b0:61:34:ab:
         e8:64:c2:cd:ca:d7:7f:02:c6:a5:3f:f1:8c:0c:01:bc:d9:19:
         1e:50:bb:55
-----BEGIN CERTIFICATE-----
MIIEXzCCA0mgAwIBAgIJAgAAAAAAAAAAMAsGCSqGSIb3DQEBBTBUMQswCQYDVQQG
EwJVUzEWMBQGA1UEChMNTW90aGVyIE5hdHVyZTETMBEGA1UECxMKRXZlcnl0aGlu
ZzEWMBQGA1UEAxMNTW90aGVyIE5hdHVyZTEAMB4XDTE3MDMyOTIzNDE1OFoXDTE3
MDYxMDIzNDE1OFowgZsxCzAJBgNVBAYTAlVTMRgwFgYDVQQKEw9FeHRyZW1lIERp
c2NvcmQxDjAMBgNVBAsTBUNoYW9zMRQwEgYDVQQHEwtUYWxsYWhhc3NlZTELMAkG
A1UECBMCRkwxHDAaBgNVBAkTEzMyMTAgSG9sbHkgTWlsbCBSdW4xDjAMBgNVBBET
BTMwMDYyMQ8wDQYDVQQDEwZnb3YudXMxADCCASIwDQYJKoZIhvcNAQEBBQADggEP
ADCCAQoCggEBAM5jGAU3TaXGDj8tCRRAxPCON4wkmZaOpLSs2KiTV/IAXvMOh0Pe
WSSTZxSDKJJrvpMNjvK8dg4NTBeIG78eML1h9CXgq10/Np9Dvu1xm5/tMZb0xaNr
2BxC/Wzae+l+IJhwr0f7CCuaywwWASfAhmf2hXv43zh6/biIKdAv0pMu3ZLomrmJ
31Djr1CRivgvqv7V0kKyScp70htk7CXOkBX3bQfKrjV61NHMwW4kAB+naR/cLtcV
ksV1CfidjZM0vETtASqY4jNdDvK3ZcLd4MqKBBYfSOJZGKbyPAbYVDKd5KAis6Q9
M5d8hn5t7IXlhjKG0wQhB7s2Rh5YVW5Rj/kCAwEAAaOB7zCB7DAOBgNVHQ8BAf8E
BAMCAKAwHQYDVR0lBBYwFAYIKwYBBQUHAwIGCCsGAQUFBwMBMAwGA1UdEwEB/wQC
MAAwDgYDVR0jBAcwBYADAQIDMGIGCCsGAQUFBwEBBFYwVDAhBggrBgEFBQcwAYYV
aHR0cDovL3RoZWNhLm5ldC9vY3NwMC8GCCsGAQUFBzAChiNodHRwOi8vdGhlY2Eu
bmV0L3RvdGFsbHl0aGVjZXJ0LmNydDATBgNVHSAEDDAKMAgGBmeBDAECAjANBgNV
HQ4EBgQEBAMCATAVBgNVHREEDjAMggp3d3cuZ292LnVzMAsGCSqGSIb3DQEBBQOC
AQEAxWwE4DowdI9GwxENaZPARRXqlbYbHG1e9hrkuUERlllI58XrZoOL838opmX/
t1f7NL82LLoAoTV7Y9D1bhpshFV2Io+rJICRZjP/pK+/dOifzNFwRZdTfOgv0KvN
9yLJhMugZ3O4fcBqhKh6Zb0alpz7eBL3BSqn/sXc2zHS+jPwcL0DAjiFi3EV8P+U
vR8WVW+pYacLobWJLHJyvg+wpn6kvxC/Hr7srFYoSSvH4VEBtfJhjN90gd3MJiP5
ET01hQAfqBEDYovwzI0tacosJzjMWweeGnq7/jpRMikrwt5ptDLd5uGwYTSr6GTC
zcrXfwLGpT/xjAwBvNkZHlC7VQ==
-----END CERTIFICATE-----
