Certificate:
    Data:
        Version: 3 (0x2)
        Serial Number: 18008675309 (0x4316693ed)
    Signature Algorithm: sha256WithRSAEncryption
        Issuer: C = US, O = Mother Nature, OU = Everything, CN = Mother Nature
        Validity
            Not Before: Apr 27 00:17:35 2017 GMT
            Not After : Jul  9 00:17:35 2017 GMT
        Subject: C = US, ST = FL, L = Tallahassee, street = 3210 Holly Mill Run, postalCode = 30062, O = Extreme Discord, OU = Chaos, CN = gov.us
        Subject Public Key Info:
            Public Key Algorithm: rsaEncryption
                Public-Key: (2048 bit)
                Modulus:
                    00:ba:b5:11:49:2b:f6:e4:c9:d3:cb:18:16:58:7f:
                    71:9f:eb:a3:3b:7c:8c:48:3c:7f:1f:f3:53:c6:00:
                    6a:b5:72:8e:c0:d2:30:32:ce:87:0e:94:28:49:ef:
                    5d:d2:0f:32:fb:b4:54:26:da:75:cc:9b:57:10:74:
                    ff:57:a1:38:7f:50:5b:73:d6:1c:11:8b:af:7e:aa:
                    e0:db:6f:15:6b:2d:db:c7:90:76:83:c6:99:8c:38:
                    66:78:65:80:c0:53:ea:55:ec:5a:d8:58:2c:92:e9:
                    93:6f:12:4e:d6:61:72:f0:d9:e4:d4:3e:69:ee:08:
                    13:90:8f:d2:0c:a3:46:0d:36:6c:87:30:b5:b3:1d:
                    71:96:8c:b7:ee:66:f3:64:82:30:f3:a0:f4:89:30:
                    a5:95:62:38:66:1a:6f:b7:9a:99:dd:f8:88:69:a9:
                    69:3b:cc:51:15:88:a0:28:cf:73:a2:68:48:6c:75:
                    91:d7:15:6f:cc:a0:cd:9a:9d:4f:11:00:1c:ff:26:
                    c8:92:e1:fd:ff:cc:4a:95:55:17:2d:a4:25:4a:76:
                    a0:60:4e:51:f6:d0:17:b5:23:92:39:88:7d:04:f6:
                    2d:b9:a0:85:7f:d8:17:a8:b3:3b:48:a9:c5:21:1d:
                    5f:13:88:37:49:67:a3:ec:a1:73:37:13:69:f8:b9:
                    ce:15
                Exponent: 65537 (0x10001)
        X509v3 extensions:
            X509v3 Key Usage: critical
                Digital Signature, Key Encipherment
            X509v3 Extended Key Usage: 
                TLS Web Client Authentication, TLS Web Server Authentication
            X509v3 Basic Constraints: critical
                CA:FALSE
            X509v3 Authority Key Identifier: 
                keyid:01:02:03

            Authority Information Access: 
                OCSP - URI:http://theca.net/ocsp
                CA Issuers - URI:http://theca.net/totallythecert.crt

            X509v3 Certificate Policies: 
                Policy: 2.23.140.1.2.2

            X509v3 Subject Key Identifier: 
                04:03:02:01
            X509v3 Subject Alternative Name: 
                DNS:*.gov.us, DNS:co.uk
    Signature Algorithm: sha256WithRSAEncryption
         3c:dc:aa:f6:12:05:20:f7:4c:3a:2e:3c:21:d1:2a:3c:45:dd:
         c1:3b:44:dc:bc:ef:1c:e4:f1:e3:f1:8a:02:18:2e:4c:6f:be:
         bc:33:20:2f:58:1e:4e:d4:12:ba:5e:4b:05:7f:70:de:3a:b8:
         70:29:16:6a:1b:d8:e2:96:e6:b8:e0:d0:8f:e6:f2:17:cd:c0:
         89:ab:30:88:a6:fd:10:94:3f:2e:4b:ea:9b:ae:33:f3:55:8d:
         33:28:7a:d3:11:89:fb:ff:42:c5:64:b4:c5:96:7f:de:6b:53:
         0a:3d:6f:8d:62:cd:7a:79:41:74:ed:7b:3a:5d:54:0b:60:75:
         2c:42:4e:d3:ad:69:79:95:cc:ea:7f:31:40:8b:61:ac:4c:ee:
         b8:55:9c:6d:a8:1f:1a:9f:e2:0f:13:6a:4f:74:05:4e:6c:0d:
         4b:8d:aa:a9:34:74:5b:70:f1:75:67:bd:74:0f:e6:19:57:9c:
         ab:17:e6:5b:5b:f0:70:d9:04:22:14:d7:ec:e7:c4:bb:fa:cd:
         38:5f:07:aa:42:6e:f7:03:df:b6:19:ea:21:73:4f:f8:1d:b7:
         10:0b:90:74:90:19:75:57:2a:cb:91:bb:69:10:c6:82:db:9e:
         fb:79:ce:36:65:d7:12:60:66:fa:76:f4:f8:96:a4:20:1e:36:
         3b:6b:3b:6e
-----BEGIN CERTIFICATE-----
MIIEYDCCA0igAwIBAgIFBDFmk+0wDQYJKoZIhvcNAQELBQAwUjELMAkGA1UEBhMC
VVMxFjAUBgNVBAoTDU1vdGhlciBOYXR1cmUxEzARBgNVBAsTCkV2ZXJ5dGhpbmcx
FjAUBgNVBAMTDU1vdGhlciBOYXR1cmUwHhcNMTcwNDI3MDAxNzM1WhcNMTcwNzA5
MDAxNzM1WjCBmTELMAkGA1UEBhMCVVMxCzAJBgNVBAgTAkZMMRQwEgYDVQQHEwtU
YWxsYWhhc3NlZTEcMBoGA1UECRMTMzIxMCBIb2xseSBNaWxsIFJ1bjEOMAwGA1UE
ERMFMzAwNjIxGDAWBgNVBAoTD0V4dHJlbWUgRGlzY29yZDEOMAwGA1UECxMFQ2hh
b3MxDzANBgNVBAMTBmdvdi51czCCASIwDQYJKoZIhvcNAQEBBQADggEPADCCAQoC
ggEBALq1EUkr9uTJ08sYFlh/cZ/rozt8jEg8fx/zU8YAarVyjsDSMDLOhw6UKEnv
XdIPMvu0VCbadcybVxB0/1ehOH9QW3PWHBGLr36q4NtvFWst28eQdoPGmYw4Znhl
gMBT6lXsWthYLJLpk28STtZhcvDZ5NQ+ae4IE5CP0gyjRg02bIcwtbMdcZaMt+5m
82SCMPOg9IkwpZViOGYab7eamd34iGmpaTvMURWIoCjPc6JoSGx1kdcVb8ygzZqd
TxEAHP8myJLh/f/MSpVVFy2kJUp2oGBOUfbQF7UjkjmIfQT2LbmghX/YF6izO0ip
xSEdXxOIN0lno+yhczcTafi5zhUCAwEAAaOB9DCB8TAOBgNVHQ8BAf8EBAMCBaAw
HQYDVR0lBBYwFAYIKwYBBQUHAwIGCCsGAQUFBwMBMAwGA1UdEwEB/wQCMAAwDgYD
VR0jBAcwBYADAQIDMGIGCCsGAQUFBwEBBFYwVDAhBggrBgEFBQcwAYYVaHR0cDov
L3RoZWNhLm5ldC9vY3NwMC8GCCsGAQUFBzAChiNodHRwOi8vdGhlY2EubmV0L3Rv
dGFsbHl0aGVjZXJ0LmNydDATBgNVHSAEDDAKMAgGBmeBDAECAjANBgNVHQ4EBgQE
BAMCATAaBgNVHREEEzARgggqLmdvdi51c4IFY28udWswDQYJKoZIhvcNAQELBQAD
ggEBADzcqvYSBSD3TDouPCHRKjxF3cE7RNy87xzk8ePxigIYLkxvvrwzIC9YHk7U
ErpeSwV/cN46uHApFmob2OKW5rjg0I/m8hfNwImrMIim/RCUPy5L6puuM/NVjTMo
etMRifv/QsVktMWWf95rUwo9b41izXp5QXTtezpdVAtgdSxCTtOtaXmVzOp/MUCL
YaxM7rhVnG2oHxqf4g8Tak90BU5sDUuNqqk0dFtw8XVnvXQP5hlXnKsX5ltb8HDZ
BCIU1+znxLv6zThfB6pCbvcD37YZ6iFzT/gdtxALkHSQGXVXKsuRu2kQxoLbnvt5
zjZl1xJgZvp29PiWpCAeNjtrO24=
-----END CERTIFICATE-----
