Certificate:
    Data:
        Version: 3 (0x2)
        Serial Number: 18008675309 (0x4316693ed)
    Signature Algorithm: sha256WithRSAEncryption
        Issuer: C = US, O = Mother Nature, OU = Everything, CN = Mother Nature
        Validity
            Not Before: Mar 17 20:56:09 2017 GMT
            Not After : May 29 20:56:09 2017 GMT
        Subject: C = US, ST = FL, L = Tallahassee, street = 3210 Holly Mill Run, postalCode = 30062, O = Extreme Discord, OU = Chaos, CN = gov.us
        Subject Public Key Info:
            Public Key Algorithm: rsaEncryption
                Public-Key: (2048 bit)
                Modulus:
                    00:c5:26:6d:3e:72:75:d4:e3:77:56:03:e2:a9:5c:
                    6c:f8:2d:4d:64:de:25:a8:94:86:41:3f:bb:1e:64:
                    b6:a7:55:09:b3:94:33:ce:c3:d9:0e:68:da:81:33:
                    53:5a:97:2c:e3:79:b9:a8:14:44:54:c2:07:d7:87:
                    8a:17:ca:79:4f:50:ec:35:4b:e3:6b:be:3d:cd:1d:
                    51:56:73:0d:0c:f6:de:71:ea:7e:b7:52:77:1a:1f:
                    d1:29:bf:93:3e:c2:7c:67:cc:a0:ec:28:b8:64:42:
                    3c:72:95:2c:cb:36:de:47:c4:39:28:f2:cd:b7:74:
                    1d:17:b0:c3:b0:e2:8a:df:b0:2e:f0:ef:24:a5:26:
                    61:20:22:23:05:32:33:e3:30:98:2a:50:b3:f5:bd:
                    a8:c3:c9:cc:c2:41:53:0c:28:84:55:13:36:88:8e:
                    cb:1b:e8:39:e5:4e:32:3e:21:fd:54:5b:7b:50:f4:
                    c4:cf:87:8d:02:c5:51:c6:d4:6b:85:be:8c:5e:b2:
                    b4:e1:77:b9:9a:32:43:ac:07:a2:9f:fa:2e:8b:b1:
                    4b:0f:bf:70:72:fa:3c:9c:4f:24:23:21:f4:c4:3e:
                    e1:1f:6c:2b:8d:f1:60:f8:63:ca:19:bb:34:d8:47:
                    e6:78:6d:e5:3c:b5:cf:d3:2c:ff:4c:2c:21:6a:88:
                    a7:27
                Exponent: 65537 (0x10001)
        X509v3 extensions:
            X509v3 Key Usage: critical
                Digital Signature, Key Encipherment
            X509v3 Extended Key Usage: 
                TLS Web Client Authentication, TLS Web Server Authentication
            X509v3 Basic Constraints: critical
                CA:FALSE
            X509v3 Authority Key Identifier: 
                keyid:01:02:03

            Authority Information Access: 
                OCSP - URI:http://theca.net/ocsp
                CA Issuers - URI:http://theca.net/totallythecert.crt

            X509v3 Subject Alternative Name: 
                DNS:*
            X509v3 Certificate Policies: 
                Policy: 2.23.140.1.2.2

    Signature Algorithm: sha256WithRSAEncryption
         9d:f7:20:92:5d:04:1b:df:7b:3f:87:4c:e5:84:98:f2:2c:29:
         78:bf:3b:91:b3:df:f2:6d:bd:b7:f2:d6:22:09:a9:e6:57:1e:
         f0:0f:a2:d9:03:3f:a3:df:3c:a1:44:5b:91:79:97:2f:0b:af:
         ed:77:ff:1d:17:b1:ae:bc:d1:d0:a1:f4:dd:3d:02:8b:52:d5:
         41:c3:55:a0:f1:61:32:8d:2b:f8:6f:22:29:00:74:a1:58:e3:
         93:14:98:46:77:fa:be:c5:48:83:d7:23:32:6b:d1:28:ae:73:
         d6:74:d2:8a:80:5e:35:01:cd:65:cd:35:13:23:c5:e5:fe:dd:
         cf:53:af:ca:6f:21:75:e3:be:0b:fc:6f:41:c9:4d:06:b2:46:
         33:69:97:a4:e4:72:39:67:b9:8a:7e:22:32:ae:b2:2b:83:75:
         e8:9f:c2:3e:88:01:b3:41:bc:15:5e:6e:e2:06:73:08:e2:c0:
         80:c4:dc:04:d2:e3:de:ec:6c:22:ea:d1:79:1b:e2:b0:d8:8a:
         ec:87:0f:73:c0:e8:f9:fa:d7:5b:ee:35:bb:90:36:30:5e:93:
         5f:94:6c:1e:a0:0b:fb:ae:ea:f5:09:12:13:72:de:8f:7f:95:
         72:fa:84:3e:70:64:ac:58:3d:c2:56:ef:54:50:43:d1:c6:89:
         af:3b:25:36
-----BEGIN CERTIFICATE-----
MIIEQzCCAyugAwIBAgIFBDFmk+0wDQYJKoZIhvcNAQELBQAwUjELMAkGA1UEBhMC
VVMxFjAUBgNVBAoTDU1vdGhlciBOYXR1cmUxEzARBgNVBAsTCkV2ZXJ5dGhpbmcx
FjAUBgNVBAMTDU1vdGhlciBOYXR1cmUwHhcNMTcwMzE3MjA1NjA5WhcNMTcwNTI5
MjA1NjA5WjCBmTELMAkGA1UEBhMCVVMxCzAJBgNVBAgTAkZMMRQwEgYDVQQHEwtU
YWxsYWhhc3NlZTEcMBoGA1UECRMTMzIxMCBIb2xseSBNaWxsIFJ1bjEOMAwGA1UE
ERMFMzAwNjIxGDAWBgNVBAoTD0V4dHJlbWUgRGlzY29yZDEOMAwGA1UECxMFQ2hh
b3MxDzANBgNVBAMTBmdvdi51czCCASIwDQYJKoZIhvcNAQEBBQADggEPADCCAQoC
ggEBAMUmbT5yddTjd1YD4qlcbPgtTWTeJaiUhkE/ux5ktqdVCbOUM87D2Q5o2oEz
U1qXLON5uagURFTCB9eHihfKeU9Q7DVL42u+Pc0dUVZzDQz23nHqfrdSdxof0Sm/
kz7CfGfMoOwouGRCPHKVLMs23kfEOSjyzbd0HReww7Diit+wLvDvJKUmYSAiIwUy
M+MwmCpQs/W9qMPJzMJBUwwohFUTNoiOyxvoOeVOMj4h/VRbe1D0xM+HjQLFUcbU
a4W+jF6ytOF3uZoyQ6wHop/6LouxSw+/cHL6PJxPJCMh9MQ+4R9sK43xYPhjyhm7
NNhH5nht5Ty1z9Ms/0wsIWqIpycCAwEAAaOB1zCB1DAOBgNVHQ8BAf8EBAMCBaAw
HQYDVR0lBBYwFAYIKwYBBQUHAwIGCCsGAQUFBwMBMAwGA1UdEwEB/wQCMAAwDgYD
VR0jBAcwBYADAQIDMGIGCCsGAQUFBwEBBFYwVDAhBggrBgEFBQcwAYYVaHR0cDov
L3RoZWNhLm5ldC9vY3NwMC8GCCsGAQUFBzAChiNodHRwOi8vdGhlY2EubmV0L3Rv
dGFsbHl0aGVjZXJ0LmNydDAMBgNVHREEBTADggEqMBMGA1UdIAQMMAowCAYGZ4EM
AQICMA0GCSqGSIb3DQEBCwUAA4IBAQCd9yCSXQQb33s/h0zlhJjyLCl4vzuRs9/y
bb238tYiCanmVx7wD6LZAz+j3zyhRFuReZcvC6/td/8dF7GuvNHQofTdPQKLUtVB
w1Wg8WEyjSv4byIpAHShWOOTFJhGd/q+xUiD1yMya9EornPWdNKKgF41Ac1lzTUT
I8Xl/t3PU6/KbyF1474L/G9ByU0GskYzaZek5HI5Z7mKfiIyrrIrg3Xon8I+iAGz
QbwVXm7iBnMI4sCAxNwE0uPe7Gwi6tF5G+Kw2Irshw9zwOj5+tdb7jW7kDYwXpNf
lGweoAv7rur1CRITct6Pf5Vy+oQ+cGSsWD3CVu9UUEPRxomvOyU2
-----END CERTIFICATE-----
