Certificate:
    Data:
        Version: 3 (0x2)
        Serial Number: 14615016 (0xdf01e8)
    Signature Algorithm: sha256WithRSAEncryption
        Issuer: C = US, O = Mother Nature, OU = Everything, CN = Mother Nature
        Validity
            Not Before: Oct  8 23:12:00 2016 GMT
            Not After : Dec 21 00:12:00 2016 GMT
        Subject: C = US, O = Extreme Discord, OU = Chaos, L = Tallahassee, ST = FL, street = 3210 Holly Mill Run, postalCode = 30062, CN = ::
        Subject Public Key Info:
            Public Key Algorithm: rsaEncryption
                Public-Key: (2048 bit)
                Modulus:
                    00:b7:c6:ff:b2:1b:48:2a:14:28:9c:c1:b5:40:14:
                    ad:28:68:c2:d8:97:03:0c:c2:45:a6:f4:f7:9a:19:
                    3d:f5:c3:89:2d:30:06:cb:d2:b5:c5:01:de:b7:28:
                    bf:08:9f:c6:c3:a2:c8:24:7b:3e:97:25:85:f7:d8:
                    e1:dd:b9:96:af:2d:72:7f:df:76:e3:78:30:ec:1e:
                    08:f9:b7:ba:24:f9:d8:44:85:b9:69:31:bc:7c:bc:
                    28:de:db:44:12:e2:f7:76:fa:f9:af:f4:c3:0d:ed:
                    89:6a:e0:b5:e7:59:04:aa:7c:b6:d2:5e:53:3d:42:
                    a1:7d:bb:bb:95:19:75:81:99:24:92:aa:0a:45:d9:
                    92:aa:62:1f:b2:f4:43:0d:25:c6:20:f4:cf:e6:b1:
                    0e:17:a7:79:39:a4:de:71:81:53:1b:14:4b:2f:10:
                    3b:9c:c2:7a:4f:c7:fd:ce:4d:e0:0f:97:89:e7:4a:
                    39:4b:d5:98:29:71:df:67:ad:19:ff:4b:4b:2f:cf:
                    97:54:ba:7b:0d:16:64:5f:6f:bc:d0:cf:4e:d3:a3:
                    52:cb:84:9e:7a:8b:5c:01:69:40:08:85:1e:2d:f5:
                    b5:ad:52:6f:d4:63:3f:0b:46:6c:22:d1:71:bd:fa:
                    59:d2:81:b6:9e:b5:15:dc:7e:b4:21:80:6e:fc:f9:
                    4f:47
                Exponent: 65537 (0x10001)
        X509v3 extensions:
            X509v3 Basic Constraints: critical
                CA:FALSE
            X509v3 Authority Key Identifier: 
                keyid:01:02:03

            Authority Information Access: 
                OCSP - URI:http://theca.net/ocsp
                CA Issuers - URI:theca.net/totallythecert.crt

            X509v3 Subject Alternative Name: 
                DNS:totallyfake...net, IP Address:128.168.45.1
            X509v3 CRL Distribution Points: 

                Full Name:
                  URI:ldap://theca.net/crlpoint

            X509v3 Subject Key Identifier: 
                04:03:02:01
            X509v3 Key Usage: 
                Data Encipherment, Key Agreement
            X509v3 Extended Key Usage: 
                TLS Web Server Authentication, 1.2.840.113635.100.4.3, Signing KDC Response, Any Extended Key Usage
            X509v3 Certificate Policies: 
                Policy: 2.16.840.1.114414.1.7.23.1
                  CPS: http://certificates.starfieldtech.com/repository/

    Signature Algorithm: sha256WithRSAEncryption
         68:00:59:9f:73:f6:15:c4:59:c5:a1:f5:27:f9:6e:78:bc:50:
         d8:c9:1f:94:f0:da:f0:0d:fc:a7:15:45:3a:38:bb:f1:d8:25:
         9b:51:34:0c:a1:c9:65:d9:05:94:cc:72:8c:89:e8:10:6a:7a:
         e2:96:33:70:f0:dd:76:3e:63:bc:19:65:d0:3b:5c:07:e3:f1:
         d7:4f:0b:54:b0:86:6e:68:58:05:d3:39:1e:31:62:a3:fb:da:
         bf:16:3e:86:4a:ab:0e:99:b8:3f:9b:98:60:4b:1b:5e:3b:9e:
         f0:82:e8:a5:f2:19:8b:b2:61:da:9b:a5:48:fd:9a:b1:f2:8e:
         3d:1b:9d:c3:3a:53:38:3f:16:46:ca:06:78:07:4e:0c:9f:b9:
         5f:f8:84:7a:90:3d:bb:16:14:a8:02:46:49:80:a4:a5:d0:bc:
         e0:d3:ad:e5:f5:6b:10:39:ed:6a:9c:78:67:58:87:6d:02:42:
         c1:53:7a:d7:21:bf:b7:d6:06:bf:75:f6:60:95:d2:43:e2:18:
         f0:90:96:5e:a0:2c:0c:a0:16:05:b5:66:5b:5c:df:07:dc:bd:
         e6:85:03:cc:0f:fd:4e:76:1f:0d:89:e8:23:10:e7:9c:e6:66:
         7c:38:56:81:9d:16:7e:5c:be:27:ff:22:a8:3a:3e:48:01:e6:
         64:1c:44:40
-----BEGIN CERTIFICATE-----
MIIE3TCCA8egAwIBAgIEAN8B6DALBgkqhkiG9w0BAQswVDELMAkGA1UEBhMCVVMx
FjAUBgNVBAoTDU1vdGhlciBOYXR1cmUxEzARBgNVBAsTCkV2ZXJ5dGhpbmcxFjAU
BgNVBAMTDU1vdGhlciBOYXR1cmUxADAeFw0xNjEwMDgyMzEyMDBaFw0xNjEyMjEw
MDEyMDBaMIGXMQswCQYDVQQGEwJVUzEYMBYGA1UEChMPRXh0cmVtZSBEaXNjb3Jk
MQ4wDAYDVQQLEwVDaGFvczEUMBIGA1UEBxMLVGFsbGFoYXNzZWUxCzAJBgNVBAgT
AkZMMRwwGgYDVQQJExMzMjEwIEhvbGx5IE1pbGwgUnVuMQ4wDAYDVQQREwUzMDA2
MjELMAkGA1UEAxMCOjoxADCCASIwDQYJKoZIhvcNAQEBBQADggEPADCCAQoCggEB
ALfG/7IbSCoUKJzBtUAUrShowtiXAwzCRab095oZPfXDiS0wBsvStcUB3rcovwif
xsOiyCR7PpclhffY4d25lq8tcn/fduN4MOweCPm3uiT52ESFuWkxvHy8KN7bRBLi
93b6+a/0ww3tiWrgtedZBKp8ttJeUz1CoX27u5UZdYGZJJKqCkXZkqpiH7L0Qw0l
xiD0z+axDheneTmk3nGBUxsUSy8QO5zCek/H/c5N4A+XiedKOUvVmClx32etGf9L
Sy/Pl1S6ew0WZF9vvNDPTtOjUsuEnnqLXAFpQAiFHi31ta1Sb9RjPwtGbCLRcb36
WdKBtp61Fdx+tCGAbvz5T0cCAwEAAaOCAXUwggFxMAwGA1UdEwEB/wQCMAAwDgYD
VR0jBAcwBYADAQIDMFsGCCsGAQUFBwEBBE8wTTAhBggrBgEFBQcwAYYVaHR0cDov
L3RoZWNhLm5ldC9vY3NwMCgGCCsGAQUFBzAChhx0aGVjYS5uZXQvdG90YWxseXRo
ZWNlcnQuY3J0MCIGA1UdEQQbMBmCEXRvdGFsbHlmYWtlLi4ubmV0hwSAqC0BMCoG
A1UdHwQjMCEwH6AdoBuGGWxkYXA6Ly90aGVjYS5uZXQvY3JscG9pbnQwDQYDVR0O
BAYEBAQDAgEwCwYDVR0PBAQDAgEYMC0GA1UdJQQmMCQGCCsGAQUFBwMBBgkqhkiG
92NkBAMGBysGAQUCAwUGBFUdJQAwWQYDVR0gBFIwUDBOBgtghkgBhv1uAQcXATA/
MD0GCCsGAQUFBwIBFjFodHRwOi8vY2VydGlmaWNhdGVzLnN0YXJmaWVsZHRlY2gu
Y29tL3JlcG9zaXRvcnkvMAsGCSqGSIb3DQEBCwOCAQEAaABZn3P2FcRZxaH1J/lu
eLxQ2MkflPDa8A38pxVFOji78dglm1E0DKHJZdkFlMxyjInoEGp64pYzcPDddj5j
vBll0DtcB+Px108LVLCGbmhYBdM5HjFio/vavxY+hkqrDpm4P5uYYEsbXjue8ILo
pfIZi7Jh2pulSP2asfKOPRudwzpTOD8WRsoGeAdODJ+5X/iEepA9uxYUqAJGSYCk
pdC84NOt5fVrEDntapx4Z1iHbQJCwVN61yG/t9YGv3X2YJXSQ+IY8JCWXqAsDKAW
BbVmW1zfB9y95oUDzA/9TnYfDYnoIxDnnOZmfDhWgZ0Wfly+J/8iqDo+SAHmZBxE
QA==
-----END CERTIFICATE-----
