Certificate:
    Data:
        Version: 3 (0x2)
        Serial Number: 14615016 (0xdf01e8)
    Signature Algorithm: sha256WithRSAEncryption
        Issuer: C = US, O = Mother Nature, OU = Everything, CN = Mother Nature
        Validity
            Not Before: Oct  8 23:12:31 2016 GMT
            Not After : Dec 21 00:12:31 2016 GMT
        Subject: C = US, O = Extreme Discord, OU = Chaos, L = Tallahassee, ST = FL, street = 3210 Holly Mill Run, postalCode = 30062, CN = ::
        Subject Public Key Info:
            Public Key Algorithm: rsaEncryption
                Public-Key: (2048 bit)
                Modulus:
                    00:ab:81:a3:43:1e:01:0f:10:91:53:51:ab:09:db:
                    70:6f:44:8e:51:ee:8a:50:6c:be:6f:2d:2b:53:3b:
                    be:10:d6:df:73:0d:fa:24:33:1a:bb:63:63:e2:fc:
                    5d:98:c7:df:ea:22:38:27:90:c7:af:48:5b:c0:e4:
                    6e:1e:4c:75:32:c7:7c:82:10:63:59:0e:21:f3:7d:
                    02:19:57:65:68:16:72:13:00:65:64:93:60:dd:24:
                    16:b2:9a:a7:7f:67:bd:e5:dd:12:e1:96:c5:0d:1b:
                    c3:b3:04:af:4c:32:b9:13:be:c2:6f:57:d7:9a:dc:
                    5d:45:8a:6e:5b:8f:73:f6:f3:81:2c:a7:d6:fa:30:
                    38:ba:ed:b2:0e:59:d2:c0:2c:94:2e:db:83:ca:7d:
                    39:cc:74:91:2f:69:4b:34:4c:10:80:64:ff:99:0b:
                    b9:92:06:37:6f:ef:0a:02:66:0c:be:fd:70:8c:ea:
                    f9:bd:90:51:d5:f7:c1:f8:a5:f5:69:04:93:34:8b:
                    77:71:65:c2:31:4d:b2:36:e4:8e:36:e9:1d:f7:02:
                    16:2b:7f:22:de:b6:22:3f:69:e4:bc:49:04:fd:d8:
                    57:5f:f2:1a:41:90:8c:e3:b0:58:3b:bf:f2:2e:b5:
                    de:aa:7e:cb:a9:de:9b:9f:fc:0a:d3:d4:0b:9b:d9:
                    da:0d
                Exponent: 65537 (0x10001)
        X509v3 extensions:
            X509v3 Basic Constraints: critical
                CA:FALSE
            X509v3 Authority Key Identifier: 
                keyid:01:02:03

            Authority Information Access: 
                OCSP - URI:http://theca.net/ocsp
                CA Issuers - URI:theca.net/totallythecert.crt

            X509v3 Subject Alternative Name: 
                DNS:totallyfake-.net, IP Address:128.168.45.1
            X509v3 CRL Distribution Points: 

                Full Name:
                  URI:ldap://theca.net/crlpoint

            X509v3 Subject Key Identifier: 
                04:03:02:01
            X509v3 Key Usage: 
                Data Encipherment, Key Agreement
            X509v3 Extended Key Usage: 
                TLS Web Server Authentication, 1.2.840.113635.100.4.3, Signing KDC Response, Any Extended Key Usage
            X509v3 Certificate Policies: 
                Policy: 2.16.840.1.114414.1.7.23.1
                  CPS: http://certificates.starfieldtech.com/repository/

    Signature Algorithm: sha256WithRSAEncryption
         71:b8:92:24:d2:e2:db:f3:33:b6:08:2d:5e:fa:86:6f:b4:93:
         cb:9f:65:0b:59:a7:02:70:81:3b:75:1f:78:20:f4:4a:f0:38:
         e5:e6:0b:cf:12:0d:39:69:c9:3e:0b:01:6d:b5:f7:06:f9:0c:
         73:29:2b:64:2f:3c:6b:16:02:65:11:b6:19:ce:0f:10:3c:8f:
         ff:9e:f5:1f:16:39:1d:02:b7:43:02:29:d4:79:60:c9:a7:ba:
         2a:ea:a1:24:d8:63:76:f3:cb:a8:5b:65:47:2a:ad:c4:56:ce:
         dd:23:21:11:3c:ab:05:e5:c3:6b:e4:2a:c3:fe:99:13:4f:08:
         e7:d5:84:1f:81:3b:15:cb:f2:87:0a:19:8c:21:51:26:77:f1:
         94:95:bd:c3:f6:1c:c5:72:64:8c:84:26:b6:d2:ff:d2:0d:41:
         e7:1c:b1:b2:f1:eb:8e:7e:95:6a:a5:64:d1:22:17:37:66:dd:
         0f:b4:d8:6c:7a:96:90:72:ce:82:0a:37:2f:56:f8:71:ad:ec:
         1f:6f:6b:35:0f:e8:04:9f:17:2d:aa:40:20:f2:36:3a:af:b7:
         b4:38:d8:6d:be:91:1e:3e:5d:5b:a0:1b:ab:09:b6:6c:5f:2c:
         92:0d:85:6e:65:be:a4:f5:13:82:bd:87:ab:fb:6c:6c:9a:c4:
         3c:d2:85:b5
-----BEGIN CERTIFICATE-----
MIIE3DCCA8agAwIBAgIEAN8B6DALBgkqhkiG9w0BAQswVDELMAkGA1UEBhMCVVMx
FjAUBgNVBAoTDU1vdGhlciBOYXR1cmUxEzARBgNVBAsTCkV2ZXJ5dGhpbmcxFjAU
BgNVBAMTDU1vdGhlciBOYXR1cmUxADAeFw0xNjEwMDgyMzEyMzFaFw0xNjEyMjEw
MDEyMzFaMIGXMQswCQYDVQQGEwJVUzEYMBYGA1UEChMPRXh0cmVtZSBEaXNjb3Jk
MQ4wDAYDVQQLEwVDaGFvczEUMBIGA1UEBxMLVGFsbGFoYXNzZWUxCzAJBgNVBAgT
AkZMMRwwGgYDVQQJExMzMjEwIEhvbGx5IE1pbGwgUnVuMQ4wDAYDVQQREwUzMDA2
MjELMAkGA1UEAxMCOjoxADCCASIwDQYJKoZIhvcNAQEBBQADggEPADCCAQoCggEB
AKuBo0MeAQ8QkVNRqwnbcG9EjlHuilBsvm8tK1M7vhDW33MN+iQzGrtjY+L8XZjH
3+oiOCeQx69IW8Dkbh5MdTLHfIIQY1kOIfN9AhlXZWgWchMAZWSTYN0kFrKap39n
veXdEuGWxQ0bw7MEr0wyuRO+wm9X15rcXUWKbluPc/bzgSyn1vowOLrtsg5Z0sAs
lC7bg8p9Ocx0kS9pSzRMEIBk/5kLuZIGN2/vCgJmDL79cIzq+b2QUdX3wfil9WkE
kzSLd3FlwjFNsjbkjjbpHfcCFit/It62Ij9p5LxJBP3YV1/yGkGQjOOwWDu/8i61
3qp+y6nem5/8CtPUC5vZ2g0CAwEAAaOCAXQwggFwMAwGA1UdEwEB/wQCMAAwDgYD
VR0jBAcwBYADAQIDMFsGCCsGAQUFBwEBBE8wTTAhBggrBgEFBQcwAYYVaHR0cDov
L3RoZWNhLm5ldC9vY3NwMCgGCCsGAQUFBzAChhx0aGVjYS5uZXQvdG90YWxseXRo
ZWNlcnQuY3J0MCEGA1UdEQQaMBiCEHRvdGFsbHlmYWtlLS5uZXSHBICoLQEwKgYD
VR0fBCMwITAfoB2gG4YZbGRhcDovL3RoZWNhLm5ldC9jcmxwb2ludDANBgNVHQ4E
BgQEBAMCATALBgNVHQ8EBAMCARgwLQYDVR0lBCYwJAYIKwYBBQUHAwEGCSqGSIb3
Y2QEAwYHKwYBBQIDBQYEVR0lADBZBgNVHSAEUjBQME4GC2CGSAGG/W4BBxcBMD8w
PQYIKwYBBQUHAgEWMWh0dHA6Ly9jZXJ0aWZpY2F0ZXMuc3RhcmZpZWxkdGVjaC5j
b20vcmVwb3NpdG9yeS8wCwYJKoZIhvcNAQELA4IBAQBxuJIk0uLb8zO2CC1e+oZv
tJPLn2ULWacCcIE7dR94IPRK8Djl5gvPEg05ack+CwFttfcG+QxzKStkLzxrFgJl
EbYZzg8QPI//nvUfFjkdArdDAinUeWDJp7oq6qEk2GN288uoW2VHKq3EVs7dIyER
PKsF5cNr5CrD/pkTTwjn1YQfgTsVy/KHChmMIVEmd/GUlb3D9hzFcmSMhCa20v/S
DUHnHLGy8euOfpVqpWTRIhc3Zt0PtNhsepaQcs6CCjcvVvhxrewfb2s1D+gEnxct
qkAg8jY6r7e0ONhtvpEePl1boBurCbZsXyySDYVuZb6k9ROCvYer+2xsmsQ80oW1
-----END CERTIFICATE-----
