Certificate:
    Data:
        Version: 3 (0x2)
        Serial Number: 18008675984 (0x431669690)
    Signature Algorithm: sha256WithRSAEncryption
        Issuer: C = US, O = Mother Nature, OU = Everything, CN = Mother Nature
        Validity
            Not Before: Jul  7 20:37:16 2016 GMT
            Not After : Sep 19 20:37:16 2016 GMT
        Subject: C = US, ST = FL, L = Tallahassee, street = 3210 Holly Mill Run, postalCode = 30062, O = Extreme Discord, OU = Chaos, CN = gov.us
        Subject Public Key Info:
            Public Key Algorithm: rsaEncryption
                Public-Key: (2048 bit)
                Modulus:
                    00:b1:ad:b2:94:6d:5e:f0:32:3f:aa:0e:6e:73:db:
                    35:84:8c:36:64:ee:5a:fc:d3:16:ef:aa:82:92:ce:
                    37:8d:57:0c:f6:01:2d:3a:8b:3e:0f:9a:86:5f:e2:
                    1c:a5:45:39:47:08:65:63:24:c3:7a:30:fa:d9:07:
                    f6:52:52:64:e7:d6:e0:58:81:68:39:37:de:dd:60:
                    5a:4e:2f:4e:6c:e2:4d:bb:32:c2:ae:b2:00:ae:fa:
                    78:af:89:08:ff:ff:23:5b:d8:1b:cc:a7:8b:6d:c0:
                    8b:7e:da:03:a5:1d:f3:93:f3:58:54:c5:20:5f:6f:
                    e0:90:55:3a:2c:7c:39:3e:c9:36:30:00:21:6a:91:
                    79:9d:28:bc:4f:00:bc:5f:f6:5c:11:e5:76:63:80:
                    05:dd:d3:a9:c4:c9:bb:c9:ce:ef:14:57:23:24:af:
                    23:4c:da:d6:33:50:1c:dc:22:fa:be:17:2b:df:1f:
                    bd:a7:ef:23:f5:d0:12:6d:1b:d6:8e:72:f1:23:c2:
                    b0:16:99:aa:a2:80:25:ac:57:5d:c2:42:ec:63:28:
                    d1:b5:2d:18:cf:28:22:6b:2a:08:68:38:df:d1:2c:
                    ad:e1:e9:b4:36:26:fa:01:f4:b1:38:d4:70:ec:ed:
                    50:c7:b3:23:7b:9c:47:ac:52:7e:95:62:46:b8:45:
                    90:1f
                Exponent: 65537 (0x10001)
        X509v3 extensions:
            X509v3 Key Usage: critical
                Digital Signature, Key Encipherment
            X509v3 Extended Key Usage: 
                TLS Web Client Authentication, TLS Web Server Authentication
            X509v3 Basic Constraints: critical
                CA:TRUE
            Authority Information Access: 
                OCSP - URI:http://theca.net/ocsp
                CA Issuers - URI:http://theca.net/totallythecert.crt

            X509v3 Certificate Policies: 
                Policy: 1.3.6.1.5.5.7.13.1
                Policy: 2.23.140.1.2.2

            X509v3 Subject Key Identifier: 
                04:03:02:01
            X509v3 Subject Alternative Name: 
                DNS:*.gov.us, DNS:gov.us, DirName:/O=Extreme Discord
            X509v3 Issuer Alternative Name: 
                DNS:allthethings.net, DNS:theca.net
            X509v3 Authority Key Identifier: 
                keyid:01:02:03:04
                serial:1C:BD:7D:87:57

    Signature Algorithm: sha256WithRSAEncryption
         62:19:87:6f:2b:4e:9e:de:58:b4:1c:33:87:e1:83:19:08:34:
         b6:39:ed:f8:1b:d1:79:12:e2:19:72:54:fd:85:5d:c7:a9:ca:
         9c:f1:8c:e4:84:fc:7e:0b:11:28:13:1f:6a:44:1f:e8:cd:dd:
         61:81:5f:ba:33:18:5f:57:11:35:20:e5:d6:a9:63:79:02:06:
         5f:59:b0:8f:8b:bb:f2:ae:c9:be:8d:2a:fb:8e:e0:cc:c6:c7:
         51:43:69:07:e7:5e:ee:dc:17:66:93:a1:79:23:b2:3e:76:72:
         d2:5f:e3:7a:6e:de:8a:79:b2:11:75:66:ad:73:01:a7:53:7d:
         22:22:5b:50:54:5f:9d:92:4a:1d:c3:84:ff:77:5a:36:a5:a2:
         b2:c7:80:b8:2d:86:f3:f7:fe:92:9e:c3:a6:eb:ac:9a:39:a8:
         4c:d5:8f:2e:f4:4b:d3:36:d7:d8:3e:5c:a5:c2:0a:43:66:de:
         9d:44:de:bd:e2:f3:55:9e:0e:d9:c8:ef:c6:f3:8b:93:30:b5:
         c2:d8:2c:2d:60:a4:92:3d:15:55:93:67:f2:2b:c7:e0:aa:18:
         f6:00:ab:23:04:2f:c1:0d:c5:e0:8d:ad:4a:88:ed:87:2f:28:
         0e:ce:5f:63:71:52:1b:8e:ca:99:2e:4f:90:89:ca:8e:9b:4c:
         8d:73:fc:59
-----BEGIN CERTIFICATE-----
MIIEwDCCA6igAwIBAgIFBDFmlpAwDQYJKoZIhvcNAQELBQAwUjELMAkGA1UEBhMC
VVMxFjAUBgNVBAoTDU1vdGhlciBOYXR1cmUxEzARBgNVBAsTCkV2ZXJ5dGhpbmcx
FjAUBgNVBAMTDU1vdGhlciBOYXR1cmUwHhcNMTYwNzA3MjAzNzE2WhcNMTYwOTE5
MjAzNzE2WjCBmTELMAkGA1UEBhMCVVMxCzAJBgNVBAgTAkZMMRQwEgYDVQQHEwtU
YWxsYWhhc3NlZTEcMBoGA1UECRMTMzIxMCBIb2xseSBNaWxsIFJ1bjEOMAwGA1UE
ERMFMzAwNjIxGDAWBgNVBAoTD0V4dHJlbWUgRGlzY29yZDEOMAwGA1UECxMFQ2hh
b3MxDzANBgNVBAMTBmdvdi51czCCASIwDQYJKoZIhvcNAQEBBQADggEPADCCAQoC
ggEBALGtspRtXvAyP6oObnPbNYSMNmTuWvzTFu+qgpLON41XDPYBLTqLPg+ahl/i
HKVFOUcIZWMkw3ow+tkH9lJSZOfW4FiBaDk33t1gWk4vTmziTbsywq6yAK76eK+J
CP//I1vYG8yni23Ai37aA6Ud85PzWFTFIF9v4JBVOix8OT7JNjAAIWqReZ0ovE8A
vF/2XBHldmOABd3TqcTJu8nO7xRXIySvI0za1jNQHNwi+r4XK98fvafvI/XQEm0b
1o5y8SPCsBaZqqKAJaxXXcJC7GMo0bUtGM8oImsqCGg439EsreHptDYm+gH0sTjU
cOztUMezI3ucR6xSfpViRrhFkB8CAwEAAaOCAVMwggFPMA4GA1UdDwEB/wQEAwIF
oDAdBgNVHSUEFjAUBggrBgEFBQcDAgYIKwYBBQUHAwEwDwYDVR0TAQH/BAUwAwEB
/zBiBggrBgEFBQcBAQRWMFQwIQYIKwYBBQUHMAGGFWh0dHA6Ly90aGVjYS5uZXQv
b2NzcDAvBggrBgEFBQcwAoYjaHR0cDovL3RoZWNhLm5ldC90b3RhbGx5dGhlY2Vy
dC5jcnQwHwYDVR0gBBgwFjAKBggrBgEFBQcNATAIBgZngQwBAgIwDQYDVR0OBAYE
BAQDAgEwOQYDVR0RBDIwMIIIKi5nb3YudXOCBmdvdi51c6QcMBoxGDAWBgNVBAoT
D0V4dHJlbWUgRGlzY29yZDAmBgNVHRIEHzAdghBhbGx0aGV0aGluZ3MubmV0ggl0
aGVjYS5uZXQwFgYDVR0jBA8wDYAEAQIDBIIFHL19h1cwDQYJKoZIhvcNAQELBQAD
ggEBAGIZh28rTp7eWLQcM4fhgxkINLY57fgb0XkS4hlyVP2FXcepypzxjOSE/H4L
ESgTH2pEH+jN3WGBX7ozGF9XETUg5dapY3kCBl9ZsI+Lu/Kuyb6NKvuO4MzGx1FD
aQfnXu7cF2aToXkjsj52ctJf43pu3op5shF1Zq1zAadTfSIiW1BUX52SSh3DhP93
WjalorLHgLgthvP3/pKew6brrJo5qEzVjy70S9M219g+XKXCCkNm3p1E3r3i81We
DtnI78bzi5MwtcLYLC1gpJI9FVWTZ/Irx+CqGPYAqyMEL8ENxeCNrUqI7YcvKA7O
X2NxUhuOypkuT5CJyo6bTI1z/Fk=
-----END CERTIFICATE-----
