Certificate:
    Data:
        Version: 3 (0x2)
        Serial Number: 14615016 (0xdf01e8)
    Signature Algorithm: sha256WithRSAEncryption
        Issuer: C = US, O = Mother Nature, OU = Everything, CN = Mother Nature
        Validity
            Not Before: Oct  8 23:12:51 2016 GMT
            Not After : Dec 21 00:12:51 2016 GMT
        Subject: C = US, O = Extreme Discord, OU = Chaos, L = Tallahassee, ST = FL, street = 3210 Holly Mill Run, postalCode = 30062, CN = ::
        Subject Public Key Info:
            Public Key Algorithm: rsaEncryption
                Public-Key: (2048 bit)
                Modulus:
                    00:bf:64:64:ad:ef:46:98:7d:31:64:8e:78:23:79:
                    60:cf:7f:67:c2:3b:95:f5:2e:68:e1:ab:fd:9f:27:
                    5e:6e:01:7a:f2:dd:fd:0a:e9:0b:d3:64:7f:f6:6d:
                    f8:fa:f6:64:62:01:39:de:a2:6f:db:c1:a7:bb:fc:
                    a1:02:64:35:2b:eb:4b:c8:bc:e6:40:6d:9e:ed:83:
                    43:b7:97:12:1f:df:90:30:17:89:da:c0:be:06:1e:
                    f8:75:10:84:be:78:ca:81:7b:d2:58:df:ce:00:bd:
                    77:55:91:f0:ca:79:ff:ae:3f:96:de:e7:2a:e2:17:
                    f0:5e:ec:a0:3b:bd:29:4d:f1:b6:2b:be:f0:32:dd:
                    4f:da:a0:9c:e9:ab:42:8c:b4:bf:cb:1b:18:ee:a7:
                    23:62:c1:a1:c0:46:62:17:f1:52:47:3e:0a:c7:bd:
                    2b:02:90:ab:29:51:d1:37:01:90:33:ac:ba:1c:d0:
                    96:ca:29:48:49:a3:f7:6f:12:3e:9d:ab:40:36:0b:
                    d2:fb:40:f5:b9:e5:f6:ec:b9:b2:87:a6:2a:c4:5b:
                    22:90:cc:c7:25:ab:9a:d4:48:02:50:9d:93:8a:8a:
                    54:4a:1c:ea:30:c8:ea:d7:a8:63:50:88:ff:89:93:
                    8c:57:a4:94:91:1a:5b:dd:88:f8:c4:27:0f:8d:fe:
                    10:ad
                Exponent: 65537 (0x10001)
        X509v3 extensions:
            X509v3 Basic Constraints: critical
                CA:FALSE
            X509v3 Authority Key Identifier: 
                keyid:01:02:03

            Authority Information Access: 
                OCSP - URI:http://theca.net/ocsp
                CA Issuers - URI:theca.net/totallythecert.crt

            X509v3 Subject Alternative Name: 
                DNS:totally$fake.net, IP Address:128.168.45.1
            X509v3 CRL Distribution Points: 

                Full Name:
                  URI:ldap://theca.net/crlpoint

            X509v3 Subject Key Identifier: 
                04:03:02:01
            X509v3 Key Usage: 
                Data Encipherment, Key Agreement
            X509v3 Extended Key Usage: 
                TLS Web Server Authentication, 1.2.840.113635.100.4.3, Signing KDC Response, Any Extended Key Usage
            X509v3 Certificate Policies: 
                Policy: 2.16.840.1.114414.1.7.23.1
                  CPS: http://certificates.starfieldtech.com/repository/

    Signature Algorithm: sha256WithRSAEncryption
         26:85:7f:33:b5:44:ff:41:33:89:e6:0b:e7:ef:a2:d5:82:80:
         a3:81:4e:4b:dd:45:c5:65:37:fc:18:76:04:9b:bb:f2:d6:2e:
         ee:52:9d:30:ce:46:33:98:52:6f:57:bd:ce:df:d2:29:44:54:
         28:06:73:83:cb:e8:ba:22:30:be:b9:10:76:a8:ea:0e:55:dc:
         fc:f5:ce:9e:b1:90:3e:93:60:b3:4f:9a:93:6f:28:95:c5:e8:
         79:68:ae:51:cd:9e:d0:85:93:9e:ed:a6:9d:ae:b7:bd:8c:a4:
         dd:57:e2:fb:0e:51:8e:58:f4:a5:6d:32:04:d8:5e:6f:02:74:
         bc:0c:ad:6d:45:df:4d:16:a0:fa:98:bf:00:77:38:90:5b:c2:
         dc:29:91:6a:a6:b3:43:21:11:b4:b2:75:e8:0f:7a:13:d6:c6:
         ce:81:d3:f2:ad:e9:f9:da:62:9b:ad:e7:1a:68:b2:53:f1:18:
         69:d7:8b:27:c7:3e:bd:0c:34:5d:ba:46:44:21:5e:c4:a7:95:
         de:90:f3:50:57:c9:b6:ac:2b:e1:17:ba:1b:ed:c2:96:2c:a5:
         fc:a2:e8:a7:b2:dc:e4:03:f4:04:cc:10:29:a7:69:aa:fd:45:
         15:a4:fc:16:fd:06:5f:31:83:7b:75:ce:d1:8f:04:3e:ea:0d:
         65:e1:df:52
-----BEGIN CERTIFICATE-----
MIIE3DCCA8agAwIBAgIEAN8B6DALBgkqhkiG9w0BAQswVDELMAkGA1UEBhMCVVMx
FjAUBgNVBAoTDU1vdGhlciBOYXR1cmUxEzARBgNVBAsTCkV2ZXJ5dGhpbmcxFjAU
BgNVBAMTDU1vdGhlciBOYXR1cmUxADAeFw0xNjEwMDgyMzEyNTFaFw0xNjEyMjEw
MDEyNTFaMIGXMQswCQYDVQQGEwJVUzEYMBYGA1UEChMPRXh0cmVtZSBEaXNjb3Jk
MQ4wDAYDVQQLEwVDaGFvczEUMBIGA1UEBxMLVGFsbGFoYXNzZWUxCzAJBgNVBAgT
AkZMMRwwGgYDVQQJExMzMjEwIEhvbGx5IE1pbGwgUnVuMQ4wDAYDVQQREwUzMDA2
MjELMAkGA1UEAxMCOjoxADCCASIwDQYJKoZIhvcNAQEBBQADggEPADCCAQoCggEB
AL9kZK3vRph9MWSOeCN5YM9/Z8I7lfUuaOGr/Z8nXm4BevLd/QrpC9Nkf/Zt+Pr2
ZGIBOd6ib9vBp7v8oQJkNSvrS8i85kBtnu2DQ7eXEh/fkDAXidrAvgYe+HUQhL54
yoF70ljfzgC9d1WR8Mp5/64/lt7nKuIX8F7soDu9KU3xtiu+8DLdT9qgnOmrQoy0
v8sbGO6nI2LBocBGYhfxUkc+Cse9KwKQqylR0TcBkDOsuhzQlsopSEmj928SPp2r
QDYL0vtA9bnl9uy5soemKsRbIpDMxyWrmtRIAlCdk4qKVEoc6jDI6teoY1CI/4mT
jFeklJEaW92I+MQnD43+EK0CAwEAAaOCAXQwggFwMAwGA1UdEwEB/wQCMAAwDgYD
VR0jBAcwBYADAQIDMFsGCCsGAQUFBwEBBE8wTTAhBggrBgEFBQcwAYYVaHR0cDov
L3RoZWNhLm5ldC9vY3NwMCgGCCsGAQUFBzAChhx0aGVjYS5uZXQvdG90YWxseXRo
ZWNlcnQuY3J0MCEGA1UdEQQaMBiCEHRvdGFsbHkkZmFrZS5uZXSHBICoLQEwKgYD
VR0fBCMwITAfoB2gG4YZbGRhcDovL3RoZWNhLm5ldC9jcmxwb2ludDANBgNVHQ4E
BgQEBAMCATALBgNVHQ8EBAMCARgwLQYDVR0lBCYwJAYIKwYBBQUHAwEGCSqGSIb3
Y2QEAwYHKwYBBQIDBQYEVR0lADBZBgNVHSAEUjBQME4GC2CGSAGG/W4BBxcBMD8w
PQYIKwYBBQUHAgEWMWh0dHA6Ly9jZXJ0aWZpY2F0ZXMuc3RhcmZpZWxkdGVjaC5j
b20vcmVwb3NpdG9yeS8wCwYJKoZIhvcNAQELA4IBAQAmhX8ztUT/QTOJ5gvn76LV
goCjgU5L3UXFZTf8GHYEm7vy1i7uUp0wzkYzmFJvV73O39IpRFQoBnODy+i6IjC+
uRB2qOoOVdz89c6esZA+k2CzT5qTbyiVxeh5aK5RzZ7QhZOe7aadrre9jKTdV+L7
DlGOWPSlbTIE2F5vAnS8DK1tRd9NFqD6mL8AdziQW8LcKZFqprNDIRG0snXoD3oT
1sbOgdPyren52mKbrecaaLJT8Rhp14snxz69DDRdukZEIV7Ep5XekPNQV8m2rCvh
F7ob7cKWLKX8ouinstzkA/QEzBApp2mq/UUVpPwW/QZfMYN7dc7RjwQ+6g1l4d9S
-----END CERTIFICATE-----
