Certificate:
    Data:
        Version: 3 (0x2)
        Serial Number: 18008675309 (0x4316693ed)
    Signature Algorithm: sha256WithRSAEncryption
        Issuer: C = US, O = Mother Nature, OU = Everything, CN = Mother Nature
        Validity
            Not Before: Mar 29 19:34:54 2017 GMT
            Not After : Jun 10 19:34:54 2017 GMT
        Subject: C = US, ST = FL, L = Tallahassee, street = 3210 Holly Mill Run, postalCode = 30062, O = Extreme Discord, OU = Chaos, CN = gov.us
        Subject Public Key Info:
            Public Key Algorithm: rsaEncryption
                Public-Key: (2048 bit)
                Modulus:
                    00:9c:62:6c:d4:46:79:ea:29:ac:d6:63:5f:10:28:
                    be:d3:b2:ce:02:6c:1e:77:8f:48:f8:87:53:d2:66:
                    99:0b:a2:4e:f4:45:ac:6f:bb:0f:9f:42:45:9f:15:
                    23:1f:ef:a7:e3:36:6d:5e:f2:bf:fd:03:92:19:17:
                    e2:05:cf:df:d5:5f:9a:dd:8b:2c:08:5b:aa:08:29:
                    ca:a5:69:5b:7d:c2:bd:fb:9f:cf:08:b2:3b:75:07:
                    cf:78:77:a4:4e:30:9a:c4:9a:a5:a0:fa:0e:40:5d:
                    d8:8b:f6:3f:4c:5c:9c:c6:fd:bc:4c:fc:b2:7d:fd:
                    de:1b:47:c1:e2:b7:4c:b1:0c:94:01:02:84:6b:3a:
                    40:c2:50:45:de:a1:0d:22:45:03:63:51:c9:e0:86:
                    14:18:16:61:15:fd:13:66:84:88:df:65:7b:ab:00:
                    92:89:ab:98:4c:0d:67:dc:06:32:dd:3e:86:75:df:
                    7c:34:21:fe:df:3a:69:63:2a:25:bc:7d:76:56:69:
                    93:a9:72:91:0b:96:60:44:20:0e:8e:ac:10:39:e5:
                    30:14:a2:87:87:25:ea:4b:c0:03:ee:8a:66:42:73:
                    2d:17:ea:87:15:e5:96:29:ad:7f:67:32:05:bf:be:
                    53:af:1d:1b:0b:11:9a:dd:82:66:a5:19:6b:b8:1b:
                    d1:63
                Exponent: 65537 (0x10001)
        X509v3 extensions:
            X509v3 Key Usage: critical
                Digital Signature, Key Encipherment
            X509v3 Extended Key Usage: 
                TLS Web Client Authentication, TLS Web Server Authentication
            X509v3 Basic Constraints: critical
                CA:FALSE
            X509v3 Authority Key Identifier: 
                keyid:01:02:03

            Authority Information Access: 
                OCSP - URI:http://theca.net/ocsp
                CA Issuers - URI:http://theca.net/totallythecert.crt

            X509v3 Certificate Policies: 
                Policy: 2.23.140.1.2.2

            X509v3 Subject Key Identifier: 
                04:03:02:01
            X509v3 Subject Alternative Name: 
                DNS:aaaaaaaaaaaaaaaaaaaaaaaaaaaaaaaaaaaaaaaaaaaaaaaaaaaaaaaaaaaaaaaaaaaaaaaaaaaaaaaaaaaaaaaaaaaaaaaaaaaaaaaaaaaaaaaaaaaaaaaaaaaaaaaaaaaaaaaaaaaaaaaaaaaaaaaaaaaaaaaaaaaaaaaaaaaaaaaaaaaaaaaaaaaaaaaaaaaaaaaaaaaaaaaaaaaaaaaaaaaaaaaaaaaaaaaaaaaaaaaaaaaaaaaaaaaaaaaa, DNS:www.gov_il.us
    Signature Algorithm: sha256WithRSAEncryption
         61:b5:3a:29:eb:bc:45:4b:06:a3:dc:12:68:92:23:c1:3f:67:
         59:5b:97:e8:d9:81:5a:0f:8b:97:d9:63:ab:b8:9d:fe:17:51:
         90:65:52:8c:4f:9a:75:65:38:13:57:18:6a:92:24:ed:05:31:
         14:f5:d5:a5:1b:54:c2:0b:58:88:7b:73:2f:d8:33:80:c5:ee:
         3b:66:21:b0:d7:3a:7f:6d:22:bb:4f:96:0e:f1:ab:a1:65:9c:
         0f:98:84:bd:20:94:ac:68:5e:27:e4:ee:b3:6a:27:52:75:4c:
         3a:40:00:2b:6e:51:a3:76:f4:ad:11:65:a5:a8:27:b6:8b:fb:
         84:04:d9:0d:dc:96:dc:92:95:0c:62:f0:35:98:04:ab:f3:30:
         5b:53:f3:c2:da:c2:5d:b9:d6:46:11:ad:26:73:a5:8c:93:55:
         71:4e:45:3d:aa:1b:4b:c1:a2:7d:92:57:86:df:b7:31:53:12:
         ff:74:7a:a4:14:42:f1:a0:7d:71:bd:b9:d3:f7:6c:b9:52:1a:
         c4:4e:13:24:21:4f:4a:29:f6:d2:f7:d7:04:76:8b:63:6a:c4:
         02:22:80:a9:da:df:27:a1:d1:71:bf:83:cf:97:b6:97:6d:6c:
         4c:2e:39:46:e9:39:65:6f:01:9d:8f:20:be:64:40:b9:7a:f3:
         e7:ec:25:fe
-----BEGIN CERTIFICATE-----
MIIFajCCBFKgAwIBAgIFBDFmk+0wDQYJKoZIhvcNAQELBQAwUjELMAkGA1UEBhMC
VVMxFjAUBgNVBAoTDU1vdGhlciBOYXR1cmUxEzARBgNVBAsTCkV2ZXJ5dGhpbmcx
FjAUBgNVBAMTDU1vdGhlciBOYXR1cmUwHhcNMTcwMzI5MTkzNDU0WhcNMTcwNjEw
MTkzNDU0WjCBmTELMAkGA1UEBhMCVVMxCzAJBgNVBAgTAkZMMRQwEgYDVQQHEwtU
YWxsYWhhc3NlZTEcMBoGA1UECRMTMzIxMCBIb2xseSBNaWxsIFJ1bjEOMAwGA1UE
ERMFMzAwNjIxGDAWBgNVBAoTD0V4dHJlbWUgRGlzY29yZDEOMAwGA1UECxMFQ2hh
b3MxDzANBgNVBAMTBmdvdi51czCCASIwDQYJKoZIhvcNAQEBBQADggEPADCCAQoC
ggEBAJxibNRGeeoprNZjXxAovtOyzgJsHnePSPiHU9JmmQuiTvRFrG+7D59CRZ8V
Ix/vp+M2bV7yv/0DkhkX4gXP39Vfmt2LLAhbqggpyqVpW33CvfufzwiyO3UHz3h3
pE4wmsSapaD6DkBd2Iv2P0xcnMb9vEz8sn393htHweK3TLEMlAEChGs6QMJQRd6h
DSJFA2NRyeCGFBgWYRX9E2aEiN9le6sAkomrmEwNZ9wGMt0+hnXffDQh/t86aWMq
Jbx9dlZpk6lykQuWYEQgDo6sEDnlMBSih4cl6kvAA+6KZkJzLRfqhxXllimtf2cy
Bb++U68dGwsRmt2CZqUZa7gb0WMCAwEAAaOCAf0wggH5MA4GA1UdDwEB/wQEAwIF
oDAdBgNVHSUEFjAUBggrBgEFBQcDAgYIKwYBBQUHAwEwDAYDVR0TAQH/BAIwADAO
BgNVHSMEBzAFgAMBAgMwYgYIKwYBBQUHAQEEVjBUMCEGCCsGAQUFBzABhhVodHRw
Oi8vdGhlY2EubmV0L29jc3AwLwYIKwYBBQUHMAKGI2h0dHA6Ly90aGVjYS5uZXQv
dG90YWxseXRoZWNlcnQuY3J0MBMGA1UdIAQMMAowCAYGZ4EMAQICMA0GA1UdDgQG
BAQEAwIBMIIBIAYDVR0RBIIBFzCCAROCggEAYWFhYWFhYWFhYWFhYWFhYWFhYWFh
YWFhYWFhYWFhYWFhYWFhYWFhYWFhYWFhYWFhYWFhYWFhYWFhYWFhYWFhYWFhYWFh
YWFhYWFhYWFhYWFhYWFhYWFhYWFhYWFhYWFhYWFhYWFhYWFhYWFhYWFhYWFhYWFh
YWFhYWFhYWFhYWFhYWFhYWFhYWFhYWFhYWFhYWFhYWFhYWFhYWFhYWFhYWFhYWFh
YWFhYWFhYWFhYWFhYWFhYWFhYWFhYWFhYWFhYWFhYWFhYWFhYWFhYWFhYWFhYWFh
YWFhYWFhYWFhYWFhYWFhYWFhYWFhYWFhYWFhYWFhYWFhYWFhYWFhYWFhYYINd3d3
Lmdvdl9pbC51czANBgkqhkiG9w0BAQsFAAOCAQEAYbU6Keu8RUsGo9wSaJIjwT9n
WVuX6NmBWg+Ll9ljq7id/hdRkGVSjE+adWU4E1cYapIk7QUxFPXVpRtUwgtYiHtz
L9gzgMXuO2YhsNc6f20iu0+WDvGroWWcD5iEvSCUrGheJ+Tus2onUnVMOkAAK25R
o3b0rRFlpagntov7hATZDdyW3JKVDGLwNZgEq/MwW1PzwtrCXbnWRhGtJnOljJNV
cU5FPaobS8GifZJXht+3MVMS/3R6pBRC8aB9cb250/dsuVIaxE4TJCFPSin20vfX
BHaLY2rEAiKAqdrfJ6HRcb+Dz5e2l21sTC45Ruk5ZW8BnY8gvmRAuXrz5+wl/g==
-----END CERTIFICATE-----
