Certificate:
    Data:
        Version: 3 (0x2)
        Serial Number: 18008675309 (0x4316693ed)
    Signature Algorithm: sha256WithRSAEncryption
        Issuer: C = US, O = Mother Nature, OU = Everything, CN = Mother Nature
        Validity
            Not Before: Mar 28 20:25:51 2017 GMT
            Not After : Jun  9 20:25:51 2017 GMT
        Subject: C = US, ST = FL, L = Tallahassee, street = 3210 Holly Mill Run, postalCode = 30062, O = Extreme Discord, OU = Chaos, CN = gov.us
        Subject Public Key Info:
            Public Key Algorithm: rsaEncryption
                Public-Key: (2048 bit)
                Modulus:
                    00:f0:e6:85:71:8b:33:61:11:1d:d2:17:b1:0b:bf:
                    07:bd:bb:d0:e8:a4:81:e7:33:ec:c6:07:89:8a:5e:
                    a4:6c:3a:70:68:81:cf:b8:72:99:e8:10:bf:bd:3c:
                    78:4d:c8:04:4a:e6:df:64:94:18:18:5b:e0:4b:88:
                    90:aa:63:61:3f:3a:de:b3:71:fb:d7:1f:04:53:b8:
                    b8:62:cb:ba:c2:32:35:cc:29:99:1c:27:bc:d5:7e:
                    12:08:54:8f:8b:a7:42:af:ea:26:76:52:6c:4f:41:
                    61:6b:31:6f:7f:6c:5a:82:97:46:a4:ff:4e:42:04:
                    9a:f6:6d:d4:85:ae:e7:28:9f:78:c3:b8:e7:3c:c7:
                    6a:0a:a5:5d:d8:3d:8c:48:e5:bc:78:c6:14:d7:7a:
                    c5:47:c6:ea:f4:d4:fe:6c:fc:f7:61:02:4c:1c:3e:
                    9a:2b:76:e0:31:ff:fe:8b:9d:7d:86:6f:17:ea:75:
                    28:10:f3:b9:e4:7e:ad:1c:75:62:62:6d:ff:09:b2:
                    01:10:60:d8:a0:2f:64:46:ef:bd:69:2a:bd:40:ce:
                    9a:d0:f9:cb:27:89:04:0a:3a:61:c7:56:c8:0a:7b:
                    91:dd:99:82:97:05:f0:15:9f:7d:af:f6:ba:69:f6:
                    6e:8b:e8:87:d4:e9:ac:28:8e:3f:50:b4:b1:10:3d:
                    c4:35
                Exponent: 65537 (0x10001)
        X509v3 extensions:
            X509v3 Key Usage: critical
                Digital Signature, Key Encipherment
            X509v3 Extended Key Usage: 
                TLS Web Client Authentication, TLS Web Server Authentication
            X509v3 Basic Constraints: critical
                CA:FALSE
            X509v3 Authority Key Identifier: 
                keyid:01:02:03

            Authority Information Access: 
                OCSP - URI:http://theca.net/ocsp
                CA Issuers - URI:http://theca.net/totallythecert.crt

            X509v3 Certificate Policies: 
                Policy: 2.23.140.1.2.2

            X509v3 Subject Key Identifier: 
                04:03:02:01
            X509v3 Subject Alternative Name: 
                0..gov..gov.us
    Signature Algorithm: sha256WithRSAEncryption
         78:50:a7:3e:ad:b6:c5:3a:78:50:60:a7:d7:ab:f4:9a:20:4c:
         25:28:d5:39:f0:8b:2c:8c:58:c6:82:3a:9c:a4:86:44:4a:af:
         cc:f5:e8:af:ef:55:4b:d8:6d:ba:de:0e:69:2e:01:55:1b:fd:
         1e:2c:e4:ff:b8:a1:18:25:d6:9b:78:1b:e1:30:82:34:d6:93:
         7b:31:f7:ae:17:25:6f:e3:18:96:f5:c1:36:d7:cd:07:53:e7:
         db:89:0c:ae:bd:c8:ca:8b:03:82:7a:81:b3:eb:97:b4:e6:59:
         7b:2f:b7:d5:90:91:24:ec:8a:f8:06:37:2d:28:9b:04:f1:89:
         bb:c6:3e:24:18:78:5f:e3:b0:1d:41:40:7b:62:d9:70:aa:30:
         33:a9:02:11:45:e4:dc:d0:f3:9d:86:e2:15:ce:a2:f8:70:ef:
         a1:4e:54:7c:4e:a3:2d:be:a2:62:20:37:f5:11:af:31:46:42:
         7a:56:2e:b3:c9:cd:1b:19:48:5e:48:06:40:67:c2:57:f8:b7:
         40:b6:27:29:b7:bd:ed:25:20:27:f1:5a:fc:53:cf:41:3e:07:
         37:ed:d4:5b:b6:01:6b:d0:94:72:b7:e9:90:e8:86:0b:7f:1b:
         fe:09:70:67:f3:db:07:95:4d:16:6f:7a:ab:07:62:bd:04:eb:
         31:97:16:17
-----BEGIN CERTIFICATE-----
MIIEXDCCA0SgAwIBAgIFBDFmk+0wDQYJKoZIhvcNAQELBQAwUjELMAkGA1UEBhMC
VVMxFjAUBgNVBAoTDU1vdGhlciBOYXR1cmUxEzARBgNVBAsTCkV2ZXJ5dGhpbmcx
FjAUBgNVBAMTDU1vdGhlciBOYXR1cmUwHhcNMTcwMzI4MjAyNTUxWhcNMTcwNjA5
MjAyNTUxWjCBmTELMAkGA1UEBhMCVVMxCzAJBgNVBAgTAkZMMRQwEgYDVQQHEwtU
YWxsYWhhc3NlZTEcMBoGA1UECRMTMzIxMCBIb2xseSBNaWxsIFJ1bjEOMAwGA1UE
ERMFMzAwNjIxGDAWBgNVBAoTD0V4dHJlbWUgRGlzY29yZDEOMAwGA1UECxMFQ2hh
b3MxDzANBgNVBAMTBmdvdi51czCCASIwDQYJKoZIhvcNAQEBBQADggEPADCCAQoC
ggEBAPDmhXGLM2ERHdIXsQu/B7270Oikgecz7MYHiYpepGw6cGiBz7hymegQv708
eE3IBErm32SUGBhb4EuIkKpjYT863rNx+9cfBFO4uGLLusIyNcwpmRwnvNV+EghU
j4unQq/qJnZSbE9BYWsxb39sWoKXRqT/TkIEmvZt1IWu5yifeMO45zzHagqlXdg9
jEjlvHjGFNd6xUfG6vTU/mz892ECTBw+mit24DH//oudfYZvF+p1KBDzueR+rRx1
YmJt/wmyARBg2KAvZEbvvWkqvUDOmtD5yyeJBAo6YcdWyAp7kd2ZgpcF8BWffa/2
umn2bovoh9TprCiOP1C0sRA9xDUCAwEAAaOB8DCB7TAOBgNVHQ8BAf8EBAMCBaAw
HQYDVR0lBBYwFAYIKwYBBQUHAwIGCCsGAQUFBwMBMAwGA1UdEwEB/wQCMAAwDgYD
VR0jBAcwBYADAQIDMGIGCCsGAQUFBwEBBFYwVDAhBggrBgEFBQcwAYYVaHR0cDov
L3RoZWNhLm5ldC9vY3NwMC8GCCsGAQUFBzAChiNodHRwOi8vdGhlY2EubmV0L3Rv
dGFsbHl0aGVjZXJ0LmNydDATBgNVHSAEDDAKMAgGBmeBDAECAjANBgNVHQ4EBgQE
BAMCATAWBgNVHREEDzANAgNnb3YCBmdvdi51czANBgkqhkiG9w0BAQsFAAOCAQEA
eFCnPq22xTp4UGCn16v0miBMJSjVOfCLLIxYxoI6nKSGREqvzPXor+9VS9htut4O
aS4BVRv9Hizk/7ihGCXWm3gb4TCCNNaTezH3rhclb+MYlvXBNtfNB1Pn24kMrr3I
yosDgnqBs+uXtOZZey+31ZCRJOyK+AY3LSibBPGJu8Y+JBh4X+OwHUFAe2LZcKow
M6kCEUXk3NDznYbiFc6i+HDvoU5UfE6jLb6iYiA39RGvMUZCelYus8nNGxlIXkgG
QGfCV/i3QLYnKbe97SUgJ/Fa/FPPQT4HN+3UW7YBa9CUcrfpkOiGC38b/glwZ/Pb
B5VNFm96qwdivQTrMZcWFw==
-----END CERTIFICATE-----
