Certificate:
    Data:
        Version: 3 (0x2)
        Serial Number: 14615016 (0xdf01e8)
    Signature Algorithm: sha256WithRSAEncryption
        Issuer: C = US, O = Mother Nature, OU = Everything, CN = Mother Nature
        Validity
            Not Before: Oct  8 23:13:22 2016 GMT
            Not After : Dec 21 00:13:22 2016 GMT
        Subject: C = US, O = Extreme Discord, OU = Chaos, L = Tallahassee, ST = FL, street = 3210 Holly Mill Run, postalCode = 30062, CN = ::
        Subject Public Key Info:
            Public Key Algorithm: rsaEncryption
                Public-Key: (2048 bit)
                Modulus:
                    00:af:ec:b3:f8:4c:00:5d:9a:0b:83:5f:75:f0:7e:
                    58:ee:14:be:b5:50:e4:7d:ff:fd:f5:13:61:b2:0a:
                    dd:08:16:a1:a7:a3:1c:8b:6c:fd:c2:41:de:a4:8b:
                    de:ee:87:a3:eb:da:18:0e:46:32:20:d9:95:1e:6a:
                    f9:ad:94:e1:09:8a:70:08:de:e8:ed:ef:ad:28:17:
                    95:35:91:b6:fc:e6:ce:02:c8:de:b5:c8:96:80:b6:
                    0e:61:80:a9:ac:c8:c4:1e:e6:ed:e2:49:aa:d3:f2:
                    c3:03:10:69:0a:a9:bf:2f:0d:24:3b:ab:24:1c:b5:
                    ed:34:c9:c1:d1:ad:fb:be:0d:95:11:6c:76:79:8d:
                    ac:64:71:3a:c6:ab:1e:1b:5e:f6:09:48:3b:a0:5a:
                    38:48:bd:a6:a2:26:f9:68:78:5b:bb:34:0b:8d:74:
                    1f:70:f4:c5:bf:93:7b:6b:47:1d:e6:b1:88:80:2f:
                    1f:dc:16:4e:02:5c:3a:ac:3f:27:de:ef:85:24:13:
                    eb:bb:ed:22:91:3b:08:c6:a8:3f:8f:12:58:60:f5:
                    0d:bb:aa:a0:9a:68:35:7d:de:5b:01:dc:a1:9b:c5:
                    34:bc:0a:dd:48:96:39:90:38:f4:75:7d:44:c5:6d:
                    46:5c:34:c7:90:83:06:84:1d:59:35:ba:ff:6e:60:
                    e8:a7
                Exponent: 65537 (0x10001)
        X509v3 extensions:
            X509v3 Basic Constraints: critical
                CA:FALSE
            X509v3 Authority Key Identifier: 
                keyid:01:02:03

            Authority Information Access: 
                OCSP - URI:http://theca.net/ocsp
                CA Issuers - URI:theca.net/totallythecert.crt

            X509v3 Subject Alternative Name: 
                DNS:totallyfake.net, IP Address:128.168.45.1
            X509v3 CRL Distribution Points: 

                Full Name:
                  URI:ldap://theca.net/crlpoint

            X509v3 Subject Key Identifier: 
                04:03:02:01
            X509v3 Key Usage: 
                Data Encipherment, Key Agreement
            X509v3 Extended Key Usage: 
                TLS Web Server Authentication, 1.2.840.113635.100.4.3, Signing KDC Response, Any Extended Key Usage
            X509v3 Certificate Policies: 
                Policy: 2.16.840.1.114414.1.7.23.1
                  CPS: http://certificates.starfieldtech.com/repository/

    Signature Algorithm: sha256WithRSAEncryption
         8f:d1:44:11:e5:18:39:bb:8d:fe:f3:0e:fb:01:64:72:02:62:
         17:ee:b3:b9:5f:21:e2:dc:2e:97:e2:d1:9d:bc:61:e8:b1:f4:
         62:2b:69:02:9e:92:22:0c:fd:34:aa:a7:97:8f:2d:1b:20:a9:
         5b:43:ca:95:da:51:8c:43:a9:18:f1:e8:e5:bb:d2:5b:55:14:
         e5:3b:e9:85:22:7a:23:28:8a:e4:49:a9:62:fd:46:4c:b9:4a:
         28:d7:b0:bb:60:c5:92:b4:71:93:3f:3c:aa:11:11:0e:ea:64:
         1a:02:30:17:6f:60:e5:fb:1d:a0:19:c0:d2:a5:6a:71:94:92:
         c1:c6:81:6d:d7:fb:5e:40:ac:08:98:a3:c0:e7:05:7f:37:24:
         cf:4e:14:2a:c9:ce:c3:5b:68:ad:17:37:8e:72:53:95:45:61:
         76:06:3f:56:a7:81:28:1c:18:b1:b0:de:eb:19:42:3d:9b:3d:
         3f:d6:0c:6d:ff:59:3d:aa:ee:51:0c:93:07:8e:79:a0:86:71:
         9f:7f:61:4f:10:de:8a:64:50:fe:44:db:2f:30:ea:59:f2:26:
         ed:88:e7:f5:0a:48:92:bb:ea:57:19:e6:8e:2a:3f:b9:c6:a5:
         00:2a:ea:dd:db:ae:b2:a8:98:40:06:3b:8f:8b:e4:ad:23:97:
         c2:e2:c7:9e
-----BEGIN CERTIFICATE-----
MIIE2zCCA8WgAwIBAgIEAN8B6DALBgkqhkiG9w0BAQswVDELMAkGA1UEBhMCVVMx
FjAUBgNVBAoTDU1vdGhlciBOYXR1cmUxEzARBgNVBAsTCkV2ZXJ5dGhpbmcxFjAU
BgNVBAMTDU1vdGhlciBOYXR1cmUxADAeFw0xNjEwMDgyMzEzMjJaFw0xNjEyMjEw
MDEzMjJaMIGXMQswCQYDVQQGEwJVUzEYMBYGA1UEChMPRXh0cmVtZSBEaXNjb3Jk
MQ4wDAYDVQQLEwVDaGFvczEUMBIGA1UEBxMLVGFsbGFoYXNzZWUxCzAJBgNVBAgT
AkZMMRwwGgYDVQQJExMzMjEwIEhvbGx5IE1pbGwgUnVuMQ4wDAYDVQQREwUzMDA2
MjELMAkGA1UEAxMCOjoxADCCASIwDQYJKoZIhvcNAQEBBQADggEPADCCAQoCggEB
AK/ss/hMAF2aC4NfdfB+WO4UvrVQ5H3//fUTYbIK3QgWoaejHIts/cJB3qSL3u6H
o+vaGA5GMiDZlR5q+a2U4QmKcAje6O3vrSgXlTWRtvzmzgLI3rXIloC2DmGAqazI
xB7m7eJJqtPywwMQaQqpvy8NJDurJBy17TTJwdGt+74NlRFsdnmNrGRxOsarHhte
9glIO6BaOEi9pqIm+Wh4W7s0C410H3D0xb+Te2tHHeaxiIAvH9wWTgJcOqw/J97v
hSQT67vtIpE7CMaoP48SWGD1DbuqoJpoNX3eWwHcoZvFNLwK3UiWOZA49HV9RMVt
Rlw0x5CDBoQdWTW6/25g6KcCAwEAAaOCAXMwggFvMAwGA1UdEwEB/wQCMAAwDgYD
VR0jBAcwBYADAQIDMFsGCCsGAQUFBwEBBE8wTTAhBggrBgEFBQcwAYYVaHR0cDov
L3RoZWNhLm5ldC9vY3NwMCgGCCsGAQUFBzAChhx0aGVjYS5uZXQvdG90YWxseXRo
ZWNlcnQuY3J0MCAGA1UdEQQZMBeCD3RvdGFsbHlmYWtlLm5ldIcEgKgtATAqBgNV
HR8EIzAhMB+gHaAbhhlsZGFwOi8vdGhlY2EubmV0L2NybHBvaW50MA0GA1UdDgQG
BAQEAwIBMAsGA1UdDwQEAwIBGDAtBgNVHSUEJjAkBggrBgEFBQcDAQYJKoZIhvdj
ZAQDBgcrBgEFAgMFBgRVHSUAMFkGA1UdIARSMFAwTgYLYIZIAYb9bgEHFwEwPzA9
BggrBgEFBQcCARYxaHR0cDovL2NlcnRpZmljYXRlcy5zdGFyZmllbGR0ZWNoLmNv
bS9yZXBvc2l0b3J5LzALBgkqhkiG9w0BAQsDggEBAI/RRBHlGDm7jf7zDvsBZHIC
Yhfus7lfIeLcLpfi0Z28Yeix9GIraQKekiIM/TSqp5ePLRsgqVtDypXaUYxDqRjx
6OW70ltVFOU76YUieiMoiuRJqWL9Rky5SijXsLtgxZK0cZM/PKoREQ7qZBoCMBdv
YOX7HaAZwNKlanGUksHGgW3X+15ArAiYo8DnBX83JM9OFCrJzsNbaK0XN45yU5VF
YXYGP1angSgcGLGw3usZQj2bPT/WDG3/WT2q7lEMkweOeaCGcZ9/YU8Q3opkUP5E
2y8w6lnyJu2I5/UKSJK76lcZ5o4qP7nGpQAq6t3brrKomEAGO4+L5K0jl8Lix54=
-----END CERTIFICATE-----
