Certificate:
    Data:
        Version: 3 (0x2)
        Serial Number: 18008675309 (0x4316693ed)
    Signature Algorithm: sha256WithRSAEncryption
        Issuer: C = US, O = Mother Nature, OU = Everything, CN = Name constraint
        Validity
            Not Before: Dec  1 06:07:08 2055 GMT
            Not After : Sep  2 04:05:10 2056 GMT
        Subject: C = US, O = Extreme Discord, OU = Chaos, L = Tallahassee, ST = FL, street = 3210 Holly Mill Run, postalCode = 30062, CN = gov.us
        Subject Public Key Info:
            Public Key Algorithm: rsaEncryption
                Public-Key: (2048 bit)
                Modulus:
                    00:b3:37:11:a4:fa:aa:16:06:57:85:b6:9f:53:a4:
                    cc:2b:20:1d:d7:bb:fe:63:b5:44:ee:8c:a8:f9:5e:
                    4b:bd:ea:ca:1e:54:65:48:18:ba:15:4d:51:78:71:
                    52:db:50:5f:ae:d1:03:25:a5:b9:1f:fe:ad:67:cb:
                    04:58:6f:9c:ee:b9:9d:ac:89:fc:f4:49:f9:0c:6f:
                    22:a7:96:5f:2a:ff:b3:b9:83:d0:da:11:56:bb:19:
                    ff:1d:2b:21:2e:96:13:33:3d:89:80:49:8a:32:6d:
                    db:aa:ee:f3:e9:a4:0d:3e:3b:5e:db:18:cb:00:a5:
                    d7:cf:07:2e:51:7d:02:7f:d3:55:da:77:dd:6c:73:
                    1b:ed:57:e7:36:92:58:25:46:20:71:0e:93:fe:6c:
                    2e:c8:fe:62:fb:c9:28:dd:86:1f:25:1a:49:b5:3d:
                    23:42:23:e4:75:0d:89:ac:b3:52:89:61:1d:1f:05:
                    fb:83:6b:76:1a:ad:a6:b0:20:7f:3b:89:d6:c7:5b:
                    7f:26:9f:ae:4e:ed:91:e3:b9:44:89:dd:c0:43:c5:
                    09:85:4c:c4:66:45:d8:9d:68:42:3c:52:48:20:93:
                    2d:df:2f:33:05:47:e1:90:ff:f4:2f:12:9a:bc:57:
                    5f:f1:a6:fb:9b:07:58:a9:30:27:03:cc:fb:79:99:
                    79:53
                Exponent: 65537 (0x10001)
        X509v3 extensions:
            X509v3 Key Usage: critical
                Digital Signature, Key Encipherment, Certificate Sign
            X509v3 Extended Key Usage: 
                TLS Web Client Authentication, TLS Web Server Authentication
            X509v3 Basic Constraints: critical
                CA:TRUE
            X509v3 Authority Key Identifier: 
                keyid:01:02:03

            Authority Information Access: 
                OCSP - URI:http://theca.net/ocsp
                CA Issuers - URI:http://theca.net/totallythecert.crt

            X509v3 Subject Alternative Name: 
                0.....S...hello..dns.com
            X509v3 Certificate Policies: 
                Policy: 2.23.140.1.2.2
                Policy: 1.2.3.4.5

            X509v3 Name Constraints: 
                Permitted:
                  email:good_email@gg.com
                  email:LulMail
                  DNS:permitted.com
                  DirName:C = US, O = UIUC, OU = ECE, L = Champaign, ST = IL, street = 601 Wright St, postalCode = 61820, CN = uiuc.net
                  IP:74.125.224.72/255.255.0.0
                Excluded:
                  email:bad_email@gg.com
                  email:LulMail
                  DNS:banned.com
                  DirName:C = US, O = Umich, OU = CS, L = Ann Arbor, ST = MI, street = 500 State St, postalCode = 48109, CN = umich.net
                  IP:192.168.1.1/255.255.0.0

    Signature Algorithm: sha256WithRSAEncryption
         22:96:f6:7f:6b:1e:79:b7:b0:ce:50:66:d0:a2:c6:b1:4b:d2:
         35:a5:fd:bd:06:00:20:18:2a:ce:41:69:6f:01:6f:bc:96:a2:
         21:ac:64:e7:f6:2d:3a:0b:0c:aa:73:39:12:dc:af:0e:a7:ef:
         08:10:83:6a:63:d6:93:57:53:ae:da:93:48:26:38:4f:37:02:
         55:e0:80:fe:01:ff:78:66:9f:b8:75:82:66:57:7d:19:9d:0c:
         21:41:7f:af:af:2e:bc:b3:33:6f:d2:f7:d3:2a:a8:0b:d9:2c:
         ae:dc:75:5b:86:27:51:8d:ce:2a:24:e5:9d:b7:c5:01:2a:df:
         ff:d9:c6:79:80:aa:65:d7:c3:17:a6:ae:19:6c:f2:32:87:98:
         46:78:4e:33:2a:dd:d9:89:15:f6:9b:ae:db:90:24:2d:b9:7e:
         90:8a:a8:4d:8a:04:e1:49:78:84:66:5b:fe:2e:4f:80:a4:65:
         42:c3:3a:b3:8c:96:06:97:fe:8b:b3:33:03:ea:be:5c:30:75:
         e5:f1:2c:d1:7b:6f:08:6c:ef:e4:35:67:09:88:3f:d2:bd:0f:
         92:30:99:e3:e7:38:b7:4f:fa:fb:e8:d7:92:5d:72:16:6e:3a:
         1d:44:fb:0d:4c:f5:80:4f:4b:24:96:b0:38:05:2e:aa:9e:5c:
         fd:cb:33:22
-----BEGIN CERTIFICATE-----
MIIGGDCCBQKgAwIBAgIFBDFmk+0wCwYJKoZIhvcNAQELMFYxCzAJBgNVBAYTAlVT
MRYwFAYDVQQKEw1Nb3RoZXIgTmF0dXJlMRMwEQYDVQQLEwpFdmVyeXRoaW5nMRgw
FgYDVQQDEw9OYW1lIGNvbnN0cmFpbnQxADAiGA8yMDU1MTIwMTA2MDcwOFoYDzIw
NTYwOTAyMDQwNTEwWjCBmzELMAkGA1UEBhMCVVMxGDAWBgNVBAoTD0V4dHJlbWUg
RGlzY29yZDEOMAwGA1UECxMFQ2hhb3MxFDASBgNVBAcTC1RhbGxhaGFzc2VlMQsw
CQYDVQQIEwJGTDEcMBoGA1UECRMTMzIxMCBIb2xseSBNaWxsIFJ1bjEOMAwGA1UE
ERMFMzAwNjIxDzANBgNVBAMTBmdvdi51czEAMIIBIjANBgkqhkiG9w0BAQEFAAOC
AQ8AMIIBCgKCAQEAszcRpPqqFgZXhbafU6TMKyAd17v+Y7VE7oyo+V5LverKHlRl
SBi6FU1ReHFS21BfrtEDJaW5H/6tZ8sEWG+c7rmdrIn89En5DG8ip5ZfKv+zuYPQ
2hFWuxn/HSshLpYTMz2JgEmKMm3bqu7z6aQNPjte2xjLAKXXzwcuUX0Cf9NV2nfd
bHMb7VfnNpJYJUYgcQ6T/mwuyP5i+8ko3YYfJRpJtT0jQiPkdQ2JrLNSiWEdHwX7
g2t2Gq2msCB/O4nWx1t/Jp+uTu2R47lEid3AQ8UJhUzEZkXYnWhCPFJIIJMt3y8z
BUfhkP/0LxKavFdf8ab7mwdYqTAnA8z7eZl5UwIDAQABo4ICpTCCAqEwDgYDVR0P
AQH/BAQDAgCkMB0GA1UdJQQWMBQGCCsGAQUFBwMCBggrBgEFBQcDATAPBgNVHRMB
Af8EBTADAQH/MA4GA1UdIwQHMAWAAwECAzBiBggrBgEFBQcBAQRWMFQwIQYIKwYB
BQUHMAGGFWh0dHA6Ly90aGVjYS5uZXQvb2NzcDAvBggrBgEFBQcwAoYjaHR0cDov
L3RoZWNhLm5ldC90b3RhbGx5dGhlY2VydC5jcnQwHwYDVR0RBBgwFqALBgJTAxMF
aGVsbG+CB2Rucy5jb20wGwYDVR0gBBQwEjAIBgZngQwBAgIwBgYEKgMEBTCCAasG
A1UdHgSCAaIwggGeoIHOMBOBEWdvb2RfZW1haWxAZ2cuY29tMAmBB0x1bE1haWww
D4INcGVybWl0dGVkLmNvbTCBjqSBizCBiDELMAkGA1UEBhMCVVMxDTALBgNVBAoT
BFVJVUMxDDAKBgNVBAsTA0VDRTESMBAGA1UEBxMJQ2hhbXBhaWduMQswCQYDVQQI
EwJJTDEWMBQGA1UECRMNNjAxIFdyaWdodCBTdDEOMAwGA1UEERMFNjE4MjAxETAP
BgNVBAMTCHVpdWMubmV0MQAwCocISn3gSP//AAChgcowEoEQYmFkX2VtYWlsQGdn
LmNvbTAJgQdMdWxNYWlsMAyCCmJhbm5lZC5jb20wgY6kgYswgYgxCzAJBgNVBAYT
AlVTMQ4wDAYDVQQKEwVVbWljaDELMAkGA1UECxMCQ1MxEjAQBgNVBAcTCUFubiBB
cmJvcjELMAkGA1UECBMCTUkxFTATBgNVBAkTDDUwMCBTdGF0ZSBTdDEOMAwGA1UE
ERMFNDgxMDkxEjAQBgNVBAMTCXVtaWNoLm5ldDEAMAqHCMCoAQH//wAAMAsGCSqG
SIb3DQEBCwOCAQEAIpb2f2seebewzlBm0KLGsUvSNaX9vQYAIBgqzkFpbwFvvJai
Iaxk5/YtOgsMqnM5EtyvDqfvCBCDamPWk1dTrtqTSCY4TzcCVeCA/gH/eGafuHWC
Zld9GZ0MIUF/r68uvLMzb9L30yqoC9ksrtx1W4YnUY3OKiTlnbfFASrf/9nGeYCq
ZdfDF6auGWzyMoeYRnhOMyrd2YkV9puu25AkLbl+kIqoTYoE4Ul4hGZb/i5PgKRl
QsM6s4yWBpf+i7MzA+q+XDB15fEs0XtvCGzv5DVnCYg/0r0PkjCZ4+c4t0/6++jX
kl1yFm46HUT7DUz1gE9LJJawOAUuqp5c/cszIg==
-----END CERTIFICATE-----
