Certificate:
    Data:
        Version: 3 (0x2)
        Serial Number: 14615016 (0xdf01e8)
    Signature Algorithm: sha256WithRSAEncryption
        Issuer: C = US, O = Mother Nature, OU = Everything, CN = Mother Nature
        Validity
            Not Before: Sep 12 19:12:31 2016 GMT
            Not After : Nov 24 20:12:31 2016 GMT
        Subject: C = US, ST = FL, L = Tallahassee, street = 3210 Holly Mill Run, postalCode = 30062, O = Extreme Discord, OU = Chaos, CN = ::
        Subject Public Key Info:
            Public Key Algorithm: rsaEncryption
                Public-Key: (2048 bit)
                Modulus:
                    00:c7:1c:6d:ad:e5:9f:1c:1f:24:87:01:a3:86:f1:
                    3b:c3:3d:82:aa:cb:a9:bc:7f:15:98:ef:ac:63:27:
                    02:3f:84:af:6b:93:84:4f:79:7a:25:28:a1:00:53:
                    e5:ac:6e:c7:6c:1a:f2:9c:74:d5:1b:c0:bb:e1:b7:
                    17:69:31:86:9e:5c:24:32:a3:a4:41:2f:65:bc:44:
                    be:7f:7d:f7:a8:33:c8:05:d7:09:b5:21:ca:82:d2:
                    0a:7b:86:c4:b7:8f:96:33:78:07:89:03:03:12:64:
                    68:84:88:08:11:a8:33:9e:d5:ae:a1:fb:1a:b4:9b:
                    12:43:e7:7a:a0:01:a8:61:1d:e9:f0:6f:68:ae:35:
                    6c:a9:f5:ff:91:de:f2:71:89:6e:f7:65:cd:16:23:
                    d5:d9:ae:9d:20:a1:68:9f:13:c1:9a:d3:6f:02:d9:
                    be:16:1a:ce:d1:0d:b4:eb:db:9c:43:a1:5d:88:86:
                    3e:ee:b6:72:1c:24:3c:e8:b4:45:aa:99:17:7b:9d:
                    17:ff:b4:bc:23:5b:b0:ff:01:52:08:a8:2c:60:74:
                    77:ff:c5:14:c7:01:76:0e:84:48:6e:cc:59:34:a7:
                    8e:ec:b6:6d:a5:75:e5:b1:93:ce:12:2f:6a:7e:34:
                    79:bb:5c:0e:1d:e5:fc:b4:a8:d0:1d:3d:42:9a:c9:
                    d3:77
                Exponent: 65537 (0x10001)
        X509v3 extensions:
            X509v3 Basic Constraints: critical
                CA:FALSE
            X509v3 Authority Key Identifier: 
                keyid:01:02:03

            Authority Information Access: 
                OCSP - URI:http://theca.net/ocsp
                CA Issuers - URI:theca.net/totallythecert.crt

            X509v3 Subject Alternative Name: 
                IP Address:0:0:0:0:0:0:0:0
            X509v3 CRL Distribution Points: 

                Full Name:
                  URI:ldap://theca.net/crlpoint

            X509v3 Subject Key Identifier: 
                04:03:02:01
            X509v3 Key Usage: 
                Data Encipherment, Key Agreement
            X509v3 Extended Key Usage: 
                TLS Web Server Authentication, 1.2.840.113635.100.4.3, Signing KDC Response, Any Extended Key Usage
            X509v3 Certificate Policies: 
                Policy: 2.16.840.1.114414.1.7.23.1
                  CPS: http://certificates.starfieldtech.com/repository/

    Signature Algorithm: sha256WithRSAEncryption
         b1:73:c3:2a:a6:22:e5:eb:a0:85:0e:48:63:67:e2:c6:46:19:
         44:4c:57:43:7d:bb:dc:55:0a:f0:b9:31:74:6f:af:2b:1e:9a:
         4d:e3:41:c5:f4:3f:02:6f:73:24:df:90:e6:d6:51:8e:e0:5c:
         aa:4e:d0:94:ca:3d:6a:42:79:bc:ed:31:09:01:51:66:80:5c:
         6a:9a:4d:7a:5e:60:99:c7:0b:8c:8f:63:7f:4f:2b:4f:99:11:
         77:b1:2a:9e:2f:96:3b:0d:ba:71:e4:8f:fc:4b:b4:73:dc:e6:
         4c:9b:f9:39:d3:48:62:f3:52:98:73:a0:9c:70:8e:1a:69:68:
         b4:91:47:4b:3f:c2:3c:c0:b8:af:e7:b0:4a:e1:0f:97:ff:da:
         99:bb:79:e7:43:e2:15:a7:e4:03:95:9e:f1:a8:61:2a:f7:d1:
         7b:83:e8:9d:d5:79:6e:3e:0b:29:a2:a9:a1:07:88:b5:ae:9d:
         73:40:73:9c:fe:b5:3d:e2:8c:92:73:10:37:aa:6f:1c:10:46:
         30:5a:04:88:23:e3:a8:80:c9:91:ff:b4:c3:b4:1c:2c:9b:e8:
         e8:cf:4e:1e:99:c8:90:5c:52:5d:72:06:c2:5e:79:42:81:e4:
         12:f7:33:19:e8:d9:db:d6:47:46:f5:e5:aa:f4:d9:e6:fa:b0:
         60:8b:6e:51
-----BEGIN CERTIFICATE-----
MIIE1jCCA76gAwIBAgIEAN8B6DANBgkqhkiG9w0BAQsFADBSMQswCQYDVQQGEwJV
UzEWMBQGA1UEChMNTW90aGVyIE5hdHVyZTETMBEGA1UECxMKRXZlcnl0aGluZzEW
MBQGA1UEAxMNTW90aGVyIE5hdHVyZTAeFw0xNjA5MTIxOTEyMzFaFw0xNjExMjQy
MDEyMzFaMIGVMQswCQYDVQQGEwJVUzELMAkGA1UECBMCRkwxFDASBgNVBAcTC1Rh
bGxhaGFzc2VlMRwwGgYDVQQJExMzMjEwIEhvbGx5IE1pbGwgUnVuMQ4wDAYDVQQR
EwUzMDA2MjEYMBYGA1UEChMPRXh0cmVtZSBEaXNjb3JkMQ4wDAYDVQQLEwVDaGFv
czELMAkGA1UEAxMCOjowggEiMA0GCSqGSIb3DQEBAQUAA4IBDwAwggEKAoIBAQDH
HG2t5Z8cHySHAaOG8TvDPYKqy6m8fxWY76xjJwI/hK9rk4RPeXolKKEAU+Wsbsds
GvKcdNUbwLvhtxdpMYaeXCQyo6RBL2W8RL5/ffeoM8gF1wm1IcqC0gp7hsS3j5Yz
eAeJAwMSZGiEiAgRqDOe1a6h+xq0mxJD53qgAahhHenwb2iuNWyp9f+R3vJxiW73
Zc0WI9XZrp0goWifE8Ga028C2b4WGs7RDbTr25xDoV2Ihj7utnIcJDzotEWqmRd7
nRf/tLwjW7D/AVIIqCxgdHf/xRTHAXYOhEhuzFk0p47stm2ldeWxk84SL2p+NHm7
XA4d5fy0qNAdPUKaydN3AgMBAAGjggFuMIIBajAMBgNVHRMBAf8EAjAAMA4GA1Ud
IwQHMAWAAwECAzBbBggrBgEFBQcBAQRPME0wIQYIKwYBBQUHMAGGFWh0dHA6Ly90
aGVjYS5uZXQvb2NzcDAoBggrBgEFBQcwAoYcdGhlY2EubmV0L3RvdGFsbHl0aGVj
ZXJ0LmNydDAbBgNVHREEFDAShxAAAAAAAAAAAAAAAAAAAAAAMCoGA1UdHwQjMCEw
H6AdoBuGGWxkYXA6Ly90aGVjYS5uZXQvY3JscG9pbnQwDQYDVR0OBAYEBAQDAgEw
CwYDVR0PBAQDAgEYMC0GA1UdJQQmMCQGCCsGAQUFBwMBBgkqhkiG92NkBAMGBysG
AQUCAwUGBFUdJQAwWQYDVR0gBFIwUDBOBgtghkgBhv1uAQcXATA/MD0GCCsGAQUF
BwIBFjFodHRwOi8vY2VydGlmaWNhdGVzLnN0YXJmaWVsZHRlY2guY29tL3JlcG9z
aXRvcnkvMA0GCSqGSIb3DQEBCwUAA4IBAQCxc8MqpiLl66CFDkhjZ+LGRhlETFdD
fbvcVQrwuTF0b68rHppN40HF9D8Cb3Mk35Dm1lGO4FyqTtCUyj1qQnm87TEJAVFm
gFxqmk16XmCZxwuMj2N/TytPmRF3sSqeL5Y7Dbpx5I/8S7Rz3OZMm/k500hi81KY
c6CccI4aaWi0kUdLP8I8wLiv57BK4Q+X/9qZu3nnQ+IVp+QDlZ7xqGEq99F7g+id
1XluPgspoqmhB4i1rp1zQHOc/rU94oyScxA3qm8cEEYwWgSII+OogMmR/7TDtBws
m+joz04emciQXFJdcgbCXnlCgeQS9zMZ6Nnb1kdG9eWq9Nnm+rBgi25R
-----END CERTIFICATE-----
