Certificate:
    Data:
        Version: 3 (0x2)
        Serial Number: 18008675309 (0x4316693ed)
    Signature Algorithm: sha256WithRSAEncryption
        Issuer: C = US, O = Mother Nature, OU = Everything, CN = Mother Nature
        Validity
            Not Before: Jun 29 17:34:19 2016 GMT
            Not After : Sep 10 17:34:19 2016 GMT
        Subject: C = US, ST = FL, L = Tallahassee, street = 3210 Holly Mill Run, postalCode = 30062, O = Extreme Discord, OU = Chaos, CN = gov.us
        Subject Public Key Info:
            Public Key Algorithm: rsaEncryption
                Public-Key: (2048 bit)
                Modulus:
                    00:b5:8c:ec:d7:82:0c:5b:80:cc:20:70:74:dd:b9:
                    00:a4:71:11:15:55:7a:7e:52:49:68:36:e6:07:d5:
                    96:d1:03:b9:25:64:69:da:8a:ef:51:ce:88:b1:7f:
                    ba:1a:d7:16:4c:6d:4e:bc:f3:88:ca:68:8b:ce:b9:
                    c2:89:ad:42:6c:8f:93:cc:3d:d1:25:7f:c7:bb:a8:
                    30:85:e7:11:31:b5:13:cd:fe:c0:a1:a7:f7:af:8f:
                    4e:24:db:74:b4:b8:87:9f:22:91:44:0a:f1:51:d9:
                    0a:e4:0e:28:7f:ad:ec:96:c9:49:df:7a:0f:9e:c4:
                    4e:ac:b6:8f:b9:31:2f:37:f1:35:c1:d0:2a:be:de:
                    54:87:6f:f2:b5:3e:2b:cf:b7:c9:e6:1d:77:3e:dc:
                    0a:17:1a:27:1a:a8:27:88:28:13:6b:0b:da:36:48:
                    42:65:78:a3:18:8f:ae:2f:81:82:22:d9:34:88:b2:
                    44:58:02:ca:7a:4b:d1:97:ac:8d:e6:0e:b7:d2:b8:
                    9b:8b:0a:ba:2b:54:f0:85:85:6b:5a:e7:91:96:e1:
                    5f:94:91:55:21:35:87:fb:38:e6:b6:b6:44:39:25:
                    7e:f9:67:79:f1:4e:40:bf:2c:42:4b:12:d7:5e:0c:
                    3a:bd:66:6c:33:13:46:50:82:83:28:f3:db:69:1a:
                    55:5f
                Exponent: 65537 (0x10001)
        X509v3 extensions:
            X509v3 Key Usage: critical
                Digital Signature, Key Encipherment
            X509v3 Extended Key Usage: 
                TLS Web Client Authentication, TLS Web Server Authentication
            X509v3 Basic Constraints: critical
                CA:FALSE
            X509v3 Authority Key Identifier: 
                keyid:01:02:03

            Authority Information Access: 
                OCSP - URI:http://theca.net/ocsp
                CA Issuers - URI:http://theca.net/totallythecert.crt

            X509v3 Certificate Policies: 
                Policy: 2.23.140.1.2.2

            X509v3 Subject Key Identifier: 
                04:03:02:01
            X509v3 Subject Alternative Name: 
                DNS:*.gov.us, DNS:gov.us, Registered ID:0.6.8.45.6.1.5.5.7.13.1
    Signature Algorithm: sha256WithRSAEncryption
         12:58:8a:aa:ce:d0:f1:eb:7c:08:ef:40:0e:09:6f:f1:d0:3c:
         3b:75:27:01:42:1b:3f:c9:f0:f4:6d:f0:51:4a:b4:32:e3:3b:
         7a:d9:7d:31:58:bc:c2:2b:4e:02:61:97:b9:d6:00:97:04:e2:
         ad:4a:88:ea:68:df:48:03:1d:71:0b:4a:1a:44:92:be:3b:37:
         88:61:07:a3:aa:bd:d8:6e:6c:c8:cc:bb:eb:3f:0b:9b:2d:4b:
         a7:a4:f4:c1:8f:de:cd:de:8c:3c:a7:06:94:a5:3a:7a:24:b6:
         5b:82:4b:66:79:38:cd:93:38:d2:e2:0d:43:f0:7d:bb:e2:97:
         d4:97:99:a0:56:46:01:d5:18:0f:17:dd:5e:35:61:eb:d2:32:
         a4:4d:83:d1:3e:f8:e2:78:f2:5f:03:fb:15:61:35:96:12:35:
         4a:a4:0b:29:df:b1:60:2c:7d:fc:d9:64:27:49:1f:10:72:23:
         0d:84:e4:a2:ec:33:45:5c:4d:66:46:24:bc:2a:d7:1d:75:56:
         20:49:49:f5:8a:d6:12:68:7f:9f:02:6e:53:f4:6a:28:6f:d9:
         c6:b0:1e:4c:fa:ca:f4:b3:70:2f:bb:15:69:af:0d:e2:b3:ae:
         0f:f6:70:37:f5:6a:64:b0:be:26:9a:ea:17:d7:11:3e:43:a6:
         b1:71:cb:06
-----BEGIN CERTIFICATE-----
MIIEbjCCA1agAwIBAgIFBDFmk+0wDQYJKoZIhvcNAQELBQAwUjELMAkGA1UEBhMC
VVMxFjAUBgNVBAoTDU1vdGhlciBOYXR1cmUxEzARBgNVBAsTCkV2ZXJ5dGhpbmcx
FjAUBgNVBAMTDU1vdGhlciBOYXR1cmUwHhcNMTYwNjI5MTczNDE5WhcNMTYwOTEw
MTczNDE5WjCBmTELMAkGA1UEBhMCVVMxCzAJBgNVBAgTAkZMMRQwEgYDVQQHEwtU
YWxsYWhhc3NlZTEcMBoGA1UECRMTMzIxMCBIb2xseSBNaWxsIFJ1bjEOMAwGA1UE
ERMFMzAwNjIxGDAWBgNVBAoTD0V4dHJlbWUgRGlzY29yZDEOMAwGA1UECxMFQ2hh
b3MxDzANBgNVBAMTBmdvdi51czCCASIwDQYJKoZIhvcNAQEBBQADggEPADCCAQoC
ggEBALWM7NeCDFuAzCBwdN25AKRxERVVen5SSWg25gfVltEDuSVkadqK71HOiLF/
uhrXFkxtTrzziMpoi865womtQmyPk8w90SV/x7uoMIXnETG1E83+wKGn96+PTiTb
dLS4h58ikUQK8VHZCuQOKH+t7JbJSd96D57ETqy2j7kxLzfxNcHQKr7eVIdv8rU+
K8+3yeYddz7cChcaJxqoJ4goE2sL2jZIQmV4oxiPri+BgiLZNIiyRFgCynpL0Zes
jeYOt9K4m4sKuitU8IWFa1rnkZbhX5SRVSE1h/s45ra2RDklfvlnefFOQL8sQksS
114MOr1mbDMTRlCCgyjz22kaVV8CAwEAAaOCAQEwgf4wDgYDVR0PAQH/BAQDAgWg
MB0GA1UdJQQWMBQGCCsGAQUFBwMCBggrBgEFBQcDATAMBgNVHRMBAf8EAjAAMA4G
A1UdIwQHMAWAAwECAzBiBggrBgEFBQcBAQRWMFQwIQYIKwYBBQUHMAGGFWh0dHA6
Ly90aGVjYS5uZXQvb2NzcDAvBggrBgEFBQcwAoYjaHR0cDovL3RoZWNhLm5ldC90
b3RhbGx5dGhlY2VydC5jcnQwEwYDVR0gBAwwCjAIBgZngQwBAgIwDQYDVR0OBAYE
BAQDAgEwJwYDVR0RBCAwHoIIKi5nb3YudXOCBmdvdi51c4gKBggtBgEFBQcNATAN
BgkqhkiG9w0BAQsFAAOCAQEAEliKqs7Q8et8CO9ADglv8dA8O3UnAUIbP8nw9G3w
UUq0MuM7etl9MVi8witOAmGXudYAlwTirUqI6mjfSAMdcQtKGkSSvjs3iGEHo6q9
2G5syMy76z8Lmy1Lp6T0wY/ezd6MPKcGlKU6eiS2W4JLZnk4zZM40uINQ/B9u+KX
1JeZoFZGAdUYDxfdXjVh69IypE2D0T744njyXwP7FWE1lhI1SqQLKd+xYCx9/Nlk
J0kfEHIjDYTkouwzRVxNZkYkvCrXHXVWIElJ9YrWEmh/nwJuU/RqKG/ZxrAeTPrK
9LNwL7sVaa8N4rOuD/ZwN/VqZLC+JprqF9cRPkOmsXHLBg==
-----END CERTIFICATE-----
