Certificate:
    Data:
        Version: 3 (0x2)
        Serial Number: 14615016 (0xdf01e8)
    Signature Algorithm: sha256WithRSAEncryption
        Issuer: C = US, O = Mother Nature, OU = Everything, CN = Mother Nature
        Validity
            Not Before: Sep 12 19:12:55 2016 GMT
            Not After : Nov 24 20:12:55 2016 GMT
        Subject: C = US, ST = FL, L = Tallahassee, street = 3210 Holly Mill Run, postalCode = 30062, O = Extreme Discord, OU = Chaos, CN = ::
        Subject Public Key Info:
            Public Key Algorithm: rsaEncryption
                Public-Key: (2048 bit)
                Modulus:
                    00:f0:03:ff:d0:cc:72:4f:a3:49:5f:40:ae:5e:2d:
                    01:f4:fc:60:b7:f8:66:11:78:6f:31:d0:70:08:87:
                    97:4f:84:ff:d5:14:b3:dd:d5:40:86:3c:03:69:c0:
                    42:e8:85:68:c9:96:56:09:21:e5:c8:92:7b:d5:68:
                    ac:17:5a:af:ba:5f:d0:6f:4a:c9:e2:98:14:84:0c:
                    0f:33:68:77:63:0d:3b:20:90:99:bb:1b:c3:be:20:
                    9e:32:31:12:83:e4:e8:64:94:fd:51:db:b2:6c:df:
                    4e:a6:33:f9:64:30:95:93:11:14:01:7f:b6:4c:df:
                    47:9b:72:72:08:ab:d1:a7:6e:ce:26:fd:c9:f7:d7:
                    82:26:dd:17:37:0f:a3:6b:31:1c:c3:21:a3:62:a7:
                    e4:ec:62:78:6c:53:31:5c:91:f2:b0:eb:fc:4f:ac:
                    a5:6c:85:57:79:b9:ce:dd:d0:47:bd:a9:65:db:42:
                    75:55:e0:87:a0:3d:7d:72:c6:2c:cd:e9:ba:0f:47:
                    24:33:b4:a4:bd:54:01:40:e9:c7:d9:8d:f4:e4:f6:
                    e3:40:92:b8:16:a8:aa:32:ad:1a:da:e1:68:7c:ca:
                    7b:45:4f:55:7c:1e:0c:1f:ef:80:b9:0a:8b:d5:d5:
                    53:c4:15:f1:14:1c:2a:66:91:8b:55:83:92:c1:12:
                    f1:9d
                Exponent: 65537 (0x10001)
        X509v3 extensions:
            X509v3 Basic Constraints: critical
                CA:FALSE
            X509v3 Authority Key Identifier: 
                keyid:01:02:03

            Authority Information Access: 
                OCSP - URI:http://theca.net/ocsp
                CA Issuers - URI:theca.net/totallythecert.crt

            X509v3 Subject Alternative Name: 
                IP Address:192.168.0.1
            X509v3 CRL Distribution Points: 

                Full Name:
                  URI:ldap://theca.net/crlpoint

            X509v3 Subject Key Identifier: 
                04:03:02:01
            X509v3 Key Usage: 
                Data Encipherment, Key Agreement
            X509v3 Extended Key Usage: 
                TLS Web Server Authentication, 1.2.840.113635.100.4.3, Signing KDC Response, Any Extended Key Usage
            X509v3 Certificate Policies: 
                Policy: 2.16.840.1.114414.1.7.23.1
                  CPS: http://certificates.starfieldtech.com/repository/

    Signature Algorithm: sha256WithRSAEncryption
         17:fa:76:35:75:ff:d7:26:ee:76:b7:1d:87:1d:73:4c:77:cd:
         97:2a:f4:fa:89:3d:39:81:a9:70:b5:2f:db:f1:94:cc:61:93:
         c7:46:01:90:55:de:66:67:ca:c2:41:a1:f7:e6:1c:56:51:05:
         6c:3f:99:38:27:40:1d:fc:fc:00:9e:26:46:a5:1a:b4:f5:67:
         e1:fd:22:35:37:23:89:e1:17:d8:4c:da:a9:5e:76:76:19:6d:
         5f:95:2c:91:cd:29:60:72:6a:f7:16:85:a8:13:ba:9d:3c:ff:
         a7:1a:c1:0b:46:90:a2:0f:6e:2b:b4:60:d3:c0:a4:d7:cd:fb:
         c0:1e:bf:24:50:8b:1b:69:ec:ad:02:41:5c:4e:5d:3b:f8:7d:
         53:d4:ef:ca:7a:25:8c:27:c6:4d:30:3b:5d:b8:3e:47:f2:78:
         49:bd:19:25:5e:88:8b:1f:e7:fd:0a:2f:4e:af:94:41:80:e2:
         bf:9e:5e:b2:d5:59:94:fd:fd:16:03:0f:1c:ca:15:8f:67:4c:
         dd:7e:c7:e8:d6:a8:e1:78:93:18:99:e7:29:1f:f9:12:d3:35:
         37:ad:ad:01:d1:d6:71:39:f9:dc:9e:96:e6:5a:dc:75:21:14:
         0f:b7:bf:55:45:f1:ae:5c:8b:b3:14:76:91:ba:2a:45:06:2c:
         49:24:cc:e6
-----BEGIN CERTIFICATE-----
MIIEyjCCA7KgAwIBAgIEAN8B6DANBgkqhkiG9w0BAQsFADBSMQswCQYDVQQGEwJV
UzEWMBQGA1UEChMNTW90aGVyIE5hdHVyZTETMBEGA1UECxMKRXZlcnl0aGluZzEW
MBQGA1UEAxMNTW90aGVyIE5hdHVyZTAeFw0xNjA5MTIxOTEyNTVaFw0xNjExMjQy
MDEyNTVaMIGVMQswCQYDVQQGEwJVUzELMAkGA1UECBMCRkwxFDASBgNVBAcTC1Rh
bGxhaGFzc2VlMRwwGgYDVQQJExMzMjEwIEhvbGx5IE1pbGwgUnVuMQ4wDAYDVQQR
EwUzMDA2MjEYMBYGA1UEChMPRXh0cmVtZSBEaXNjb3JkMQ4wDAYDVQQLEwVDaGFv
czELMAkGA1UEAxMCOjowggEiMA0GCSqGSIb3DQEBAQUAA4IBDwAwggEKAoIBAQDw
A//QzHJPo0lfQK5eLQH0/GC3+GYReG8x0HAIh5dPhP/VFLPd1UCGPANpwELohWjJ
llYJIeXIknvVaKwXWq+6X9BvSsnimBSEDA8zaHdjDTsgkJm7G8O+IJ4yMRKD5Ohk
lP1R27Js306mM/lkMJWTERQBf7ZM30ebcnIIq9Gnbs4m/cn314Im3Rc3D6NrMRzD
IaNip+TsYnhsUzFckfKw6/xPrKVshVd5uc7d0Ee9qWXbQnVV4IegPX1yxizN6boP
RyQztKS9VAFA6cfZjfTk9uNAkrgWqKoyrRra4Wh8yntFT1V8Hgwf74C5CovV1VPE
FfEUHCpmkYtVg5LBEvGdAgMBAAGjggFiMIIBXjAMBgNVHRMBAf8EAjAAMA4GA1Ud
IwQHMAWAAwECAzBbBggrBgEFBQcBAQRPME0wIQYIKwYBBQUHMAGGFWh0dHA6Ly90
aGVjYS5uZXQvb2NzcDAoBggrBgEFBQcwAoYcdGhlY2EubmV0L3RvdGFsbHl0aGVj
ZXJ0LmNydDAPBgNVHREECDAGhwTAqAABMCoGA1UdHwQjMCEwH6AdoBuGGWxkYXA6
Ly90aGVjYS5uZXQvY3JscG9pbnQwDQYDVR0OBAYEBAQDAgEwCwYDVR0PBAQDAgEY
MC0GA1UdJQQmMCQGCCsGAQUFBwMBBgkqhkiG92NkBAMGBysGAQUCAwUGBFUdJQAw
WQYDVR0gBFIwUDBOBgtghkgBhv1uAQcXATA/MD0GCCsGAQUFBwIBFjFodHRwOi8v
Y2VydGlmaWNhdGVzLnN0YXJmaWVsZHRlY2guY29tL3JlcG9zaXRvcnkvMA0GCSqG
SIb3DQEBCwUAA4IBAQAX+nY1df/XJu52tx2HHXNMd82XKvT6iT05galwtS/b8ZTM
YZPHRgGQVd5mZ8rCQaH35hxWUQVsP5k4J0Ad/PwAniZGpRq09Wfh/SI1NyOJ4RfY
TNqpXnZ2GW1flSyRzSlgcmr3FoWoE7qdPP+nGsELRpCiD24rtGDTwKTXzfvAHr8k
UIsbaeytAkFcTl07+H1T1O/KeiWMJ8ZNMDtduD5H8nhJvRklXoiLH+f9Ci9Or5RB
gOK/nl6y1VmU/f0WAw8cyhWPZ0zdfsfo1qjheJMYmecpH/kS0zU3ra0B0dZxOfnc
npbmWtx1IRQPt79VRfGuXIuzFHaRuipFBixJJMzm
-----END CERTIFICATE-----
