Certificate:
    Data:
        Version: 3 (0x2)
        Serial Number: 18008675309 (0x4316693ed)
    Signature Algorithm: sha256WithRSAEncryption
        Issuer: C = US, O = Mother Nature, OU = Everything, CN = Mother Nature
        Validity
            Not Before: Jun 29 16:25:35 2016 GMT
            Not After : Sep 10 16:25:35 2016 GMT
        Subject: C = US, ST = FL, L = Tallahassee, street = 3210 Holly Mill Run, postalCode = 30062, O = Extreme Discord, OU = Chaos, CN = gov.us
        Subject Public Key Info:
            Public Key Algorithm: rsaEncryption
                Public-Key: (2048 bit)
                Modulus:
                    00:cc:9c:71:a5:3d:b4:74:d4:7b:94:23:2c:bd:a8:
                    16:70:5f:72:94:bf:e4:57:e9:a0:bf:c9:3f:b9:3b:
                    12:26:40:fb:b5:2b:37:e0:ec:8c:5a:1c:df:9c:3d:
                    4c:a2:81:33:3b:3e:6d:a4:b9:ab:32:03:b7:f3:b8:
                    f6:3e:dc:73:5d:7f:7c:00:51:cf:76:83:9f:4e:54:
                    48:3e:7d:04:07:d2:3b:82:19:74:fe:21:3b:6d:7a:
                    70:dd:3d:95:59:9e:73:4f:43:51:5e:78:b7:0d:13:
                    36:25:c7:e1:58:3b:7c:0a:13:f2:ae:f1:a0:28:da:
                    66:9d:a7:ed:37:0c:ca:02:c9:c0:41:87:f2:88:28:
                    79:d6:6f:14:a5:7a:2c:73:38:f6:69:83:f5:71:93:
                    5a:1d:96:27:35:bf:20:e8:97:68:cb:a3:ce:33:8b:
                    46:a5:fc:87:81:9f:b9:9a:11:16:64:f3:5b:98:82:
                    4e:27:eb:d3:a5:a2:7f:77:5f:b5:16:27:5c:c6:41:
                    99:f9:d4:aa:21:02:98:1b:6c:ed:ec:4e:ee:5a:bb:
                    77:6f:f2:25:03:39:ca:e4:e5:92:6a:d0:e5:b9:51:
                    3d:6a:4a:21:7c:41:b5:09:fb:31:47:39:41:e3:5e:
                    e9:0a:23:b9:87:26:86:06:53:43:4c:a7:d0:b7:00:
                    46:1b
                Exponent: 65537 (0x10001)
        X509v3 extensions:
            X509v3 Key Usage: critical
                Digital Signature, Key Encipherment
            X509v3 Extended Key Usage: 
                TLS Web Client Authentication, TLS Web Server Authentication
            X509v3 Basic Constraints: critical
                CA:FALSE
            X509v3 Authority Key Identifier: 
                keyid:01:02:03

            Authority Information Access: 
                OCSP - URI:http://theca.net/ocsp
                CA Issuers - URI:http://theca.net/totallythecert.crt

            X509v3 Certificate Policies: 
                Policy: 2.23.140.1.2.2

            X509v3 Subject Key Identifier: 
                04:03:02:01
            X509v3 Subject Alternative Name: 
                email:thegov@gov.us, DNS:*.gov.us, DNS:gov.us
    Signature Algorithm: sha256WithRSAEncryption
         3e:21:d4:34:ad:c2:b4:9f:4b:c3:28:4c:68:c5:72:96:d3:51:
         90:c5:2d:28:4d:9a:86:bc:31:cd:e9:2a:64:76:f9:dd:6b:bb:
         4d:00:ba:26:1d:16:e1:25:66:e5:17:d4:05:df:f3:73:55:fd:
         9a:5c:d1:43:0f:9a:f8:33:3d:b0:a1:4e:ce:19:d3:c9:95:6e:
         4c:7e:4f:de:13:e9:a9:30:a2:62:0b:bd:2d:de:01:a3:65:eb:
         d7:1a:8f:e1:10:82:03:a9:cc:a2:7b:fc:32:2f:84:eb:c7:10:
         6a:29:b7:2b:27:14:ed:79:e4:e7:5d:44:7d:a8:d1:05:96:07:
         ee:1d:49:01:c1:4b:b7:a0:ec:5b:0c:b4:6b:c4:61:c3:9f:db:
         d1:b5:22:50:35:b9:c1:34:c9:66:ee:15:64:72:4a:f4:56:67:
         91:b4:ff:7f:10:a1:b5:f2:8e:40:c1:d4:4a:af:24:5c:b0:32:
         aa:cc:2b:eb:da:62:87:3e:da:22:4a:58:6f:ea:64:de:45:14:
         bb:de:61:71:8d:90:f0:bd:c8:84:b8:a4:b6:39:a7:04:7d:71:
         72:e5:00:7a:19:fe:46:57:dc:6a:07:b4:ec:ed:c2:04:a7:8a:
         48:3b:d4:b6:45:a9:7e:9c:2e:9a:18:d0:9c:56:21:da:bb:56:
         9c:72:3a:ed
-----BEGIN CERTIFICATE-----
MIIEcjCCA1qgAwIBAgIFBDFmk+0wDQYJKoZIhvcNAQELBQAwUjELMAkGA1UEBhMC
VVMxFjAUBgNVBAoTDU1vdGhlciBOYXR1cmUxEzARBgNVBAsTCkV2ZXJ5dGhpbmcx
FjAUBgNVBAMTDU1vdGhlciBOYXR1cmUwHhcNMTYwNjI5MTYyNTM1WhcNMTYwOTEw
MTYyNTM1WjCBmTELMAkGA1UEBhMCVVMxCzAJBgNVBAgTAkZMMRQwEgYDVQQHEwtU
YWxsYWhhc3NlZTEcMBoGA1UECRMTMzIxMCBIb2xseSBNaWxsIFJ1bjEOMAwGA1UE
ERMFMzAwNjIxGDAWBgNVBAoTD0V4dHJlbWUgRGlzY29yZDEOMAwGA1UECxMFQ2hh
b3MxDzANBgNVBAMTBmdvdi51czCCASIwDQYJKoZIhvcNAQEBBQADggEPADCCAQoC
ggEBAMyccaU9tHTUe5QjLL2oFnBfcpS/5FfpoL/JP7k7EiZA+7UrN+DsjFoc35w9
TKKBMzs+baS5qzIDt/O49j7cc11/fABRz3aDn05USD59BAfSO4IZdP4hO216cN09
lVmec09DUV54tw0TNiXH4Vg7fAoT8q7xoCjaZp2n7TcMygLJwEGH8ogoedZvFKV6
LHM49mmD9XGTWh2WJzW/IOiXaMujzjOLRqX8h4GfuZoRFmTzW5iCTifr06Wif3df
tRYnXMZBmfnUqiECmBts7exO7lq7d2/yJQM5yuTlkmrQ5blRPWpKIXxBtQn7MUc5
QeNe6QojuYcmhgZTQ0yn0LcARhsCAwEAAaOCAQUwggEBMA4GA1UdDwEB/wQEAwIF
oDAdBgNVHSUEFjAUBggrBgEFBQcDAgYIKwYBBQUHAwEwDAYDVR0TAQH/BAIwADAO
BgNVHSMEBzAFgAMBAgMwYgYIKwYBBQUHAQEEVjBUMCEGCCsGAQUFBzABhhVodHRw
Oi8vdGhlY2EubmV0L29jc3AwLwYIKwYBBQUHMAKGI2h0dHA6Ly90aGVjYS5uZXQv
dG90YWxseXRoZWNlcnQuY3J0MBMGA1UdIAQMMAowCAYGZ4EMAQICMA0GA1UdDgQG
BAQEAwIBMCoGA1UdEQQjMCGBDXRoZWdvdkBnb3YudXOCCCouZ292LnVzggZnb3Yu
dXMwDQYJKoZIhvcNAQELBQADggEBAD4h1DStwrSfS8MoTGjFcpbTUZDFLShNmoa8
Mc3pKmR2+d1ru00AuiYdFuElZuUX1AXf83NV/Zpc0UMPmvgzPbChTs4Z08mVbkx+
T94T6akwomILvS3eAaNl69caj+EQggOpzKJ7/DIvhOvHEGoptysnFO155OddRH2o
0QWWB+4dSQHBS7eg7FsMtGvEYcOf29G1IlA1ucE0yWbuFWRySvRWZ5G0/38QobXy
jkDB1EqvJFywMqrMK+vaYoc+2iJKWG/qZN5FFLveYXGNkPC9yIS4pLY5pwR9cXLl
AHoZ/kZX3GoHtOztwgSnikg71LZFqX6cLpoY0JxWIdq7VpxyOu0=
-----END CERTIFICATE-----
