Certificate:
    Data:
        Version: 3 (0x2)
        Serial Number: 18008675309 (0x4316693ed)
    Signature Algorithm: sha256WithRSAEncryption
        Issuer: C = US, O = Mother Nature, OU = Everything, CN = Mother Nature
        Validity
            Not Before: Jun 29 17:39:14 2016 GMT
            Not After : Sep 10 17:39:14 2016 GMT
        Subject: C = US, ST = FL, L = Tallahassee, street = 3210 Holly Mill Run, postalCode = 30062, O = Extreme Discord, OU = Chaos, CN = gov.us
        Subject Public Key Info:
            Public Key Algorithm: rsaEncryption
                Public-Key: (2048 bit)
                Modulus:
                    00:b3:56:f3:74:68:1a:4f:df:91:d7:1b:67:86:3a:
                    71:81:1f:1a:79:8e:5f:a2:4a:40:d5:1f:58:b5:d3:
                    dc:af:19:3b:e2:c4:36:7e:25:0c:02:cf:9b:8f:90:
                    dd:eb:2d:79:3e:52:66:50:33:d0:4f:38:20:1e:56:
                    16:f5:0d:51:64:38:f0:cd:d0:b9:5f:64:d9:60:c6:
                    75:53:1e:20:02:0b:8e:03:79:97:ae:1d:af:4a:c3:
                    7a:14:d1:5f:c9:e0:b6:a8:f7:75:3a:10:f3:af:12:
                    15:a2:e1:3a:73:0a:2c:29:cb:a4:0d:4c:2a:76:a2:
                    29:b8:77:9a:83:c0:89:30:4c:ab:61:8c:35:d3:ce:
                    91:5f:6d:3f:1d:fe:30:69:0c:42:be:e4:34:9b:69:
                    12:a0:68:d1:a2:82:54:5d:d6:f0:81:b2:ca:05:9a:
                    0a:8a:35:0d:08:1c:16:93:6a:8a:91:cd:02:73:cb:
                    06:59:85:80:1f:fe:d7:eb:02:71:0d:8d:43:93:7e:
                    d5:27:46:b7:84:bc:65:53:64:9f:9f:f8:65:e7:09:
                    8a:d2:4e:5f:54:d5:fd:96:5b:71:36:2e:18:95:23:
                    a6:f9:32:14:d3:5f:e9:17:5b:67:47:1d:ee:b9:78:
                    2e:10:c0:61:df:30:0f:f2:ce:82:a7:b6:8c:ad:bf:
                    58:7d
                Exponent: 65537 (0x10001)
        X509v3 extensions:
            X509v3 Key Usage: critical
                Digital Signature, Key Encipherment
            X509v3 Extended Key Usage: 
                TLS Web Client Authentication, TLS Web Server Authentication
            X509v3 Basic Constraints: critical
                CA:FALSE
            X509v3 Authority Key Identifier: 
                keyid:01:02:03

            Authority Information Access: 
                OCSP - URI:http://theca.net/ocsp
                CA Issuers - URI:http://theca.net/totallythecert.crt

            X509v3 Certificate Policies: 
                Policy: 2.23.140.1.2.2

            X509v3 Subject Key Identifier: 
                04:03:02:01
            X509v3 Subject Alternative Name: 
                Registered ID:0.6.8.45.6.1.5.5.7.13.1, DNS:*.gov.us, DNS:gov.us
    Signature Algorithm: sha256WithRSAEncryption
         6f:dc:55:c6:d1:3c:41:44:80:44:e2:84:f8:98:41:17:e8:46:
         0e:46:cc:7d:75:fb:05:67:3c:4b:48:5e:3a:f4:11:d0:e2:61:
         a5:9e:86:6e:76:c4:5c:09:5f:03:52:9b:7e:64:e2:05:1a:b3:
         9f:7d:df:b9:11:7a:cd:5b:6d:72:3a:13:7a:fe:d7:74:0f:07:
         ff:c2:3b:4d:88:71:e1:ef:69:c7:a3:2c:57:04:73:04:11:e6:
         9a:5d:46:3a:3d:ea:91:d8:ab:d0:0a:8d:9c:24:7b:4c:d6:d0:
         91:6b:e0:07:73:e6:06:8b:49:31:c6:03:a8:8e:c3:fc:0c:e1:
         a7:d1:01:b9:df:82:f0:77:26:02:7d:78:f8:33:c1:dd:6d:5c:
         c4:ff:47:ad:10:cd:54:2d:d7:9d:de:41:a7:24:d9:99:8c:57:
         c6:c6:af:ec:69:0e:dc:5f:72:a6:d7:81:43:64:bb:42:b1:cb:
         94:7f:0d:cc:89:41:a9:33:80:59:92:87:d1:c6:81:ab:64:4d:
         f0:b1:7d:4f:61:21:e7:6a:b8:80:2c:f8:d7:57:d2:75:85:f7:
         2a:ec:ba:0a:a5:d2:85:eb:99:0e:82:c2:c0:1d:2f:a6:b0:0e:
         87:d7:d6:88:d9:57:1a:a0:3b:02:1d:e4:ac:3d:b7:4e:8a:f4:
         cf:28:b6:ce
-----BEGIN CERTIFICATE-----
MIIEbjCCA1agAwIBAgIFBDFmk+0wDQYJKoZIhvcNAQELBQAwUjELMAkGA1UEBhMC
VVMxFjAUBgNVBAoTDU1vdGhlciBOYXR1cmUxEzARBgNVBAsTCkV2ZXJ5dGhpbmcx
FjAUBgNVBAMTDU1vdGhlciBOYXR1cmUwHhcNMTYwNjI5MTczOTE0WhcNMTYwOTEw
MTczOTE0WjCBmTELMAkGA1UEBhMCVVMxCzAJBgNVBAgTAkZMMRQwEgYDVQQHEwtU
YWxsYWhhc3NlZTEcMBoGA1UECRMTMzIxMCBIb2xseSBNaWxsIFJ1bjEOMAwGA1UE
ERMFMzAwNjIxGDAWBgNVBAoTD0V4dHJlbWUgRGlzY29yZDEOMAwGA1UECxMFQ2hh
b3MxDzANBgNVBAMTBmdvdi51czCCASIwDQYJKoZIhvcNAQEBBQADggEPADCCAQoC
ggEBALNW83RoGk/fkdcbZ4Y6cYEfGnmOX6JKQNUfWLXT3K8ZO+LENn4lDALPm4+Q
3esteT5SZlAz0E84IB5WFvUNUWQ48M3QuV9k2WDGdVMeIAILjgN5l64dr0rDehTR
X8ngtqj3dToQ868SFaLhOnMKLCnLpA1MKnaiKbh3moPAiTBMq2GMNdPOkV9tPx3+
MGkMQr7kNJtpEqBo0aKCVF3W8IGyygWaCoo1DQgcFpNqipHNAnPLBlmFgB/+1+sC
cQ2NQ5N+1SdGt4S8ZVNkn5/4ZecJitJOX1TV/ZZbcTYuGJUjpvkyFNNf6RdbZ0cd
7rl4LhDAYd8wD/LOgqe2jK2/WH0CAwEAAaOCAQEwgf4wDgYDVR0PAQH/BAQDAgWg
MB0GA1UdJQQWMBQGCCsGAQUFBwMCBggrBgEFBQcDATAMBgNVHRMBAf8EAjAAMA4G
A1UdIwQHMAWAAwECAzBiBggrBgEFBQcBAQRWMFQwIQYIKwYBBQUHMAGGFWh0dHA6
Ly90aGVjYS5uZXQvb2NzcDAvBggrBgEFBQcwAoYjaHR0cDovL3RoZWNhLm5ldC90
b3RhbGx5dGhlY2VydC5jcnQwEwYDVR0gBAwwCjAIBgZngQwBAgIwDQYDVR0OBAYE
BAQDAgEwJwYDVR0RBCAwHogKBggtBgEFBQcNAYIIKi5nb3YudXOCBmdvdi51czAN
BgkqhkiG9w0BAQsFAAOCAQEAb9xVxtE8QUSAROKE+JhBF+hGDkbMfXX7BWc8S0he
OvQR0OJhpZ6GbnbEXAlfA1KbfmTiBRqzn33fuRF6zVttcjoTev7XdA8H/8I7TYhx
4e9px6MsVwRzBBHmml1GOj3qkdir0AqNnCR7TNbQkWvgB3PmBotJMcYDqI7D/Azh
p9EBud+C8HcmAn14+DPB3W1cxP9HrRDNVC3Xnd5BpyTZmYxXxsav7GkO3F9ypteB
Q2S7QrHLlH8NzIlBqTOAWZKH0caBq2RN8LF9T2Eh52q4gCz411fSdYX3Kuy6CqXS
heuZDoLCwB0vprAOh9fWiNlXGqA7Ah3krD23Tor0zyi2zg==
-----END CERTIFICATE-----
