Certificate:
    Data:
        Version: 3 (0x2)
        Serial Number: 18008675984 (0x431669690)
    Signature Algorithm: sha256WithRSAEncryption
        Issuer: C = US, O = Mother Nature, OU = Everything, CN = Mother Nature
        Validity
            Not Before: Jul  1 23:08:45 2016 GMT
            Not After : Sep 13 23:08:45 2016 GMT
        Subject: 
        Subject Public Key Info:
            Public Key Algorithm: rsaEncryption
                Public-Key: (2048 bit)
                Modulus:
                    00:d5:62:8a:89:40:d6:41:fe:7e:f3:37:50:6d:a4:
                    a9:bd:5d:30:c3:ac:9e:de:9d:b5:c2:6e:87:fa:bc:
                    65:1f:9d:e1:88:de:a4:de:f4:6c:e6:50:a2:e5:9b:
                    e1:47:b7:67:94:20:97:4a:c0:51:bf:b7:25:4c:5d:
                    01:83:30:04:35:e6:86:9d:9a:0f:4e:c1:a5:47:c1:
                    a3:3f:c6:9a:5c:98:1f:11:8f:dc:37:cf:70:6e:0f:
                    69:71:e6:37:7a:5b:af:d6:6d:33:43:24:94:3c:6b:
                    bb:d8:fe:aa:64:c6:d3:d4:ee:b9:91:89:89:de:41:
                    18:d7:ac:5c:f5:11:3c:df:ab:f7:64:c9:e8:79:9f:
                    75:60:b0:e2:b9:bc:b3:a1:2b:a7:63:3b:a1:fd:51:
                    86:40:55:59:0f:c6:b5:aa:b9:6c:52:f9:20:d7:e9:
                    22:cc:64:1b:1a:d1:55:69:05:a9:39:f9:ac:73:8d:
                    33:b0:3f:5c:67:95:d4:bb:71:2c:2c:72:33:1c:8d:
                    43:b2:7c:76:bf:53:9f:2c:dc:13:e3:69:35:26:e7:
                    5e:f1:65:7f:20:69:52:f2:41:9b:ac:a0:1d:50:c6:
                    44:6d:d1:a5:f4:48:8d:41:61:cd:fe:28:27:1f:40:
                    0d:df:80:32:f5:ba:ea:8d:69:50:3e:18:11:7c:74:
                    dd:99
                Exponent: 65537 (0x10001)
        X509v3 extensions:
            X509v3 Key Usage: critical
                Digital Signature, Key Encipherment
            X509v3 Extended Key Usage: 
                TLS Web Client Authentication, TLS Web Server Authentication
            X509v3 Basic Constraints: critical
                CA:FALSE
            X509v3 Authority Key Identifier: 
                keyid:01:02:03

            Authority Information Access: 
                OCSP - URI:http://theca.net/ocsp
                CA Issuers - URI:http://theca.net/totallythecert.crt

            X509v3 Certificate Policies: 
                Policy: 1.3.6.1.5.5.7.13.1

            X509v3 Subject Key Identifier: 
                04:03:02:01
            X509v3 Subject Alternative Name: 
                DNS:*.gov.us, DNS:gov.us
            X509v3 Issuer Alternative Name: 
                DNS:allthethings.net, DNS:theca.net
    Signature Algorithm: sha256WithRSAEncryption
         43:6f:b8:67:13:e4:71:b3:1e:b8:46:0c:8a:49:7d:3e:ca:94:
         3b:8c:67:00:0a:0a:55:53:ad:d5:0b:8a:42:40:5c:5f:a8:49:
         55:b5:b6:c2:d2:69:55:e1:63:5c:3d:fd:21:dc:8d:18:58:1f:
         cd:54:b3:1b:50:cc:6b:af:26:e6:7a:cd:31:7b:b5:93:da:c5:
         f1:48:ac:96:83:dd:44:14:75:f8:73:d5:ff:5e:83:08:ae:a1:
         47:b3:5c:cc:3d:cf:fb:65:87:2a:a7:d7:28:28:7b:2d:99:05:
         f7:c1:37:ce:3c:34:ea:da:b0:d3:1a:b3:10:e9:f2:08:e6:7d:
         9b:99:41:04:97:40:a2:3c:12:93:f0:82:85:a5:1b:4c:dd:da:
         dd:59:f9:d1:58:99:5d:7b:47:ed:1f:d3:97:fe:8f:79:4e:6d:
         03:37:93:21:20:bb:b9:4c:6c:50:29:b2:20:4e:d3:6f:87:60:
         97:53:bd:fb:04:78:e7:0b:d5:a0:75:e3:c4:35:95:1f:b1:7b:
         f9:04:d4:4f:4c:71:de:db:f5:00:60:ef:fa:1a:c0:b6:c2:8d:
         3f:93:f8:8e:06:9c:6b:9d:cf:60:7c:fa:14:fd:01:01:3c:1a:
         6d:b1:08:f1:f0:28:40:9d:8b:ce:5c:64:5c:1d:17:d3:2c:02:
         7f:d8:32:d6
-----BEGIN CERTIFICATE-----
MIID8zCCAtugAwIBAgIFBDFmlpAwDQYJKoZIhvcNAQELBQAwUjELMAkGA1UEBhMC
VVMxFjAUBgNVBAoTDU1vdGhlciBOYXR1cmUxEzARBgNVBAsTCkV2ZXJ5dGhpbmcx
FjAUBgNVBAMTDU1vdGhlciBOYXR1cmUwHhcNMTYwNzAxMjMwODQ1WhcNMTYwOTEz
MjMwODQ1WjAAMIIBIjANBgkqhkiG9w0BAQEFAAOCAQ8AMIIBCgKCAQEA1WKKiUDW
Qf5+8zdQbaSpvV0ww6ye3p21wm6H+rxlH53hiN6k3vRs5lCi5ZvhR7dnlCCXSsBR
v7clTF0BgzAENeaGnZoPTsGlR8GjP8aaXJgfEY/cN89wbg9pceY3eluv1m0zQySU
PGu72P6qZMbT1O65kYmJ3kEY16xc9RE836v3ZMnoeZ91YLDiubyzoSunYzuh/VGG
QFVZD8a1qrlsUvkg1+kizGQbGtFVaQWpOfmsc40zsD9cZ5XUu3EsLHIzHI1Dsnx2
v1OfLNwT42k1Jude8WV/IGlS8kGbrKAdUMZEbdGl9EiNQWHN/ignH0AN34Ay9brq
jWlQPhgRfHTdmQIDAQABo4IBIDCCARwwDgYDVR0PAQH/BAQDAgWgMB0GA1UdJQQW
MBQGCCsGAQUFBwMCBggrBgEFBQcDATAMBgNVHRMBAf8EAjAAMA4GA1UdIwQHMAWA
AwECAzBiBggrBgEFBQcBAQRWMFQwIQYIKwYBBQUHMAGGFWh0dHA6Ly90aGVjYS5u
ZXQvb2NzcDAvBggrBgEFBQcwAoYjaHR0cDovL3RoZWNhLm5ldC90b3RhbGx5dGhl
Y2VydC5jcnQwFQYDVR0gBA4wDDAKBggrBgEFBQcNATANBgNVHQ4EBgQEBAMCATAb
BgNVHREEFDASgggqLmdvdi51c4IGZ292LnVzMCYGA1UdEgQfMB2CEGFsbHRoZXRo
aW5ncy5uZXSCCXRoZWNhLm5ldDANBgkqhkiG9w0BAQsFAAOCAQEAQ2+4ZxPkcbMe
uEYMikl9PsqUO4xnAAoKVVOt1QuKQkBcX6hJVbW2wtJpVeFjXD39IdyNGFgfzVSz
G1DMa68m5nrNMXu1k9rF8UisloPdRBR1+HPV/16DCK6hR7NczD3P+2WHKqfXKCh7
LZkF98E3zjw06tqw0xqzEOnyCOZ9m5lBBJdAojwSk/CChaUbTN3a3Vn50ViZXXtH
7R/Tl/6PeU5tAzeTISC7uUxsUCmyIE7Tb4dgl1O9+wR45wvVoHXjxDWVH7F7+QTU
T0xx3tv1AGDv+hrAtsKNP5P4jgaca53PYHz6FP0BATwabbEI8fAoQJ2LzlxkXB0X
0ywCf9gy1g==
-----END CERTIFICATE-----
