Certificate:
    Data:
        Version: 3 (0x2)
        Serial Number: 18008675309 (0x4316693ed)
    Signature Algorithm: sha256WithRSAEncryption
        Issuer: C = US, O = Mother Nature, OU = Everything, CN = Mother Nature
        Validity
            Not Before: Jun 29 16:19:54 2016 GMT
            Not After : Sep 10 16:19:54 2016 GMT
        Subject: C = US, ST = FL, L = Tallahassee, street = 3210 Holly Mill Run, postalCode = 30062, O = Extreme Discord, OU = Chaos, CN = gov.us
        Subject Public Key Info:
            Public Key Algorithm: rsaEncryption
                Public-Key: (2048 bit)
                Modulus:
                    00:c1:58:f0:94:27:ea:dc:e4:df:a7:59:f0:99:bb:
                    62:57:ff:38:a8:0e:59:50:e2:d1:f4:e4:17:bd:1d:
                    cb:10:8e:d4:22:63:4b:3d:e8:f1:8e:a4:e1:58:36:
                    9a:e1:de:6f:bb:bc:90:29:7c:5a:c1:bc:45:33:86:
                    53:16:87:88:8a:34:38:c9:77:1d:63:e1:2a:4c:ec:
                    8a:fe:c3:02:f0:90:33:97:a3:0b:88:e6:41:19:c7:
                    c2:00:72:0e:17:00:78:aa:c2:b8:68:76:e7:4f:9b:
                    1f:06:ad:e2:3f:98:25:5c:07:23:c7:7c:fb:0b:a0:
                    a1:ca:47:97:09:9c:8a:1a:a6:21:6e:19:a1:b0:73:
                    cc:f4:49:74:d1:ae:1e:93:cb:25:32:de:28:1e:e2:
                    4e:0e:4f:db:03:d7:7d:6a:32:75:12:d5:14:be:88:
                    75:b4:4a:f9:d9:23:8d:88:69:80:13:7a:64:03:58:
                    38:5b:cc:91:9e:85:c9:47:73:19:78:39:2d:6a:18:
                    3f:14:13:51:27:90:5b:ef:02:c2:58:73:4f:c0:6e:
                    2c:b7:60:0d:57:63:95:47:33:5e:09:05:fe:cc:7d:
                    b1:88:b9:3f:6a:fd:79:0b:89:2f:1a:d4:e6:97:c0:
                    e3:07:22:66:7e:19:cd:97:96:df:33:78:4f:f0:15:
                    9e:5b
                Exponent: 65537 (0x10001)
        X509v3 extensions:
            X509v3 Key Usage: critical
                Digital Signature, Key Encipherment
            X509v3 Extended Key Usage: 
                TLS Web Client Authentication, TLS Web Server Authentication
            X509v3 Basic Constraints: critical
                CA:FALSE
            X509v3 Authority Key Identifier: 
                keyid:01:02:03

            Authority Information Access: 
                OCSP - URI:http://theca.net/ocsp
                CA Issuers - URI:http://theca.net/totallythecert.crt

            X509v3 Certificate Policies: 
                Policy: 2.23.140.1.2.2

            X509v3 Subject Key Identifier: 
                04:03:02:01
            X509v3 Subject Alternative Name: 
                DNS:*.gov.us, DNS:gov.us, URI:http://gov.us
    Signature Algorithm: sha256WithRSAEncryption
         6c:55:a8:b2:05:f2:bc:fd:90:ba:0b:b9:f8:8b:4f:69:e5:3b:
         dc:1f:a5:b1:73:17:c9:33:da:4f:4f:13:2b:ce:48:7f:96:60:
         45:8c:3b:3c:66:39:07:c0:d4:16:8d:bf:05:ed:69:0e:e7:2e:
         45:88:d2:13:f2:3c:a5:36:90:c5:9d:83:ed:7c:45:b3:cf:3c:
         6d:e8:b8:e9:c7:36:86:2d:b1:82:56:35:41:65:e2:25:e7:43:
         79:9a:a7:40:ea:24:55:22:58:8d:2d:26:c1:d8:7d:cf:0a:04:
         f2:06:f2:49:88:94:2b:a7:e3:51:5b:4e:ea:b7:ff:28:47:7d:
         40:1d:97:54:6d:a5:86:bd:a8:09:33:c6:67:4c:2b:a5:11:c5:
         5b:0f:22:f2:c3:4f:11:1e:36:92:5a:eb:2d:50:d8:ed:a2:d9:
         9e:ad:1a:65:08:45:f8:98:62:28:0a:d4:3a:76:da:fb:aa:62:
         fc:39:29:87:69:75:78:4f:b4:92:23:b2:20:5a:02:e4:95:38:
         2b:15:27:0c:f0:58:8e:b2:e0:b4:e2:95:7f:5d:18:d6:b7:0f:
         c7:62:0c:19:1d:b8:4a:78:6e:41:a8:b0:7f:10:2f:d9:7d:34:
         ba:e9:b1:07:0a:8a:47:92:ba:60:dd:57:32:7a:d4:42:f9:2b:
         e3:57:93:5b
-----BEGIN CERTIFICATE-----
MIIEcjCCA1qgAwIBAgIFBDFmk+0wDQYJKoZIhvcNAQELBQAwUjELMAkGA1UEBhMC
VVMxFjAUBgNVBAoTDU1vdGhlciBOYXR1cmUxEzARBgNVBAsTCkV2ZXJ5dGhpbmcx
FjAUBgNVBAMTDU1vdGhlciBOYXR1cmUwHhcNMTYwNjI5MTYxOTU0WhcNMTYwOTEw
MTYxOTU0WjCBmTELMAkGA1UEBhMCVVMxCzAJBgNVBAgTAkZMMRQwEgYDVQQHEwtU
YWxsYWhhc3NlZTEcMBoGA1UECRMTMzIxMCBIb2xseSBNaWxsIFJ1bjEOMAwGA1UE
ERMFMzAwNjIxGDAWBgNVBAoTD0V4dHJlbWUgRGlzY29yZDEOMAwGA1UECxMFQ2hh
b3MxDzANBgNVBAMTBmdvdi51czCCASIwDQYJKoZIhvcNAQEBBQADggEPADCCAQoC
ggEBAMFY8JQn6tzk36dZ8Jm7Ylf/OKgOWVDi0fTkF70dyxCO1CJjSz3o8Y6k4Vg2
muHeb7u8kCl8WsG8RTOGUxaHiIo0OMl3HWPhKkzsiv7DAvCQM5ejC4jmQRnHwgBy
DhcAeKrCuGh250+bHwat4j+YJVwHI8d8+wugocpHlwmcihqmIW4ZobBzzPRJdNGu
HpPLJTLeKB7iTg5P2wPXfWoydRLVFL6IdbRK+dkjjYhpgBN6ZANYOFvMkZ6FyUdz
GXg5LWoYPxQTUSeQW+8CwlhzT8BuLLdgDVdjlUczXgkF/sx9sYi5P2r9eQuJLxrU
5pfA4wciZn4ZzZeW3zN4T/AVnlsCAwEAAaOCAQUwggEBMA4GA1UdDwEB/wQEAwIF
oDAdBgNVHSUEFjAUBggrBgEFBQcDAgYIKwYBBQUHAwEwDAYDVR0TAQH/BAIwADAO
BgNVHSMEBzAFgAMBAgMwYgYIKwYBBQUHAQEEVjBUMCEGCCsGAQUFBzABhhVodHRw
Oi8vdGhlY2EubmV0L29jc3AwLwYIKwYBBQUHMAKGI2h0dHA6Ly90aGVjYS5uZXQv
dG90YWxseXRoZWNlcnQuY3J0MBMGA1UdIAQMMAowCAYGZ4EMAQICMA0GA1UdDgQG
BAQEAwIBMCoGA1UdEQQjMCGCCCouZ292LnVzggZnb3YudXOGDWh0dHA6Ly9nb3Yu
dXMwDQYJKoZIhvcNAQELBQADggEBAGxVqLIF8rz9kLoLufiLT2nlO9wfpbFzF8kz
2k9PEyvOSH+WYEWMOzxmOQfA1BaNvwXtaQ7nLkWI0hPyPKU2kMWdg+18RbPPPG3o
uOnHNoYtsYJWNUFl4iXnQ3map0DqJFUiWI0tJsHYfc8KBPIG8kmIlCun41FbTuq3
/yhHfUAdl1RtpYa9qAkzxmdMK6URxVsPIvLDTxEeNpJa6y1Q2O2i2Z6tGmUIRfiY
YigK1Dp22vuqYvw5KYdpdXhPtJIjsiBaAuSVOCsVJwzwWI6y4LTilX9dGNa3D8di
DBkduEp4bkGosH8QL9l9NLrpsQcKikeSumDdVzJ61EL5K+NXk1s=
-----END CERTIFICATE-----
