Certificate:
    Data:
        Version: 3 (0x2)
        Serial Number:
            e8:f8:ad:9e:a1:86:8b:da
        Signature Algorithm: sha1WithRSAEncryption
        Issuer: CN=Testroot
        Validity
            Not Before: Jan 12 19:21:12 2018 GMT
            Not After : Jan 10 19:21:12 2028 GMT
        Subject: CN=SANURIHostWildcardFQDN
        Subject Public Key Info:
            Public Key Algorithm: rsaEncryption
                Public-Key: (2048 bit)
                Modulus:
                    00:b9:17:fd:f8:03:5d:41:52:27:c6:7c:df:59:68:
                    1a:a7:e2:f2:22:db:1c:88:20:3e:9a:73:ed:0f:ea:
                    8d:28:29:7b:ef:c3:f6:2c:11:87:b6:86:ab:da:e4:
                    9d:f9:dd:78:6e:d1:fa:90:fa:1b:be:c7:34:2d:3e:
                    15:5f:a3:42:0b:ea:2f:3b:47:09:2e:b1:b9:3f:fb:
                    44:b5:14:e7:c4:68:c7:d4:c0:36:b5:ea:2b:91:81:
                    9f:42:32:b9:88:25:1a:e7:c8:f3:3a:03:2b:e5:e7:
                    cd:34:4e:75:57:1f:83:42:0b:4d:ae:99:79:53:50:
                    b2:bb:c0:a6:30:5e:e4:a8:e8:60:ff:2c:66:bf:dc:
                    4a:fd:33:55:62:6c:ad:d0:b1:74:0a:65:66:5d:3b:
                    ad:b0:cd:92:b5:16:7e:7e:ca:01:a8:5e:86:e7:05:
                    e6:58:87:58:81:a8:fb:c4:b9:87:75:3c:66:72:16:
                    00:d6:78:dc:51:43:ef:b8:a9:f7:7e:a5:70:5f:ee:
                    0c:00:c9:db:4e:0e:11:4f:24:e5:64:37:06:77:1f:
                    56:86:6f:f8:d4:b7:5a:81:1a:c0:85:2e:20:9c:38:
                    d6:50:27:4b:15:86:92:e5:de:f3:dd:da:1a:d2:7d:
                    7f:de:0b:a3:8f:83:90:14:cc:de:f4:13:d8:4a:b3:
                    90:63
                Exponent: 65537 (0x10001)
        X509v3 extensions:
            X509v3 Subject Alternative Name: 
                DNS:*.example.com, URI:test://user@*.example.com:1337/test
    Signature Algorithm: sha1WithRSAEncryption
        7c:ea:e7:ea:7e:c1:ab:30:bc:5d:8a:d4:76:77:c2:7d:6e:2e:
        94:d7:d9:22:0d:a7:91:fa:7a:97:6b:0b:0f:f8:18:d5:93:21:
        42:dd:69:3d:92:f9:78:76:55:8e:71:c1:ea:26:f0:c3:a3:1d:
        88:b7:3b:bc:e2:54:c2:e4:c9:31:9b:0b:05:63:05:27:9a:a6:
        e6:50:d2:4f:0f:85:27:b0:88:19:4f:4d:d8:10:65:bc:81:f1:
        8a:fe:90:36:d8:66:87:16:c5:c8:16:13:b6:90:96:ca:bf:29:
        87:8f:5c:12:b5:13:bb:57:b5:27:cd:bb:a8:cb:49:40:8b:76:
        99:75:2a:f1:c4:10:40:44:cc:ad:d6:e8:e5:c3:aa:db:02:1a:
        ac:26:c6:68:ee:09:a4:fd:e8:fb:8e:7a:46:00:5b:4d:33:c8:
        1b:1e:f8:9d:d7:cd:10:09:d2:18:06:b4:29:08:80:cc:79:b2:
        86:d0:29:ab:0d:a4:a5:b2:ef:d4:89:1b:ae:49:a6:28:79:fa:
        fa:58:24:b6:8c:02:5a:cb:64:69:57:69:88:4e:44:2b:06:2e:
        2a:a4:97:00:d4:f6:2a:4b:67:dd:3d:4f:d4:0a:82:e2:51:1b:
        30:f6:1c:39:1e:be:ed:b7:33:55:a9:52:82:97:93:5e:eb:5a:
        8d:d0:fc:c2
-----BEGIN CERTIFICATE-----
MIIC+DCCAeCgAwIBAgIJAOj4rZ6hhovaMA0GCSqGSIb3DQEBBQUAMBMxETAPBgNV
BAMTCFRlc3Ryb290MB4XDTE4MDExMjE5MjExMloXDTI4MDExMDE5MjExMlowITEf
MB0GA1UEAxMWU0FOVVJJSG9zdFdpbGRjYXJkRlFETjCCASIwDQYJKoZIhvcNAQEB
BQADggEPADCCAQoCggEBALkX/fgDXUFSJ8Z831loGqfi8iLbHIggPppz7Q/qjSgp
e+/D9iwRh7aGq9rknfndeG7R+pD6G77HNC0+FV+jQgvqLztHCS6xuT/7RLUU58Ro
x9TANrXqK5GBn0IyuYglGufI8zoDK+XnzTROdVcfg0ILTa6ZeVNQsrvApjBe5Kjo
YP8sZr/cSv0zVWJsrdCxdAplZl07rbDNkrUWfn7KAahehucF5liHWIGo+8S5h3U8
ZnIWANZ43FFD77ip936lcF/uDADJ204OEU8k5WQ3BncfVoZv+NS3WoEawIUuIJw4
1lAnSxWGkuXe893aGtJ9f94Lo4+DkBTM3vQT2EqzkGMCAwEAAaNBMD8wPQYDVR0R
BDYwNIINKi5leGFtcGxlLmNvbYYjdGVzdDovL3VzZXJAKi5leGFtcGxlLmNvbTox
MzM3L3Rlc3QwDQYJKoZIhvcNAQEFBQADggEBAHzq5+p+waswvF2K1HZ3wn1uLpTX
2SINp5H6epdrCw/4GNWTIULdaT2S+Xh2VY5xweom8MOjHYi3O7ziVMLkyTGbCwVj
BSeapuZQ0k8PhSewiBlPTdgQZbyB8Yr+kDbYZocWxcgWE7aQlsq/KYePXBK1E7tX
tSfNu6jLSUCLdpl1KvHEEEBEzK3W6OXDqtsCGqwmxmjuCaT96PuOekYAW00zyBse
+J3XzRAJ0hgGtCkIgMx5sobQKasNpKWy79SJG65Jpih5+vpYJLaMAlrLZGlXaYhO
RCsGLiqklwDU9ipLZ909T9QKguJRGzD2HDkevu23M1WpUoKXk17rWo3Q/MI=
-----END CERTIFICATE-----
