Certificate:
    Data:
        Version: 3 (0x2)
        Serial Number: 18008675309 (0x4316693ed)
    Signature Algorithm: sha256WithRSAEncryption
        Issuer: C = US, O = Mother Nature, OU = Everything, CN = Mother Nature
        Validity
            Not Before: Mar 17 22:37:38 2017 GMT
            Not After : May 29 22:37:38 2017 GMT
        Subject: C = US, O = Extreme Discord, OU = Chaos, L = Tallahassee, ST = FL, street = 3210 Holly Mill Run, postalCode = 30062, CN = gov.us
        Subject Public Key Info:
            Public Key Algorithm: rsaEncryption
                Public-Key: (2048 bit)
                Modulus:
                    00:e2:53:26:0a:56:31:da:f2:f3:8e:27:22:36:3b:
                    a3:df:bf:af:3f:af:84:13:f4:6b:ba:df:87:c2:2c:
                    50:97:b7:b1:be:67:20:48:f2:ed:32:ef:33:f4:8e:
                    f2:69:89:bd:dd:f2:96:47:0e:8b:c7:b2:bf:59:85:
                    28:40:48:12:7a:3f:e3:8f:7a:0e:89:b0:10:4e:94:
                    e3:55:21:ef:71:ae:cd:11:2b:d9:40:7c:4f:ae:99:
                    a8:e9:d5:8c:59:39:de:b7:94:3f:ac:a1:fa:53:f1:
                    b2:b1:0c:d0:e7:4d:f7:7d:eb:9a:bf:a4:c0:ea:2f:
                    56:22:0e:0b:26:7a:b7:82:f9:ea:ce:07:56:48:82:
                    7f:70:ff:f6:cd:c5:73:a7:52:57:7a:a2:ec:26:af:
                    6b:cc:db:69:d5:3a:e8:28:4a:0a:39:c2:af:80:35:
                    ee:6f:ed:4e:22:0c:c5:e8:72:f5:45:75:18:29:b1:
                    c4:89:40:83:87:b9:c1:d3:59:f2:ca:2d:df:62:0f:
                    16:b6:d5:1c:58:f4:e2:71:56:08:75:96:70:fd:2c:
                    80:70:82:db:72:86:a1:dc:65:5f:c2:0e:b2:a5:ec:
                    71:2e:45:d8:21:ad:e7:ee:d9:55:43:1e:78:10:a4:
                    b1:05:66:8f:42:f4:60:48:4d:05:6b:20:44:00:d8:
                    70:53
                Exponent: 65537 (0x10001)
        X509v3 extensions:
            X509v3 Key Usage: critical
                Digital Signature, Key Encipherment
            X509v3 Extended Key Usage: 
                TLS Web Client Authentication, TLS Web Server Authentication
            X509v3 Basic Constraints: critical
                CA:FALSE
            X509v3 Authority Key Identifier: 
                keyid:01:02:03

            Authority Information Access: 
                OCSP - URI:http://theca.net/ocsp
                CA Issuers - URI:http://theca.net/totallythecert.crt

            X509v3 Subject Alternative Name: 
                DNS:*.example.com, URI:test//user@www.example.com:1337/test
            X509v3 Issuer Alternative Name: 
                URI:test//user@*.example.com:1337/test
            X509v3 Certificate Policies: 
                Policy: 2.23.140.1.2.2

    Signature Algorithm: sha256WithRSAEncryption
         44:36:b5:4d:e9:e6:ec:0c:af:e9:4f:c2:10:ee:60:87:e9:f5:
         b6:96:bd:78:23:8a:79:34:dd:30:ae:a2:c3:a7:32:29:65:3c:
         ca:38:1d:ec:2f:0b:fa:1a:26:88:92:85:a2:20:92:10:88:13:
         ef:31:11:68:42:ba:7d:6d:bb:ac:3d:58:47:94:74:23:17:8f:
         5b:ba:71:c6:32:7f:8b:ad:53:5b:37:90:20:84:74:c1:df:5a:
         48:15:49:6d:31:33:99:64:f5:de:ec:58:41:76:2b:b2:9c:e9:
         57:7c:5e:4b:b0:b5:d6:cd:49:7f:75:0b:8c:45:9b:15:65:89:
         f5:de:b3:d9:5a:97:51:a5:9d:43:69:2c:37:bb:4a:26:2e:1d:
         42:50:ae:a7:62:60:21:b9:bb:a0:99:84:9e:71:4b:cc:1b:9a:
         ca:95:3c:21:0a:d7:0c:92:71:2c:99:b6:91:db:b4:74:45:60:
         97:70:c4:64:cb:9c:b5:b8:e7:a5:9f:f7:d3:7f:ea:73:bc:69:
         87:4f:6a:7f:e8:28:08:4a:2f:4b:73:ed:5d:88:8f:8b:9c:fc:
         ae:65:1c:8a:19:0f:61:81:f9:33:58:30:4e:73:38:fd:1d:92:
         9a:d4:84:b9:f0:b4:bf:74:47:af:89:b3:da:ca:ff:35:75:74:
         e8:ca:a3:03
-----BEGIN CERTIFICATE-----
MIIEpjCCA5CgAwIBAgIFBDFmk+0wCwYJKoZIhvcNAQELMFQxCzAJBgNVBAYTAlVT
MRYwFAYDVQQKEw1Nb3RoZXIgTmF0dXJlMRMwEQYDVQQLEwpFdmVyeXRoaW5nMRYw
FAYDVQQDEw1Nb3RoZXIgTmF0dXJlMQAwHhcNMTcwMzE3MjIzNzM4WhcNMTcwNTI5
MjIzNzM4WjCBmzELMAkGA1UEBhMCVVMxGDAWBgNVBAoTD0V4dHJlbWUgRGlzY29y
ZDEOMAwGA1UECxMFQ2hhb3MxFDASBgNVBAcTC1RhbGxhaGFzc2VlMQswCQYDVQQI
EwJGTDEcMBoGA1UECRMTMzIxMCBIb2xseSBNaWxsIFJ1bjEOMAwGA1UEERMFMzAw
NjIxDzANBgNVBAMTBmdvdi51czEAMIIBIjANBgkqhkiG9w0BAQEFAAOCAQ8AMIIB
CgKCAQEA4lMmClYx2vLzjiciNjuj37+vP6+EE/Rrut+HwixQl7exvmcgSPLtMu8z
9I7yaYm93fKWRw6Lx7K/WYUoQEgSej/jj3oOibAQTpTjVSHvca7NESvZQHxPrpmo
6dWMWTnet5Q/rKH6U/GysQzQ5033feuav6TA6i9WIg4LJnq3gvnqzgdWSIJ/cP/2
zcVzp1JXeqLsJq9rzNtp1TroKEoKOcKvgDXub+1OIgzF6HL1RXUYKbHEiUCDh7nB
01nyyi3fYg8WttUcWPTicVYIdZZw/SyAcILbcoah3GVfwg6ypexxLkXYIa3n7tlV
Qx54EKSxBWaPQvRgSE0FayBEANhwUwIDAQABo4IBOTCCATUwDgYDVR0PAQH/BAQD
AgCgMB0GA1UdJQQWMBQGCCsGAQUFBwMCBggrBgEFBQcDATAMBgNVHRMBAf8EAjAA
MA4GA1UdIwQHMAWAAwECAzBiBggrBgEFBQcBAQRWMFQwIQYIKwYBBQUHMAGGFWh0
dHA6Ly90aGVjYS5uZXQvb2NzcDAvBggrBgEFBQcwAoYjaHR0cDovL3RoZWNhLm5l
dC90b3RhbGx5dGhlY2VydC5jcnQwPgYDVR0RBDcwNYINKi5leGFtcGxlLmNvbYYk
dGVzdC8vdXNlckB3d3cuZXhhbXBsZS5jb206MTMzNy90ZXN0MC0GA1UdEgQmMCSG
InRlc3QvL3VzZXJAKi5leGFtcGxlLmNvbToxMzM3L3Rlc3QwEwYDVR0gBAwwCjAI
BgZngQwBAgIwCwYJKoZIhvcNAQELA4IBAQBENrVN6ebsDK/pT8IQ7mCH6fW2lr14
I4p5NN0wrqLDpzIpZTzKOB3sLwv6GiaIkoWiIJIQiBPvMRFoQrp9bbusPVhHlHQj
F49bunHGMn+LrVNbN5AghHTB31pIFUltMTOZZPXe7FhBdiuynOlXfF5LsLXWzUl/
dQuMRZsVZYn13rPZWpdRpZ1DaSw3u0omLh1CUK6nYmAhubugmYSecUvMG5rKlTwh
CtcMknEsmbaR27R0RWCXcMRky5y1uOeln/fTf+pzvGmHT2p/6CgISi9Lc+1diI+L
nPyuZRyKGQ9hgfkzWDBOczj9HZKa1IS58LS/dEevibPayv81dXToyqMD
-----END CERTIFICATE-----
