Certificate:
    Data:
        Version: 3 (0x2)
        Serial Number: 18008675309 (0x4316693ed)
    Signature Algorithm: sha256WithRSAEncryption
        Issuer: C = US, O = Mother Nature, OU = Everything, CN = Mother Nature
        Validity
            Not Before: Aug 26 21:35:11 2016 GMT
            Not After : Nov  7 22:35:11 2016 GMT
        Subject: C = US, O = Extreme Discord, OU = Chaos, L = Tallahassee, ST = FL, street = 3210 Holly Mill Run, postalCode = 30062, CN = gov.us
        Subject Public Key Info:
            Public Key Algorithm: rsaEncryption
                Public-Key: (2048 bit)
                Modulus:
                    00:a4:6e:a6:d5:dc:36:4a:58:6f:29:4f:30:1f:68:
                    dc:53:27:53:cc:02:b6:b8:12:35:27:9d:2c:aa:5a:
                    af:49:34:8e:36:2a:57:66:58:40:15:06:a7:21:89:
                    d0:8e:c3:24:23:19:cb:9e:e4:b9:5c:38:3e:a2:b3:
                    70:d8:d2:1a:45:bb:3b:35:88:df:2c:ae:54:c1:b6:
                    a8:1e:10:69:3d:3b:e9:64:08:6e:79:4c:6b:8b:bc:
                    72:85:98:4b:f3:52:8d:4a:65:e1:29:11:d5:57:ee:
                    ae:82:31:ea:0f:b6:59:89:10:96:31:bd:8f:7d:50:
                    b1:59:27:af:ed:dd:98:a6:a2:70:c4:84:58:74:8f:
                    09:b4:90:33:42:86:ab:65:0d:78:fe:89:7e:3a:5c:
                    5e:70:a7:2d:bc:5e:3a:07:30:55:9c:e1:2b:8a:72:
                    d0:bf:e5:8c:85:44:ed:64:44:e2:1c:43:6a:fc:db:
                    39:a3:20:ae:b9:c4:b3:66:2b:aa:94:cf:6a:52:66:
                    69:b8:bc:e9:b2:43:c3:72:58:f1:4f:58:27:f6:76:
                    af:b4:19:0d:4a:08:e6:d8:a2:2f:eb:b3:76:a9:e0:
                    dd:d1:ee:5d:92:e1:79:0b:b1:14:36:ba:3a:3d:b6:
                    ae:97:34:b9:b0:28:e0:5d:6a:d8:a8:23:d6:3e:9d:
                    fd:41
                Exponent: 65537 (0x10001)
        X509v3 extensions:
            X509v3 Key Usage: critical
                Digital Signature, Key Encipherment
            X509v3 Extended Key Usage: 
                TLS Web Client Authentication, TLS Web Server Authentication
            X509v3 Basic Constraints: critical
                CA:FALSE
            X509v3 Authority Key Identifier: 
                keyid:01:02:03

            Authority Information Access: 
                OCSP - URI:http://theca.net/ocsp
                CA Issuers - URI:http://theca.net/totallythecert.crt

            X509v3 Certificate Policies: 
                Policy: 2.23.140.1.2.2

            X509v3 Subject Key Identifier: 
                04:03:02:01
            X509v3 Subject Alternative Name: 
                DNS:*.gov.us, DNS:gov.us, URI:www.google.com
    Signature Algorithm: sha256WithRSAEncryption
         1b:97:41:ed:6f:cb:56:f7:2a:19:b7:a9:5a:b0:cc:71:7c:9c:
         79:da:15:6e:e0:dc:7c:0e:0a:61:95:1b:78:f3:e6:42:b5:8e:
         6f:2d:33:ab:d3:8b:e8:cb:20:44:7e:98:ca:3c:eb:3a:29:0c:
         36:ea:f3:61:2d:d1:76:f2:e3:a7:24:81:eb:80:a4:c7:70:39:
         3a:36:c0:b5:18:91:9e:cb:0d:bc:bf:95:97:38:b5:49:92:e9:
         f8:c9:c1:ef:ac:8d:b6:ff:d3:2e:2d:eb:a8:72:01:62:39:d5:
         1b:bb:5f:0a:2f:c6:b0:d4:0a:ef:29:d4:ae:00:ea:9e:18:89:
         7e:a8:ae:05:cf:25:07:be:25:cb:dd:4a:1c:c7:b1:a3:9f:d4:
         2c:7c:ea:85:38:d5:8d:e9:d9:fa:27:26:7e:c3:d5:3a:fc:0b:
         55:30:9a:f4:59:0e:20:62:e8:fa:81:26:6e:17:e1:b8:a5:15:
         b7:1e:cc:05:bc:5c:a2:4b:e4:37:0b:e0:f4:59:dd:33:c5:7c:
         ee:c6:ef:be:46:21:94:e4:3f:eb:a7:0f:73:18:32:91:90:ab:
         5e:b6:c7:d9:6e:6f:d7:97:27:a6:ad:06:a7:db:fe:6e:3d:5b:
         c8:f7:3c:b4:c1:8b:b7:67:4c:85:0a:1e:77:d8:39:e0:88:64:
         f7:61:4f:01
-----BEGIN CERTIFICATE-----
MIIEczCCA12gAwIBAgIFBDFmk+0wCwYJKoZIhvcNAQELMFQxCzAJBgNVBAYTAlVT
MRYwFAYDVQQKEw1Nb3RoZXIgTmF0dXJlMRMwEQYDVQQLEwpFdmVyeXRoaW5nMRYw
FAYDVQQDEw1Nb3RoZXIgTmF0dXJlMQAwHhcNMTYwODI2MjEzNTExWhcNMTYxMTA3
MjIzNTExWjCBmzELMAkGA1UEBhMCVVMxGDAWBgNVBAoTD0V4dHJlbWUgRGlzY29y
ZDEOMAwGA1UECxMFQ2hhb3MxFDASBgNVBAcTC1RhbGxhaGFzc2VlMQswCQYDVQQI
EwJGTDEcMBoGA1UECRMTMzIxMCBIb2xseSBNaWxsIFJ1bjEOMAwGA1UEERMFMzAw
NjIxDzANBgNVBAMTBmdvdi51czEAMIIBIjANBgkqhkiG9w0BAQEFAAOCAQ8AMIIB
CgKCAQEApG6m1dw2SlhvKU8wH2jcUydTzAK2uBI1J50sqlqvSTSONipXZlhAFQan
IYnQjsMkIxnLnuS5XDg+orNw2NIaRbs7NYjfLK5UwbaoHhBpPTvpZAhueUxri7xy
hZhL81KNSmXhKRHVV+6ugjHqD7ZZiRCWMb2PfVCxWSev7d2YpqJwxIRYdI8JtJAz
QoarZQ14/ol+OlxecKctvF46BzBVnOErinLQv+WMhUTtZETiHENq/Ns5oyCuucSz
ZiuqlM9qUmZpuLzpskPDcljxT1gn9navtBkNSgjm2KIv67N2qeDd0e5dkuF5C7EU
Nro6PbaulzS5sCjgXWrYqCPWPp39QQIDAQABo4IBBjCCAQIwDgYDVR0PAQH/BAQD
AgCgMB0GA1UdJQQWMBQGCCsGAQUFBwMCBggrBgEFBQcDATAMBgNVHRMBAf8EAjAA
MA4GA1UdIwQHMAWAAwECAzBiBggrBgEFBQcBAQRWMFQwIQYIKwYBBQUHMAGGFWh0
dHA6Ly90aGVjYS5uZXQvb2NzcDAvBggrBgEFBQcwAoYjaHR0cDovL3RoZWNhLm5l
dC90b3RhbGx5dGhlY2VydC5jcnQwEwYDVR0gBAwwCjAIBgZngQwBAgIwDQYDVR0O
BAYEBAQDAgEwKwYDVR0RBCQwIoIIKi5nb3YudXOCBmdvdi51c4YOd3d3Lmdvb2ds
ZS5jb20wCwYJKoZIhvcNAQELA4IBAQAbl0Htb8tW9yoZt6lasMxxfJx52hVu4Nx8
DgphlRt48+ZCtY5vLTOr04voyyBEfpjKPOs6KQw26vNhLdF28uOnJIHrgKTHcDk6
NsC1GJGeyw28v5WXOLVJkun4ycHvrI22/9MuLeuocgFiOdUbu18KL8aw1ArvKdSu
AOqeGIl+qK4FzyUHviXL3Uocx7Gjn9QsfOqFONWN6dn6JyZ+w9U6/AtVMJr0WQ4g
Yuj6gSZuF+G4pRW3HswFvFyiS+Q3C+D0Wd0zxXzuxu++RiGU5D/rpw9zGDKRkKte
tsfZbm/XlyemrQan2/5uPVvI9zy0wYu3Z0yFCh532DngiGT3YU8B
-----END CERTIFICATE-----
