Certificate:
    Data:
        Version: 3 (0x2)
        Serial Number: 18008675309 (0x4316693ed)
    Signature Algorithm: sha256WithRSAEncryption
        Issuer: C = US, O = Mother Nature, OU = Everything, CN = Mother Nature
        Validity
            Not Before: Aug 25 20:02:30 2016 GMT
            Not After : Nov  6 21:02:30 2016 GMT
        Subject: C = US, O = Extreme Discord, OU = Chaos, L = Tallahassee, ST = FL, street = 3210 Holly Mill Run, postalCode = 30062, CN = gov.us
        Subject Public Key Info:
            Public Key Algorithm: rsaEncryption
                Public-Key: (2048 bit)
                Modulus:
                    00:a7:a5:07:f5:53:f6:b2:8b:ca:4d:03:a7:1a:51:
                    56:4e:61:f5:c5:ea:70:9a:49:0f:25:b1:17:d4:31:
                    cc:86:fc:0f:9f:2f:1b:20:14:39:ca:1e:95:11:4a:
                    05:f6:0f:f9:91:26:10:35:0b:4b:a8:dd:90:06:c6:
                    e6:76:f4:6c:a3:68:87:69:fc:fe:ac:85:e7:a3:2e:
                    04:c1:b1:6a:e0:71:3e:34:88:26:21:1d:c2:12:68:
                    db:9e:35:8b:3f:fb:0b:a0:0a:d7:09:5c:b4:c5:79:
                    5d:e3:46:1f:bc:cb:86:8e:a0:50:90:d1:75:5a:f4:
                    c8:ac:e1:fb:10:27:6a:2f:31:c1:cd:91:bc:39:17:
                    c3:fd:76:a9:29:8a:33:a0:6d:cd:53:1f:7f:01:d9:
                    14:fb:4e:88:18:0c:dc:05:e9:ef:df:5b:75:2b:a4:
                    d5:1c:6e:2a:dd:e5:c7:70:17:0f:6c:75:19:68:b7:
                    06:37:9f:e7:22:c7:95:74:fa:e9:9e:49:1e:dc:f9:
                    3d:b6:8e:7b:20:7c:28:39:fb:c5:60:29:22:3b:b2:
                    49:02:2f:d0:d4:fb:cc:74:03:19:4a:81:e9:f0:7d:
                    c8:48:1f:b4:ac:f7:ae:f0:63:2a:90:76:47:2f:2f:
                    b1:f6:0b:2b:00:ac:45:2f:2b:2b:9e:d2:c7:fa:4a:
                    3b:bd
                Exponent: 65537 (0x10001)
        X509v3 extensions:
            X509v3 Key Usage: critical
                Digital Signature, Key Encipherment
            X509v3 Extended Key Usage: 
                TLS Web Client Authentication, TLS Web Server Authentication
            X509v3 Basic Constraints: critical
                CA:FALSE
            X509v3 Authority Key Identifier: 
                keyid:01:02:03

            Authority Information Access: 
                OCSP - URI:http://theca.net/ocsp
                CA Issuers - URI:http://theca.net/totallythecert.crt

            X509v3 Certificate Policies: 
                Policy: 2.23.140.1.2.2

            X509v3 Subject Key Identifier: 
                04:03:02:01
            X509v3 Subject Alternative Name: 
                DNS:*.gov.us, DNS:gov.us, URI:https://www.google.com
    Signature Algorithm: sha256WithRSAEncryption
         16:fc:bb:7d:00:e1:63:95:b3:2d:1a:d6:be:ff:a2:2b:dd:66:
         81:4a:5f:7f:0f:ca:38:6f:8c:e4:7c:02:17:d9:da:6a:b1:d1:
         9a:af:2d:cc:2e:30:4a:b2:19:7a:aa:6e:1d:a9:a3:b0:90:73:
         4d:87:42:6e:d8:2f:cb:c2:79:9b:4d:91:49:f6:7f:7b:6a:0c:
         c6:d5:64:37:6e:39:18:5d:e7:7a:f5:d9:99:c2:62:f3:f7:8e:
         59:df:4c:16:b1:4b:7b:ac:fc:ce:77:64:45:3f:32:57:3f:8c:
         51:98:a5:ae:38:c3:51:49:02:61:3b:65:af:a7:9c:03:b3:5b:
         66:a6:44:45:c1:fb:da:30:43:92:65:dc:ce:7f:5d:02:d6:29:
         cb:7e:16:c2:69:82:cc:a9:87:18:37:9b:0a:0f:0e:5d:a7:2e:
         f2:75:98:c9:1b:cd:fd:80:f1:48:38:45:56:25:a1:17:8b:f3:
         65:9c:27:7e:b3:49:8e:ee:fe:a9:09:af:d6:51:63:12:39:29:
         28:f1:eb:ee:a3:74:97:08:4e:a9:4c:7e:11:60:9e:2f:db:34:
         d7:6e:aa:09:02:24:30:72:82:14:d9:3a:10:f7:c2:d3:30:33:
         6e:19:56:96:8e:d4:b4:3f:e4:7c:c9:1b:ca:81:7e:4c:fa:53:
         76:35:4b:51
-----BEGIN CERTIFICATE-----
MIIEezCCA2WgAwIBAgIFBDFmk+0wCwYJKoZIhvcNAQELMFQxCzAJBgNVBAYTAlVT
MRYwFAYDVQQKEw1Nb3RoZXIgTmF0dXJlMRMwEQYDVQQLEwpFdmVyeXRoaW5nMRYw
FAYDVQQDEw1Nb3RoZXIgTmF0dXJlMQAwHhcNMTYwODI1MjAwMjMwWhcNMTYxMTA2
MjEwMjMwWjCBmzELMAkGA1UEBhMCVVMxGDAWBgNVBAoTD0V4dHJlbWUgRGlzY29y
ZDEOMAwGA1UECxMFQ2hhb3MxFDASBgNVBAcTC1RhbGxhaGFzc2VlMQswCQYDVQQI
EwJGTDEcMBoGA1UECRMTMzIxMCBIb2xseSBNaWxsIFJ1bjEOMAwGA1UEERMFMzAw
NjIxDzANBgNVBAMTBmdvdi51czEAMIIBIjANBgkqhkiG9w0BAQEFAAOCAQ8AMIIB
CgKCAQEAp6UH9VP2sovKTQOnGlFWTmH1xepwmkkPJbEX1DHMhvwPny8bIBQ5yh6V
EUoF9g/5kSYQNQtLqN2QBsbmdvRso2iHafz+rIXnoy4EwbFq4HE+NIgmIR3CEmjb
njWLP/sLoArXCVy0xXld40YfvMuGjqBQkNF1WvTIrOH7ECdqLzHBzZG8ORfD/Xap
KYozoG3NUx9/AdkU+06IGAzcBenv31t1K6TVHG4q3eXHcBcPbHUZaLcGN5/nIseV
dPrpnkke3Pk9to57IHwoOfvFYCkiO7JJAi/Q1PvMdAMZSoHp8H3ISB+0rPeu8GMq
kHZHLy+x9gsrAKxFLysrntLH+ko7vQIDAQABo4IBDjCCAQowDgYDVR0PAQH/BAQD
AgCgMB0GA1UdJQQWMBQGCCsGAQUFBwMCBggrBgEFBQcDATAMBgNVHRMBAf8EAjAA
MA4GA1UdIwQHMAWAAwECAzBiBggrBgEFBQcBAQRWMFQwIQYIKwYBBQUHMAGGFWh0
dHA6Ly90aGVjYS5uZXQvb2NzcDAvBggrBgEFBQcwAoYjaHR0cDovL3RoZWNhLm5l
dC90b3RhbGx5dGhlY2VydC5jcnQwEwYDVR0gBAwwCjAIBgZngQwBAgIwDQYDVR0O
BAYEBAQDAgEwMwYDVR0RBCwwKoIIKi5nb3YudXOCBmdvdi51c4YWaHR0cHM6Ly93
d3cuZ29vZ2xlLmNvbTALBgkqhkiG9w0BAQsDggEBABb8u30A4WOVsy0a1r7/oivd
ZoFKX38PyjhvjOR8AhfZ2mqx0ZqvLcwuMEqyGXqqbh2po7CQc02HQm7YL8vCeZtN
kUn2f3tqDMbVZDduORhd53r12ZnCYvP3jlnfTBaxS3us/M53ZEU/Mlc/jFGYpa44
w1FJAmE7Za+nnAOzW2amREXB+9owQ5Jl3M5/XQLWKct+FsJpgsyphxg3mwoPDl2n
LvJ1mMkbzf2A8Ug4RVYloReL82WcJ36zSY7u/qkJr9ZRYxI5KSjx6+6jdJcITqlM
fhFgni/bNNduqgkCJDByghTZOhD3wtMwM24ZVpaO1LQ/5HzJG8qBfkz6U3Y1S1E=
-----END CERTIFICATE-----
