Certificate:
    Data:
        Version: 3 (0x2)
        Serial Number: 18008675309 (0x4316693ed)
    Signature Algorithm: sha256WithRSAEncryption
        Issuer: C = US, O = Mother Nature, OU = Everything, CN = Mother Nature
        Validity
            Not Before: Mar 17 22:31:52 2017 GMT
            Not After : May 29 22:31:52 2017 GMT
        Subject: C = US, O = Extreme Discord, OU = Chaos, L = Tallahassee, ST = FL, street = 3210 Holly Mill Run, postalCode = 30062, CN = gov.us
        Subject Public Key Info:
            Public Key Algorithm: rsaEncryption
                Public-Key: (2048 bit)
                Modulus:
                    00:ab:42:39:fa:13:93:77:e4:80:d7:97:3e:92:ef:
                    f1:b1:68:dc:cb:0e:b9:06:44:52:21:85:c3:f3:a9:
                    aa:3f:18:75:19:cc:30:d7:23:66:9b:5a:6b:f4:26:
                    43:8c:ec:40:06:39:6a:5d:0f:09:df:d4:6e:75:cb:
                    41:36:07:94:88:e9:69:11:4e:12:81:44:37:67:5f:
                    cd:6e:2d:ce:93:0a:52:22:a9:1e:c5:02:f7:89:6a:
                    bd:9e:9c:1b:39:6d:66:51:2c:a1:fe:57:77:84:79:
                    7f:e6:f1:cb:30:f9:31:de:62:37:93:41:41:d4:22:
                    e5:9e:80:94:5b:42:ff:4d:95:7f:28:8e:59:83:a8:
                    8a:80:1e:74:2a:e3:4c:1c:75:be:e9:40:82:40:0f:
                    af:50:5b:a0:26:9a:33:ac:0c:fd:aa:5c:68:0a:de:
                    90:00:1d:64:c7:0a:dd:38:a4:04:1b:89:81:c4:16:
                    af:21:37:35:5b:7f:2d:b0:0f:1a:f0:47:ec:33:99:
                    97:ba:11:46:2a:92:15:26:db:eb:0d:e0:11:22:f4:
                    01:f1:2e:34:92:b3:ec:b4:e4:86:0d:7a:ec:1a:dd:
                    3d:62:27:1d:fc:2d:8b:ea:3d:22:35:f9:b3:f9:2f:
                    bb:c3:ef:75:ee:e1:a7:78:30:7f:6c:44:f0:08:0a:
                    84:41
                Exponent: 65537 (0x10001)
        X509v3 extensions:
            X509v3 Key Usage: critical
                Digital Signature, Key Encipherment
            X509v3 Extended Key Usage: 
                TLS Web Client Authentication, TLS Web Server Authentication
            X509v3 Basic Constraints: critical
                CA:FALSE
            X509v3 Authority Key Identifier: 
                keyid:01:02:03

            Authority Information Access: 
                OCSP - URI:http://theca.net/ocsp
                CA Issuers - URI:http://theca.net/totallythecert.crt

            X509v3 Subject Alternative Name: 
                DNS:*.example.com, URI:test//user@*:1337/test
            X509v3 Issuer Alternative Name: 
                URI:test//user@*.example.com:1337/test
            X509v3 Certificate Policies: 
                Policy: 2.23.140.1.2.2

    Signature Algorithm: sha256WithRSAEncryption
         7e:65:86:d0:7b:c4:e6:27:3a:89:9c:25:5f:56:6b:25:4d:0c:
         05:8d:90:ea:32:ef:4a:ea:71:8f:de:ff:a6:9a:1c:bc:07:c5:
         9d:4a:1f:b3:5c:69:b1:a3:12:a5:fd:7d:dd:de:0e:f5:84:11:
         6f:4f:7d:81:28:7f:b9:c8:85:1c:74:3f:dc:6b:a9:d9:3b:a1:
         43:47:d4:fd:dd:fe:f9:af:60:61:4d:18:85:cc:18:0d:61:a8:
         b5:3c:43:e3:c3:3f:34:73:30:2a:86:05:41:c3:b6:23:5d:c5:
         3d:d2:e7:4e:59:f5:5a:b8:1c:5e:c7:98:ef:11:59:e7:a2:dd:
         30:be:d0:ec:21:d2:25:89:55:db:e7:60:80:6a:a5:88:24:1d:
         14:16:04:1d:93:8f:82:32:32:e2:c0:03:ff:7e:74:52:8a:48:
         4b:39:f7:12:ac:2c:48:1c:dd:4a:6a:c5:d5:ae:b0:2e:ad:b5:
         98:4b:72:13:90:65:c6:93:ea:01:80:6f:73:56:d4:f7:5f:39:
         59:a4:05:f7:75:cf:bb:99:92:67:99:80:9f:fe:f1:75:d1:c4:
         60:58:5a:93:40:56:21:39:cd:4d:ff:4e:72:f6:53:d7:70:d5:
         e2:80:5a:7c:42:da:14:92:44:c0:e6:14:8a:c8:64:23:f4:1b:
         dc:73:b7:a3
-----BEGIN CERTIFICATE-----
MIIEmDCCA4KgAwIBAgIFBDFmk+0wCwYJKoZIhvcNAQELMFQxCzAJBgNVBAYTAlVT
MRYwFAYDVQQKEw1Nb3RoZXIgTmF0dXJlMRMwEQYDVQQLEwpFdmVyeXRoaW5nMRYw
FAYDVQQDEw1Nb3RoZXIgTmF0dXJlMQAwHhcNMTcwMzE3MjIzMTUyWhcNMTcwNTI5
MjIzMTUyWjCBmzELMAkGA1UEBhMCVVMxGDAWBgNVBAoTD0V4dHJlbWUgRGlzY29y
ZDEOMAwGA1UECxMFQ2hhb3MxFDASBgNVBAcTC1RhbGxhaGFzc2VlMQswCQYDVQQI
EwJGTDEcMBoGA1UECRMTMzIxMCBIb2xseSBNaWxsIFJ1bjEOMAwGA1UEERMFMzAw
NjIxDzANBgNVBAMTBmdvdi51czEAMIIBIjANBgkqhkiG9w0BAQEFAAOCAQ8AMIIB
CgKCAQEAq0I5+hOTd+SA15c+ku/xsWjcyw65BkRSIYXD86mqPxh1Gcww1yNmm1pr
9CZDjOxABjlqXQ8J39RudctBNgeUiOlpEU4SgUQ3Z1/Nbi3OkwpSIqkexQL3iWq9
npwbOW1mUSyh/ld3hHl/5vHLMPkx3mI3k0FB1CLlnoCUW0L/TZV/KI5Zg6iKgB50
KuNMHHW+6UCCQA+vUFugJpozrAz9qlxoCt6QAB1kxwrdOKQEG4mBxBavITc1W38t
sA8a8EfsM5mXuhFGKpIVJtvrDeARIvQB8S40krPstOSGDXrsGt09Yicd/C2L6j0i
Nfmz+S+7w+917uGneDB/bETwCAqEQQIDAQABo4IBKzCCAScwDgYDVR0PAQH/BAQD
AgCgMB0GA1UdJQQWMBQGCCsGAQUFBwMCBggrBgEFBQcDATAMBgNVHRMBAf8EAjAA
MA4GA1UdIwQHMAWAAwECAzBiBggrBgEFBQcBAQRWMFQwIQYIKwYBBQUHMAGGFWh0
dHA6Ly90aGVjYS5uZXQvb2NzcDAvBggrBgEFBQcwAoYjaHR0cDovL3RoZWNhLm5l
dC90b3RhbGx5dGhlY2VydC5jcnQwMAYDVR0RBCkwJ4INKi5leGFtcGxlLmNvbYYW
dGVzdC8vdXNlckAqOjEzMzcvdGVzdDAtBgNVHRIEJjAkhiJ0ZXN0Ly91c2VyQCou
ZXhhbXBsZS5jb206MTMzNy90ZXN0MBMGA1UdIAQMMAowCAYGZ4EMAQICMAsGCSqG
SIb3DQEBCwOCAQEAfmWG0HvE5ic6iZwlX1ZrJU0MBY2Q6jLvSupxj97/ppocvAfF
nUofs1xpsaMSpf193d4O9YQRb099gSh/uciFHHQ/3Gup2TuhQ0fU/d3++a9gYU0Y
hcwYDWGotTxD48M/NHMwKoYFQcO2I13FPdLnTln1WrgcXseY7xFZ56LdML7Q7CHS
JYlV2+dggGqliCQdFBYEHZOPgjIy4sAD/350UopISzn3EqwsSBzdSmrF1a6wLq21
mEtyE5BlxpPqAYBvc1bU9185WaQF93XPu5mSZ5mAn/7xddHEYFhak0BWITnNTf9O
cvZT13DV4oBafELaFJJEwOYUishkI/Qb3HO3ow==
-----END CERTIFICATE-----
