Certificate:
    Data:
        Version: 3 (0x2)
        Serial Number: 18008675309 (0x4316693ed)
    Signature Algorithm: sha256WithRSAEncryption
        Issuer: C = US, O = Mother Nature, OU = Everything, CN = Mother Nature
        Validity
            Not Before: Mar 17 22:29:18 2017 GMT
            Not After : May 29 22:29:18 2017 GMT
        Subject: C = US, O = Extreme Discord, OU = Chaos, L = Tallahassee, ST = FL, street = 3210 Holly Mill Run, postalCode = 30062, CN = gov.us
        Subject Public Key Info:
            Public Key Algorithm: rsaEncryption
                Public-Key: (2048 bit)
                Modulus:
                    00:c5:f2:c0:c7:62:e1:d5:0c:a5:10:4a:6c:48:da:
                    da:2f:15:18:fe:38:1b:8c:37:9e:29:c6:46:ea:b8:
                    50:fd:dc:22:29:61:88:61:7f:02:f7:a4:14:0e:06:
                    cd:ba:5b:46:27:35:7f:a6:2e:eb:11:6e:de:c3:28:
                    cd:a1:16:a2:8a:f3:35:5e:58:48:2e:d7:95:9e:23:
                    b7:5e:6a:4f:f9:56:1a:d7:8b:51:88:19:71:c8:82:
                    1c:26:9f:b7:63:ae:9b:73:21:36:6a:4e:a5:a7:81:
                    52:3e:f2:f1:24:76:89:82:82:66:1d:25:47:b3:63:
                    f6:7e:9e:e4:75:3c:29:08:2a:24:af:e9:89:be:00:
                    22:31:59:1b:ff:db:91:06:f0:99:64:86:d7:9d:59:
                    0c:de:a7:66:bd:a7:5f:e4:1b:32:e1:b7:93:2d:3e:
                    1e:70:5e:1f:85:1c:95:8f:25:da:8d:e3:a6:97:7f:
                    90:eb:48:e6:1b:1e:c3:d9:a6:ee:31:5e:cf:65:38:
                    99:0a:db:09:10:15:37:71:3b:63:86:52:45:2f:8b:
                    d7:8e:f0:4a:c2:ad:f8:8a:f3:95:5b:79:53:25:6c:
                    f5:92:12:67:13:6a:1c:2f:f1:35:06:75:d2:f8:0e:
                    a0:39:2b:9e:b8:ea:e9:86:de:44:9d:b4:a9:68:65:
                    4d:a7
                Exponent: 65537 (0x10001)
        X509v3 extensions:
            X509v3 Key Usage: critical
                Digital Signature, Key Encipherment
            X509v3 Extended Key Usage: 
                TLS Web Client Authentication, TLS Web Server Authentication
            X509v3 Basic Constraints: critical
                CA:FALSE
            X509v3 Authority Key Identifier: 
                keyid:01:02:03

            Authority Information Access: 
                OCSP - URI:http://theca.net/ocsp
                CA Issuers - URI:http://theca.net/totallythecert.crt

            X509v3 Subject Alternative Name: 
                DNS:*.example.com, URI:test//user@*.example.com:1337/test
            X509v3 Issuer Alternative Name: 
                URI:test//user@*.example.com:1337/test
            X509v3 Certificate Policies: 
                Policy: 2.23.140.1.2.2

    Signature Algorithm: sha256WithRSAEncryption
         1e:0e:b4:90:c6:ee:31:39:11:b7:24:38:2d:af:68:d8:28:be:
         01:6a:40:a7:95:c9:3b:32:cd:c1:dd:3d:d9:63:4b:a0:d8:bb:
         87:cc:37:02:51:83:4e:29:07:1f:b8:e1:7b:8f:4f:f5:cc:39:
         f3:32:7d:c8:4c:ff:0f:f5:b3:cd:3b:9c:04:f2:8a:3f:18:44:
         88:9b:3a:12:14:70:cd:ab:f9:21:f7:f3:20:79:65:35:5f:42:
         42:3c:83:7d:12:e0:c1:bc:ff:b0:23:68:e9:c8:4f:95:c4:83:
         90:38:2c:5b:c2:cb:99:c5:d8:62:c9:6d:14:12:79:7e:9d:ed:
         f5:c1:a2:01:95:95:48:c6:c8:c0:81:0d:0e:85:6a:03:e4:ed:
         51:34:3c:91:22:29:56:16:70:6b:3c:09:c6:4b:31:31:70:8b:
         06:fb:83:77:fe:ea:c9:08:56:69:f3:0e:c6:3c:22:f6:f0:24:
         bc:c7:c4:58:27:56:53:89:5c:5c:9a:7c:4c:9d:f8:9a:9c:7b:
         c5:77:f6:ad:50:cb:12:6a:4c:4a:f1:6a:fa:a8:dc:c0:f0:23:
         23:31:9d:fd:01:bc:24:2c:be:6a:bd:a8:a9:57:53:b5:cf:5e:
         13:30:b1:0d:32:f9:ec:4c:5f:c5:a1:fd:20:6d:13:1d:75:08:
         1c:c2:72:5e
-----BEGIN CERTIFICATE-----
MIIEpDCCA46gAwIBAgIFBDFmk+0wCwYJKoZIhvcNAQELMFQxCzAJBgNVBAYTAlVT
MRYwFAYDVQQKEw1Nb3RoZXIgTmF0dXJlMRMwEQYDVQQLEwpFdmVyeXRoaW5nMRYw
FAYDVQQDEw1Nb3RoZXIgTmF0dXJlMQAwHhcNMTcwMzE3MjIyOTE4WhcNMTcwNTI5
MjIyOTE4WjCBmzELMAkGA1UEBhMCVVMxGDAWBgNVBAoTD0V4dHJlbWUgRGlzY29y
ZDEOMAwGA1UECxMFQ2hhb3MxFDASBgNVBAcTC1RhbGxhaGFzc2VlMQswCQYDVQQI
EwJGTDEcMBoGA1UECRMTMzIxMCBIb2xseSBNaWxsIFJ1bjEOMAwGA1UEERMFMzAw
NjIxDzANBgNVBAMTBmdvdi51czEAMIIBIjANBgkqhkiG9w0BAQEFAAOCAQ8AMIIB
CgKCAQEAxfLAx2Lh1QylEEpsSNraLxUY/jgbjDeeKcZG6rhQ/dwiKWGIYX8C96QU
DgbNultGJzV/pi7rEW7ewyjNoRaiivM1XlhILteVniO3XmpP+VYa14tRiBlxyIIc
Jp+3Y66bcyE2ak6lp4FSPvLxJHaJgoJmHSVHs2P2fp7kdTwpCCokr+mJvgAiMVkb
/9uRBvCZZIbXnVkM3qdmvadf5Bsy4beTLT4ecF4fhRyVjyXajeOml3+Q60jmGx7D
2abuMV7PZTiZCtsJEBU3cTtjhlJFL4vXjvBKwq34ivOVW3lTJWz1khJnE2ocL/E1
BnXS+A6gOSueuOrpht5EnbSpaGVNpwIDAQABo4IBNzCCATMwDgYDVR0PAQH/BAQD
AgCgMB0GA1UdJQQWMBQGCCsGAQUFBwMCBggrBgEFBQcDATAMBgNVHRMBAf8EAjAA
MA4GA1UdIwQHMAWAAwECAzBiBggrBgEFBQcBAQRWMFQwIQYIKwYBBQUHMAGGFWh0
dHA6Ly90aGVjYS5uZXQvb2NzcDAvBggrBgEFBQcwAoYjaHR0cDovL3RoZWNhLm5l
dC90b3RhbGx5dGhlY2VydC5jcnQwPAYDVR0RBDUwM4INKi5leGFtcGxlLmNvbYYi
dGVzdC8vdXNlckAqLmV4YW1wbGUuY29tOjEzMzcvdGVzdDAtBgNVHRIEJjAkhiJ0
ZXN0Ly91c2VyQCouZXhhbXBsZS5jb206MTMzNy90ZXN0MBMGA1UdIAQMMAowCAYG
Z4EMAQICMAsGCSqGSIb3DQEBCwOCAQEAHg60kMbuMTkRtyQ4La9o2Ci+AWpAp5XJ
OzLNwd092WNLoNi7h8w3AlGDTikHH7jhe49P9cw58zJ9yEz/D/WzzTucBPKKPxhE
iJs6EhRwzav5IffzIHllNV9CQjyDfRLgwbz/sCNo6chPlcSDkDgsW8LLmcXYYslt
FBJ5fp3t9cGiAZWVSMbIwIENDoVqA+TtUTQ8kSIpVhZwazwJxksxMXCLBvuDd/7q
yQhWafMOxjwi9vAkvMfEWCdWU4lcXJp8TJ34mpx7xXf2rVDLEmpMSvFq+qjcwPAj
IzGd/QG8JCy+ar2oqVdTtc9eEzCxDTL57ExfxaH9IG0THXUIHMJyXg==
-----END CERTIFICATE-----
