Certificate:
    Data:
        Version: 3 (0x2)
        Serial Number: 18008675309 (0x4316693ed)
    Signature Algorithm: sha256WithRSAEncryption
        Issuer: C = US, O = Mother Nature, OU = Everything, CN = Mother Nature
        Validity
            Not Before: Aug 25 20:00:33 2016 GMT
            Not After : Nov  6 21:00:33 2016 GMT
        Subject: C = US, O = Extreme Discord, OU = Chaos, L = Tallahassee, ST = FL, street = 3210 Holly Mill Run, postalCode = 30062, CN = gov.us
        Subject Public Key Info:
            Public Key Algorithm: rsaEncryption
                Public-Key: (2048 bit)
                Modulus:
                    00:e4:9d:1e:ac:f1:23:90:ff:52:7e:d6:42:df:a6:
                    9c:a4:1a:16:24:72:c9:c1:e6:5c:cc:6e:b2:fd:be:
                    ee:0b:cf:66:20:e9:50:94:ab:4e:90:cb:d7:bb:42:
                    81:68:7e:fc:cc:47:57:73:a7:bc:57:50:c9:97:b6:
                    36:3b:da:70:4f:c7:2f:48:69:11:1e:bd:22:e1:f1:
                    33:40:d4:06:c3:41:1b:9d:31:09:19:4d:8e:10:fe:
                    79:77:3c:ef:f9:a3:9c:f6:44:54:82:e5:02:5c:a8:
                    f5:72:5f:8e:0a:23:dd:f7:1a:13:e8:e0:6a:31:6e:
                    6e:43:33:dc:69:b4:b3:6b:8a:8e:b2:68:19:dc:b8:
                    a5:fe:5c:0f:19:b6:e1:68:8c:4f:e5:62:65:92:1c:
                    6f:e0:73:42:84:39:7b:55:b4:5a:01:07:f0:6a:4c:
                    4b:4d:c9:68:75:f0:f3:ff:e4:e7:45:4f:19:8c:53:
                    05:34:47:28:6b:04:d5:c9:6a:8f:b8:4a:b8:06:ce:
                    bf:f3:52:8e:42:44:74:5e:2b:e9:e9:63:7e:ca:f9:
                    79:ca:2d:6f:cf:88:30:49:7d:8f:25:e4:8c:fe:0d:
                    2c:56:2d:71:9d:23:59:54:24:e4:bd:2e:26:4b:c7:
                    1e:52:56:24:3d:9f:37:b3:eb:6a:bf:4b:b1:b0:1c:
                    3b:9d
                Exponent: 65537 (0x10001)
        X509v3 extensions:
            X509v3 Key Usage: critical
                Digital Signature, Key Encipherment
            X509v3 Extended Key Usage: 
                TLS Web Client Authentication, TLS Web Server Authentication
            X509v3 Basic Constraints: critical
                CA:FALSE
            X509v3 Authority Key Identifier: 
                keyid:01:02:03

            Authority Information Access: 
                OCSP - URI:http://theca.net/ocsp
                CA Issuers - URI:http://theca.net/totallythecert.crt

            X509v3 Certificate Policies: 
                Policy: 2.23.140.1.2.2

            X509v3 Subject Key Identifier: 
                04:03:02:01
            X509v3 Subject Alternative Name: 
                DNS:*.gov.us, DNS:gov.us, URI:https://
    Signature Algorithm: sha256WithRSAEncryption
         b6:e1:35:ea:cf:95:d1:fd:58:97:ef:6d:6d:55:cf:d6:a2:12:
         f3:d0:19:9a:31:ec:09:1d:9f:0c:4a:6b:72:b2:4f:8e:ad:d8:
         cc:7c:4c:4b:ba:b9:f5:47:82:f3:b7:c3:ae:70:d0:b5:c6:6d:
         56:7a:21:70:e6:0f:71:bd:c2:14:d9:0b:9c:d1:08:6d:4f:bf:
         d1:36:d0:2f:f4:2c:bc:15:ab:3d:bb:13:a1:78:a0:98:1d:70:
         69:ed:0a:89:34:39:b0:9a:35:82:63:16:41:1e:03:e5:3d:74:
         4f:86:e2:82:30:a5:ee:8b:4c:74:c7:ef:6d:81:57:ca:62:9a:
         ab:17:d9:a7:e9:34:0b:46:83:03:f5:99:cb:36:3c:82:40:84:
         96:e3:c7:25:3f:bb:72:d5:ac:50:1a:8e:b8:83:94:bd:f7:b4:
         17:40:52:3c:c4:7b:02:ba:2e:ac:ac:1b:6c:82:95:f3:0b:e7:
         5c:03:2a:99:a4:c4:f4:f2:17:be:ab:f3:a1:26:ee:93:a9:59:
         dd:f4:8a:9b:f4:ad:36:56:1f:ac:b6:16:1f:eb:a3:4c:c4:af:
         cc:45:1c:a6:26:0c:12:d4:76:41:0b:b7:86:a7:35:bb:a9:33:
         76:0f:37:26:73:63:e6:6f:a8:50:b1:b9:1b:7b:d0:1e:a8:cd:
         a6:48:46:f4
-----BEGIN CERTIFICATE-----
MIIEazCCA1WgAwIBAgIFBDFmk+0wCwYJKoZIhvcNAQELMFQxCzAJBgNVBAYTAlVT
MRYwFAYDVQQKEw1Nb3RoZXIgTmF0dXJlMRMwEQYDVQQLEwpFdmVyeXRoaW5nMRYw
FAYDVQQDEw1Nb3RoZXIgTmF0dXJlMQAwHhcNMTYwODI1MjAwMDMzWhcNMTYxMTA2
MjEwMDMzWjCBmzELMAkGA1UEBhMCVVMxGDAWBgNVBAoTD0V4dHJlbWUgRGlzY29y
ZDEOMAwGA1UECxMFQ2hhb3MxFDASBgNVBAcTC1RhbGxhaGFzc2VlMQswCQYDVQQI
EwJGTDEcMBoGA1UECRMTMzIxMCBIb2xseSBNaWxsIFJ1bjEOMAwGA1UEERMFMzAw
NjIxDzANBgNVBAMTBmdvdi51czEAMIIBIjANBgkqhkiG9w0BAQEFAAOCAQ8AMIIB
CgKCAQEA5J0erPEjkP9SftZC36acpBoWJHLJweZczG6y/b7uC89mIOlQlKtOkMvX
u0KBaH78zEdXc6e8V1DJl7Y2O9pwT8cvSGkRHr0i4fEzQNQGw0EbnTEJGU2OEP55
dzzv+aOc9kRUguUCXKj1cl+OCiPd9xoT6OBqMW5uQzPcabSza4qOsmgZ3Lil/lwP
GbbhaIxP5WJlkhxv4HNChDl7VbRaAQfwakxLTclodfDz/+TnRU8ZjFMFNEcoawTV
yWqPuEq4Bs6/81KOQkR0Xivp6WN+yvl5yi1vz4gwSX2PJeSM/g0sVi1xnSNZVCTk
vS4mS8ceUlYkPZ83s+tqv0uxsBw7nQIDAQABo4H/MIH8MA4GA1UdDwEB/wQEAwIA
oDAdBgNVHSUEFjAUBggrBgEFBQcDAgYIKwYBBQUHAwEwDAYDVR0TAQH/BAIwADAO
BgNVHSMEBzAFgAMBAgMwYgYIKwYBBQUHAQEEVjBUMCEGCCsGAQUFBzABhhVodHRw
Oi8vdGhlY2EubmV0L29jc3AwLwYIKwYBBQUHMAKGI2h0dHA6Ly90aGVjYS5uZXQv
dG90YWxseXRoZWNlcnQuY3J0MBMGA1UdIAQMMAowCAYGZ4EMAQICMA0GA1UdDgQG
BAQEAwIBMCUGA1UdEQQeMByCCCouZ292LnVzggZnb3YudXOGCGh0dHBzOi8vMAsG
CSqGSIb3DQEBCwOCAQEAtuE16s+V0f1Yl+9tbVXP1qIS89AZmjHsCR2fDEprcrJP
jq3YzHxMS7q59UeC87fDrnDQtcZtVnohcOYPcb3CFNkLnNEIbU+/0TbQL/QsvBWr
PbsToXigmB1wae0KiTQ5sJo1gmMWQR4D5T10T4bigjCl7otMdMfvbYFXymKaqxfZ
p+k0C0aDA/WZyzY8gkCEluPHJT+7ctWsUBqOuIOUvfe0F0BSPMR7ArourKwbbIKV
8wvnXAMqmaTE9PIXvqvzoSbuk6lZ3fSKm/StNlYfrLYWH+ujTMSvzEUcpiYMEtR2
QQu3hqc1u6kzdg83JnNj5m+oULG5G3vQHqjNpkhG9A==
-----END CERTIFICATE-----
