Certificate:
    Data:
        Version: 3 (0x2)
        Serial Number: 18008675309 (0x4316693ed)
    Signature Algorithm: sha256WithRSAEncryption
        Issuer: C = US, O = Mother Nature, OU = Everything, CN = Mother Nature
        Validity
            Not Before: Jan  1 00:00:00 2010 GMT
            Not After : Jan  1 00:00:00 2013 GMT
        Subject: C = US, O = Extreme Discord, OU = Chaos, L = Tallahassee, ST = FL, street = 3210 Holly Mill Run, postalCode = 30062, CN = gov.us
        Subject Public Key Info:
            Public Key Algorithm: rsaEncryption
                Public-Key: (512 bit)
                Modulus:
                    00:bf:4a:7e:28:d5:ee:a5:48:22:2f:a8:5a:55:02:
                    fd:14:6b:3b:63:e7:88:01:8e:a7:1c:33:84:be:3b:
                    ed:74:77:f9:81:d5:4e:36:1c:15:1f:13:2c:ed:3f:
                    0e:50:0b:a2:d8:e8:03:29:19:03:5e:d8:ac:d8:4c:
                    94:aa:5b:a8:11
                Exponent: 65537 (0x10001)
        X509v3 extensions:
            X509v3 Key Usage: critical
                Digital Signature, Key Encipherment
            X509v3 Extended Key Usage: 
                TLS Web Client Authentication, TLS Web Server Authentication
            X509v3 Basic Constraints: critical
                CA:TRUE
            X509v3 Authority Key Identifier: 
                keyid:01:02:03

            Authority Information Access: 
                OCSP - URI:http://theca.net/ocsp
                CA Issuers - URI:http://theca.net/totallythecert.crt

            X509v3 Certificate Policies: 
                Policy: 2.23.140.1.2.2

            X509v3 Subject Key Identifier: 
                04:03:02:01
            X509v3 Subject Alternative Name: 
                email:example@example.com(comments), DNS:gov.us
            X509v3 Inhibit Any Policy: 
                ..
    Signature Algorithm: sha256WithRSAEncryption
         a5:61:62:75:7d:11:9e:8c:3a:6b:e8:fe:67:50:d3:22:46:38:
         62:11:0e:85:dc:3b:6b:1a:ec:c3:4a:c6:d8:78:cc:5a:f3:fe:
         36:37:fe:f1:17:fc:c6:78:ec:b5:6b:3a:19:99:62:21:ee:84:
         7b:9a:fb:42:3b:d9:2f:58:e6:49
-----BEGIN CERTIFICATE-----
MIIC/DCCAqagAwIBAgIFBDFmk+0wDQYJKoZIhvcNAQELBQAwUjELMAkGA1UEBhMC
VVMxFjAUBgNVBAoTDU1vdGhlciBOYXR1cmUxEzARBgNVBAsTCkV2ZXJ5dGhpbmcx
FjAUBgNVBAMTDU1vdGhlciBOYXR1cmUwHhcNMTAwMTAxMDAwMDAwWhcNMTMwMTAx
MDAwMDAwWjCBmTELMAkGA1UEBhMCVVMxGDAWBgNVBAoTD0V4dHJlbWUgRGlzY29y
ZDEOMAwGA1UECxMFQ2hhb3MxFDASBgNVBAcTC1RhbGxhaGFzc2VlMQswCQYDVQQI
EwJGTDEcMBoGA1UECRMTMzIxMCBIb2xseSBNaWxsIFJ1bjEOMAwGA1UEERMFMzAw
NjIxDzANBgNVBAMTBmdvdi51czBcMA0GCSqGSIb3DQEBAQUAA0sAMEgCQQC/Sn4o
1e6lSCIvqFpVAv0Uaztj54gBjqccM4S+O+10d/mB1U42HBUfEyztPw5QC6LY6AMp
GQNe2KzYTJSqW6gRAgMBAAGjggEZMIIBFTAOBgNVHQ8BAf8EBAMCBaAwHQYDVR0l
BBYwFAYIKwYBBQUHAwIGCCsGAQUFBwMBMA8GA1UdEwEB/wQFMAMBAf8wDgYDVR0j
BAcwBYADAQIDMGIGCCsGAQUFBwEBBFYwVDAhBggrBgEFBQcwAYYVaHR0cDovL3Ro
ZWNhLm5ldC9vY3NwMC8GCCsGAQUFBzAChiNodHRwOi8vdGhlY2EubmV0L3RvdGFs
bHl0aGVjZXJ0LmNydDATBgNVHSAEDDAKMAgGBmeBDAECAjANBgNVHQ4EBgQEBAMC
ATAwBgNVHREEKTAngR1leGFtcGxlQGV4YW1wbGUuY29tKGNvbW1lbnRzKYIGZ292
LnVzMAkGA1UdNgQCAgEwDQYJKoZIhvcNAQELBQADQQClYWJ1fRGejDpr6P5nUNMi
RjhiEQ6F3DtrGuzDSsbYeMxa8/42N/7xF/zGeOy1azoZmWIh7oR7mvtCO9kvWOZJ
-----END CERTIFICATE-----
