Certificate:
    Data:
        Version: 3 (0x2)
        Serial Number: 18008675309 (0x4316693ed)
    Signature Algorithm: sha256WithRSAEncryption
        Issuer: C = US, O = Mother Nature, OU = Everything, CN = Mother Nature
        Validity
            Not Before: Jan  1 00:00:00 2010 GMT
            Not After : Jan  1 00:00:00 2013 GMT
        Subject: C = US, O = Extreme Discord, OU = Chaos, L = Tallahassee, ST = FL, street = 3210 Holly Mill Run, postalCode = 30062, CN = gov.us
        Subject Public Key Info:
            Public Key Algorithm: rsaEncryption
                Public-Key: (512 bit)
                Modulus:
                    00:b4:f2:d4:6d:0c:4a:4d:6d:11:0e:08:b9:7a:0b:
                    c2:2a:f4:3b:a4:e9:a5:94:e1:a5:10:2c:13:7c:69:
                    dd:9c:0b:07:4d:e7:d5:5d:2a:9a:bc:ac:fc:97:b4:
                    6f:2c:6e:d9:de:e3:c2:aa:bd:4a:10:95:6b:7b:82:
                    b3:0c:5c:1a:b3
                Exponent: 65537 (0x10001)
        X509v3 extensions:
            X509v3 Key Usage: critical
                Digital Signature, Key Encipherment
            X509v3 Extended Key Usage: 
                TLS Web Client Authentication, TLS Web Server Authentication
            X509v3 Basic Constraints: critical
                CA:TRUE
            X509v3 Authority Key Identifier: 
                keyid:01:02:03

            Authority Information Access: 
                OCSP - URI:http://theca.net/ocsp
                CA Issuers - URI:http://theca.net/totallythecert.crt

            X509v3 Certificate Policies: 
                Policy: 2.23.140.1.2.2

            X509v3 Subject Key Identifier: 
                04:03:02:01
            X509v3 Subject Alternative Name: 
                email:example@example.com, DNS:gov.us
            X509v3 Inhibit Any Policy: 
                ..
    Signature Algorithm: sha256WithRSAEncryption
         14:2f:8d:eb:78:c8:79:38:ca:25:62:a5:f1:bd:53:a1:5d:90:
         0f:58:d0:ef:9b:67:c7:13:1a:48:c1:a2:3e:2d:4a:38:98:cd:
         d5:d1:83:d6:28:8d:c2:87:e8:73:d9:0d:4f:c6:9a:db:ba:bd:
         c5:49:c4:c8:1c:c3:00:1e:c3:b9
-----BEGIN CERTIFICATE-----
MIIC8jCCApygAwIBAgIFBDFmk+0wDQYJKoZIhvcNAQELBQAwUjELMAkGA1UEBhMC
VVMxFjAUBgNVBAoTDU1vdGhlciBOYXR1cmUxEzARBgNVBAsTCkV2ZXJ5dGhpbmcx
FjAUBgNVBAMTDU1vdGhlciBOYXR1cmUwHhcNMTAwMTAxMDAwMDAwWhcNMTMwMTAx
MDAwMDAwWjCBmTELMAkGA1UEBhMCVVMxGDAWBgNVBAoTD0V4dHJlbWUgRGlzY29y
ZDEOMAwGA1UECxMFQ2hhb3MxFDASBgNVBAcTC1RhbGxhaGFzc2VlMQswCQYDVQQI
EwJGTDEcMBoGA1UECRMTMzIxMCBIb2xseSBNaWxsIFJ1bjEOMAwGA1UEERMFMzAw
NjIxDzANBgNVBAMTBmdvdi51czBcMA0GCSqGSIb3DQEBAQUAA0sAMEgCQQC08tRt
DEpNbREOCLl6C8Iq9Duk6aWU4aUQLBN8ad2cCwdN59VdKpq8rPyXtG8sbtne48Kq
vUoQlWt7grMMXBqzAgMBAAGjggEPMIIBCzAOBgNVHQ8BAf8EBAMCBaAwHQYDVR0l
BBYwFAYIKwYBBQUHAwIGCCsGAQUFBwMBMA8GA1UdEwEB/wQFMAMBAf8wDgYDVR0j
BAcwBYADAQIDMGIGCCsGAQUFBwEBBFYwVDAhBggrBgEFBQcwAYYVaHR0cDovL3Ro
ZWNhLm5ldC9vY3NwMC8GCCsGAQUFBzAChiNodHRwOi8vdGhlY2EubmV0L3RvdGFs
bHl0aGVjZXJ0LmNydDATBgNVHSAEDDAKMAgGBmeBDAECAjANBgNVHQ4EBgQEBAMC
ATAmBgNVHREEHzAdgRNleGFtcGxlQGV4YW1wbGUuY29tggZnb3YudXMwCQYDVR02
BAICATANBgkqhkiG9w0BAQsFAANBABQvjet4yHk4yiVipfG9U6FdkA9Y0O+bZ8cT
GkjBoj4tSjiYzdXRg9YojcKH6HPZDU/Gmtu6vcVJxMgcwwAew7k=
-----END CERTIFICATE-----
