Certificate:
    Data:
        Version: 3 (0x2)
        Serial Number: 18008675309 (0x4316693ed)
    Signature Algorithm: sha256WithRSAEncryption
        Issuer: C = US, O = Mother Nature, OU = Everything, CN = Mother Nature
        Validity
            Not Before: Jan  1 00:00:00 2010 GMT
            Not After : Jan  1 00:00:00 2013 GMT
        Subject: C = US, O = Extreme Discord, OU = Chaos, L = Tallahassee, ST = FL, street = 3210 Holly Mill Run, postalCode = 30062, CN = gov.us
        Subject Public Key Info:
            Public Key Algorithm: rsaEncryption
                Public-Key: (512 bit)
                Modulus:
                    00:b5:47:be:4e:8f:1f:8a:80:35:91:3c:c5:4d:a6:
                    d9:8a:cc:0f:92:ee:ed:da:11:47:c6:c1:ff:2d:36:
                    7b:b5:63:2f:df:04:9a:8e:24:e2:b8:6a:34:ba:65:
                    3f:a3:b6:29:f5:f2:ce:93:61:ba:70:33:c1:29:d2:
                    9e:ee:a7:f2:37
                Exponent: 65537 (0x10001)
        X509v3 extensions:
            X509v3 Key Usage: critical
                Digital Signature, Key Encipherment
            X509v3 Extended Key Usage: 
                TLS Web Client Authentication, TLS Web Server Authentication
            X509v3 Basic Constraints: critical
                CA:TRUE
            X509v3 Authority Key Identifier: 
                keyid:01:02:03

            Authority Information Access: 
                OCSP - URI:http://theca.net/ocsp
                CA Issuers - URI:http://theca.net/totallythecert.crt

            X509v3 Certificate Policies: 
                Policy: 2.23.140.1.2.2

            X509v3 Subject Key Identifier: 
                04:03:02:01
            X509v3 Subject Alternative Name: 
                email:<example@example.com>, DNS:gov.us
            X509v3 Inhibit Any Policy: 
                ..
    Signature Algorithm: sha256WithRSAEncryption
         56:35:7e:cc:39:7a:d0:bf:47:1b:88:c1:81:e9:3a:52:05:b1:
         1c:96:fc:cf:6e:76:a1:15:53:b2:dd:1c:1d:f1:7e:bd:52:e8:
         a7:4a:51:67:a6:d5:32:d1:98:d4:90:27:af:97:83:f2:2f:ba:
         6e:c5:f6:01:b8:7b:5e:e5:0d:fc
-----BEGIN CERTIFICATE-----
MIIC9DCCAp6gAwIBAgIFBDFmk+0wDQYJKoZIhvcNAQELBQAwUjELMAkGA1UEBhMC
VVMxFjAUBgNVBAoTDU1vdGhlciBOYXR1cmUxEzARBgNVBAsTCkV2ZXJ5dGhpbmcx
FjAUBgNVBAMTDU1vdGhlciBOYXR1cmUwHhcNMTAwMTAxMDAwMDAwWhcNMTMwMTAx
MDAwMDAwWjCBmTELMAkGA1UEBhMCVVMxGDAWBgNVBAoTD0V4dHJlbWUgRGlzY29y
ZDEOMAwGA1UECxMFQ2hhb3MxFDASBgNVBAcTC1RhbGxhaGFzc2VlMQswCQYDVQQI
EwJGTDEcMBoGA1UECRMTMzIxMCBIb2xseSBNaWxsIFJ1bjEOMAwGA1UEERMFMzAw
NjIxDzANBgNVBAMTBmdvdi51czBcMA0GCSqGSIb3DQEBAQUAA0sAMEgCQQC1R75O
jx+KgDWRPMVNptmKzA+S7u3aEUfGwf8tNnu1Yy/fBJqOJOK4ajS6ZT+jtin18s6T
YbpwM8Ep0p7up/I3AgMBAAGjggERMIIBDTAOBgNVHQ8BAf8EBAMCBaAwHQYDVR0l
BBYwFAYIKwYBBQUHAwIGCCsGAQUFBwMBMA8GA1UdEwEB/wQFMAMBAf8wDgYDVR0j
BAcwBYADAQIDMGIGCCsGAQUFBwEBBFYwVDAhBggrBgEFBQcwAYYVaHR0cDovL3Ro
ZWNhLm5ldC9vY3NwMC8GCCsGAQUFBzAChiNodHRwOi8vdGhlY2EubmV0L3RvdGFs
bHl0aGVjZXJ0LmNydDATBgNVHSAEDDAKMAgGBmeBDAECAjANBgNVHQ4EBgQEBAMC
ATAoBgNVHREEITAfgRU8ZXhhbXBsZUBleGFtcGxlLmNvbT6CBmdvdi51czAJBgNV
HTYEAgIBMA0GCSqGSIb3DQEBCwUAA0EAVjV+zDl60L9HG4jBgek6UgWxHJb8z252
oRVTst0cHfF+vVLop0pRZ6bVMtGY1JAnr5eD8i+6bsX2Abh7XuUN/A==
-----END CERTIFICATE-----
