Certificate:
    Data:
        Version: 3 (0x2)
        Serial Number:
            16:e3:9f:2c:68:44:05:d6:2f:4a:8a:9e:2c:d7:d2:f7:40:00:00:00:00
    Signature Algorithm: sha256WithRSAEncryption
        Issuer: C = US, O = Mother Nature, OU = Everything, CN = Mother Nature
        Validity
            Not Before: Jul  6 19:01:11 2016 GMT
            Not After : Sep 18 19:01:11 2016 GMT
        Subject: C = US, ST = FL, L = Tallahassee, street = 3210 Holly Mill Run, postalCode = 30062, O = Extreme Discord, OU = Chaos, CN = gov.us
        Subject Public Key Info:
            Public Key Algorithm: rsaEncryption
                Public-Key: (2048 bit)
                Modulus:
                    00:a2:f7:d2:69:4a:9d:fb:a0:d8:56:10:27:a2:4a:
                    82:5b:72:3c:d6:21:1f:a0:ea:38:3c:66:9a:aa:89:
                    9f:b5:2a:06:22:c3:81:e8:73:12:a8:64:aa:29:7a:
                    31:32:97:ad:6e:e9:57:e4:0b:a3:51:5a:93:fc:e9:
                    ec:dc:c8:bf:8c:07:ed:ae:61:70:c9:1c:32:64:e8:
                    5f:da:b5:ba:a9:12:83:f7:3d:05:56:00:0a:ab:f8:
                    98:7e:88:2d:fa:d0:25:c9:dc:7d:d7:9f:e2:db:9d:
                    ed:30:8f:6f:3d:67:e9:16:3b:07:46:4f:ee:de:b6:
                    c6:e7:8a:89:3b:d4:3a:24:b7:c6:ab:b7:37:56:1d:
                    99:77:c5:63:b5:19:d6:8d:24:c5:92:2e:41:43:d4:
                    7f:8e:f7:f8:ae:71:06:c7:21:b9:c8:f4:2d:f0:5c:
                    19:93:77:bb:fc:3a:12:89:c0:ed:46:90:25:4e:31:
                    44:75:60:e1:c6:15:7a:07:85:82:4b:11:6c:a5:5d:
                    3d:39:d3:e3:db:00:cf:5c:d8:0c:09:5a:9c:2e:98:
                    d2:f1:be:cf:c2:2d:7c:f0:08:e1:23:fb:fe:e3:da:
                    02:bd:3d:64:6d:f0:c9:dd:14:69:83:76:11:a6:1c:
                    08:05:62:e4:e9:1f:d8:79:e8:4c:c0:cb:ac:3b:26:
                    65:ed
                Exponent: 65537 (0x10001)
        X509v3 extensions:
            X509v3 Basic Constraints: critical
                CA:TRUE
            X509v3 Authority Key Identifier: 
                keyid:01:02:03

            X509v3 Subject Key Identifier: 
                04:03:02:01
            X509v3 Subject Alternative Name: 
                DNS:*.gov.us, DNS:gov.us
            X509v3 Key Usage: 
                Digital Signature, Certificate Sign, CRL Sign
            X509v3 Extended Key Usage: critical
                TLS Web Server Authentication, TLS Web Client Authentication
            X509v3 CRL Distribution Points: critical

                Full Name:
                  URI:http://crl.starfieldtech.com/sfig2s1-17.crl

    Signature Algorithm: sha256WithRSAEncryption
         53:a4:f0:a3:e2:0b:7e:a6:eb:42:70:49:cf:e9:e8:d3:fa:47:
         87:f3:e2:c2:f9:18:b8:11:92:73:9e:72:f2:bb:c3:91:7e:c0:
         38:ea:12:ae:2f:6c:1b:1b:43:9c:e7:0e:a2:f7:e7:07:e5:26:
         a7:ea:bd:2c:53:af:d2:a0:f4:fb:e4:d8:de:4d:a3:27:d7:01:
         7a:5f:72:71:b9:de:43:c4:ef:9d:88:4b:ea:e7:d5:81:41:7a:
         eb:68:61:cb:ad:45:01:f4:e0:05:f5:ff:84:98:14:f8:64:f2:
         9f:fd:d9:00:73:f6:69:f9:00:3f:c6:cd:b3:38:ec:3e:cb:4a:
         5b:f9:51:7c:8b:ce:50:9d:18:6b:1a:1a:0e:69:0d:7b:82:26:
         28:a9:8d:e0:1d:d9:ac:4e:97:d7:6a:23:74:24:8b:92:9b:7b:
         db:b7:0f:b8:8a:4a:32:21:67:5e:89:41:00:fc:e6:3f:a4:2e:
         c3:5c:46:ed:04:ce:8b:fd:01:ae:40:1d:b3:95:f4:a3:01:cd:
         7c:3e:c6:59:87:5d:16:9d:f8:16:46:66:3d:91:10:c0:bc:4f:
         c3:44:8f:bb:42:78:86:1e:e2:c8:40:6f:c4:e1:89:16:1f:35:
         2e:3b:a0:19:72:61:4b:fb:79:36:9c:51:60:a3:ff:b1:5b:ed:
         8d:57:f1:1d
-----BEGIN CERTIFICATE-----
MIIEPDCCAySgAwIBAgIVFuOfLGhEBdYvSoqeLNfS90AAAAAAMA0GCSqGSIb3DQEB
CwUAMFIxCzAJBgNVBAYTAlVTMRYwFAYDVQQKEw1Nb3RoZXIgTmF0dXJlMRMwEQYD
VQQLEwpFdmVyeXRoaW5nMRYwFAYDVQQDEw1Nb3RoZXIgTmF0dXJlMB4XDTE2MDcw
NjE5MDExMVoXDTE2MDkxODE5MDExMVowgZkxCzAJBgNVBAYTAlVTMQswCQYDVQQI
EwJGTDEUMBIGA1UEBxMLVGFsbGFoYXNzZWUxHDAaBgNVBAkTEzMyMTAgSG9sbHkg
TWlsbCBSdW4xDjAMBgNVBBETBTMwMDYyMRgwFgYDVQQKEw9FeHRyZW1lIERpc2Nv
cmQxDjAMBgNVBAsTBUNoYW9zMQ8wDQYDVQQDEwZnb3YudXMwggEiMA0GCSqGSIb3
DQEBAQUAA4IBDwAwggEKAoIBAQCi99JpSp37oNhWECeiSoJbcjzWIR+g6jg8Zpqq
iZ+1KgYiw4HocxKoZKopejEyl61u6VfkC6NRWpP86ezcyL+MB+2uYXDJHDJk6F/a
tbqpEoP3PQVWAAqr+Jh+iC360CXJ3H3Xn+Lbne0wj289Z+kWOwdGT+7etsbniok7
1Dokt8artzdWHZl3xWO1GdaNJMWSLkFD1H+O9/iucQbHIbnI9C3wXBmTd7v8OhKJ
wO1GkCVOMUR1YOHGFXoHhYJLEWylXT050+PbAM9c2AwJWpwumNLxvs/CLXzwCOEj
+/7j2gK9PWRt8MndFGmDdhGmHAgFYuTpH9h56EzAy6w7JmXtAgMBAAGjgcAwgb0w
DwYDVR0TAQH/BAUwAwEB/zAOBgNVHSMEBzAFgAMBAgMwDQYDVR0OBAYEBAQDAgEw
GwYDVR0RBBQwEoIIKi5nb3YudXOCBmdvdi51czALBgNVHQ8EBAMCAYYwIAYDVR0l
AQH/BBYwFAYIKwYBBQUHAwEGCCsGAQUFBwMCMD8GA1UdHwEB/wQ1MDMwMaAvoC2G
K2h0dHA6Ly9jcmwuc3RhcmZpZWxkdGVjaC5jb20vc2ZpZzJzMS0xNy5jcmwwDQYJ
KoZIhvcNAQELBQADggEBAFOk8KPiC36m60JwSc/p6NP6R4fz4sL5GLgRknOecvK7
w5F+wDjqEq4vbBsbQ5znDqL35wflJqfqvSxTr9Kg9Pvk2N5NoyfXAXpfcnG53kPE
752IS+rn1YFBeutoYcutRQH04AX1/4SYFPhk8p/92QBz9mn5AD/GzbM47D7LSlv5
UXyLzlCdGGsaGg5pDXuCJiipjeAd2axOl9dqI3Qki5Kbe9u3D7iKSjIhZ16JQQD8
5j+kLsNcRu0Ezov9Aa5AHbOV9KMBzXw+xlmHXRad+BZGZj2REMC8T8NEj7tCeIYe
4shAb8ThiRYfNS47oBlyYUv7eTacUWCj/7Fb7Y1X8R0=
-----END CERTIFICATE-----
