Certificate:
    Data:
        Version: 3 (0x2)
        Serial Number: 1 (0x1)
    Signature Algorithm: sha256WithRSAEncryption
        Issuer: CN=Mother Nature, OU=Everything, O=Mother Nature/postalCode=postalcode, C=US, GN=givenname, SN=surname
        Validity
            Not Before: Aug 24 04:48:42 2017 GMT
            Not After : Nov  5 04:48:42 2017 GMT
        Subject: CN=gov.us, OU=Chaos, O=org/street=3210 Holly Mill Run, ST=province/postalCode=30062, GN=hello, SN=surname
        Subject Public Key Info:
            Public Key Algorithm: rsaEncryption
                Public-Key: (2048 bit)
                Modulus:
                    00:d3:cc:65:c9:73:a1:ef:10:ff:82:9f:fb:45:1a:
                    a9:eb:86:8a:ce:a4:5e:17:9a:0e:51:53:21:4b:ea:
                    8a:28:d6:7f:29:0f:80:b8:03:ee:30:e8:b7:df:7d:
                    99:12:da:48:9c:13:24:62:94:27:f6:0c:a5:e4:75:
                    55:b0:d0:d4:15:48:f6:6f:4c:0e:69:88:cf:8f:65:
                    79:6d:01:85:dd:6d:7d:da:6d:67:e1:03:af:85:b7:
                    0b:4e:60:2e:ff:c0:9c:30:60:30:4e:28:2f:e7:1b:
                    91:97:f1:9a:35:55:af:1f:f0:a9:9b:d1:01:2d:d3:
                    1a:10:da:bd:e8:87:88:bf:4b:ba:e4:77:d6:06:be:
                    d3:f9:d4:76:c6:39:33:54:0d:b4:cf:3b:3c:9a:f5:
                    c0:aa:55:95:fa:04:e3:ab:06:c6:6e:50:c1:08:d3:
                    ef:dd:c0:72:5a:c6:2f:14:a9:d9:d2:ed:90:0b:6a:
                    a6:a2:8b:bc:ca:0b:41:38:0e:3d:e8:66:5a:6e:44:
                    cb:99:64:43:cf:cf:60:da:38:c2:e9:d9:85:73:8b:
                    83:d3:8b:9d:1e:ce:5f:e1:e3:a5:a1:59:ec:40:20:
                    cd:6c:78:fe:ca:7a:4a:7a:71:21:bf:09:75:31:f0:
                    5b:79:df:0a:17:4a:9b:02:76:b4:d5:f3:ee:16:f0:
                    cc:e5
                Exponent: 65537 (0x10001)
        X509v3 extensions:
            X509v3 Key Usage: critical
                Digital Signature, Key Encipherment
            X509v3 Extended Key Usage: 
                TLS Web Client Authentication, TLS Web Server Authentication
            X509v3 Basic Constraints: critical
                CA:TRUE
            X509v3 Authority Key Identifier: 
                keyid:01:02:03

            X509v3 Certificate Policies: 
                Policy: X509v3 Any Policy

            Authority Information Access: critical
                OCSP - URI:http://ss.symcd.com
                CA Issuers - URI:http://ss.symcb.com/ss.crt

    Signature Algorithm: sha256WithRSAEncryption
         87:14:ee:7b:5f:ca:0d:77:8c:d6:f6:cf:81:78:fe:d5:56:9b:
         b9:b8:b6:b1:28:6e:f6:76:28:73:03:d4:5b:f5:ae:ee:9d:96:
         6a:ad:e9:88:ef:4a:c3:43:da:93:60:6e:78:d6:21:fb:65:f9:
         c1:62:4c:29:59:49:a2:d8:81:ce:89:eb:a3:56:4d:cb:de:48:
         09:e5:0a:45:2a:80:49:b2:bc:8e:75:29:53:cd:85:06:bc:6b:
         b8:b5:94:a0:0b:62:8b:2c:4b:ee:4c:72:31:fa:3e:17:36:f7:
         2a:d7:08:35:b2:7d:5a:f3:18:19:f0:f2:ac:39:cd:95:01:b4:
         a2:9a:79:0a:b3:0b:a4:7f:c2:f7:0d:a3:f7:b8:9f:8a:4c:be:
         d8:0e:62:58:25:37:8f:0a:67:75:c4:17:01:77:ec:ba:ea:45:
         e8:67:18:21:94:ae:f6:4e:66:bc:bb:9a:65:15:99:30:ab:7a:
         77:a8:5d:59:82:b0:b8:ad:e8:88:c9:d1:79:a5:3e:00:c1:34:
         59:f5:f0:b2:eb:7c:d1:10:c8:9c:49:73:c8:71:8a:95:db:47:
         d8:7d:11:bf:e8:05:2f:0a:69:88:dd:a8:39:6f:35:6b:88:9f:
         ac:0d:ca:32:48:59:ae:ee:e9:d1:75:26:ad:b2:63:44:21:b5:
         91:d6:e6:37
-----BEGIN CERTIFICATE-----
MIIEXzCCA0mgAwIBAgIBATALBgkqhkiG9w0BAQswgY8xFjAUBgNVBAMTDU1vdGhl
ciBOYXR1cmUxEzARBgNVBAsTCkV2ZXJ5dGhpbmcxFjAUBgNVBAoTDU1vdGhlciBO
YXR1cmUxEzARBgNVBBETCnBvc3RhbGNvZGUxCzAJBgNVBAYTAlVTMRIwEAYDVQQq
EwlnaXZlbm5hbWUxEDAOBgNVBAQTB3N1cm5hbWUxADAeFw0xNzA4MjQwNDQ4NDJa
Fw0xNzExMDUwNDQ4NDJaMIGUMQ8wDQYDVQQDEwZnb3YudXMxDjAMBgNVBAsTBUNo
YW9zMQwwCgYDVQQKEwNvcmcxHDAaBgNVBAkTEzMyMTAgSG9sbHkgTWlsbCBSdW4x
ETAPBgNVBAgTCHByb3ZpbmNlMQ4wDAYDVQQREwUzMDA2MjEOMAwGA1UEKhMFaGVs
bG8xEDAOBgNVBAQTB3N1cm5hbWUxADCCASIwDQYJKoZIhvcNAQEBBQADggEPADCC
AQoCggEBANPMZclzoe8Q/4Kf+0UaqeuGis6kXheaDlFTIUvqiijWfykPgLgD7jDo
t999mRLaSJwTJGKUJ/YMpeR1VbDQ1BVI9m9MDmmIz49leW0Bhd1tfdptZ+EDr4W3
C05gLv/AnDBgME4oL+cbkZfxmjVVrx/wqZvRAS3TGhDaveiHiL9LuuR31ga+0/nU
dsY5M1QNtM87PJr1wKpVlfoE46sGxm5QwQjT793AclrGLxSp2dLtkAtqpqKLvMoL
QTgOPehmWm5Ey5lkQ8/PYNo4wunZhXOLg9OLnR7OX+HjpaFZ7EAgzWx4/sp6Snpx
Ib8JdTHwW3nfChdKmwJ2tNXz7hbwzOUCAwEAAaOBwjCBvzAOBgNVHQ8BAf8EBAMC
AKAwHQYDVR0lBBYwFAYIKwYBBQUHAwIGCCsGAQUFBwMBMA8GA1UdEwEB/wQFMAMB
Af8wDgYDVR0jBAcwBYADAQIDMBEGA1UdIAQKMAgwBgYEVR0gADBaBggrBgEFBQcB
AQEB/wRLMEkwHwYIKwYBBQUHMAGGE2h0dHA6Ly9zcy5zeW1jZC5jb20wJgYIKwYB
BQUHMAKGGmh0dHA6Ly9zcy5zeW1jYi5jb20vc3MuY3J0MAsGCSqGSIb3DQEBCwOC
AQEAhxTue1/KDXeM1vbPgXj+1Vabubi2sShu9nYocwPUW/Wu7p2Waq3piO9Kw0Pa
k2BueNYh+2X5wWJMKVlJotiBzonro1ZNy95ICeUKRSqASbK8jnUpU82FBrxruLWU
oAtiiyxL7kxyMfo+Fzb3KtcINbJ9WvMYGfDyrDnNlQG0opp5CrMLpH/C9w2j97if
iky+2A5iWCU3jwpndcQXAXfsuupF6GcYIZSu9k5mvLuaZRWZMKt6d6hdWYKwuK3o
iMnReaU+AME0WfXwsut80RDInElzyHGKldtH2H0Rv+gFLwppiN2oOW81a4ifrA3K
MkhZru7p0XUmrbJjRCG1kdbmNw==
-----END CERTIFICATE-----
