Certificate:
    Data:
        Version: 3 (0x2)
        Serial Number: 18008675309 (0x4316693ed)
    Signature Algorithm: sha1WithRSAEncryption
        Issuer: C = US, O = Mother Nature, OU = Everything, CN = Mother Nature
        Validity
            Not Before: Jan  1 00:00:00 2016 GMT
            Not After : Dec  1 00:00:00 2016 GMT
        Subject: C = US, O = Extreme Discord, OU = Chaos, L = Tallahassee, ST = FL, street = 3210 Holly Mill Run, postalCode = 30062, CN = gov.us
        Subject Public Key Info:
            Public Key Algorithm: rsaEncryption
                Public-Key: (512 bit)
                Modulus:
                    00:9b:2f:d9:fc:71:a8:4e:ac:c3:94:45:95:49:43:
                    e2:1c:b6:70:4c:70:19:30:ad:43:01:64:fa:34:5f:
                    a1:0e:12:5e:d1:27:07:5a:66:0a:76:f4:52:7f:c1:
                    d6:58:d6:f2:0e:f7:c4:34:e3:66:25:f8:40:e6:9f:
                    9f:92:fe:0c:73
                Exponent: 65537 (0x10001)
        X509v3 extensions:
            X509v3 Key Usage: critical
                Digital Signature, Key Encipherment, Certificate Sign
            X509v3 Extended Key Usage: 
                TLS Web Client Authentication, TLS Web Server Authentication
            X509v3 Basic Constraints: critical
                CA:FALSE
            X509v3 Authority Key Identifier: 
                keyid:01:02:03

            Authority Information Access: 
                OCSP - URI:http://theca.net/ocsp
                CA Issuers - URI:http://theca.net/totallythecert.crt

            X509v3 Certificate Policies: 
                Policy: 2.23.140.1.2.2

            X509v3 Name Constraints: 
                Permitted:
                  IP:192.168.1.1/1.2.3.4

            X509v3 Subject Key Identifier: 
                04:03:02:01
            X509v3 Subject Alternative Name: 
                URI:, DNS:ˬ
            X509v3 Inhibit Any Policy: 
                ..
            Subject Information Access: 
                ..
    Signature Algorithm: sha1WithRSAEncryption
         a6:0e:b2:2d:3e:09:54:8d:45:77:cf:41:8a:d7:35:c8:7e:ba:
         bf:07:51:31:6d:eb:2e:e3:7a:a9:4b:46:7d:e9:c3:da:ed:eb:
         33:c7:b5:5b:f9:5a:db:55:a1:a8:7a:8f:ab:4c:41:51:31:b9:
         f0:5d:1f:44:d1:37:ec:ef:d0:32
-----BEGIN CERTIFICATE-----
MIIDATCCAq2gAwIBAgIFBDFmk+0wCwYJKoZIhvcNAQEFMFQxCzAJBgNVBAYTAlVT
MRYwFAYDVQQKEw1Nb3RoZXIgTmF0dXJlMRMwEQYDVQQLEwpFdmVyeXRoaW5nMRYw
FAYDVQQDEw1Nb3RoZXIgTmF0dXJlMQAwHhcNMTYwMTAxMDAwMDAwWhcNMTYxMjAx
MDAwMDAwWjCBmzELMAkGA1UEBhMCVVMxGDAWBgNVBAoTD0V4dHJlbWUgRGlzY29y
ZDEOMAwGA1UECxMFQ2hhb3MxFDASBgNVBAcTC1RhbGxhaGFzc2VlMQswCQYDVQQI
EwJGTDEcMBoGA1UECRMTMzIxMCBIb2xseSBNaWxsIFJ1bjEOMAwGA1UEERMFMzAw
NjIxDzANBgNVBAMTBmdvdi51czEAMFwwDQYJKoZIhvcNAQEBBQADSwAwSAJBAJsv
2fxxqE6sw5RFlUlD4hy2cExwGTCtQwFk+jRfoQ4SXtEnB1pmCnb0Un/B1ljW8g73
xDTjZiX4QOafn5L+DHMCAwEAAaOCAR4wggEaMA4GA1UdDwEB/wQEAwIApDAdBgNV
HSUEFjAUBggrBgEFBQcDAgYIKwYBBQUHAwEwDAYDVR0TAQH/BAIwADAOBgNVHSME
BzAFgAMBAgMwYgYIKwYBBQUHAQEEVjBUMCEGCCsGAQUFBzABhhVodHRwOi8vdGhl
Y2EubmV0L29jc3AwLwYIKwYBBQUHMAKGI2h0dHA6Ly90aGVjYS5uZXQvdG90YWxs
eXRoZWNlcnQuY3J0MBMGA1UdIAQMMAowCAYGZ4EMAQICMBcGA1UdHgQQMA6gDDAK
hwjAqAEBAQIDBDANBgNVHQ4EBgQEBAMCATAPBgNVHREECDAGhgCCAsCoMAkGA1Ud
NgQCAgEwDgYIKwYBBQUHAQsEAgIBMAsGCSqGSIb3DQEBBQNBAKYOsi0+CVSNRXfP
QYrXNch+ur8HUTFt6y7jeqlLRn3pw9rt6zPHtVv5WttVoah6j6tMQVExufBdH0TR
N+zv0DI=
-----END CERTIFICATE-----
