Certificate:
    Data:
        Version: 3 (0x2)
        Serial Number: 1295465 (0x13c469)
    Signature Algorithm: sha1WithRSAEncryption
        Issuer: C=US, O=GeoTrust, Inc., CN=RapidSSL CA
        Validity
            Not Before: Jun 30 17:12:55 2014 GMT
            Not After : Aug  2 01:51:13 2018 GMT
        Subject: serialNumber=Kvae1A/3M1m2HcL68806rfty6P7uLxEj, OU=GT55400002, OU=See www.rapidssl.com/resources/cps (c)14, OU=Domain Control Validated - RapidSSL(R), CN=remote.ozrvsupplies.com.au
        Subject Public Key Info:
            Public Key Algorithm: rsaEncryption
                Public-Key: (2048 bit)
                Modulus:
                    00:a3:c5:d6:1e:5a:e2:17:be:76:fa:25:1d:46:23:
                    8d:0c:1e:14:9d:fa:ac:3d:28:27:47:65:fa:30:79:
                    2f:0e:4f:22:a7:8b:90:ed:0e:87:9f:00:0d:3a:58:
                    67:76:4a:38:b6:19:6c:9b:c6:f3:25:61:4f:79:e0:
                    1b:92:26:15:9f:d1:ac:d1:cf:60:51:da:3c:0e:fb:
                    e9:0b:8d:33:a0:9f:c8:e8:77:8e:3b:af:5a:66:fb:
                    16:8f:0e:e7:c1:e9:96:87:b4:50:7a:22:10:2e:df:
                    c9:a2:75:08:9e:a3:9e:c9:78:7b:c0:97:39:12:aa:
                    8e:3d:c0:7a:4a:bb:23:b3:ed:ba:6c:73:2e:48:4d:
                    40:19:14:2b:58:10:d2:f3:17:bc:41:78:e6:6d:d3:
                    6d:a5:cf:95:47:2b:65:a4:9b:d0:c2:a7:2a:f6:75:
                    69:24:a6:ef:8c:00:b9:9f:a6:39:8f:c5:b6:07:50:
                    bc:79:19:00:ac:e5:e8:28:c7:da:ac:3a:e0:91:31:
                    40:63:6d:ca:c5:73:00:bb:de:4c:a5:fc:5f:b0:d3:
                    d8:96:e6:39:d8:39:87:68:4b:5d:3d:fb:ac:ee:e0:
                    a2:d9:99:b0:2c:54:24:fe:c4:69:0e:24:d4:d2:e7:
                    fc:26:64:ad:a4:ac:6d:5f:7c:a2:1d:9f:65:de:7e:
                    46:73
                Exponent: 65537 (0x10001)
        X509v3 extensions:
            X509v3 Authority Key Identifier: 
                keyid:6B:69:3D:6A:18:42:4A:DD:8F:02:65:39:FD:35:24:86:78:91:16:30

            X509v3 Key Usage: critical
                Digital Signature, Key Encipherment
            X509v3 Extended Key Usage: 
                TLS Web Server Authentication, TLS Web Client Authentication
            X509v3 Subject Alternative Name: 
                DNS:remote.ozrvsupplies.com.au
            X509v3 CRL Distribution Points: 

                Full Name:
                  URI:http://rapidssl-crl.geotrust.com/crls/rapidssl.crl

            X509v3 Subject Key Identifier: 
                22:66:FF:BF:12:73:DB:80:4B:31:88:36:5B:24:E2:3B:6C:CD:87:E4
            X509v3 Basic Constraints: critical
                CA:FALSE
            Authority Information Access: 
                OCSP - URI:http://rapidssl-ocsp.geotrust.com
                CA Issuers - URI:http://rapidssl-aia.geotrust.com/rapidssl.crt

            X509v3 Certificate Policies: 
                Policy: 2.16.840.1.113733.1.7.54
                  CPS: http://www.geotrust.com/resources/cps

    Signature Algorithm: sha1WithRSAEncryption
         99:6a:e0:0c:b7:91:5e:d6:e4:f5:82:52:b4:3e:76:a1:b3:77:
         ba:c3:b3:4a:81:22:77:c3:02:dc:91:0a:4b:50:c9:98:b9:37:
         62:c3:fd:5d:15:17:a3:39:33:dc:dd:2f:fc:b0:de:43:59:9c:
         7a:c0:5f:55:31:b4:4e:98:4a:58:9c:f8:c9:6d:72:8b:ed:13:
         a8:b0:8f:5a:d2:52:93:b4:d6:da:a1:33:03:e6:c7:a4:ef:41:
         2e:84:65:12:0d:50:a6:8f:c6:6f:a1:a7:b8:2c:bb:3a:da:4f:
         a8:2e:39:12:c4:c8:c8:9c:47:fb:5c:32:dd:24:2b:71:d7:8c:
         2f:88:db:2a:6e:5a:80:f2:05:59:cd:cb:9d:ee:40:22:ed:3e:
         33:75:c9:79:18:68:0b:ca:dc:08:ca:e6:7e:24:f8:21:ca:25:
         b5:99:96:53:fa:9e:8b:92:af:76:72:c0:9d:4c:01:34:a8:43:
         e4:d2:fa:32:15:fd:bc:24:73:a6:0a:a3:b7:18:06:4b:2e:29:
         de:56:cf:d0:ba:49:97:fb:89:46:7e:4f:2a:ac:41:c8:9e:20:
         bf:98:a4:fc:f3:50:93:71:dc:42:16:2d:6f:68:5c:3b:ac:fe:
         15:06:88:79:f3:94:b5:cd:4a:7f:47:61:b1:f2:46:11:c3:02:
         09:59:cf:3f
-----BEGIN CERTIFICATE-----
MIIFOjCCBCKgAwIBAgIDE8RpMA0GCSqGSIb3DQEBBQUAMDwxCzAJBgNVBAYTAlVT
MRcwFQYDVQQKEw5HZW9UcnVzdCwgSW5jLjEUMBIGA1UEAxMLUmFwaWRTU0wgQ0Ew
HhcNMTQwNjMwMTcxMjU1WhcNMTgwODAyMDE1MTEzWjCByTEpMCcGA1UEBRMgS3Zh
ZTFBLzNNMW0ySGNMNjg4MDZyZnR5NlA3dUx4RWoxEzARBgNVBAsTCkdUNTU0MDAw
MDIxMTAvBgNVBAsTKFNlZSB3d3cucmFwaWRzc2wuY29tL3Jlc291cmNlcy9jcHMg
KGMpMTQxLzAtBgNVBAsTJkRvbWFpbiBDb250cm9sIFZhbGlkYXRlZCAtIFJhcGlk
U1NMKFIpMSMwIQYDVQQDExpyZW1vdGUub3pydnN1cHBsaWVzLmNvbS5hdTCCASIw
DQYJKoZIhvcNAQEBBQADggEPADCCAQoCggEBAKPF1h5a4he+dvolHUYjjQweFJ36
rD0oJ0dl+jB5Lw5PIqeLkO0Oh58ADTpYZ3ZKOLYZbJvG8yVhT3ngG5ImFZ/RrNHP
YFHaPA776QuNM6CfyOh3jjuvWmb7Fo8O58Hploe0UHoiEC7fyaJ1CJ6jnsl4e8CX
ORKqjj3Aekq7I7PtumxzLkhNQBkUK1gQ0vMXvEF45m3TbaXPlUcrZaSb0MKnKvZ1
aSSm74wAuZ+mOY/FtgdQvHkZAKzl6CjH2qw64JExQGNtysVzALveTKX8X7DT2Jbm
Odg5h2hLXT37rO7gotmZsCxUJP7EaQ4k1NLn/CZkraSsbV98oh2fZd5+RnMCAwEA
AaOCAbUwggGxMB8GA1UdIwQYMBaAFGtpPWoYQkrdjwJlOf01JIZ4kRYwMA4GA1Ud
DwEB/wQEAwIFoDAdBgNVHSUEFjAUBggrBgEFBQcDAQYIKwYBBQUHAwIwJQYDVR0R
BB4wHIIacmVtb3RlLm96cnZzdXBwbGllcy5jb20uYXUwQwYDVR0fBDwwOjA4oDag
NIYyaHR0cDovL3JhcGlkc3NsLWNybC5nZW90cnVzdC5jb20vY3Jscy9yYXBpZHNz
bC5jcmwwHQYDVR0OBBYEFCJm/78Sc9uASzGINlsk4jtszYfkMAwGA1UdEwEB/wQC
MAAweAYIKwYBBQUHAQEEbDBqMC0GCCsGAQUFBzABhiFodHRwOi8vcmFwaWRzc2wt
b2NzcC5nZW90cnVzdC5jb20wOQYIKwYBBQUHMAKGLWh0dHA6Ly9yYXBpZHNzbC1h
aWEuZ2VvdHJ1c3QuY29tL3JhcGlkc3NsLmNydDBMBgNVHSAERTBDMEEGCmCGSAGG
+EUBBzYwMzAxBggrBgEFBQcCARYlaHR0cDovL3d3dy5nZW90cnVzdC5jb20vcmVz
b3VyY2VzL2NwczANBgkqhkiG9w0BAQUFAAOCAQEAmWrgDLeRXtbk9YJStD52obN3
usOzSoEid8MC3JEKS1DJmLk3YsP9XRUXozkz3N0v/LDeQ1mcesBfVTG0TphKWJz4
yW1yi+0TqLCPWtJSk7TW2qEzA+bHpO9BLoRlEg1Qpo/Gb6GnuCy7OtpPqC45EsTI
yJxH+1wy3SQrcdeML4jbKm5agPIFWc3Lne5AIu0+M3XJeRhoC8rcCMrmfiT4Icol
tZmWU/qei5KvdnLAnUwBNKhD5NL6MhX9vCRzpgqjtxgGSy4p3lbP0LpJl/uJRn5P
KqxByJ4gv5ik/PNQk3HcQhYtb2hcO6z+FQaIefOUtc1Kf0dhsfJGEcMCCVnPPw==
-----END CERTIFICATE-----
