Certificate:
    Data:
        Version: 3 (0x2)
        Serial Number: 18008675309 (0x4316693ed)
    Signature Algorithm: sha1WithRSAEncryption
        Issuer: C = US, O = Mother Nature, OU = Everything, CN = Mother Nature
        Validity
            Not Before: Jan  1 00:00:00 2016 GMT
            Not After : Dec  1 00:00:00 2018 GMT
        Subject: C = US, O = Extreme Discord, OU = Chaos, L = Tallahassee, ST = FL, street = 3210 Holly Mill Run, postalCode = 30062, CN = gov.us
        Subject Public Key Info:
            Public Key Algorithm: rsaEncryption
                Public-Key: (512 bit)
                Modulus:
                    00:a5:86:78:4b:fd:c5:64:5f:33:bb:19:03:2f:ca:
                    55:c9:28:f4:0f:95:57:f0:27:bc:53:e2:3d:3f:67:
                    d9:2a:93:98:14:bc:84:d4:bc:61:9b:8f:ba:cc:4a:
                    a5:d9:2c:62:ff:0a:02:cb:53:6f:ff:4b:b6:69:3c:
                    82:22:2f:8d:93
                Exponent: 65537 (0x10001)
        X509v3 extensions:
            X509v3 Key Usage: critical
                Digital Signature, Key Encipherment, Certificate Sign
            X509v3 Extended Key Usage: 
                TLS Web Client Authentication, TLS Web Server Authentication
            X509v3 Basic Constraints: critical
                CA:FALSE
            X509v3 Authority Key Identifier: 
                keyid:01:02:03

            Authority Information Access: 
                OCSP - URI:http://theca.net/ocsp
                CA Issuers - URI:http://theca.net/totallythecert.crt

            X509v3 Certificate Policies: 
                Policy: 2.23.140.1.2.2

            X509v3 Name Constraints: 
                Permitted:
                  IP:192.168.1.1/1.2.3.4

            X509v3 Subject Key Identifier: 
                04:03:02:01
            X509v3 Subject Alternative Name: 
                URI:, DNS:ˬ
            X509v3 Inhibit Any Policy: 
                ..
            Subject Information Access: 
                ..
    Signature Algorithm: sha1WithRSAEncryption
         a2:cc:4f:75:23:97:05:99:88:4c:2f:6d:b4:60:2c:3d:fd:d6:
         73:f0:a2:dc:c1:79:55:73:44:fb:fe:6e:35:05:5a:15:8b:2a:
         33:fa:29:d4:7a:a7:2d:47:13:a5:d9:9b:33:8c:55:32:d8:16:
         1b:96:cf:aa:d2:16:b7:86:89:50
-----BEGIN CERTIFICATE-----
MIIDATCCAq2gAwIBAgIFBDFmk+0wCwYJKoZIhvcNAQEFMFQxCzAJBgNVBAYTAlVT
MRYwFAYDVQQKEw1Nb3RoZXIgTmF0dXJlMRMwEQYDVQQLEwpFdmVyeXRoaW5nMRYw
FAYDVQQDEw1Nb3RoZXIgTmF0dXJlMQAwHhcNMTYwMTAxMDAwMDAwWhcNMTgxMjAx
MDAwMDAwWjCBmzELMAkGA1UEBhMCVVMxGDAWBgNVBAoTD0V4dHJlbWUgRGlzY29y
ZDEOMAwGA1UECxMFQ2hhb3MxFDASBgNVBAcTC1RhbGxhaGFzc2VlMQswCQYDVQQI
EwJGTDEcMBoGA1UECRMTMzIxMCBIb2xseSBNaWxsIFJ1bjEOMAwGA1UEERMFMzAw
NjIxDzANBgNVBAMTBmdvdi51czEAMFwwDQYJKoZIhvcNAQEBBQADSwAwSAJBAKWG
eEv9xWRfM7sZAy/KVcko9A+VV/AnvFPiPT9n2SqTmBS8hNS8YZuPusxKpdksYv8K
AstTb/9Ltmk8giIvjZMCAwEAAaOCAR4wggEaMA4GA1UdDwEB/wQEAwIApDAdBgNV
HSUEFjAUBggrBgEFBQcDAgYIKwYBBQUHAwEwDAYDVR0TAQH/BAIwADAOBgNVHSME
BzAFgAMBAgMwYgYIKwYBBQUHAQEEVjBUMCEGCCsGAQUFBzABhhVodHRwOi8vdGhl
Y2EubmV0L29jc3AwLwYIKwYBBQUHMAKGI2h0dHA6Ly90aGVjYS5uZXQvdG90YWxs
eXRoZWNlcnQuY3J0MBMGA1UdIAQMMAowCAYGZ4EMAQICMBcGA1UdHgQQMA6gDDAK
hwjAqAEBAQIDBDANBgNVHQ4EBgQEBAMCATAPBgNVHREECDAGhgCCAsCoMAkGA1Ud
NgQCAgEwDgYIKwYBBQUHAQsEAgIBMAsGCSqGSIb3DQEBBQNBAKLMT3UjlwWZiEwv
bbRgLD391nPwotzBeVVzRPv+bjUFWhWLKjP6KdR6py1HE6XZmzOMVTLYFhuWz6rS
FreGiVA=
-----END CERTIFICATE-----
