Certificate:
    Data:
        Version: 3 (0x2)
        Serial Number: 18008675309 (0x4316693ed)
    Signature Algorithm: sha256WithRSAEncryption
        Issuer: C = US, O = Mother Nature, OU = Everything, CN = Mother Nature
        Validity
            Not Before: Jan  1 00:00:00 2010 GMT
            Not After : Jan  1 00:00:00 2013 GMT
        Subject: C = US, O = Extreme Discord, OU = Chaos, L = Tallahassee, ST = FL, street = 3210 Holly Mill Run, postalCode = 30062, CN = gov.us
        Subject Public Key Info:
            Public Key Algorithm: rsaEncryption
                Public-Key: (512 bit)
                Modulus:
                    00:fd:73:55:5a:53:90:d3:77:d2:fd:c3:40:cf:40:
                    b5:50:d3:d1:71:12:17:fd:98:cf:c0:40:88:25:52:
                    80:16:ef:f8:bf:be:78:84:fa:36:4d:75:b6:d9:1b:
                    24:f4:46:51:d3:d2:83:2f:04:1a:54:4a:ef:70:b5:
                    8a:0c:37:1b:4f
                Exponent: 65537 (0x10001)
        X509v3 extensions:
            X509v3 Key Usage: critical
                Digital Signature, Key Encipherment
            X509v3 Extended Key Usage: 
                TLS Web Client Authentication, TLS Web Server Authentication
            X509v3 Authority Key Identifier: 
                keyid:01:02:03

            Authority Information Access: 
                OCSP - URI:http://theca.net/ocsp
                CA Issuers - URI:http://theca.net/totallythecert.crt

            X509v3 Certificate Policies: 
                Policy: 2.23.140.1.2.2

            X509v3 Subject Key Identifier: 
                04:03:02:01
            X509v3 Subject Alternative Name: 
                URI:, DNS:ˬ
            X509v3 Inhibit Any Policy: 
                ..
            Subject Information Access: 
                ..
    Signature Algorithm: sha256WithRSAEncryption
         20:77:1a:0f:72:31:f4:3d:17:5e:59:58:05:e1:ee:03:6d:99:
         9a:37:f5:61:ab:65:e6:15:e5:32:8b:0c:7d:9a:ae:b5:66:c7:
         1e:3e:52:6c:44:e1:c3:c5:76:3c:77:16:de:3f:13:87:c3:8d:
         d2:cf:ff:14:bb:03:0a:a3:cf:60
-----BEGIN CERTIFICATE-----
MIIC2DCCAoKgAwIBAgIFBDFmk+0wDQYJKoZIhvcNAQELBQAwUjELMAkGA1UEBhMC
VVMxFjAUBgNVBAoTDU1vdGhlciBOYXR1cmUxEzARBgNVBAsTCkV2ZXJ5dGhpbmcx
FjAUBgNVBAMTDU1vdGhlciBOYXR1cmUwHhcNMTAwMTAxMDAwMDAwWhcNMTMwMTAx
MDAwMDAwWjCBmTELMAkGA1UEBhMCVVMxGDAWBgNVBAoTD0V4dHJlbWUgRGlzY29y
ZDEOMAwGA1UECxMFQ2hhb3MxFDASBgNVBAcTC1RhbGxhaGFzc2VlMQswCQYDVQQI
EwJGTDEcMBoGA1UECRMTMzIxMCBIb2xseSBNaWxsIFJ1bjEOMAwGA1UEERMFMzAw
NjIxDzANBgNVBAMTBmdvdi51czBcMA0GCSqGSIb3DQEBAQUAA0sAMEgCQQD9c1Va
U5DTd9L9w0DPQLVQ09FxEhf9mM/AQIglUoAW7/i/vniE+jZNdbbZGyT0RlHT0oMv
BBpUSu9wtYoMNxtPAgMBAAGjgfYwgfMwDgYDVR0PAQH/BAQDAgWgMB0GA1UdJQQW
MBQGCCsGAQUFBwMCBggrBgEFBQcDATAOBgNVHSMEBzAFgAMBAgMwYgYIKwYBBQUH
AQEEVjBUMCEGCCsGAQUFBzABhhVodHRwOi8vdGhlY2EubmV0L29jc3AwLwYIKwYB
BQUHMAKGI2h0dHA6Ly90aGVjYS5uZXQvdG90YWxseXRoZWNlcnQuY3J0MBMGA1Ud
IAQMMAowCAYGZ4EMAQICMA0GA1UdDgQGBAQEAwIBMA8GA1UdEQQIMAaGAIICwKgw
CQYDVR02BAICATAOBggrBgEFBQcBCwQCAgEwDQYJKoZIhvcNAQELBQADQQAgdxoP
cjH0PRdeWVgF4e4DbZmaN/Vhq2XmFeUyiwx9mq61ZscePlJsROHDxXY8dxbePxOH
w43Sz/8UuwMKo89g
-----END CERTIFICATE-----
