Certificate:
    Data:
        Version: 3 (0x2)
        Serial Number: 18008675309 (0x4316693ed)
    Signature Algorithm: sha256WithRSAEncryption
        Issuer: C = US, O = Mother Nature, OU = Everything, CN = Mother Nature
        Validity
            Not Before: Jul  8 04:38:44 2016 GMT
            Not After : Sep 20 04:38:44 2016 GMT
        Subject: C = US, ST = FL, L = Tallahassee, street = 3210 Holly Mill Run, postalCode = 30062, O = Extreme Discord, OU = Chaos, CN = gov.us
        Subject Public Key Info:
            Public Key Algorithm: rsaEncryption
                Public-Key: (2048 bit)
                Modulus:
                    00:93:b8:82:b7:96:68:99:c9:3b:a6:bb:d5:37:e6:
                    ed:4b:7e:5c:2e:13:b8:cd:7b:e0:6f:26:1b:d4:2f:
                    80:76:53:7a:6c:3a:13:70:39:ad:d3:b3:31:8a:40:
                    47:88:1b:b9:71:16:00:b8:46:f9:3e:a5:f4:03:d1:
                    46:7d:01:2e:93:05:48:84:0f:dd:c2:a6:b9:e9:0a:
                    93:44:aa:c3:ed:b9:00:d7:71:bd:4f:94:37:1c:9e:
                    69:ab:5e:ff:05:5e:69:35:30:a7:47:c7:4a:9c:be:
                    7f:ca:c8:9a:f3:28:8e:99:c3:b2:63:be:a0:2d:3c:
                    74:dc:ec:ac:99:7f:cd:22:86:47:28:8f:6d:9d:35:
                    41:bb:67:0a:9c:ee:48:a9:72:c6:d8:89:50:17:e0:
                    7a:e1:d8:20:2e:84:ed:65:30:3d:4e:ee:35:2c:24:
                    2e:a4:6f:42:de:2e:30:36:0a:6b:dd:7f:b8:db:b0:
                    5e:c1:b0:68:65:61:05:f2:47:ee:b9:09:00:a7:99:
                    50:8a:4f:8a:46:18:c9:80:40:d9:f5:3c:1a:f9:01:
                    42:87:ee:a0:c9:5e:7c:72:25:3d:38:6c:de:bd:6c:
                    f7:4f:4f:61:53:74:3e:98:4b:4a:9a:c5:4f:30:eb:
                    7b:d7:8f:af:cc:56:83:1c:51:85:37:8f:47:2b:a8:
                    2b:e5
                Exponent: 65537 (0x10001)
        X509v3 extensions:
            X509v3 Key Usage: critical
                Digital Signature, Key Encipherment
            X509v3 Extended Key Usage: 
                TLS Web Client Authentication, TLS Web Server Authentication
            X509v3 Basic Constraints: critical
                CA:FALSE
            X509v3 Authority Key Identifier: 
                keyid:01:02:03

            Authority Information Access: 
                OCSP - URI:http://theca.net/ocsp
                CA Issuers - URI:http://theca.net/totallythecert.crt

            X509v3 Certificate Policies: 
                Policy: 2.23.140.1.2.2

            X509v3 Subject Key Identifier: critical
                04:03:02:01
            X509v3 Subject Alternative Name: 
                DNS:*.gov.us, DNS:gov.us
    Signature Algorithm: sha256WithRSAEncryption
         1d:fc:b6:0e:28:6c:ec:a0:74:03:77:fe:55:cc:4c:e1:6c:0d:
         8c:a3:67:f5:df:2e:cb:96:9e:0c:a1:61:a3:d4:64:66:bf:4d:
         30:e5:b4:4b:53:78:8f:dc:12:fe:d6:c1:e8:a6:39:71:ba:8f:
         92:bd:cf:2b:8e:09:67:3a:bd:ed:f0:e9:b5:94:08:d7:39:4d:
         48:d0:a8:b7:e7:79:2b:cd:7d:04:84:e3:26:90:bb:1a:51:19:
         d1:15:9b:0c:5f:e7:ec:e9:58:7f:f6:1b:8c:94:79:14:d8:3f:
         29:2d:18:2d:92:40:8c:bf:d5:48:ce:c9:e2:97:eb:09:81:3e:
         be:91:79:bc:0b:29:74:85:27:60:8b:5f:07:34:04:8d:4e:3d:
         8d:07:f5:12:62:37:24:db:1a:b8:50:6a:f6:3d:1d:64:25:a5:
         c8:91:08:d7:9b:62:fc:19:01:67:39:68:f4:f2:91:85:60:d1:
         7f:ac:be:7e:a4:e0:8f:0f:82:dc:71:63:0a:15:8d:18:1a:ff:
         71:12:59:9d:2b:b6:9b:6b:9d:98:9f:59:b5:52:c0:41:a4:ca:
         f3:93:d9:fc:d1:76:13:51:3a:4d:30:68:12:9f:bb:72:8b:cf:
         a0:ed:82:b1:dc:b7:f4:fa:f9:3c:3a:17:56:0b:42:69:22:c6:
         42:10:bc:8d
-----BEGIN CERTIFICATE-----
MIIEZDCCA0ygAwIBAgIFBDFmk+0wDQYJKoZIhvcNAQELBQAwUjELMAkGA1UEBhMC
VVMxFjAUBgNVBAoTDU1vdGhlciBOYXR1cmUxEzARBgNVBAsTCkV2ZXJ5dGhpbmcx
FjAUBgNVBAMTDU1vdGhlciBOYXR1cmUwHhcNMTYwNzA4MDQzODQ0WhcNMTYwOTIw
MDQzODQ0WjCBmTELMAkGA1UEBhMCVVMxCzAJBgNVBAgTAkZMMRQwEgYDVQQHEwtU
YWxsYWhhc3NlZTEcMBoGA1UECRMTMzIxMCBIb2xseSBNaWxsIFJ1bjEOMAwGA1UE
ERMFMzAwNjIxGDAWBgNVBAoTD0V4dHJlbWUgRGlzY29yZDEOMAwGA1UECxMFQ2hh
b3MxDzANBgNVBAMTBmdvdi51czCCASIwDQYJKoZIhvcNAQEBBQADggEPADCCAQoC
ggEBAJO4greWaJnJO6a71Tfm7Ut+XC4TuM174G8mG9QvgHZTemw6E3A5rdOzMYpA
R4gbuXEWALhG+T6l9APRRn0BLpMFSIQP3cKmuekKk0Sqw+25ANdxvU+UNxyeaate
/wVeaTUwp0fHSpy+f8rImvMojpnDsmO+oC08dNzsrJl/zSKGRyiPbZ01QbtnCpzu
SKlyxtiJUBfgeuHYIC6E7WUwPU7uNSwkLqRvQt4uMDYKa91/uNuwXsGwaGVhBfJH
7rkJAKeZUIpPikYYyYBA2fU8GvkBQofuoMlefHIlPThs3r1s909PYVN0PphLSprF
TzDre9ePr8xWgxxRhTePRyuoK+UCAwEAAaOB+DCB9TAOBgNVHQ8BAf8EBAMCBaAw
HQYDVR0lBBYwFAYIKwYBBQUHAwIGCCsGAQUFBwMBMAwGA1UdEwEB/wQCMAAwDgYD
VR0jBAcwBYADAQIDMGIGCCsGAQUFBwEBBFYwVDAhBggrBgEFBQcwAYYVaHR0cDov
L3RoZWNhLm5ldC9vY3NwMC8GCCsGAQUFBzAChiNodHRwOi8vdGhlY2EubmV0L3Rv
dGFsbHl0aGVjZXJ0LmNydDATBgNVHSAEDDAKMAgGBmeBDAECAjAQBgNVHQ4BAf8E
BgQEBAMCATAbBgNVHREEFDASgggqLmdvdi51c4IGZ292LnVzMA0GCSqGSIb3DQEB
CwUAA4IBAQAd/LYOKGzsoHQDd/5VzEzhbA2Mo2f13y7Llp4MoWGj1GRmv00w5bRL
U3iP3BL+1sHopjlxuo+Svc8rjglnOr3t8Om1lAjXOU1I0Ki353krzX0EhOMmkLsa
URnRFZsMX+fs6Vh/9huMlHkU2D8pLRgtkkCMv9VIzsnil+sJgT6+kXm8Cyl0hSdg
i18HNASNTj2NB/USYjck2xq4UGr2PR1kJaXIkQjXm2L8GQFnOWj08pGFYNF/rL5+
pOCPD4LccWMKFY0YGv9xElmdK7aba52Yn1m1UsBBpMrzk9n80XYTUTpNMGgSn7ty
i8+g7YKx3Lf0+vk8OhdWC0JpIsZCELyN
-----END CERTIFICATE-----
