Certificate:
    Data:
        Version: 3 (0x2)
        Serial Number: 18008675309 (0x4316693ed)
    Signature Algorithm: sha256WithRSAEncryption
        Issuer: CN=Mother Nature, OU=Everything, O=Mother Nature, C=US
        Validity
            Not Before: Aug 23 22:52:16 2017 GMT
            Not After : Nov  4 22:52:16 2017 GMT
        Subject: CN=gov.us, OU=Chaos/street=3210 Holly Mill Run, L=Tallahassee, ST=FL/postalCode=30062, C=US, GN=givenname
        Subject Public Key Info:
            Public Key Algorithm: rsaEncryption
                Public-Key: (2048 bit)
                Modulus:
                    00:c2:16:89:10:f1:12:1e:4c:38:3d:8b:1f:8a:42:
                    44:19:81:4a:6a:cd:be:d4:8c:32:63:79:34:a9:c9:
                    b4:48:3a:bf:53:d9:ee:bf:a5:24:75:ac:2e:72:e1:
                    60:f8:b6:18:24:ea:52:97:19:a0:d6:72:b3:a4:f9:
                    4f:b6:5d:74:4f:5b:3a:c4:95:2f:ee:78:71:d9:64:
                    0e:bb:f1:2e:26:82:15:c1:6b:f1:c9:d2:0f:ab:f9:
                    3c:7e:37:67:a2:33:24:ae:3e:c1:90:dd:64:90:dd:
                    9b:32:fe:25:d5:b7:e4:99:97:cf:19:4e:83:ad:be:
                    e7:21:ba:31:02:df:b0:a7:1f:b4:26:6c:3c:a3:fb:
                    f3:4a:70:e6:cc:04:86:af:97:c9:e3:45:0c:1d:c6:
                    55:bf:0c:c8:bd:f8:75:9d:46:c7:37:4f:46:4d:74:
                    04:5d:06:b3:6b:31:26:ee:f9:cb:87:b8:49:cf:a9:
                    21:1a:f3:36:af:d8:a1:24:2d:c6:1b:b4:c9:aa:76:
                    5f:ed:7d:e5:0b:c9:38:fa:c2:4d:3a:0a:17:73:6e:
                    90:64:f1:69:4e:ad:ef:9e:e6:b1:66:d7:ec:71:a3:
                    3b:2e:94:41:44:4d:7b:e0:7a:b3:08:9e:a4:ff:82:
                    cf:b8:a7:ab:8b:6c:e3:c0:78:f2:53:ce:cf:a2:e4:
                    36:7d
                Exponent: 65537 (0x10001)
        X509v3 extensions:
            X509v3 Key Usage: critical
                Digital Signature, Key Encipherment
            X509v3 Extended Key Usage: 
                TLS Web Client Authentication, TLS Web Server Authentication
            X509v3 Basic Constraints: critical
                CA:FALSE
            X509v3 Authority Key Identifier: 
                keyid:01:02:03

            X509v3 Certificate Policies: 
                Policy: 2.23.140.1.2.3

            Authority Information Access: critical
                OCSP - URI:http://ss.symcd.com
                CA Issuers - URI:http://ss.symcb.com/ss.crt

    Signature Algorithm: sha256WithRSAEncryption
         30:af:99:66:99:de:b2:93:d8:13:ef:0e:8b:5b:3a:57:db:46:
         f3:46:3d:6f:1d:c0:57:17:9a:dc:9e:b5:49:e9:0d:a1:9b:cc:
         88:08:8d:bd:9d:ac:38:37:f3:fc:36:d3:ba:31:76:db:a1:fa:
         01:8c:cc:80:d5:95:88:bd:de:3b:4d:5e:27:d0:ec:4b:a3:12:
         0e:65:0a:eb:49:c3:6e:ad:a2:09:6f:c9:57:ce:bb:e4:ee:34:
         94:be:8d:70:c6:c9:50:7c:f9:9c:59:51:1f:69:20:ce:bc:cb:
         a4:a2:51:25:61:d6:24:f2:0b:17:ac:45:9d:bd:1e:d0:6e:77:
         ad:c4:6f:e6:23:c3:8b:6d:69:0d:75:a4:22:58:83:cb:57:88:
         f9:f6:b8:15:be:35:5e:fa:d4:ac:28:d0:0c:f3:e9:9b:e2:b1:
         6f:24:b8:0b:69:f7:b0:07:85:20:85:24:8f:35:9e:9c:6f:cf:
         59:ff:ed:1b:41:a8:56:dd:7b:31:1d:e9:f7:23:f7:f7:2a:ed:
         ff:16:1a:d3:95:87:df:d9:70:b9:20:45:92:a6:5a:a5:c1:fc:
         92:33:ae:d0:b9:29:e0:c7:62:f2:24:64:ef:fe:c6:cb:60:5c:
         22:3e:3b:87:68:de:5d:f1:a4:93:e9:01:1e:a1:d0:ed:dd:ee:
         29:b8:d1:0d
-----BEGIN CERTIFICATE-----
MIIEJzCCAxGgAwIBAgIFBDFmk+0wCwYJKoZIhvcNAQELMFQxFjAUBgNVBAMTDU1v
dGhlciBOYXR1cmUxEzARBgNVBAsTCkV2ZXJ5dGhpbmcxFjAUBgNVBAoTDU1vdGhl
ciBOYXR1cmUxCzAJBgNVBAYTAlVTMQAwHhcNMTcwODIzMjI1MjE2WhcNMTcxMTA0
MjI1MjE2WjCBlTEPMA0GA1UEAxMGZ292LnVzMQ4wDAYDVQQLEwVDaGFvczEcMBoG
A1UECRMTMzIxMCBIb2xseSBNaWxsIFJ1bjEUMBIGA1UEBxMLVGFsbGFoYXNzZWUx
CzAJBgNVBAgTAkZMMQ4wDAYDVQQREwUzMDA2MjELMAkGA1UEBhMCVVMxEjAQBgNV
BCoTCWdpdmVubmFtZTEAMIIBIjANBgkqhkiG9w0BAQEFAAOCAQ8AMIIBCgKCAQEA
whaJEPESHkw4PYsfikJEGYFKas2+1IwyY3k0qcm0SDq/U9nuv6UkdawucuFg+LYY
JOpSlxmg1nKzpPlPtl10T1s6xJUv7nhx2WQOu/EuJoIVwWvxydIPq/k8fjdnojMk
rj7BkN1kkN2bMv4l1bfkmZfPGU6Drb7nIboxAt+wpx+0Jmw8o/vzSnDmzASGr5fJ
40UMHcZVvwzIvfh1nUbHN09GTXQEXQazazEm7vnLh7hJz6khGvM2r9ihJC3GG7TJ
qnZf7X3lC8k4+sJNOgoXc26QZPFpTq3vnuaxZtfscaM7LpRBRE174HqzCJ6k/4LP
uKeri2zjwHjyU87PouQ2fQIDAQABo4HBMIG+MA4GA1UdDwEB/wQEAwIAoDAdBgNV
HSUEFjAUBggrBgEFBQcDAgYIKwYBBQUHAwEwDAYDVR0TAQH/BAIwADAOBgNVHSME
BzAFgAMBAgMwEwYDVR0gBAwwCjAIBgZngQwBAgMwWgYIKwYBBQUHAQEBAf8ESzBJ
MB8GCCsGAQUFBzABhhNodHRwOi8vc3Muc3ltY2QuY29tMCYGCCsGAQUFBzAChhpo
dHRwOi8vc3Muc3ltY2IuY29tL3NzLmNydDALBgkqhkiG9w0BAQsDggEBADCvmWaZ
3rKT2BPvDotbOlfbRvNGPW8dwFcXmtyetUnpDaGbzIgIjb2drDg38/w207oxdtuh
+gGMzIDVlYi93jtNXifQ7EujEg5lCutJw26toglvyVfOu+TuNJS+jXDGyVB8+ZxZ
UR9pIM68y6SiUSVh1iTyCxesRZ29HtBud63Eb+Yjw4ttaQ11pCJYg8tXiPn2uBW+
NV761Kwo0Azz6ZvisW8kuAtp97AHhSCFJI81npxvz1n/7RtBqFbdezEd6fcj9/cq
7f8WGtOVh9/ZcLkgRZKmWqXB/JIzrtC5KeDHYvIkZO/+xstgXCI+O4do3l3xpJPp
AR6h0O3d7im40Q0=
-----END CERTIFICATE-----
