Certificate:
    Data:
        Version: 3 (0x2)
        Serial Number: 18008675309 (0x4316693ed)
    Signature Algorithm: sha256WithRSAEncryption
        Issuer: CN=Mother Nature, OU=Everything, O=Mother Nature, C=US
        Validity
            Not Before: Aug 23 22:51:45 2017 GMT
            Not After : Nov  4 22:51:45 2017 GMT
        Subject: CN=gov.us, OU=Chaos/street=3210 Holly Mill Run, L=Tallahassee, ST=FL/postalCode=30062, C=US
        Subject Public Key Info:
            Public Key Algorithm: rsaEncryption
                Public-Key: (2048 bit)
                Modulus:
                    00:a1:4e:44:5a:a5:69:6f:c3:e5:cc:a0:0b:ee:74:
                    f4:cc:4c:cf:8c:24:84:7e:9e:b1:36:bf:d4:97:72:
                    98:35:4e:d7:32:df:a8:4b:01:35:33:de:0c:16:e1:
                    6d:96:a9:63:83:58:cf:ad:ce:1b:f6:ed:98:93:94:
                    d6:c1:99:a7:68:b4:02:40:d1:4f:48:38:fc:5d:0a:
                    43:87:9c:df:43:cc:7b:fe:3f:6d:38:81:8d:f3:bd:
                    8c:aa:f8:bb:c3:14:17:8d:7e:b4:2f:ab:85:da:f5:
                    c9:9a:9f:11:3a:a0:a0:f1:46:da:68:33:1c:f4:9b:
                    90:1c:d1:72:6f:04:45:91:29:81:dc:9d:a6:a9:4a:
                    19:c5:0e:95:9f:2c:b3:fa:d1:87:6f:9e:2a:e6:92:
                    29:2b:d5:1f:e0:e4:65:56:97:16:b6:86:d7:eb:0c:
                    42:20:d4:21:94:11:cc:1b:32:e7:ad:5f:ad:d2:b6:
                    57:9c:a2:12:dc:4a:53:0c:0d:6d:f9:5b:0d:89:1e:
                    8b:c7:93:6f:99:a3:63:c4:4d:e4:39:e7:3d:5f:0e:
                    19:d0:76:c3:2c:44:0e:cb:60:bc:b4:46:d3:c3:12:
                    6d:ad:0c:ee:61:5f:4e:a7:35:2b:aa:98:6a:a4:14:
                    c3:e6:4c:21:9f:0e:5b:a3:a8:88:f6:e7:f2:b1:f7:
                    98:49
                Exponent: 65537 (0x10001)
        X509v3 extensions:
            X509v3 Key Usage: critical
                Digital Signature, Key Encipherment
            X509v3 Extended Key Usage: 
                TLS Web Client Authentication, TLS Web Server Authentication
            X509v3 Basic Constraints: critical
                CA:FALSE
            X509v3 Authority Key Identifier: 
                keyid:01:02:03

            X509v3 Certificate Policies: 
                Policy: 2.23.140.1.2.3

            Authority Information Access: critical
                OCSP - URI:http://ss.symcd.com
                CA Issuers - URI:http://ss.symcb.com/ss.crt

    Signature Algorithm: sha256WithRSAEncryption
         11:a6:91:d6:e7:ef:d8:41:43:9e:68:76:25:1b:80:86:ff:97:
         51:63:de:b0:f7:1f:48:5e:d3:43:73:fb:04:2b:65:b2:fc:06:
         39:98:8b:09:ac:23:c0:48:70:67:d6:b6:58:c9:c4:71:b2:44:
         03:ab:94:0a:11:1b:e5:db:7c:c1:10:bb:e8:fd:77:3b:0a:65:
         8f:3b:e8:79:b8:7a:de:fb:d3:f7:72:30:93:59:4b:bb:b3:8a:
         40:1f:e0:f1:e0:d1:9d:d9:d8:67:03:79:5f:98:15:35:3c:b5:
         f4:58:7a:0e:18:52:9c:4b:10:4b:83:db:d0:d1:a1:ac:4a:d4:
         7e:3c:88:8a:6e:cd:73:2c:46:e7:15:0f:d8:0d:0a:68:a7:1a:
         a0:4d:df:46:68:1e:97:98:d2:63:27:d8:0d:01:12:27:0e:21:
         0f:25:90:71:eb:5c:16:f4:35:a1:e2:08:9f:82:18:85:4e:f4:
         c0:db:c8:d7:91:91:53:be:ec:30:e4:f1:5d:56:aa:09:ec:5c:
         c5:c8:15:67:40:1f:96:42:3a:71:d0:73:37:3d:76:4b:59:38:
         dd:ad:f7:94:c7:76:ac:68:a4:4b:f1:05:07:87:42:e2:41:92:
         43:51:6a:c5:e1:ea:f3:8f:94:91:fe:68:47:a7:ef:84:a2:a1:
         93:b6:8a:bb
-----BEGIN CERTIFICATE-----
MIIEEzCCAv2gAwIBAgIFBDFmk+0wCwYJKoZIhvcNAQELMFQxFjAUBgNVBAMTDU1v
dGhlciBOYXR1cmUxEzARBgNVBAsTCkV2ZXJ5dGhpbmcxFjAUBgNVBAoTDU1vdGhl
ciBOYXR1cmUxCzAJBgNVBAYTAlVTMQAwHhcNMTcwODIzMjI1MTQ1WhcNMTcxMTA0
MjI1MTQ1WjCBgTEPMA0GA1UEAxMGZ292LnVzMQ4wDAYDVQQLEwVDaGFvczEcMBoG
A1UECRMTMzIxMCBIb2xseSBNaWxsIFJ1bjEUMBIGA1UEBxMLVGFsbGFoYXNzZWUx
CzAJBgNVBAgTAkZMMQ4wDAYDVQQREwUzMDA2MjELMAkGA1UEBhMCVVMxADCCASIw
DQYJKoZIhvcNAQEBBQADggEPADCCAQoCggEBAKFORFqlaW/D5cygC+509MxMz4wk
hH6esTa/1JdymDVO1zLfqEsBNTPeDBbhbZapY4NYz63OG/btmJOU1sGZp2i0AkDR
T0g4/F0KQ4ec30PMe/4/bTiBjfO9jKr4u8MUF41+tC+rhdr1yZqfETqgoPFG2mgz
HPSbkBzRcm8ERZEpgdydpqlKGcUOlZ8ss/rRh2+eKuaSKSvVH+DkZVaXFraG1+sM
QiDUIZQRzBsy561frdK2V5yiEtxKUwwNbflbDYkei8eTb5mjY8RN5DnnPV8OGdB2
wyxEDstgvLRG08MSba0M7mFfTqc1K6qYaqQUw+ZMIZ8OW6OoiPbn8rH3mEkCAwEA
AaOBwTCBvjAOBgNVHQ8BAf8EBAMCAKAwHQYDVR0lBBYwFAYIKwYBBQUHAwIGCCsG
AQUFBwMBMAwGA1UdEwEB/wQCMAAwDgYDVR0jBAcwBYADAQIDMBMGA1UdIAQMMAow
CAYGZ4EMAQIDMFoGCCsGAQUFBwEBAQH/BEswSTAfBggrBgEFBQcwAYYTaHR0cDov
L3NzLnN5bWNkLmNvbTAmBggrBgEFBQcwAoYaaHR0cDovL3NzLnN5bWNiLmNvbS9z
cy5jcnQwCwYJKoZIhvcNAQELA4IBAQARppHW5+/YQUOeaHYlG4CG/5dRY96w9x9I
XtNDc/sEK2Wy/AY5mIsJrCPASHBn1rZYycRxskQDq5QKERvl23zBELvo/Xc7CmWP
O+h5uHre+9P3cjCTWUu7s4pAH+Dx4NGd2dhnA3lfmBU1PLX0WHoOGFKcSxBLg9vQ
0aGsStR+PIiKbs1zLEbnFQ/YDQpopxqgTd9GaB6XmNJjJ9gNARInDiEPJZBx61wW
9DWh4gifghiFTvTA28jXkZFTvuww5PFdVqoJ7FzFyBVnQB+WQjpx0HM3PXZLWTjd
rfeUx3asaKRL8QUHh0LiQZJDUWrF4erzj5SR/mhHp++EoqGTtoq7
-----END CERTIFICATE-----
