Certificate:
    Data:
        Version: 3 (0x2)
        Serial Number: 14615016 (0xdf01e8)
    Signature Algorithm: sha256WithRSAEncryption
        Issuer: C = US, O = Mother Nature, OU = Everything, CN = Mother Nature
        Validity
            Not Before: Jul 11 15:24:00 2016 GMT
            Not After : Sep 23 15:24:00 2016 GMT
        Subject: C = US, ST = FL, L = Tallahassee, street = 3210 Holly Mill Run, postalCode = 30062, O = Extreme Discord, OU = Chaos, CN = gov.us
        Subject Public Key Info:
            Public Key Algorithm: id-ecPublicKey
                Public-Key: (224 bit)
                pub:
                    04:ed:16:39:eb:9e:34:d3:f6:9b:16:10:38:9c:e8:
                    81:8c:f8:9c:18:d8:da:92:96:6c:2e:f7:64:e0:1f:
                    df:34:38:e4:ce:6f:00:03:e8:8a:cf:3f:e0:ec:74:
                    6e:6e:dc:44:92:a6:2b:cf:07:cd:bd:a2
                ASN1 OID: secp224r1
                NIST CURVE: P-224
        X509v3 extensions:
            X509v3 Basic Constraints: critical
                CA:FALSE
            X509v3 Authority Key Identifier: 
                keyid:01:02:03

            X509v3 Subject Key Identifier: 
                04:03:02:01
            X509v3 Subject Alternative Name: 
                DNS:*.gov.us, DNS:gov.us
            X509v3 Key Usage: 
                Digital Signature, Certificate Sign, CRL Sign
            X509v3 Extended Key Usage: 
                TLS Web Server Authentication, 1.2.840.113635.100.4.3, Signing KDC Response, Any Extended Key Usage
            X509v3 CRL Distribution Points: 

                Full Name:
                  URI:http://crl.starfieldtech.com/sfig2s1-17.crl

    Signature Algorithm: sha256WithRSAEncryption
         c1:18:62:37:0e:e2:b4:5b:6f:5e:06:a9:05:ea:bd:5f:3b:0d:
         cd:eb:eb:36:de:de:89:91:1e:69:5c:d3:d0:32:e5:99:f9:c1:
         78:30:01:c8:8f:7f:ae:03:7e:68:64:ef:5a:1a:2a:ca:99:9b:
         7a:22:18:e8:75:86:4a:c4:df:e6:44:13:31:42:de:eb:1d:34:
         97:1b:79:07:9f:92:7d:8e:1c:c4:bb:db:50:82:f6:be:d7:57:
         ac:f1:cf:87:c5:20:7e:f7:8b:62:ea:b6:7f:68:3c:e1:16:ca:
         1e:ae:da:98:b6:d0:14:cf:a7:72:3a:fa:17:39:a8:39:d5:8f:
         80:44:cb:dc:80:15:4c:a4:00:b8:32:e9:b9:4b:35:14:36:8b:
         7d:c3:34:90:de:a3:8b:a0:06:2f:2d:c0:2d:d3:8f:f7:18:43:
         14:6f:ee:7d:41:70:8a:a4:15:81:cc:dd:7d:fd:95:b6:07:86:
         b1:1f:0d:64:37:99:9f:9a:38:6a:7b:21:cf:49:fe:92:a8:c3:
         31:af:89:17:c6:d9:4b:d6:94:32:cb:aa:34:4d:14:a7:49:44:
         04:c8:8a:f7:db:74:98:21:df:e8:56:07:2e:0d:7f:58:c6:28:
         ec:8b:ad:ff:77:05:a3:35:1e:22:ec:7b:a4:85:34:c9:2a:46:
         98:cb:fb:f7
-----BEGIN CERTIFICATE-----
MIIDXDCCAkSgAwIBAgIEAN8B6DANBgkqhkiG9w0BAQsFADBSMQswCQYDVQQGEwJV
UzEWMBQGA1UEChMNTW90aGVyIE5hdHVyZTETMBEGA1UECxMKRXZlcnl0aGluZzEW
MBQGA1UEAxMNTW90aGVyIE5hdHVyZTAeFw0xNjA3MTExNTI0MDBaFw0xNjA5MjMx
NTI0MDBaMIGZMQswCQYDVQQGEwJVUzELMAkGA1UECBMCRkwxFDASBgNVBAcTC1Rh
bGxhaGFzc2VlMRwwGgYDVQQJExMzMjEwIEhvbGx5IE1pbGwgUnVuMQ4wDAYDVQQR
EwUzMDA2MjEYMBYGA1UEChMPRXh0cmVtZSBEaXNjb3JkMQ4wDAYDVQQLEwVDaGFv
czEPMA0GA1UEAxMGZ292LnVzME4wEAYHKoZIzj0CAQYFK4EEACEDOgAE7RY56540
0/abFhA4nOiBjPicGNjakpZsLvdk4B/fNDjkzm8AA+iKzz/g7HRubtxEkqYrzwfN
vaKjgccwgcQwDAYDVR0TAQH/BAIwADAOBgNVHSMEBzAFgAMBAgMwDQYDVR0OBAYE
BAQDAgEwGwYDVR0RBBQwEoIIKi5nb3YudXOCBmdvdi51czALBgNVHQ8EBAMCAYYw
LQYDVR0lBCYwJAYIKwYBBQUHAwEGCSqGSIb3Y2QEAwYHKwYBBQIDBQYEVR0lADA8
BgNVHR8ENTAzMDGgL6AthitodHRwOi8vY3JsLnN0YXJmaWVsZHRlY2guY29tL3Nm
aWcyczEtMTcuY3JsMA0GCSqGSIb3DQEBCwUAA4IBAQDBGGI3DuK0W29eBqkF6r1f
Ow3N6+s23t6JkR5pXNPQMuWZ+cF4MAHIj3+uA35oZO9aGirKmZt6IhjodYZKxN/m
RBMxQt7rHTSXG3kHn5J9jhzEu9tQgva+11es8c+HxSB+94ti6rZ/aDzhFsoertqY
ttAUz6dyOvoXOag51Y+ARMvcgBVMpAC4Mum5SzUUNot9wzSQ3qOLoAYvLcAt04/3
GEMUb+59QXCKpBWBzN19/ZW2B4axHw1kN5mfmjhqeyHPSf6SqMMxr4kXxtlL1pQy
y6o0TRSnSUQEyIr323SYId/oVgcuDX9Yxijsi63/dwWjNR4i7HukhTTJKkaYy/v3
-----END CERTIFICATE-----
