Certificate:
    Data:
        Version: 3 (0x2)
        Serial Number: 18008675309 (0x4316693ed)
    Signature Algorithm: sha256WithRSAEncryption
        Issuer: C = US, O = Mother Nature, OU = Everything, CN = Mother Nature
        Validity
            Not Before: Jul  1 19:47:26 2016 GMT
            Not After : Sep 13 19:47:26 2016 GMT
        Subject: C = US, ST = FL, L = Tallahassee, street = 3210 Holly Mill Run, postalCode = 30062, O = Extreme Discord, OU = Chaos, CN = gov.us
        Subject Public Key Info:
            Public Key Algorithm: rsaEncryption
                Public-Key: (2048 bit)
                Modulus:
                    00:cf:c6:8c:5c:52:ba:a9:dc:68:fd:4f:30:80:59:
                    66:25:cc:03:5d:aa:2a:96:04:ee:2d:bd:34:8c:37:
                    46:99:cf:55:30:a3:7a:44:52:58:fc:88:08:7f:39:
                    87:10:3a:95:48:48:2c:d7:72:af:35:ac:3f:d8:3c:
                    29:6a:e6:76:e8:c1:51:24:51:65:bb:35:d2:16:d5:
                    3d:71:90:f4:cf:63:54:94:10:f9:31:10:75:20:da:
                    94:1a:2f:df:27:20:9c:92:a5:3a:15:aa:a1:a8:b9:
                    74:f8:95:08:00:86:f5:fa:63:e6:51:f5:ef:23:78:
                    f1:0c:50:a1:d2:09:ff:d4:e7:0b:d0:69:20:08:64:
                    c2:c1:d9:7c:a9:29:ca:95:bf:8f:3d:09:bc:37:3e:
                    90:b1:29:37:bd:fc:23:4c:17:0e:f4:a2:5e:8e:7d:
                    c6:79:2a:6e:12:ad:c9:51:f3:a6:9b:84:02:c9:8d:
                    2f:e5:0d:22:5f:78:14:04:7e:32:10:0a:32:57:75:
                    f2:23:42:50:f7:64:ac:08:4e:d4:74:74:d3:f6:20:
                    84:cb:dd:0e:eb:3f:88:50:33:b9:24:5b:61:4d:16:
                    8d:89:1b:34:2d:02:72:e7:e9:f6:f8:d8:dc:d6:b3:
                    60:28:1d:cb:73:bf:8a:49:20:66:31:aa:ec:a9:f0:
                    07:bb
                Exponent: 65537 (0x10001)
        X509v3 extensions:
            X509v3 Authority Key Identifier: 
                keyid:01:02:03

            X509v3 Subject Key Identifier: 
                04:03:02:01
            X509v3 Subject Alternative Name: 
                DNS:*.gov.us, DNS:gov.us
            X509v3 Key Usage: 
                Digital Signature, Certificate Sign, CRL Sign
            X509v3 Basic Constraints: critical
                CA:TRUE
    Signature Algorithm: sha256WithRSAEncryption
         5c:30:b0:33:b5:f4:d1:d4:db:c7:27:75:52:13:f7:68:69:2b:
         57:84:fb:f7:57:9c:37:70:0a:9f:d1:ca:2e:bd:9f:55:9f:6b:
         5f:ca:8a:c2:91:12:22:94:92:b1:ca:de:22:7c:2b:78:f2:f9:
         3f:29:50:2b:9b:9a:15:25:87:11:68:fe:38:0d:0b:11:54:0c:
         91:7f:29:24:b2:d9:bd:11:01:74:e4:81:22:5a:28:4d:75:c5:
         21:ed:0b:e8:66:83:8e:da:77:df:2f:6e:9a:74:f3:33:77:33:
         50:d9:19:7b:f7:ea:82:85:36:17:27:14:bf:e9:f1:78:d9:74:
         9b:15:04:83:e4:55:05:ea:f3:96:b2:bb:1d:80:1a:1a:b8:da:
         56:ad:ab:42:81:f6:ad:6f:16:53:48:53:9c:18:e4:26:08:9a:
         28:53:ff:1d:d7:9b:4c:39:67:27:c7:a2:7b:de:4d:8a:e7:b7:
         b4:84:6e:17:a7:2a:ea:54:4a:d5:6f:15:30:bc:9b:bd:3d:e9:
         9b:75:82:ff:29:ec:69:95:ea:af:12:11:29:44:7c:41:a2:05:
         96:4d:27:24:8f:16:e4:bd:eb:ed:b5:c3:28:1d:6e:71:70:cc:
         18:d3:e7:bd:f0:10:b0:0a:6b:c3:c8:b1:b6:5b:27:af:77:4d:
         d9:ba:82:f5
-----BEGIN CERTIFICATE-----
MIIDxzCCAq+gAwIBAgIFBDFmk+0wDQYJKoZIhvcNAQELBQAwUjELMAkGA1UEBhMC
VVMxFjAUBgNVBAoTDU1vdGhlciBOYXR1cmUxEzARBgNVBAsTCkV2ZXJ5dGhpbmcx
FjAUBgNVBAMTDU1vdGhlciBOYXR1cmUwHhcNMTYwNzAxMTk0NzI2WhcNMTYwOTEz
MTk0NzI2WjCBmTELMAkGA1UEBhMCVVMxCzAJBgNVBAgTAkZMMRQwEgYDVQQHEwtU
YWxsYWhhc3NlZTEcMBoGA1UECRMTMzIxMCBIb2xseSBNaWxsIFJ1bjEOMAwGA1UE
ERMFMzAwNjIxGDAWBgNVBAoTD0V4dHJlbWUgRGlzY29yZDEOMAwGA1UECxMFQ2hh
b3MxDzANBgNVBAMTBmdvdi51czCCASIwDQYJKoZIhvcNAQEBBQADggEPADCCAQoC
ggEBAM/GjFxSuqncaP1PMIBZZiXMA12qKpYE7i29NIw3RpnPVTCjekRSWPyICH85
hxA6lUhILNdyrzWsP9g8KWrmdujBUSRRZbs10hbVPXGQ9M9jVJQQ+TEQdSDalBov
3ycgnJKlOhWqoai5dPiVCACG9fpj5lH17yN48QxQodIJ/9TnC9BpIAhkwsHZfKkp
ypW/jz0JvDc+kLEpN738I0wXDvSiXo59xnkqbhKtyVHzppuEAsmNL+UNIl94FAR+
MhAKMld18iNCUPdkrAhO1HR00/YghMvdDus/iFAzuSRbYU0WjYkbNC0Ccufp9vjY
3NazYCgdy3O/ikkgZjGq7KnwB7sCAwEAAaNcMFowDgYDVR0jBAcwBYADAQIDMA0G
A1UdDgQGBAQEAwIBMBsGA1UdEQQUMBKCCCouZ292LnVzggZnb3YudXMwCwYDVR0P
BAQDAgGGMA8GA1UdEwEB/wQFMAMBAf8wDQYJKoZIhvcNAQELBQADggEBAFwwsDO1
9NHU28cndVIT92hpK1eE+/dXnDdwCp/Ryi69n1Wfa1/KisKREiKUkrHK3iJ8K3jy
+T8pUCubmhUlhxFo/jgNCxFUDJF/KSSy2b0RAXTkgSJaKE11xSHtC+hmg47ad98v
bpp08zN3M1DZGXv36oKFNhcnFL/p8XjZdJsVBIPkVQXq85ayux2AGhq42latq0KB
9q1vFlNIU5wY5CYImihT/x3Xm0w5ZyfHonveTYrnt7SEbhenKupUStVvFTC8m709
6Zt1gv8p7GmV6q8SESlEfEGiBZZNJySPFuS96+21wygdbnFwzBjT573wELAKa8PI
sbZbJ693Tdm6gvU=
-----END CERTIFICATE-----
