Certificate:
    Data:
        Version: 3 (0x2)
        Serial Number: 18008675309 (0x4316693ed)
    Signature Algorithm: sha256WithRSAEncryption
        Issuer: C = US, O = Mother Nature, OU = Everything, CN = Mother Nature
        Validity
            Not Before: Jul  5 15:19:09 2016 GMT
            Not After : Sep 17 15:19:09 2016 GMT
        Subject: C = US, ST = FL, L = Tallahassee, street = 3210 Holly Mill Run, postalCode = 30062, O = Extreme Discord, OU = Chaos, CN = gov.us
        Subject Public Key Info:
            Public Key Algorithm: rsaEncryption
                Public-Key: (2048 bit)
                Modulus:
                    00:a8:76:cd:85:47:cc:51:ea:64:b1:6f:ef:3f:ca:
                    61:93:3f:1b:19:6c:58:5e:e6:05:77:1b:75:37:2f:
                    de:f8:fc:24:23:0a:e5:d5:52:a0:a7:33:f7:96:e0:
                    28:a1:16:6d:e0:9f:47:fa:6b:40:dd:b5:fc:a0:4d:
                    a9:b4:30:54:f1:02:d3:b9:07:0f:72:5a:d5:41:8f:
                    9e:f3:e7:6d:13:db:1b:ce:6a:70:b3:1f:77:ea:ff:
                    f1:5c:b1:64:7c:1e:bb:96:36:62:1f:f6:37:cd:df:
                    a5:bc:b8:3b:36:61:93:3d:7e:56:b1:e4:2e:3c:2a:
                    9b:54:5e:ca:e0:b0:6c:9c:14:53:a2:7a:08:c0:52:
                    78:78:e0:50:18:d3:c7:d9:e8:77:be:5c:57:1c:7f:
                    36:d7:2e:7b:2c:0c:7f:be:ee:2d:ef:0f:59:d8:4d:
                    e5:ff:7f:07:13:d9:84:4a:22:ac:bc:d1:fd:f8:3a:
                    42:aa:81:16:c8:98:ae:d9:1e:bb:d7:16:68:4c:91:
                    3d:d7:b5:b9:ef:3d:5f:1b:ef:23:05:63:1a:e9:55:
                    e3:77:74:c8:c5:bc:cf:10:08:f7:d7:da:4f:cf:bf:
                    f6:ee:fd:dc:65:b9:7a:0a:b1:d6:59:24:e7:e4:ed:
                    2b:ce:d9:69:88:6c:57:17:ac:80:80:69:2b:64:89:
                    af:31
                Exponent: 65537 (0x10001)
        X509v3 extensions:
            X509v3 Basic Constraints: critical
                CA:FALSE
            X509v3 Authority Key Identifier: 
                keyid:01:02:03

            X509v3 Subject Key Identifier: 
                04:03:02:01
            X509v3 Subject Alternative Name: 
                DNS:*.gov.us, DNS:gov.us
            X509v3 Key Usage: 
                Digital Signature, Certificate Sign, CRL Sign
    Signature Algorithm: sha256WithRSAEncryption
         74:b1:f5:2a:14:1b:9e:19:a6:b9:de:5e:fa:25:80:d9:73:e1:
         f3:68:e7:6d:15:34:99:9f:b8:23:be:90:e0:06:38:f4:25:50:
         fa:20:bb:fb:02:da:c4:f2:f3:dd:3f:97:62:c5:8d:8e:03:60:
         e5:0e:db:ec:8a:e1:4c:16:8b:24:da:a4:4f:a8:1e:40:d0:61:
         d9:33:df:7a:db:51:3e:63:28:34:d3:6e:53:8e:2f:4b:ae:70:
         71:3f:8d:0c:38:42:0b:26:7d:68:98:dc:96:12:b1:2a:02:3b:
         7e:bd:1a:62:a7:47:ca:d1:a4:e0:ba:a5:73:ec:b9:a6:e8:71:
         38:30:15:15:89:ca:02:0e:31:19:05:0e:83:91:0e:f4:7d:d4:
         09:9b:7d:c4:68:f4:71:1d:98:eb:80:e0:07:29:3f:9a:46:61:
         1b:12:fd:b7:94:ea:2b:2a:1d:10:56:47:c2:f0:96:53:ca:5f:
         cf:93:bf:8f:37:25:7c:b2:34:d0:04:43:04:ec:14:1b:09:9a:
         ae:ab:f1:9e:c0:ad:b4:04:f8:d1:0f:95:d5:84:6b:e4:38:c2:
         74:b7:f0:94:46:24:e0:ee:6b:1d:fe:bc:44:4d:9a:fd:3a:8b:
         a7:fc:d5:d1:79:8b:71:45:f1:50:37:fc:9a:db:d7:0a:23:2b:
         7c:3e:88:35
-----BEGIN CERTIFICATE-----
MIIDxDCCAqygAwIBAgIFBDFmk+0wDQYJKoZIhvcNAQELBQAwUjELMAkGA1UEBhMC
VVMxFjAUBgNVBAoTDU1vdGhlciBOYXR1cmUxEzARBgNVBAsTCkV2ZXJ5dGhpbmcx
FjAUBgNVBAMTDU1vdGhlciBOYXR1cmUwHhcNMTYwNzA1MTUxOTA5WhcNMTYwOTE3
MTUxOTA5WjCBmTELMAkGA1UEBhMCVVMxCzAJBgNVBAgTAkZMMRQwEgYDVQQHEwtU
YWxsYWhhc3NlZTEcMBoGA1UECRMTMzIxMCBIb2xseSBNaWxsIFJ1bjEOMAwGA1UE
ERMFMzAwNjIxGDAWBgNVBAoTD0V4dHJlbWUgRGlzY29yZDEOMAwGA1UECxMFQ2hh
b3MxDzANBgNVBAMTBmdvdi51czCCASIwDQYJKoZIhvcNAQEBBQADggEPADCCAQoC
ggEBAKh2zYVHzFHqZLFv7z/KYZM/GxlsWF7mBXcbdTcv3vj8JCMK5dVSoKcz95bg
KKEWbeCfR/prQN21/KBNqbQwVPEC07kHD3Ja1UGPnvPnbRPbG85qcLMfd+r/8Vyx
ZHweu5Y2Yh/2N83fpby4OzZhkz1+VrHkLjwqm1ReyuCwbJwUU6J6CMBSeHjgUBjT
x9nod75cVxx/NtcueywMf77uLe8PWdhN5f9/BxPZhEoirLzR/fg6QqqBFsiYrtke
u9cWaEyRPde1ue89XxvvIwVjGulV43d0yMW8zxAI99faT8+/9u793GW5egqx1lkk
5+TtK87ZaYhsVxesgIBpK2SJrzECAwEAAaNZMFcwDAYDVR0TAQH/BAIwADAOBgNV
HSMEBzAFgAMBAgMwDQYDVR0OBAYEBAQDAgEwGwYDVR0RBBQwEoIIKi5nb3YudXOC
Bmdvdi51czALBgNVHQ8EBAMCAYYwDQYJKoZIhvcNAQELBQADggEBAHSx9SoUG54Z
prneXvolgNlz4fNo520VNJmfuCO+kOAGOPQlUPogu/sC2sTy890/l2LFjY4DYOUO
2+yK4UwWiyTapE+oHkDQYdkz33rbUT5jKDTTblOOL0uucHE/jQw4QgsmfWiY3JYS
sSoCO369GmKnR8rRpOC6pXPsuabocTgwFRWJygIOMRkFDoORDvR91AmbfcRo9HEd
mOuA4AcpP5pGYRsS/beU6isqHRBWR8LwllPKX8+Tv483JXyyNNAEQwTsFBsJmq6r
8Z7ArbQE+NEPldWEa+Q4wnS38JRGJODuax3+vERNmv06i6f81dF5i3FF8VA3/Jrb
1wojK3w+iDU=
-----END CERTIFICATE-----
