Certificate:
    Data:
        Version: 3 (0x2)
        Serial Number: 18008675309 (0x4316693ed)
    Signature Algorithm: sha256WithRSAEncryption
        Issuer: C = US, O = Mother Nature, OU = Everything, CN = Mother Nature
        Validity
            Not Before: Jul  1 19:40:00 2016 GMT
            Not After : Sep 13 19:40:00 2016 GMT
        Subject: C = US, ST = FL, L = Tallahassee, street = 3210 Holly Mill Run, postalCode = 30062, O = Extreme Discord, OU = Chaos, CN = gov.us
        Subject Public Key Info:
            Public Key Algorithm: rsaEncryption
                Public-Key: (2048 bit)
                Modulus:
                    00:df:39:72:d9:91:70:f1:c2:4f:b4:2f:0b:d8:14:
                    e2:91:55:56:36:80:66:54:b0:a7:cb:e9:d4:cd:e6:
                    7d:ab:e7:ff:75:78:00:58:bd:7d:8a:f4:db:8d:19:
                    59:c8:51:a7:96:2b:da:af:bb:fd:c3:c6:34:1c:7f:
                    2e:5b:ca:7e:cf:68:5b:ad:a2:9e:1d:ef:45:0b:7a:
                    38:bd:f2:db:05:c3:06:b0:6d:86:e1:cc:85:ed:c6:
                    ce:60:0e:c2:1c:38:fc:1a:ea:52:4c:8b:0d:49:35:
                    ea:e4:21:db:ce:66:e8:27:c5:0d:e2:24:b8:67:84:
                    3d:a2:82:c2:03:b5:6c:2b:6c:49:fd:67:56:59:9e:
                    b8:7f:94:52:fb:34:fa:0e:fc:03:0d:2b:dd:d4:82:
                    26:7a:ff:d4:93:56:4f:63:d5:ea:0d:30:3f:4e:98:
                    78:4e:ec:cf:4d:81:07:02:75:4c:7f:73:a4:e7:5b:
                    9f:6d:b5:2a:69:2f:07:f3:2d:b0:4a:b1:8b:bd:37:
                    25:f8:89:5a:99:48:c7:cb:fc:bb:06:5d:f2:42:3f:
                    8d:7f:66:31:aa:c9:58:48:eb:88:f5:22:58:7d:1a:
                    fb:ee:4f:ca:00:20:05:a2:1b:81:da:fc:de:0d:5e:
                    43:b6:68:ee:91:83:06:32:63:a2:3f:23:65:2e:1a:
                    3b:bb
                Exponent: 65537 (0x10001)
        X509v3 extensions:
            X509v3 Authority Key Identifier: 
                keyid:01:02:03

            X509v3 Subject Key Identifier: 
                04:03:02:01
            X509v3 Subject Alternative Name: 
                DNS:*.gov.us, DNS:gov.us
            X509v3 Key Usage: 
                Digital Signature, Certificate Sign, CRL Sign
            X509v3 Basic Constraints: critical
                CA:TRUE
            Authority Information Access: critical
                OCSP - URI:http://ocsp.starfieldtech.com/
                CA Issuers - URI:http://certificates.starfieldtech.com/repository/sfig2.crt

    Signature Algorithm: sha256WithRSAEncryption
         13:75:61:90:0f:4f:2c:e7:a7:04:17:04:83:2e:d3:7a:31:76:
         ba:e5:4d:98:3a:1b:bf:0a:55:08:5c:0a:07:06:5e:f3:ee:11:
         14:60:49:ae:7d:4d:67:95:53:ab:a6:43:86:ce:4b:63:e6:84:
         05:e1:d0:81:f5:88:f0:a8:39:4e:fe:12:80:56:81:f1:e5:52:
         2d:fb:2c:14:4d:67:68:ea:58:9a:a2:9d:2a:ff:a5:ce:42:bd:
         68:7f:e0:05:49:49:a6:10:b9:2d:c0:fe:62:f0:6f:5f:0a:23:
         b2:6b:e6:6b:37:ce:9b:ba:5c:e6:d7:de:ef:2a:73:8f:da:86:
         87:22:cc:58:ab:6b:60:0d:5b:05:d2:17:cd:6a:c9:56:9a:5e:
         de:46:04:3a:2a:30:f4:73:15:ca:0d:6c:cb:f0:6c:73:08:65:
         b7:3f:8b:67:1d:6c:a1:ad:a9:85:cd:9d:20:df:9a:e3:05:cb:
         b0:60:0f:a9:73:7d:05:a5:87:61:82:1f:07:e1:9d:77:1f:af:
         65:2f:2c:72:bf:40:c3:b9:23:db:10:53:7c:19:51:b2:7c:95:
         29:77:98:b4:09:ff:aa:72:17:a3:6e:5d:90:36:bb:32:be:05:
         e4:86:7a:7f:03:53:b9:61:e5:33:35:7c:75:34:fe:bd:dd:bd:
         99:dc:f1:36
-----BEGIN CERTIFICATE-----
MIIEUTCCAzmgAwIBAgIFBDFmk+0wDQYJKoZIhvcNAQELBQAwUjELMAkGA1UEBhMC
VVMxFjAUBgNVBAoTDU1vdGhlciBOYXR1cmUxEzARBgNVBAsTCkV2ZXJ5dGhpbmcx
FjAUBgNVBAMTDU1vdGhlciBOYXR1cmUwHhcNMTYwNzAxMTk0MDAwWhcNMTYwOTEz
MTk0MDAwWjCBmTELMAkGA1UEBhMCVVMxCzAJBgNVBAgTAkZMMRQwEgYDVQQHEwtU
YWxsYWhhc3NlZTEcMBoGA1UECRMTMzIxMCBIb2xseSBNaWxsIFJ1bjEOMAwGA1UE
ERMFMzAwNjIxGDAWBgNVBAoTD0V4dHJlbWUgRGlzY29yZDEOMAwGA1UECxMFQ2hh
b3MxDzANBgNVBAMTBmdvdi51czCCASIwDQYJKoZIhvcNAQEBBQADggEPADCCAQoC
ggEBAN85ctmRcPHCT7QvC9gU4pFVVjaAZlSwp8vp1M3mfavn/3V4AFi9fYr0240Z
WchRp5Yr2q+7/cPGNBx/LlvKfs9oW62inh3vRQt6OL3y2wXDBrBthuHMhe3GzmAO
whw4/BrqUkyLDUk16uQh285m6CfFDeIkuGeEPaKCwgO1bCtsSf1nVlmeuH+UUvs0
+g78Aw0r3dSCJnr/1JNWT2PV6g0wP06YeE7sz02BBwJ1TH9zpOdbn221KmkvB/Mt
sEqxi703JfiJWplIx8v8uwZd8kI/jX9mMarJWEjriPUiWH0a++5PygAgBaIbgdr8
3g1eQ7Zo7pGDBjJjoj8jZS4aO7sCAwEAAaOB5TCB4jAOBgNVHSMEBzAFgAMBAgMw
DQYDVR0OBAYEBAQDAgEwGwYDVR0RBBQwEoIIKi5nb3YudXOCBmdvdi51czALBgNV
HQ8EBAMCAYYwDwYDVR0TAQH/BAUwAwEB/zCBhQYIKwYBBQUHAQEBAf8EdjB0MCoG
CCsGAQUFBzABhh5odHRwOi8vb2NzcC5zdGFyZmllbGR0ZWNoLmNvbS8wRgYIKwYB
BQUHMAKGOmh0dHA6Ly9jZXJ0aWZpY2F0ZXMuc3RhcmZpZWxkdGVjaC5jb20vcmVw
b3NpdG9yeS9zZmlnMi5jcnQwDQYJKoZIhvcNAQELBQADggEBABN1YZAPTyznpwQX
BIMu03oxdrrlTZg6G78KVQhcCgcGXvPuERRgSa59TWeVU6umQ4bOS2PmhAXh0IH1
iPCoOU7+EoBWgfHlUi37LBRNZ2jqWJqinSr/pc5CvWh/4AVJSaYQuS3A/mLwb18K
I7Jr5ms3zpu6XObX3u8qc4/ahocizFira2ANWwXSF81qyVaaXt5GBDoqMPRzFcoN
bMvwbHMIZbc/i2cdbKGtqYXNnSDfmuMFy7BgD6lzfQWlh2GCHwfhnXcfr2UvLHK/
QMO5I9sQU3wZUbJ8lSl3mLQJ/6pyF6NuXZA2uzK+BeSGen8DU7lh5TM1fHU0/r3d
vZnc8TY=
-----END CERTIFICATE-----
