Certificate:
    Data:
        Version: 3 (0x2)
        Serial Number: 18008675309 (0x4316693ed)
    Signature Algorithm: sha256WithRSAEncryption
        Issuer: C=US, O=Mother Nature, OU=Everything, CN=Mother Nature
        Validity
            Not Before: Aug 23 22:08:32 2017 GMT
            Not After : Nov  4 22:08:32 2017 GMT
        Subject: C=US, ST=FL, L=Tallahassee/street=3210 Holly Mill Run/postalCode=30062, O=Extreme Discord, OU=Chaos, CN=gov.us
        Subject Public Key Info:
            Public Key Algorithm: rsaEncryption
                Public-Key: (2048 bit)
                Modulus:
                    00:c5:6c:bc:d7:89:b1:58:40:cc:e8:bd:85:52:c1:
                    6b:ef:26:9a:0d:ef:47:a6:2a:e6:6a:0e:7d:b6:67:
                    93:65:b7:c2:6f:5c:64:20:33:bd:6d:56:20:1a:0b:
                    cc:8b:3d:81:56:7f:a5:f1:dd:94:a2:51:be:3f:d4:
                    d9:d2:08:c2:e3:cd:a7:57:70:d0:43:91:aa:42:ae:
                    94:6b:d5:a9:93:92:75:ea:0d:c9:52:71:28:fe:44:
                    12:21:a4:23:8e:85:7f:01:98:3f:bc:c6:a5:ab:8c:
                    df:5b:29:0f:bd:59:27:a6:f5:3c:07:c4:b4:82:59:
                    41:39:23:16:f3:b2:86:7c:11:b4:02:f0:dc:4c:4a:
                    9d:24:9c:fd:e8:48:ad:15:91:04:08:85:6f:93:c9:
                    a9:69:f0:d9:d1:55:e1:e7:54:91:d4:1d:7c:43:48:
                    02:b5:d7:47:6b:30:ea:49:02:83:3e:2e:4b:d3:ea:
                    c6:97:4c:75:29:1e:a9:05:d0:34:d6:c7:70:b8:3b:
                    e0:06:d8:22:19:92:5e:eb:ef:29:51:88:8f:c7:6f:
                    72:4e:3d:79:40:15:9f:a1:23:87:1e:dd:fb:07:fd:
                    0a:62:8b:f5:3d:25:62:26:bd:a6:b7:0f:e6:ea:94:
                    ec:d9:9b:c2:f5:4b:ae:8c:55:ae:07:83:a5:7d:5f:
                    a1:89
                Exponent: 65537 (0x10001)
        X509v3 extensions:
            X509v3 Key Usage: critical
                Digital Signature, Key Encipherment
            X509v3 Basic Constraints: critical
                CA:TRUE
            X509v3 Authority Key Identifier: 
                keyid:01:02:03

            X509v3 Certificate Policies: 
                Policy: 2.23.140.1.2.2

            Authority Information Access: critical
                OCSP - URI:http://ss.symcd.com
                CA Issuers - URI:http://ss.symcb.com/ss.crt

    Signature Algorithm: sha256WithRSAEncryption
         25:f4:b3:39:bb:ba:0a:12:22:b6:24:66:2f:9b:9d:ee:4e:a3:
         80:e5:30:8f:b7:d7:0e:9e:7d:dd:53:82:74:c6:87:56:e8:5c:
         0d:f9:88:8e:79:ea:ac:bb:69:4f:e7:50:52:ec:b3:f1:15:76:
         6d:c5:a0:eb:20:c4:58:8c:11:43:e9:dd:51:18:b2:1c:40:bc:
         94:5e:25:b4:69:01:e1:74:99:41:27:02:af:2d:38:82:ee:c5:
         81:b1:ed:43:89:4c:91:c7:3d:ed:13:d3:2a:9b:77:54:6e:bf:
         6b:47:64:17:10:e4:bb:31:9f:ff:e1:12:0b:42:9c:b5:15:8b:
         d1:82:a1:26:eb:d8:41:54:60:88:04:5a:ef:52:70:ed:55:74:
         27:63:64:44:ae:a6:b0:61:1e:97:80:54:80:40:b7:c6:41:6e:
         c9:3b:e7:c8:f0:a7:7d:92:e4:d8:dd:56:32:90:81:44:d5:79:
         01:04:45:a9:77:31:59:47:d0:1d:51:a8:be:41:4a:38:48:9b:
         4e:26:e8:5b:72:36:cb:3e:48:fe:6a:84:ad:d9:05:b9:a8:7e:
         14:3d:0a:3a:b1:13:04:64:de:fe:40:5a:7d:fb:44:34:a3:27:
         83:1d:8a:62:e0:1e:44:01:6e:e0:d5:10:53:e8:55:9c:78:2e:
         66:c5:a7:57
-----BEGIN CERTIFICATE-----
MIIEETCCAvmgAwIBAgIFBDFmk+0wDQYJKoZIhvcNAQELBQAwUjELMAkGA1UEBhMC
VVMxFjAUBgNVBAoTDU1vdGhlciBOYXR1cmUxEzARBgNVBAsTCkV2ZXJ5dGhpbmcx
FjAUBgNVBAMTDU1vdGhlciBOYXR1cmUwHhcNMTcwODIzMjIwODMyWhcNMTcxMTA0
MjIwODMyWjCBmTELMAkGA1UEBhMCVVMxCzAJBgNVBAgTAkZMMRQwEgYDVQQHEwtU
YWxsYWhhc3NlZTEcMBoGA1UECRMTMzIxMCBIb2xseSBNaWxsIFJ1bjEOMAwGA1UE
ERMFMzAwNjIxGDAWBgNVBAoTD0V4dHJlbWUgRGlzY29yZDEOMAwGA1UECxMFQ2hh
b3MxDzANBgNVBAMTBmdvdi51czCCASIwDQYJKoZIhvcNAQEBBQADggEPADCCAQoC
ggEBAMVsvNeJsVhAzOi9hVLBa+8mmg3vR6Yq5moOfbZnk2W3wm9cZCAzvW1WIBoL
zIs9gVZ/pfHdlKJRvj/U2dIIwuPNp1dw0EORqkKulGvVqZOSdeoNyVJxKP5EEiGk
I46FfwGYP7zGpauM31spD71ZJ6b1PAfEtIJZQTkjFvOyhnwRtALw3ExKnSSc/ehI
rRWRBAiFb5PJqWnw2dFV4edUkdQdfENIArXXR2sw6kkCgz4uS9PqxpdMdSkeqQXQ
NNbHcLg74AbYIhmSXuvvKVGIj8dvck49eUAVn6Ejhx7d+wf9CmKL9T0lYia9prcP
5uqU7NmbwvVLroxVrgeDpX1foYkCAwEAAaOBpTCBojAOBgNVHQ8BAf8EBAMCBaAw
DwYDVR0TAQH/BAUwAwEB/zAOBgNVHSMEBzAFgAMBAgMwEwYDVR0gBAwwCjAIBgZn
gQwBAgIwWgYIKwYBBQUHAQEBAf8ESzBJMB8GCCsGAQUFBzABhhNodHRwOi8vc3Mu
c3ltY2QuY29tMCYGCCsGAQUFBzAChhpodHRwOi8vc3Muc3ltY2IuY29tL3NzLmNy
dDANBgkqhkiG9w0BAQsFAAOCAQEAJfSzObu6ChIitiRmL5ud7k6jgOUwj7fXDp59
3VOCdMaHVuhcDfmIjnnqrLtpT+dQUuyz8RV2bcWg6yDEWIwRQ+ndURiyHEC8lF4l
tGkB4XSZQScCry04gu7FgbHtQ4lMkcc97RPTKpt3VG6/a0dkFxDkuzGf/+ESC0Kc
tRWL0YKhJuvYQVRgiARa71Jw7VV0J2NkRK6msGEel4BUgEC3xkFuyTvnyPCnfZLk
2N1WMpCBRNV5AQRFqXcxWUfQHVGovkFKOEibTiboW3I2yz5I/mqErdkFuah+FD0K
OrETBGTe/kBafftENKMngx2KYuAeRAFu4NUQU+hVnHguZsWnVw==
-----END CERTIFICATE-----
