Certificate:
    Data:
        Version: 3 (0x2)
        Serial Number: 18008675309 (0x4316693ed)
    Signature Algorithm: sha256WithRSAEncryption
        Issuer: C = US, O = Mother Nature, OU = Everything, CN = Mother Nature
        Validity
            Not Before: Jun 29 19:38:40 2016 GMT
            Not After : Sep 10 19:38:40 2016 GMT
        Subject: C = US, ST = FL, L = Tallahassee, street = 3210 Holly Mill Run, postalCode = 30062, O = Extreme Discord, OU = Chaos, CN = gov.us
        Subject Public Key Info:
            Public Key Algorithm: rsaEncryption
                Public-Key: (2048 bit)
                Modulus:
                    00:dd:05:d7:70:78:ce:7b:99:4d:88:2c:a8:07:2e:
                    80:e0:8e:b9:66:e7:48:c7:30:5f:4e:12:7d:f1:9e:
                    58:f9:ed:00:ba:f1:e5:6e:02:79:5c:4a:22:68:3b:
                    98:e3:57:c1:9f:5b:3a:7f:4b:1f:74:9f:1a:92:c2:
                    d7:d0:a4:2c:3a:14:8c:a8:10:8a:c8:51:8c:56:eb:
                    d2:c1:7b:48:4e:88:3e:6e:f8:3e:e1:79:02:03:a1:
                    24:95:54:1e:a3:2d:29:9a:80:1e:1f:d6:20:4b:43:
                    29:17:3c:e4:78:02:4b:2b:74:77:37:e3:06:e2:64:
                    ab:a3:4a:72:f2:34:0a:2e:4f:e0:c8:0e:7f:0d:7a:
                    45:9d:8b:0d:9a:9c:cb:30:0a:65:6e:0e:16:cc:22:
                    97:22:96:7e:0f:d4:24:34:d1:93:47:f3:74:5f:d5:
                    e4:2f:2a:87:3c:2c:5b:99:81:42:c6:62:3a:4a:f0:
                    64:2c:89:7a:ef:48:cc:4a:b8:a0:c7:73:e9:81:34:
                    f5:e2:5d:3a:47:0d:5c:47:fe:38:d6:07:1c:3f:6f:
                    5b:57:4a:f4:d6:8d:3b:ed:12:07:f9:b3:bc:06:b6:
                    5f:9b:27:a5:4c:95:f5:e9:27:c0:1e:ed:60:b2:11:
                    4a:d7:c8:c6:54:8c:a2:67:a9:fd:da:7c:1c:95:8f:
                    17:fd
                Exponent: 65537 (0x10001)
        X509v3 extensions:
            X509v3 Key Usage: critical
                Digital Signature, Key Encipherment
            X509v3 Extended Key Usage: 
                TLS Web Client Authentication, TLS Web Server Authentication
            X509v3 Basic Constraints: critical
                CA:FALSE
            X509v3 Authority Key Identifier: 
                keyid:01:02:03

            Authority Information Access: 
                OCSP - URI:http://theca.net/ocsp
                CA Issuers - URI:http://theca.net/totallythecert.crt

            X509v3 Subject Key Identifier: 
                04:03:02:01
            X509v3 Subject Alternative Name: 
                DNS:*.gov.us, DNS:gov.us
    Signature Algorithm: sha256WithRSAEncryption
         85:2a:e1:76:0f:82:16:7a:18:e8:cc:ff:55:94:85:f6:12:8b:
         40:af:57:d0:26:af:74:9f:aa:16:92:e2:33:96:4b:07:e0:ec:
         3b:ed:48:d0:6f:d2:63:2c:3c:e6:bc:db:57:3c:5f:a0:af:d5:
         b2:bb:69:4a:96:e0:ea:7e:86:96:38:f9:b4:72:09:95:65:2d:
         c2:57:94:8e:fe:7d:7a:86:b0:a9:f1:68:64:08:93:37:be:bc:
         9d:b2:8f:d5:d1:5f:bb:0a:aa:0d:ed:47:3c:02:9b:f4:7a:19:
         ed:70:bf:e3:92:f1:37:e9:18:02:cb:1d:d0:47:00:53:87:d4:
         9a:1b:5e:82:56:1d:00:ad:ab:65:a7:05:10:34:3a:1d:6a:40:
         45:fb:7b:fc:6d:f8:d9:4d:1f:b7:12:05:b0:db:96:cb:b4:b5:
         02:57:56:d3:e8:4c:cc:35:72:36:4f:44:bd:30:67:fa:5b:e0:
         5b:5a:cf:4a:69:1d:d4:05:10:cd:fe:33:cd:0a:62:1e:f2:cc:
         33:c5:06:9e:68:29:85:59:a0:a1:4f:b9:39:e4:ce:8a:c0:bd:
         25:10:d7:3a:9a:e4:64:f8:3b:72:98:e5:51:0e:40:56:34:fe:
         25:aa:1b:bd:58:c3:00:76:e1:93:f1:1d:aa:0c:6c:67:20:bb:
         c2:80:ef:cf
-----BEGIN CERTIFICATE-----
MIIETDCCAzSgAwIBAgIFBDFmk+0wDQYJKoZIhvcNAQELBQAwUjELMAkGA1UEBhMC
VVMxFjAUBgNVBAoTDU1vdGhlciBOYXR1cmUxEzARBgNVBAsTCkV2ZXJ5dGhpbmcx
FjAUBgNVBAMTDU1vdGhlciBOYXR1cmUwHhcNMTYwNjI5MTkzODQwWhcNMTYwOTEw
MTkzODQwWjCBmTELMAkGA1UEBhMCVVMxCzAJBgNVBAgTAkZMMRQwEgYDVQQHEwtU
YWxsYWhhc3NlZTEcMBoGA1UECRMTMzIxMCBIb2xseSBNaWxsIFJ1bjEOMAwGA1UE
ERMFMzAwNjIxGDAWBgNVBAoTD0V4dHJlbWUgRGlzY29yZDEOMAwGA1UECxMFQ2hh
b3MxDzANBgNVBAMTBmdvdi51czCCASIwDQYJKoZIhvcNAQEBBQADggEPADCCAQoC
ggEBAN0F13B4znuZTYgsqAcugOCOuWbnSMcwX04SffGeWPntALrx5W4CeVxKImg7
mONXwZ9bOn9LH3SfGpLC19CkLDoUjKgQishRjFbr0sF7SE6IPm74PuF5AgOhJJVU
HqMtKZqAHh/WIEtDKRc85HgCSyt0dzfjBuJkq6NKcvI0Ci5P4MgOfw16RZ2LDZqc
yzAKZW4OFswilyKWfg/UJDTRk0fzdF/V5C8qhzwsW5mBQsZiOkrwZCyJeu9IzEq4
oMdz6YE09eJdOkcNXEf+ONYHHD9vW1dK9NaNO+0SB/mzvAa2X5snpUyV9eknwB7t
YLIRStfIxlSMomep/dp8HJWPF/0CAwEAAaOB4DCB3TAOBgNVHQ8BAf8EBAMCBaAw
HQYDVR0lBBYwFAYIKwYBBQUHAwIGCCsGAQUFBwMBMAwGA1UdEwEB/wQCMAAwDgYD
VR0jBAcwBYADAQIDMGIGCCsGAQUFBwEBBFYwVDAhBggrBgEFBQcwAYYVaHR0cDov
L3RoZWNhLm5ldC9vY3NwMC8GCCsGAQUFBzAChiNodHRwOi8vdGhlY2EubmV0L3Rv
dGFsbHl0aGVjZXJ0LmNydDANBgNVHQ4EBgQEBAMCATAbBgNVHREEFDASgggqLmdv
di51c4IGZ292LnVzMA0GCSqGSIb3DQEBCwUAA4IBAQCFKuF2D4IWehjozP9VlIX2
EotAr1fQJq90n6oWkuIzlksH4Ow77UjQb9JjLDzmvNtXPF+gr9Wyu2lKluDqfoaW
OPm0cgmVZS3CV5SO/n16hrCp8WhkCJM3vrydso/V0V+7CqoN7Uc8Apv0ehntcL/j
kvE36RgCyx3QRwBTh9SaG16CVh0AratlpwUQNDodakBF+3v8bfjZTR+3EgWw25bL
tLUCV1bT6EzMNXI2T0S9MGf6W+BbWs9KaR3UBRDN/jPNCmIe8swzxQaeaCmFWaCh
T7k55M6KwL0lENc6muRk+DtymOVRDkBWNP4lqhu9WMMAduGT8R2qDGxnILvCgO/P
-----END CERTIFICATE-----
