Certificate:
    Data:
        Version: 3 (0x2)
        Serial Number: 18008675309 (0x4316693ed)
    Signature Algorithm: sha256WithRSAEncryption
        Issuer: CN=Mother Nature, OU=Everything, O=Mother Nature/postalCode=postalcode, C=US, GN=givenname, SN=surname
        Validity
            Not Before: Aug 24 04:19:47 2017 GMT
            Not After : Nov  5 04:19:47 2017 GMT
        Subject: CN=gov.us, OU=Chaos, O=org/street=3210 Holly Mill Run, ST=province/postalCode=30062, C=US, GN=hello, SN=surname
        Subject Public Key Info:
            Public Key Algorithm: rsaEncryption
                Public-Key: (2048 bit)
                Modulus:
                    00:d6:93:8a:05:de:d7:af:c4:88:4f:62:ed:e7:2d:
                    f4:68:06:6b:32:ff:f3:da:3a:2d:1f:33:31:49:a6:
                    3e:c5:58:f3:2b:4b:89:ec:67:f7:64:a0:5c:8c:4d:
                    5a:12:31:f5:60:57:9b:60:4d:32:e2:36:70:53:6c:
                    b8:97:74:6c:f7:2b:cd:fc:ba:6a:0e:43:b6:75:2e:
                    7e:7a:d8:b1:a2:1f:c7:8f:84:82:0f:0b:05:ea:99:
                    8d:39:f2:9b:bf:d6:c4:c5:9e:47:d2:66:b3:7d:db:
                    5f:65:03:f6:dc:b5:8b:4f:01:2b:5f:15:cf:bf:9c:
                    5a:38:64:09:7f:6a:a4:ab:23:a4:26:75:a0:95:9b:
                    63:d4:2a:35:33:40:84:33:df:be:a0:9b:60:41:2c:
                    92:1a:c6:fa:07:d8:2d:d7:0f:9f:49:22:65:6b:09:
                    ca:8e:07:ff:5a:8b:bb:db:18:6e:5a:6f:07:37:0c:
                    fa:dd:5a:4a:7f:45:9c:de:65:36:f5:aa:69:38:69:
                    ec:02:d5:98:e5:4d:54:b2:d7:3a:0a:80:83:6e:b5:
                    be:67:06:14:11:78:c6:e0:22:67:a7:cd:fa:40:d0:
                    f5:6f:89:59:d0:3b:59:fb:89:74:d4:44:a6:81:f8:
                    ba:fb:d5:28:41:90:39:17:92:90:ec:f0:ef:70:e6:
                    66:4f
                Exponent: 65537 (0x10001)
        X509v3 extensions:
            X509v3 Key Usage: critical
                Digital Signature, Key Encipherment
            X509v3 Extended Key Usage: 
                TLS Web Client Authentication, TLS Web Server Authentication
            X509v3 Basic Constraints: critical
                CA:FALSE
            X509v3 Authority Key Identifier: 
                keyid:01:02:03

            X509v3 Certificate Policies: 
                Policy: 2.23.140.1.2.3

            Authority Information Access: critical
                OCSP - URI:http://ss.symcd.com
                CA Issuers - URI:http://ss.symcb.com/ss.crt

    Signature Algorithm: sha256WithRSAEncryption
         d2:59:7d:2d:c5:91:34:49:0c:df:52:8d:e3:de:1b:9e:cf:e0:
         00:0d:2d:5f:8d:7f:bc:90:dd:74:31:51:06:46:85:96:cd:7f:
         85:3a:50:85:13:bf:32:8e:c7:47:26:ca:f9:07:5d:30:a9:47:
         1c:46:08:23:5a:cb:58:30:37:56:22:ce:ef:7a:47:e8:49:07:
         2c:37:28:30:74:b8:f2:f8:f2:01:63:5e:70:1d:46:8e:b7:60:
         6d:7e:f2:89:71:73:78:5d:5c:d9:41:0e:c2:12:f8:2b:59:70:
         d8:48:2d:e7:da:b2:47:24:fc:73:a1:45:95:14:fb:34:c9:74:
         44:1a:ba:f7:33:18:c9:da:bf:1b:81:70:89:ac:f7:f6:93:26:
         f8:5c:ee:22:59:15:98:ff:12:e0:09:1b:cb:5e:7d:a6:0a:06:
         a5:f2:25:15:3f:03:66:00:3e:6c:6a:f2:8e:94:ba:a1:02:3c:
         c6:b6:1b:34:d4:d4:e1:16:02:5b:8b:f0:58:f1:86:8c:2d:97:
         7e:9d:50:8e:69:ea:04:e2:33:b9:ab:a1:2a:30:69:71:2a:2e:
         bf:7c:fd:07:a6:b8:c9:83:09:f2:bb:5e:6a:56:19:15:7d:b1:
         db:a0:42:a4:a9:23:05:c5:a9:25:11:4d:c7:ad:54:b0:e1:02:
         70:5e:2d:73
-----BEGIN CERTIFICATE-----
MIIEbzCCA1mgAwIBAgIFBDFmk+0wCwYJKoZIhvcNAQELMIGPMRYwFAYDVQQDEw1N
b3RoZXIgTmF0dXJlMRMwEQYDVQQLEwpFdmVyeXRoaW5nMRYwFAYDVQQKEw1Nb3Ro
ZXIgTmF0dXJlMRMwEQYDVQQREwpwb3N0YWxjb2RlMQswCQYDVQQGEwJVUzESMBAG
A1UEKhMJZ2l2ZW5uYW1lMRAwDgYDVQQEEwdzdXJuYW1lMQAwHhcNMTcwODI0MDQx
OTQ3WhcNMTcxMTA1MDQxOTQ3WjCBoTEPMA0GA1UEAxMGZ292LnVzMQ4wDAYDVQQL
EwVDaGFvczEMMAoGA1UEChMDb3JnMRwwGgYDVQQJExMzMjEwIEhvbGx5IE1pbGwg
UnVuMREwDwYDVQQIEwhwcm92aW5jZTEOMAwGA1UEERMFMzAwNjIxCzAJBgNVBAYT
AlVTMQ4wDAYDVQQqEwVoZWxsbzEQMA4GA1UEBBMHc3VybmFtZTEAMIIBIjANBgkq
hkiG9w0BAQEFAAOCAQ8AMIIBCgKCAQEA1pOKBd7Xr8SIT2Lt5y30aAZrMv/z2jot
HzMxSaY+xVjzK0uJ7Gf3ZKBcjE1aEjH1YFebYE0y4jZwU2y4l3Rs9yvN/LpqDkO2
dS5+etixoh/Hj4SCDwsF6pmNOfKbv9bExZ5H0mazfdtfZQP23LWLTwErXxXPv5xa
OGQJf2qkqyOkJnWglZtj1Co1M0CEM9++oJtgQSySGsb6B9gt1w+fSSJlawnKjgf/
Wou72xhuWm8HNwz63VpKf0Wc3mU29appOGnsAtWY5U1Ustc6CoCDbrW+ZwYUEXjG
4CJnp836QND1b4lZ0DtZ+4l01ESmgfi6+9UoQZA5F5KQ7PDvcOZmTwIDAQABo4HB
MIG+MA4GA1UdDwEB/wQEAwIAoDAdBgNVHSUEFjAUBggrBgEFBQcDAgYIKwYBBQUH
AwEwDAYDVR0TAQH/BAIwADAOBgNVHSMEBzAFgAMBAgMwEwYDVR0gBAwwCjAIBgZn
gQwBAgMwWgYIKwYBBQUHAQEBAf8ESzBJMB8GCCsGAQUFBzABhhNodHRwOi8vc3Mu
c3ltY2QuY29tMCYGCCsGAQUFBzAChhpodHRwOi8vc3Muc3ltY2IuY29tL3NzLmNy
dDALBgkqhkiG9w0BAQsDggEBANJZfS3FkTRJDN9SjePeG57P4AANLV+Nf7yQ3XQx
UQZGhZbNf4U6UIUTvzKOx0cmyvkHXTCpRxxGCCNay1gwN1Yizu96R+hJByw3KDB0
uPL48gFjXnAdRo63YG1+8olxc3hdXNlBDsIS+CtZcNhILefaskck/HOhRZUU+zTJ
dEQauvczGMnavxuBcIms9/aTJvhc7iJZFZj/EuAJG8tefaYKBqXyJRU/A2YAPmxq
8o6UuqECPMa2GzTU1OEWAluL8Fjxhowtl36dUI5p6gTiM7mroSowaXEqLr98/Qem
uMmDCfK7XmpWGRV9sdugQqSpIwXFqSURTcetVLDhAnBeLXM=
-----END CERTIFICATE-----
