Certificate:
    Data:
        Version: 3 (0x2)
        Serial Number: 18008675984 (0x431669690)
    Signature Algorithm: sha256WithRSAEncryption
        Issuer: C = US, O = Mother Nature, OU = Everything, CN = Mother Nature
        Validity
            Not Before: Jul  6 15:52:12 2016 GMT
            Not After : Sep 18 15:52:12 2016 GMT
        Subject: C = US, ST = FL, L = Tallahassee, street = 3210 Holly Mill Run, postalCode = 30062, O = Extreme Discord, OU = Chaos, CN = gov.us
        Subject Public Key Info:
            Public Key Algorithm: rsaEncryption
                Public-Key: (2048 bit)
                Modulus:
                    00:d5:c7:65:29:87:cb:47:01:c0:b3:e2:ac:fb:98:
                    51:a6:46:5f:35:d3:e7:4f:40:07:8c:c1:4b:5b:e1:
                    9e:00:f1:91:21:30:66:35:7b:6f:3e:9b:8d:35:17:
                    03:ef:41:6b:94:ee:67:4a:9e:96:90:b3:ba:d6:aa:
                    eb:de:64:84:7d:a6:3a:80:b2:30:2d:f4:e5:d2:47:
                    b8:98:4d:9c:fc:8b:8a:e6:ad:7b:bd:a7:89:b1:3e:
                    c4:23:8b:82:df:9d:c8:c0:da:ae:0b:5d:a8:df:e6:
                    e6:d7:80:50:60:2c:89:12:02:19:4f:d6:fd:92:ce:
                    22:a8:e9:70:be:dc:1d:3f:33:d0:41:69:51:1b:44:
                    76:de:dc:b1:df:06:b9:1a:5a:75:a9:0f:0c:6b:83:
                    40:66:ec:7c:3c:a0:6f:1f:e7:37:50:ea:65:12:ba:
                    1d:e8:cb:42:59:05:94:54:9b:ef:8c:81:77:fa:89:
                    13:3b:56:35:29:76:1b:e1:e8:36:79:96:b2:92:2c:
                    d0:09:0b:bd:8b:0e:e0:b7:d8:48:bc:de:33:1c:48:
                    6d:66:6d:00:7f:f8:9a:97:ef:72:f5:41:bd:60:b7:
                    28:8d:6c:d6:aa:78:19:fb:d9:df:cc:a3:7c:c0:8d:
                    8d:9d:31:99:05:f5:bb:00:c7:8b:5c:5d:2d:57:01:
                    7c:31
                Exponent: 65537 (0x10001)
        X509v3 extensions:
            X509v3 Extended Key Usage: 
                TLS Web Client Authentication, TLS Web Server Authentication
            X509v3 Basic Constraints: critical
                CA:FALSE
            X509v3 Authority Key Identifier: 
                keyid:01:02:03

            Authority Information Access: 
                OCSP - URI:http://theca.net/ocsp
                CA Issuers - URI:http://theca.net/totallythecert.crt

            X509v3 Certificate Policies: 
                Policy: 1.3.6.1.5.5.7.13.1
                Policy: 2.23.140.1.2.2

            X509v3 Subject Key Identifier: 
                04:03:02:01
            X509v3 Subject Alternative Name: 
                DNS:*.gov.us, DNS:gov.us
            X509v3 Issuer Alternative Name: 
                DNS:allthethings.net, DNS:theca.net
    Signature Algorithm: sha256WithRSAEncryption
         86:9c:ff:78:8e:ae:0d:01:4d:5e:98:fd:6f:3f:44:68:4b:ed:
         dc:bc:82:ac:df:f4:17:f2:63:da:6c:6c:12:1d:7b:cf:5c:9a:
         4e:8e:9a:82:04:d0:d0:8d:3d:a6:d0:da:7e:a9:4a:db:92:65:
         6f:63:47:14:fe:05:d2:d1:c7:2e:d8:2b:14:de:ce:b3:cd:db:
         09:92:be:b5:e8:98:76:f8:f4:a3:db:39:3e:ef:ce:ec:a7:00:
         69:c9:48:b6:aa:45:49:86:db:4d:e6:b1:23:53:54:39:50:a4:
         1f:59:69:85:03:45:fe:77:d2:ea:55:ee:dd:9b:40:be:24:cd:
         9b:14:d6:93:b4:cd:ea:d8:f7:7d:32:33:15:3c:ce:d7:eb:de:
         18:12:f7:44:cd:c6:17:e9:bf:1e:a8:fd:d6:b7:6b:60:06:e8:
         99:5e:fe:d7:f3:d7:55:4e:f5:49:57:7d:a1:54:50:1d:e6:bb:
         2f:af:3e:89:85:35:19:80:93:9f:b6:f0:c9:10:0d:dd:5f:bd:
         6c:80:97:a1:68:bd:26:cc:7b:2e:01:c1:3c:4f:92:d0:65:3c:
         57:94:70:be:dd:88:2a:0a:da:da:00:da:9f:4b:53:58:30:23:
         b9:4c:1c:41:45:5b:3f:40:cc:f3:eb:14:bd:3d:39:a7:0f:0d:
         dc:d4:36:8c
-----BEGIN CERTIFICATE-----
MIIEhzCCA2+gAwIBAgIFBDFmlpAwDQYJKoZIhvcNAQELBQAwUjELMAkGA1UEBhMC
VVMxFjAUBgNVBAoTDU1vdGhlciBOYXR1cmUxEzARBgNVBAsTCkV2ZXJ5dGhpbmcx
FjAUBgNVBAMTDU1vdGhlciBOYXR1cmUwHhcNMTYwNzA2MTU1MjEyWhcNMTYwOTE4
MTU1MjEyWjCBmTELMAkGA1UEBhMCVVMxCzAJBgNVBAgTAkZMMRQwEgYDVQQHEwtU
YWxsYWhhc3NlZTEcMBoGA1UECRMTMzIxMCBIb2xseSBNaWxsIFJ1bjEOMAwGA1UE
ERMFMzAwNjIxGDAWBgNVBAoTD0V4dHJlbWUgRGlzY29yZDEOMAwGA1UECxMFQ2hh
b3MxDzANBgNVBAMTBmdvdi51czCCASIwDQYJKoZIhvcNAQEBBQADggEPADCCAQoC
ggEBANXHZSmHy0cBwLPirPuYUaZGXzXT509AB4zBS1vhngDxkSEwZjV7bz6bjTUX
A+9Ba5TuZ0qelpCzutaq695khH2mOoCyMC305dJHuJhNnPyLiuate72nibE+xCOL
gt+dyMDargtdqN/m5teAUGAsiRICGU/W/ZLOIqjpcL7cHT8z0EFpURtEdt7csd8G
uRpadakPDGuDQGbsfDygbx/nN1DqZRK6HejLQlkFlFSb74yBd/qJEztWNSl2G+Ho
NnmWspIs0AkLvYsO4LfYSLzeMxxIbWZtAH/4mpfvcvVBvWC3KI1s1qp4GfvZ38yj
fMCNjZ0xmQX1uwDHi1xdLVcBfDECAwEAAaOCARowggEWMB0GA1UdJQQWMBQGCCsG
AQUFBwMCBggrBgEFBQcDATAMBgNVHRMBAf8EAjAAMA4GA1UdIwQHMAWAAwECAzBi
BggrBgEFBQcBAQRWMFQwIQYIKwYBBQUHMAGGFWh0dHA6Ly90aGVjYS5uZXQvb2Nz
cDAvBggrBgEFBQcwAoYjaHR0cDovL3RoZWNhLm5ldC90b3RhbGx5dGhlY2VydC5j
cnQwHwYDVR0gBBgwFjAKBggrBgEFBQcNATAIBgZngQwBAgIwDQYDVR0OBAYEBAQD
AgEwGwYDVR0RBBQwEoIIKi5nb3YudXOCBmdvdi51czAmBgNVHRIEHzAdghBhbGx0
aGV0aGluZ3MubmV0ggl0aGVjYS5uZXQwDQYJKoZIhvcNAQELBQADggEBAIac/3iO
rg0BTV6Y/W8/RGhL7dy8gqzf9BfyY9psbBIde89cmk6OmoIE0NCNPabQ2n6pStuS
ZW9jRxT+BdLRxy7YKxTezrPN2wmSvrXomHb49KPbOT7vzuynAGnJSLaqRUmG203m
sSNTVDlQpB9ZaYUDRf530upV7t2bQL4kzZsU1pO0zerY930yMxU8ztfr3hgS90TN
xhfpvx6o/da3a2AG6Jle/tfz11VO9UlXfaFUUB3muy+vPomFNRmAk5+28MkQDd1f
vWyAl6FovSbMey4BwTxPktBlPFeUcL7diCoK2toA2p9LU1gwI7lMHEFFWz9AzPPr
FL09OacPDdzUNow=
-----END CERTIFICATE-----
