Certificate:
    Data:
        Version: 3 (0x2)
        Serial Number: 18008675309 (0x4316693ed)
    Signature Algorithm: sha256WithRSAEncryption
        Issuer: C = US, O = Mother Nature, OU = Everything, CN = Mother Nature
        Validity
            Not Before: Jul  6 15:27:22 2016 GMT
            Not After : Sep 18 15:27:22 2016 GMT
        Subject: C = US, ST = FL, L = Tallahassee, street = 3210 Holly Mill Run, postalCode = 30062, O = Extreme Discord, OU = Chaos, CN = gov.us
        Subject Public Key Info:
            Public Key Algorithm: rsaEncryption
                Public-Key: (2048 bit)
                Modulus:
                    00:c0:a9:f5:62:1b:ad:8a:20:98:8e:9a:e5:b4:97:
                    2a:2f:8d:5c:b4:aa:b3:a2:c0:7b:87:33:e8:60:0e:
                    b1:15:1f:26:bf:70:ac:2c:e6:ff:1d:9a:b1:36:69:
                    fe:41:4e:cd:d7:92:84:bd:65:92:05:06:4f:63:6a:
                    22:d8:a5:61:3a:f7:50:61:b2:d8:d8:f7:74:f4:bc:
                    03:f5:12:6d:9e:61:65:a2:61:bb:10:58:18:86:ad:
                    e0:5f:12:f5:c9:db:00:a5:37:04:4d:db:2f:fd:bf:
                    42:4e:83:fc:ee:4c:13:9c:98:07:dd:76:b9:ec:0d:
                    c3:b4:d3:ea:65:5b:84:1d:89:f0:f2:04:98:30:9b:
                    06:b3:a3:5c:b7:36:fd:eb:e6:f0:42:76:3e:07:73:
                    0d:50:b2:63:c7:ab:69:7b:8c:11:66:4a:17:1d:82:
                    4f:08:b7:b6:23:30:9d:26:53:c3:08:42:23:5b:80:
                    ab:d3:94:93:f9:ce:d8:98:af:62:59:ed:57:82:4b:
                    13:99:cb:b6:75:ac:19:cd:a4:d3:ca:b3:a9:3d:ba:
                    bd:df:13:b3:4a:df:a8:78:1f:a7:7e:5e:41:40:00:
                    22:9f:f7:fc:48:4a:3a:31:eb:a8:1b:f7:8e:d2:56:
                    b7:54:3a:d4:4b:af:21:6e:ab:de:94:a6:aa:c6:f5:
                    0b:a7
                Exponent: 65537 (0x10001)
        X509v3 extensions:
            X509v3 Basic Constraints: critical
                CA:TRUE
            X509v3 Authority Key Identifier: 
                keyid:01:02:03

            X509v3 Subject Key Identifier: 
                04:03:02:01
            X509v3 Subject Alternative Name: 
                DNS:*.gov.us, DNS:gov.us
            X509v3 Key Usage: 
                Digital Signature, Certificate Sign, CRL Sign
            X509v3 Extended Key Usage: critical
                TLS Web Server Authentication, TLS Web Client Authentication
    Signature Algorithm: sha256WithRSAEncryption
         92:e5:98:49:08:13:a4:57:11:0f:24:e0:3b:2f:22:07:9e:73:
         ac:bb:07:ed:6a:cb:6f:41:f9:8e:78:96:85:75:fc:02:05:ba:
         ca:94:c6:c8:3e:7f:c0:b4:da:a1:7f:74:53:93:97:17:06:30:
         5f:cd:f2:5c:19:5f:e9:c3:c9:fe:a8:64:83:e8:f7:36:28:38:
         f1:8b:46:1c:ff:f6:6c:8a:b8:b1:b7:94:a2:43:97:4e:cb:bd:
         16:be:66:38:1a:42:f3:fa:1c:cd:c6:6e:d5:9a:b9:23:e9:4d:
         2a:46:fa:de:06:0c:df:03:94:90:67:31:39:f3:55:59:81:06:
         19:04:57:50:8b:f6:71:65:3b:66:b7:a0:7f:51:4b:91:d1:16:
         d2:8a:06:f6:58:1e:b4:62:05:d2:08:cc:67:41:64:e0:06:f1:
         d9:b8:1f:0b:31:38:ca:35:9b:99:cd:67:f0:00:65:94:ed:90:
         87:97:1c:a6:60:0b:6d:cd:ab:8d:a4:d6:97:62:bb:f5:51:ee:
         49:30:e5:4c:19:81:75:32:65:50:f3:ed:53:56:86:19:e3:00:
         cf:56:d9:0c:c2:ec:5d:b0:4e:d3:b2:2c:7f:c6:8e:b6:92:70:
         14:0e:30:0f:3f:68:b6:71:48:0e:08:ac:33:1d:74:a6:36:34:
         33:2f:3d:96
-----BEGIN CERTIFICATE-----
MIID6TCCAtGgAwIBAgIFBDFmk+0wDQYJKoZIhvcNAQELBQAwUjELMAkGA1UEBhMC
VVMxFjAUBgNVBAoTDU1vdGhlciBOYXR1cmUxEzARBgNVBAsTCkV2ZXJ5dGhpbmcx
FjAUBgNVBAMTDU1vdGhlciBOYXR1cmUwHhcNMTYwNzA2MTUyNzIyWhcNMTYwOTE4
MTUyNzIyWjCBmTELMAkGA1UEBhMCVVMxCzAJBgNVBAgTAkZMMRQwEgYDVQQHEwtU
YWxsYWhhc3NlZTEcMBoGA1UECRMTMzIxMCBIb2xseSBNaWxsIFJ1bjEOMAwGA1UE
ERMFMzAwNjIxGDAWBgNVBAoTD0V4dHJlbWUgRGlzY29yZDEOMAwGA1UECxMFQ2hh
b3MxDzANBgNVBAMTBmdvdi51czCCASIwDQYJKoZIhvcNAQEBBQADggEPADCCAQoC
ggEBAMCp9WIbrYogmI6a5bSXKi+NXLSqs6LAe4cz6GAOsRUfJr9wrCzm/x2asTZp
/kFOzdeShL1lkgUGT2NqItilYTr3UGGy2Nj3dPS8A/USbZ5hZaJhuxBYGIat4F8S
9cnbAKU3BE3bL/2/Qk6D/O5ME5yYB912uewNw7TT6mVbhB2J8PIEmDCbBrOjXLc2
/evm8EJ2PgdzDVCyY8eraXuMEWZKFx2CTwi3tiMwnSZTwwhCI1uAq9OUk/nO2Jiv
YlntV4JLE5nLtnWsGc2k08qzqT26vd8Ts0rfqHgfp35eQUAAIp/3/EhKOjHrqBv3
jtJWt1Q61EuvIW6r3pSmqsb1C6cCAwEAAaN+MHwwDwYDVR0TAQH/BAUwAwEB/zAO
BgNVHSMEBzAFgAMBAgMwDQYDVR0OBAYEBAQDAgEwGwYDVR0RBBQwEoIIKi5nb3Yu
dXOCBmdvdi51czALBgNVHQ8EBAMCAYYwIAYDVR0lAQH/BBYwFAYIKwYBBQUHAwEG
CCsGAQUFBwMCMA0GCSqGSIb3DQEBCwUAA4IBAQCS5ZhJCBOkVxEPJOA7LyIHnnOs
uwftastvQfmOeJaFdfwCBbrKlMbIPn/AtNqhf3RTk5cXBjBfzfJcGV/pw8n+qGSD
6Pc2KDjxi0Yc//Zsirixt5SiQ5dOy70WvmY4GkLz+hzNxm7Vmrkj6U0qRvreBgzf
A5SQZzE581VZgQYZBFdQi/ZxZTtmt6B/UUuR0RbSigb2WB60YgXSCMxnQWTgBvHZ
uB8LMTjKNZuZzWfwAGWU7ZCHlxymYAttzauNpNaXYrv1Ue5JMOVMGYF1MmVQ8+1T
VoYZ4wDPVtkMwuxdsE7Tsix/xo62knAUDjAPP2i2cUgOCKwzHXSmNjQzLz2W
-----END CERTIFICATE-----
