Certificate:
    Data:
        Version: 3 (0x2)
        Serial Number: 18008675309 (0x4316693ed)
    Signature Algorithm: sha256WithRSAEncryption
        Issuer: C=US, O=Mother Nature, OU=Everything, CN=Mother Nature
        Validity
            Not Before: Aug 22 14:58:41 2017 GMT
            Not After : Nov  3 14:58:41 2017 GMT
        Subject: C=US, ST=FL, L=Tallahassee/street=3210 Holly Mill Run/postalCode=30062, O=Extreme Discord, OU=Chaos, CN=gov.us
        Subject Public Key Info:
            Public Key Algorithm: rsaEncryption
                Public-Key: (2048 bit)
                Modulus:
                    00:b6:75:5e:d1:b2:0d:02:6e:76:78:c6:29:2d:c8:
                    d0:63:9d:cb:1c:ee:b9:2c:69:40:6b:97:4f:cf:03:
                    64:39:13:ec:24:25:c7:1f:9f:94:54:ef:e5:8f:c5:
                    b5:b4:6b:d5:41:ba:a8:da:b8:20:88:99:8f:d6:59:
                    bc:06:b1:b2:46:c6:71:fe:b9:a9:fc:88:54:dc:16:
                    83:35:02:eb:7b:aa:88:32:f1:6d:51:b4:fe:f5:cc:
                    b1:55:3b:ed:01:b1:8c:2b:be:fa:41:86:5d:61:7b:
                    b7:50:13:9e:3e:87:dd:b4:4b:94:8b:35:f8:38:73:
                    6e:7c:d2:a4:b8:22:84:05:3a:42:44:f5:2c:7b:ae:
                    44:1f:a0:15:59:51:38:d7:62:f8:06:56:b7:65:4f:
                    e5:30:26:db:b8:5b:a7:60:ba:d4:bc:14:cd:58:bf:
                    8e:14:08:00:6b:41:6d:6f:55:b5:39:1e:48:d3:1e:
                    ba:f9:a9:88:bb:f0:78:03:66:67:57:6d:73:cd:bc:
                    57:47:71:13:9c:32:cb:4e:77:5f:9e:50:d5:a3:1d:
                    12:76:1f:22:a7:d4:39:ba:e5:d6:18:2b:79:71:a2:
                    9c:d2:cf:0c:ab:1f:13:34:f3:51:d8:a3:5a:55:70:
                    6c:93:08:a5:77:9b:a6:3e:45:3b:ed:b2:ec:cb:22:
                    33:ff
                Exponent: 65537 (0x10001)
        X509v3 extensions:
            X509v3 Key Usage: critical
                Digital Signature, Key Encipherment
            X509v3 Extended Key Usage: 
                TLS Web Client Authentication, TLS Web Server Authentication
            X509v3 Basic Constraints: critical
                CA:TRUE
            X509v3 Authority Key Identifier: 
                keyid:01:02:03

            X509v3 Certificate Policies: 
                Policy: 2.23.140.1.2.2

            Authority Information Access: 
                CA Issuers - URI:http://cdp1.pca.dfn.de/global-root-ca/pub/cacert/cacert.crt
                CA Issuers - URI:http://cdp2.pca.dfn.de/global-root-ca/pub/cacert/cacert.crt

    Signature Algorithm: sha256WithRSAEncryption
         87:58:5f:e5:96:b1:c6:b3:e5:ec:4c:7e:b6:a1:8a:37:3d:ed:
         18:82:b9:08:8a:eb:da:d0:85:36:8a:92:58:7f:31:d9:7b:08:
         0c:9d:d7:1d:70:a4:ba:ee:e7:8a:3b:66:b3:23:1f:60:f5:7f:
         67:e9:d2:88:12:32:cd:77:b4:e6:cd:24:0d:88:89:70:76:a3:
         01:6b:4b:67:3a:f4:c8:44:0e:1d:e4:48:f6:33:e3:f2:e5:41:
         48:d2:08:da:d5:93:65:c7:91:50:e9:38:46:44:54:98:11:e9:
         1e:d7:45:26:72:1d:39:db:2d:2b:2d:81:c8:99:28:d1:9c:6d:
         9b:30:4f:43:e8:67:bd:10:3f:2a:26:14:d7:8a:87:45:73:18:
         4f:16:3d:17:a1:3c:bc:b7:68:63:49:50:52:ed:19:b6:43:09:
         b8:2c:1f:ac:59:a6:1c:6f:d3:4d:78:95:e4:3a:c0:05:22:1a:
         54:3b:92:d4:f6:73:71:c3:cc:9a:52:ef:f8:aa:9d:e2:13:4c:
         ee:22:a2:0b:65:fb:bb:76:7b:80:37:37:7e:5f:a4:5f:2a:29:
         8e:a8:33:76:eb:35:14:20:35:b7:39:30:97:68:b8:df:ab:9e:
         20:7f:b5:42:4b:ec:e9:b0:5c:ff:fe:81:ad:9e:ed:24:d8:39:
         ed:71:63:4a
-----BEGIN CERTIFICATE-----
MIIEezCCA2OgAwIBAgIFBDFmk+0wDQYJKoZIhvcNAQELBQAwUjELMAkGA1UEBhMC
VVMxFjAUBgNVBAoTDU1vdGhlciBOYXR1cmUxEzARBgNVBAsTCkV2ZXJ5dGhpbmcx
FjAUBgNVBAMTDU1vdGhlciBOYXR1cmUwHhcNMTcwODIyMTQ1ODQxWhcNMTcxMTAz
MTQ1ODQxWjCBmTELMAkGA1UEBhMCVVMxCzAJBgNVBAgTAkZMMRQwEgYDVQQHEwtU
YWxsYWhhc3NlZTEcMBoGA1UECRMTMzIxMCBIb2xseSBNaWxsIFJ1bjEOMAwGA1UE
ERMFMzAwNjIxGDAWBgNVBAoTD0V4dHJlbWUgRGlzY29yZDEOMAwGA1UECxMFQ2hh
b3MxDzANBgNVBAMTBmdvdi51czCCASIwDQYJKoZIhvcNAQEBBQADggEPADCCAQoC
ggEBALZ1XtGyDQJudnjGKS3I0GOdyxzuuSxpQGuXT88DZDkT7CQlxx+flFTv5Y/F
tbRr1UG6qNq4IIiZj9ZZvAaxskbGcf65qfyIVNwWgzUC63uqiDLxbVG0/vXMsVU7
7QGxjCu++kGGXWF7t1ATnj6H3bRLlIs1+DhzbnzSpLgihAU6QkT1LHuuRB+gFVlR
ONdi+AZWt2VP5TAm27hbp2C61LwUzVi/jhQIAGtBbW9VtTkeSNMeuvmpiLvweANm
Z1dtc828V0dxE5wyy053X55Q1aMdEnYfIqfUObrl1hgreXGinNLPDKsfEzTzUdij
WlVwbJMIpXebpj5FO+2y7MsiM/8CAwEAAaOCAQ4wggEKMA4GA1UdDwEB/wQEAwIF
oDAdBgNVHSUEFjAUBggrBgEFBQcDAgYIKwYBBQUHAwEwDwYDVR0TAQH/BAUwAwEB
/zAOBgNVHSMEBzAFgAMBAgMwEwYDVR0gBAwwCjAIBgZngQwBAgIwgaIGCCsGAQUF
BwEBBIGVMIGSMEcGCCsGAQUFBzAChjtodHRwOi8vY2RwMS5wY2EuZGZuLmRlL2ds
b2JhbC1yb290LWNhL3B1Yi9jYWNlcnQvY2FjZXJ0LmNydDBHBggrBgEFBQcwAoY7
aHR0cDovL2NkcDIucGNhLmRmbi5kZS9nbG9iYWwtcm9vdC1jYS9wdWIvY2FjZXJ0
L2NhY2VydC5jcnQwDQYJKoZIhvcNAQELBQADggEBAIdYX+WWscaz5exMfrahijc9
7RiCuQiK69rQhTaKklh/Mdl7CAyd1x1wpLru54o7ZrMjH2D1f2fp0ogSMs13tObN
JA2IiXB2owFrS2c69MhEDh3kSPYz4/LlQUjSCNrVk2XHkVDpOEZEVJgR6R7XRSZy
HTnbLSstgciZKNGcbZswT0PoZ70QPyomFNeKh0VzGE8WPRehPLy3aGNJUFLtGbZD
CbgsH6xZphxv0014leQ6wAUiGlQ7ktT2c3HDzJpS7/iqneITTO4iogtl+7t2e4A3
N35fpF8qKY6oM3brNRQgNbc5MJdouN+rniB/tUJL7OmwXP/+ga2e7STYOe1xY0o=
-----END CERTIFICATE-----
