Certificate:
    Data:
        Version: 3 (0x2)
        Serial Number: 18008675309 (0x4316693ed)
    Signature Algorithm: sha256WithRSAEncryption
        Issuer: C = US, O = Mother Nature, OU = Everything, CN = Mother Nature
        Validity
            Not Before: Jun 29 19:33:19 2016 GMT
            Not After : Sep 10 19:33:19 2016 GMT
        Subject: CN = gov.us
        Subject Public Key Info:
            Public Key Algorithm: rsaEncryption
                Public-Key: (2048 bit)
                Modulus:
                    00:c7:f8:c3:61:df:91:32:16:65:ea:57:01:f4:e1:
                    9a:93:59:a5:61:79:c3:dd:9e:2e:a8:8b:26:01:88:
                    16:88:ac:f2:6e:02:74:c4:59:16:2c:e0:87:f6:80:
                    33:f5:c5:de:70:49:a4:3d:f1:29:21:a5:d8:cd:55:
                    0f:e1:27:61:8f:79:ed:75:56:ab:04:40:1f:43:c2:
                    31:29:0f:d6:f7:29:77:55:da:37:6b:70:11:98:6d:
                    2b:3c:1e:bd:51:e5:5a:fe:b6:aa:d8:ca:75:b0:7d:
                    24:80:c7:82:89:8f:3e:e0:ab:53:d2:33:28:2c:cf:
                    0a:5d:85:f0:a1:19:d5:9b:36:53:2c:4a:07:60:c7:
                    e1:ab:d0:da:dc:f0:b2:a0:26:f4:f6:41:37:29:6f:
                    81:f7:87:da:6f:d6:8d:dc:28:5f:93:e6:d3:a2:7e:
                    c0:97:39:a4:4d:50:9e:ac:f5:aa:41:91:d1:90:c7:
                    7a:fe:d8:60:b6:84:61:2e:2e:b1:fa:50:54:73:9b:
                    4f:d5:f5:c9:c5:ac:6e:e2:78:dd:4a:2b:35:1e:11:
                    3a:5d:30:41:53:16:89:aa:b4:f8:06:d5:f9:09:4c:
                    cb:9a:86:e5:2b:3b:8c:46:0a:8b:69:54:13:67:84:
                    d9:82:ea:1f:d5:da:37:e6:f7:25:09:fa:94:95:7f:
                    3d:2b
                Exponent: 65537 (0x10001)
        X509v3 extensions:
            X509v3 Key Usage: critical
                Digital Signature, Key Encipherment
            X509v3 Extended Key Usage: 
                TLS Web Client Authentication, TLS Web Server Authentication
            X509v3 Basic Constraints: critical
                CA:TRUE
            X509v3 Authority Key Identifier: 
                keyid:01:02:03

            Authority Information Access: 
                OCSP - URI:http://theca.net/ocsp
                CA Issuers - URI:http://theca.net/totallythecert.crt

            X509v3 Subject Key Identifier: 
                04:03:02:01
            X509v3 Subject Alternative Name: 
                DNS:*.gov.us, DNS:gov.us
    Signature Algorithm: sha256WithRSAEncryption
         46:79:b1:3e:65:62:8f:cc:27:ec:4b:95:ea:84:7b:3f:28:4b:
         e0:77:75:e8:b8:36:ac:a1:36:dc:50:d9:4e:24:3b:3c:0e:80:
         c0:40:dc:3a:a0:2b:68:04:03:d5:af:16:dc:8a:f7:b0:27:26:
         81:a0:c9:00:64:74:6d:8d:6c:aa:f7:a7:a7:83:92:f2:51:b1:
         13:f6:7f:cc:cb:ac:e9:57:fc:30:48:e9:6e:6f:58:0e:50:74:
         ad:03:17:87:12:92:ca:24:d6:49:e8:a8:55:5d:08:70:78:c0:
         ff:42:6c:9f:01:78:a4:52:ec:03:e0:52:ae:06:b0:a6:17:be:
         cd:48:db:7a:e5:12:44:5b:e7:8c:19:48:1e:42:f9:65:7d:70:
         78:b6:aa:04:83:e9:5e:5d:88:90:47:3b:de:4b:ea:bb:3c:a3:
         fb:a5:53:9c:56:95:f0:c9:6b:ef:fa:7c:e2:a1:37:1a:67:7c:
         95:b3:2a:b9:b0:a3:31:7b:35:7b:6d:42:0a:46:6a:40:91:02:
         b1:09:c2:df:53:5c:87:86:19:7f:36:2b:51:ff:8d:fa:b9:b6:
         2d:17:e6:e0:10:9a:9a:9e:a6:a6:97:20:23:d3:e7:ef:57:43:
         06:da:6b:df:f4:0c:8d:db:cb:9a:a6:da:82:69:af:52:e1:c4:
         a4:e7:9a:da
-----BEGIN CERTIFICATE-----
MIIDxjCCAq6gAwIBAgIFBDFmk+0wDQYJKoZIhvcNAQELBQAwUjELMAkGA1UEBhMC
VVMxFjAUBgNVBAoTDU1vdGhlciBOYXR1cmUxEzARBgNVBAsTCkV2ZXJ5dGhpbmcx
FjAUBgNVBAMTDU1vdGhlciBOYXR1cmUwHhcNMTYwNjI5MTkzMzE5WhcNMTYwOTEw
MTkzMzE5WjARMQ8wDQYDVQQDEwZnb3YudXMwggEiMA0GCSqGSIb3DQEBAQUAA4IB
DwAwggEKAoIBAQDH+MNh35EyFmXqVwH04ZqTWaVhecPdni6oiyYBiBaIrPJuAnTE
WRYs4If2gDP1xd5wSaQ98SkhpdjNVQ/hJ2GPee11VqsEQB9DwjEpD9b3KXdV2jdr
cBGYbSs8Hr1R5Vr+tqrYynWwfSSAx4KJjz7gq1PSMygszwpdhfChGdWbNlMsSgdg
x+Gr0Nrc8LKgJvT2QTcpb4H3h9pv1o3cKF+T5tOifsCXOaRNUJ6s9apBkdGQx3r+
2GC2hGEuLrH6UFRzm0/V9cnFrG7ieN1KKzUeETpdMEFTFomqtPgG1fkJTMuahuUr
O4xGCotpVBNnhNmC6h/V2jfm9yUJ+pSVfz0rAgMBAAGjgeMwgeAwDgYDVR0PAQH/
BAQDAgWgMB0GA1UdJQQWMBQGCCsGAQUFBwMCBggrBgEFBQcDATAPBgNVHRMBAf8E
BTADAQH/MA4GA1UdIwQHMAWAAwECAzBiBggrBgEFBQcBAQRWMFQwIQYIKwYBBQUH
MAGGFWh0dHA6Ly90aGVjYS5uZXQvb2NzcDAvBggrBgEFBQcwAoYjaHR0cDovL3Ro
ZWNhLm5ldC90b3RhbGx5dGhlY2VydC5jcnQwDQYDVR0OBAYEBAQDAgEwGwYDVR0R
BBQwEoIIKi5nb3YudXOCBmdvdi51czANBgkqhkiG9w0BAQsFAAOCAQEARnmxPmVi
j8wn7EuV6oR7PyhL4Hd16Lg2rKE23FDZTiQ7PA6AwEDcOqAraAQD1a8W3Ir3sCcm
gaDJAGR0bY1sqvenp4OS8lGxE/Z/zMus6Vf8MEjpbm9YDlB0rQMXhxKSyiTWSeio
VV0IcHjA/0JsnwF4pFLsA+BSrgawphe+zUjbeuUSRFvnjBlIHkL5ZX1weLaqBIPp
Xl2IkEc73kvquzyj+6VTnFaV8Mlr7/p84qE3Gmd8lbMqubCjMXs1e21CCkZqQJEC
sQnC31Nch4YZfzYrUf+N+rm2LRfm4BCamp6mppcgI9Pn71dDBtpr3/QMjdvLmqba
gmmvUuHEpOea2g==
-----END CERTIFICATE-----
