Certificate:
    Data:
        Version: 3 (0x2)
        Serial Number: 18008675309 (0x4316693ed)
    Signature Algorithm: sha256WithRSAEncryption
        Issuer: C=US, O=Mother Nature, OU=Everything, CN=Mother Nature
        Validity
            Not Before: Aug 22 16:39:29 2017 GMT
            Not After : Nov  3 16:39:29 2017 GMT
        Subject: C=US, ST=FL, L=Tallahassee/street=3210 Holly Mill Run/postalCode=30062, O=Extreme Discord, OU=Chaos, CN=gov.us
        Subject Public Key Info:
            Public Key Algorithm: rsaEncryption
                Public-Key: (2048 bit)
                Modulus:
                    00:d2:13:e0:75:fc:5a:26:41:04:60:6c:05:10:6c:
                    b7:0b:92:65:f2:4d:40:ef:8f:b6:b1:5a:34:17:a7:
                    bd:0b:9c:a0:65:b1:46:e0:9a:3a:e1:f9:a2:b2:e6:
                    45:bf:ee:21:d0:61:ae:1d:fa:20:47:69:6c:53:b9:
                    25:f1:e0:e3:03:1c:94:ef:24:3e:af:14:3d:03:82:
                    51:6e:90:2b:f5:13:ec:d8:30:e1:b4:af:c0:91:4d:
                    b5:68:ee:09:73:96:dc:fe:8b:e3:b8:af:30:19:d7:
                    9c:19:68:d0:7e:4c:13:45:e5:7e:54:1b:3c:76:96:
                    dd:57:9a:43:46:15:7d:73:02:eb:16:12:1b:ca:ee:
                    79:ee:6e:a1:da:10:bd:6d:e0:42:90:10:99:db:85:
                    98:af:04:29:01:b8:44:1f:82:5b:e5:db:4e:de:02:
                    fc:38:a3:34:ee:f2:5a:56:03:3f:69:c9:b6:33:46:
                    24:a4:1e:b2:35:b2:b6:b2:21:2e:fd:f6:53:6a:3c:
                    01:fc:3e:f5:07:b4:25:96:89:7b:f7:66:88:2e:dc:
                    be:3c:46:89:42:7e:dd:8d:e1:23:73:3e:4c:74:51:
                    a5:40:86:6a:32:b9:57:30:cb:70:04:c9:1d:70:ba:
                    f3:72:51:30:45:87:30:ec:53:ab:b1:e6:66:1d:e8:
                    c3:53
                Exponent: 65537 (0x10001)
        X509v3 extensions:
            X509v3 Key Usage: critical
                Digital Signature, Key Encipherment
            X509v3 Extended Key Usage: 
                TLS Web Client Authentication, Code Signing
            X509v3 Basic Constraints: critical
                CA:TRUE
            X509v3 Authority Key Identifier: 
                keyid:01:02:03

            Authority Information Access: 
                OCSP - URI:http://theca.net/ocsp
                CA Issuers - URI:http://theca.net/totallythecert.crt

            X509v3 Certificate Policies: 
                Policy: 2.23.140.1.2.2

    Signature Algorithm: sha256WithRSAEncryption
         24:f1:00:9f:c5:e5:91:f0:44:42:5c:2a:5e:bb:52:83:bc:d6:
         7a:9c:c1:e8:49:6b:a4:cc:89:6b:3d:5d:26:8d:8e:26:8b:1d:
         61:c6:9a:33:7d:d0:f2:9a:ff:5d:02:e9:5a:96:bd:7f:0d:04:
         aa:fa:7d:f9:19:8f:f1:c4:44:50:f7:f4:f3:08:ec:bc:a6:77:
         2d:c2:44:c3:8f:46:27:cc:84:c6:66:dd:9e:e7:91:be:ce:65:
         97:f8:dd:8f:a5:09:c7:4a:af:6d:dd:60:14:16:91:d8:cd:76:
         61:97:98:05:6e:b9:09:1b:08:6c:86:14:aa:38:a3:c8:6f:35:
         c8:d3:ac:61:fb:24:1d:9d:1c:fb:78:56:f9:11:f7:ee:f0:96:
         b6:84:b8:57:2b:0e:5b:bb:ab:92:38:c7:a2:03:ec:f0:10:51:
         8d:12:ed:a6:71:b4:d7:2b:07:0a:21:5f:7e:af:de:d0:03:d4:
         ac:06:07:11:f9:a3:44:4c:2f:7e:7c:e3:6f:8c:3b:b3:8c:50:
         0b:f6:d3:62:84:56:86:fa:5d:46:73:c5:6f:ee:f9:11:66:e9:
         58:f8:26:9a:c3:3f:69:fa:49:c3:77:2c:0c:05:31:c0:97:a1:
         84:91:86:ae:d5:20:20:24:83:b1:a1:b3:70:c5:16:1e:e0:78:
         7d:e5:ea:fa
-----BEGIN CERTIFICATE-----
MIIEODCCAyCgAwIBAgIFBDFmk+0wDQYJKoZIhvcNAQELBQAwUjELMAkGA1UEBhMC
VVMxFjAUBgNVBAoTDU1vdGhlciBOYXR1cmUxEzARBgNVBAsTCkV2ZXJ5dGhpbmcx
FjAUBgNVBAMTDU1vdGhlciBOYXR1cmUwHhcNMTcwODIyMTYzOTI5WhcNMTcxMTAz
MTYzOTI5WjCBmTELMAkGA1UEBhMCVVMxCzAJBgNVBAgTAkZMMRQwEgYDVQQHEwtU
YWxsYWhhc3NlZTEcMBoGA1UECRMTMzIxMCBIb2xseSBNaWxsIFJ1bjEOMAwGA1UE
ERMFMzAwNjIxGDAWBgNVBAoTD0V4dHJlbWUgRGlzY29yZDEOMAwGA1UECxMFQ2hh
b3MxDzANBgNVBAMTBmdvdi51czCCASIwDQYJKoZIhvcNAQEBBQADggEPADCCAQoC
ggEBANIT4HX8WiZBBGBsBRBstwuSZfJNQO+PtrFaNBenvQucoGWxRuCaOuH5orLm
Rb/uIdBhrh36IEdpbFO5JfHg4wMclO8kPq8UPQOCUW6QK/UT7Ngw4bSvwJFNtWju
CXOW3P6L47ivMBnXnBlo0H5ME0XlflQbPHaW3VeaQ0YVfXMC6xYSG8ruee5uodoQ
vW3gQpAQmduFmK8EKQG4RB+CW+XbTt4C/DijNO7yWlYDP2nJtjNGJKQesjWytrIh
Lv32U2o8Afw+9Qe0JZaJe/dmiC7cvjxGiUJ+3Y3hI3M+THRRpUCGajK5VzDLcATJ
HXC683JRMEWHMOxTq7HmZh3ow1MCAwEAAaOBzDCByTAOBgNVHQ8BAf8EBAMCBaAw
HQYDVR0lBBYwFAYIKwYBBQUHAwIGCCsGAQUFBwMDMA8GA1UdEwEB/wQFMAMBAf8w
DgYDVR0jBAcwBYADAQIDMGIGCCsGAQUFBwEBBFYwVDAhBggrBgEFBQcwAYYVaHR0
cDovL3RoZWNhLm5ldC9vY3NwMC8GCCsGAQUFBzAChiNodHRwOi8vdGhlY2EubmV0
L3RvdGFsbHl0aGVjZXJ0LmNydDATBgNVHSAEDDAKMAgGBmeBDAECAjANBgkqhkiG
9w0BAQsFAAOCAQEAJPEAn8XlkfBEQlwqXrtSg7zWepzB6ElrpMyJaz1dJo2OJosd
YcaaM33Q8pr/XQLpWpa9fw0Eqvp9+RmP8cREUPf08wjsvKZ3LcJEw49GJ8yExmbd
nueRvs5ll/jdj6UJx0qvbd1gFBaR2M12YZeYBW65CRsIbIYUqjijyG81yNOsYfsk
HZ0c+3hW+RH37vCWtoS4VysOW7urkjjHogPs8BBRjRLtpnG01ysHCiFffq/e0APU
rAYHEfmjREwvfnzjb4w7s4xQC/bTYoRWhvpdRnPFb+75EWbpWPgmmsM/afpJw3cs
DAUxwJehhJGGrtUgICSDsaGzcMUWHuB4feXq+g==
-----END CERTIFICATE-----
