Certificate:
    Data:
        Version: 3 (0x2)
        Serial Number: 1 (0x1)
    Signature Algorithm: sha256WithRSAEncryption
        Issuer: CN=Mother Nature, OU=Everything, O=Mother Nature/postalCode=postalcode, C=US, GN=givenname, SN=surname
        Validity
            Not Before: Aug 31 02:11:09 2017 GMT
            Not After : Nov  1 02:11:09 2017 GMT
        Subject: CN=gov.us, OU=Chaos, O=org/street=3210 Holly Mill Run, ST=province/postalCode=30062, GN=hello, SN=surname
        Subject Public Key Info:
            Public Key Algorithm: rsaEncryption
                Public-Key: (2048 bit)
                Modulus:
                    00:a8:ef:c9:d4:c3:50:c9:e9:d3:f2:61:39:2d:c4:
                    bc:89:81:79:0b:ba:3d:19:af:45:d5:7b:18:05:ce:
                    e7:b2:f4:5e:2f:1a:b1:7f:f4:78:1c:09:45:b6:29:
                    b4:bc:84:a5:6a:1a:8c:ea:81:aa:6e:85:9e:60:01:
                    69:f1:bc:47:f3:c9:fe:04:64:69:f3:57:d6:e1:b6:
                    f3:c7:eb:0b:7e:b8:09:07:6c:24:2c:4e:30:2d:1f:
                    f8:d3:4a:ff:9f:1a:ba:12:be:57:5a:28:1c:0c:75:
                    00:9f:49:45:c4:ce:c6:9d:3f:c7:92:6c:6c:0b:9f:
                    01:2a:2e:f1:fb:06:51:0b:b4:e6:b8:85:20:c9:37:
                    84:29:f0:b9:52:f2:ca:b4:d5:95:bd:f2:99:74:e4:
                    08:64:1b:54:cc:46:97:62:85:0b:32:b4:c6:e1:d0:
                    c7:5a:43:08:68:84:fc:7a:06:0f:bf:39:d4:30:42:
                    40:61:60:c2:ed:50:e8:99:57:d4:eb:6a:dc:0f:0a:
                    4d:3e:d3:1e:48:0d:df:9d:92:3a:cd:9b:fe:91:85:
                    ef:df:22:80:ab:bd:e4:a3:2a:9b:ef:73:75:1e:c4:
                    43:37:64:7c:31:28:5d:a1:92:66:f2:2c:7b:7a:67:
                    67:f7:39:b0:b0:db:2b:ad:56:2b:f5:50:e2:58:13:
                    9f:f5
                Exponent: 65537 (0x10001)
        X509v3 extensions:
            X509v3 Key Usage: critical
                Digital Signature, Key Encipherment, Certificate Sign
            X509v3 Extended Key Usage: 
                TLS Web Client Authentication, TLS Web Server Authentication
            X509v3 Basic Constraints: critical
                CA:FALSE
            X509v3 Authority Key Identifier: 
                keyid:01:02:03

            Authority Information Access: 
                OCSP - URI:http://theca.net/ocsp
                CA Issuers - URI:http://theca.net/totallythecert.crt

            X509v3 Subject Alternative Name: 
                DNS:hell,o.com.uk
            X509v3 Certificate Policies: 
                Policy: X509v3 Any Policy

    Signature Algorithm: sha256WithRSAEncryption
         4b:d2:8d:b9:7c:f4:96:cb:7b:3d:ef:47:44:07:f8:b9:66:8c:
         92:00:8e:55:c7:b0:41:66:34:d9:09:54:ff:16:be:12:a8:29:
         eb:12:26:d6:88:34:29:95:4b:1c:65:df:81:4a:82:83:2f:84:
         d0:01:b2:46:40:4c:45:96:1c:37:58:58:fc:7d:5c:ce:b4:62:
         08:c1:b6:62:da:a2:1f:62:cb:57:3b:18:8f:c4:4e:96:c2:b9:
         e6:d7:1d:3a:1a:52:42:fb:9e:ce:db:47:bd:b1:ec:76:6d:79:
         df:19:78:d6:26:3d:6f:72:e2:60:4c:cb:57:7c:3f:de:55:8e:
         09:4a:80:36:f5:0e:b0:65:8c:ca:57:60:d8:dd:88:58:a0:8e:
         59:45:45:f4:a4:21:bd:6d:bd:51:ad:26:8e:c5:b2:77:48:9f:
         19:45:2b:19:98:20:33:ca:63:6b:22:f8:84:17:08:94:ba:5a:
         fd:ea:79:58:89:e1:ed:51:27:ba:34:32:d8:d0:1f:70:f7:07:
         a5:9a:4c:42:a2:cd:30:69:05:02:18:8d:25:5f:a3:46:c4:33:
         fa:40:40:11:1a:21:44:9f:37:61:30:cb:23:10:3d:5a:59:d3:
         ff:b0:c1:da:95:d2:99:ba:d0:89:74:20:70:80:55:41:2b:cc:
         16:60:b8:d5
-----BEGIN CERTIFICATE-----
MIIEfjCCA2igAwIBAgIBATALBgkqhkiG9w0BAQswgY8xFjAUBgNVBAMTDU1vdGhl
ciBOYXR1cmUxEzARBgNVBAsTCkV2ZXJ5dGhpbmcxFjAUBgNVBAoTDU1vdGhlciBO
YXR1cmUxEzARBgNVBBETCnBvc3RhbGNvZGUxCzAJBgNVBAYTAlVTMRIwEAYDVQQq
EwlnaXZlbm5hbWUxEDAOBgNVBAQTB3N1cm5hbWUxADAeFw0xNzA4MzEwMjExMDla
Fw0xNzExMDEwMjExMDlaMIGUMQ8wDQYDVQQDEwZnb3YudXMxDjAMBgNVBAsTBUNo
YW9zMQwwCgYDVQQKEwNvcmcxHDAaBgNVBAkTEzMyMTAgSG9sbHkgTWlsbCBSdW4x
ETAPBgNVBAgTCHByb3ZpbmNlMQ4wDAYDVQQREwUzMDA2MjEOMAwGA1UEKhMFaGVs
bG8xEDAOBgNVBAQTB3N1cm5hbWUxADCCASIwDQYJKoZIhvcNAQEBBQADggEPADCC
AQoCggEBAKjvydTDUMnp0/JhOS3EvImBeQu6PRmvRdV7GAXO57L0Xi8asX/0eBwJ
RbYptLyEpWoajOqBqm6FnmABafG8R/PJ/gRkafNX1uG288frC364CQdsJCxOMC0f
+NNK/58auhK+V1ooHAx1AJ9JRcTOxp0/x5JsbAufASou8fsGUQu05riFIMk3hCnw
uVLyyrTVlb3ymXTkCGQbVMxGl2KFCzK0xuHQx1pDCGiE/HoGD7851DBCQGFgwu1Q
6JlX1Otq3A8KTT7THkgN352SOs2b/pGF798igKu95KMqm+9zdR7EQzdkfDEoXaGS
ZvIse3pnZ/c5sLDbK61WK/VQ4lgTn/UCAwEAAaOB4TCB3jAOBgNVHQ8BAf8EBAMC
AKQwHQYDVR0lBBYwFAYIKwYBBQUHAwIGCCsGAQUFBwMBMAwGA1UdEwEB/wQCMAAw
DgYDVR0jBAcwBYADAQIDMGIGCCsGAQUFBwEBBFYwVDAhBggrBgEFBQcwAYYVaHR0
cDovL3RoZWNhLm5ldC9vY3NwMC8GCCsGAQUFBzAChiNodHRwOi8vdGhlY2EubmV0
L3RvdGFsbHl0aGVjZXJ0LmNydDAYBgNVHREEETAPgg1oZWxsLG8uY29tLnVrMBEG
A1UdIAQKMAgwBgYEVR0gADALBgkqhkiG9w0BAQsDggEBAEvSjbl89JbLez3vR0QH
+LlmjJIAjlXHsEFmNNkJVP8WvhKoKesSJtaINCmVSxxl34FKgoMvhNABskZATEWW
HDdYWPx9XM60YgjBtmLaoh9iy1c7GI/ETpbCuebXHToaUkL7ns7bR72x7HZted8Z
eNYmPW9y4mBMy1d8P95VjglKgDb1DrBljMpXYNjdiFigjllFRfSkIb1tvVGtJo7F
sndInxlFKxmYIDPKY2si+IQXCJS6Wv3qeViJ4e1RJ7o0MtjQH3D3B6WaTEKizTBp
BQIYjSVfo0bEM/pAQBEaIUSfN2EwyyMQPVpZ0/+wwdqV0pm60Il0IHCAVUErzBZg
uNU=
-----END CERTIFICATE-----
