Certificate:
    Data:
        Version: 3 (0x2)
        Serial Number: 18008675309 (0x4316693ed)
    Signature Algorithm: sha256WithRSAEncryption
        Issuer: C = US, O = Mother Nature, OU = Everything, CN = Mother Nature
        Validity
            Not Before: Jul  5 15:03:49 2016 GMT
            Not After : Sep 17 15:03:49 2016 GMT
        Subject: C = US, ST = FL, L = Tallahassee, street = 3210 Holly Mill Run, postalCode = 30062, O = Extreme Discord, OU = Chaos, CN = gov.us
        Subject Public Key Info:
            Public Key Algorithm: rsaEncryption
                Public-Key: (2048 bit)
                Modulus:
                    00:b9:26:e6:a3:91:39:e6:ca:e4:67:02:73:53:49:
                    c2:9a:f0:51:4c:dc:6b:88:3d:46:87:30:15:f1:9c:
                    17:f1:89:e1:df:23:7a:f5:70:ae:85:87:fe:26:31:
                    01:4f:dc:c9:36:13:0c:3c:ab:ac:91:b2:ca:5e:c3:
                    67:73:31:5f:d8:a7:c2:7b:04:b7:88:6e:77:42:35:
                    01:9c:bd:b6:80:c3:51:02:cd:3f:8c:19:b2:eb:84:
                    6b:d1:a5:a4:b5:55:73:3b:a5:6d:14:98:35:6c:34:
                    ba:4d:08:8a:e6:b4:d2:4c:4c:ce:40:31:3f:b1:d6:
                    88:33:2a:44:f9:93:e3:ba:d0:b5:04:0a:ff:6c:13:
                    64:1b:7a:3a:c0:79:4d:19:ec:da:a4:66:22:a6:ba:
                    fb:6f:a6:35:0e:fb:af:76:09:2e:9c:d2:34:c2:19:
                    11:da:df:cd:07:db:30:23:6d:43:74:2c:04:9c:c5:
                    20:a6:a5:ac:7c:4e:9e:d2:e7:73:a2:0d:44:7c:7b:
                    4d:7f:3c:e2:9d:21:03:b1:cc:54:aa:96:1d:a1:2e:
                    f8:e5:73:5b:4c:34:02:bf:a7:6a:a3:9e:e7:6f:4f:
                    77:11:be:56:b5:0c:a2:f8:d6:c6:e3:85:05:37:14:
                    f6:17:10:03:88:46:1b:a1:01:3b:6b:0a:be:e2:3c:
                    a0:ab
                Exponent: 65537 (0x10001)
        X509v3 extensions:
            X509v3 Basic Constraints: critical
                CA:FALSE
            X509v3 Authority Key Identifier: 
                keyid:01:02:03

            Authority Information Access: 
                OCSP - URI:http://theca.net/ocsp
                CA Issuers - URI:http://theca.net/totallythecert.crt

            X509v3 Subject Key Identifier: 
                04:03:02:01
            X509v3 Subject Alternative Name: 
                DNS:*.gov.us, DNS:gov.us
            X509v3 Key Usage: 
                Digital Signature, Certificate Sign, CRL Sign
    Signature Algorithm: sha256WithRSAEncryption
         b4:f3:b9:8b:df:cc:1c:c0:8f:a8:5d:6a:35:e7:73:c7:07:d7:
         5e:d5:e9:2f:20:f5:16:04:78:c0:57:a6:d5:27:6a:85:da:79:
         a5:bf:f2:cb:c8:4a:72:19:46:ed:df:8d:d1:41:57:93:c1:4f:
         aa:e8:f2:00:f8:c7:7d:71:99:f9:62:ba:7f:93:2e:74:1c:ae:
         d5:0d:33:6c:78:a1:cf:15:e5:af:21:a4:e2:30:8d:67:d4:c1:
         4f:19:3f:0b:e8:f3:71:f4:e0:5a:6d:e6:2b:2d:ee:42:e0:2d:
         78:03:40:4b:39:a2:45:24:8f:39:77:55:aa:d9:cf:ae:84:49:
         b7:27:30:e9:1d:2a:80:a3:c8:e3:ed:67:b2:aa:8b:96:b4:92:
         0c:d2:69:9b:c0:7a:cc:bb:15:0b:3d:21:63:fe:4f:c1:c5:3d:
         4e:6d:cb:35:1c:90:6e:f4:df:c5:06:fa:6d:78:f2:6c:53:72:
         cb:3e:b7:cd:ab:ce:27:cc:38:a9:1a:69:cc:9d:30:2a:7d:1b:
         e1:b9:39:ac:24:f2:7a:4a:d8:60:d3:4d:91:2e:f3:81:00:f7:
         69:eb:4c:6b:3d:fb:bf:80:24:42:e6:02:da:a8:30:6f:30:69:
         ad:32:e6:1e:af:1e:7b:c2:4a:bb:2f:e2:8b:70:fd:9e:57:3c:
         fb:0e:92:0b
-----BEGIN CERTIFICATE-----
MIIEKjCCAxKgAwIBAgIFBDFmk+0wDQYJKoZIhvcNAQELBQAwUjELMAkGA1UEBhMC
VVMxFjAUBgNVBAoTDU1vdGhlciBOYXR1cmUxEzARBgNVBAsTCkV2ZXJ5dGhpbmcx
FjAUBgNVBAMTDU1vdGhlciBOYXR1cmUwHhcNMTYwNzA1MTUwMzQ5WhcNMTYwOTE3
MTUwMzQ5WjCBmTELMAkGA1UEBhMCVVMxCzAJBgNVBAgTAkZMMRQwEgYDVQQHEwtU
YWxsYWhhc3NlZTEcMBoGA1UECRMTMzIxMCBIb2xseSBNaWxsIFJ1bjEOMAwGA1UE
ERMFMzAwNjIxGDAWBgNVBAoTD0V4dHJlbWUgRGlzY29yZDEOMAwGA1UECxMFQ2hh
b3MxDzANBgNVBAMTBmdvdi51czCCASIwDQYJKoZIhvcNAQEBBQADggEPADCCAQoC
ggEBALkm5qOROebK5GcCc1NJwprwUUzca4g9RocwFfGcF/GJ4d8jevVwroWH/iYx
AU/cyTYTDDyrrJGyyl7DZ3MxX9inwnsEt4hud0I1AZy9toDDUQLNP4wZsuuEa9Gl
pLVVczulbRSYNWw0uk0Iiua00kxMzkAxP7HWiDMqRPmT47rQtQQK/2wTZBt6OsB5
TRns2qRmIqa6+2+mNQ77r3YJLpzSNMIZEdrfzQfbMCNtQ3QsBJzFIKalrHxOntLn
c6INRHx7TX884p0hA7HMVKqWHaEu+OVzW0w0Ar+naqOe529PdxG+VrUMovjWxuOF
BTcU9hcQA4hGG6EBO2sKvuI8oKsCAwEAAaOBvjCBuzAMBgNVHRMBAf8EAjAAMA4G
A1UdIwQHMAWAAwECAzBiBggrBgEFBQcBAQRWMFQwIQYIKwYBBQUHMAGGFWh0dHA6
Ly90aGVjYS5uZXQvb2NzcDAvBggrBgEFBQcwAoYjaHR0cDovL3RoZWNhLm5ldC90
b3RhbGx5dGhlY2VydC5jcnQwDQYDVR0OBAYEBAQDAgEwGwYDVR0RBBQwEoIIKi5n
b3YudXOCBmdvdi51czALBgNVHQ8EBAMCAYYwDQYJKoZIhvcNAQELBQADggEBALTz
uYvfzBzAj6hdajXnc8cH117V6S8g9RYEeMBXptUnaoXaeaW/8svISnIZRu3fjdFB
V5PBT6ro8gD4x31xmfliun+TLnQcrtUNM2x4oc8V5a8hpOIwjWfUwU8ZPwvo83H0
4Fpt5ist7kLgLXgDQEs5okUkjzl3VarZz66ESbcnMOkdKoCjyOPtZ7Kqi5a0kgzS
aZvAesy7FQs9IWP+T8HFPU5tyzUckG7038UG+m148mxTcss+t82rzifMOKkaacyd
MCp9G+G5Oawk8npK2GDTTZEu84EA92nrTGs9+7+AJELmAtqoMG8waa0y5h6vHnvC
Srsv4otw/Z5XPPsOkgs=
-----END CERTIFICATE-----
