Certificate:
    Data:
        Version: 3 (0x2)
        Serial Number: 18008675309 (0x4316693ed)
    Signature Algorithm: sha256WithRSAEncryption
        Issuer: C = US, O = Mother Nature, OU = Everything, CN = Mother Nature
        Validity
            Not Before: Jul  5 15:03:25 2016 GMT
            Not After : Sep 17 15:03:25 2016 GMT
        Subject: C = US, ST = FL, L = Tallahassee, street = 3210 Holly Mill Run, postalCode = 30062, O = Extreme Discord, OU = Chaos, CN = gov.us
        Subject Public Key Info:
            Public Key Algorithm: rsaEncryption
                Public-Key: (2048 bit)
                Modulus:
                    00:eb:43:ff:a9:39:16:b7:ed:13:f8:29:68:46:34:
                    cb:4c:8d:4e:91:53:c9:5d:28:50:f2:c3:38:2b:55:
                    44:7f:70:32:f5:fe:11:ed:6d:aa:f8:9c:be:f9:12:
                    72:d6:67:e1:99:38:98:af:a9:92:5a:05:e1:ec:fd:
                    71:a6:e6:2a:68:32:55:b4:46:cd:b6:b2:d2:0e:f5:
                    ae:ef:97:7f:d4:dd:da:89:43:26:63:0c:78:ac:c4:
                    70:ea:78:f4:66:64:db:ba:e0:ca:fd:aa:6a:06:ea:
                    2b:f0:03:05:f0:ae:06:cc:dc:68:40:c0:eb:00:75:
                    1d:29:32:f1:97:81:aa:fd:5b:65:41:6f:cd:28:a9:
                    e2:ed:37:a7:21:fc:79:95:1a:99:62:55:07:73:f2:
                    7a:f8:9d:7e:ab:b7:d4:53:08:54:a3:c2:f3:20:47:
                    8e:e6:e7:87:ac:73:c9:8b:7f:ab:82:1c:01:85:e9:
                    21:e1:54:9e:27:15:f7:2f:28:10:8e:0b:3f:08:7a:
                    fa:c8:e9:ba:e8:ca:7f:01:b0:4d:ea:55:54:d4:a6:
                    02:ab:e9:ea:12:2c:64:87:91:d0:2e:8e:76:f3:8b:
                    43:b6:88:6e:69:49:28:23:73:cf:57:0a:de:4a:bb:
                    1a:67:f5:24:3c:77:8e:8a:38:09:55:d0:60:13:29:
                    49:75
                Exponent: 65537 (0x10001)
        X509v3 extensions:
            X509v3 Basic Constraints: critical
                CA:FALSE
            X509v3 Authority Key Identifier: 
                keyid:01:02:03

            Authority Information Access: 
                CA Issuers - URI:http://theca.net/totallythecert.crt

            X509v3 Subject Key Identifier: 
                04:03:02:01
            X509v3 Subject Alternative Name: 
                DNS:*.gov.us, DNS:gov.us
            X509v3 Key Usage: 
                Digital Signature, Certificate Sign, CRL Sign
    Signature Algorithm: sha256WithRSAEncryption
         85:18:a2:f5:88:01:75:98:5e:c1:3a:df:59:2f:bd:9d:86:97:
         a5:1f:e3:ab:f0:81:93:55:e2:20:76:5b:80:28:0f:ff:86:72:
         32:91:98:86:19:1f:88:84:c5:7c:da:a9:3c:73:5e:f6:2e:ca:
         cc:e3:b2:59:8f:87:66:9a:55:37:8e:d7:d3:9f:a1:75:a6:fd:
         f9:bd:07:82:11:8b:0d:17:d7:39:b0:2b:e5:79:52:bb:04:64:
         51:e3:d1:8d:46:0e:e1:64:da:5a:b1:43:9d:04:2f:d8:73:ac:
         26:ad:88:0b:5f:ce:3d:f8:3b:33:eb:1d:f9:db:0a:1c:ef:d7:
         f2:43:29:18:6a:4d:01:01:08:28:14:7e:f9:25:74:94:1f:25:
         c3:f3:a5:d3:ac:8a:2e:37:86:39:91:8e:32:bb:95:55:1d:5e:
         3b:10:2f:19:9f:43:80:a7:b6:84:d1:3d:df:4a:40:38:96:cf:
         e9:1c:fa:d0:9d:a3:39:9c:9c:14:62:48:39:ca:5e:7b:1a:a1:
         bd:c4:9b:65:96:af:32:95:63:95:72:8c:ef:4d:41:db:da:9d:
         d8:62:67:06:a6:32:34:20:4f:5d:12:ec:d1:48:97:90:55:3f:
         70:95:6c:ee:74:18:af:ad:8f:66:96:31:54:83:e3:f8:ad:ce:
         49:fd:d2:18
-----BEGIN CERTIFICATE-----
MIIEBzCCAu+gAwIBAgIFBDFmk+0wDQYJKoZIhvcNAQELBQAwUjELMAkGA1UEBhMC
VVMxFjAUBgNVBAoTDU1vdGhlciBOYXR1cmUxEzARBgNVBAsTCkV2ZXJ5dGhpbmcx
FjAUBgNVBAMTDU1vdGhlciBOYXR1cmUwHhcNMTYwNzA1MTUwMzI1WhcNMTYwOTE3
MTUwMzI1WjCBmTELMAkGA1UEBhMCVVMxCzAJBgNVBAgTAkZMMRQwEgYDVQQHEwtU
YWxsYWhhc3NlZTEcMBoGA1UECRMTMzIxMCBIb2xseSBNaWxsIFJ1bjEOMAwGA1UE
ERMFMzAwNjIxGDAWBgNVBAoTD0V4dHJlbWUgRGlzY29yZDEOMAwGA1UECxMFQ2hh
b3MxDzANBgNVBAMTBmdvdi51czCCASIwDQYJKoZIhvcNAQEBBQADggEPADCCAQoC
ggEBAOtD/6k5FrftE/gpaEY0y0yNTpFTyV0oUPLDOCtVRH9wMvX+Ee1tqvicvvkS
ctZn4Zk4mK+pkloF4ez9cabmKmgyVbRGzbay0g71ru+Xf9Td2olDJmMMeKzEcOp4
9GZk27rgyv2qagbqK/ADBfCuBszcaEDA6wB1HSky8ZeBqv1bZUFvzSip4u03pyH8
eZUamWJVB3Pyevidfqu31FMIVKPC8yBHjubnh6xzyYt/q4IcAYXpIeFUnicV9y8o
EI4LPwh6+sjpuujKfwGwTepVVNSmAqvp6hIsZIeR0C6OdvOLQ7aIbmlJKCNzz1cK
3kq7Gmf1JDx3joo4CVXQYBMpSXUCAwEAAaOBmzCBmDAMBgNVHRMBAf8EAjAAMA4G
A1UdIwQHMAWAAwECAzA/BggrBgEFBQcBAQQzMDEwLwYIKwYBBQUHMAKGI2h0dHA6
Ly90aGVjYS5uZXQvdG90YWxseXRoZWNlcnQuY3J0MA0GA1UdDgQGBAQEAwIBMBsG
A1UdEQQUMBKCCCouZ292LnVzggZnb3YudXMwCwYDVR0PBAQDAgGGMA0GCSqGSIb3
DQEBCwUAA4IBAQCFGKL1iAF1mF7BOt9ZL72dhpelH+Or8IGTVeIgdluAKA//hnIy
kZiGGR+IhMV82qk8c172LsrM47JZj4dmmlU3jtfTn6F1pv35vQeCEYsNF9c5sCvl
eVK7BGRR49GNRg7hZNpasUOdBC/Yc6wmrYgLX849+Dsz6x352woc79fyQykYak0B
AQgoFH75JXSUHyXD86XTrIouN4Y5kY4yu5VVHV47EC8Zn0OAp7aE0T3fSkA4ls/p
HPrQnaM5nJwUYkg5yl57GqG9xJtllq8ylWOVcozvTUHb2p3YYmcGpjI0IE9dEuzR
SJeQVT9wlWzudBivrY9mljFUg+P4rc5J/dIY
-----END CERTIFICATE-----
