Certificate:
    Data:
        Version: 3 (0x2)
        Serial Number: 18008675309 (0x4316693ed)
    Signature Algorithm: sha256WithRSAEncryption
        Issuer: C = US, O = Mother Nature, OU = Everything, CN = Mother Nature
        Validity
            Not Before: Jul  5 15:01:04 2016 GMT
            Not After : Sep 17 15:01:04 2016 GMT
        Subject: C = US, ST = FL, L = Tallahassee, street = 3210 Holly Mill Run, postalCode = 30062, O = Extreme Discord, OU = Chaos, CN = gov.us
        Subject Public Key Info:
            Public Key Algorithm: rsaEncryption
                Public-Key: (2048 bit)
                Modulus:
                    00:c1:09:46:77:61:5e:81:2b:57:d8:3b:e8:b7:5f:
                    51:26:c1:00:a4:54:8f:b6:ba:27:a4:58:10:0e:c0:
                    33:d2:fe:28:84:bc:e4:8f:e8:8c:3d:a8:35:b2:c0:
                    85:8d:33:99:db:23:e7:63:e7:77:bb:9c:12:29:60:
                    75:45:e3:31:db:69:de:e4:5e:b0:95:04:6f:27:ac:
                    cd:c0:f6:73:f1:e8:45:4a:cf:b2:5d:0d:49:e4:70:
                    6a:11:51:2c:21:e7:73:08:64:3a:4d:0a:a9:c8:a6:
                    ba:bc:80:3d:15:39:a5:56:ad:a2:6f:32:03:2c:e3:
                    35:14:75:db:f1:99:d7:ad:67:df:28:18:cf:28:eb:
                    64:b1:17:c1:b7:6a:74:71:2b:0c:25:4d:d9:7c:6d:
                    9b:26:3d:86:84:dd:7b:e9:06:b6:39:09:74:10:15:
                    1c:8d:b7:f2:5d:da:3b:5f:51:25:a5:29:46:8c:21:
                    b5:25:d8:b9:10:e7:8e:f6:bf:ba:69:14:59:78:a0:
                    cd:ff:6a:9e:de:d7:de:7f:96:cd:fb:70:69:b6:11:
                    f2:98:08:db:2f:39:a2:58:76:8c:fa:a4:16:db:e9:
                    c8:b2:72:a8:c8:7c:a5:34:85:fe:26:2c:37:68:e4:
                    2b:89:6a:50:2b:f6:64:cd:2c:7e:ab:9b:2c:b0:ce:
                    42:7f
                Exponent: 65537 (0x10001)
        X509v3 extensions:
            X509v3 Basic Constraints: critical
                CA:TRUE
            X509v3 Authority Key Identifier: 
                keyid:01:02:03

            Authority Information Access: 
                OCSP - URI:http://theca.net/ocsp

            X509v3 Subject Key Identifier: 
                04:03:02:01
            X509v3 Subject Alternative Name: 
                DNS:*.gov.us, DNS:gov.us
            X509v3 Key Usage: 
                Digital Signature, Certificate Sign, CRL Sign
    Signature Algorithm: sha256WithRSAEncryption
         7b:6e:69:f7:b9:38:6b:a0:a7:81:c0:ff:97:44:6b:96:71:e0:
         14:dc:2f:a3:b2:d0:71:be:29:96:6c:66:89:c8:36:09:2d:30:
         f1:ff:ea:15:f4:55:4e:ca:b0:ce:26:2f:e7:81:b1:21:40:fe:
         87:c3:6a:a0:52:78:92:f9:40:f0:ec:2a:70:87:e3:7a:1c:8f:
         08:40:2a:09:ce:b0:6c:8b:fc:24:8c:18:38:1e:f5:a1:c1:8f:
         14:b3:55:7b:b1:bb:25:b4:42:23:5c:ec:ef:8d:99:c9:65:81:
         83:9c:b0:b2:91:19:e5:2c:24:de:ba:d0:f4:4a:89:fe:39:92:
         e1:f7:d9:ce:2f:8f:e5:24:fe:fb:98:0b:55:eb:35:3e:12:4b:
         ac:c6:8d:ae:bf:98:ea:95:4a:d4:ae:81:f6:63:67:cd:68:11:
         e4:41:9e:58:a3:5c:7b:b0:7e:44:20:87:eb:bd:71:e3:b0:d2:
         0d:bf:2b:a4:0a:5f:23:7d:81:4a:a2:d1:b8:ff:f6:8d:66:f1:
         34:44:12:03:af:ca:91:d0:18:bc:13:1f:b5:df:3a:b3:3c:94:
         21:aa:82:32:81:78:b9:c2:38:36:ca:6b:86:43:87:c8:8e:a2:
         50:3a:20:e7:fd:f5:41:c2:05:bd:4b:51:9a:84:69:8c:cd:19:
         b5:8d:df:9b
-----BEGIN CERTIFICATE-----
MIID/DCCAuSgAwIBAgIFBDFmk+0wDQYJKoZIhvcNAQELBQAwUjELMAkGA1UEBhMC
VVMxFjAUBgNVBAoTDU1vdGhlciBOYXR1cmUxEzARBgNVBAsTCkV2ZXJ5dGhpbmcx
FjAUBgNVBAMTDU1vdGhlciBOYXR1cmUwHhcNMTYwNzA1MTUwMTA0WhcNMTYwOTE3
MTUwMTA0WjCBmTELMAkGA1UEBhMCVVMxCzAJBgNVBAgTAkZMMRQwEgYDVQQHEwtU
YWxsYWhhc3NlZTEcMBoGA1UECRMTMzIxMCBIb2xseSBNaWxsIFJ1bjEOMAwGA1UE
ERMFMzAwNjIxGDAWBgNVBAoTD0V4dHJlbWUgRGlzY29yZDEOMAwGA1UECxMFQ2hh
b3MxDzANBgNVBAMTBmdvdi51czCCASIwDQYJKoZIhvcNAQEBBQADggEPADCCAQoC
ggEBAMEJRndhXoErV9g76LdfUSbBAKRUj7a6J6RYEA7AM9L+KIS85I/ojD2oNbLA
hY0zmdsj52Pnd7ucEilgdUXjMdtp3uResJUEbyeszcD2c/HoRUrPsl0NSeRwahFR
LCHncwhkOk0KqcimuryAPRU5pVatom8yAyzjNRR12/GZ161n3ygYzyjrZLEXwbdq
dHErDCVN2XxtmyY9hoTde+kGtjkJdBAVHI238l3aO19RJaUpRowhtSXYuRDnjva/
umkUWXigzf9qnt7X3n+WzftwabYR8pgI2y85olh2jPqkFtvpyLJyqMh8pTSF/iYs
N2jkK4lqUCv2ZM0sfqubLLDOQn8CAwEAAaOBkDCBjTAPBgNVHRMBAf8EBTADAQH/
MA4GA1UdIwQHMAWAAwECAzAxBggrBgEFBQcBAQQlMCMwIQYIKwYBBQUHMAGGFWh0
dHA6Ly90aGVjYS5uZXQvb2NzcDANBgNVHQ4EBgQEBAMCATAbBgNVHREEFDASgggq
Lmdvdi51c4IGZ292LnVzMAsGA1UdDwQEAwIBhjANBgkqhkiG9w0BAQsFAAOCAQEA
e25p97k4a6CngcD/l0RrlnHgFNwvo7LQcb4plmxmicg2CS0w8f/qFfRVTsqwziYv
54GxIUD+h8NqoFJ4kvlA8OwqcIfjehyPCEAqCc6wbIv8JIwYOB71ocGPFLNVe7G7
JbRCI1zs742ZyWWBg5ywspEZ5Swk3rrQ9EqJ/jmS4ffZzi+P5ST++5gLVes1PhJL
rMaNrr+Y6pVK1K6B9mNnzWgR5EGeWKNce7B+RCCH671x47DSDb8rpApfI32BSqLR
uP/2jWbxNEQSA6/KkdAYvBMftd86szyUIaqCMoF4ucI4NsprhkOHyI6iUDog5/31
QcIFvUtRmoRpjM0ZtY3fmw==
-----END CERTIFICATE-----
