Certificate:
    Data:
        Version: 3 (0x2)
        Serial Number: 14615016 (0xdf01e8)
    Signature Algorithm: sha256WithRSAEncryption
        Issuer: C = US, O = Mother Nature, OU = Everything, CN = Mother Nature
        Validity
            Not Before: Jul 11 19:20:16 2016 GMT
            Not After : Sep 23 19:20:16 2016 GMT
        Subject: C = US, ST = FL, L = Tallahassee, street = 3210 Holly Mill Run, postalCode = 30062, O = Extreme Discord, OU = Chaos, CN = gov.us
        Subject Public Key Info:
            Public Key Algorithm: id-ecPublicKey
                Public-Key: (224 bit)
                pub:
                    04:fa:ce:ae:28:9b:65:70:fb:4e:a2:65:e2:2a:b3:
                    4e:d9:cb:39:6f:67:18:ec:83:df:75:27:67:40:72:
                    31:82:b1:58:7e:49:fa:e4:2e:d2:99:af:6c:c0:7a:
                    92:9f:2b:63:3f:b4:31:9c:73:2e:20:7f
                ASN1 OID: secp224r1
                NIST CURVE: P-224
        X509v3 extensions:
            X509v3 Basic Constraints: critical
                CA:FALSE
            X509v3 Authority Key Identifier: 
                keyid:01:02:03

            X509v3 Subject Key Identifier: 
                04:03:02:01
            X509v3 Subject Alternative Name: 
                DNS:*.gov.us, DNS:gov.us
            X509v3 Key Usage: 
                Data Encipherment, Key Agreement
            X509v3 Extended Key Usage: 
                TLS Web Server Authentication, 1.2.840.113635.100.4.3, Signing KDC Response, Any Extended Key Usage
            X509v3 CRL Distribution Points: 

                Full Name:
                  URI:http://crl.starfieldtech.com/sfig2s1-17.crl

    Signature Algorithm: sha256WithRSAEncryption
         58:f8:26:c2:b1:27:00:d9:a5:96:4c:99:ac:79:24:72:fd:a3:
         72:53:21:15:ca:2a:15:67:5f:d5:dc:00:10:98:21:9f:d1:49:
         29:f7:c9:e4:24:a1:82:a3:60:15:48:88:a2:24:cb:ab:3c:72:
         64:a0:a3:8d:cf:9b:ee:ea:d3:12:ad:4a:00:6e:6f:f7:65:f3:
         75:47:e3:de:9b:a9:8a:f6:5d:23:f6:5c:8e:aa:7e:29:d2:5b:
         2a:bc:29:95:82:dc:ec:ea:3b:30:99:5c:51:3d:df:a4:b4:72:
         ea:b0:ac:54:4b:ca:a5:1e:40:3b:9b:b5:34:2d:d3:13:97:8c:
         9f:77:c2:39:f2:dc:66:f2:18:b2:2a:98:57:0b:18:aa:23:6f:
         dc:f3:03:d7:c8:14:41:a8:c7:5c:b0:7c:31:02:6b:71:31:f7:
         97:8f:26:7b:7a:1f:cb:86:99:72:19:6b:bc:8c:3e:c5:82:24:
         cd:cd:1c:76:07:09:42:49:e6:79:dd:4d:e2:aa:25:40:29:69:
         38:f8:0b:e9:c2:ff:1c:cf:74:d8:0f:c3:f3:1b:e2:5f:80:64:
         75:42:b4:b3:65:0b:3b:9e:93:0e:05:c9:f1:eb:60:93:4b:73:
         7a:08:6f:8d:80:05:8a:cd:18:56:7e:1c:37:cc:6d:b7:7e:1c:
         8b:38:79:ca
-----BEGIN CERTIFICATE-----
MIIDXDCCAkSgAwIBAgIEAN8B6DANBgkqhkiG9w0BAQsFADBSMQswCQYDVQQGEwJV
UzEWMBQGA1UEChMNTW90aGVyIE5hdHVyZTETMBEGA1UECxMKRXZlcnl0aGluZzEW
MBQGA1UEAxMNTW90aGVyIE5hdHVyZTAeFw0xNjA3MTExOTIwMTZaFw0xNjA5MjMx
OTIwMTZaMIGZMQswCQYDVQQGEwJVUzELMAkGA1UECBMCRkwxFDASBgNVBAcTC1Rh
bGxhaGFzc2VlMRwwGgYDVQQJExMzMjEwIEhvbGx5IE1pbGwgUnVuMQ4wDAYDVQQR
EwUzMDA2MjEYMBYGA1UEChMPRXh0cmVtZSBEaXNjb3JkMQ4wDAYDVQQLEwVDaGFv
czEPMA0GA1UEAxMGZ292LnVzME4wEAYHKoZIzj0CAQYFK4EEACEDOgAE+s6uKJtl
cPtOomXiKrNO2cs5b2cY7IPfdSdnQHIxgrFYfkn65C7Sma9swHqSnytjP7QxnHMu
IH+jgccwgcQwDAYDVR0TAQH/BAIwADAOBgNVHSMEBzAFgAMBAgMwDQYDVR0OBAYE
BAQDAgEwGwYDVR0RBBQwEoIIKi5nb3YudXOCBmdvdi51czALBgNVHQ8EBAMCARgw
LQYDVR0lBCYwJAYIKwYBBQUHAwEGCSqGSIb3Y2QEAwYHKwYBBQIDBQYEVR0lADA8
BgNVHR8ENTAzMDGgL6AthitodHRwOi8vY3JsLnN0YXJmaWVsZHRlY2guY29tL3Nm
aWcyczEtMTcuY3JsMA0GCSqGSIb3DQEBCwUAA4IBAQBY+CbCsScA2aWWTJmseSRy
/aNyUyEVyioVZ1/V3AAQmCGf0Ukp98nkJKGCo2AVSIiiJMurPHJkoKONz5vu6tMS
rUoAbm/3ZfN1R+Pem6mK9l0j9lyOqn4p0lsqvCmVgtzs6jswmVxRPd+ktHLqsKxU
S8qlHkA7m7U0LdMTl4yfd8I58txm8hiyKphXCxiqI2/c8wPXyBRBqMdcsHwxAmtx
MfeXjyZ7eh/LhplyGWu8jD7FgiTNzRx2BwlCSeZ53U3iqiVAKWk4+Avpwv8cz3TY
D8PzG+JfgGR1QrSzZQs7npMOBcnx62CTS3N6CG+NgAWKzRhWfhw3zG23fhyLOHnK
-----END CERTIFICATE-----
