Certificate:
    Data:
        Version: 3 (0x2)
        Serial Number: 18008675309 (0x4316693ed)
    Signature Algorithm: sha256WithRSAEncryption
        Issuer: C = US, O = Mother Nature, OU = Everything, CN = Mother Nature
        Validity
            Not Before: Jul  6 15:27:08 2016 GMT
            Not After : Sep 18 15:27:08 2016 GMT
        Subject: C = US, ST = FL, L = Tallahassee, street = 3210 Holly Mill Run, postalCode = 30062, O = Extreme Discord, OU = Chaos, CN = gov.us
        Subject Public Key Info:
            Public Key Algorithm: rsaEncryption
                Public-Key: (2048 bit)
                Modulus:
                    00:c7:93:44:17:ee:0d:0a:39:c4:6a:c0:a0:ee:9e:
                    ab:58:f6:16:35:ca:18:65:44:69:30:8e:b3:aa:a6:
                    f4:a1:aa:aa:f5:1e:9d:16:29:89:fd:d1:52:1d:78:
                    8c:08:8b:42:09:82:3f:8c:37:ee:f2:49:40:7f:cb:
                    44:14:65:0b:fe:38:01:66:23:b8:de:d1:8a:c3:ee:
                    79:b4:a3:a2:9b:00:3a:0f:77:31:fd:4b:39:59:17:
                    e2:e6:5c:f1:f0:70:8c:2c:f3:d7:15:a7:2e:89:58:
                    23:1b:b3:cb:d6:af:63:76:c7:73:e2:4e:64:1e:e7:
                    86:3a:1e:c4:73:0f:df:67:0c:12:df:d5:42:d7:a4:
                    3c:11:5d:e1:41:75:58:59:74:63:aa:3c:eb:05:fc:
                    8b:32:61:45:59:22:64:5c:00:59:7e:7a:ea:2c:ee:
                    c8:c9:04:9d:2b:65:5d:8e:a3:6a:ed:c6:ac:63:d6:
                    b2:ab:eb:9c:78:42:8c:88:ba:9e:0d:03:61:5e:1f:
                    c8:14:9a:de:67:e6:4a:c1:b5:76:bf:96:18:c1:e2:
                    2d:86:8f:f7:57:1a:f3:72:3d:de:b9:c9:1f:4c:85:
                    f7:a4:68:78:3e:6e:f7:2f:fa:23:2d:fa:12:ce:bc:
                    e9:d4:bd:f8:5f:1c:d1:eb:62:a0:cd:12:00:bd:32:
                    34:51
                Exponent: 65537 (0x10001)
        X509v3 extensions:
            X509v3 Basic Constraints: critical
                CA:TRUE
            X509v3 Authority Key Identifier: 
                keyid:01:02:03

            X509v3 Subject Key Identifier: 
                04:03:02:01
            X509v3 Subject Alternative Name: 
                DNS:*.gov.us, DNS:gov.us
            X509v3 Key Usage: 
                Digital Signature, Certificate Sign, CRL Sign
            X509v3 Extended Key Usage: 
                TLS Web Server Authentication, TLS Web Client Authentication
    Signature Algorithm: sha256WithRSAEncryption
         db:aa:dd:36:23:65:e9:21:76:1d:35:c6:15:ad:cb:f0:e0:37:
         d1:23:e0:0b:14:e4:fe:0a:19:5e:cd:d9:59:26:d3:72:9b:df:
         cb:5f:5f:c7:94:9a:d8:25:f8:1f:65:a6:1c:b0:eb:88:c0:55:
         95:9d:2d:d6:90:5e:26:b6:5c:19:a1:1a:fc:81:4e:e0:54:77:
         4a:47:75:b5:17:c1:55:76:af:8e:cb:9d:ba:6e:b0:34:50:ac:
         73:2f:ea:5a:9d:dc:6e:50:57:23:f7:d2:23:aa:32:15:58:af:
         2f:1b:70:0f:c7:77:c1:a2:34:8c:f0:cd:83:42:46:21:9b:1b:
         ed:de:19:5a:88:11:2a:ee:c6:8c:0f:ee:26:04:64:77:55:13:
         4a:21:cd:ec:41:b8:85:0d:85:e4:4d:34:6e:28:e1:06:a4:0a:
         34:a7:37:8f:2e:34:04:b9:5b:df:5f:32:6b:54:32:37:27:1b:
         31:6a:d0:f5:f7:51:26:1d:25:55:a7:b6:9a:16:ff:1b:3a:e5:
         74:85:79:66:d6:59:6b:93:9b:79:5f:81:a7:3d:a4:d6:e6:06:
         04:db:47:ce:45:d0:a4:29:48:38:43:27:b0:39:f6:f1:ed:fa:
         f0:12:fc:b0:c4:1f:08:61:59:66:af:30:b7:12:01:28:41:f8:
         18:ed:30:85
-----BEGIN CERTIFICATE-----
MIID5jCCAs6gAwIBAgIFBDFmk+0wDQYJKoZIhvcNAQELBQAwUjELMAkGA1UEBhMC
VVMxFjAUBgNVBAoTDU1vdGhlciBOYXR1cmUxEzARBgNVBAsTCkV2ZXJ5dGhpbmcx
FjAUBgNVBAMTDU1vdGhlciBOYXR1cmUwHhcNMTYwNzA2MTUyNzA4WhcNMTYwOTE4
MTUyNzA4WjCBmTELMAkGA1UEBhMCVVMxCzAJBgNVBAgTAkZMMRQwEgYDVQQHEwtU
YWxsYWhhc3NlZTEcMBoGA1UECRMTMzIxMCBIb2xseSBNaWxsIFJ1bjEOMAwGA1UE
ERMFMzAwNjIxGDAWBgNVBAoTD0V4dHJlbWUgRGlzY29yZDEOMAwGA1UECxMFQ2hh
b3MxDzANBgNVBAMTBmdvdi51czCCASIwDQYJKoZIhvcNAQEBBQADggEPADCCAQoC
ggEBAMeTRBfuDQo5xGrAoO6eq1j2FjXKGGVEaTCOs6qm9KGqqvUenRYpif3RUh14
jAiLQgmCP4w37vJJQH/LRBRlC/44AWYjuN7RisPuebSjopsAOg93Mf1LOVkX4uZc
8fBwjCzz1xWnLolYIxuzy9avY3bHc+JOZB7nhjoexHMP32cMEt/VQtekPBFd4UF1
WFl0Y6o86wX8izJhRVkiZFwAWX566izuyMkEnStlXY6jau3GrGPWsqvrnHhCjIi6
ng0DYV4fyBSa3mfmSsG1dr+WGMHiLYaP91ca83I93rnJH0yF96RoeD5u9y/6Iy36
Es686dS9+F8c0etioM0SAL0yNFECAwEAAaN7MHkwDwYDVR0TAQH/BAUwAwEB/zAO
BgNVHSMEBzAFgAMBAgMwDQYDVR0OBAYEBAQDAgEwGwYDVR0RBBQwEoIIKi5nb3Yu
dXOCBmdvdi51czALBgNVHQ8EBAMCAYYwHQYDVR0lBBYwFAYIKwYBBQUHAwEGCCsG
AQUFBwMCMA0GCSqGSIb3DQEBCwUAA4IBAQDbqt02I2XpIXYdNcYVrcvw4DfRI+AL
FOT+ChlezdlZJtNym9/LX1/HlJrYJfgfZaYcsOuIwFWVnS3WkF4mtlwZoRr8gU7g
VHdKR3W1F8FVdq+Oy526brA0UKxzL+pandxuUFcj99IjqjIVWK8vG3APx3fBojSM
8M2DQkYhmxvt3hlaiBEq7saMD+4mBGR3VRNKIc3sQbiFDYXkTTRuKOEGpAo0pzeP
LjQEuVvfXzJrVDI3JxsxatD191EmHSVVp7aaFv8bOuV0hXlm1llrk5t5X4GnPaTW
5gYE20fORdCkKUg4QyewOfbx7frwEvywxB8IYVlmrzC3EgEoQfgY7TCF
-----END CERTIFICATE-----
