Certificate:
    Data:
        Version: 3 (0x2)
        Serial Number: 18008675309 (0x4316693ed)
    Signature Algorithm: sha256WithRSAEncryption
        Issuer: C = US, O = Mother Nature, OU = Everything, CN = Mother Nature
        Validity
            Not Before: Jul  6 17:46:12 2016 GMT
            Not After : Sep 18 17:46:12 2016 GMT
        Subject: C = US, ST = FL, L = Tallahassee, street = 3210 Holly Mill Run, postalCode = 30062, O = Extreme Discord, OU = Chaos, CN = gov.us
        Subject Public Key Info:
            Public Key Algorithm: rsaEncryption
                Public-Key: (2048 bit)
                Modulus:
                    00:cd:8e:07:69:a4:6a:bb:54:bb:8b:0e:88:08:31:
                    d8:e0:3e:b6:61:c5:c3:c3:44:2f:e4:39:c1:63:5b:
                    eb:29:80:1f:e6:64:d1:a1:c5:57:30:90:76:9d:ba:
                    ee:af:46:05:dd:ff:dd:24:71:cb:b5:22:81:ea:df:
                    45:9b:7f:90:07:3d:93:f3:a3:9d:5a:9b:ce:46:40:
                    c7:bf:24:2b:02:00:8f:f6:b7:6f:57:60:77:a9:5f:
                    6c:a3:ab:ad:fb:75:be:fa:1c:07:07:81:7e:ca:c0:
                    ff:a2:88:87:ac:0f:0d:9c:d3:46:e9:63:85:8d:5f:
                    b8:68:70:0c:62:7e:aa:9e:99:68:14:b0:fc:f5:fd:
                    41:a5:6a:39:fe:38:7e:d5:6f:16:c2:1d:0a:91:a4:
                    b9:0e:5b:bf:84:fc:8f:47:36:20:01:d4:c9:64:94:
                    3e:18:7c:60:dc:98:e5:8f:9f:6b:cc:57:7d:27:5d:
                    cc:16:f2:dd:98:60:10:ea:b8:f1:ef:e7:7b:ed:4c:
                    63:0c:46:1a:3e:69:dd:84:ed:7a:3c:71:6b:96:3c:
                    51:51:ad:46:ec:2b:98:dc:b7:34:41:2e:02:64:6d:
                    ca:43:f4:73:d8:9f:11:6c:28:5d:fc:36:2f:4e:89:
                    fc:25:26:61:b2:ba:11:31:d1:eb:4c:c6:ac:6e:6f:
                    96:59
                Exponent: 65537 (0x10001)
        X509v3 extensions:
            X509v3 Basic Constraints: critical
                CA:TRUE
            X509v3 Authority Key Identifier: 
                keyid:01:02:03

            X509v3 Subject Key Identifier: 
                04:03:02:01
            X509v3 Subject Alternative Name: 
                DNS:*.gov.us, DNS:gov.us
            X509v3 Key Usage: 
                Digital Signature, Certificate Sign, CRL Sign
            X509v3 Extended Key Usage: critical
                TLS Web Server Authentication, TLS Web Client Authentication
            X509v3 CRL Distribution Points: critical
                
    Signature Algorithm: sha256WithRSAEncryption
         bf:9b:54:2b:52:31:42:b7:0b:70:35:59:7d:c9:1a:42:87:21:
         ab:14:0a:9a:58:76:1b:89:b5:ec:66:de:89:46:b6:11:de:69:
         3d:90:d4:e6:8e:d8:88:d4:7a:2a:53:a5:ca:1a:53:63:85:9f:
         3c:af:ce:ac:34:58:5c:52:8f:2b:d2:3f:f5:6f:de:ec:4d:f0:
         53:f8:b6:83:34:a2:80:d8:ad:ee:8e:31:c0:38:f2:e5:6f:aa:
         77:90:b9:53:60:fc:bf:39:f5:22:c4:4b:e5:53:ec:7c:7b:2a:
         89:48:e6:ab:e4:e8:5c:56:9c:87:0f:ab:0f:57:b5:ba:26:f1:
         fd:8e:e7:b4:68:c4:68:d1:a4:6e:ed:e8:71:6a:61:9d:ed:b0:
         0b:6e:00:4e:b5:2b:5a:d8:5f:47:39:9e:46:77:cb:a2:d2:52:
         97:27:fb:d8:0f:71:bb:d7:dd:04:71:12:88:dc:29:4b:e8:70:
         bb:44:7b:1b:f2:38:ad:f1:98:c5:f4:07:4f:f9:ed:98:65:a1:
         a0:81:4e:31:44:c4:9d:33:9a:6f:2e:d0:4d:a3:5c:9f:d9:b4:
         4f:82:21:f7:6e:50:d8:6d:23:32:af:77:f7:5d:4a:89:6f:6b:
         93:ab:72:79:5c:9d:a0:73:a6:f5:10:7b:bf:4f:d1:b8:f4:13:
         6e:ac:1d:b6
-----BEGIN CERTIFICATE-----
MIID9zCCAt+gAwIBAgIFBDFmk+0wDQYJKoZIhvcNAQELBQAwUjELMAkGA1UEBhMC
VVMxFjAUBgNVBAoTDU1vdGhlciBOYXR1cmUxEzARBgNVBAsTCkV2ZXJ5dGhpbmcx
FjAUBgNVBAMTDU1vdGhlciBOYXR1cmUwHhcNMTYwNzA2MTc0NjEyWhcNMTYwOTE4
MTc0NjEyWjCBmTELMAkGA1UEBhMCVVMxCzAJBgNVBAgTAkZMMRQwEgYDVQQHEwtU
YWxsYWhhc3NlZTEcMBoGA1UECRMTMzIxMCBIb2xseSBNaWxsIFJ1bjEOMAwGA1UE
ERMFMzAwNjIxGDAWBgNVBAoTD0V4dHJlbWUgRGlzY29yZDEOMAwGA1UECxMFQ2hh
b3MxDzANBgNVBAMTBmdvdi51czCCASIwDQYJKoZIhvcNAQEBBQADggEPADCCAQoC
ggEBAM2OB2mkartUu4sOiAgx2OA+tmHFw8NEL+Q5wWNb6ymAH+Zk0aHFVzCQdp26
7q9GBd3/3SRxy7UigerfRZt/kAc9k/OjnVqbzkZAx78kKwIAj/a3b1dgd6lfbKOr
rft1vvocBweBfsrA/6KIh6wPDZzTRuljhY1fuGhwDGJ+qp6ZaBSw/PX9QaVqOf44
ftVvFsIdCpGkuQ5bv4T8j0c2IAHUyWSUPhh8YNyY5Y+fa8xXfSddzBby3ZhgEOq4
8e/ne+1MYwxGGj5p3YTtejxxa5Y8UVGtRuwrmNy3NEEuAmRtykP0c9ifEWwoXfw2
L06J/CUmYbK6ETHR60zGrG5vllkCAwEAAaOBizCBiDAPBgNVHRMBAf8EBTADAQH/
MA4GA1UdIwQHMAWAAwECAzANBgNVHQ4EBgQEBAMCATAbBgNVHREEFDASgggqLmdv
di51c4IGZ292LnVzMAsGA1UdDwQEAwIBhjAgBgNVHSUBAf8EFjAUBggrBgEFBQcD
AQYIKwYBBQUHAwIwCgYDVR0fAQH/BAAwDQYJKoZIhvcNAQELBQADggEBAL+bVCtS
MUK3C3A1WX3JGkKHIasUCppYdhuJtexm3olGthHeaT2Q1OaO2IjUeipTpcoaU2OF
nzyvzqw0WFxSjyvSP/Vv3uxN8FP4toM0ooDYre6OMcA48uVvqneQuVNg/L859SLE
S+VT7Hx7KolI5qvk6FxWnIcPqw9Xtbom8f2O57RoxGjRpG7t6HFqYZ3tsAtuAE61
K1rYX0c5nkZ3y6LSUpcn+9gPcbvX3QRxEojcKUvocLtEexvyOK3xmMX0B0/57Zhl
oaCBTjFExJ0zmm8u0E2jXJ/ZtE+CIfduUNhtIzKvd/ddSolva5OrcnlcnaBzpvUQ
e79P0bj0E26sHbY=
-----END CERTIFICATE-----
