Certificate:
    Data:
        Version: 3 (0x2)
        Serial Number: 18008675309 (0x4316693ed)
    Signature Algorithm: sha256WithRSAEncryption
        Issuer: C=US, O=Mother Nature, OU=Everything, CN=Mother Nature
        Validity
            Not Before: Aug 22 04:03:30 2017 GMT
            Not After : Nov  3 04:03:30 2017 GMT
        Subject: C=US, ST=FL, L=Tallahassee/street=3210 Holly Mill Run/postalCode=30062, O=Extreme Discord, OU=Chaos, CN=gov.us
        Subject Public Key Info:
            Public Key Algorithm: rsaEncryption
                Public-Key: (2048 bit)
                Modulus:
                    00:d4:14:af:fe:0e:d4:87:3d:b0:3d:9a:77:7e:2f:
                    6c:b9:0d:33:d4:87:42:c5:b4:d3:16:86:4b:5a:ad:
                    b3:ca:dc:93:4e:ce:be:12:72:34:db:2c:dc:26:27:
                    b6:c7:22:1e:71:18:c0:df:e4:d4:eb:fa:1a:0c:ad:
                    44:87:cf:f6:d9:cc:fa:85:7f:d2:22:15:a9:18:1e:
                    6b:ee:e2:6e:6f:c2:48:67:05:d3:55:1a:82:84:1f:
                    a1:d4:1a:c4:04:60:34:21:9d:2f:3d:b7:66:40:aa:
                    eb:8e:a2:54:d9:5e:ed:b5:f7:73:19:33:5d:11:4d:
                    54:be:a8:d0:35:db:11:bd:b4:07:8d:2d:e3:35:11:
                    58:96:84:71:0e:58:76:02:58:a9:43:92:73:05:e0:
                    69:a4:5b:eb:ba:98:1c:f3:46:89:52:10:a6:00:97:
                    36:25:84:17:58:d5:84:9e:a0:55:78:e8:b8:86:0d:
                    b1:13:7e:5a:5c:20:db:e0:46:84:00:50:79:5c:df:
                    0b:2e:63:d3:d2:d1:8a:3a:9e:fe:0b:f7:23:d8:7b:
                    ec:b7:39:40:f0:58:a1:d4:24:95:f1:ce:18:83:2b:
                    53:7b:88:18:01:a1:93:76:3e:c5:ed:1a:99:ec:03:
                    36:d1:94:a9:a4:66:db:96:83:eb:00:b1:ad:ef:b5:
                    48:1b
                Exponent: 65537 (0x10001)
        X509v3 extensions:
            X509v3 Key Usage: critical
                Digital Signature, Key Encipherment
            X509v3 Extended Key Usage: 
                TLS Web Client Authentication, TLS Web Server Authentication
            X509v3 Basic Constraints: critical
                CA:TRUE
            X509v3 Authority Key Identifier: 
                keyid:01:02:03

            X509v3 Certificate Policies: 
                Policy: 2.23.140.1.2.2

            Authority Information Access: critical
                CA Issuers - URI:http://cdp1.pca.dfn.de/global-root-ca/pub/cacert/cacert.crt
                CA Issuers - URI:http://cdp2.pca.dfn.de/global-root-ca/pub/cacert/cacert.crt

    Signature Algorithm: sha256WithRSAEncryption
         14:c6:42:5c:7d:18:ad:f9:cb:5f:c0:65:c1:00:51:b1:2c:37:
         ae:97:bf:08:04:12:3f:ee:32:8d:fa:88:d3:f4:77:0d:fb:fd:
         d6:e7:22:ac:a1:a3:da:27:d5:77:89:65:a1:21:3f:24:e9:0d:
         f3:f9:fe:42:2d:8a:65:1c:c3:7a:55:3b:38:35:56:4e:d2:eb:
         8d:06:c1:07:d3:6e:8f:ef:0f:92:21:b0:0b:e7:c0:be:2a:ad:
         2f:f5:1d:a7:59:d3:80:a3:a6:bb:49:e0:5b:63:64:0a:46:02:
         f9:4f:3e:b6:8a:4a:01:bf:aa:17:1f:66:4f:d7:4e:b7:d7:ce:
         69:d4:28:58:58:6d:e9:68:fc:fb:19:f3:8a:11:f3:2a:93:a0:
         a2:17:c1:18:04:a2:13:9b:78:2c:90:4a:e9:8a:cb:b0:b7:8e:
         f1:95:cd:3f:c8:0d:3f:94:8f:8f:e0:f9:76:37:b7:ee:70:39:
         cb:b7:07:04:50:8d:b6:ba:ca:74:ee:5b:f0:77:e4:ad:30:ad:
         e2:c0:f1:8c:24:9b:1d:7e:b5:69:8c:ed:8f:71:1a:ad:ea:b8:
         2e:05:80:1e:59:8a:3f:c7:bc:c4:fb:07:a8:d5:04:20:2d:52:
         89:20:f9:8f:93:1b:0b:69:ca:5c:48:e7:f0:9a:a5:aa:66:b8:
         73:72:2f:39
-----BEGIN CERTIFICATE-----
MIIEfjCCA2agAwIBAgIFBDFmk+0wDQYJKoZIhvcNAQELBQAwUjELMAkGA1UEBhMC
VVMxFjAUBgNVBAoTDU1vdGhlciBOYXR1cmUxEzARBgNVBAsTCkV2ZXJ5dGhpbmcx
FjAUBgNVBAMTDU1vdGhlciBOYXR1cmUwHhcNMTcwODIyMDQwMzMwWhcNMTcxMTAz
MDQwMzMwWjCBmTELMAkGA1UEBhMCVVMxCzAJBgNVBAgTAkZMMRQwEgYDVQQHEwtU
YWxsYWhhc3NlZTEcMBoGA1UECRMTMzIxMCBIb2xseSBNaWxsIFJ1bjEOMAwGA1UE
ERMFMzAwNjIxGDAWBgNVBAoTD0V4dHJlbWUgRGlzY29yZDEOMAwGA1UECxMFQ2hh
b3MxDzANBgNVBAMTBmdvdi51czCCASIwDQYJKoZIhvcNAQEBBQADggEPADCCAQoC
ggEBANQUr/4O1Ic9sD2ad34vbLkNM9SHQsW00xaGS1qts8rck07OvhJyNNss3CYn
tsciHnEYwN/k1Ov6GgytRIfP9tnM+oV/0iIVqRgea+7ibm/CSGcF01UagoQfodQa
xARgNCGdLz23ZkCq646iVNle7bX3cxkzXRFNVL6o0DXbEb20B40t4zURWJaEcQ5Y
dgJYqUOScwXgaaRb67qYHPNGiVIQpgCXNiWEF1jVhJ6gVXjouIYNsRN+Wlwg2+BG
hABQeVzfCy5j09LRijqe/gv3I9h77Lc5QPBYodQklfHOGIMrU3uIGAGhk3Y+xe0a
mewDNtGUqaRm25aD6wCxre+1SBsCAwEAAaOCAREwggENMA4GA1UdDwEB/wQEAwIF
oDAdBgNVHSUEFjAUBggrBgEFBQcDAgYIKwYBBQUHAwEwDwYDVR0TAQH/BAUwAwEB
/zAOBgNVHSMEBzAFgAMBAgMwEwYDVR0gBAwwCjAIBgZngQwBAgIwgaUGCCsGAQUF
BwEBAQH/BIGVMIGSMEcGCCsGAQUFBzAChjtodHRwOi8vY2RwMS5wY2EuZGZuLmRl
L2dsb2JhbC1yb290LWNhL3B1Yi9jYWNlcnQvY2FjZXJ0LmNydDBHBggrBgEFBQcw
AoY7aHR0cDovL2NkcDIucGNhLmRmbi5kZS9nbG9iYWwtcm9vdC1jYS9wdWIvY2Fj
ZXJ0L2NhY2VydC5jcnQwDQYJKoZIhvcNAQELBQADggEBABTGQlx9GK35y1/AZcEA
UbEsN66XvwgEEj/uMo36iNP0dw37/dbnIqyho9on1XeJZaEhPyTpDfP5/kItimUc
w3pVOzg1Vk7S640GwQfTbo/vD5IhsAvnwL4qrS/1HadZ04CjprtJ4FtjZApGAvlP
PraKSgG/qhcfZk/XTrfXzmnUKFhYbelo/PsZ84oR8yqToKIXwRgEohObeCyQSumK
y7C3jvGVzT/IDT+Uj4/g+XY3t+5wOcu3BwRQjba6ynTuW/B35K0wreLA8Ywkmx1+
tWmM7Y9xGq3quC4FgB5Zij/HvMT7B6jVBCAtUokg+Y+TGwtpylxI5/CapapmuHNy
Lzk=
-----END CERTIFICATE-----
