Certificate:
    Data:
        Version: 3 (0x2)
        Serial Number: 18008675309 (0x4316693ed)
    Signature Algorithm: sha256WithRSAEncryption
        Issuer: CN=Mother Nature, OU=Everything, O=Mother Nature/postalCode=postalcode, C=US, GN=givenname, SN=surname
        Validity
            Not Before: Aug 24 04:39:58 2017 GMT
            Not After : Nov  5 04:39:58 2017 GMT
        Subject: CN=gov.us, OU=Chaos, O=org/street=3210 Holly Mill Run, ST=province/postalCode=30062, GN=hello, SN=surname
        Subject Public Key Info:
            Public Key Algorithm: rsaEncryption
                Public-Key: (2048 bit)
                Modulus:
                    00:b6:d1:2b:de:99:bb:94:85:a8:89:bf:19:f9:2a:
                    df:ea:a4:ea:12:ee:c2:0c:41:9f:ae:c4:ba:0f:48:
                    cc:93:d6:9e:dc:f8:60:bc:37:44:4e:a5:46:a6:a0:
                    40:ab:8f:f6:10:ed:4b:c8:6a:e0:d2:8f:f1:e7:c6:
                    c0:2d:69:d6:b0:69:4e:85:eb:aa:a9:80:e6:7a:57:
                    f2:6d:af:1d:84:5b:56:f0:81:eb:8b:e5:de:5f:cd:
                    81:e5:ef:54:08:4d:d9:0c:7c:bf:4e:3c:70:ec:31:
                    1e:c5:ef:11:6b:c8:75:7d:c6:d6:f0:a4:38:3e:cf:
                    19:31:40:82:87:a3:a0:f6:ed:0a:77:ee:8a:a8:59:
                    28:75:70:11:9b:79:84:bc:50:e1:b5:64:15:6b:7a:
                    9e:68:7d:f2:1d:a5:ea:a6:0a:3a:be:94:ab:3d:4e:
                    1d:c0:e8:01:17:11:7f:4b:4f:21:ca:da:21:6e:02:
                    7e:a8:85:a9:47:00:3a:6e:4d:18:5a:e6:6c:3a:44:
                    8b:7a:98:7b:9d:fc:2a:0b:cd:bf:a1:73:8d:e7:1c:
                    0d:0a:57:4a:07:1a:dd:95:b1:f4:e1:01:0d:55:74:
                    6c:e0:f4:28:2e:20:73:8e:3b:c5:63:8d:72:93:47:
                    cd:db:bd:04:52:ea:b7:e7:b6:fe:6a:b5:4a:14:93:
                    fb:f7
                Exponent: 65537 (0x10001)
        X509v3 extensions:
            X509v3 Key Usage: critical
                Digital Signature, Key Encipherment
            X509v3 Extended Key Usage: 
                TLS Web Client Authentication, TLS Web Server Authentication
            X509v3 Basic Constraints: critical
                CA:TRUE
            X509v3 Authority Key Identifier: 
                keyid:01:02:03

            X509v3 Certificate Policies: 
                Policy: X509v3 Any Policy

            Authority Information Access: critical
                OCSP - URI:http://ss.symcd.com
                CA Issuers - URI:http://ss.symcb.com/ss.crt

    Signature Algorithm: sha256WithRSAEncryption
         b9:5f:2d:26:c3:ed:56:ae:68:85:74:c9:4c:88:e3:86:bc:58:
         e6:ec:f2:1e:ea:dc:61:ab:f7:01:a6:d2:6f:94:1e:30:79:b3:
         06:8c:13:f8:a3:6e:a2:46:a5:98:10:72:f9:f1:83:30:70:a5:
         d1:ef:cc:7e:75:31:b0:e6:9d:a2:44:fb:30:ce:0c:28:95:26:
         84:8b:5f:ca:ce:ac:ff:9b:c5:fd:fa:de:e2:9b:8d:67:99:66:
         d4:b8:61:f2:93:d8:5c:40:5c:38:ee:d4:67:22:aa:6b:f2:8f:
         7e:1a:90:57:dd:28:42:61:f7:b6:64:ae:9b:a3:e7:3a:27:1f:
         1f:17:71:93:9f:44:80:d6:7e:8a:97:7e:68:ca:e1:e9:be:a9:
         5e:26:44:9a:f5:c2:20:31:57:ec:9f:c4:8b:7f:f9:a6:8e:fc:
         6e:1b:83:a0:ec:2b:d3:67:45:1f:20:7f:75:f2:4a:a2:b1:21:
         ed:3b:b0:a9:9f:ba:d1:66:5d:c8:88:d2:34:f0:28:64:50:86:
         64:58:15:86:ce:15:90:04:c0:25:57:b0:1b:32:f9:61:4b:77:
         f8:d6:ff:1c:d0:b5:e1:66:26:3b:85:da:37:a3:f5:aa:ec:dc:
         45:46:aa:8d:53:a0:ce:26:44:03:77:5f:f6:40:84:9e:47:c1:
         a8:6c:2d:a6
-----BEGIN CERTIFICATE-----
MIIEYzCCA02gAwIBAgIFBDFmk+0wCwYJKoZIhvcNAQELMIGPMRYwFAYDVQQDEw1N
b3RoZXIgTmF0dXJlMRMwEQYDVQQLEwpFdmVyeXRoaW5nMRYwFAYDVQQKEw1Nb3Ro
ZXIgTmF0dXJlMRMwEQYDVQQREwpwb3N0YWxjb2RlMQswCQYDVQQGEwJVUzESMBAG
A1UEKhMJZ2l2ZW5uYW1lMRAwDgYDVQQEEwdzdXJuYW1lMQAwHhcNMTcwODI0MDQz
OTU4WhcNMTcxMTA1MDQzOTU4WjCBlDEPMA0GA1UEAxMGZ292LnVzMQ4wDAYDVQQL
EwVDaGFvczEMMAoGA1UEChMDb3JnMRwwGgYDVQQJExMzMjEwIEhvbGx5IE1pbGwg
UnVuMREwDwYDVQQIEwhwcm92aW5jZTEOMAwGA1UEERMFMzAwNjIxDjAMBgNVBCoT
BWhlbGxvMRAwDgYDVQQEEwdzdXJuYW1lMQAwggEiMA0GCSqGSIb3DQEBAQUAA4IB
DwAwggEKAoIBAQC20SvembuUhaiJvxn5Kt/qpOoS7sIMQZ+uxLoPSMyT1p7c+GC8
N0ROpUamoECrj/YQ7UvIauDSj/HnxsAtadawaU6F66qpgOZ6V/Jtrx2EW1bwgeuL
5d5fzYHl71QITdkMfL9OPHDsMR7F7xFryHV9xtbwpDg+zxkxQIKHo6D27Qp37oqo
WSh1cBGbeYS8UOG1ZBVrep5offIdpeqmCjq+lKs9Th3A6AEXEX9LTyHK2iFuAn6o
halHADpuTRha5mw6RIt6mHud/CoLzb+hc43nHA0KV0oHGt2VsfThAQ1VdGzg9Cgu
IHOOO8VjjXKTR83bvQRS6rfntv5qtUoUk/v3AgMBAAGjgcIwgb8wDgYDVR0PAQH/
BAQDAgCgMB0GA1UdJQQWMBQGCCsGAQUFBwMCBggrBgEFBQcDATAPBgNVHRMBAf8E
BTADAQH/MA4GA1UdIwQHMAWAAwECAzARBgNVHSAECjAIMAYGBFUdIAAwWgYIKwYB
BQUHAQEBAf8ESzBJMB8GCCsGAQUFBzABhhNodHRwOi8vc3Muc3ltY2QuY29tMCYG
CCsGAQUFBzAChhpodHRwOi8vc3Muc3ltY2IuY29tL3NzLmNydDALBgkqhkiG9w0B
AQsDggEBALlfLSbD7VauaIV0yUyI44a8WObs8h7q3GGr9wGm0m+UHjB5swaME/ij
bqJGpZgQcvnxgzBwpdHvzH51MbDmnaJE+zDODCiVJoSLX8rOrP+bxf363uKbjWeZ
ZtS4YfKT2FxAXDju1Gciqmvyj34akFfdKEJh97Zkrpuj5zonHx8XcZOfRIDWfoqX
fmjK4em+qV4mRJr1wiAxV+yfxIt/+aaO/G4bg6DsK9NnRR8gf3XySqKxIe07sKmf
utFmXciI0jTwKGRQhmRYFYbOFZAEwCVXsBsy+WFLd/jW/xzQteFmJjuF2jej9ars
3EVGqo1ToM4mRAN3X/ZAhJ5HwahsLaY=
-----END CERTIFICATE-----
