Certificate:
    Data:
        Version: 3 (0x2)
        Serial Number: 18008675309 (0x4316693ed)
    Signature Algorithm: sha256WithRSAEncryption
        Issuer: C = US, O = Mother Nature, OU = Everything, CN = Mother Nature
        Validity
            Not Before: Jul  5 15:02:35 2016 GMT
            Not After : Sep 17 15:02:35 2016 GMT
        Subject: C = US, ST = FL, L = Tallahassee, street = 3210 Holly Mill Run, postalCode = 30062, O = Extreme Discord, OU = Chaos, CN = gov.us
        Subject Public Key Info:
            Public Key Algorithm: rsaEncryption
                Public-Key: (2048 bit)
                Modulus:
                    00:b9:d7:95:09:84:c0:50:58:8c:ec:4c:66:43:2e:
                    18:ad:64:38:37:ff:e3:66:3f:ce:71:f6:a9:f4:44:
                    2f:a9:e3:24:9b:13:57:14:29:d4:b7:15:11:08:18:
                    2f:32:d4:dd:7d:70:5c:0e:8f:70:ea:8a:51:82:2b:
                    16:8b:bf:93:d6:64:14:7e:51:84:6f:64:57:4a:c4:
                    b9:d9:88:d7:1d:42:79:ad:eb:0c:68:cf:35:cb:f1:
                    e4:8c:20:8a:f6:2c:d7:05:bd:68:3e:f6:d0:2d:2c:
                    88:02:40:bb:18:d5:8a:8f:e1:56:71:73:0f:ca:1e:
                    78:94:0c:07:cc:fa:58:0f:c1:4f:80:5e:f0:26:be:
                    7e:07:7f:fc:e6:0e:c0:7c:96:1a:64:69:37:22:12:
                    7c:64:53:50:35:c3:94:db:46:d4:be:c0:e3:d9:44:
                    a8:cb:52:e3:63:7e:41:7a:b2:57:68:f0:f0:57:03:
                    a9:a2:46:5b:38:e4:f7:ce:ef:8e:04:4d:79:9c:74:
                    87:52:8b:42:d5:8d:c8:c6:92:33:ce:c0:b7:fb:ce:
                    c6:4c:cb:31:b6:31:36:9e:1b:1b:09:dd:66:3e:b9:
                    26:a1:de:2c:5c:4e:90:3b:c3:4f:b1:3a:37:c1:2c:
                    cc:c7:fc:f1:04:7f:bd:61:8f:f4:fe:7f:15:fe:cd:
                    d7:d7
                Exponent: 65537 (0x10001)
        X509v3 extensions:
            X509v3 Basic Constraints: critical
                CA:FALSE
            X509v3 Authority Key Identifier: 
                keyid:01:02:03

            Authority Information Access: 
                OCSP - URI:http://theca.net/ocsp

            X509v3 Subject Key Identifier: 
                04:03:02:01
            X509v3 Subject Alternative Name: 
                DNS:*.gov.us, DNS:gov.us
            X509v3 Key Usage: 
                Digital Signature, Certificate Sign, CRL Sign
    Signature Algorithm: sha256WithRSAEncryption
         16:3e:b7:e1:ab:6e:a2:3d:40:06:a4:5b:83:7f:a1:3e:32:89:
         d7:e0:0f:d6:16:08:82:2f:09:3e:b7:24:9f:1d:73:51:f0:5c:
         60:d5:fe:77:a0:d2:ef:c2:ba:bb:12:f0:f7:ed:ac:28:47:e6:
         b2:59:dd:0f:a4:33:b0:d8:3a:b0:b0:10:90:09:9c:7a:ac:c6:
         a6:17:f5:7d:08:e4:ff:2c:97:74:24:86:90:ae:78:60:ce:60:
         a4:cf:95:64:a2:72:b6:7a:15:75:38:82:d9:7a:2f:32:ca:98:
         8c:30:7b:f2:5e:4c:a5:5c:2c:f7:84:c0:cf:ad:8b:7b:30:70:
         01:36:86:e3:28:86:99:31:71:79:35:40:99:6b:fe:9b:9d:21:
         21:1a:87:df:04:94:32:5f:83:f4:d6:33:40:7b:ec:51:6d:fb:
         38:5d:9a:9b:96:47:73:0a:12:f8:97:98:20:6f:2a:36:c6:54:
         a1:1e:51:01:75:ff:b6:d2:3b:b0:42:26:bd:1d:1e:1d:a0:ab:
         1d:cc:90:11:1c:f3:52:98:e8:ca:43:3f:d6:1b:96:b1:dd:fd:
         5e:a4:f5:e2:c3:7c:ff:d8:87:5d:d2:d1:e6:6c:98:e5:18:09:
         98:89:0e:06:86:01:85:dd:d3:0c:c1:f3:75:19:ab:da:7f:dd:
         7b:2b:88:3e
-----BEGIN CERTIFICATE-----
MIID+TCCAuGgAwIBAgIFBDFmk+0wDQYJKoZIhvcNAQELBQAwUjELMAkGA1UEBhMC
VVMxFjAUBgNVBAoTDU1vdGhlciBOYXR1cmUxEzARBgNVBAsTCkV2ZXJ5dGhpbmcx
FjAUBgNVBAMTDU1vdGhlciBOYXR1cmUwHhcNMTYwNzA1MTUwMjM1WhcNMTYwOTE3
MTUwMjM1WjCBmTELMAkGA1UEBhMCVVMxCzAJBgNVBAgTAkZMMRQwEgYDVQQHEwtU
YWxsYWhhc3NlZTEcMBoGA1UECRMTMzIxMCBIb2xseSBNaWxsIFJ1bjEOMAwGA1UE
ERMFMzAwNjIxGDAWBgNVBAoTD0V4dHJlbWUgRGlzY29yZDEOMAwGA1UECxMFQ2hh
b3MxDzANBgNVBAMTBmdvdi51czCCASIwDQYJKoZIhvcNAQEBBQADggEPADCCAQoC
ggEBALnXlQmEwFBYjOxMZkMuGK1kODf/42Y/znH2qfREL6njJJsTVxQp1LcVEQgY
LzLU3X1wXA6PcOqKUYIrFou/k9ZkFH5RhG9kV0rEudmI1x1Cea3rDGjPNcvx5Iwg
ivYs1wW9aD720C0siAJAuxjVio/hVnFzD8oeeJQMB8z6WA/BT4Be8Ca+fgd//OYO
wHyWGmRpNyISfGRTUDXDlNtG1L7A49lEqMtS42N+QXqyV2jw8FcDqaJGWzjk987v
jgRNeZx0h1KLQtWNyMaSM87At/vOxkzLMbYxNp4bGwndZj65JqHeLFxOkDvDT7E6
N8EszMf88QR/vWGP9P5/Ff7N19cCAwEAAaOBjTCBijAMBgNVHRMBAf8EAjAAMA4G
A1UdIwQHMAWAAwECAzAxBggrBgEFBQcBAQQlMCMwIQYIKwYBBQUHMAGGFWh0dHA6
Ly90aGVjYS5uZXQvb2NzcDANBgNVHQ4EBgQEBAMCATAbBgNVHREEFDASgggqLmdv
di51c4IGZ292LnVzMAsGA1UdDwQEAwIBhjANBgkqhkiG9w0BAQsFAAOCAQEAFj63
4atuoj1ABqRbg3+hPjKJ1+AP1hYIgi8JPrcknx1zUfBcYNX+d6DS78K6uxLw9+2s
KEfmslndD6QzsNg6sLAQkAmceqzGphf1fQjk/yyXdCSGkK54YM5gpM+VZKJytnoV
dTiC2XovMsqYjDB78l5MpVws94TAz62LezBwATaG4yiGmTFxeTVAmWv+m50hIRqH
3wSUMl+D9NYzQHvsUW37OF2am5ZHcwoS+JeYIG8qNsZUoR5RAXX/ttI7sEImvR0e
HaCrHcyQERzzUpjoykM/1huWsd39XqT14sN8/9iHXdLR5myY5RgJmIkOBoYBhd3T
DMHzdRmr2n/deyuIPg==
-----END CERTIFICATE-----
