Certificate:
    Data:
        Version: 1 (0x0)
        Serial Number:
            e8:f8:ad:9e:a1:86:8b:d2
        Signature Algorithm: sha1WithRSAEncryption
        Issuer: CN=Testroot
        Validity
            Not Before: Feb 25 15:49:31 2018 GMT
            Not After : Jun  1 15:49:31 2020 GMT
        Subject: CN=827OK
        Subject Public Key Info:
            Public Key Algorithm: rsaEncryption
                Public-Key: (2048 bit)
                Modulus:
                    00:eb:8b:37:d3:db:a0:46:09:fb:33:35:8d:2f:d2:
                    e8:74:94:e4:ac:c9:90:dd:75:77:78:bb:1b:25:fe:
                    57:11:19:43:0f:6b:5e:e8:60:f2:db:41:40:41:5c:
                    46:55:ec:64:81:1c:e2:8a:65:c0:60:c4:25:39:98:
                    0f:1f:3d:70:e1:89:54:e1:0e:ad:ec:33:ef:ff:fb:
                    88:14:16:02:40:ec:31:d8:67:fc:09:ef:fc:48:d0:
                    ab:8d:50:e8:cf:35:82:89:1a:6c:68:7d:be:de:82:
                    b0:37:da:da:f6:1c:6a:96:81:87:8d:78:01:bd:d7:
                    6c:a8:2b:51:12:d0:5d:45:46:69:d9:01:45:27:3f:
                    52:ef:8a:4b:94:b8:3f:fd:91:f4:6f:82:82:8a:15:
                    00:80:e6:ab:e0:6f:7f:62:47:93:42:34:e2:09:f0:
                    63:99:24:48:29:b4:67:30:5e:3c:99:a5:80:55:71:
                    73:cd:9e:c9:9f:03:d3:04:c6:d1:42:1c:c9:d9:fd:
                    79:b5:02:c8:63:ee:3f:4f:bc:11:67:5d:45:af:fc:
                    42:6e:cb:39:0f:4a:7d:4c:55:2b:19:6b:b9:ff:11:
                    84:2b:38:df:c2:26:fc:32:67:73:25:3a:15:b2:53:
                    80:a4:72:f3:93:68:f5:4c:29:66:6a:04:cf:a4:6d:
                    83:9b
                Exponent: 65537 (0x10001)
    Signature Algorithm: sha1WithRSAEncryption
        6a:a2:c1:9f:a0:98:99:7c:2e:bc:b9:9b:08:e0:47:35:ca:a9:
        1e:ba:f8:e1:a2:b8:59:56:59:48:66:5c:99:6b:fe:67:58:0d:
        24:78:50:66:e7:57:58:10:99:98:f5:e9:b3:de:ff:7b:6a:c9:
        53:da:34:51:3c:dd:a0:20:94:7c:8a:32:db:22:f8:ca:f4:61:
        07:dd:ea:a1:ab:05:53:0c:fc:e8:35:13:d6:ea:01:56:76:e5:
        ee:b2:5d:26:26:e3:7f:cc:1f:aa:dc:15:9c:1d:7e:40:9c:c8:
        9f:43:3a:c9:26:dd:5b:bf:20:65:ce:1e:ab:b3:c1:bc:7c:e7:
        f9:59:6b:47:da:31:02:33:f6:be:68:34:7b:21:da:f9:8b:36:
        0a:85:2b:bb:09:41:c5:e1:50:d2:a8:72:49:f5:93:19:fc:46:
        98:65:51:26:3e:5a:6d:27:6b:68:a4:49:49:3b:5e:56:47:bb:
        f9:b0:00:17:41:22:48:3a:62:ab:00:5a:45:84:44:ca:46:90:
        d4:58:4d:b7:a6:7c:b9:ab:22:ef:10:22:d3:51:20:2b:40:3c:
        0b:82:83:7a:02:43:25:33:e3:92:84:60:61:98:0a:e7:9b:0c:
        23:aa:32:99:4f:35:0f:5a:f4:ba:5d:f1:20:ae:b8:b7:63:78:
        7b:87:0c:ad
-----BEGIN CERTIFICATE-----
MIICnzCCAYcCCQDo+K2eoYaL0jANBgkqhkiG9w0BAQUFADATMREwDwYDVQQDEwhU
ZXN0cm9vdDAeFw0xODAyMjUxNTQ5MzFaFw0yMDA2MDExNTQ5MzFaMBAxDjAMBgNV
BAMTBTgyN09LMIIBIjANBgkqhkiG9w0BAQEFAAOCAQ8AMIIBCgKCAQEA64s309ug
Rgn7MzWNL9LodJTkrMmQ3XV3eLsbJf5XERlDD2te6GDy20FAQVxGVexkgRziimXA
YMQlOZgPHz1w4YlU4Q6t7DPv//uIFBYCQOwx2Gf8Ce/8SNCrjVDozzWCiRpsaH2+
3oKwN9ra9hxqloGHjXgBvddsqCtREtBdRUZp2QFFJz9S74pLlLg//ZH0b4KCihUA
gOar4G9/YkeTQjTiCfBjmSRIKbRnMF48maWAVXFzzZ7JnwPTBMbRQhzJ2f15tQLI
Y+4/T7wRZ11Fr/xCbss5D0p9TFUrGWu5/xGEKzjfwib8MmdzJToVslOApHLzk2j1
TClmagTPpG2DmwIDAQABMA0GCSqGSIb3DQEBBQUAA4IBAQBqosGfoJiZfC68uZsI
4Ec1yqkeuvjhorhZVllIZlyZa/5nWA0keFBm51dYEJmY9emz3v97aslT2jRRPN2g
IJR8ijLbIvjK9GEH3eqhqwVTDPzoNRPW6gFWduXusl0mJuN/zB+q3BWcHX5AnMif
QzrJJt1bvyBlzh6rs8G8fOf5WWtH2jECM/a+aDR7Idr5izYKhSu7CUHF4VDSqHJJ
9ZMZ/EaYZVEmPlptJ2topElJO15WR7v5sAAXQSJIOmKrAFpFhETKRpDUWE23pny5
qyLvECLTUSArQDwLgoN6AkMlM+OShGBhmArnmwwjqjKZTzUPWvS6XfEgrri3Y3h7
hwyt
-----END CERTIFICATE-----
