Certificate:
    Data:
        Version: 3 (0x2)
        Serial Number: 18008675984 (0x431669690)
    Signature Algorithm: sha256WithRSAEncryption
        Issuer: C = US, O = Mother Nature, OU = Everything, CN = Mother Nature
        Validity
            Not Before: Jul  6 15:54:09 2016 GMT
            Not After : Sep 18 15:54:09 2016 GMT
        Subject: C = US, ST = FL, L = Tallahassee, street = 3210 Holly Mill Run, postalCode = 30062, O = Extreme Discord, OU = Chaos, CN = gov.us
        Subject Public Key Info:
            Public Key Algorithm: rsaEncryption
                Public-Key: (2048 bit)
                Modulus:
                    00:b7:3f:a8:be:bf:48:69:d3:09:00:85:37:ff:cc:
                    d2:b7:e7:33:a2:a8:05:75:2e:cb:8d:0c:32:d5:44:
                    81:83:9e:3c:6f:32:f3:a1:31:81:e0:b6:ae:ea:12:
                    d8:26:b5:40:14:cf:cd:ff:25:72:16:23:94:0d:34:
                    2c:6e:33:e9:17:76:a6:9a:7a:8c:8c:ba:d4:a7:6a:
                    c7:8f:e4:ed:8f:01:73:7e:14:e4:0c:9a:f0:3b:f8:
                    ff:4e:fe:ed:5b:d1:cc:88:b1:a2:15:4f:0d:79:db:
                    36:2f:da:95:60:88:a3:8f:51:f9:a8:76:23:12:9e:
                    a5:80:12:00:97:45:88:f2:f4:7a:bd:3e:ae:66:35:
                    dd:30:11:b0:84:ca:92:d3:73:c0:d4:fd:5e:c2:c3:
                    74:2f:96:2c:23:d3:ba:ab:44:2e:9d:a6:49:94:99:
                    8c:64:26:b0:30:eb:8f:99:73:c3:56:21:09:bd:1f:
                    89:7d:bb:00:8b:0c:5f:21:1d:ef:95:77:af:3f:b0:
                    ea:15:d9:61:c0:99:05:4d:2f:49:cb:9b:95:0d:07:
                    c0:9b:0f:9c:b4:4f:0b:28:cf:09:aa:1d:57:53:44:
                    d5:16:bb:37:4f:75:b5:c4:d7:43:55:e0:2f:8b:8c:
                    b1:e2:47:1c:07:bd:cf:9b:a8:85:5e:39:26:b0:a8:
                    83:db
                Exponent: 65537 (0x10001)
        X509v3 extensions:
            X509v3 Extended Key Usage: 
                TLS Web Client Authentication, TLS Web Server Authentication
            X509v3 Basic Constraints: critical
                CA:TRUE
            X509v3 Authority Key Identifier: 
                keyid:01:02:03

            Authority Information Access: 
                OCSP - URI:http://theca.net/ocsp
                CA Issuers - URI:http://theca.net/totallythecert.crt

            X509v3 Certificate Policies: 
                Policy: 1.3.6.1.5.5.7.13.1
                Policy: 2.23.140.1.2.2

            X509v3 Subject Key Identifier: 
                04:03:02:01
            X509v3 Subject Alternative Name: 
                DNS:*.gov.us, DNS:gov.us
            X509v3 Issuer Alternative Name: 
                DNS:allthethings.net, DNS:theca.net
    Signature Algorithm: sha256WithRSAEncryption
         ad:23:b0:da:f5:b0:0b:76:5b:a7:1d:f7:df:73:22:c1:fd:22:
         b3:ac:74:a3:d9:37:f2:b9:e7:f5:29:9a:56:b9:7b:a3:f3:2e:
         4c:01:83:b8:6f:91:4f:90:07:ff:5c:f2:7b:a7:4b:ab:cc:24:
         6a:3e:33:a4:7a:31:1b:ea:98:e5:86:67:3a:cb:39:27:42:b6:
         6d:8f:5b:6f:85:bf:db:89:8b:48:b6:5e:67:6e:78:de:c9:68:
         20:04:8b:4e:99:d7:0f:51:3f:3a:73:08:d5:f9:20:58:64:7c:
         0c:f0:21:48:c0:2a:b3:b4:18:ad:75:67:45:bd:2f:ea:c6:4e:
         d9:af:23:84:40:24:a6:56:e4:bc:1b:40:45:b3:39:2e:56:7a:
         6d:5b:86:be:e7:29:06:f3:91:2c:dc:9b:50:97:37:14:d5:16:
         bc:b9:6c:b3:8f:f1:ab:e8:00:b5:db:d6:b1:52:8f:a6:31:d1:
         a0:a1:6f:b5:06:71:5d:b5:ad:3f:4c:4f:94:83:07:9f:6a:5a:
         6f:a3:97:c6:d5:07:be:74:d6:72:9f:0e:05:03:16:c2:d2:94:
         ee:d0:45:b4:7a:8c:dd:af:e7:ab:8f:02:f3:69:10:55:31:39:
         9e:9c:03:79:80:f1:fd:6a:1d:ae:f9:ad:f2:93:d6:45:9c:6a:
         ed:08:10:f6
-----BEGIN CERTIFICATE-----
MIIEijCCA3KgAwIBAgIFBDFmlpAwDQYJKoZIhvcNAQELBQAwUjELMAkGA1UEBhMC
VVMxFjAUBgNVBAoTDU1vdGhlciBOYXR1cmUxEzARBgNVBAsTCkV2ZXJ5dGhpbmcx
FjAUBgNVBAMTDU1vdGhlciBOYXR1cmUwHhcNMTYwNzA2MTU1NDA5WhcNMTYwOTE4
MTU1NDA5WjCBmTELMAkGA1UEBhMCVVMxCzAJBgNVBAgTAkZMMRQwEgYDVQQHEwtU
YWxsYWhhc3NlZTEcMBoGA1UECRMTMzIxMCBIb2xseSBNaWxsIFJ1bjEOMAwGA1UE
ERMFMzAwNjIxGDAWBgNVBAoTD0V4dHJlbWUgRGlzY29yZDEOMAwGA1UECxMFQ2hh
b3MxDzANBgNVBAMTBmdvdi51czCCASIwDQYJKoZIhvcNAQEBBQADggEPADCCAQoC
ggEBALc/qL6/SGnTCQCFN//M0rfnM6KoBXUuy40MMtVEgYOePG8y86ExgeC2ruoS
2Ca1QBTPzf8lchYjlA00LG4z6Rd2ppp6jIy61Kdqx4/k7Y8Bc34U5Aya8Dv4/07+
7VvRzIixohVPDXnbNi/alWCIo49R+ah2IxKepYASAJdFiPL0er0+rmY13TARsITK
ktNzwNT9XsLDdC+WLCPTuqtELp2mSZSZjGQmsDDrj5lzw1YhCb0fiX27AIsMXyEd
75V3rz+w6hXZYcCZBU0vScublQ0HwJsPnLRPCyjPCaodV1NE1Ra7N091tcTXQ1Xg
L4uMseJHHAe9z5uohV45JrCog9sCAwEAAaOCAR0wggEZMB0GA1UdJQQWMBQGCCsG
AQUFBwMCBggrBgEFBQcDATAPBgNVHRMBAf8EBTADAQH/MA4GA1UdIwQHMAWAAwEC
AzBiBggrBgEFBQcBAQRWMFQwIQYIKwYBBQUHMAGGFWh0dHA6Ly90aGVjYS5uZXQv
b2NzcDAvBggrBgEFBQcwAoYjaHR0cDovL3RoZWNhLm5ldC90b3RhbGx5dGhlY2Vy
dC5jcnQwHwYDVR0gBBgwFjAKBggrBgEFBQcNATAIBgZngQwBAgIwDQYDVR0OBAYE
BAQDAgEwGwYDVR0RBBQwEoIIKi5nb3YudXOCBmdvdi51czAmBgNVHRIEHzAdghBh
bGx0aGV0aGluZ3MubmV0ggl0aGVjYS5uZXQwDQYJKoZIhvcNAQELBQADggEBAK0j
sNr1sAt2W6cd999zIsH9IrOsdKPZN/K55/Upmla5e6PzLkwBg7hvkU+QB/9c8nun
S6vMJGo+M6R6MRvqmOWGZzrLOSdCtm2PW2+Fv9uJi0i2XmdueN7JaCAEi06Z1w9R
PzpzCNX5IFhkfAzwIUjAKrO0GK11Z0W9L+rGTtmvI4RAJKZW5LwbQEWzOS5Wem1b
hr7nKQbzkSzcm1CXNxTVFry5bLOP8avoALXb1rFSj6Yx0aChb7UGcV21rT9MT5SD
B59qWm+jl8bVB7501nKfDgUDFsLSlO7QRbR6jN2v56uPAvNpEFUxOZ6cA3mA8f1q
Ha75rfKT1kWcau0IEPY=
-----END CERTIFICATE-----
