Certificate:
    Data:
        Version: 3 (0x2)
        Serial Number: 18008675984 (0x431669690)
    Signature Algorithm: sha256WithRSAEncryption
        Issuer: C = US, O = Mother Nature, OU = Everything, CN = Mother Nature
        Validity
            Not Before: Aug  8 20:04:22 2016 GMT
            Not After : Oct 20 20:04:22 2016 GMT
        Subject: C = US, ST = FL, L = Tallahassee, street = 3210 Holly Mill Run, postalCode = 30062, O = Extreme Discord, OU = Chaos, CN = gov.us
        Subject Public Key Info:
            Public Key Algorithm: rsaEncryption
                Public-Key: (2048 bit)
                Modulus:
                    00:d0:d4:e7:14:96:7c:b3:37:cc:4d:f2:23:54:d9:
                    2c:24:eb:05:45:ec:a2:33:8c:5d:54:07:c7:02:74:
                    ed:10:1d:80:a9:8d:20:74:ae:f7:cd:39:be:14:ef:
                    98:46:db:67:9c:5b:5b:be:27:fe:9f:4e:59:eb:c2:
                    a7:8a:ac:41:8a:99:b9:5a:3c:35:e7:33:41:43:0c:
                    13:3c:20:51:33:76:34:cb:a9:8c:f9:f5:09:e2:cd:
                    fc:5e:76:c4:8e:34:c6:e2:98:2d:6a:59:21:ea:a0:
                    85:05:7c:17:a5:62:83:ee:89:3c:d0:00:c1:17:f2:
                    31:21:ed:fa:bd:77:94:c1:73:5a:eb:da:0d:68:91:
                    72:73:d3:f5:0c:95:3b:fc:4d:ec:bd:a2:90:88:7d:
                    49:f1:ec:50:da:3e:ad:14:13:08:7e:d6:a2:9d:38:
                    68:89:b2:4f:51:a8:95:52:c0:22:dd:9c:79:25:d1:
                    30:36:bf:93:85:e1:78:57:52:c5:30:1c:60:2e:e2:
                    ce:1a:ac:1a:39:bb:88:2e:8c:df:0b:57:e5:22:2f:
                    63:17:3a:b0:58:74:c8:32:81:8b:2c:5c:cf:71:1f:
                    d0:57:6c:94:fe:03:a6:8b:3a:e0:c3:5b:30:f9:17:
                    1f:8a:67:c9:08:75:ca:5b:42:ee:16:93:68:bf:97:
                    9e:e9
                Exponent: 65537 (0x10001)
        X509v3 extensions:
            X509v3 Key Usage: critical
                Digital Signature, Key Encipherment, Certificate Sign
            X509v3 Extended Key Usage: 
                TLS Web Client Authentication, TLS Web Server Authentication
            X509v3 Basic Constraints: critical
                CA:FALSE, pathlen:8
            Authority Information Access: 
                OCSP - URI:http://theca.net/ocsp
                CA Issuers - URI:http://theca.net/totallythecert.crt

            X509v3 Certificate Policies: 
                Policy: 1.3.6.1.5.5.7.13.1
                Policy: 2.23.140.1.2.2

            X509v3 Subject Key Identifier: 
                04:03:02:01
            X509v3 Subject Alternative Name: 
                0....+.....[.:..0.1.0...U.
..Extreme Discord....+.....[......*......Mother Nature....partyName..*.gov.us..gov.us..admin@gov.us..https://gov.us/home...

.
            X509v3 Issuer Alternative Name: 
                DNS:allthethings.net, DNS:allthemthings.net, DNS:theca.net
            X509v3 Authority Key Identifier: 
                keyid:01:02:03:04
                serial:1C:BD:7D:87:57

    Signature Algorithm: sha256WithRSAEncryption
         64:65:3c:9c:2d:33:4c:79:47:e0:fd:f0:77:99:bd:8b:e8:6b:
         be:48:64:b4:05:94:7d:26:92:ae:db:dc:37:f4:63:9b:8f:59:
         dd:08:e9:a9:b9:e6:44:3f:3d:6c:07:45:31:91:bc:f1:da:b0:
         04:0c:b8:67:6d:2c:5a:7b:fe:e7:7a:eb:59:9e:e7:e4:c8:a1:
         94:0c:fa:65:9e:7b:66:ca:69:f3:84:79:3c:0e:8d:fe:f6:f4:
         be:1c:f6:45:d7:af:ed:9f:0e:89:c9:8e:75:88:06:05:b8:35:
         2f:c7:67:ca:97:9b:fa:90:24:5a:3f:c2:50:61:36:bd:ee:a6:
         73:94:ae:64:ea:b4:e6:8e:49:b1:ca:af:f7:34:33:99:2a:c0:
         08:86:ea:87:18:6f:fd:0e:10:d7:f9:c0:31:96:74:5d:b5:ef:
         c4:3b:67:87:89:af:ac:dd:5c:84:33:2f:4e:38:d5:91:ae:90:
         7c:b6:c3:29:52:5f:04:a3:7b:7e:93:36:a9:06:b2:f0:c3:34:
         86:9e:22:91:67:22:d7:9a:e7:a1:f0:5a:ca:da:05:a3:13:01:
         1a:fb:d4:be:2a:0a:55:6d:47:de:4a:41:6e:c4:00:bd:67:fe:
         e5:34:6b:f9:09:e0:74:14:cf:89:85:49:56:c1:03:04:82:5e:
         a2:6c:ca:99
-----BEGIN CERTIFICATE-----
MIIFPTCCBCWgAwIBAgIFBDFmlpAwDQYJKoZIhvcNAQELBQAwUjELMAkGA1UEBhMC
VVMxFjAUBgNVBAoTDU1vdGhlciBOYXR1cmUxEzARBgNVBAsTCkV2ZXJ5dGhpbmcx
FjAUBgNVBAMTDU1vdGhlciBOYXR1cmUwHhcNMTYwODA4MjAwNDIyWhcNMTYxMDIw
MjAwNDIyWjCBmTELMAkGA1UEBhMCVVMxCzAJBgNVBAgTAkZMMRQwEgYDVQQHEwtU
YWxsYWhhc3NlZTEcMBoGA1UECRMTMzIxMCBIb2xseSBNaWxsIFJ1bjEOMAwGA1UE
ERMFMzAwNjIxGDAWBgNVBAoTD0V4dHJlbWUgRGlzY29yZDEOMAwGA1UECxMFQ2hh
b3MxDzANBgNVBAMTBmdvdi51czCCASIwDQYJKoZIhvcNAQEBBQADggEPADCCAQoC
ggEBANDU5xSWfLM3zE3yI1TZLCTrBUXsojOMXVQHxwJ07RAdgKmNIHSu9805vhTv
mEbbZ5xbW74n/p9OWevCp4qsQYqZuVo8NeczQUMMEzwgUTN2NMupjPn1CeLN/F52
xI40xuKYLWpZIeqghQV8F6Vig+6JPNAAwRfyMSHt+r13lMFzWuvaDWiRcnPT9QyV
O/xN7L2ikIh9SfHsUNo+rRQTCH7Wop04aImyT1GolVLAIt2ceSXRMDa/k4XheFdS
xTAcYC7izhqsGjm7iC6M3wtX5SIvYxc6sFh0yDKBiyxcz3Ef0FdslP4Dpos64MNb
MPkXH4pnyQh1yltC7haTaL+XnukCAwEAAaOCAdAwggHMMA4GA1UdDwEB/wQEAwIC
pDAdBgNVHSUEFjAUBggrBgEFBQcDAgYIKwYBBQUHAwEwDwYDVR0TAQH/BAUwAwIB
CDBiBggrBgEFBQcBAQRWMFQwIQYIKwYBBQUHMAGGFWh0dHA6Ly90aGVjYS5uZXQv
b2NzcDAvBggrBgEFBQcwAoYjaHR0cDovL3RoZWNhLm5ldC90b3RhbGx5dGhlY2Vy
dC5jcnQwHwYDVR0gBBgwFjAKBggrBgEFBQcNATAIBgZngQwBAgIwDQYDVR0OBAYE
BAQDAgEwgaIGA1UdEQSBmjCBl4gJKwYBBAHZW4M6pBwwGjEYMBYGA1UEChMPRXh0
cmVtZSBEaXNjb3JkoBEGCCsGAQQB2VsuoAUCAwgqCaUeoA8TDU1vdGhlciBOYXR1
cmWhCxMJcGFydHlOYW1lgggqLmdvdi51c4IGZ292LnVzgQxhZG1pbkBnb3YudXOG
E2h0dHBzOi8vZ292LnVzL2hvbWWHBAsKCgswOQYDVR0SBDIwMIIQYWxsdGhldGhp
bmdzLm5ldIIRYWxsdGhlbXRoaW5ncy5uZXSCCXRoZWNhLm5ldDAWBgNVHSMEDzAN
gAQBAgMEggUcvX2HVzANBgkqhkiG9w0BAQsFAAOCAQEAZGU8nC0zTHlH4P3wd5m9
i+hrvkhktAWUfSaSrtvcN/Rjm49Z3QjpqbnmRD89bAdFMZG88dqwBAy4Z20sWnv+
53rrWZ7n5MihlAz6ZZ57Zspp84R5PA6N/vb0vhz2Rdev7Z8OicmOdYgGBbg1L8dn
ypeb+pAkWj/CUGE2ve6mc5SuZOq05o5Jscqv9zQzmSrACIbqhxhv/Q4Q1/nAMZZ0
XbXvxDtnh4mvrN1chDMvTjjVka6QfLbDKVJfBKN7fpM2qQay8MM0hp4ikWci15rn
ofBaytoFoxMBGvvUvioKVW1H3kpBbsQAvWf+5TRr+QngdBTPiYVJVsEDBIJeomzK
mQ==
-----END CERTIFICATE-----
