Certificate:
    Data:
        Version: 3 (0x2)
        Serial Number: 18008675309 (0x4316693ed)
    Signature Algorithm: sha256WithRSAEncryption
        Issuer: C = US, O = Mother Nature, OU = Everything, CN = Mother Nature
        Validity
            Not Before: Jul  6 14:40:34 2016 GMT
            Not After : Sep 18 14:40:34 2016 GMT
        Subject: C = US, ST = FL, L = Tallahassee, street = 3210 Holly Mill Run, postalCode = 30062, O = Extreme Discord, OU = Chaos, CN = gov.us
        Subject Public Key Info:
            Public Key Algorithm: rsaEncryption
                Public-Key: (2048 bit)
                Modulus:
                    00:a1:e5:d5:29:84:43:dd:60:59:6e:04:8d:8e:3b:
                    f8:50:9e:7a:69:3d:bd:e5:48:5b:1f:7b:97:1e:30:
                    ea:f0:54:10:44:4c:c2:44:0b:18:7d:c7:a0:a3:8b:
                    5f:da:b6:20:c4:22:b0:e6:64:9d:32:f1:f4:2f:62:
                    e4:9c:9c:55:b5:29:de:a9:5e:a8:61:74:c6:9f:8c:
                    97:bf:f3:43:ca:8b:e1:69:69:0c:08:0a:2e:f4:82:
                    f8:74:74:92:f1:e2:85:42:e2:71:6a:f0:d7:75:95:
                    d2:a9:23:c9:f2:ce:fc:d1:21:21:c8:86:d1:d6:ac:
                    0e:65:b2:0c:da:1d:a5:a5:86:6f:55:74:a0:52:91:
                    17:66:e8:07:6c:25:06:a1:3a:5a:0b:7c:cd:fe:2d:
                    2e:e8:0a:af:e4:37:fa:fd:15:2f:e8:d9:46:df:79:
                    45:7b:08:ce:1b:35:67:f2:22:c1:b7:45:5f:7f:88:
                    30:bb:37:1c:db:99:94:46:25:3f:29:31:75:d9:de:
                    65:00:b1:cd:7f:67:9c:07:8a:d1:1e:00:5b:07:65:
                    03:f3:73:d0:0f:ce:45:d1:87:bc:95:aa:cf:4f:6b:
                    ec:95:c4:4a:61:7f:5f:f3:67:54:48:0f:cb:13:da:
                    7b:84:9d:0d:dd:e4:96:5d:2b:1b:38:1a:2d:60:ae:
                    b6:37
                Exponent: 65537 (0x10001)
        X509v3 extensions:
            X509v3 Basic Constraints: critical
                CA:TRUE
            X509v3 Authority Key Identifier: 
                keyid:01:02:03

            X509v3 Subject Key Identifier: 
                04:03:02:01
            X509v3 Subject Alternative Name: 
                DNS:*.gov.us, DNS:gov.us
            X509v3 Key Usage: 
                Digital Signature, Certificate Sign, CRL Sign
            X509v3 Name Constraints: critical
                Permitted:
                  DNS:xn--Hkkinen-5wa.fi
                  DNS:iki.fi

    Signature Algorithm: sha256WithRSAEncryption
         4f:28:17:6c:b5:59:f6:1c:1b:c2:d8:13:8f:65:9f:e0:1a:60:
         9a:31:01:d2:c6:1d:ae:19:c4:65:f5:84:7c:6d:b8:2d:d9:5d:
         8d:ff:e5:10:a2:a9:e3:0d:dc:68:63:03:8c:15:c2:3f:a1:08:
         77:3a:5e:51:cc:67:fe:a6:60:2c:f2:9b:c5:ce:ad:f0:bc:bb:
         8b:e2:2b:7c:de:4b:c3:42:16:9e:2f:31:51:fa:a0:3f:e1:c8:
         e2:27:90:82:78:50:3e:61:c9:80:6f:d8:6a:8a:b0:72:46:00:
         e2:9a:f5:b8:b5:0a:a0:9d:90:0f:1d:a0:48:81:0a:ed:79:56:
         e5:43:2c:c4:9d:5c:a5:39:f2:2e:bc:8a:bd:bd:1a:b8:dd:69:
         00:de:f4:95:13:27:a6:cf:a6:e0:13:5b:7a:18:98:33:3e:ed:
         86:05:42:3c:87:74:93:66:23:2d:12:71:bf:ca:68:8a:a9:11:
         ca:3d:ce:5a:bb:70:77:c2:33:b6:b5:94:9d:4c:e0:9d:18:3c:
         73:4d:49:24:1a:3c:40:5c:1a:09:20:2d:9e:06:7c:f9:89:76:
         8f:f8:b9:8f:02:09:c3:e0:89:7c:49:35:ed:57:6a:18:77:22:
         57:a0:ce:c1:35:2c:94:6f:64:e2:ad:51:ad:03:2d:1e:53:66:
         cd:08:d8:53
-----BEGIN CERTIFICATE-----
MIID+TCCAuGgAwIBAgIFBDFmk+0wDQYJKoZIhvcNAQELBQAwUjELMAkGA1UEBhMC
VVMxFjAUBgNVBAoTDU1vdGhlciBOYXR1cmUxEzARBgNVBAsTCkV2ZXJ5dGhpbmcx
FjAUBgNVBAMTDU1vdGhlciBOYXR1cmUwHhcNMTYwNzA2MTQ0MDM0WhcNMTYwOTE4
MTQ0MDM0WjCBmTELMAkGA1UEBhMCVVMxCzAJBgNVBAgTAkZMMRQwEgYDVQQHEwtU
YWxsYWhhc3NlZTEcMBoGA1UECRMTMzIxMCBIb2xseSBNaWxsIFJ1bjEOMAwGA1UE
ERMFMzAwNjIxGDAWBgNVBAoTD0V4dHJlbWUgRGlzY29yZDEOMAwGA1UECxMFQ2hh
b3MxDzANBgNVBAMTBmdvdi51czCCASIwDQYJKoZIhvcNAQEBBQADggEPADCCAQoC
ggEBAKHl1SmEQ91gWW4EjY47+FCeemk9veVIWx97lx4w6vBUEERMwkQLGH3HoKOL
X9q2IMQisOZknTLx9C9i5JycVbUp3qleqGF0xp+Ml7/zQ8qL4WlpDAgKLvSC+HR0
kvHihULicWrw13WV0qkjyfLO/NEhIciG0dasDmWyDNodpaWGb1V0oFKRF2boB2wl
BqE6Wgt8zf4tLugKr+Q3+v0VL+jZRt95RXsIzhs1Z/IiwbdFX3+IMLs3HNuZlEYl
PykxddneZQCxzX9nnAeK0R4AWwdlA/Nz0A/ORdGHvJWqz09r7JXESmF/X/NnVEgP
yxPae4SdDd3kll0rGzgaLWCutjcCAwEAAaOBjTCBijAPBgNVHRMBAf8EBTADAQH/
MA4GA1UdIwQHMAWAAwECAzANBgNVHQ4EBgQEBAMCATAbBgNVHREEFDASgggqLmdv
di51c4IGZ292LnVzMAsGA1UdDwQEAwIBhjAuBgNVHR4BAf8EJDAioCAwFIISeG4t
LUhra2luZW4tNXdhLmZpMAiCBmlraS5maTANBgkqhkiG9w0BAQsFAAOCAQEATygX
bLVZ9hwbwtgTj2Wf4BpgmjEB0sYdrhnEZfWEfG24Ldldjf/lEKKp4w3caGMDjBXC
P6EIdzpeUcxn/qZgLPKbxc6t8Ly7i+IrfN5Lw0IWni8xUfqgP+HI4ieQgnhQPmHJ
gG/YaoqwckYA4pr1uLUKoJ2QDx2gSIEK7XlW5UMsxJ1cpTnyLryKvb0auN1pAN70
lRMnps+m4BNbehiYMz7thgVCPId0k2YjLRJxv8poiqkRyj3OWrtwd8IztrWUnUzg
nRg8c01JJBo8QFwaCSAtngZ8+Yl2j/i5jwIJw+CJfEk17VdqGHciV6DOwTUslG9k
4q1RrQMtHlNmzQjYUw==
-----END CERTIFICATE-----
