Certificate:
    Data:
        Version: 3 (0x2)
        Serial Number: 18008675309 (0x4316693ed)
    Signature Algorithm: sha256WithRSAEncryption
        Issuer: C = US, O = Mother Nature, OU = Everything, CN = Mother Nature
        Validity
            Not Before: Jul  5 21:11:37 2016 GMT
            Not After : Sep 17 21:11:37 2016 GMT
        Subject: C = US, ST = FL, L = Tallahassee, street = 3210 Holly Mill Run, postalCode = 30062, O = Extreme Discord, OU = Chaos, CN = gov.us
        Subject Public Key Info:
            Public Key Algorithm: rsaEncryption
                Public-Key: (2048 bit)
                Modulus:
                    00:cb:dd:05:7f:72:05:ef:cf:29:a0:3d:f6:0e:8f:
                    94:c1:03:d4:6e:a5:d0:ca:6e:29:29:5e:01:7a:66:
                    8a:57:b1:13:ab:fc:dd:5c:69:b7:fe:e3:c7:b1:87:
                    65:d2:a5:39:3e:01:23:a0:06:2f:c1:4a:46:30:00:
                    c6:ac:2e:5e:09:1f:35:60:e1:a6:2e:6b:ae:59:7d:
                    b0:00:dc:00:06:b3:58:37:88:13:15:8c:27:94:1b:
                    68:38:15:85:89:15:46:66:83:2e:43:c8:43:15:8b:
                    e9:e9:85:d7:e1:ad:e6:23:d9:d2:17:e5:24:88:1b:
                    fc:6a:a9:c4:3c:e4:ea:9b:e7:67:99:2d:2a:e8:3c:
                    b9:f7:ef:a9:82:06:39:74:86:cb:63:51:ec:05:2f:
                    21:94:4c:2d:56:3c:5a:07:9b:94:67:40:a5:1c:73:
                    0d:cf:a0:3f:e5:49:e1:93:f4:91:bb:82:b3:e0:4c:
                    bd:47:10:de:d3:25:b6:7d:d0:b5:f1:6a:0d:da:6a:
                    41:62:81:ff:68:c5:d8:23:35:a7:23:9e:b2:ab:da:
                    62:01:bd:60:d7:73:3c:72:7c:70:ce:a5:85:3a:fa:
                    af:8b:26:07:da:6f:d1:62:bc:c0:53:55:2d:27:5a:
                    92:bf:70:09:ce:80:6a:e6:1c:8e:ab:41:df:45:4e:
                    1f:89
                Exponent: 65537 (0x10001)
        X509v3 extensions:
            X509v3 Basic Constraints: critical
                CA:TRUE
            X509v3 Authority Key Identifier: 
                keyid:01:02:03

            X509v3 Subject Key Identifier: 
                04:03:02:01
            X509v3 Subject Alternative Name: 
                DNS:*.gov.us, DNS:gov.us
            X509v3 Key Usage: 
                Digital Signature, Certificate Sign, CRL Sign
    Signature Algorithm: sha256WithRSAEncryption
         41:b9:cc:73:80:e0:bf:5b:83:5c:a4:7b:a9:35:b4:6d:24:56:
         e8:04:b0:34:81:12:84:19:c2:7c:da:d4:a9:66:0b:b7:a9:28:
         48:e2:f4:3d:c9:f9:f0:9a:09:a7:a8:7e:1c:a3:8a:7c:e2:41:
         b0:6b:cb:5b:fb:fe:48:04:c3:94:db:64:9a:19:47:19:4f:bc:
         4d:dd:b1:74:00:0f:b2:60:99:ca:ba:83:2b:d8:3c:c7:f9:de:
         11:05:08:9c:4c:33:85:1a:f7:7b:ea:ad:b0:9a:97:0b:67:a8:
         96:ae:ae:98:25:e9:34:95:17:fc:42:23:ed:94:65:65:88:e9:
         fc:cf:c4:9c:18:57:35:04:dc:22:b1:d5:8f:1b:20:01:df:43:
         79:1d:86:66:87:b9:f4:f5:2a:4b:9c:f7:d3:81:22:7e:89:1e:
         6e:64:32:9b:fa:bf:2f:53:58:a8:93:38:dc:a5:79:84:09:b8:
         db:84:6e:2a:7c:92:c7:33:92:f7:b2:94:53:b3:d5:ce:dd:98:
         e5:ca:c4:0c:e0:25:ca:81:45:55:14:21:32:18:92:8b:ec:b4:
         be:a8:a3:9d:0e:a2:8a:9b:ec:b3:5b:b1:85:c8:40:b0:40:61:
         6a:fb:c1:7b:ae:68:8b:b7:c2:be:f3:cc:79:a5:32:d6:70:50:
         49:77:c9:ba
-----BEGIN CERTIFICATE-----
MIIDxzCCAq+gAwIBAgIFBDFmk+0wDQYJKoZIhvcNAQELBQAwUjELMAkGA1UEBhMC
VVMxFjAUBgNVBAoTDU1vdGhlciBOYXR1cmUxEzARBgNVBAsTCkV2ZXJ5dGhpbmcx
FjAUBgNVBAMTDU1vdGhlciBOYXR1cmUwHhcNMTYwNzA1MjExMTM3WhcNMTYwOTE3
MjExMTM3WjCBmTELMAkGA1UEBhMCVVMxCzAJBgNVBAgTAkZMMRQwEgYDVQQHEwtU
YWxsYWhhc3NlZTEcMBoGA1UECRMTMzIxMCBIb2xseSBNaWxsIFJ1bjEOMAwGA1UE
ERMFMzAwNjIxGDAWBgNVBAoTD0V4dHJlbWUgRGlzY29yZDEOMAwGA1UECxMFQ2hh
b3MxDzANBgNVBAMTBmdvdi51czCCASIwDQYJKoZIhvcNAQEBBQADggEPADCCAQoC
ggEBAMvdBX9yBe/PKaA99g6PlMED1G6l0MpuKSleAXpmilexE6v83Vxpt/7jx7GH
ZdKlOT4BI6AGL8FKRjAAxqwuXgkfNWDhpi5rrll9sADcAAazWDeIExWMJ5QbaDgV
hYkVRmaDLkPIQxWL6emF1+Gt5iPZ0hflJIgb/GqpxDzk6pvnZ5ktKug8uffvqYIG
OXSGy2NR7AUvIZRMLVY8WgeblGdApRxzDc+gP+VJ4ZP0kbuCs+BMvUcQ3tMltn3Q
tfFqDdpqQWKB/2jF2CM1pyOesqvaYgG9YNdzPHJ8cM6lhTr6r4smB9pv0WK8wFNV
LSdakr9wCc6AauYcjqtB30VOH4kCAwEAAaNcMFowDwYDVR0TAQH/BAUwAwEB/zAO
BgNVHSMEBzAFgAMBAgMwDQYDVR0OBAYEBAQDAgEwGwYDVR0RBBQwEoIIKi5nb3Yu
dXOCBmdvdi51czALBgNVHQ8EBAMCAYYwDQYJKoZIhvcNAQELBQADggEBAEG5zHOA
4L9bg1yke6k1tG0kVugEsDSBEoQZwnza1KlmC7epKEji9D3J+fCaCaeofhyjinzi
QbBry1v7/kgEw5TbZJoZRxlPvE3dsXQAD7Jgmcq6gyvYPMf53hEFCJxMM4Ua93vq
rbCalwtnqJaurpgl6TSVF/xCI+2UZWWI6fzPxJwYVzUE3CKx1Y8bIAHfQ3kdhmaH
ufT1Kkuc99OBIn6JHm5kMpv6vy9TWKiTONyleYQJuNuEbip8ksczkveylFOz1c7d
mOXKxAzgJcqBRVUUITIYkovstL6oo50Oooqb7LNbsYXIQLBAYWr7wXuuaIu3wr7z
zHmlMtZwUEl3ybo=
-----END CERTIFICATE-----
