Certificate:
    Data:
        Version: 3 (0x2)
        Serial Number: 18008675309 (0x4316693ed)
    Signature Algorithm: sha256WithRSAEncryption
        Issuer: C = US, O = Mother Nature, OU = Everything, CN = Mother Nature
        Validity
            Not Before: Jun 29 20:07:07 2016 GMT
            Not After : Sep 10 20:07:07 2016 GMT
        Subject: 
        Subject Public Key Info:
            Public Key Algorithm: rsaEncryption
                Public-Key: (2048 bit)
                Modulus:
                    00:d3:53:5c:6d:bf:25:68:c2:06:96:4b:19:50:25:
                    89:1b:75:09:71:ed:2d:30:78:61:a1:16:28:b3:b2:
                    e1:6b:93:66:b5:8e:7f:01:a5:18:f6:25:d7:b7:cd:
                    22:f9:16:e6:c1:43:c2:c9:14:45:f3:80:31:9f:4d:
                    17:87:a9:d3:c5:14:e3:f8:fd:e0:a5:a0:7f:12:05:
                    e7:06:ed:b6:4b:75:26:df:00:fb:f3:ee:c5:10:c6:
                    e9:0b:00:8e:70:c1:7c:b5:b1:fb:26:2f:1f:a5:22:
                    8c:17:19:83:ef:f9:28:e1:69:a5:e4:70:81:39:e9:
                    d3:ce:0a:b4:18:07:97:91:93:22:57:23:7e:c3:11:
                    9a:2a:f6:25:f1:22:3d:ea:f7:a4:8b:02:b3:b5:ae:
                    7f:29:b3:e3:7d:e4:17:2c:fe:a0:10:70:1c:c3:91:
                    35:87:80:dc:be:2c:8c:3f:05:ef:4c:ee:11:6a:8b:
                    39:c9:9c:f8:53:8c:1c:63:64:92:51:e1:af:5a:eb:
                    24:e0:57:ec:37:34:ff:4f:bd:8a:5e:cd:10:90:11:
                    fd:a1:09:44:28:64:68:dc:75:be:1a:66:48:37:11:
                    90:34:d1:98:0a:2f:01:66:0d:23:36:e2:6c:7c:5a:
                    3e:39:57:84:92:47:07:36:d1:3c:0e:b6:3d:5d:50:
                    a3:0f
                Exponent: 65537 (0x10001)
        X509v3 extensions:
            X509v3 Key Usage: critical
                Digital Signature, Key Encipherment
            X509v3 Extended Key Usage: 
                TLS Web Client Authentication, TLS Web Server Authentication
            X509v3 Basic Constraints: critical
                CA:TRUE
            X509v3 Authority Key Identifier: 
                keyid:01:02:03

            Authority Information Access: 
                OCSP - URI:http://theca.net/ocsp
                CA Issuers - URI:http://theca.net/totallythecert.crt

            X509v3 Subject Key Identifier: 
                04:03:02:01
            X509v3 Subject Alternative Name: critical
                DNS:*.gov.us, DNS:gov.us
    Signature Algorithm: sha256WithRSAEncryption
         79:96:b6:93:7e:01:6d:4a:07:d2:cc:7a:bb:0a:5e:7c:04:a7:
         53:61:b6:17:32:79:78:1b:c6:25:83:8f:63:b4:14:58:69:f2:
         67:95:2c:ef:3a:75:ba:f9:6b:8d:71:36:e0:7f:75:45:df:76:
         0e:86:85:a2:b7:38:ac:4f:79:ba:08:67:98:74:3a:a1:0d:62:
         ff:9f:cf:ef:f7:53:46:ec:d9:f1:cf:dc:5f:87:d0:3b:16:cd:
         c7:ea:4b:ff:7b:64:ee:0f:f0:1f:16:92:5b:b9:33:b1:f5:a1:
         77:d1:7f:55:00:91:08:f1:55:36:b5:79:02:6e:6e:6b:90:6f:
         d3:fc:70:59:f5:16:5c:67:6f:fc:f8:34:32:8a:2f:32:c8:7e:
         35:4c:9a:58:2c:3c:44:50:ae:ed:e8:63:5c:59:18:dc:62:ad:
         88:f4:8a:33:24:fb:e9:c9:80:2d:a9:a4:75:85:22:19:ce:6c:
         51:44:64:78:55:70:b6:d0:f1:ef:51:e8:0a:62:57:59:ce:ff:
         e2:9f:bd:d9:e3:c7:b5:55:ec:0d:76:81:91:b4:6f:be:e6:23:
         45:46:6e:9c:16:b1:64:a7:7a:13:a7:fa:17:1c:62:fc:81:4e:
         6a:ef:35:c3:07:b0:1d:7a:cc:fa:b5:6e:cc:0d:ce:f4:10:22:
         7b:65:4c:ac
-----BEGIN CERTIFICATE-----
MIIDuDCCAqCgAwIBAgIFBDFmk+0wDQYJKoZIhvcNAQELBQAwUjELMAkGA1UEBhMC
VVMxFjAUBgNVBAoTDU1vdGhlciBOYXR1cmUxEzARBgNVBAsTCkV2ZXJ5dGhpbmcx
FjAUBgNVBAMTDU1vdGhlciBOYXR1cmUwHhcNMTYwNjI5MjAwNzA3WhcNMTYwOTEw
MjAwNzA3WjAAMIIBIjANBgkqhkiG9w0BAQEFAAOCAQ8AMIIBCgKCAQEA01Ncbb8l
aMIGlksZUCWJG3UJce0tMHhhoRYos7Lha5NmtY5/AaUY9iXXt80i+RbmwUPCyRRF
84Axn00Xh6nTxRTj+P3gpaB/EgXnBu22S3Um3wD78+7FEMbpCwCOcMF8tbH7Ji8f
pSKMFxmD7/ko4Wml5HCBOenTzgq0GAeXkZMiVyN+wxGaKvYl8SI96vekiwKzta5/
KbPjfeQXLP6gEHAcw5E1h4DcviyMPwXvTO4Raos5yZz4U4wcY2SSUeGvWusk4Ffs
NzT/T72KXs0QkBH9oQlEKGRo3HW+GmZINxGQNNGYCi8BZg0jNuJsfFo+OVeEkkcH
NtE8DrY9XVCjDwIDAQABo4HmMIHjMA4GA1UdDwEB/wQEAwIFoDAdBgNVHSUEFjAU
BggrBgEFBQcDAgYIKwYBBQUHAwEwDwYDVR0TAQH/BAUwAwEB/zAOBgNVHSMEBzAF
gAMBAgMwYgYIKwYBBQUHAQEEVjBUMCEGCCsGAQUFBzABhhVodHRwOi8vdGhlY2Eu
bmV0L29jc3AwLwYIKwYBBQUHMAKGI2h0dHA6Ly90aGVjYS5uZXQvdG90YWxseXRo
ZWNlcnQuY3J0MA0GA1UdDgQGBAQEAwIBMB4GA1UdEQEB/wQUMBKCCCouZ292LnVz
ggZnb3YudXMwDQYJKoZIhvcNAQELBQADggEBAHmWtpN+AW1KB9LMersKXnwEp1Nh
thcyeXgbxiWDj2O0FFhp8meVLO86dbr5a41xNuB/dUXfdg6GhaK3OKxPeboIZ5h0
OqENYv+fz+/3U0bs2fHP3F+H0DsWzcfqS/97ZO4P8B8Wklu5M7H1oXfRf1UAkQjx
VTa1eQJubmuQb9P8cFn1Flxnb/z4NDKKLzLIfjVMmlgsPERQru3oY1xZGNxirYj0
ijMk++nJgC2ppHWFIhnObFFEZHhVcLbQ8e9R6ApiV1nO/+Kfvdnjx7VV7A12gZG0
b77mI0VGbpwWsWSnehOn+hccYvyBTmrvNcMHsB16zPq1bswNzvQQIntlTKw=
-----END CERTIFICATE-----
