Certificate:
    Data:
        Version: 3 (0x2)
        Serial Number: 14615016 (0xdf01e8)
    Signature Algorithm: sha256WithRSAEncryption
        Issuer: C = US, O = Mother Nature, OU = Everything, CN = Mother Nature
        Validity
            Not Before: Jul 11 19:20:30 2016 GMT
            Not After : Sep 23 19:20:30 2016 GMT
        Subject: C = US, ST = FL, L = Tallahassee, street = 3210 Holly Mill Run, postalCode = 30062, O = Extreme Discord, OU = Chaos, CN = gov.us
        Subject Public Key Info:
            Public Key Algorithm: id-ecPublicKey
                Public-Key: (224 bit)
                pub:
                    04:8e:41:90:14:70:f0:d5:9d:34:66:82:ca:c0:5a:
                    f3:ec:3c:77:30:11:0e:45:be:6b:2c:60:a4:29:6c:
                    b1:ab:40:5d:d3:9e:29:2a:3e:dc:f9:23:7f:b1:75:
                    8b:b9:f0:c6:62:61:13:d6:e6:4f:6d:70
                ASN1 OID: secp224r1
                NIST CURVE: P-224
        X509v3 extensions:
            X509v3 Basic Constraints: critical
                CA:FALSE
            X509v3 Authority Key Identifier: 
                keyid:01:02:03

            X509v3 Subject Key Identifier: 
                04:03:02:01
            X509v3 Subject Alternative Name: 
                DNS:*.gov.us, DNS:gov.us
            X509v3 Key Usage: 
                Data Encipherment, Key Agreement
            X509v3 Extended Key Usage: 
                TLS Web Server Authentication, 1.2.840.113635.100.4.3, Signing KDC Response, Any Extended Key Usage
            X509v3 CRL Distribution Points: critical

                Full Name:
                  URI:http://crl.starfieldtech.com/sfig2s1-17.crl

    Signature Algorithm: sha256WithRSAEncryption
         45:b5:4d:80:a1:0f:ab:19:f2:df:5d:b1:09:71:40:b0:23:35:
         44:e4:3e:8c:ee:7c:38:17:cf:4f:78:ee:29:e7:fd:45:c2:e1:
         ad:54:57:46:db:89:ce:31:e3:c1:6f:ac:b6:f8:8e:0d:66:79:
         01:91:34:04:b7:cd:be:47:81:70:97:57:ed:67:7c:27:e2:94:
         5d:7e:d1:fb:8e:64:7d:d9:a5:f7:e4:40:25:40:14:63:11:25:
         ea:1c:1b:7d:88:16:f4:12:98:e0:a8:cc:c5:b9:6c:ea:e8:bd:
         56:1a:77:25:aa:65:45:39:7b:93:db:ae:9f:e5:95:0c:f7:45:
         ca:b3:bd:80:d8:3e:67:de:4c:24:96:4b:6f:60:a0:df:f5:fd:
         bf:bf:65:d8:c6:2b:ec:5e:4b:20:80:13:ec:78:6a:50:59:02:
         3e:be:d2:2b:f0:47:0c:65:c7:00:bf:29:3d:93:0d:bb:32:ed:
         db:99:5d:1e:75:37:3c:e6:cd:9d:c9:f1:92:22:9e:ac:24:b9:
         f7:fd:af:ac:44:62:a8:85:10:e2:be:61:c6:bf:e1:ec:5d:29:
         34:21:09:65:bd:e5:c1:57:cd:32:6b:21:10:66:09:3a:f2:76:
         63:c4:46:0b:9d:01:45:f2:67:0a:45:c3:39:03:b4:fd:9e:ff:
         1c:b4:4e:42
-----BEGIN CERTIFICATE-----
MIIDXzCCAkegAwIBAgIEAN8B6DANBgkqhkiG9w0BAQsFADBSMQswCQYDVQQGEwJV
UzEWMBQGA1UEChMNTW90aGVyIE5hdHVyZTETMBEGA1UECxMKRXZlcnl0aGluZzEW
MBQGA1UEAxMNTW90aGVyIE5hdHVyZTAeFw0xNjA3MTExOTIwMzBaFw0xNjA5MjMx
OTIwMzBaMIGZMQswCQYDVQQGEwJVUzELMAkGA1UECBMCRkwxFDASBgNVBAcTC1Rh
bGxhaGFzc2VlMRwwGgYDVQQJExMzMjEwIEhvbGx5IE1pbGwgUnVuMQ4wDAYDVQQR
EwUzMDA2MjEYMBYGA1UEChMPRXh0cmVtZSBEaXNjb3JkMQ4wDAYDVQQLEwVDaGFv
czEPMA0GA1UEAxMGZ292LnVzME4wEAYHKoZIzj0CAQYFK4EEACEDOgAEjkGQFHDw
1Z00ZoLKwFrz7Dx3MBEORb5rLGCkKWyxq0Bd054pKj7c+SN/sXWLufDGYmET1uZP
bXCjgcowgccwDAYDVR0TAQH/BAIwADAOBgNVHSMEBzAFgAMBAgMwDQYDVR0OBAYE
BAQDAgEwGwYDVR0RBBQwEoIIKi5nb3YudXOCBmdvdi51czALBgNVHQ8EBAMCARgw
LQYDVR0lBCYwJAYIKwYBBQUHAwEGCSqGSIb3Y2QEAwYHKwYBBQIDBQYEVR0lADA/
BgNVHR8BAf8ENTAzMDGgL6AthitodHRwOi8vY3JsLnN0YXJmaWVsZHRlY2guY29t
L3NmaWcyczEtMTcuY3JsMA0GCSqGSIb3DQEBCwUAA4IBAQBFtU2AoQ+rGfLfXbEJ
cUCwIzVE5D6M7nw4F89PeO4p5/1FwuGtVFdG24nOMePBb6y2+I4NZnkBkTQEt82+
R4Fwl1ftZ3wn4pRdftH7jmR92aX35EAlQBRjESXqHBt9iBb0EpjgqMzFuWzq6L1W
GnclqmVFOXuT266f5ZUM90XKs72A2D5n3kwklktvYKDf9f2/v2XYxivsXksggBPs
eGpQWQI+vtIr8EcMZccAvyk9kw27Mu3bmV0edTc85s2dyfGSIp6sJLn3/a+sRGKo
hRDivmHGv+HsXSk0IQllveXBV80yayEQZgk68nZjxEYLnQFF8mcKRcM5A7T9nv8c
tE5C
-----END CERTIFICATE-----
