Certificate:
    Data:
        Version: 3 (0x2)
        Serial Number: 18008675309 (0x4316693ed)
    Signature Algorithm: sha256WithRSAEncryption
        Issuer: C = US, O = Mother Nature, OU = Everything, CN = Mother Nature
        Validity
            Not Before: Jul  5 14:59:57 2016 GMT
            Not After : Sep 17 14:59:57 2016 GMT
        Subject: C = US, ST = FL, L = Tallahassee, street = 3210 Holly Mill Run, postalCode = 30062, O = Extreme Discord, OU = Chaos, CN = gov.us
        Subject Public Key Info:
            Public Key Algorithm: rsaEncryption
                Public-Key: (2048 bit)
                Modulus:
                    00:bf:5f:ff:40:fe:64:a7:67:34:60:fa:b6:ef:09:
                    2a:d6:d8:24:c6:ab:85:75:93:fa:c0:01:8f:61:2a:
                    87:12:3c:de:af:b9:ee:57:22:8b:70:14:23:46:aa:
                    14:c4:ef:3c:ab:d2:f8:86:61:76:8a:f0:ec:c1:72:
                    19:1b:2a:f1:72:0a:24:e0:56:6f:bd:94:cb:2c:90:
                    18:24:28:a5:1b:7b:db:5d:50:bf:df:17:12:09:d8:
                    df:88:9e:9f:c8:68:44:c6:29:6a:df:c5:eb:fa:14:
                    c9:88:5a:4c:c8:51:dc:52:82:9c:2c:f0:44:6c:31:
                    9c:90:2c:cb:82:64:8a:0b:0a:02:43:92:8e:3d:e5:
                    44:32:87:76:af:0b:e5:4e:8c:c3:d1:8a:b7:51:96:
                    1e:31:2c:99:88:ef:3c:f7:a4:c9:6e:e7:50:8b:8c:
                    28:e0:2c:c4:8d:59:4f:e1:cb:7a:2a:5c:c1:fc:73:
                    5a:97:4c:3c:c1:9b:9f:56:15:3c:70:5f:6c:ba:8e:
                    6f:5a:49:3e:13:2e:3c:98:0d:2c:0a:f2:6b:e6:cd:
                    9a:f9:3a:35:4b:79:88:4c:5d:6b:38:60:bb:d3:e3:
                    2f:0c:15:98:a5:d9:67:27:76:62:81:4a:1c:2d:45:
                    da:64:3d:06:97:74:d9:ce:ea:e6:7a:ee:71:24:b9:
                    3c:fb
                Exponent: 65537 (0x10001)
        X509v3 extensions:
            X509v3 Basic Constraints: critical
                CA:TRUE
            X509v3 Authority Key Identifier: 
                keyid:01:02:03

            Authority Information Access: 
                OCSP - URI:http://theca.net/ocsp
                CA Issuers - URI:http://theca.net/totallythecert.crt

            X509v3 Subject Key Identifier: 
                04:03:02:01
            X509v3 Subject Alternative Name: 
                DNS:*.gov.us, DNS:gov.us
            X509v3 Key Usage: 
                Digital Signature, Certificate Sign, CRL Sign
    Signature Algorithm: sha256WithRSAEncryption
         70:1a:37:14:83:33:27:15:38:54:32:e9:d2:e1:e2:47:c5:7f:
         26:0c:7e:14:16:ec:2c:6b:17:4b:27:a0:b5:e5:6f:3e:07:5d:
         18:be:17:24:16:62:e0:a2:21:de:45:bc:4c:05:b5:22:b1:93:
         91:5e:a6:85:86:f4:ad:57:ba:27:70:78:36:eb:41:b4:55:0c:
         52:52:5a:5f:57:1e:c3:ce:4f:a9:3c:97:61:eb:1e:09:6f:55:
         19:29:b9:c0:f5:cb:b3:7d:67:7d:27:44:01:1b:dc:2e:35:58:
         42:26:02:62:b9:8c:bb:b2:99:05:05:7d:90:46:3b:b9:1a:8f:
         08:d4:bc:dc:d3:0b:bf:84:30:2e:5e:be:15:66:42:17:46:4f:
         9b:e4:39:65:7a:aa:60:c8:db:c8:21:88:9d:eb:f9:e1:c3:f3:
         fb:ce:4a:7c:02:8e:2d:4d:d0:62:f0:48:9f:9d:61:8d:e4:b2:
         82:74:a4:db:65:d0:a3:33:78:fc:45:46:60:0c:db:4f:fb:94:
         32:62:a5:c8:50:55:dd:37:0b:ed:b0:21:0a:a7:c4:b6:e4:35:
         c7:71:b6:ca:7c:88:2c:06:a6:c3:9a:99:03:c5:b0:40:66:ab:
         00:9b:db:ee:f4:ed:39:ef:82:3f:e1:e1:d3:1d:86:c8:5e:28:
         5a:44:3b:7a
-----BEGIN CERTIFICATE-----
MIIELTCCAxWgAwIBAgIFBDFmk+0wDQYJKoZIhvcNAQELBQAwUjELMAkGA1UEBhMC
VVMxFjAUBgNVBAoTDU1vdGhlciBOYXR1cmUxEzARBgNVBAsTCkV2ZXJ5dGhpbmcx
FjAUBgNVBAMTDU1vdGhlciBOYXR1cmUwHhcNMTYwNzA1MTQ1OTU3WhcNMTYwOTE3
MTQ1OTU3WjCBmTELMAkGA1UEBhMCVVMxCzAJBgNVBAgTAkZMMRQwEgYDVQQHEwtU
YWxsYWhhc3NlZTEcMBoGA1UECRMTMzIxMCBIb2xseSBNaWxsIFJ1bjEOMAwGA1UE
ERMFMzAwNjIxGDAWBgNVBAoTD0V4dHJlbWUgRGlzY29yZDEOMAwGA1UECxMFQ2hh
b3MxDzANBgNVBAMTBmdvdi51czCCASIwDQYJKoZIhvcNAQEBBQADggEPADCCAQoC
ggEBAL9f/0D+ZKdnNGD6tu8JKtbYJMarhXWT+sABj2EqhxI83q+57lcii3AUI0aq
FMTvPKvS+IZhdorw7MFyGRsq8XIKJOBWb72UyyyQGCQopRt7211Qv98XEgnY34ie
n8hoRMYpat/F6/oUyYhaTMhR3FKCnCzwRGwxnJAsy4JkigsKAkOSjj3lRDKHdq8L
5U6Mw9GKt1GWHjEsmYjvPPekyW7nUIuMKOAsxI1ZT+HLeipcwfxzWpdMPMGbn1YV
PHBfbLqOb1pJPhMuPJgNLArya+bNmvk6NUt5iExdazhgu9PjLwwVmKXZZyd2YoFK
HC1F2mQ9Bpd02c7q5nrucSS5PPsCAwEAAaOBwTCBvjAPBgNVHRMBAf8EBTADAQH/
MA4GA1UdIwQHMAWAAwECAzBiBggrBgEFBQcBAQRWMFQwIQYIKwYBBQUHMAGGFWh0
dHA6Ly90aGVjYS5uZXQvb2NzcDAvBggrBgEFBQcwAoYjaHR0cDovL3RoZWNhLm5l
dC90b3RhbGx5dGhlY2VydC5jcnQwDQYDVR0OBAYEBAQDAgEwGwYDVR0RBBQwEoII
Ki5nb3YudXOCBmdvdi51czALBgNVHQ8EBAMCAYYwDQYJKoZIhvcNAQELBQADggEB
AHAaNxSDMycVOFQy6dLh4kfFfyYMfhQW7CxrF0snoLXlbz4HXRi+FyQWYuCiId5F
vEwFtSKxk5FepoWG9K1XuidweDbrQbRVDFJSWl9XHsPOT6k8l2HrHglvVRkpucD1
y7N9Z30nRAEb3C41WEImAmK5jLuymQUFfZBGO7kajwjUvNzTC7+EMC5evhVmQhdG
T5vkOWV6qmDI28ghiJ3r+eHD8/vOSnwCji1N0GLwSJ+dYY3ksoJ0pNtl0KMzePxF
RmAM20/7lDJipchQVd03C+2wIQqnxLbkNcdxtsp8iCwGpsOamQPFsEBmqwCb2+70
7Tnvgj/h4dMdhsheKFpEO3o=
-----END CERTIFICATE-----
