Certificate:
    Data:
        Version: 1 (0x0)
        Serial Number:
            e8:f8:ad:9e:a1:86:8b:d4
        Signature Algorithm: sha1WithRSAEncryption
        Issuer: CN=Testroot
        Validity
            Not Before: Mar  2 15:49:34 2018 GMT
            Not After : Jun  4 15:49:34 2020 GMT
        Subject: CN=825OK
        Subject Public Key Info:
            Public Key Algorithm: rsaEncryption
                Public-Key: (2048 bit)
                Modulus:
                    00:a7:1d:7c:12:0a:6d:33:e7:5c:9f:28:f9:70:73:
                    f4:79:11:60:a8:3f:68:7f:b2:6e:6b:2e:50:3d:52:
                    50:80:54:3e:8d:a4:4a:e6:b3:e0:34:0c:dd:c3:7b:
                    0c:4a:09:f5:46:20:45:41:46:3e:0e:6a:ee:ae:03:
                    a9:b5:a8:7b:87:26:a1:69:a8:e4:ee:12:8f:07:71:
                    fc:2f:26:39:70:ad:40:72:ab:52:f4:e4:bf:57:2a:
                    98:ae:04:bc:2f:ff:90:2f:f3:c8:c0:e0:ee:56:c9:
                    39:fe:fd:51:4b:84:db:1d:0c:80:d2:47:61:ac:1c:
                    4e:ff:f8:4b:60:99:db:1d:1a:4e:d1:c0:45:99:88:
                    a9:dd:21:cf:0e:88:a7:78:5b:9f:7b:5b:85:e7:35:
                    df:52:8d:e2:a3:ea:cb:11:b0:06:85:99:ec:4f:79:
                    0e:71:08:90:3b:53:b0:21:94:2c:e2:2c:25:56:d6:
                    b2:8e:ce:8a:5c:b7:53:6e:c5:17:8a:89:24:aa:2e:
                    c6:4c:10:7a:f7:31:1f:47:7e:26:7e:d4:a2:dd:82:
                    a6:37:c7:3e:92:b3:de:d0:ac:a5:2f:25:1f:44:ba:
                    71:a9:91:e5:05:a3:fb:4f:8d:cb:bc:9e:42:a8:ef:
                    f3:c4:1e:7d:9d:46:72:f9:86:5b:29:7b:cc:b0:78:
                    d3:ed
                Exponent: 65537 (0x10001)
    Signature Algorithm: sha1WithRSAEncryption
        a2:70:7b:45:ff:e9:3a:be:4b:b4:d3:94:61:91:98:9e:a5:11:
        bb:8a:17:b7:2a:f9:c4:04:58:7a:d3:fb:71:b4:68:17:f1:25:
        55:91:83:56:45:78:79:27:db:4e:4c:6d:98:9f:0c:67:19:f9:
        ae:b7:f2:06:64:c1:dc:b3:2a:39:1f:ad:57:7f:3a:da:3a:6c:
        fc:72:60:ab:e2:e5:46:c2:e0:86:96:2d:9b:f3:a9:a8:80:c0:
        16:ca:e7:85:20:5c:b8:81:c2:a6:b5:4b:7a:f8:3a:ad:b6:6e:
        3f:2c:02:36:3c:31:4e:15:7c:7d:cc:0d:cc:34:c8:ac:7c:8f:
        08:5e:3d:57:ab:a2:0b:23:52:dc:11:2c:62:74:30:9d:e5:d0:
        f9:94:4e:3d:0a:55:de:18:72:47:db:37:86:e8:7e:72:39:24:
        fa:8e:f6:10:46:60:50:ee:ef:10:d3:b2:4c:ab:2f:c4:65:9c:
        f9:32:34:be:16:05:6d:7b:a9:fa:bc:06:e0:7e:57:a2:b7:33:
        10:eb:fb:d5:cf:6a:cf:18:86:77:a2:2e:dc:68:e9:85:95:12:
        75:8d:b9:ea:f0:98:61:e5:f8:fe:d1:83:f4:f2:b8:9f:ac:4c:
        1a:55:a5:74:dd:55:2f:fd:70:a4:fe:5c:dc:de:80:61:ef:9e:
        e3:19:1d:9c
-----BEGIN CERTIFICATE-----
MIICnzCCAYcCCQDo+K2eoYaL1DANBgkqhkiG9w0BAQUFADATMREwDwYDVQQDEwhU
ZXN0cm9vdDAeFw0xODAzMDIxNTQ5MzRaFw0yMDA2MDQxNTQ5MzRaMBAxDjAMBgNV
BAMTBTgyNU9LMIIBIjANBgkqhkiG9w0BAQEFAAOCAQ8AMIIBCgKCAQEApx18Egpt
M+dcnyj5cHP0eRFgqD9of7Juay5QPVJQgFQ+jaRK5rPgNAzdw3sMSgn1RiBFQUY+
DmrurgOptah7hyahaajk7hKPB3H8LyY5cK1AcqtS9OS/VyqYrgS8L/+QL/PIwODu
Vsk5/v1RS4TbHQyA0kdhrBxO//hLYJnbHRpO0cBFmYip3SHPDoineFufe1uF5zXf
Uo3io+rLEbAGhZnsT3kOcQiQO1OwIZQs4iwlVtayjs6KXLdTbsUXiokkqi7GTBB6
9zEfR34mftSi3YKmN8c+krPe0KylLyUfRLpxqZHlBaP7T43LvJ5CqO/zxB59nUZy
+YZbKXvMsHjT7QIDAQABMA0GCSqGSIb3DQEBBQUAA4IBAQCicHtF/+k6vku005Rh
kZiepRG7ihe3KvnEBFh60/txtGgX8SVVkYNWRXh5J9tOTG2YnwxnGfmut/IGZMHc
syo5H61XfzraOmz8cmCr4uVGwuCGli2b86mogMAWyueFIFy4gcKmtUt6+Dqttm4/
LAI2PDFOFXx9zA3MNMisfI8IXj1Xq6ILI1LcESxidDCd5dD5lE49ClXeGHJH2zeG
6H5yOST6jvYQRmBQ7u8Q07JMqy/EZZz5MjS+FgVte6n6vAbgfleitzMQ6/vVz2rP
GIZ3oi7caOmFlRJ1jbnq8Jhh5fj+0YP08rifrEwaVaV03VUv/XCk/lzc3oBh757j
GR2c
-----END CERTIFICATE-----
