Certificate:
    Data:
        Version: 3 (0x2)
        Serial Number: 18008675984 (0x431669690)
    Signature Algorithm: sha256WithRSAEncryption
        Issuer: C = US, O = Mother Nature, OU = Everything, CN = Mother Nature
        Validity
            Not Before: Jul 11 22:26:12 2016 GMT
            Not After : Sep 23 22:26:12 2016 GMT
        Subject: C = US, ST = FL, L = Tallahassee, street = 3210 Holly Mill Run, postalCode = 30062, O = Extreme Discord, OU = Chaos, CN = gov.us
        Subject Public Key Info:
            Public Key Algorithm: rsaEncryption
                Public-Key: (2048 bit)
                Modulus:
                    00:d3:1f:bc:90:2f:59:71:8e:64:e5:eb:e9:cf:b1:
                    aa:d8:be:a4:6e:ee:07:16:af:b9:62:7c:45:62:79:
                    d9:d4:4c:b0:4a:6d:a2:8c:66:25:1f:e9:a6:c6:8b:
                    44:42:2e:c2:18:d6:b5:c0:dd:25:a4:f2:33:63:88:
                    31:17:4d:5d:7c:39:43:0f:64:0b:c9:49:60:4c:59:
                    5b:da:8a:68:c1:18:14:c9:b7:cc:79:fb:e9:df:6d:
                    6b:28:1d:5e:34:5c:55:be:4a:a4:5e:6c:08:5e:0b:
                    f3:27:1f:49:13:9d:b9:5b:9b:74:c5:74:35:fb:dc:
                    07:d1:87:8a:22:cf:63:2d:83:b0:cf:89:7a:b9:af:
                    c3:4f:72:58:9b:03:51:32:70:0d:32:40:7a:25:e9:
                    48:c9:53:d2:67:e7:e8:3a:7c:d0:4f:3b:3b:fc:20:
                    26:50:60:ae:fd:52:55:9a:c7:e6:f0:1e:c6:a3:58:
                    4b:c6:a1:0c:fe:6f:ae:4e:58:df:d7:d1:9e:31:51:
                    b9:1a:cc:83:d8:14:20:02:2b:05:23:2c:ed:18:ea:
                    87:44:e8:71:e1:fb:57:3a:ce:b1:6d:ed:d8:d7:26:
                    76:ef:a1:0e:dc:ef:b5:8a:72:40:52:f6:b8:93:85:
                    79:da:9d:f1:16:bf:83:b3:cb:fe:d7:99:38:df:44:
                    0d:35
                Exponent: 65537 (0x10001)
        X509v3 extensions:
            X509v3 Key Usage: critical
                Digital Signature, Key Encipherment, Certificate Sign
            X509v3 Extended Key Usage: 
                TLS Web Client Authentication, TLS Web Server Authentication
            X509v3 Basic Constraints: critical
                CA:TRUE
            Authority Information Access: 
                OCSP - URI:http://theca.net/ocsp
                CA Issuers - URI:http://theca.net/totallythecert.crt

            X509v3 Certificate Policies: 
                Policy: 1.3.6.1.5.5.7.13.1
                Policy: 2.23.140.1.2.2

            X509v3 Subject Key Identifier: 
                04:03:02:01
            X509v3 Subject Alternative Name: 
                DNS:*.gov.us, DNS:gov.us
            X509v3 Issuer Alternative Name: 
                DNS:allthethings.net, DNS:allthemthings.net, DNS:theca.net
            X509v3 Authority Key Identifier: 
                keyid:01:02:03:04
                serial:1C:BD:7D:87:57

            X509v3 Freshest CRL: 

                Full Name:
                  URI:http://crl.allthemthings.net/sfig2s1-17.crl

            X509v3 Policy Mappings: critical
                1.3.6.1.5.5.7.13.1:1.3.6.1.5.5.7.13.2, 2.23.140.1.2.2:1.3.6.1.5.5.7.13.3
            X509v3 Subject Directory Attributes: critical
                0.0...U..1...+1 770 5098357
    Signature Algorithm: sha256WithRSAEncryption
         b4:c8:67:1c:58:71:36:ae:fa:d2:ba:5a:b0:89:d6:89:ed:25:
         47:04:f2:be:86:ba:8c:96:70:b0:4c:ac:5c:2a:95:1b:53:b3:
         f0:36:8b:73:ac:2c:95:e8:6c:2f:fe:f0:73:27:c3:6a:3d:f1:
         b8:a3:35:50:90:f4:95:ad:9c:d9:bc:25:38:a6:38:e5:e0:92:
         0e:34:4e:c3:66:8b:7c:31:db:38:07:be:92:6f:fc:1e:be:8e:
         2d:6b:b1:f8:e2:a1:c9:73:e1:77:b7:2c:f2:8d:08:7f:20:0f:
         1b:ab:0f:6f:4f:2c:b5:39:bc:5c:f1:20:25:93:0c:06:6e:f5:
         44:f8:1a:c4:6a:a5:e1:a1:8c:06:15:31:e7:e1:ee:72:80:48:
         26:00:ef:e0:12:ef:78:b0:a8:59:f1:b9:39:e0:cb:02:ba:f6:
         14:e5:82:f3:ac:ab:8f:f9:13:71:eb:d8:00:5d:f0:37:24:7d:
         8a:98:b9:6a:e5:81:3a:b0:78:e6:04:01:73:7f:49:7f:4b:61:
         bc:9d:c4:d7:85:09:cb:3c:25:fd:66:2c:df:d0:27:81:b6:e4:
         ee:85:0f:d9:5d:34:37:5c:f9:35:29:0c:c1:e3:ce:7f:55:75:
         2e:f4:bc:72:36:b4:78:aa:80:20:75:8d:8d:27:0f:bb:c1:c3:
         75:6a:1d:20
-----BEGIN CERTIFICATE-----
MIIFUjCCBDqgAwIBAgIFBDFmlpAwDQYJKoZIhvcNAQELBQAwUjELMAkGA1UEBhMC
VVMxFjAUBgNVBAoTDU1vdGhlciBOYXR1cmUxEzARBgNVBAsTCkV2ZXJ5dGhpbmcx
FjAUBgNVBAMTDU1vdGhlciBOYXR1cmUwHhcNMTYwNzExMjIyNjEyWhcNMTYwOTIz
MjIyNjEyWjCBmTELMAkGA1UEBhMCVVMxCzAJBgNVBAgTAkZMMRQwEgYDVQQHEwtU
YWxsYWhhc3NlZTEcMBoGA1UECRMTMzIxMCBIb2xseSBNaWxsIFJ1bjEOMAwGA1UE
ERMFMzAwNjIxGDAWBgNVBAoTD0V4dHJlbWUgRGlzY29yZDEOMAwGA1UECxMFQ2hh
b3MxDzANBgNVBAMTBmdvdi51czCCASIwDQYJKoZIhvcNAQEBBQADggEPADCCAQoC
ggEBANMfvJAvWXGOZOXr6c+xqti+pG7uBxavuWJ8RWJ52dRMsEptooxmJR/ppsaL
REIuwhjWtcDdJaTyM2OIMRdNXXw5Qw9kC8lJYExZW9qKaMEYFMm3zHn76d9taygd
XjRcVb5KpF5sCF4L8ycfSROduVubdMV0NfvcB9GHiiLPYy2DsM+Jermvw09yWJsD
UTJwDTJAeiXpSMlT0mfn6Dp80E87O/wgJlBgrv1SVZrH5vAexqNYS8ahDP5vrk5Y
39fRnjFRuRrMg9gUIAIrBSMs7Rjqh0ToceH7VzrOsW3t2Ncmdu+hDtzvtYpyQFL2
uJOFedqd8Ra/g7PL/teZON9EDTUCAwEAAaOCAeUwggHhMA4GA1UdDwEB/wQEAwIC
pDAdBgNVHSUEFjAUBggrBgEFBQcDAgYIKwYBBQUHAwEwDwYDVR0TAQH/BAUwAwEB
/zBiBggrBgEFBQcBAQRWMFQwIQYIKwYBBQUHMAGGFWh0dHA6Ly90aGVjYS5uZXQv
b2NzcDAvBggrBgEFBQcwAoYjaHR0cDovL3RoZWNhLm5ldC90b3RhbGx5dGhlY2Vy
dC5jcnQwHwYDVR0gBBgwFjAKBggrBgEFBQcNATAIBgZngQwBAgIwDQYDVR0OBAYE
BAQDAgEwGwYDVR0RBBQwEoIIKi5nb3YudXOCBmdvdi51czA5BgNVHRIEMjAwghBh
bGx0aGV0aGluZ3MubmV0ghFhbGx0aGVtdGhpbmdzLm5ldIIJdGhlY2EubmV0MBYG
A1UdIwQPMA2ABAECAwSCBRy9fYdXMDwGA1UdLgQ1MDMwMaAvoC2GK2h0dHA6Ly9j
cmwuYWxsdGhlbXRoaW5ncy5uZXQvc2ZpZzJzMS0xNy5jcmwwNgYDVR0hAQH/BCww
KjAUBggrBgEFBQcNAQYIKwYBBQUHDQIwEgYGZ4EMAQICBggrBgEFBQcNAzAlBgNV
HQkBAf8EGzAZMBcGA1UEFDEQEw4rMSA3NzAgNTA5ODM1NzANBgkqhkiG9w0BAQsF
AAOCAQEAtMhnHFhxNq760rpasInWie0lRwTyvoa6jJZwsEysXCqVG1Oz8DaLc6ws
lehsL/7wcyfDaj3xuKM1UJD0la2c2bwlOKY45eCSDjROw2aLfDHbOAe+km/8Hr6O
LWux+OKhyXPhd7cs8o0IfyAPG6sPb08stTm8XPEgJZMMBm71RPgaxGql4aGMBhUx
5+HucoBIJgDv4BLveLCoWfG5OeDLArr2FOWC86yrj/kTcevYAF3wNyR9ipi5auWB
OrB45gQBc39Jf0thvJ3E14UJyzwl/WYs39Angbbk7oUP2V00N1z5NSkMwePOf1V1
LvS8cja0eKqAIHWNjScPu8HDdWodIA==
-----END CERTIFICATE-----
