Certificate:
    Data:
        Version: 3 (0x2)
        Serial Number: 14615016 (0xdf01e8)
    Signature Algorithm: sha256WithRSAEncryption
        Issuer: C = US, O = Mother Nature, OU = Everything, CN = Mother Nature
        Validity
            Not Before: Jul 11 20:14:32 2016 GMT
            Not After : Sep 23 20:14:32 2016 GMT
        Subject: C = US, ST = FL, L = Tallahassee, street = 3210 Holly Mill Run, postalCode = 30062, O = Extreme Discord, OU = Chaos, CN = gov.us
        Subject Public Key Info:
            Public Key Algorithm: id-ecPublicKey
                Public-Key: (224 bit)
                pub:
                    04:48:f2:1e:98:78:fc:7a:03:2b:50:16:cf:3d:fa:
                    79:c5:b9:fb:f2:11:01:c5:b4:61:54:97:a6:a0:de:
                    92:bf:95:c1:71:f1:0d:b6:3d:b2:04:4a:fe:ff:d2:
                    3e:e7:3f:72:94:b2:19:b8:47:60:1a:e2
                ASN1 OID: secp224r1
                NIST CURVE: P-224
        X509v3 extensions:
            X509v3 Extended Key Usage: 
                TLS Web Client Authentication
            X509v3 Basic Constraints: critical
                CA:FALSE
            X509v3 Authority Key Identifier: 
                keyid:01:02:03

            X509v3 Subject Key Identifier: 
                04:03:02:01
            X509v3 Subject Alternative Name: 
                DNS:*.gov.us, DNS:gov.us
            X509v3 Key Usage: 
                Data Encipherment, Key Agreement
    Signature Algorithm: sha256WithRSAEncryption
         93:49:36:e9:13:80:eb:27:bd:df:fb:2e:cb:ef:22:cb:e5:ce:
         a9:3a:8c:ac:12:92:14:0d:91:e0:96:75:f3:6a:f2:76:26:63:
         c2:8a:90:ea:57:8d:a7:1c:02:61:c5:d0:a2:d2:a4:44:74:48:
         18:e5:86:81:2c:c1:2c:77:56:6c:3d:41:29:3e:07:b1:d4:85:
         bb:c4:dd:f7:78:8c:f6:b4:e2:1c:12:b4:98:78:f4:fc:27:43:
         fd:2f:26:8e:c6:62:ff:38:05:a5:68:8d:04:91:29:b8:76:db:
         d6:a8:07:be:ea:bc:80:63:26:34:71:ba:88:b5:2f:68:1c:61:
         8b:99:09:25:e0:46:dc:35:a0:ac:ed:1b:2d:99:c4:8f:e4:19:
         e9:65:ef:58:69:0e:91:1f:43:cf:a3:23:43:e3:31:c1:7d:08:
         14:88:3e:17:99:cc:50:7f:2e:a2:bb:ac:2d:d8:7c:0c:d7:99:
         1e:f3:2a:d3:95:e0:b4:6e:e6:1c:a9:69:3a:6b:b4:80:da:dd:
         aa:7b:84:e5:a2:24:32:40:d3:80:53:67:9a:a5:a0:c4:38:ef:
         f3:8c:ca:4f:3d:a9:53:8a:c6:4b:ac:92:38:1c:e5:3d:0a:ec:
         65:0f:6d:32:1b:9f:29:0c:22:40:bb:4d:bc:77:d4:8e:3f:1a:
         bc:2a:d8:39
-----BEGIN CERTIFICATE-----
MIIDAjCCAeqgAwIBAgIEAN8B6DANBgkqhkiG9w0BAQsFADBSMQswCQYDVQQGEwJV
UzEWMBQGA1UEChMNTW90aGVyIE5hdHVyZTETMBEGA1UECxMKRXZlcnl0aGluZzEW
MBQGA1UEAxMNTW90aGVyIE5hdHVyZTAeFw0xNjA3MTEyMDE0MzJaFw0xNjA5MjMy
MDE0MzJaMIGZMQswCQYDVQQGEwJVUzELMAkGA1UECBMCRkwxFDASBgNVBAcTC1Rh
bGxhaGFzc2VlMRwwGgYDVQQJExMzMjEwIEhvbGx5IE1pbGwgUnVuMQ4wDAYDVQQR
EwUzMDA2MjEYMBYGA1UEChMPRXh0cmVtZSBEaXNjb3JkMQ4wDAYDVQQLEwVDaGFv
czEPMA0GA1UEAxMGZ292LnVzME4wEAYHKoZIzj0CAQYFK4EEACEDOgAESPIemHj8
egMrUBbPPfp5xbn78hEBxbRhVJemoN6Sv5XBcfENtj2yBEr+/9I+5z9ylLIZuEdg
GuKjbjBsMBMGA1UdJQQMMAoGCCsGAQUFBwMCMAwGA1UdEwEB/wQCMAAwDgYDVR0j
BAcwBYADAQIDMA0GA1UdDgQGBAQEAwIBMBsGA1UdEQQUMBKCCCouZ292LnVzggZn
b3YudXMwCwYDVR0PBAQDAgEYMA0GCSqGSIb3DQEBCwUAA4IBAQCTSTbpE4DrJ73f
+y7L7yLL5c6pOoysEpIUDZHglnXzavJ2JmPCipDqV42nHAJhxdCi0qREdEgY5YaB
LMEsd1ZsPUEpPgex1IW7xN33eIz2tOIcErSYePT8J0P9LyaOxmL/OAWlaI0EkSm4
dtvWqAe+6ryAYyY0cbqItS9oHGGLmQkl4EbcNaCs7RstmcSP5BnpZe9YaQ6RH0PP
oyND4zHBfQgUiD4XmcxQfy6iu6wt2HwM15ke8yrTleC0buYcqWk6a7SA2t2qe4Tl
oiQyQNOAU2eapaDEOO/zjMpPPalTisZLrJI4HOU9CuxlD20yG58pDCJAu028d9SO
Pxq8Ktg5
-----END CERTIFICATE-----
