Certificate:
    Data:
        Version: 3 (0x2)
        Serial Number: 14615016 (0xdf01e8)
    Signature Algorithm: sha256WithRSAEncryption
        Issuer: C = US, O = Mother Nature, OU = Everything, CN = Mother Nature
        Validity
            Not Before: Jul 11 20:14:53 2016 GMT
            Not After : Sep 23 20:14:53 2016 GMT
        Subject: C = US, ST = FL, L = Tallahassee, street = 3210 Holly Mill Run, postalCode = 30062, O = Extreme Discord, OU = Chaos, CN = gov.us
        Subject Public Key Info:
            Public Key Algorithm: id-ecPublicKey
                Public-Key: (224 bit)
                pub:
                    04:2a:c9:de:ab:a5:e4:22:7b:1e:2f:3e:c2:85:07:
                    96:a2:e6:b8:95:ba:6f:85:51:fc:71:9e:cf:50:c0:
                    af:85:04:01:cd:74:58:81:db:3f:c6:33:e3:3b:8a:
                    b8:fb:a8:b8:9f:bb:50:72:6e:a0:c5:45
                ASN1 OID: secp224r1
                NIST CURVE: P-224
        X509v3 extensions:
            X509v3 Extended Key Usage: 
                TLS Web Server Authentication
            X509v3 Basic Constraints: critical
                CA:FALSE
            X509v3 Authority Key Identifier: 
                keyid:01:02:03

            X509v3 Subject Key Identifier: 
                04:03:02:01
            X509v3 Subject Alternative Name: 
                DNS:*.gov.us, DNS:gov.us
            X509v3 Key Usage: 
                Data Encipherment, Key Agreement
    Signature Algorithm: sha256WithRSAEncryption
         55:46:eb:5d:68:c9:29:4b:a4:a8:e6:8d:c8:53:ab:74:90:57:
         64:b6:95:0e:62:3a:94:dc:c7:5b:80:47:59:83:7f:77:bf:60:
         60:2f:01:e6:19:91:fc:c7:48:41:16:c3:b8:a1:b5:55:b6:b4:
         32:0f:b6:ed:96:8d:10:37:d8:1a:1d:e0:81:68:b6:a7:21:c7:
         37:09:8d:a0:31:8c:c5:fa:01:2f:88:a0:f2:79:1c:71:fd:c0:
         9c:16:91:27:da:ce:0f:70:b0:93:e7:dc:6e:d8:59:bd:01:7a:
         8a:92:4e:1a:71:99:1d:31:6e:19:6b:bc:33:6c:bb:da:4e:84:
         6c:50:f8:98:9c:b2:33:11:b1:b5:2a:b8:47:48:d0:fe:d3:b8:
         a2:06:3c:af:8d:17:48:ea:1e:75:ea:91:0e:d6:ef:78:df:b9:
         c6:76:3d:1e:09:ee:1c:aa:73:b5:c0:90:f2:bb:28:41:91:44:
         07:6c:48:0e:c6:8d:43:58:04:7c:45:d4:cc:c7:d0:c8:e1:6e:
         c6:96:8c:c8:81:85:6a:7e:29:30:99:db:7f:58:c4:76:3b:6b:
         6c:a4:33:dd:82:b3:26:38:50:0a:de:f2:5f:1b:80:2c:26:d5:
         7e:a5:86:9e:18:25:2f:95:84:a5:e3:9c:d6:e6:ff:51:ad:52:
         25:3b:15:72
-----BEGIN CERTIFICATE-----
MIIDAjCCAeqgAwIBAgIEAN8B6DANBgkqhkiG9w0BAQsFADBSMQswCQYDVQQGEwJV
UzEWMBQGA1UEChMNTW90aGVyIE5hdHVyZTETMBEGA1UECxMKRXZlcnl0aGluZzEW
MBQGA1UEAxMNTW90aGVyIE5hdHVyZTAeFw0xNjA3MTEyMDE0NTNaFw0xNjA5MjMy
MDE0NTNaMIGZMQswCQYDVQQGEwJVUzELMAkGA1UECBMCRkwxFDASBgNVBAcTC1Rh
bGxhaGFzc2VlMRwwGgYDVQQJExMzMjEwIEhvbGx5IE1pbGwgUnVuMQ4wDAYDVQQR
EwUzMDA2MjEYMBYGA1UEChMPRXh0cmVtZSBEaXNjb3JkMQ4wDAYDVQQLEwVDaGFv
czEPMA0GA1UEAxMGZ292LnVzME4wEAYHKoZIzj0CAQYFK4EEACEDOgAEKsneq6Xk
InseLz7ChQeWoua4lbpvhVH8cZ7PUMCvhQQBzXRYgds/xjPjO4q4+6i4n7tQcm6g
xUWjbjBsMBMGA1UdJQQMMAoGCCsGAQUFBwMBMAwGA1UdEwEB/wQCMAAwDgYDVR0j
BAcwBYADAQIDMA0GA1UdDgQGBAQEAwIBMBsGA1UdEQQUMBKCCCouZ292LnVzggZn
b3YudXMwCwYDVR0PBAQDAgEYMA0GCSqGSIb3DQEBCwUAA4IBAQBVRutdaMkpS6So
5o3IU6t0kFdktpUOYjqU3MdbgEdZg393v2BgLwHmGZH8x0hBFsO4obVVtrQyD7bt
lo0QN9gaHeCBaLanIcc3CY2gMYzF+gEviKDyeRxx/cCcFpEn2s4PcLCT59xu2Fm9
AXqKkk4acZkdMW4Za7wzbLvaToRsUPiYnLIzEbG1KrhHSND+07iiBjyvjRdI6h51
6pEO1u9437nGdj0eCe4cqnO1wJDyuyhBkUQHbEgOxo1DWAR8RdTMx9DI4W7GlozI
gYVqfikwmdt/WMR2O2tspDPdgrMmOFAK3vJfG4AsJtV+pYaeGCUvlYSl45zW5v9R
rVIlOxVy
-----END CERTIFICATE-----
