Certificate:
    Data:
        Version: 3 (0x2)
        Serial Number: 14615016 (0xdf01e8)
    Signature Algorithm: sha256WithRSAEncryption
        Issuer: C = US, O = Mother Nature, OU = Everything, CN = Mother Nature
        Validity
            Not Before: Jul 11 20:29:20 2016 GMT
            Not After : Sep 23 20:29:20 2016 GMT
        Subject: C = US, ST = FL, L = Tallahassee, street = 3210 Holly Mill Run, postalCode = 30062, O = Extreme Discord, OU = Chaos, CN = gov.us
        Subject Public Key Info:
            Public Key Algorithm: id-ecPublicKey
                Public-Key: (224 bit)
                pub:
                    04:85:13:2a:d4:e5:64:ac:46:ad:63:3e:12:94:78:
                    4c:19:bb:7f:1b:21:78:dc:6c:e5:e5:94:fa:57:6f:
                    eb:c1:88:7e:d5:3f:b3:d7:1e:62:0f:4e:f8:50:28:
                    dc:7c:df:a3:ff:df:75:7a:f0:e1:a5:aa
                ASN1 OID: secp224r1
                NIST CURVE: P-224
        X509v3 extensions:
            X509v3 Extended Key Usage: 
                TLS Web Client Authentication, TLS Web Server Authentication, E-mail Protection, Code Signing
            X509v3 Basic Constraints: critical
                CA:FALSE
            X509v3 Authority Key Identifier: 
                keyid:01:02:03

            X509v3 Subject Key Identifier: 
                04:03:02:01
            X509v3 Subject Alternative Name: 
                DNS:*.gov.us, DNS:gov.us
            X509v3 Key Usage: 
                Data Encipherment, Key Agreement
    Signature Algorithm: sha256WithRSAEncryption
         6c:08:a5:42:6f:df:e7:5c:cf:b8:2c:3b:88:a3:35:0e:96:dd:
         77:04:3a:43:9b:2d:bb:e1:31:ef:27:7b:a4:dc:8a:93:b2:ad:
         4b:a4:7c:4e:72:94:68:f0:4f:4a:73:9b:4f:c2:df:c3:68:fa:
         76:c9:6a:46:c4:20:13:c2:75:d4:07:a2:80:e3:f8:52:31:9b:
         97:b8:61:de:89:a6:cf:b4:b6:8e:99:a5:81:e3:f6:2c:44:f9:
         59:e2:cf:4c:10:d4:70:24:a2:cb:34:08:ab:f2:41:1f:91:69:
         5c:ce:a5:0d:dc:88:37:d8:36:6f:b7:6c:5a:ed:7b:e1:54:16:
         5b:76:bc:37:d1:e9:08:83:6f:a2:28:c8:9d:77:f8:05:ff:ab:
         5d:8a:71:e6:c4:a9:dc:a4:1b:f7:78:92:ac:cb:28:27:b2:8e:
         6b:f0:d4:10:54:86:4a:05:8a:72:ad:04:7f:e4:d2:29:ca:30:
         6b:04:57:5b:81:1b:7b:7c:ec:cb:ae:bf:3a:0e:24:e8:ce:11:
         5a:ba:28:2e:0b:8f:e3:40:b4:e0:91:7d:8e:ea:13:50:58:1f:
         31:91:b3:56:5d:cb:3b:40:17:2e:d2:e6:8a:9a:4f:4a:ed:69:
         03:d4:83:23:88:3a:cd:8c:39:48:7e:32:c0:43:54:1d:15:1a:
         46:3d:1c:4a
-----BEGIN CERTIFICATE-----
MIIDIjCCAgqgAwIBAgIEAN8B6DANBgkqhkiG9w0BAQsFADBSMQswCQYDVQQGEwJV
UzEWMBQGA1UEChMNTW90aGVyIE5hdHVyZTETMBEGA1UECxMKRXZlcnl0aGluZzEW
MBQGA1UEAxMNTW90aGVyIE5hdHVyZTAeFw0xNjA3MTEyMDI5MjBaFw0xNjA5MjMy
MDI5MjBaMIGZMQswCQYDVQQGEwJVUzELMAkGA1UECBMCRkwxFDASBgNVBAcTC1Rh
bGxhaGFzc2VlMRwwGgYDVQQJExMzMjEwIEhvbGx5IE1pbGwgUnVuMQ4wDAYDVQQR
EwUzMDA2MjEYMBYGA1UEChMPRXh0cmVtZSBEaXNjb3JkMQ4wDAYDVQQLEwVDaGFv
czEPMA0GA1UEAxMGZ292LnVzME4wEAYHKoZIzj0CAQYFK4EEACEDOgAEhRMq1OVk
rEatYz4SlHhMGbt/GyF43Gzl5ZT6V2/rwYh+1T+z1x5iD074UCjcfN+j/991evDh
paqjgY0wgYowMQYDVR0lBCowKAYIKwYBBQUHAwIGCCsGAQUFBwMBBggrBgEFBQcD
BAYIKwYBBQUHAwMwDAYDVR0TAQH/BAIwADAOBgNVHSMEBzAFgAMBAgMwDQYDVR0O
BAYEBAQDAgEwGwYDVR0RBBQwEoIIKi5nb3YudXOCBmdvdi51czALBgNVHQ8EBAMC
ARgwDQYJKoZIhvcNAQELBQADggEBAGwIpUJv3+dcz7gsO4ijNQ6W3XcEOkObLbvh
Me8ne6TcipOyrUukfE5ylGjwT0pzm0/C38No+nbJakbEIBPCddQHooDj+FIxm5e4
Yd6Jps+0to6ZpYHj9ixE+Vniz0wQ1HAkoss0CKvyQR+RaVzOpQ3ciDfYNm+3bFrt
e+FUFlt2vDfR6QiDb6IoyJ13+AX/q12KcebEqdykG/d4kqzLKCeyjmvw1BBUhkoF
inKtBH/k0inKMGsEV1uBG3t87MuuvzoOJOjOEVq6KC4Lj+NAtOCRfY7qE1BYHzGR
s1ZdyztAFy7S5oqaT0rtaQPUgyOIOs2MOUh+MsBDVB0VGkY9HEo=
-----END CERTIFICATE-----
