Certificate:
    Data:
        Version: 3 (0x2)
        Serial Number: 14615016 (0xdf01e8)
    Signature Algorithm: sha256WithRSAEncryption
        Issuer: C = US, O = Mother Nature, OU = Everything, CN = Mother Nature
        Validity
            Not Before: Jul 11 20:14:01 2016 GMT
            Not After : Sep 23 20:14:01 2016 GMT
        Subject: C = US, ST = FL, L = Tallahassee, street = 3210 Holly Mill Run, postalCode = 30062, O = Extreme Discord, OU = Chaos, CN = gov.us
        Subject Public Key Info:
            Public Key Algorithm: id-ecPublicKey
                Public-Key: (224 bit)
                pub:
                    04:44:90:1d:1b:b4:ef:c4:2d:78:8e:e4:a8:55:31:
                    11:de:48:8e:de:fb:c4:93:d7:a1:5c:2e:d8:2b:c1:
                    1e:1b:b8:8a:05:a2:10:04:ef:2d:76:73:85:20:d8:
                    34:83:0e:09:02:78:4e:78:4c:c8:9c:24
                ASN1 OID: secp224r1
                NIST CURVE: P-224
        X509v3 extensions:
            X509v3 Extended Key Usage: 
                TLS Web Client Authentication, TLS Web Server Authentication
            X509v3 Basic Constraints: critical
                CA:FALSE
            X509v3 Authority Key Identifier: 
                keyid:01:02:03

            X509v3 Subject Key Identifier: 
                04:03:02:01
            X509v3 Subject Alternative Name: 
                DNS:*.gov.us, DNS:gov.us
            X509v3 Key Usage: 
                Data Encipherment, Key Agreement
    Signature Algorithm: sha256WithRSAEncryption
         49:01:99:f4:9c:e4:3a:f6:87:f5:0a:40:5c:3d:c7:31:f6:9e:
         c0:91:c7:44:76:0d:64:03:54:fe:40:c8:69:52:b4:2f:90:8e:
         05:e4:c2:50:5e:c0:17:48:0b:e5:12:1a:42:92:56:ad:13:37:
         2b:75:e3:6b:db:97:b2:f7:3d:f8:c3:13:2a:4a:14:89:68:65:
         b8:86:4c:b0:7c:86:a4:14:61:92:90:cd:d7:16:2a:52:24:0f:
         7d:7e:2b:50:d8:da:90:b4:9d:7c:0d:a8:31:b6:70:17:3f:22:
         61:57:0f:78:de:61:00:de:1c:75:a5:01:06:e3:f6:e7:de:17:
         3e:1d:cc:85:9b:86:e9:0d:9c:10:39:45:02:79:e1:d2:6a:81:
         36:c9:5b:3e:7e:f7:68:aa:fa:27:39:6e:5b:a6:fd:fe:16:a4:
         6e:f9:72:05:ea:ab:0e:9b:bc:86:1e:89:76:2c:eb:14:b2:42:
         cd:fb:ed:52:7a:37:72:d6:d0:f5:f4:55:be:2c:13:55:15:c3:
         6a:cd:4a:3e:2f:6a:89:1a:5f:23:7c:b0:b9:a8:fe:0d:6e:b7:
         e5:b9:e7:65:62:01:a1:6a:39:5b:00:9d:64:a8:bd:93:d5:43:
         8f:bb:82:21:6c:6c:0f:1f:24:7a:a0:e4:a1:bb:c6:ff:86:17:
         cc:49:4e:fd
-----BEGIN CERTIFICATE-----
MIIDDDCCAfSgAwIBAgIEAN8B6DANBgkqhkiG9w0BAQsFADBSMQswCQYDVQQGEwJV
UzEWMBQGA1UEChMNTW90aGVyIE5hdHVyZTETMBEGA1UECxMKRXZlcnl0aGluZzEW
MBQGA1UEAxMNTW90aGVyIE5hdHVyZTAeFw0xNjA3MTEyMDE0MDFaFw0xNjA5MjMy
MDE0MDFaMIGZMQswCQYDVQQGEwJVUzELMAkGA1UECBMCRkwxFDASBgNVBAcTC1Rh
bGxhaGFzc2VlMRwwGgYDVQQJExMzMjEwIEhvbGx5IE1pbGwgUnVuMQ4wDAYDVQQR
EwUzMDA2MjEYMBYGA1UEChMPRXh0cmVtZSBEaXNjb3JkMQ4wDAYDVQQLEwVDaGFv
czEPMA0GA1UEAxMGZ292LnVzME4wEAYHKoZIzj0CAQYFK4EEACEDOgAERJAdG7Tv
xC14juSoVTER3kiO3vvEk9ehXC7YK8EeG7iKBaIQBO8tdnOFINg0gw4JAnhOeEzI
nCSjeDB2MB0GA1UdJQQWMBQGCCsGAQUFBwMCBggrBgEFBQcDATAMBgNVHRMBAf8E
AjAAMA4GA1UdIwQHMAWAAwECAzANBgNVHQ4EBgQEBAMCATAbBgNVHREEFDASgggq
Lmdvdi51c4IGZ292LnVzMAsGA1UdDwQEAwIBGDANBgkqhkiG9w0BAQsFAAOCAQEA
SQGZ9JzkOvaH9QpAXD3HMfaewJHHRHYNZANU/kDIaVK0L5COBeTCUF7AF0gL5RIa
QpJWrRM3K3Xja9uXsvc9+MMTKkoUiWhluIZMsHyGpBRhkpDN1xYqUiQPfX4rUNja
kLSdfA2oMbZwFz8iYVcPeN5hAN4cdaUBBuP2594XPh3MhZuG6Q2cEDlFAnnh0mqB
NslbPn73aKr6JzluW6b9/hakbvlyBeqrDpu8hh6JdizrFLJCzfvtUno3ctbQ9fRV
viwTVRXDas1KPi9qiRpfI3ywuaj+DW635bnnZWIBoWo5WwCdZKi9k9VDj7uCIWxs
Dx8keqDkobvG/4YXzElO/Q==
-----END CERTIFICATE-----
