Certificate:
    Data:
        Version: 3 (0x2)
        Serial Number: 167332209 (0x9f94971)
    Signature Algorithm: sha1WithRSAEncryption
        Issuer: C=DE, O=DFN-Verein, OU=DFN-PKI, CN=DFN-Verein PCA Global - G01
        Validity
            Not Before: Feb 19 16:10:11 2007 GMT
            Not After : Feb 18 00:00:00 2019 GMT
        Subject: CN=DFN-WiNShuttle-CA - G02, OU=WiNShuttle, O=DFN-Verein, C=DE/emailAddress=this.email.address.exceeeds.one.hundred.twenty.eight.characters.length.and.should.raise.an.error@the.not.so.short.domain.name.that.was.too.short.that.was.still.few.characters.short
        Subject Public Key Info:
            Public Key Algorithm: rsaEncryption
                Public-Key: (2048 bit)
                Modulus:
                    00:b9:37:ae:d6:bf:8e:72:45:de:b4:a0:d5:88:f9:
                    8a:74:32:7e:e6:cd:e9:8f:c7:51:90:61:79:c8:d9:
                    72:b0:bc:e8:40:b3:09:ad:3d:de:7d:61:25:58:fe:
                    b4:34:70:28:93:30:86:d1:02:32:c7:88:a0:74:33:
                    74:3c:95:80:27:06:b7:0f:8f:62:f5:e1:ea:26:e4:
                    ff:aa:7d:52:c4:fe:b0:5f:c8:9b:79:be:4b:df:8a:
                    3d:91:e9:f1:a4:34:76:eb:91:92:cd:db:6a:a0:04:
                    01:6b:cc:d5:36:80:ec:0e:71:95:4c:4c:33:e9:10:
                    aa:80:18:cc:a2:7f:0a:2f:45:31:a7:d2:0a:92:e0:
                    99:46:2d:3b:81:ab:83:31:68:b7:77:e3:04:c4:8b:
                    9e:61:1b:26:cd:a9:38:c5:d0:0f:fe:83:e2:cb:9c:
                    5f:92:17:99:ba:21:6f:0f:e0:08:ff:f8:e7:d7:4c:
                    55:b2:29:b7:7e:f5:38:2d:de:31:6d:b9:ee:90:ae:
                    6b:87:d3:2a:70:a6:53:89:5a:05:ef:3b:19:38:a5:
                    61:bf:e5:9d:a0:aa:43:62:d6:6f:1b:52:5b:b8:38:
                    08:83:9a:23:90:19:73:51:10:db:28:bb:fc:01:0a:
                    a8:cb:4d:ce:d0:35:4c:68:fa:57:2c:b1:ea:91:af:
                    2a:69
                Exponent: 65537 (0x10001)
        X509v3 extensions:
            X509v3 Key Usage: critical
                Certificate Sign, CRL Sign
            X509v3 Basic Constraints: critical
                CA:TRUE
            X509v3 Subject Key Identifier: 
                6B:35:F7:93:8C:92:F7:47:12:FC:8B:AD:28:F5:5C:B7:21:67:31:D1
            X509v3 Authority Key Identifier: 
                keyid:6B:35:F7:93:8C:92:F7:47:12:FC:8B:AD:28:F5:5C:B7:21:67:31:D1

            Authority Information Access: 
                CA Issuers - URI:http://cdp1.pca.dfn.de/global-root-ca/pub/cacert/cacert.crt
                CA Issuers - URI:http://cdp2.pca.dfn.de/global-root-ca/pub/cacert/cacert.crt

            X509v3 Subject Alternative Name: 
                email:ca-winshuttle@dfn.de
            X509v3 CRL Distribution Points: 

                Full Name:
                  URI:http://cdp1.pca.dfn.de/global-root-ca/pub/crl/cacrl.crl

                Full Name:
                  URI:http://cdp2.pca.dfn.de/global-root-ca/pub/crl/cacrl.crl

    Signature Algorithm: sha1WithRSAEncryption
         55:67:99:8c:cc:0a:28:8b:51:74:01:e6:b3:ea:8f:10:c4:13:
         40:dd:44:3d:80:e5:f8:b8:cc:aa:8b:79:80:15:3e:de:be:30:
         cf:54:2f:74:08:34:f4:75:36:0a:32:bd:ec:f2:d0:92:dc:38:
         44:7d:cd:39:a2:84:1b:98:a8:35:78:5d:60:cf:5b:ff:f1:57:
         83:6b:a9:ab:f7:46:d2:1d:ae:e1:c5:38:a1:1e:3d:c1:b6:6e:
         be:ae:af:0d:c5:0c:49:bd:9c:8d:96:89:67:d9:d3:79:ad:a2:
         aa:a6:63:7a:15:78:6a:dc:ea:5d:61:d6:3c:0e:c5:fe:93:44:
         4a:3b:8f:0e:16:56:3a:7e:82:5d:d6:b8:d0:ef:98:20:e6:cf:
         12:fa:55:fa:90:a3:0d:b3:ca:b7:e8:1c:5a:95:ed:28:a0:8d:
         a6:81:05:05:6b:bd:e9:fa:1e:8d:53:8f:b8:c9:58:7a:68:b5:
         e9:cc:f6:34:92:fb:3e:a1:7f:a8:2f:53:a5:aa:f9:37:cb:5d:
         a6:40:18:66:42:01:17:4f:5d:50:30:70:b1:1d:39:48:a1:42:
         c2:b0:dc:3b:77:da:03:76:a4:21:8c:99:f0:54:a9:15:72:8c:
         4b:5e:80:cc:48:11:8f:7b:36:fa:67:4c:d2:f2:53:2a:de:45:
         17:6c:6b:3a
-----BEGIN CERTIFICATE-----
MIIFrzCCBJmgAwIBAgIECflJcTALBgkqhkiG9w0BAQUwWjELMAkGA1UEBhMCREUx
EzARBgNVBAoTCkRGTi1WZXJlaW4xEDAOBgNVBAsTB0RGTi1QS0kxJDAiBgNVBAMT
G0RGTi1WZXJlaW4gUENBIEdsb2JhbCAtIEcwMTAeFw0wNzAyMTkxNjEwMTFaFw0x
OTAyMTgwMDAwMDBaMIIBITEgMB4GA1UEAxMXREZOLVdpTlNodXR0bGUtQ0EgLSBH
MDIxEzARBgNVBAsTCldpTlNodXR0bGUxEzARBgNVBAoTCkRGTi1WZXJlaW4xCzAJ
BgNVBAYTAkRFMYHFMIHCBgkqhkiG9w0BCQEMgbR0aGlzLmVtYWlsLmFkZHJlc3Mu
ZXhjZWVlZHMub25lLmh1bmRyZWQudHdlbnR5LmVpZ2h0LmNoYXJhY3RlcnMubGVu
Z3RoLmFuZC5zaG91bGQucmFpc2UuYW4uZXJyb3JAdGhlLm5vdC5zby5zaG9ydC5k
b21haW4ubmFtZS50aGF0Lndhcy50b28uc2hvcnQudGhhdC53YXMuc3RpbGwuZmV3
LmNoYXJhY3RlcnMuc2hvcnQwggEiMA0GCSqGSIb3DQEBAQUAA4IBDwAwggEKAoIB
AQC5N67Wv45yRd60oNWI+Yp0Mn7mzemPx1GQYXnI2XKwvOhAswmtPd59YSVY/rQ0
cCiTMIbRAjLHiKB0M3Q8lYAnBrcPj2L14eom5P+qfVLE/rBfyJt5vkvfij2R6fGk
NHbrkZLN22qgBAFrzNU2gOwOcZVMTDPpEKqAGMyifwovRTGn0gqS4JlGLTuBq4Mx
aLd34wTEi55hGybNqTjF0A/+g+LLnF+SF5m6IW8P4Aj/+OfXTFWyKbd+9Tgt3jFt
ue6QrmuH0ypwplOJWgXvOxk4pWG/5Z2gqkNi1m8bUlu4OAiDmiOQGXNRENsou/wB
CqjLTc7QNUxo+lcsseqRryppAgMBAAGjggG2MIIBsjAOBgNVHQ8BAf8EBAMCAAYw
DwYDVR0TAQH/BAUwAwEB/zAdBgNVHQ4EFgQUazX3k4yS90cS/IutKPVctyFnMdEw
HwYDVR0jBBgwFoAUazX3k4yS90cS/IutKPVctyFnMdEwgaIGCCsGAQUFBwEBBIGV
MIGSMEcGCCsGAQUFBzAChjtodHRwOi8vY2RwMS5wY2EuZGZuLmRlL2dsb2JhbC1y
b290LWNhL3B1Yi9jYWNlcnQvY2FjZXJ0LmNydDBHBggrBgEFBQcwAoY7aHR0cDov
L2NkcDIucGNhLmRmbi5kZS9nbG9iYWwtcm9vdC1jYS9wdWIvY2FjZXJ0L2NhY2Vy
dC5jcnQwHwYDVR0RBBgwFoEUY2Etd2luc2h1dHRsZUBkZm4uZGUwgYgGA1UdHwSB
gDB+MD2gO6A5hjdodHRwOi8vY2RwMS5wY2EuZGZuLmRlL2dsb2JhbC1yb290LWNh
L3B1Yi9jcmwvY2FjcmwuY3JsMD2gO6A5hjdodHRwOi8vY2RwMi5wY2EuZGZuLmRl
L2dsb2JhbC1yb290LWNhL3B1Yi9jcmwvY2FjcmwuY3JsMAsGCSqGSIb3DQEBBQOC
AQEAVWeZjMwKKItRdAHms+qPEMQTQN1EPYDl+LjMqot5gBU+3r4wz1QvdAg09HU2
CjK97PLQktw4RH3NOaKEG5ioNXhdYM9b//FXg2upq/dG0h2u4cU4oR49wbZuvq6v
DcUMSb2cjZaJZ9nTea2iqqZjehV4atzqXWHWPA7F/pNESjuPDhZWOn6CXda40O+Y
IObPEvpV+pCjDbPKt+gcWpXtKKCNpoEFBWu96foejVOPuMlYemi16cz2NJL7PqF/
qC9Tpar5N8tdpkAYZkIBF09dUDBwsR05SKFCwrDcO3faA3akIYyZ8FSpFXKMS16A
zEgRj3s2+mdM0vJTKt5FF2xrOg==
-----END CERTIFICATE-----
