Certificate:
    Data:
        Version: 3 (0x2)
        Serial Number: 524288 (0x80000)
    Signature Algorithm: sha256WithRSAEncryption
        Issuer: C = US, O = Mother Nature, OU = Everything, CN = Mother Nature
        Validity
            Not Before: Apr  6 20:00:01 2017 GMT
            Not After : Jun 18 20:00:01 2017 GMT
        Subject: C = US, O = Extreme Discord, OU = Chaos, L = Tallahassee, ST = " FL", street = 3210 Holly Mill Run, postalCode = 30062, CN = gov.us
        Subject Public Key Info:
            Public Key Algorithm: rsaEncryption
                Public-Key: (2048 bit)
                Modulus:
                    00:dc:7b:46:fd:b7:3c:a8:26:44:2c:81:f5:30:86:
                    f7:69:e0:3c:d7:74:25:67:a3:5f:36:d5:67:7b:c9:
                    24:7b:84:b1:bc:cc:c3:b8:48:58:59:92:ef:d9:4c:
                    b0:35:c2:b9:3e:87:5f:b6:a1:16:f2:0c:60:a0:b9:
                    62:a4:0c:1a:c6:a0:6c:fc:83:e9:62:c8:05:82:66:
                    61:29:e3:e7:62:20:8f:c6:aa:47:d6:de:4b:89:90:
                    6c:93:08:52:65:6c:e1:63:22:87:18:3c:6d:59:d5:
                    70:00:b6:da:15:7c:e8:1d:0a:6a:80:5f:78:e4:ef:
                    5a:53:8f:dc:8d:3e:30:c3:4c:10:75:9b:29:06:5b:
                    34:3e:80:8a:58:67:e3:4f:5f:15:6b:30:12:5f:97:
                    f1:6d:e9:7c:4e:5e:fc:4e:7c:99:da:5b:8c:e6:25:
                    c8:0d:5f:61:4c:14:22:3e:6d:e8:25:cd:71:02:63:
                    ee:b6:88:77:1a:56:91:f3:8b:d4:e5:65:1e:48:61:
                    a1:67:ff:8e:05:26:f0:8d:e5:d1:53:1b:e2:7a:dd:
                    c4:0f:02:da:9d:75:cf:bc:dd:ed:a4:90:e4:69:21:
                    a8:08:96:f1:ee:71:4f:20:7e:b0:fe:0c:e9:be:d6:
                    f3:71:2a:e6:f2:3a:df:33:02:1e:e6:3c:18:ea:2e:
                    74:cf
                Exponent: 65537 (0x10001)
    Signature Algorithm: sha256WithRSAEncryption
         35:39:49:28:85:ac:07:c0:bb:09:58:1b:7d:f5:3d:45:a9:25:
         df:e7:d1:e5:56:08:dc:53:32:09:86:6e:f0:51:1b:80:05:32:
         dc:83:6f:4f:8d:27:f7:a2:17:b4:54:52:ee:b0:ef:7d:48:68:
         d4:cb:3c:bd:1b:a1:15:05:a4:73:9e:ae:c9:43:e6:02:91:1e:
         e2:db:63:99:90:5d:cf:12:ba:ed:dc:48:de:f9:66:f2:c0:be:
         55:06:80:1b:54:bd:25:ba:92:3c:f7:cb:13:fc:f4:0b:b6:c1:
         73:3d:b2:36:ff:23:41:41:fb:99:37:cb:10:a6:ab:c0:1a:eb:
         1b:84:83:f8:86:5d:df:e2:80:9a:a5:37:b2:b0:a6:a8:9d:66:
         0d:b9:1f:c2:6e:e2:6c:a7:81:6f:b9:e2:7c:fd:5d:c9:94:81:
         6c:5e:0b:ba:9e:33:6b:fb:f2:2d:fd:2c:c7:bd:85:2d:b0:a8:
         c6:11:27:06:d4:b4:b7:d2:da:3b:49:9d:c8:c1:8e:50:b7:55:
         4f:b4:dd:de:e6:b3:06:e6:75:16:af:64:ea:1a:2b:fd:c2:a3:
         b8:90:90:00:b4:6c:64:8d:7a:df:1c:f0:58:00:27:5a:77:8b:
         c4:73:c0:64:bc:4a:fe:23:2a:a6:23:87:b7:d0:31:ee:90:46:
         50:87:af:ef
-----BEGIN CERTIFICATE-----
MIIDaDCCAlKgAwIBAgIDCAAAMAsGCSqGSIb3DQEBCzBUMQswCQYDVQQGEwJVUzEW
MBQGA1UEChMNTW90aGVyIE5hdHVyZTETMBEGA1UECxMKRXZlcnl0aGluZzEWMBQG
A1UEAxMNTW90aGVyIE5hdHVyZTEAMB4XDTE3MDQwNjIwMDAwMVoXDTE3MDYxODIw
MDAwMVowgZwxCzAJBgNVBAYTAlVTMRgwFgYDVQQKEw9FeHRyZW1lIERpc2NvcmQx
DjAMBgNVBAsTBUNoYW9zMRQwEgYDVQQHEwtUYWxsYWhhc3NlZTEMMAoGA1UECBMD
IEZMMRwwGgYDVQQJExMzMjEwIEhvbGx5IE1pbGwgUnVuMQ4wDAYDVQQREwUzMDA2
MjEPMA0GA1UEAxMGZ292LnVzMQAwggEiMA0GCSqGSIb3DQEBAQUAA4IBDwAwggEK
AoIBAQDce0b9tzyoJkQsgfUwhvdp4DzXdCVno1821Wd7ySR7hLG8zMO4SFhZku/Z
TLA1wrk+h1+2oRbyDGCguWKkDBrGoGz8g+liyAWCZmEp4+diII/GqkfW3kuJkGyT
CFJlbOFjIocYPG1Z1XAAttoVfOgdCmqAX3jk71pTj9yNPjDDTBB1mykGWzQ+gIpY
Z+NPXxVrMBJfl/Ft6XxOXvxOfJnaW4zmJcgNX2FMFCI+beglzXECY+62iHcaVpHz
i9TlZR5IYaFn/44FJvCN5dFTG+J63cQPAtqddc+83e2kkORpIagIlvHucU8gfrD+
DOm+1vNxKubyOt8zAh7mPBjqLnTPAgMBAAEwCwYJKoZIhvcNAQELA4IBAQA1OUko
hawHwLsJWBt99T1FqSXf59HlVgjcUzIJhm7wURuABTLcg29PjSf3ohe0VFLusO99
SGjUyzy9G6EVBaRznq7JQ+YCkR7i22OZkF3PErrt3Eje+WbywL5VBoAbVL0lupI8
98sT/PQLtsFzPbI2/yNBQfuZN8sQpqvAGusbhIP4hl3f4oCapTeysKaonWYNuR/C
buJsp4FvueJ8/V3JlIFsXgu6njNr+/It/SzHvYUtsKjGEScG1LS30to7SZ3IwY5Q
t1VPtN3e5rMG5nUWr2TqGiv9wqO4kJAAtGxkjXrfHPBYACdad4vEc8BkvEr+Iyqm
I4e30DHukEZQh6/v
-----END CERTIFICATE-----
