Certificate:
    Data:
        Version: 3 (0x2)
        Serial Number: 14615016 (0xdf01e8)
    Signature Algorithm: sha256WithRSAEncryption
        Issuer: C = US, O = Mother Nature, OU = Everything, CN = Mother Nature
        Validity
            Not Before: Apr 25 18:31:04 2017 GMT
            Not After : Jul  7 18:31:04 2017 GMT
        Subject: C = US, O = Extreme Discord, OU = Chaos, L = Locality, ST = Florida, street = 3210 Holly Mill Run, postalCode = 30062, CN = Fake common name
        Subject Public Key Info:
            Public Key Algorithm: rsaEncryption
                Public-Key: (2048 bit)
                Modulus:
                    00:a1:a3:0f:ba:1f:36:9d:85:21:ad:52:ca:87:1c:
                    fd:50:64:aa:17:9c:4d:0f:b4:73:bf:d3:ba:32:31:
                    3a:65:93:b8:01:c0:3b:58:4a:78:1d:36:6e:70:f5:
                    ac:51:c3:4b:64:18:f4:c9:28:64:f2:bc:52:7e:02:
                    bc:6d:67:49:90:17:a8:6f:57:c8:90:25:b2:86:5c:
                    8c:0c:0a:74:29:68:3f:d6:75:6b:e0:35:81:af:10:
                    b4:74:93:30:c1:fa:5a:87:5e:46:bb:ad:01:78:6e:
                    e3:67:85:56:62:f3:6b:5b:5e:f8:c5:54:e8:0b:8a:
                    b9:a6:ff:0c:bb:df:ca:42:09:6f:d9:07:0a:72:a7:
                    c1:97:ef:8d:07:aa:de:f3:8e:42:45:f5:ff:24:b6:
                    80:f3:23:ba:ea:f2:2d:79:bb:31:46:c3:b0:68:f0:
                    ca:87:9d:75:bd:52:f0:70:7c:a7:bb:c3:3a:c6:b1:
                    28:27:d8:a8:3a:84:93:0a:a5:bd:1e:01:17:22:a9:
                    b8:17:38:8f:1d:4b:5b:5d:2e:67:7e:7a:69:ca:f6:
                    15:50:2d:38:bd:2c:7b:0c:bd:ff:7c:91:cb:54:29:
                    be:e6:95:b1:4e:01:7d:1e:e5:19:d5:50:dd:b5:a1:
                    c6:2b:4e:97:ff:76:4e:ac:13:74:4f:85:0e:96:c2:
                    11:cb
                Exponent: 65537 (0x10001)
        X509v3 extensions:
            X509v3 Basic Constraints: critical
                CA:FALSE
            X509v3 Authority Key Identifier: 
                keyid:01:02:03

            Authority Information Access: 
                OCSP - URI:http://theca.net/ocsp
                CA Issuers - URI:theca.net/totallythecert.crt

            X509v3 Subject Alternative Name: 
                DNS:Not a dns, IP Address:128.168.45.1
            X509v3 CRL Distribution Points: 

                Full Name:
                  URI:ldap://theca.net/crlpoint

            X509v3 Subject Key Identifier: 
                04:03:02:01
            X509v3 Key Usage: 
                Data Encipherment, Key Agreement
            X509v3 Extended Key Usage: 
                TLS Web Server Authentication, 1.2.840.113635.100.4.3, Signing KDC Response, Any Extended Key Usage
            X509v3 Certificate Policies: 
                Policy: 2.16.840.1.114414.1.7.23.1
                  CPS: http://certificates.starfieldtech.com/repository/

    Signature Algorithm: sha256WithRSAEncryption
         92:be:b5:c8:11:9b:a1:85:51:22:23:2e:b9:11:ef:b1:38:c7:
         06:55:8c:fc:5e:5d:2e:01:89:b9:72:6a:ce:4f:1a:71:6d:ab:
         98:1c:d2:e8:90:8e:6f:1c:6b:2a:71:de:b9:15:4f:41:b8:05:
         91:d7:ad:c6:aa:6a:50:b5:7d:0c:d8:5b:84:cb:78:ba:5d:0c:
         e0:1c:c4:a1:f7:a6:94:42:01:83:ce:2f:7a:82:ea:a4:af:91:
         84:2c:60:1c:2a:ca:4f:67:3f:73:35:5a:de:fb:0a:c4:db:7a:
         83:4d:de:25:3d:b5:e3:2b:68:c0:28:2d:20:b8:60:b7:dd:f2:
         61:00:ff:d8:25:dd:7b:a0:ca:bf:24:ef:4d:5f:7c:51:9c:16:
         00:ad:a3:47:1b:c4:83:b3:c0:55:78:37:22:95:83:eb:28:e0:
         f6:c8:23:24:78:47:15:9f:c0:24:de:0b:c6:8d:d2:0b:b0:b2:
         11:90:05:ad:3c:09:26:e8:ee:55:b2:63:64:59:27:5e:11:35:
         b0:12:74:16:55:d3:35:c8:99:ad:ad:06:47:71:13:d6:94:66:
         61:06:c4:66:c6:e8:0a:44:bb:aa:9b:2a:71:65:07:91:59:fa:
         8c:fe:2d:30:9b:46:6f:31:64:90:a7:b4:54:63:65:da:e2:c2:
         d7:e5:46:d8
-----BEGIN CERTIFICATE-----
MIIE5TCCA8+gAwIBAgIEAN8B6DALBgkqhkiG9w0BAQswVDELMAkGA1UEBhMCVVMx
FjAUBgNVBAoTDU1vdGhlciBOYXR1cmUxEzARBgNVBAsTCkV2ZXJ5dGhpbmcxFjAU
BgNVBAMTDU1vdGhlciBOYXR1cmUxADAeFw0xNzA0MjUxODMxMDRaFw0xNzA3MDcx
ODMxMDRaMIGnMQswCQYDVQQGEwJVUzEYMBYGA1UEChMPRXh0cmVtZSBEaXNjb3Jk
MQ4wDAYDVQQLEwVDaGFvczERMA8GA1UEBxMITG9jYWxpdHkxEDAOBgNVBAgTB0Zs
b3JpZGExHDAaBgNVBAkTEzMyMTAgSG9sbHkgTWlsbCBSdW4xDjAMBgNVBBETBTMw
MDYyMRkwFwYDVQQDExBGYWtlIGNvbW1vbiBuYW1lMQAwggEiMA0GCSqGSIb3DQEB
AQUAA4IBDwAwggEKAoIBAQChow+6HzadhSGtUsqHHP1QZKoXnE0PtHO/07oyMTpl
k7gBwDtYSngdNm5w9axRw0tkGPTJKGTyvFJ+ArxtZ0mQF6hvV8iQJbKGXIwMCnQp
aD/WdWvgNYGvELR0kzDB+lqHXka7rQF4buNnhVZi82tbXvjFVOgLirmm/wy738pC
CW/ZBwpyp8GX740Hqt7zjkJF9f8ktoDzI7rq8i15uzFGw7Bo8MqHnXW9UvBwfKe7
wzrGsSgn2Kg6hJMKpb0eARciqbgXOI8dS1tdLmd+emnK9hVQLTi9LHsMvf98kctU
Kb7mlbFOAX0e5RnVUN21ocYrTpf/dk6sE3RPhQ6WwhHLAgMBAAGjggFtMIIBaTAM
BgNVHRMBAf8EAjAAMA4GA1UdIwQHMAWAAwECAzBbBggrBgEFBQcBAQRPME0wIQYI
KwYBBQUHMAGGFWh0dHA6Ly90aGVjYS5uZXQvb2NzcDAoBggrBgEFBQcwAoYcdGhl
Y2EubmV0L3RvdGFsbHl0aGVjZXJ0LmNydDAaBgNVHREEEzARgglOb3QgYSBkbnOH
BICoLQEwKgYDVR0fBCMwITAfoB2gG4YZbGRhcDovL3RoZWNhLm5ldC9jcmxwb2lu
dDANBgNVHQ4EBgQEBAMCATALBgNVHQ8EBAMCARgwLQYDVR0lBCYwJAYIKwYBBQUH
AwEGCSqGSIb3Y2QEAwYHKwYBBQIDBQYEVR0lADBZBgNVHSAEUjBQME4GC2CGSAGG
/W4BBxcBMD8wPQYIKwYBBQUHAgEWMWh0dHA6Ly9jZXJ0aWZpY2F0ZXMuc3RhcmZp
ZWxkdGVjaC5jb20vcmVwb3NpdG9yeS8wCwYJKoZIhvcNAQELA4IBAQCSvrXIEZuh
hVEiIy65Ee+xOMcGVYz8Xl0uAYm5cmrOTxpxbauYHNLokI5vHGsqcd65FU9BuAWR
163GqmpQtX0M2FuEy3i6XQzgHMSh96aUQgGDzi96guqkr5GELGAcKspPZz9zNVre
+wrE23qDTd4lPbXjK2jAKC0guGC33fJhAP/YJd17oMq/JO9NX3xRnBYAraNHG8SD
s8BVeDcilYPrKOD2yCMkeEcVn8Ak3gvGjdILsLIRkAWtPAkm6O5VsmNkWSdeETWw
EnQWVdM1yJmtrQZHcRPWlGZhBsRmxugKRLuqmypxZQeRWfqM/i0wm0ZvMWSQp7RU
Y2Xa4sLX5UbY
-----END CERTIFICATE-----
