Certificate:
    Data:
        Version: 1 (0x0)
        Serial Number: 1201187007 (0x4798a8bf)
    Signature Algorithm: dsaWithSHA1
        Issuer: CN = upc.pirelli.com + CN = upc.pirelli.com
        Validity
            Not Before: Jan 24 15:03:27 2008 GMT
            Not After : Jan 21 15:03:27 2018 GMT
        Subject: CN = "upc.pirelli.co "
        Subject Public Key Info:
            Public Key Algorithm: dsaEncryption
                pub: 
                    00:8d:7e:be:64:51:6b:42:5a:e6:c1:b4:48:62:27:
                    44:e8:6b:05:e3:0a:22:79:ba:9a:dc:8f:de:33:e6:
                    33:4b:a1:b7:02:18:2c:2e:1e:34:2d:57:aa:ef:10:
                    46:76:88:7c:05:e9:58:a7:ef:a5:51:78:45:58:6e:
                    04:e3:45:6d:e8:32:76:be:f1:1d:b7:9b:75:be:50:
                    df:b4:ac:10:91:26:d9:e3:01:21:8a:c2:da:55:fc:
                    9c:0c:95:1d:76:de:5b:4d:95:91:fc:87:74:82:ae:
                    df:92:65:9f:fb:5d:b7:40:d1:6d:e7:48:ed:fe:d6:
                    0b:75:67:57:36:0b:4a:97:fd
                P:   
                    00:fd:7f:53:81:1d:75:12:29:52:df:4a:9c:2e:ec:
                    e4:e7:f6:11:b7:52:3c:ef:44:00:c3:1e:3f:80:b6:
                    51:26:69:45:5d:40:22:51:fb:59:3d:8d:58:fa:bf:
                    c5:f5:ba:30:f6:cb:9b:55:6c:d7:81:3b:80:1d:34:
                    6f:f2:66:60:b7:6b:99:50:a5:a4:9f:9f:e8:04:7b:
                    10:22:c2:4f:bb:a9:d7:fe:b7:c6:1b:f8:3b:57:e7:
                    c6:a8:a6:15:0f:04:fb:83:f6:d3:c5:1e:c3:02:35:
                    54:13:5a:16:91:32:f6:75:f3:ae:2b:61:d7:2a:ef:
                    f2:22:03:19:9d:d1:48:01:c7
                Q:   
                    00:97:60:50:8f:15:23:0b:cc:b2:92:b9:82:a2:eb:
                    84:0b:f0:58:1c:f5
                G:   
                    00:f7:e1:a0:85:d6:9b:3d:de:cb:bc:ab:5c:36:b8:
                    57:b9:79:94:af:bb:fa:3a:ea:82:f9:57:4c:0b:3d:
                    07:82:67:51:59:57:8e:ba:d4:59:4f:e6:71:07:10:
                    81:80:b4:49:16:71:23:e8:4c:28:16:13:b7:cf:09:
                    32:8c:c8:a6:e1:3c:16:7a:8b:54:7c:8d:28:e0:a3:
                    ae:1e:2b:b3:a6:75:91:6e:a3:7f:0b:fa:21:35:62:
                    f1:fb:62:7a:01:24:3b:cc:a4:f1:be:a8:51:90:89:
                    a8:83:df:e1:5a:e5:9f:06:92:8b:66:5e:80:7b:55:
                    25:64:01:4c:3b:fe:cf:49:2a
    Signature Algorithm: dsaWithSHA1
         r:   
             78:d1:8b:35:2a:92:b1:46:48:72:7b:20:a9:ae:c3:
             40:e9:85:f8:ae
         s:   
             3d:8e:83:51:94:c1:9b:1e:1d:7a:c0:1b:d6:4d:e9:
             f9:a0:9c:46:50
-----BEGIN CERTIFICATE-----
MIICgTCCAj8CBEeYqL8wCwYHKoZIzjgEAwUAMDIxMDAWBgNVBAMTD3VwYy5waXJl
bGxpLmNvbTAWBgNVBAMTD3VwYy5waXJlbGxpLmNvbTAeFw0wODAxMjQxNTAzMjda
Fw0xODAxMjExNTAzMjdaMBoxGDAWBgNVBAMTD3VwYy5waXJlbGxpLmNvIDCCAbgw
ggEsBgcqhkjOOAQBMIIBHwKBgQD9f1OBHXUSKVLfSpwu7OTn9hG3UjzvRADDHj+A
tlEmaUVdQCJR+1k9jVj6v8X1ujD2y5tVbNeBO4AdNG/yZmC3a5lQpaSfn+gEexAi
wk+7qdf+t8Yb+DtX58aophUPBPuD9tPFHsMCNVQTWhaRMvZ1864rYdcq7/IiAxmd
0UgBxwIVAJdgUI8VIwvMspK5gqLrhAvwWBz1AoGBAPfhoIXWmz3ey7yrXDa4V7l5
lK+7+jrqgvlXTAs9B4JnUVlXjrrUWU/mcQcQgYC0SRZxI+hMKBYTt88JMozIpuE8
FnqLVHyNKOCjrh4rs6Z1kW6jfwv6ITVi8ftiegEkO8yk8b6oUZCJqIPf4VrlnwaS
i2ZegHtVJWQBTDv+z0kqA4GFAAKBgQCNfr5kUWtCWubBtEhiJ0ToawXjCiJ5uprc
j94z5jNLobcCGCwuHjQtV6rvEEZ2iHwF6Vin76VReEVYbgTjRW3oMna+8R23m3W+
UN+0rBCRJtnjASGKwtpV/JwMlR123ltNlZH8h3SCrt+SZZ/7XbdA0W3nSO3+1gt1
Z1c2C0qX/TALBgcqhkjOOAQDBQADLwAwLAIUeNGLNSqSsUZIcnsgqa7DQOmF+K4C
FD2Og1GUwZseHXrAG9ZN6fmgnEZQ
-----END CERTIFICATE-----
