Certificate:
    Data:
        Version: 3 (0x2)
        Serial Number:
            04:c7:ba:cd:4c:68:c0:8a:66:50:86:37:4a:c6:f3:6e
    Signature Algorithm: sha256WithRSAEncryption
        Issuer: C=US, O=DigiCert Inc, CN=DigiCert SHA2 Secure Server CA
        Validity
            Not Before: Dec 13 00:00:00 2017 GMT
            Not After : Dec 14 12:00:00 2018 GMT
        Subject: C=GB, L=London, O=House Of Commons, OU=IT, CN=MAPP259.parliament.uk
        Subject Public Key Info:
            Public Key Algorithm: rsaEncryption
                Public-Key: (2048 bit)
                Modulus:
                    00:b1:a2:14:00:99:c6:ac:85:f5:31:1c:79:da:a7:
                    55:2a:05:0e:3b:f6:ae:bd:e0:e9:97:6a:24:c3:7d:
                    7d:de:cd:7c:4e:a1:96:80:8d:a6:6a:3a:61:da:6e:
                    05:a5:6b:63:16:c4:37:28:9c:e2:e8:24:12:f8:0c:
                    d7:1b:a5:25:dd:df:e2:5e:05:ca:74:c0:e8:5e:54:
                    d8:55:8b:6c:06:48:38:56:11:bf:cb:c7:16:60:64:
                    98:1d:79:94:b9:54:67:25:ef:0d:46:23:65:ba:27:
                    88:48:8b:13:b1:3f:10:04:ab:1c:67:aa:8c:86:e2:
                    5a:24:fc:9d:9e:23:d1:2f:c0:65:9b:39:8a:fc:01:
                    38:57:e4:41:46:54:d1:29:ca:18:ef:7f:17:2e:95:
                    cd:ef:71:00:98:40:46:c2:f2:3a:8c:7d:8c:a5:23:
                    23:9f:f1:15:d1:c5:a3:0b:ef:0d:bb:83:cb:76:9b:
                    65:0c:71:4f:f8:6a:05:b6:53:98:a6:a9:77:c2:df:
                    bc:79:88:18:f3:69:cd:45:4a:1e:af:af:13:1f:5b:
                    9c:55:0e:e0:33:99:d4:19:c3:52:85:39:b8:b7:9a:
                    02:e5:87:64:bf:90:76:90:2e:b6:8c:d5:18:9e:bd:
                    f5:98:09:0f:e0:03:ba:d4:f1:07:84:4a:43:69:c6:
                    5c:8f
                Exponent: 65537 (0x10001)
        X509v3 extensions:
            X509v3 Authority Key Identifier: 
                keyid:0F:80:61:1C:82:31:61:D5:2F:28:E7:8D:46:38:B4:2C:E1:C6:D9:E2

            X509v3 Subject Key Identifier: 
                A5:17:0C:67:4A:44:3B:A2:9C:62:4B:D0:11:90:E8:0D:7B:44:BE:9E
            X509v3 Subject Alternative Name: 
                DNS:mapp259.parliament.uk
            X509v3 Key Usage: critical
                Digital Signature, Key Encipherment
            X509v3 Extended Key Usage: 
                TLS Web Server Authentication, TLS Web Client Authentication
            X509v3 CRL Distribution Points: 

                Full Name:
                  URI:http://crl3.digicert.com/ssca-sha2-g6.crl

                Full Name:
                  URI:http://crl4.digicert.com/ssca-sha2-g6.crl

            X509v3 Certificate Policies: 
                Policy: 2.16.840.1.114412.1.1
                  CPS: https://www.digicert.com/CPS
                Policy: 2.23.140.1.2.2

            Authority Information Access: 
                OCSP - URI:http://ocsp.digicert.com
                CA Issuers - URI:http://cacerts.digicert.com/DigiCertSHA2SecureServerCA.crt

            X509v3 Basic Constraints: 
                CA:FALSE
            1.3.6.1.4.1.11129.2.4.3: critical
                ..
    Signature Algorithm: sha256WithRSAEncryption
         85:67:b1:b0:5c:3f:5a:e7:19:e2:ed:1d:88:6d:33:4d:b1:f5:
         74:08:4f:8a:bf:63:79:7a:4b:d2:29:47:2c:b1:66:c1:a2:1c:
         4d:e0:5f:42:81:df:2a:86:9e:0a:68:8e:b6:2c:ca:7b:61:2e:
         65:71:b2:57:f6:d9:76:85:08:fc:b4:b4:1b:e2:92:98:62:e4:
         ea:92:24:0e:01:8b:41:0b:de:1d:94:29:9a:25:ca:18:28:66:
         28:cb:c6:46:4c:26:83:99:2e:96:d3:2a:15:4e:54:40:c8:36:
         02:f1:4d:b0:6e:1b:b8:15:a9:92:12:3e:a5:5d:7d:b1:79:2e:
         57:ca:d9:c9:75:2c:ef:24:05:ca:f1:a9:c5:cd:df:4b:44:bb:
         7d:c6:35:95:a7:f9:cb:2b:59:85:7f:e9:7a:04:27:d2:82:03:
         9a:38:87:4f:bb:fe:b4:5d:7d:ab:9c:5a:7e:b9:0b:43:2c:e2:
         8e:d7:6a:6e:84:c3:e7:86:8e:14:46:c4:95:24:a7:be:ad:b2:
         47:e4:e2:51:aa:89:61:99:47:31:f2:74:12:b5:f3:93:ac:41:
         d6:7c:2e:0a:ed:1f:b2:91:e0:d0:64:58:d7:4d:bb:da:e0:a6:
         40:74:36:7d:67:27:bf:45:b8:53:69:8b:0f:6c:c1:58:01:4b:
         02:b3:6d:77
-----BEGIN CERTIFICATE-----
MIIFLTCCBBWgAwIBAgIQBMe6zUxowIpmUIY3SsbzbjANBgkqhkiG9w0BAQsFADBN
MQswCQYDVQQGEwJVUzEVMBMGA1UEChMMRGlnaUNlcnQgSW5jMScwJQYDVQQDEx5E
aWdpQ2VydCBTSEEyIFNlY3VyZSBTZXJ2ZXIgQ0EwHhcNMTcxMjEzMDAwMDAwWhcN
MTgxMjE0MTIwMDAwWjBmMQswCQYDVQQGEwJHQjEPMA0GA1UEBxMGTG9uZG9uMRkw
FwYDVQQKExBIb3VzZSBPZiBDb21tb25zMQswCQYDVQQLEwJJVDEeMBwGA1UEAxMV
TUFQUDI1OS5wYXJsaWFtZW50LnVrMIIBIjANBgkqhkiG9w0BAQEFAAOCAQ8AMIIB
CgKCAQEAsaIUAJnGrIX1MRx52qdVKgUOO/auveDpl2okw3193s18TqGWgI2majph
2m4FpWtjFsQ3KJzi6CQS+AzXG6Ul3d/iXgXKdMDoXlTYVYtsBkg4VhG/y8cWYGSY
HXmUuVRnJe8NRiNluieISIsTsT8QBKscZ6qMhuJaJPydniPRL8BlmzmK/AE4V+RB
RlTRKcoY738XLpXN73EAmEBGwvI6jH2MpSMjn/EV0cWjC+8Nu4PLdptlDHFP+GoF
tlOYpql3wt+8eYgY82nNRUoer68TH1ucVQ7gM5nUGcNShTm4t5oC5Ydkv5B2kC62
jNUYnr31mAkP4AO61PEHhEpDacZcjwIDAQABo4IB7jCCAeowHwYDVR0jBBgwFoAU
D4BhHIIxYdUvKOeNRji0LOHG2eIwHQYDVR0OBBYEFKUXDGdKRDuinGJL0BGQ6A17
RL6eMCAGA1UdEQQZMBeCFW1hcHAyNTkucGFybGlhbWVudC51azAOBgNVHQ8BAf8E
BAMCBaAwHQYDVR0lBBYwFAYIKwYBBQUHAwEGCCsGAQUFBwMCMGsGA1UdHwRkMGIw
L6AtoCuGKWh0dHA6Ly9jcmwzLmRpZ2ljZXJ0LmNvbS9zc2NhLXNoYTItZzYuY3Js
MC+gLaArhilodHRwOi8vY3JsNC5kaWdpY2VydC5jb20vc3NjYS1zaGEyLWc2LmNy
bDBMBgNVHSAERTBDMDcGCWCGSAGG/WwBATAqMCgGCCsGAQUFBwIBFhxodHRwczov
L3d3dy5kaWdpY2VydC5jb20vQ1BTMAgGBmeBDAECAjB8BggrBgEFBQcBAQRwMG4w
JAYIKwYBBQUHMAGGGGh0dHA6Ly9vY3NwLmRpZ2ljZXJ0LmNvbTBGBggrBgEFBQcw
AoY6aHR0cDovL2NhY2VydHMuZGlnaWNlcnQuY29tL0RpZ2lDZXJ0U0hBMlNlY3Vy
ZVNlcnZlckNBLmNydDAJBgNVHRMEAjAAMBMGCisGAQQB1nkCBAMBAf8EAgUAMA0G
CSqGSIb3DQEBCwUAA4IBAQCFZ7GwXD9a5xni7R2IbTNNsfV0CE+Kv2N5ekvSKUcs
sWbBohxN4F9Cgd8qhp4KaI62LMp7YS5lcbJX9tl2hQj8tLQb4pKYYuTqkiQOAYtB
C94dlCmaJcoYKGYoy8ZGTCaDmS6W0yoVTlRAyDYC8U2wbhu4FamSEj6lXX2xeS5X
ytnJdSzvJAXK8anFzd9LRLt9xjWVp/nLK1mFf+l6BCfSggOaOIdPu/60XX2rnFp+
uQtDLOKO12puhMPnho4URsSVJKe+rbJH5OJRqolhmUcx8nQStfOTrEHWfC4K7R+y
keDQZFjXTbva4KZAdDZ9Zye/RbhTaYsPbMFYAUsCs213
-----END CERTIFICATE-----
