Certificate:
    Data:
        Version: 3 (0x2)
        Serial Number:
            3b:7f:b0:91:f9:01:99:a0:f6:e0:d7:4a:20:db:ca:f6
    Signature Algorithm: sha256WithRSAEncryption
        Issuer: O=Acme Co/emailAddress=abcdabcdabcdabcdabcdabcdabcdabcdabcdabcdabcdabcdabcdabcdabcdabcdabcdabcdabcdabcdabcdabcdabcdabcdabcdabcdabcdabcdabcdabcdabcdabcdabcdabcdabcdabcdabcdabcdabcdabcdabcdabcdabcdabcdabcdabcdabcdabcdabcdabcdabcdabcdabcdabcdabcdabcdabcdabcdabcdabcdabcdabcdabcdabcdabcdabcdabcdabcdabcdabcdabcdabcdabcdabcdabcdabcdabcdabcdabcdabcdabcdabcdabcdabcdabcdabcdabcdabcdabcdabcdabcdabcdabcdabcdabcdabcdabcdabcdabcdabcd@umich.edu
        Validity
            Not Before: May 21 00:30:26 2018 GMT
            Not After : May 21 00:30:26 2019 GMT
        Subject: O=Acme Co/emailAddress=abcdabcdabcdabcdabcdabcdabcdabcdabcdabcdabcdabcdabcdabcdabcdabcdabcdabcdabcdabcdabcdabcdabcdabcdabcdabcdabcdabcdabcdabcdabcdabcdabcdabcdabcdabcdabcdabcdabcdabcdabcdabcdabcdabcdabcdabcdabcdabcdabcdabcdabcdabcdabcdabcdabcdabcdabcdabcdabcdabcdabcdabcdabcdabcdabcdabcdabcdabcdabcdabcdabcdabcdabcdabcdabcdabcdabcdabcdabcdabcdabcdabcdabcdabcdabcdabcdabcdabcdabcdabcdabcdabcdabcdabcdabcdabcdabcdabcdabcdabcd@umich.edu
        Subject Public Key Info:
            Public Key Algorithm: rsaEncryption
                Public-Key: (2048 bit)
                Modulus:
                    00:cd:91:b7:e4:aa:9d:3e:5f:b2:5f:b5:89:ac:11:
                    5f:4f:bd:0b:64:77:ae:88:fe:7e:26:23:af:c4:e0:
                    68:97:54:ee:9f:cd:6e:57:ed:dc:6c:83:45:b3:73:
                    b5:b9:db:7b:49:59:a0:49:c6:cc:f4:61:a0:de:02:
                    50:79:8a:e7:5c:fd:4c:20:92:5b:fa:1f:d2:a6:65:
                    b4:a7:a3:26:9f:22:d0:f5:ba:21:9f:d5:d1:52:9b:
                    34:f5:4b:97:5e:ef:93:db:40:24:c7:4e:fa:53:d7:
                    19:c6:b2:ae:d3:af:a1:bf:0a:39:86:d3:44:41:c5:
                    bb:ab:65:8f:dc:1d:a7:3d:d5:fd:23:5b:7f:ad:83:
                    ca:ca:63:be:2f:76:bb:41:70:fb:20:c3:4a:ef:75:
                    54:8c:ca:56:c7:88:a7:28:10:19:09:7c:5b:48:79:
                    50:a6:f0:5a:d7:d0:6d:10:21:9b:88:58:11:09:9c:
                    6d:b3:60:d3:f8:3b:88:ac:fe:a3:22:86:ba:0a:8c:
                    68:a1:59:23:d9:33:bd:c7:f8:cf:50:9c:33:4b:4e:
                    a7:46:7e:1b:3a:e7:7a:64:e9:84:84:79:1b:3e:7e:
                    45:e6:43:5e:76:ca:9e:75:dd:60:95:d9:08:99:3c:
                    42:85:89:d8:f9:13:45:bd:c6:2d:a2:ea:52:14:5f:
                    36:c1
                Exponent: 65537 (0x10001)
        X509v3 extensions:
            X509v3 Key Usage: critical
                Digital Signature, Key Encipherment
            X509v3 Extended Key Usage:
                TLS Web Server Authentication
            X509v3 Basic Constraints: critical
                CA:FALSE
            X509v3 Subject Alternative Name:
                DNS:example.com
    Signature Algorithm: sha256WithRSAEncryption
         35:22:c6:dd:96:db:61:f3:9e:21:6f:f5:5f:aa:b0:ef:f8:09:
         32:33:14:dc:46:04:32:2a:f4:4b:79:75:34:57:9c:89:dc:91:
         b1:93:e1:ca:61:55:58:0e:54:40:f6:5c:6f:87:a2:32:8c:0e:
         43:8a:e2:6e:da:ba:27:9d:3f:d5:6d:b4:42:9a:8c:f8:8d:9f:
         28:e2:c7:68:15:10:23:9f:0c:bf:b2:fc:6c:6b:86:a8:31:d4:
         09:9f:a3:f4:3c:c2:05:67:f7:d7:14:f6:0e:dc:f1:d1:64:6b:
         ec:47:71:41:d7:4b:f9:30:05:f2:8d:0c:65:8a:a5:34:66:8e:
         fc:23:30:ea:fb:07:ab:71:60:3d:b2:e3:46:4e:2f:a3:a3:b9:
         91:08:15:68:68:ba:57:18:26:ce:32:2e:d0:67:a6:dc:a4:31:
         c9:8d:59:f0:6c:2d:48:a4:63:e1:81:5e:1f:78:35:54:17:2f:
         ac:0f:00:a9:52:0a:f9:78:e2:7d:94:be:6b:9e:26:e1:50:c8:
         78:9e:e7:8e:72:9c:2d:49:eb:7b:4f:d8:7a:c1:6b:ca:c3:a6:
         de:ea:c9:f9:24:ad:77:93:11:f3:a8:75:32:e8:99:fd:07:a5:
         1b:af:8d:5f:e5:b4:4e:22:2d:82:c4:51:ac:2d:aa:5d:f2:b6:
         c2:ad:cd:20

-----BEGIN CERTIFICATE-----
MIIGYTCCBUmgAwIBAgIQO3+wkfkBmaD24NdKINvK9jANBgkqhkiG9w0BAQsFADCC
AcMxEDAOBgNVBAoTB0FjbWUgQ28xggGtMIIBqQYJKoZIhvcNAQkBDIIBmmFiY2Rh
YmNkYWJjZGFiY2RhYmNkYWJjZGFiY2RhYmNkYWJjZGFiY2RhYmNkYWJjZGFiY2Rh
YmNkYWJjZGFiY2RhYmNkYWJjZGFiY2RhYmNkYWJjZGFiY2RhYmNkYWJjZGFiY2Rh
YmNkYWJjZGFiY2RhYmNkYWJjZGFiY2RhYmNkYWJjZGFiY2RhYmNkYWJjZGFiY2Rh
YmNkYWJjZGFiY2RhYmNkYWJjZGFiY2RhYmNkYWJjZGFiY2RhYmNkYWJjZGFiY2Rh
YmNkYWJjZGFiY2RhYmNkYWJjZGFiY2RhYmNkYWJjZGFiY2RhYmNkYWJjZGFiY2Rh
YmNkYWJjZGFiY2RhYmNkYWJjZGFiY2RhYmNkYWJjZGFiY2RhYmNkYWJjZGFiY2Rh
YmNkYWJjZGFiY2RhYmNkYWJjZGFiY2RhYmNkYWJjZGFiY2RhYmNkYWJjZGFiY2Rh
YmNkYWJjZGFiY2RhYmNkYWJjZGFiY2RhYmNkYWJjZGFiY2RhYmNkYWJjZGFiY2Rh
YmNkYWJjZGFiY2RAdW1pY2guZWR1MB4XDTE4MDUyMTAwMzAyNloXDTE5MDUyMTAw
MzAyNlowggHDMRAwDgYDVQQKEwdBY21lIENvMYIBrTCCAakGCSqGSIb3DQEJAQyC
AZphYmNkYWJjZGFiY2RhYmNkYWJjZGFiY2RhYmNkYWJjZGFiY2RhYmNkYWJjZGFi
Y2RhYmNkYWJjZGFiY2RhYmNkYWJjZGFiY2RhYmNkYWJjZGFiY2RhYmNkYWJjZGFi
Y2RhYmNkYWJjZGFiY2RhYmNkYWJjZGFiY2RhYmNkYWJjZGFiY2RhYmNkYWJjZGFi
Y2RhYmNkYWJjZGFiY2RhYmNkYWJjZGFiY2RhYmNkYWJjZGFiY2RhYmNkYWJjZGFi
Y2RhYmNkYWJjZGFiY2RhYmNkYWJjZGFiY2RhYmNkYWJjZGFiY2RhYmNkYWJjZGFi
Y2RhYmNkYWJjZGFiY2RhYmNkYWJjZGFiY2RhYmNkYWJjZGFiY2RhYmNkYWJjZGFi
Y2RhYmNkYWJjZGFiY2RhYmNkYWJjZGFiY2RhYmNkYWJjZGFiY2RhYmNkYWJjZGFi
Y2RhYmNkYWJjZGFiY2RhYmNkYWJjZGFiY2RhYmNkYWJjZGFiY2RhYmNkYWJjZGFi
Y2RhYmNkYWJjZGFiY2RhYmNkQHVtaWNoLmVkdTCCASIwDQYJKoZIhvcNAQEBBQAD
ggEPADCCAQoCggEBAM2Rt+SqnT5fsl+1iawRX0+9C2R3roj+fiYjr8TgaJdU7p/N
blft3GyDRbNztbnbe0lZoEnGzPRhoN4CUHmK51z9TCCSW/of0qZltKejJp8i0PW6
IZ/V0VKbNPVLl17vk9tAJMdO+lPXGcayrtOvob8KOYbTREHFu6tlj9wdpz3V/SNb
f62Dyspjvi92u0Fw+yDDSu91VIzKVseIpygQGQl8W0h5UKbwWtfQbRAhm4hYEQmc
bbNg0/g7iKz+oyKGugqMaKFZI9kzvcf4z1CcM0tOp0Z+GzrnemTphIR5Gz5+ReZD
XnbKnnXdYJXZCJk8QoWJ2PkTRb3GLaLqUhRfNsECAwEAAaNNMEswDgYDVR0PAQH/
BAQDAgWgMBMGA1UdJQQMMAoGCCsGAQUFBwMBMAwGA1UdEwEB/wQCMAAwFgYDVR0R
BA8wDYILZXhhbXBsZS5jb20wDQYJKoZIhvcNAQELBQADggEBADUixt2W22HzniFv
9V+qsO/4CTIzFNxGBDIq9Et5dTRXnInckbGT4cphVVgOVED2XG+HojKMDkOK4m7a
uiedP9VttEKajPiNnyjix2gVECOfDL+y/Gxrhqgx1Amfo/Q8wgVn99cU9g7c8dFk
a+xHcUHXS/kwBfKNDGWKpTRmjvwjMOr7B6txYD2y40ZOL6OjuZEIFWhoulcYJs4y
LtBnptykMcmNWfBsLUikY+GBXh94NVQXL6wPAKlSCvl44n2UvmueJuFQyHie545y
nC1J63tP2HrBa8rDpt7qyfkkrXeTEfOodTLomf0HpRuvjV/ltE4iLYLEUawtql3y
tsKtzSA=
-----END CERTIFICATE-----
