Certificate:
    Data:
        Version: 3 (0x2)
        Serial Number:
            31:37:37:39:31:38:35:30:36:30:34:31:32:39:38:34
    Signature Algorithm: sha256WithRSAEncryption
        Issuer: O = \E5\91\B3\E5\8F\AF\E6\8B\93(\E4\B8\8A\E6\B5\B7)\E9\A4\90\E9\A5\AE\E7\AE\A1\E7\90\86\E6\9C\89\E9\99\90\E5\85\AC\E5\8F\B8
        Validity
            Not Before: Jan 16 18:21:47 2019 GMT
            Not After : Jan 16 18:21:47 2020 GMT
        Subject: O = \E5\91\B3\E5\8F\AF\E6\8B\93(\E4\B8\8A\E6\B5\B7)\E9\A4\90\E9\A5\AE\E7\AE\A1\E7\90\86\E6\9C\89\E9\99\90\E5\85\AC\E5\8F\B8
        Subject Public Key Info:
            Public Key Algorithm: rsaEncryption
                Public-Key: (2048 bit)
                Modulus:
                    00:af:bd:e1:63:a5:03:b0:aa:a4:47:23:da:74:65:
                    77:10:ce:08:a7:0d:c6:67:af:6f:31:b8:06:6c:97:
                    51:3b:f3:25:80:0a:d4:75:11:a1:51:58:cb:07:c9:
                    bc:25:2c:b3:f8:ac:3b:bb:14:d7:99:e1:61:f2:a4:
                    cc:02:0f:bc:48:c4:34:8f:4b:86:66:38:b6:99:a0:
                    b6:7d:69:00:c8:d3:24:09:87:b7:32:fd:47:3a:56:
                    6a:35:99:02:57:83:50:8e:07:74:24:d5:98:00:cc:
                    9d:20:3c:4a:a0:d3:29:4d:90:6d:a0:b8:94:7f:ca:
                    00:c4:4c:09:a3:8d:a9:a8:30:4c:7c:21:07:ce:b6:
                    77:0e:fb:59:aa:d2:80:2d:ec:f5:a1:68:2a:e5:6b:
                    17:0f:4b:fb:59:cb:c1:1e:10:a7:b7:32:5d:5b:34:
                    dc:1b:17:f1:6d:18:cd:e0:5c:a8:27:5f:cd:f4:35:
                    ac:66:5f:0a:79:97:74:9d:8f:bd:c8:55:31:0d:c6:
                    17:73:ff:b4:6c:2c:6f:4e:07:7b:da:3d:d1:19:5e:
                    2f:35:9c:56:59:60:f8:5b:a5:fc:a5:ca:bd:87:b1:
                    42:64:37:a6:a6:8e:69:d3:3f:a2:4d:42:88:6c:1a:
                    49:53:cd:66:a9:0d:42:9f:7b:d1:9a:64:de:67:f8:
                    66:ad
                Exponent: 65537 (0x10001)
    Signature Algorithm: sha256WithRSAEncryption
         69:35:bd:e4:54:bc:6f:87:08:0b:8f:4b:ee:3c:52:9b:dc:e8:
         18:47:2d:db:3d:b3:5b:66:d1:91:7b:91:0e:e7:61:b2:46:d3:
         c0:ce:80:36:64:ce:09:04:1e:7b:26:4f:b8:36:65:c7:c9:56:
         cf:42:a2:0e:01:db:59:d7:bc:9b:f0:9e:35:39:b2:6b:c1:cb:
         5b:8c:35:73:bb:c2:76:df:aa:a3:7b:43:b1:21:e7:35:f3:06:
         8f:17:a6:b7:0d:2c:4e:17:e2:af:38:26:81:d2:d7:82:3a:f9:
         53:9a:46:1a:1c:f3:ab:da:fe:1b:89:03:d1:d9:c7:f7:f9:8f:
         57:18:a5:71:2a:02:04:ab:af:74:d2:db:7f:53:74:df:20:ab:
         d7:31:bf:2c:0c:fa:0f:f0:78:3d:ae:27:8c:32:01:66:c0:2a:
         26:0d:74:fa:38:ca:f2:7d:f6:a9:bb:7d:04:88:cb:93:07:fd:
         c6:20:3a:03:68:45:61:2d:b6:2e:8a:58:f9:02:3d:61:18:74:
         62:b4:34:4d:21:0e:b6:cf:22:65:1c:97:0c:2c:c9:99:ec:ce:
         c3:ef:d8:b7:83:c0:53:6e:3b:14:86:be:2d:91:f9:79:ed:77:
         5c:60:ff:bb:02:5a:54:6c:3c:12:89:09:e0:be:bd:cf:06:34:
         b1:15:bf:33
-----BEGIN CERTIFICATE-----
MIIC9DCCAdygAwIBAgIQMTc3OTE4NTA2MDQxMjk4NDANBgkqhkiG9w0BAQsFADA0
MTIwMAYDVQQKDCnlkbPlj6/mi5Mo5LiK5rW3KemkkOmlrueuoeeQhuaciemZkOWF
rOWPuDAeFw0xOTAxMTYxODIxNDdaFw0yMDAxMTYxODIxNDdaMDQxMjAwBgNVBAoM
KeWRs+WPr+aLkyjkuIrmtbcp6aSQ6aWu566h55CG5pyJ6ZmQ5YWs5Y+4MIIBIjAN
BgkqhkiG9w0BAQEFAAOCAQ8AMIIBCgKCAQEAr73hY6UDsKqkRyPadGV3EM4Ipw3G
Z69vMbgGbJdRO/MlgArUdRGhUVjLB8m8JSyz+Kw7uxTXmeFh8qTMAg+8SMQ0j0uG
Zji2maC2fWkAyNMkCYe3Mv1HOlZqNZkCV4NQjgd0JNWYAMydIDxKoNMpTZBtoLiU
f8oAxEwJo42pqDBMfCEHzrZ3DvtZqtKALez1oWgq5WsXD0v7WcvBHhCntzJdWzTc
GxfxbRjN4FyoJ1/N9DWsZl8KeZd0nY+9yFUxDcYXc/+0bCxvTgd72j3RGV4vNZxW
WWD4W6X8pcq9h7FCZDempo5p0z+iTUKIbBpJU81mqQ1Cn3vRmmTeZ/hmrQIDAQAB
owIwADANBgkqhkiG9w0BAQsFAAOCAQEAaTW95FS8b4cIC49L7jxSm9zoGEct2z2z
W2bRkXuRDudhskbTwM6ANmTOCQQeeyZPuDZlx8lWz0KiDgHbWde8m/CeNTmya8HL
W4w1c7vCdt+qo3tDsSHnNfMGjxemtw0sThfirzgmgdLXgjr5U5pGGhzzq9r+G4kD
0dnH9/mPVxilcSoCBKuvdNLbf1N03yCr1zG/LAz6D/B4Pa4njDIBZsAqJg10+jjK
8n32qbt9BIjLkwf9xiA6A2hFYS22LopY+QI9YRh0YrQ0TSEOts8iZRyXDCzJmezO
w+/Yt4PAU247FIa+LZH5ee13XGD/uwJaVGw8EokJ4L69zwY0sRW/Mw==
-----END CERTIFICATE-----
