Certificate:
    Data:
        Version: 3 (0x2)
        Serial Number: 14615016 (0xdf01e8)
    Signature Algorithm: sha256WithRSAEncryption
        Issuer: C = US, O = Mother Nature, OU = Everything, CN = Mother Nature
        Validity
            Not Before: May  3 03:31:15 2017 GMT
            Not After : Jul 15 03:31:15 2017 GMT
        Subject: C = US, O = TotallyGoogle, OU = 01234567890123456789012345678901234567890123456789012345678901234, L = Locality, ST = Florida, street = 3210 Holly Mill Run, postalCode = 30062, CN = Fake common name
        Subject Public Key Info:
            Public Key Algorithm: rsaEncryption
                Public-Key: (2048 bit)
                Modulus:
                    00:ad:c7:c4:4d:0a:85:18:d8:fa:87:87:01:28:34:
                    a8:e1:80:b5:24:bd:0c:7e:06:9a:66:42:74:7f:f2:
                    1b:9d:8a:26:72:ff:2a:80:8e:ec:2f:f3:1e:d8:23:
                    2c:28:c3:6e:85:58:61:ce:9c:6a:5a:a3:83:4d:85:
                    6d:a7:34:47:3f:9a:b6:f3:dd:0c:9a:81:c5:0a:8b:
                    7d:78:17:ae:5a:60:a8:27:0c:47:05:2e:7f:8b:c8:
                    4b:73:52:e3:b3:99:19:05:47:e7:90:6f:ef:6f:9f:
                    2b:5c:1d:7a:95:58:0f:ee:b1:6e:a9:c5:78:fd:96:
                    4f:b4:e5:94:5b:05:ba:b6:a3:9f:04:5c:bc:e5:90:
                    72:a4:a2:95:b5:3f:e3:1b:e0:52:26:09:d0:fb:5c:
                    73:b3:5f:b3:70:e4:43:e6:0f:3f:de:0a:3e:b1:d8:
                    c0:38:e1:07:1f:f1:d6:d9:2f:70:ac:14:3e:bc:8d:
                    c1:d8:2c:f2:3a:c5:2d:2b:d7:26:c4:3d:4c:f5:00:
                    3f:57:97:28:b6:98:6b:7f:5c:d2:90:3b:e9:d8:09:
                    8a:2e:8b:b5:96:e8:b9:b2:56:bc:4a:af:ae:34:7b:
                    89:7e:a8:8c:f0:72:88:d6:6e:00:67:15:f9:b5:3f:
                    c4:57:5d:06:d2:61:5c:df:37:13:ad:9c:5d:c7:b1:
                    67:37
                Exponent: 65537 (0x10001)
        X509v3 extensions:
            X509v3 Basic Constraints: critical
                CA:FALSE
            X509v3 Authority Key Identifier: 
                keyid:01:02:03

            Authority Information Access: 
                OCSP - URI:http://theca.net/ocsp
                CA Issuers - URI:theca.net/totallythecert.crt

            X509v3 Subject Alternative Name: 
                DNS:Not a dns, IP Address:128.168.45.1
            X509v3 CRL Distribution Points: 

                Full Name:
                  URI:ldap://theca.net/crlpoint

            X509v3 Subject Key Identifier: 
                04:03:02:01
            X509v3 Key Usage: 
                Data Encipherment, Key Agreement
            X509v3 Extended Key Usage: 
                TLS Web Server Authentication, 1.2.840.113635.100.4.3, Signing KDC Response, Any Extended Key Usage
            X509v3 Certificate Policies: 
                Policy: 2.16.840.1.114414.1.7.23.1
                  CPS: http://certificates.starfieldtech.com/repository/

    Signature Algorithm: sha256WithRSAEncryption
         86:09:0b:78:38:1d:99:fe:ce:0d:4b:e9:9b:ab:17:66:5e:2b:
         72:cd:56:a3:56:e3:5a:d1:29:f9:27:97:e2:c3:2d:41:b2:ad:
         88:e4:e8:36:2e:ee:e1:25:5f:8a:98:f7:35:32:bb:6a:4f:13:
         22:73:00:24:e2:0f:c5:21:e2:d9:e9:db:ed:99:84:d4:27:78:
         e2:4a:27:46:d4:ab:60:53:24:a3:c0:ba:9c:09:f5:cc:8d:ed:
         82:ea:80:e1:cc:c0:69:47:39:00:6a:34:e3:5a:a1:9f:e7:af:
         03:75:8a:8a:b3:64:d7:48:74:47:a3:09:37:1f:d2:88:c4:84:
         40:9a:20:82:39:b3:09:7b:82:39:35:27:f4:01:53:9f:2c:2c:
         76:bf:ff:54:e3:d6:b8:fb:56:6a:ec:26:c4:76:0d:e2:d3:e5:
         0b:be:c5:a1:d9:bf:aa:ec:1a:50:0f:82:51:70:3a:d2:8c:5e:
         fd:4a:2b:a0:2c:cc:37:cf:e8:11:dc:d6:47:58:c9:e8:56:b5:
         30:36:1c:4a:47:c9:14:77:dd:48:34:ca:8a:06:dc:5f:29:30:
         8d:7e:a4:74:00:56:5f:ca:37:e9:8b:ff:9c:fc:00:70:5b:68:
         e7:c7:b6:ba:c4:b8:bc:85:fd:c5:df:0a:77:bc:da:d2:3c:3b:
         39:d0:10:16
-----BEGIN CERTIFICATE-----
MIIFHzCCBAmgAwIBAgIEAN8B6DALBgkqhkiG9w0BAQswVDELMAkGA1UEBhMCVVMx
FjAUBgNVBAoTDU1vdGhlciBOYXR1cmUxEzARBgNVBAsTCkV2ZXJ5dGhpbmcxFjAU
BgNVBAMTDU1vdGhlciBOYXR1cmUxADAeFw0xNzA1MDMwMzMxMTVaFw0xNzA3MTUw
MzMxMTVaMIHhMQswCQYDVQQGEwJVUzEWMBQGA1UEChMNVG90YWxseUdvb2dsZTFK
MEgGA1UECxNBMDEyMzQ1Njc4OTAxMjM0NTY3ODkwMTIzNDU2Nzg5MDEyMzQ1Njc4
OTAxMjM0NTY3ODkwMTIzNDU2Nzg5MDEyMzQxETAPBgNVBAcTCExvY2FsaXR5MRAw
DgYDVQQIEwdGbG9yaWRhMRwwGgYDVQQJExMzMjEwIEhvbGx5IE1pbGwgUnVuMQ4w
DAYDVQQREwUzMDA2MjEZMBcGA1UEAxMQRmFrZSBjb21tb24gbmFtZTEAMIIBIjAN
BgkqhkiG9w0BAQEFAAOCAQ8AMIIBCgKCAQEArcfETQqFGNj6h4cBKDSo4YC1JL0M
fgaaZkJ0f/IbnYomcv8qgI7sL/Me2CMsKMNuhVhhzpxqWqODTYVtpzRHP5q2890M
moHFCot9eBeuWmCoJwxHBS5/i8hLc1Ljs5kZBUfnkG/vb58rXB16lVgP7rFuqcV4
/ZZPtOWUWwW6tqOfBFy85ZBypKKVtT/jG+BSJgnQ+1xzs1+zcORD5g8/3go+sdjA
OOEHH/HW2S9wrBQ+vI3B2CzyOsUtK9cmxD1M9QA/V5cotphrf1zSkDvp2AmKLou1
lui5sla8Sq+uNHuJfqiM8HKI1m4AZxX5tT/EV10G0mFc3zcTrZxdx7FnNwIDAQAB
o4IBbTCCAWkwDAYDVR0TAQH/BAIwADAOBgNVHSMEBzAFgAMBAgMwWwYIKwYBBQUH
AQEETzBNMCEGCCsGAQUFBzABhhVodHRwOi8vdGhlY2EubmV0L29jc3AwKAYIKwYB
BQUHMAKGHHRoZWNhLm5ldC90b3RhbGx5dGhlY2VydC5jcnQwGgYDVR0RBBMwEYIJ
Tm90IGEgZG5zhwSAqC0BMCoGA1UdHwQjMCEwH6AdoBuGGWxkYXA6Ly90aGVjYS5u
ZXQvY3JscG9pbnQwDQYDVR0OBAYEBAQDAgEwCwYDVR0PBAQDAgEYMC0GA1UdJQQm
MCQGCCsGAQUFBwMBBgkqhkiG92NkBAMGBysGAQUCAwUGBFUdJQAwWQYDVR0gBFIw
UDBOBgtghkgBhv1uAQcXATA/MD0GCCsGAQUFBwIBFjFodHRwOi8vY2VydGlmaWNh
dGVzLnN0YXJmaWVsZHRlY2guY29tL3JlcG9zaXRvcnkvMAsGCSqGSIb3DQEBCwOC
AQEAhgkLeDgdmf7ODUvpm6sXZl4rcs1Wo1bjWtEp+SeX4sMtQbKtiOToNi7u4SVf
ipj3NTK7ak8TInMAJOIPxSHi2enb7ZmE1Cd44konRtSrYFMko8C6nAn1zI3tguqA
4czAaUc5AGo041qhn+evA3WKirNk10h0R6MJNx/SiMSEQJoggjmzCXuCOTUn9AFT
nywsdr//VOPWuPtWauwmxHYN4tPlC77Fodm/quwaUA+CUXA60oxe/UoroCzMN8/o
EdzWR1jJ6Fa1MDYcSkfJFHfdSDTKigbcXykwjX6kdABWX8o36Yv/nPwAcFto58e2
usS4vIX9xd8Kd7za0jw7OdAQFg==
-----END CERTIFICATE-----
