Certificate:
    Data:
        Version: 3 (0x2)
        Serial Number: 14615016 (0xdf01e8)
    Signature Algorithm: sha256WithRSAEncryption
        Issuer: C = US, O = Mother Nature, OU = Everything, CN = Mother Nature
        Validity
            Not Before: Apr 25 16:56:57 2017 GMT
            Not After : Jul  7 16:56:57 2017 GMT
        Subject: C = US, O = Extreme Discord, OU = Chaos, L = Tallahassee, ST = FL, street = 3210 Holly Mill Run, postalCode = 30062, CN = 01234567890123456789012345678901234567890123456789012345678901234
        Subject Public Key Info:
            Public Key Algorithm: rsaEncryption
                Public-Key: (2048 bit)
                Modulus:
                    00:b6:fe:d0:f4:b2:66:52:f2:70:02:2d:27:ee:87:
                    63:7c:46:75:93:c8:21:f7:5b:16:02:07:73:90:4f:
                    79:16:3e:39:25:ef:6f:e0:9a:bf:6c:42:1d:77:c0:
                    79:0c:86:ed:f1:71:77:53:d3:8d:07:5c:06:73:56:
                    59:31:41:3f:a9:7b:f8:95:4f:17:d5:bd:bf:d5:f7:
                    33:ec:99:1b:9f:36:fc:47:13:38:f8:69:dd:b2:fe:
                    8e:bc:17:31:26:dd:5d:d0:57:c9:42:db:e9:20:4d:
                    ac:2e:b5:b7:75:71:be:2e:5e:d5:6f:4a:b8:32:96:
                    8d:d6:c9:b6:88:a9:e0:59:78:9d:56:27:04:b8:f6:
                    39:ad:45:fc:8d:b6:7b:f1:07:b2:b3:b9:78:d0:ee:
                    be:7d:98:11:7a:2f:de:cf:90:0e:d0:40:4a:98:99:
                    e5:71:13:38:db:52:67:09:14:83:d8:3e:af:a4:8f:
                    7a:93:4a:e7:3b:27:28:47:ae:22:5f:e2:8d:52:a0:
                    e9:b2:44:5c:ea:8a:c6:5d:d4:fc:ab:8f:0f:b0:9d:
                    3d:d6:36:52:cb:fe:02:33:52:2d:fc:76:92:32:ca:
                    ef:d9:0f:00:cb:9f:b9:f3:e3:24:59:ac:ab:be:73:
                    b7:29:ab:7c:f6:e4:4e:d4:3c:ff:d2:3e:b5:44:8c:
                    2c:47
                Exponent: 65537 (0x10001)
        X509v3 extensions:
            X509v3 Basic Constraints: critical
                CA:FALSE
            X509v3 Authority Key Identifier: 
                keyid:01:02:03

            Authority Information Access: 
                OCSP - URI:http://theca.net/ocsp
                CA Issuers - URI:theca.net/totallythecert.crt

            X509v3 Subject Alternative Name: 
                DNS:Not a dns, IP Address:128.168.45.1
            X509v3 CRL Distribution Points: 

                Full Name:
                  URI:ldap://theca.net/crlpoint

            X509v3 Subject Key Identifier: 
                04:03:02:01
            X509v3 Key Usage: 
                Data Encipherment, Key Agreement
            X509v3 Extended Key Usage: 
                TLS Web Server Authentication, 1.2.840.113635.100.4.3, Signing KDC Response, Any Extended Key Usage
            X509v3 Certificate Policies: 
                Policy: 2.16.840.1.114414.1.7.23.1
                  CPS: http://certificates.starfieldtech.com/repository/

    Signature Algorithm: sha256WithRSAEncryption
         6f:e9:6d:8b:8a:8a:01:e9:f1:18:c2:4b:3b:b1:3e:fc:54:a3:
         c3:83:52:8a:20:df:5e:c1:a6:b9:2b:04:94:54:7b:06:49:2c:
         7b:a6:a9:a9:57:28:4d:53:f3:89:8c:fa:15:87:a2:65:72:73:
         a2:66:a5:0f:e5:01:d5:48:a6:ab:7d:c9:8a:15:a6:30:4c:c2:
         6c:a4:19:3c:1d:e8:d7:11:c8:98:18:e5:25:bf:06:66:a0:1c:
         d9:81:13:19:57:32:47:4a:aa:9e:c6:95:8b:a9:a6:40:06:35:
         01:0d:15:53:23:9a:0b:32:aa:d0:72:cf:fe:e0:bb:5e:03:c1:
         93:11:8f:6c:85:60:f1:a8:17:b3:91:46:c7:1a:86:c9:a4:1b:
         b0:c0:76:44:6b:20:dc:5b:21:5f:5d:63:75:ca:cf:2d:49:34:
         b2:25:8d:47:5d:35:67:c0:37:88:78:58:fa:e7:e3:a6:a5:39:
         67:8d:98:ac:aa:de:16:46:bb:0d:cb:f5:ad:cd:40:2e:26:b4:
         4f:49:db:4a:60:42:da:dd:4c:98:8e:c8:3d:8e:91:26:f8:28:
         07:32:4a:f0:67:c7:09:8a:21:cb:6d:7a:10:71:5f:29:72:01:
         d0:5f:ca:7f:1e:2c:08:45:81:40:46:8f:40:e7:9b:cc:72:fb:
         8a:1f:be:e6
-----BEGIN CERTIFICATE-----
MIIFFDCCA/6gAwIBAgIEAN8B6DALBgkqhkiG9w0BAQswVDELMAkGA1UEBhMCVVMx
FjAUBgNVBAoTDU1vdGhlciBOYXR1cmUxEzARBgNVBAsTCkV2ZXJ5dGhpbmcxFjAU
BgNVBAMTDU1vdGhlciBOYXR1cmUxADAeFw0xNzA0MjUxNjU2NTdaFw0xNzA3MDcx
NjU2NTdaMIHWMQswCQYDVQQGEwJVUzEYMBYGA1UEChMPRXh0cmVtZSBEaXNjb3Jk
MQ4wDAYDVQQLEwVDaGFvczEUMBIGA1UEBxMLVGFsbGFoYXNzZWUxCzAJBgNVBAgT
AkZMMRwwGgYDVQQJExMzMjEwIEhvbGx5IE1pbGwgUnVuMQ4wDAYDVQQREwUzMDA2
MjFKMEgGA1UEAxNBMDEyMzQ1Njc4OTAxMjM0NTY3ODkwMTIzNDU2Nzg5MDEyMzQ1
Njc4OTAxMjM0NTY3ODkwMTIzNDU2Nzg5MDEyMzQxADCCASIwDQYJKoZIhvcNAQEB
BQADggEPADCCAQoCggEBALb+0PSyZlLycAItJ+6HY3xGdZPIIfdbFgIHc5BPeRY+
OSXvb+Cav2xCHXfAeQyG7fFxd1PTjQdcBnNWWTFBP6l7+JVPF9W9v9X3M+yZG582
/EcTOPhp3bL+jrwXMSbdXdBXyULb6SBNrC61t3Vxvi5e1W9KuDKWjdbJtoip4Fl4
nVYnBLj2Oa1F/I22e/EHsrO5eNDuvn2YEXov3s+QDtBASpiZ5XETONtSZwkUg9g+
r6SPepNK5zsnKEeuIl/ijVKg6bJEXOqKxl3U/KuPD7CdPdY2Usv+AjNSLfx2kjLK
79kPAMufufPjJFmsq75ztymrfPbkTtQ8/9I+tUSMLEcCAwEAAaOCAW0wggFpMAwG
A1UdEwEB/wQCMAAwDgYDVR0jBAcwBYADAQIDMFsGCCsGAQUFBwEBBE8wTTAhBggr
BgEFBQcwAYYVaHR0cDovL3RoZWNhLm5ldC9vY3NwMCgGCCsGAQUFBzAChhx0aGVj
YS5uZXQvdG90YWxseXRoZWNlcnQuY3J0MBoGA1UdEQQTMBGCCU5vdCBhIGRuc4cE
gKgtATAqBgNVHR8EIzAhMB+gHaAbhhlsZGFwOi8vdGhlY2EubmV0L2NybHBvaW50
MA0GA1UdDgQGBAQEAwIBMAsGA1UdDwQEAwIBGDAtBgNVHSUEJjAkBggrBgEFBQcD
AQYJKoZIhvdjZAQDBgcrBgEFAgMFBgRVHSUAMFkGA1UdIARSMFAwTgYLYIZIAYb9
bgEHFwEwPzA9BggrBgEFBQcCARYxaHR0cDovL2NlcnRpZmljYXRlcy5zdGFyZmll
bGR0ZWNoLmNvbS9yZXBvc2l0b3J5LzALBgkqhkiG9w0BAQsDggEBAG/pbYuKigHp
8RjCSzuxPvxUo8ODUoog317BprkrBJRUewZJLHumqalXKE1T84mM+hWHomVyc6Jm
pQ/lAdVIpqt9yYoVpjBMwmykGTwd6NcRyJgY5SW/BmagHNmBExlXMkdKqp7GlYup
pkAGNQENFVMjmgsyqtByz/7gu14DwZMRj2yFYPGoF7ORRscahsmkG7DAdkRrINxb
IV9dY3XKzy1JNLIljUddNWfAN4h4WPrn46alOWeNmKyq3hZGuw3L9a3NQC4mtE9J
20pgQtrdTJiOyD2OkSb4KAcySvBnxwmKIcttehBxXylyAdBfyn8eLAhFgUBGj0Dn
m8xy+4ofvuY=
-----END CERTIFICATE-----
