Certificate:
    Data:
        Version: 3 (0x2)
        Serial Number: 14615016 (0xdf01e8)
    Signature Algorithm: sha256WithRSAEncryption
        Issuer: C = US, O = Mother Nature, OU = Everything, CN = Mother Nature
        Validity
            Not Before: Aug 31 19:26:05 2016 GMT
            Not After : Nov 12 20:26:05 2016 GMT
        Subject: C = US, ST = FL, L = Tallahassee, street = 3210 Holly Mill Run, postalCode = 30062, O = Extreme Discord, OU = Chaos, CN = 25.29.84.12
        Subject Public Key Info:
            Public Key Algorithm: rsaEncryption
                Public-Key: (2048 bit)
                Modulus:
                    00:b8:11:cc:b7:f3:6c:2f:f0:b4:7b:d5:e8:d0:cf:
                    c8:b3:e9:11:5d:7c:f4:aa:81:fb:da:99:41:f1:bb:
                    61:e7:71:18:9b:d2:6a:ad:c6:8c:9b:21:45:5d:13:
                    12:7c:c5:e1:9a:fd:b0:98:6c:03:66:5e:b9:da:61:
                    03:da:6e:7e:4f:77:4c:25:cf:34:c6:14:a6:59:8b:
                    8f:99:04:79:fe:a3:a8:26:a7:35:68:bd:db:0d:d8:
                    d5:98:3f:6b:6c:50:ec:51:d1:5f:3d:35:58:81:6b:
                    0b:ed:08:d8:29:3d:a0:27:d0:5f:9e:35:9f:b1:fe:
                    8c:57:cd:c2:80:74:85:08:b8:79:79:f7:44:08:04:
                    60:bc:44:07:97:54:60:b0:de:44:92:44:86:30:eb:
                    90:71:1e:11:58:a2:49:dc:60:3b:4b:ff:6b:c2:fd:
                    55:f1:d5:cb:96:28:e3:18:f1:38:91:cc:bb:90:96:
                    75:fb:10:db:99:b1:95:5b:74:46:41:a5:b8:e8:85:
                    0c:59:4d:76:ea:ca:31:8e:ad:c8:71:c0:d5:66:e1:
                    55:da:a4:3f:f3:e4:2c:e7:54:7b:79:07:3a:e0:76:
                    97:a7:9a:1d:a7:6e:d9:9b:e7:01:18:8e:1e:94:3e:
                    73:47:52:aa:67:07:c2:7a:f8:5f:c9:81:d1:b9:5c:
                    70:cd
                Exponent: 65537 (0x10001)
        X509v3 extensions:
            X509v3 Basic Constraints: critical
                CA:FALSE
            X509v3 Authority Key Identifier: 
                keyid:01:02:03

            Authority Information Access: 
                OCSP - URI:http://theca.net/ocsp
                CA Issuers - URI:theca.net/totallythecert.crt

            X509v3 CRL Distribution Points: 

                Full Name:
                  URI:ldap://theca.net/crlpoint

            X509v3 Subject Key Identifier: 
                04:03:02:01
            X509v3 Subject Alternative Name: 
                DNS:*.gov.us, DNS:gov.us
            X509v3 Key Usage: 
                Data Encipherment, Key Agreement
            X509v3 Extended Key Usage: 
                TLS Web Server Authentication, 1.2.840.113635.100.4.3, Signing KDC Response, Any Extended Key Usage
            X509v3 Certificate Policies: 
                Policy: 2.16.840.1.114414.1.7.23.1
                  CPS: http://certificates.starfieldtech.com/repository/

    Signature Algorithm: sha256WithRSAEncryption
         74:9b:fc:a6:32:57:b0:a3:0e:87:6f:41:9d:ec:9a:1a:c1:62:
         72:8e:e1:a9:97:ac:0c:2b:c3:34:d9:90:10:6f:45:62:5e:48:
         d0:ac:91:4c:a8:36:99:a4:1c:ea:58:8b:f2:93:7c:df:dd:53:
         eb:70:21:a9:ed:ff:a0:66:b6:0d:63:6a:07:7a:9c:04:2f:b2:
         e4:86:d1:99:93:44:31:f8:a4:85:a9:99:84:0f:cf:fc:08:47:
         f3:ae:22:26:e5:2b:66:7c:ab:b4:4f:bd:55:db:a2:38:5d:97:
         d8:8b:cf:d3:07:01:bd:6c:10:02:ec:26:d2:05:9a:45:87:ce:
         19:c1:ba:1e:8d:43:f4:39:89:5a:89:c3:ad:32:44:72:28:18:
         70:3d:1c:3f:5a:86:1f:e6:34:31:38:e2:27:c4:8f:7b:6c:13:
         01:44:4f:3a:96:46:60:6e:12:93:4f:fc:9f:8d:75:b9:3c:dc:
         08:28:de:60:25:98:dc:5e:f9:63:2f:53:ab:85:9a:ef:82:d8:
         30:1c:b6:ea:ab:03:21:a9:f0:d1:43:08:b8:a1:a9:a8:e3:df:
         17:90:07:c1:f4:50:ad:28:c8:56:3a:6d:27:5b:f9:38:30:76:
         7c:3b:6d:ff:5d:5c:eb:03:a4:b6:4c:a2:34:05:bc:68:66:b4:
         d6:bc:73:e4
-----BEGIN CERTIFICATE-----
MIIE3zCCA8egAwIBAgIEAN8B6DANBgkqhkiG9w0BAQsFADBSMQswCQYDVQQGEwJV
UzEWMBQGA1UEChMNTW90aGVyIE5hdHVyZTETMBEGA1UECxMKRXZlcnl0aGluZzEW
MBQGA1UEAxMNTW90aGVyIE5hdHVyZTAeFw0xNjA4MzExOTI2MDVaFw0xNjExMTIy
MDI2MDVaMIGeMQswCQYDVQQGEwJVUzELMAkGA1UECBMCRkwxFDASBgNVBAcTC1Rh
bGxhaGFzc2VlMRwwGgYDVQQJExMzMjEwIEhvbGx5IE1pbGwgUnVuMQ4wDAYDVQQR
EwUzMDA2MjEYMBYGA1UEChMPRXh0cmVtZSBEaXNjb3JkMQ4wDAYDVQQLEwVDaGFv
czEUMBIGA1UEAxMLMjUuMjkuODQuMTIwggEiMA0GCSqGSIb3DQEBAQUAA4IBDwAw
ggEKAoIBAQC4Ecy382wv8LR71ejQz8iz6RFdfPSqgfvamUHxu2HncRib0mqtxoyb
IUVdExJ8xeGa/bCYbANmXrnaYQPabn5Pd0wlzzTGFKZZi4+ZBHn+o6gmpzVovdsN
2NWYP2tsUOxR0V89NViBawvtCNgpPaAn0F+eNZ+x/oxXzcKAdIUIuHl590QIBGC8
RAeXVGCw3kSSRIYw65BxHhFYokncYDtL/2vC/VXx1cuWKOMY8TiRzLuQlnX7ENuZ
sZVbdEZBpbjohQxZTXbqyjGOrchxwNVm4VXapD/z5CznVHt5Bzrgdpenmh2nbtmb
5wEYjh6UPnNHUqpnB8J6+F/JgdG5XHDNAgMBAAGjggFuMIIBajAMBgNVHRMBAf8E
AjAAMA4GA1UdIwQHMAWAAwECAzBbBggrBgEFBQcBAQRPME0wIQYIKwYBBQUHMAGG
FWh0dHA6Ly90aGVjYS5uZXQvb2NzcDAoBggrBgEFBQcwAoYcdGhlY2EubmV0L3Rv
dGFsbHl0aGVjZXJ0LmNydDAqBgNVHR8EIzAhMB+gHaAbhhlsZGFwOi8vdGhlY2Eu
bmV0L2NybHBvaW50MA0GA1UdDgQGBAQEAwIBMBsGA1UdEQQUMBKCCCouZ292LnVz
ggZnb3YudXMwCwYDVR0PBAQDAgEYMC0GA1UdJQQmMCQGCCsGAQUFBwMBBgkqhkiG
92NkBAMGBysGAQUCAwUGBFUdJQAwWQYDVR0gBFIwUDBOBgtghkgBhv1uAQcXATA/
MD0GCCsGAQUFBwIBFjFodHRwOi8vY2VydGlmaWNhdGVzLnN0YXJmaWVsZHRlY2gu
Y29tL3JlcG9zaXRvcnkvMA0GCSqGSIb3DQEBCwUAA4IBAQB0m/ymMlewow6Hb0Gd
7JoawWJyjuGpl6wMK8M02ZAQb0ViXkjQrJFMqDaZpBzqWIvyk3zf3VPrcCGp7f+g
ZrYNY2oHepwEL7LkhtGZk0Qx+KSFqZmED8/8CEfzriIm5StmfKu0T71V26I4XZfY
i8/TBwG9bBAC7CbSBZpFh84ZwboejUP0OYlaicOtMkRyKBhwPRw/WoYf5jQxOOIn
xI97bBMBRE86lkZgbhKTT/yfjXW5PNwIKN5gJZjcXvljL1OrhZrvgtgwHLbqqwMh
qfDRQwi4oamo498XkAfB9FCtKMhWOm0nW/k4MHZ8O23/XVzrA6S2TKI0BbxoZrTW
vHPk
-----END CERTIFICATE-----
