Certificate:
    Data:
        Version: 3 (0x2)
        Serial Number: 14615016 (0xdf01e8)
    Signature Algorithm: sha256WithRSAEncryption
        Issuer: C = US, O = Mother Nature, OU = Everything, CN = Mother Nature
        Validity
            Not Before: Jul 11 18:54:12 2016 GMT
            Not After : Sep 23 18:54:12 2016 GMT
        Subject: C = US, ST = FL, L = Tallahassee, street = 3210 Holly Mill Run, postalCode = 30062, O = Extreme Discord, OU = Chaos, CN = gov.us
        Subject Public Key Info:
            Public Key Algorithm: id-ecPublicKey
                Public-Key: (224 bit)
                pub:
                    04:02:23:9a:6d:fe:6b:e2:07:3b:59:14:14:de:a7:
                    5d:dd:38:40:6f:3e:f6:44:88:7f:b2:50:6e:d7:af:
                    84:ea:9c:6d:19:17:d4:f4:a2:ef:7d:06:22:67:c8:
                    e6:df:ef:03:7d:f8:86:9a:fe:b7:89:8a
                ASN1 OID: secp224r1
                NIST CURVE: P-224
        X509v3 extensions:
            X509v3 Basic Constraints: critical
                CA:FALSE
            X509v3 Authority Key Identifier: 
                keyid:01:02:03

            X509v3 Subject Key Identifier: 
                04:03:02:01
            X509v3 Subject Alternative Name: 
                DNS:*.gov.us, DNS:gov.us
            X509v3 Key Usage: 
                Data Encipherment, Key Agreement
            X509v3 Extended Key Usage: 
                TLS Web Server Authentication, 1.2.840.113635.100.4.3, Signing KDC Response, Any Extended Key Usage
            X509v3 CRL Distribution Points: 

                Full Name:
                  URI:http://crl.starfieldtech.com/sfig2s1-17.crl

    Signature Algorithm: sha256WithRSAEncryption
         9f:45:fa:22:a3:27:11:5c:8b:fd:ea:c6:80:27:53:62:72:2c:
         98:67:f4:bf:e6:ea:a5:c7:1d:f3:0a:30:90:a6:a5:43:a7:97:
         7a:5c:c0:b3:78:d4:1a:4c:e2:2c:ee:b0:ca:4d:ea:f1:04:ed:
         22:b8:7c:f1:97:ee:e0:05:2e:11:86:00:dd:4e:28:4e:e1:73:
         42:9e:d9:fb:7e:13:be:7a:4f:db:87:e2:30:f0:ea:73:5c:48:
         a9:a8:b2:36:f4:e7:8b:0a:ac:82:08:45:56:3b:b7:0c:69:a8:
         db:22:df:60:9a:7f:76:c2:e2:71:b4:f9:58:93:32:3b:fd:f1:
         c8:33:79:e7:23:ff:50:29:bf:83:98:f6:92:ce:c6:f7:06:1f:
         08:e2:f2:4e:38:36:30:3c:b6:c5:77:c4:73:b9:47:8c:c6:ee:
         e6:36:85:64:2f:fa:a5:ef:80:ac:e4:e4:e5:fe:c5:e6:e2:83:
         e2:01:a7:8b:84:7f:3a:90:8a:7a:b9:24:dc:fa:e4:78:10:02:
         83:14:5b:fa:08:22:5c:3c:94:0c:b0:61:bf:5e:e0:fe:31:28:
         1e:3f:15:5d:7b:5b:c4:01:32:2e:a8:3c:4c:2e:92:41:69:e3:
         3f:cf:4f:d1:98:2f:46:65:7a:d9:7e:28:80:7e:26:df:c5:81:
         7e:a8:71:ac
-----BEGIN CERTIFICATE-----
MIIDXDCCAkSgAwIBAgIEAN8B6DANBgkqhkiG9w0BAQsFADBSMQswCQYDVQQGEwJV
UzEWMBQGA1UEChMNTW90aGVyIE5hdHVyZTETMBEGA1UECxMKRXZlcnl0aGluZzEW
MBQGA1UEAxMNTW90aGVyIE5hdHVyZTAeFw0xNjA3MTExODU0MTJaFw0xNjA5MjMx
ODU0MTJaMIGZMQswCQYDVQQGEwJVUzELMAkGA1UECBMCRkwxFDASBgNVBAcTC1Rh
bGxhaGFzc2VlMRwwGgYDVQQJExMzMjEwIEhvbGx5IE1pbGwgUnVuMQ4wDAYDVQQR
EwUzMDA2MjEYMBYGA1UEChMPRXh0cmVtZSBEaXNjb3JkMQ4wDAYDVQQLEwVDaGFv
czEPMA0GA1UEAxMGZ292LnVzME4wEAYHKoZIzj0CAQYFK4EEACEDOgAEAiOabf5r
4gc7WRQU3qdd3ThAbz72RIh/slBu16+E6pxtGRfU9KLvfQYiZ8jm3+8DffiGmv63
iYqjgccwgcQwDAYDVR0TAQH/BAIwADAOBgNVHSMEBzAFgAMBAgMwDQYDVR0OBAYE
BAQDAgEwGwYDVR0RBBQwEoIIKi5nb3YudXOCBmdvdi51czALBgNVHQ8EBAMCARgw
LQYDVR0lBCYwJAYIKwYBBQUHAwEGCSqGSIb3Y2QEAwYHKwYBBQIDBQYEVR0lADA8
BgNVHR8ENTAzMDGgL6AthitodHRwOi8vY3JsLnN0YXJmaWVsZHRlY2guY29tL3Nm
aWcyczEtMTcuY3JsMA0GCSqGSIb3DQEBCwUAA4IBAQCfRfoioycRXIv96saAJ1Ni
ciyYZ/S/5uqlxx3zCjCQpqVDp5d6XMCzeNQaTOIs7rDKTerxBO0iuHzxl+7gBS4R
hgDdTihO4XNCntn7fhO+ek/bh+Iw8OpzXEipqLI29OeLCqyCCEVWO7cMaajbIt9g
mn92wuJxtPlYkzI7/fHIM3nnI/9QKb+DmPaSzsb3Bh8I4vJOODYwPLbFd8RzuUeM
xu7mNoVkL/ql74Cs5OTl/sXm4oPiAaeLhH86kIp6uSTc+uR4EAKDFFv6CCJcPJQM
sGG/XuD+MSgePxVde1vEATIuqDxMLpJBaeM/z0/RmC9GZXrZfiiAfibfxYF+qHGs
-----END CERTIFICATE-----
