Certificate:
    Data:
        Version: 3 (0x2)
        Serial Number: 14615016 (0xdf01e8)
    Signature Algorithm: sha256WithRSAEncryption
        Issuer: C = US, O = Mother Nature, OU = Everything, CN = Mother Nature
        Validity
            Not Before: Jul 11 18:48:44 2016 GMT
            Not After : Sep 23 18:48:44 2016 GMT
        Subject: C = US, ST = FL, L = Tallahassee, street = 3210 Holly Mill Run, postalCode = 30062, O = Extreme Discord, OU = Chaos, CN = gov.us
        Subject Public Key Info:
            Public Key Algorithm: id-ecPublicKey
                Public-Key: (224 bit)
                pub:
                    04:ec:3a:e0:d6:38:f8:41:a0:26:84:b2:09:ea:63:
                    3f:e6:d3:c2:8d:b1:2b:aa:2d:6e:ce:e6:26:16:aa:
                    dd:ca:e3:81:2f:38:32:39:b4:80:00:c3:22:c4:6e:
                    33:67:6f:cf:2f:6e:57:e4:50:29:4d:0f
                ASN1 OID: secp224r1
                NIST CURVE: P-224
        X509v3 extensions:
            X509v3 Basic Constraints: critical
                CA:FALSE
            X509v3 Authority Key Identifier: 
                keyid:01:02:03

            X509v3 Subject Key Identifier: 
                04:03:02:01
            X509v3 Subject Alternative Name: 
                DNS:*.gov.us, DNS:gov.us
            X509v3 Key Usage: 
                Digital Signature, Certificate Sign, CRL Sign
            X509v3 Extended Key Usage: 
                TLS Web Server Authentication, 1.2.840.113635.100.4.3, Signing KDC Response, Any Extended Key Usage
            X509v3 CRL Distribution Points: 

                Full Name:
                  URI:http://crl.starfieldtech.com/sfig2s1-17.crl

    Signature Algorithm: sha256WithRSAEncryption
         8d:fd:70:c5:71:ba:05:51:83:7f:92:5a:68:7c:c2:e8:38:b7:
         03:0c:30:79:a4:c2:fd:1d:6e:b8:69:a7:b9:ba:74:5b:a5:0e:
         96:0c:ab:85:55:f8:8c:00:30:12:4b:cf:06:85:c9:5e:98:54:
         d6:aa:28:9a:1c:e5:75:ab:77:25:84:c5:7e:55:8f:18:50:39:
         d5:8a:71:4e:c7:de:f4:5e:f7:52:23:67:17:ef:2b:f9:bf:6c:
         92:ac:6d:ee:6f:b7:22:4d:16:98:7c:29:e1:b6:fe:c8:d8:de:
         6a:28:22:02:06:15:26:6e:32:9b:68:45:38:ee:bc:31:37:6a:
         ce:e7:75:5f:65:33:8c:6b:83:39:03:dd:9f:09:ac:97:22:40:
         9a:d2:a0:69:25:e8:45:52:20:43:be:7d:85:f7:1a:a9:17:fa:
         e4:d4:95:2d:29:bf:f9:fe:86:5f:e5:44:f9:71:2b:6c:a3:dc:
         3e:fd:2b:b8:2a:87:c9:a1:c7:5b:06:2b:7f:35:e4:48:05:b8:
         9c:5a:7b:a2:d5:cb:d7:01:37:26:3a:d7:7e:82:c7:1e:0c:17:
         f0:00:79:8c:d7:09:78:80:49:e6:dd:1f:24:ca:07:80:2c:1e:
         fc:83:82:1f:a3:df:f2:73:04:cf:37:a5:8b:4a:7b:04:c6:b0:
         f8:93:74:ff
-----BEGIN CERTIFICATE-----
MIIDXDCCAkSgAwIBAgIEAN8B6DANBgkqhkiG9w0BAQsFADBSMQswCQYDVQQGEwJV
UzEWMBQGA1UEChMNTW90aGVyIE5hdHVyZTETMBEGA1UECxMKRXZlcnl0aGluZzEW
MBQGA1UEAxMNTW90aGVyIE5hdHVyZTAeFw0xNjA3MTExODQ4NDRaFw0xNjA5MjMx
ODQ4NDRaMIGZMQswCQYDVQQGEwJVUzELMAkGA1UECBMCRkwxFDASBgNVBAcTC1Rh
bGxhaGFzc2VlMRwwGgYDVQQJExMzMjEwIEhvbGx5IE1pbGwgUnVuMQ4wDAYDVQQR
EwUzMDA2MjEYMBYGA1UEChMPRXh0cmVtZSBEaXNjb3JkMQ4wDAYDVQQLEwVDaGFv
czEPMA0GA1UEAxMGZ292LnVzME4wEAYHKoZIzj0CAQYFK4EEACEDOgAE7Drg1jj4
QaAmhLIJ6mM/5tPCjbErqi1uzuYmFqrdyuOBLzgyObSAAMMixG4zZ2/PL25X5FAp
TQ+jgccwgcQwDAYDVR0TAQH/BAIwADAOBgNVHSMEBzAFgAMBAgMwDQYDVR0OBAYE
BAQDAgEwGwYDVR0RBBQwEoIIKi5nb3YudXOCBmdvdi51czALBgNVHQ8EBAMCAYYw
LQYDVR0lBCYwJAYIKwYBBQUHAwEGCSqGSIb3Y2QEAwYHKwYBBQIDBQYEVR0lADA8
BgNVHR8ENTAzMDGgL6AthitodHRwOi8vY3JsLnN0YXJmaWVsZHRlY2guY29tL3Nm
aWcyczEtMTcuY3JsMA0GCSqGSIb3DQEBCwUAA4IBAQCN/XDFcboFUYN/klpofMLo
OLcDDDB5pML9HW64aae5unRbpQ6WDKuFVfiMADASS88GhclemFTWqiiaHOV1q3cl
hMV+VY8YUDnVinFOx970XvdSI2cX7yv5v2ySrG3ub7ciTRaYfCnhtv7I2N5qKCIC
BhUmbjKbaEU47rwxN2rO53VfZTOMa4M5A92fCayXIkCa0qBpJehFUiBDvn2F9xqp
F/rk1JUtKb/5/oZf5UT5cStso9w+/Su4KofJocdbBit/NeRIBbicWnui1cvXATcm
Otd+gsceDBfwAHmM1wl4gEnm3R8kygeALB78g4Ifo9/ycwTPN6WLSnsExrD4k3T/
-----END CERTIFICATE-----
