Certificate:
    Data:
        Version: 3 (0x2)
        Serial Number: 18008675309 (0x4316693ed)
    Signature Algorithm: sha256WithRSAEncryption
        Issuer: CN=Mother Nature, OU=Everything, O=Mother Nature, C=US
        Validity
            Not Before: Aug 23 22:37:13 2017 GMT
            Not After : Nov  4 22:37:13 2017 GMT
        Subject: CN=gov.us, OU=Chaos, O=Extreme Discord/street=3210 Holly Mill Run, L=Tallahassee, ST=FL/postalCode=30062, C=US, SN=surname
        Subject Public Key Info:
            Public Key Algorithm: rsaEncryption
                Public-Key: (2048 bit)
                Modulus:
                    00:a4:eb:d5:18:ef:bf:9b:83:7a:d0:cc:0b:ad:e7:
                    cf:23:ed:f1:7a:1d:9c:6e:4a:93:79:3d:ad:6e:4a:
                    30:8d:5e:87:8c:70:60:fe:a9:f0:59:c9:d0:e6:72:
                    56:dc:46:32:a3:ac:99:ad:90:38:25:2f:52:76:fd:
                    42:86:09:0d:6e:f1:75:fb:46:35:84:fd:d9:66:63:
                    a9:d7:6b:04:32:06:8b:86:d9:c0:d5:0c:f3:92:30:
                    5b:79:58:be:18:f3:71:82:20:bc:10:5f:19:6c:4b:
                    38:27:3c:a7:08:b3:03:8d:39:2d:c0:d2:61:3e:e6:
                    8b:4a:39:21:83:02:8d:03:cb:bd:c2:85:b6:db:1f:
                    ae:01:be:46:6a:47:f9:f7:ca:98:c6:94:5d:dc:6e:
                    63:48:a4:6d:3b:ff:c7:9f:af:f0:f3:31:24:72:51:
                    d7:d4:61:dc:11:46:74:38:91:29:bd:5e:15:c1:c5:
                    41:f0:46:9a:81:35:54:fa:00:5c:29:46:7a:a4:72:
                    0d:7a:cd:29:76:b2:eb:e6:4f:7f:6c:96:37:95:b7:
                    cd:7c:f1:ec:84:e1:9a:03:19:6f:aa:92:5b:d0:8f:
                    97:b3:b6:60:64:d7:d2:33:09:ad:a8:d0:de:05:fd:
                    8c:33:ac:bd:de:39:a4:bd:66:79:6d:46:a4:4c:af:
                    d0:97
                Exponent: 65537 (0x10001)
        X509v3 extensions:
            X509v3 Key Usage: critical
                Digital Signature, Key Encipherment
            X509v3 Extended Key Usage: 
                TLS Web Client Authentication, TLS Web Server Authentication
            X509v3 Basic Constraints: critical
                CA:FALSE
            X509v3 Authority Key Identifier: 
                keyid:01:02:03

            X509v3 Certificate Policies: 
                Policy: 2.23.140.1.2.3

            Authority Information Access: critical
                OCSP - URI:http://ss.symcd.com
                CA Issuers - URI:http://ss.symcb.com/ss.crt

    Signature Algorithm: sha256WithRSAEncryption
         9a:8d:5c:54:e5:7f:9a:ab:91:51:a9:3c:da:b2:e9:85:5c:24:
         67:e8:4b:25:84:58:0f:62:f4:e4:09:c2:21:87:45:2a:5a:4d:
         73:91:4f:2b:f6:40:35:34:ed:ac:aa:46:8b:c8:ee:4f:3b:72:
         5e:1b:ee:a6:aa:8e:60:20:0f:88:9e:58:f3:00:ea:c1:22:f8:
         a5:da:0f:4a:71:c9:19:c4:f2:91:be:85:b0:5b:31:3f:17:09:
         b6:77:93:ff:9c:e5:bf:b8:5d:3e:c1:bd:84:a3:5b:5b:64:bf:
         0b:11:74:09:d0:f7:24:c1:28:cc:26:9e:1d:17:a5:d7:ff:92:
         c2:64:48:ba:42:b0:f2:dc:ac:a3:9e:8e:2f:98:38:4a:6c:f6:
         b2:35:8a:d7:3e:3e:f7:7c:e4:4b:d2:28:d9:ef:da:2c:4e:04:
         fd:69:3e:e0:b3:5b:f6:f2:e6:4c:2c:38:0b:88:be:f7:c1:a4:
         b9:20:a3:e8:7e:2a:e4:65:51:55:76:0b:ba:bd:1e:31:19:50:
         ba:9f:a8:91:4a:7b:50:fe:ee:12:e8:06:89:5b:da:2f:90:74:
         f5:11:58:24:88:cd:59:6b:22:4d:03:f5:f0:9b:5c:90:08:df:
         59:c5:d5:4c:6b:d9:85:88:65:29:34:45:f3:23:f2:8d:4d:5c:
         54:0b:91:37
-----BEGIN CERTIFICATE-----
MIIEPzCCAymgAwIBAgIFBDFmk+0wCwYJKoZIhvcNAQELMFQxFjAUBgNVBAMTDU1v
dGhlciBOYXR1cmUxEzARBgNVBAsTCkV2ZXJ5dGhpbmcxFjAUBgNVBAoTDU1vdGhl
ciBOYXR1cmUxCzAJBgNVBAYTAlVTMQAwHhcNMTcwODIzMjIzNzEzWhcNMTcxMTA0
MjIzNzEzWjCBrTEPMA0GA1UEAxMGZ292LnVzMQ4wDAYDVQQLEwVDaGFvczEYMBYG
A1UEChMPRXh0cmVtZSBEaXNjb3JkMRwwGgYDVQQJExMzMjEwIEhvbGx5IE1pbGwg
UnVuMRQwEgYDVQQHEwtUYWxsYWhhc3NlZTELMAkGA1UECBMCRkwxDjAMBgNVBBET
BTMwMDYyMQswCQYDVQQGEwJVUzEQMA4GA1UEBBMHc3VybmFtZTEAMIIBIjANBgkq
hkiG9w0BAQEFAAOCAQ8AMIIBCgKCAQEApOvVGO+/m4N60MwLrefPI+3xeh2cbkqT
eT2tbkowjV6HjHBg/qnwWcnQ5nJW3EYyo6yZrZA4JS9Sdv1ChgkNbvF1+0Y1hP3Z
ZmOp12sEMgaLhtnA1QzzkjBbeVi+GPNxgiC8EF8ZbEs4JzynCLMDjTktwNJhPuaL
SjkhgwKNA8u9woW22x+uAb5Gakf598qYxpRd3G5jSKRtO//Hn6/w8zEkclHX1GHc
EUZ0OJEpvV4VwcVB8EaagTVU+gBcKUZ6pHINes0pdrLr5k9/bJY3lbfNfPHshOGa
AxlvqpJb0I+Xs7ZgZNfSMwmtqNDeBf2MM6y93jmkvWZ5bUakTK/QlwIDAQABo4HB
MIG+MA4GA1UdDwEB/wQEAwIAoDAdBgNVHSUEFjAUBggrBgEFBQcDAgYIKwYBBQUH
AwEwDAYDVR0TAQH/BAIwADAOBgNVHSMEBzAFgAMBAgMwEwYDVR0gBAwwCjAIBgZn
gQwBAgMwWgYIKwYBBQUHAQEBAf8ESzBJMB8GCCsGAQUFBzABhhNodHRwOi8vc3Mu
c3ltY2QuY29tMCYGCCsGAQUFBzAChhpodHRwOi8vc3Muc3ltY2IuY29tL3NzLmNy
dDALBgkqhkiG9w0BAQsDggEBAJqNXFTlf5qrkVGpPNqy6YVcJGfoSyWEWA9i9OQJ
wiGHRSpaTXORTyv2QDU07ayqRovI7k87cl4b7qaqjmAgD4ieWPMA6sEi+KXaD0px
yRnE8pG+hbBbMT8XCbZ3k/+c5b+4XT7BvYSjW1tkvwsRdAnQ9yTBKMwmnh0Xpdf/
ksJkSLpCsPLcrKOeji+YOEps9rI1itc+Pvd85EvSKNnv2ixOBP1pPuCzW/by5kws
OAuIvvfBpLkgo+h+KuRlUVV2C7q9HjEZULqfqJFKe1D+7hLoBolb2i+QdPURWCSI
zVlrIk0D9fCbXJAI31nF1Uxr2YWIZSk0RfMj8o1NXFQLkTc=
-----END CERTIFICATE-----
