Certificate:
    Data:
        Version: 3 (0x2)
        Serial Number: 18008675309 (0x4316693ed)
    Signature Algorithm: sha256WithRSAEncryption
        Issuer: CN=Mother Nature, OU=Everything, O=Mother Nature, C=US
        Validity
            Not Before: Aug 23 22:38:35 2017 GMT
            Not After : Nov  4 22:38:35 2017 GMT
        Subject: CN=gov.us, OU=Chaos, O=Extreme Discord/street=3210 Holly Mill Run, L=Tallahassee, ST=FL/postalCode=30062, C=US, SN=surname
        Subject Public Key Info:
            Public Key Algorithm: rsaEncryption
                Public-Key: (2048 bit)
                Modulus:
                    00:ce:29:a0:a0:f0:f9:94:c1:22:e4:28:ae:1f:c2:
                    1d:a8:d8:e1:56:22:a4:d2:7d:cb:fb:45:73:5a:4f:
                    e1:41:da:1d:c3:04:c6:0d:e4:a5:61:c8:ba:6c:79:
                    45:00:ef:84:50:b2:61:fb:fe:d4:a4:ea:ab:85:50:
                    93:47:00:ba:c2:05:cc:15:b3:47:98:2d:00:59:a4:
                    1f:c7:c6:f9:2e:43:18:72:b4:d0:cc:e3:a8:65:db:
                    b7:3f:6e:fb:60:9c:c2:2f:2e:6e:9e:52:2c:0c:33:
                    21:e6:06:ae:c2:a6:a2:e5:77:7f:f4:d3:de:46:bf:
                    8a:94:2c:16:5c:9d:0c:13:6b:19:dd:e1:7b:9e:f2:
                    ec:07:93:ec:f3:ef:49:79:7f:3b:f3:dd:50:22:55:
                    f3:57:44:3b:7f:dc:92:27:1f:4b:03:1c:e1:6a:8a:
                    ef:3e:ab:d0:dd:b1:d8:32:f0:dc:1b:a9:95:d9:ac:
                    47:2a:4e:7b:2d:a0:50:d2:a5:9d:90:d3:01:17:a9:
                    9b:c8:47:96:6d:1a:19:2a:04:55:77:34:d8:2f:12:
                    43:e6:fd:73:9e:eb:6c:cd:51:f6:32:30:0b:47:28:
                    6e:64:70:a7:bc:14:0b:4c:ec:db:f5:34:69:47:43:
                    1b:8b:f1:c7:2a:ed:a2:55:ef:5a:13:e5:b4:4c:11:
                    ee:45
                Exponent: 65537 (0x10001)
        X509v3 extensions:
            X509v3 Key Usage: critical
                Digital Signature, Key Encipherment
            X509v3 Extended Key Usage: 
                TLS Web Client Authentication, TLS Web Server Authentication
            X509v3 Basic Constraints: critical
                CA:FALSE
            X509v3 Authority Key Identifier: 
                keyid:01:02:03

            X509v3 Certificate Policies: 
                Policy: 2.23.140.1.2.1

            Authority Information Access: critical
                OCSP - URI:http://ss.symcd.com
                CA Issuers - URI:http://ss.symcb.com/ss.crt

    Signature Algorithm: sha256WithRSAEncryption
         91:3d:e3:cd:04:68:e7:fd:fd:aa:2a:9e:e1:73:5a:a6:f9:7f:
         cb:d3:7d:07:ff:d5:0b:56:d1:32:82:24:57:bb:28:36:33:bf:
         2f:c7:97:f4:a6:67:6a:ea:81:3f:11:6f:15:58:b7:7d:c5:e3:
         24:71:e5:a7:97:39:9c:c8:65:d9:7c:79:4a:79:56:c4:68:96:
         c5:29:dd:ef:ae:54:c4:70:31:b0:49:19:f2:c3:56:26:27:c5:
         da:57:11:b8:02:38:b6:cb:50:f0:75:30:19:5a:e2:dd:9d:09:
         db:e6:ad:56:72:8c:a0:c2:68:c5:13:f4:97:90:f3:f9:95:91:
         6c:2e:a3:a6:bf:6b:2e:2f:2b:c9:86:e6:e5:41:10:8e:79:15:
         bf:d7:cc:ab:7c:ba:f5:12:2e:44:2b:ce:fa:3a:17:7f:79:f7:
         48:7a:c3:eb:da:84:de:ac:3d:5a:84:91:39:38:29:b3:44:15:
         d4:c6:8d:c7:f0:8a:7a:45:fd:d6:63:b2:57:41:9c:5a:b6:42:
         42:23:a2:d6:5b:a8:c8:a2:ff:eb:c9:9b:31:f0:e9:55:f8:fa:
         31:28:07:c0:54:46:45:a3:11:c4:9b:50:a6:de:31:b4:4b:6f:
         d4:a3:d4:b3:5b:0b:b6:34:4d:bd:a1:45:09:1e:d2:0d:bc:04:
         bd:1a:6a:a4
-----BEGIN CERTIFICATE-----
MIIEPzCCAymgAwIBAgIFBDFmk+0wCwYJKoZIhvcNAQELMFQxFjAUBgNVBAMTDU1v
dGhlciBOYXR1cmUxEzARBgNVBAsTCkV2ZXJ5dGhpbmcxFjAUBgNVBAoTDU1vdGhl
ciBOYXR1cmUxCzAJBgNVBAYTAlVTMQAwHhcNMTcwODIzMjIzODM1WhcNMTcxMTA0
MjIzODM1WjCBrTEPMA0GA1UEAxMGZ292LnVzMQ4wDAYDVQQLEwVDaGFvczEYMBYG
A1UEChMPRXh0cmVtZSBEaXNjb3JkMRwwGgYDVQQJExMzMjEwIEhvbGx5IE1pbGwg
UnVuMRQwEgYDVQQHEwtUYWxsYWhhc3NlZTELMAkGA1UECBMCRkwxDjAMBgNVBBET
BTMwMDYyMQswCQYDVQQGEwJVUzEQMA4GA1UEBBMHc3VybmFtZTEAMIIBIjANBgkq
hkiG9w0BAQEFAAOCAQ8AMIIBCgKCAQEAzimgoPD5lMEi5CiuH8IdqNjhViKk0n3L
+0VzWk/hQdodwwTGDeSlYci6bHlFAO+EULJh+/7UpOqrhVCTRwC6wgXMFbNHmC0A
WaQfx8b5LkMYcrTQzOOoZdu3P277YJzCLy5unlIsDDMh5gauwqai5Xd/9NPeRr+K
lCwWXJ0ME2sZ3eF7nvLsB5Ps8+9JeX87891QIlXzV0Q7f9ySJx9LAxzhaorvPqvQ
3bHYMvDcG6mV2axHKk57LaBQ0qWdkNMBF6mbyEeWbRoZKgRVdzTYLxJD5v1znuts
zVH2MjALRyhuZHCnvBQLTOzb9TRpR0Mbi/HHKu2iVe9aE+W0TBHuRQIDAQABo4HB
MIG+MA4GA1UdDwEB/wQEAwIAoDAdBgNVHSUEFjAUBggrBgEFBQcDAgYIKwYBBQUH
AwEwDAYDVR0TAQH/BAIwADAOBgNVHSMEBzAFgAMBAgMwEwYDVR0gBAwwCjAIBgZn
gQwBAgEwWgYIKwYBBQUHAQEBAf8ESzBJMB8GCCsGAQUFBzABhhNodHRwOi8vc3Mu
c3ltY2QuY29tMCYGCCsGAQUFBzAChhpodHRwOi8vc3Muc3ltY2IuY29tL3NzLmNy
dDALBgkqhkiG9w0BAQsDggEBAJE9480EaOf9/aoqnuFzWqb5f8vTfQf/1QtW0TKC
JFe7KDYzvy/Hl/SmZ2rqgT8RbxVYt33F4yRx5aeXOZzIZdl8eUp5VsRolsUp3e+u
VMRwMbBJGfLDViYnxdpXEbgCOLbLUPB1MBla4t2dCdvmrVZyjKDCaMUT9JeQ8/mV
kWwuo6a/ay4vK8mG5uVBEI55Fb/XzKt8uvUSLkQrzvo6F39590h6w+vahN6sPVqE
kTk4KbNEFdTGjcfwinpF/dZjsldBnFq2QkIjotZbqMii/+vJmzHw6VX4+jEoB8BU
RkWjEcSbUKbeMbRLb9Sj1LNbC7Y0Tb2hRQke0g28BL0aaqQ=
-----END CERTIFICATE-----
