Certificate:
    Data:
        Version: 3 (0x2)
        Serial Number: 18008675309 (0x4316693ed)
    Signature Algorithm: sha256WithRSAEncryption
        Issuer: C = US, O = Mother Nature, OU = Everything, CN = Mother Nature
        Validity
            Not Before: Aug 10 14:27:28 2016
            Not After : Dec  1 06:07:08 2017 GMT
        Subject: C = US, O = Extreme Discord, OU = Chaos, L = Tallahassee, ST = FL, street = 3210 Holly Mill Run, postalCode = 30062, CN = gov.us
        Subject Public Key Info:
            Public Key Algorithm: rsaEncryption
                Public-Key: (512 bit)
                Modulus:
                    00:ac:5f:77:9f:1e:db:9d:85:2d:36:10:96:75:7f:
                    1e:a6:9b:f4:df:27:7a:3e:eb:05:a7:8a:bc:01:76:
                    81:16:39:6f:d2:29:a2:46:e4:96:18:d9:3f:f5:d2:
                    32:e8:13:df:57:10:bb:f6:3f:8c:3b:a0:32:55:94:
                    65:1d:2c:ac:eb
                Exponent: 65537 (0x10001)
        X509v3 extensions:
            X509v3 Key Usage: critical
                Digital Signature, Key Encipherment, Certificate Sign
            X509v3 Extended Key Usage: 
                TLS Web Client Authentication, TLS Web Server Authentication
            X509v3 Basic Constraints: critical
                CA:FALSE
            X509v3 Authority Key Identifier: 
                keyid:01:02:03

            Authority Information Access: 
                OCSP - URI:http://theca.net/ocsp
                CA Issuers - URI:http://theca.net/totallythecert.crt

            X509v3 Certificate Policies: 
                Policy: 2.23.140.1.2.2

            X509v3 Name Constraints: 
                Permitted:
                  IP:192.168.1.1/1.2.3.4

            X509v3 Subject Key Identifier: 
                04:03:02:01
            X509v3 Subject Alternative Name: 
                URI:, DNS:ˬ
            X509v3 Inhibit Any Policy: 
                ..
            Subject Information Access: 
                ..
    Signature Algorithm: sha256WithRSAEncryption
         c2:f8:e2:89:5e:77:34:92:8a:6b:43:de:78:e2:34:e9:3c:84:
         29:72:97:a0:39:74:cb:d9:85:30:cd:c0:98:c6:a8:ee:2c:dc:
         a6:12:08:8f:03:02:1c:6f:29:90:82:95:9d:b9:ed:d8:d1:8b:
         42:65:0b:c5:55:c0:5e:ca:a6:59
-----BEGIN CERTIFICATE-----
MIIDBTCCArGgAwIBAgIFBDFmk+0wCwYJKoZIhvcNAQELMFQxCzAJBgNVBAYTAlVT
MRYwFAYDVQQKEw1Nb3RoZXIgTmF0dXJlMRMwEQYDVQQLEwpFdmVyeXRoaW5nMRYw
FAYDVQQDEw1Nb3RoZXIgTmF0dXJlMQAwIhcRMTYwODEwMTQyNzI4LTA1MDAXDTE3
MTIwMTA2MDcwOFowgZsxCzAJBgNVBAYTAlVTMRgwFgYDVQQKEw9FeHRyZW1lIERp
c2NvcmQxDjAMBgNVBAsTBUNoYW9zMRQwEgYDVQQHEwtUYWxsYWhhc3NlZTELMAkG
A1UECBMCRkwxHDAaBgNVBAkTEzMyMTAgSG9sbHkgTWlsbCBSdW4xDjAMBgNVBBET
BTMwMDYyMQ8wDQYDVQQDEwZnb3YudXMxADBcMA0GCSqGSIb3DQEBAQUAA0sAMEgC
QQCsX3efHtudhS02EJZ1fx6mm/TfJ3o+6wWnirwBdoEWOW/SKaJG5JYY2T/10jLo
E99XELv2P4w7oDJVlGUdLKzrAgMBAAGjggEeMIIBGjAOBgNVHQ8BAf8EBAMCAKQw
HQYDVR0lBBYwFAYIKwYBBQUHAwIGCCsGAQUFBwMBMAwGA1UdEwEB/wQCMAAwDgYD
VR0jBAcwBYADAQIDMGIGCCsGAQUFBwEBBFYwVDAhBggrBgEFBQcwAYYVaHR0cDov
L3RoZWNhLm5ldC9vY3NwMC8GCCsGAQUFBzAChiNodHRwOi8vdGhlY2EubmV0L3Rv
dGFsbHl0aGVjZXJ0LmNydDATBgNVHSAEDDAKMAgGBmeBDAECAjAXBgNVHR4EEDAO
oAwwCocIwKgBAQECAwQwDQYDVR0OBAYEBAQDAgEwDwYDVR0RBAgwBoYAggLAqDAJ
BgNVHTYEAgIBMA4GCCsGAQUFBwELBAICATALBgkqhkiG9w0BAQsDQQDC+OKJXnc0
koprQ9544jTpPIQpcpegOXTL2YUwzcCYxqjuLNymEgiPAwIcbymQgpWdue3Y0YtC
ZQvFVcBeyqZZ
-----END CERTIFICATE-----
