Certificate:
    Data:
        Version: 3 (0x2)
        Serial Number: 18008675309 (0x4316693ed)
    Signature Algorithm: sha256WithRSAEncryption
        Issuer: C = US, O = Mother Nature, OU = Everything, CN = Mother Nature
        Validity
            Not Before: Aug  1 21:59:09 2016 GMT
            Not After : Oct 13 21:59:09 2016 GMT
        Subject: C = US, O = Extreme Discord, OU = Chaos, L = Tallahassee, ST = FL, street = 3210 Holly Mill Run, postalCode = 30062, CN = gov.us
        Subject Public Key Info:
            Public Key Algorithm: rsaEncryption
                Public-Key: (2048 bit)
                Modulus:
                    00:c5:1a:b9:13:37:50:23:b8:91:cc:b7:2b:b0:28:
                    b1:20:94:cc:a2:0b:1d:7b:1a:a8:82:96:b7:bd:6c:
                    46:aa:3e:f1:ce:8b:4f:21:07:c9:4d:5b:39:cb:cb:
                    27:37:2c:a4:ac:f2:5a:4a:9f:17:cd:28:4f:4c:ca:
                    66:62:d7:f4:2f:85:f3:af:da:d2:c0:18:d3:98:22:
                    5b:e1:78:94:74:89:a9:ef:b1:de:40:c2:33:96:53:
                    1d:8d:d8:85:3c:12:a3:8c:53:1a:33:ba:0b:e5:df:
                    d8:b1:de:a9:83:d0:f5:ee:3d:39:bc:ee:c0:2f:07:
                    4c:ae:a7:35:b6:23:a5:9f:09:01:8d:41:bc:63:71:
                    83:43:21:06:ff:8f:39:de:84:d7:1e:ef:18:52:74:
                    9d:89:a3:a6:83:e4:6d:23:11:bd:64:d7:0d:91:e7:
                    8f:a1:c8:0d:62:7d:1a:90:e1:9c:03:da:25:8f:2d:
                    7f:5f:5a:6c:26:2b:b7:0e:8d:14:b7:9c:ed:25:a6:
                    dd:9e:2e:3f:02:92:97:90:99:ea:3a:fb:17:35:cf:
                    be:40:79:26:cc:f7:ed:fe:dd:99:b5:10:6c:ad:6d:
                    b3:7b:6f:e8:03:b1:75:60:b6:cd:f6:99:e9:be:e1:
                    7b:de:5c:f6:cc:dc:ef:73:8c:6c:55:f2:a2:3e:dc:
                    e6:83
                Exponent: 65537 (0x10001)
        X509v3 extensions:
            X509v3 Key Usage: critical
                Digital Signature, Key Encipherment
            X509v3 Extended Key Usage: 
                TLS Web Client Authentication, TLS Web Server Authentication
            X509v3 Basic Constraints: critical
                CA:FALSE
            X509v3 Authority Key Identifier: 
                keyid:01:02:03

            Authority Information Access: 
                OCSP - URI:http://theca.net/ocsp
                CA Issuers - URI:http://theca.net/totallythecert.crt

            X509v3 Certificate Policies: 
                Policy: 2.23.140.1.2.2

            X509v3 Subject Key Identifier: 
                04:03:02:01
            X509v3 Subject Alternative Name: 
                DNS:*.gov.us, DNS:gov.us
    Signature Algorithm: sha256WithRSAEncryption
         2c:53:0c:99:26:52:2a:06:c0:f7:0c:65:24:1e:dd:e2:37:0a:
         6e:3f:23:5d:f2:f7:70:92:15:ee:69:c1:f4:a7:9c:cf:cb:42:
         4a:87:5d:ef:bb:09:96:a3:5e:88:7a:2b:ff:61:63:dd:0f:59:
         5b:5b:fa:7e:97:37:b5:2f:8d:28:3b:fa:6f:1c:0d:6d:0c:b8:
         e8:ef:b5:5b:c7:39:d1:1f:09:f5:e2:39:53:27:55:8b:b2:0f:
         1f:bf:2c:2c:15:d7:88:a8:3a:83:73:69:e9:b7:38:86:c2:2c:
         a8:7d:6b:3c:84:cc:c9:9b:4a:e5:c1:1b:ea:56:a6:af:53:c5:
         80:51:8e:a6:f6:62:62:89:81:41:37:fd:21:46:51:9c:7d:f9:
         dd:bf:a9:4d:af:d0:e1:d9:a6:bb:46:97:86:0d:38:c7:83:5a:
         a1:c7:8b:20:8d:6e:5d:dc:59:7f:ac:f1:a8:04:e7:37:65:35:
         b3:a6:21:ee:86:b6:77:2f:4f:46:99:0b:42:7a:d7:ce:48:db:
         c4:63:9c:ce:c9:e9:2a:07:3d:25:7e:b2:42:a9:98:02:79:1f:
         ad:21:8e:34:c5:ea:f7:86:1c:ec:1b:de:a4:85:58:12:99:f0:
         c4:50:f7:ca:9f:b8:7f:e1:29:0c:8d:c7:4e:99:87:0f:c3:4e:
         18:38:5a:a1
-----BEGIN CERTIFICATE-----
MIIEYTCCA0mgAwIBAgIFBDFmk+0wDQYJKoZIhvcNAQELBQAwUjELMAkGA1UEBhMC
VVMxFjAUBgNVBAoTDU1vdGhlciBOYXR1cmUxEzARBgNVBAsTCkV2ZXJ5dGhpbmcx
FjAUBgNVBAMTDU1vdGhlciBOYXR1cmUwHhcNMTYwODAxMjE1OTA5WhcNMTYxMDEz
MjE1OTA5WjCBmTELMAkGA1UEBhMCVVMxGDAWBgNVBAoTD0V4dHJlbWUgRGlzY29y
ZDEOMAwGA1UECxMFQ2hhb3MxFDASBgNVBAcTC1RhbGxhaGFzc2VlMQswCQYDVQQI
EwJGTDEcMBoGA1UECRMTMzIxMCBIb2xseSBNaWxsIFJ1bjEOMAwGA1UEERMFMzAw
NjIxDzANBgNVBAMTBmdvdi51czCCASIwDQYJKoZIhvcNAQEBBQADggEPADCCAQoC
ggEBAMUauRM3UCO4kcy3K7AosSCUzKILHXsaqIKWt71sRqo+8c6LTyEHyU1bOcvL
JzcspKzyWkqfF80oT0zKZmLX9C+F86/a0sAY05giW+F4lHSJqe+x3kDCM5ZTHY3Y
hTwSo4xTGjO6C+Xf2LHeqYPQ9e49ObzuwC8HTK6nNbYjpZ8JAY1BvGNxg0MhBv+P
Od6E1x7vGFJ0nYmjpoPkbSMRvWTXDZHnj6HIDWJ9GpDhnAPaJY8tf19abCYrtw6N
FLec7SWm3Z4uPwKSl5CZ6jr7FzXPvkB5Jsz37f7dmbUQbK1ts3tv6AOxdWC2zfaZ
6b7he95c9szc73OMbFXyoj7c5oMCAwEAAaOB9TCB8jAOBgNVHQ8BAf8EBAMCBaAw
HQYDVR0lBBYwFAYIKwYBBQUHAwIGCCsGAQUFBwMBMAwGA1UdEwEB/wQCMAAwDgYD
VR0jBAcwBYADAQIDMGIGCCsGAQUFBwEBBFYwVDAhBggrBgEFBQcwAYYVaHR0cDov
L3RoZWNhLm5ldC9vY3NwMC8GCCsGAQUFBzAChiNodHRwOi8vdGhlY2EubmV0L3Rv
dGFsbHl0aGVjZXJ0LmNydDATBgNVHSAEDDAKMAgGBmeBDAECAjANBgNVHQ4EBgQE
BAMCATAbBgNVHREEFDASgggqLmdvdi51c4IGZ292LnVzMA0GCSqGSIb3DQEBCwUA
A4IBAQAsUwyZJlIqBsD3DGUkHt3iNwpuPyNd8vdwkhXuacH0p5zPy0JKh13vuwmW
o16Ieiv/YWPdD1lbW/p+lze1L40oO/pvHA1tDLjo77VbxznRHwn14jlTJ1WLsg8f
vywsFdeIqDqDc2nptziGwiyofWs8hMzJm0rlwRvqVqavU8WAUY6m9mJiiYFBN/0h
RlGcffndv6lNr9Dh2aa7RpeGDTjHg1qhx4sgjW5d3Fl/rPGoBOc3ZTWzpiHuhrZ3
L09GmQtCetfOSNvEY5zOyekqBz0lfrJCqZgCeR+tIY40xer3hhzsG96khVgSmfDE
UPfKn7h/4SkMjcdOmYcPw04YOFqh
-----END CERTIFICATE-----
