Certificate:
    Data:
        Version: 3 (0x2)
        Serial Number: 18008675309 (0x4316693ed)
    Signature Algorithm: sha256WithRSAEncryption
        Issuer: C = US, O = Mother Nature, OU = Everything, CN = Mother Nature
        Validity
            Not Before: Jul  1 19:10:01 2016 GMT
            Not After : Sep 13 19:10:01 2016 GMT
        Subject: C = US, O = Extreme Discord, OU = Chaos, L = Tallahassee, ST = FL, street = 3210 Holly Mill Run, postalCode = 30062, CN = gov.us
        Subject Public Key Info:
            Public Key Algorithm: rsaEncryption
                Public-Key: (2048 bit)
                Modulus:
                    00:a6:4d:4f:88:96:7e:f8:d4:c7:89:22:bf:af:09:
                    ff:6f:e1:56:d0:06:27:8c:e9:57:c6:1d:99:6d:4e:
                    03:e7:aa:d5:31:74:21:c5:63:1d:3c:94:09:14:ff:
                    37:9c:30:c6:06:54:f3:bc:d0:09:6a:06:a4:4c:a2:
                    45:4a:04:00:dd:25:3a:9e:43:22:f5:d7:aa:62:9c:
                    97:8f:02:98:c0:6b:97:c2:fd:1b:5f:38:dc:78:7c:
                    b0:39:ad:81:6a:4b:37:97:07:16:1b:05:10:35:28:
                    a4:91:88:ea:94:ce:a5:cf:2b:13:91:49:83:cd:9a:
                    3e:28:d9:35:75:6a:fc:9a:d1:a0:25:f3:c0:e2:88:
                    fe:22:f9:c9:36:74:dc:b6:f2:24:04:59:29:cd:db:
                    38:31:f3:37:3e:bc:e4:58:07:fc:ac:3b:e9:1f:24:
                    c2:64:74:de:36:93:60:d6:e9:73:92:14:21:65:43:
                    5f:9a:76:72:4a:3a:3f:c3:ba:ed:34:31:df:de:49:
                    5b:3d:fd:d1:b9:5f:f2:46:76:a9:11:92:fa:6d:b9:
                    dd:aa:77:df:f1:8d:49:15:9c:4a:77:5d:f6:33:5f:
                    83:77:2e:c3:27:78:eb:5c:ae:0d:58:46:e0:78:06:
                    cd:35:c7:88:c5:5f:5a:27:6a:32:d8:51:bd:65:89:
                    af:29
                Exponent: 65537 (0x10001)
        X509v3 extensions:
            X509v3 Key Usage: critical
                Digital Signature, Key Encipherment
            X509v3 Extended Key Usage: 
                TLS Web Client Authentication, TLS Web Server Authentication
            X509v3 Basic Constraints: critical
                CA:FALSE
            X509v3 Authority Key Identifier: 
                keyid:01:02:03

            Authority Information Access: 
                OCSP - URI:http://theca.net/ocsp
                CA Issuers - URI:http://theca.net/totallythecert.crt

            X509v3 Certificate Policies: 
                Policy: 2.23.140.1.2.2

            X509v3 Subject Key Identifier: 
                04:03:02:01
            X509v3 Subject Alternative Name: 
                DNS:*.gov.us, DNS:gov.us
    Signature Algorithm: sha256WithRSAEncryption
         30:0d:82:fb:46:0f:40:da:9d:0d:89:60:45:bb:b6:f8:9b:6a:
         e0:79:df:f9:60:e4:51:a4:e0:79:4d:4d:2f:76:79:f7:5f:e0:
         31:fd:8f:a2:11:23:97:94:60:9e:18:31:72:a3:eb:22:af:a8:
         75:a3:cf:c2:e9:dd:ff:39:3c:6f:32:82:4c:70:6b:c1:fd:f1:
         eb:e1:7c:af:f3:f4:ed:9f:0b:53:86:86:7d:64:60:4e:4a:80:
         5e:95:c5:9b:bb:c7:67:33:9b:25:2d:7e:32:6c:db:a4:2d:a0:
         bc:64:67:54:14:79:14:f7:64:30:20:25:6b:b7:60:83:71:5c:
         a7:89:25:22:9e:29:fe:bf:e8:7f:3d:44:ed:86:db:a4:48:59:
         b0:53:4f:3e:f9:05:7c:64:4a:f7:b9:f2:5a:d2:b2:e1:09:3e:
         0d:ad:a9:9f:6f:a9:53:68:ed:4f:52:ec:b9:0b:48:07:29:6c:
         96:23:d1:af:9e:45:ee:25:61:ac:7b:b4:c7:91:37:c5:c5:ce:
         fe:1f:cb:06:3a:f3:0a:41:50:e1:34:64:5c:f9:7d:35:c8:36:
         0a:6a:b4:2a:b2:9f:3e:fb:24:d9:ab:a3:11:f8:13:6e:aa:8e:
         04:1b:89:29:49:25:f7:8b:18:98:d8:24:16:4b:92:9b:d9:31:
         5a:20:55:69
-----BEGIN CERTIFICATE-----
MIIEYTCCA0mgAwIBAgIFBDFmk+0wDQYJKoZIhvcNAQELBQAwUjELMAkGA1UEBhMC
VVMxFjAUBgNVBAoTDU1vdGhlciBOYXR1cmUxEzARBgNVBAsTCkV2ZXJ5dGhpbmcx
FjAUBgNVBAMTDU1vdGhlciBOYXR1cmUwHhcNMTYwNzAxMTkxMDAxWhcNMTYwOTEz
MTkxMDAxWjCBmTELMAkGA1UEBhMCVVMxGDAWBgNVBAoTD0V4dHJlbWUgRGlzY29y
ZDEOMAwGA1UECxMFQ2hhb3MxFDASBgNVBAcTC1RhbGxhaGFzc2VlMQswCQYDVQQI
EwJGTDEcMBoGA1UECRMTMzIxMCBIb2xseSBNaWxsIFJ1bjEOMAwGA1UEERMFMzAw
NjIxDzANBgNVBAMTBmdvdi51czCCASIwDQYJKoZIhvcNAQEBBQADggEPADCCAQoC
ggEBAKZNT4iWfvjUx4kiv68J/2/hVtAGJ4zpV8YdmW1OA+eq1TF0IcVjHTyUCRT/
N5wwxgZU87zQCWoGpEyiRUoEAN0lOp5DIvXXqmKcl48CmMBrl8L9G1843Hh8sDmt
gWpLN5cHFhsFEDUopJGI6pTOpc8rE5FJg82aPijZNXVq/JrRoCXzwOKI/iL5yTZ0
3LbyJARZKc3bODHzNz685FgH/Kw76R8kwmR03jaTYNbpc5IUIWVDX5p2cko6P8O6
7TQx395JWz390blf8kZ2qRGS+m253ap33/GNSRWcSndd9jNfg3cuwyd461yuDVhG
4HgGzTXHiMVfWidqMthRvWWJrykCAwEAAaOB9TCB8jAOBgNVHQ8BAf8EBAMCBaAw
HQYDVR0lBBYwFAYIKwYBBQUHAwIGCCsGAQUFBwMBMAwGA1UdEwEB/wQCMAAwDgYD
VR0jBAcwBYADAQIDMGIGCCsGAQUFBwEBBFYwVDAhBggrBgEFBQcwAYYVaHR0cDov
L3RoZWNhLm5ldC9vY3NwMC8GCCsGAQUFBzAChiNodHRwOi8vdGhlY2EubmV0L3Rv
dGFsbHl0aGVjZXJ0LmNydDATBgNVHSAEDDAKMAgGBmeBDAECAjANBgNVHQ4EBgQE
BAMCATAbBgNVHREEFDASgggqLmdvdi51c4IGZ292LnVzMA0GCSqGSIb3DQEBCwUA
A4IBAQAwDYL7Rg9A2p0NiWBFu7b4m2rged/5YORRpOB5TU0vdnn3X+Ax/Y+iESOX
lGCeGDFyo+sir6h1o8/C6d3/OTxvMoJMcGvB/fHr4Xyv8/TtnwtThoZ9ZGBOSoBe
lcWbu8dnM5slLX4ybNukLaC8ZGdUFHkU92QwICVrt2CDcVyniSUinin+v+h/PUTt
htukSFmwU08++QV8ZEr3ufJa0rLhCT4Nramfb6lTaO1PUuy5C0gHKWyWI9GvnkXu
JWGse7THkTfFxc7+H8sGOvMKQVDhNGRc+X01yDYKarQqsp8++yTZq6MR+BNuqo4E
G4kpSSX3ixiY2CQWS5Kb2TFaIFVp
-----END CERTIFICATE-----
