Certificate:
    Data:
        Version: 3 (0x2)
        Serial Number: 18008675309 (0x4316693ed)
    Signature Algorithm: sha256WithRSAEncryption
        Issuer: C = US, O = Mother Nature, OU = Everything, CN = Mother Nature
        Validity
            Not Before: Jul  5 16:28:05 2016 GMT
            Not After : Sep 17 16:28:05 2016 GMT
        Subject: C = US, O = Extreme Discord, OU = Chaos, L = Tallahassee, ST = FL, street = 3210 Holly Mill Run, postalCode = 30062, CN = gov.us
        Subject Public Key Info:
            Public Key Algorithm: rsaEncryption
                Public-Key: (2048 bit)
                Modulus:
                    00:bf:b3:5d:3b:68:4e:02:0c:05:92:24:1f:a0:75:
                    d8:5c:11:94:3d:bb:70:46:f6:59:44:d5:21:f2:81:
                    c7:a9:eb:82:59:e6:3c:8b:cf:dd:38:f7:37:9a:15:
                    f4:d9:4b:57:81:2f:19:24:8f:cc:16:f4:76:92:05:
                    33:b0:59:2b:36:be:e5:86:e2:32:60:dd:5e:bc:b1:
                    bd:69:72:b3:31:c4:b2:68:04:a3:86:0c:16:3c:2a:
                    ae:e3:af:fb:f1:7e:b0:74:78:92:31:a3:d8:26:2d:
                    bd:52:65:f8:f6:c8:7e:2b:3d:44:53:74:a8:67:7a:
                    64:a9:9f:ae:80:c6:ef:cd:60:ea:a2:94:3f:ee:60:
                    82:75:1e:5d:1e:bf:ea:f9:9b:eb:44:b9:dc:de:d5:
                    a7:09:45:51:72:50:1b:d3:8c:62:56:2f:28:cc:44:
                    ac:19:76:a1:a7:6d:6b:5f:24:2c:83:21:6d:59:06:
                    c9:21:c7:a1:a3:d7:5f:c0:af:1e:41:f5:21:81:b7:
                    c6:60:ce:56:93:98:cd:b8:64:b6:89:da:5b:09:22:
                    94:c6:7a:53:c6:f8:18:c0:74:cc:05:5c:eb:92:1d:
                    9c:fc:40:b2:37:b8:bf:be:3c:40:29:e1:f5:63:f9:
                    06:32:96:87:ed:af:ab:42:1a:ef:a1:f8:9e:78:99:
                    75:43
                Exponent: 65537 (0x10001)
        X509v3 extensions:
            X509v3 Key Usage: critical
                Digital Signature, Key Encipherment
            X509v3 Extended Key Usage: 
                TLS Web Client Authentication, TLS Web Server Authentication
            X509v3 Basic Constraints: critical
                CA:FALSE
            X509v3 Authority Key Identifier: 
                keyid:01:02:03

            Authority Information Access: 
                OCSP - URI:http://theca.net/ocsp
                CA Issuers - URI:http://theca.net/totallythecert.crt

            X509v3 Certificate Policies: 
                Policy: 2.23.140.1.2.2

            X509v3 Subject Key Identifier: 
                04:03:02:01
            X509v3 Subject Alternative Name: 
                DNS:*.gov.us, DNS:gov.us
    Signature Algorithm: sha256WithRSAEncryption
         77:80:77:17:00:9f:b6:29:eb:92:89:a8:da:ee:8b:53:33:3b:
         df:b7:71:af:94:27:e8:fc:60:8a:34:7c:fd:fd:b6:fc:45:d5:
         2c:15:70:dc:66:9f:54:12:f0:31:0b:06:a1:ca:d8:8e:23:92:
         57:4a:43:dc:2f:cd:3c:33:58:46:3c:34:4e:f3:15:9e:02:66:
         12:a2:0b:33:22:9e:d0:54:40:4d:6e:1e:bc:a8:37:b3:ff:03:
         a7:16:88:66:6a:e5:a9:94:a1:cf:2e:83:6b:7a:f6:cb:84:48:
         ac:d8:2e:fc:c2:91:3f:24:13:b7:30:8b:e3:b7:12:16:9f:3a:
         73:d4:98:cf:b9:88:d1:95:51:4f:8c:0b:8c:29:8d:2c:9b:cc:
         5f:01:61:d0:cf:7d:af:7c:08:51:ad:22:23:c3:34:3b:8c:b8:
         62:8c:1d:66:5e:04:38:41:dc:fe:98:9c:3e:e4:bc:cd:50:90:
         42:96:91:0c:29:e1:32:6a:a0:3b:80:f5:37:ea:41:2b:59:25:
         43:34:62:7b:97:c4:d3:df:34:9f:98:77:a6:51:26:bc:5a:90:
         95:9e:cc:18:20:83:2c:6c:b9:5d:95:14:55:a9:91:c4:0c:2f:
         7a:fc:70:26:d3:f7:6b:26:ef:aa:1b:43:21:d7:d0:79:78:1b:
         23:47:9d:a7
-----BEGIN CERTIFICATE-----
MIIEYTCCA0mgAwIBAgIFBDFmk+0wDQYJKoZIhvcNAQELBQAwUjELMAkGA1UEBhMC
VVMxFjAUBgNVBAoTDU1vdGhlciBOYXR1cmUxEzARBgNVBAsTCkV2ZXJ5dGhpbmcx
FjAUBgNVBAMTDU1vdGhlciBOYXR1cmUwHhcNMTYwNzA1MTYyODA1WhcNMTYwOTE3
MTYyODA1WjCBmTELMAkGA1UEBhMCVVMxGDAWBgNVBAoTD0V4dHJlbWUgRGlzY29y
ZDEOMAwGA1UECxMFQ2hhb3MxFDASBgNVBAcTC1RhbGxhaGFzc2VlMQswCQYDVQQI
EwJGTDEcMBoGA1UECRMTMzIxMCBIb2xseSBNaWxsIFJ1bjEOMAwGA1UEERMFMzAw
NjIxDzANBgNVBAMTBmdvdi51czCCASIwDQYJKoZIhvcNAQEBBQADggEPADCCAQoC
ggEBAL+zXTtoTgIMBZIkH6B12FwRlD27cEb2WUTVIfKBx6nrglnmPIvP3Tj3N5oV
9NlLV4EvGSSPzBb0dpIFM7BZKza+5YbiMmDdXryxvWlyszHEsmgEo4YMFjwqruOv
+/F+sHR4kjGj2CYtvVJl+PbIfis9RFN0qGd6ZKmfroDG781g6qKUP+5ggnUeXR6/
6vmb60S53N7VpwlFUXJQG9OMYlYvKMxErBl2oadta18kLIMhbVkGySHHoaPXX8Cv
HkH1IYG3xmDOVpOYzbhktonaWwkilMZ6U8b4GMB0zAVc65IdnPxAsje4v748QCnh
9WP5BjKWh+2vq0Ia76H4nniZdUMCAwEAAaOB9TCB8jAOBgNVHQ8BAf8EBAMCBaAw
HQYDVR0lBBYwFAYIKwYBBQUHAwIGCCsGAQUFBwMBMAwGA1UdEwEB/wQCMAAwDgYD
VR0jBAcwBYADAQIDMGIGCCsGAQUFBwEBBFYwVDAhBggrBgEFBQcwAYYVaHR0cDov
L3RoZWNhLm5ldC9vY3NwMC8GCCsGAQUFBzAChiNodHRwOi8vdGhlY2EubmV0L3Rv
dGFsbHl0aGVjZXJ0LmNydDATBgNVHSAEDDAKMAgGBmeBDAECAjANBgNVHQ4EBgQE
BAMCATAbBgNVHREEFDASgggqLmdvdi51c4IGZ292LnVzMA0GCSqGSIb3DQEBCwUA
A4IBAQB3gHcXAJ+2KeuSiaja7otTMzvft3GvlCfo/GCKNHz9/bb8RdUsFXDcZp9U
EvAxCwahytiOI5JXSkPcL808M1hGPDRO8xWeAmYSogszIp7QVEBNbh68qDez/wOn
FohmauWplKHPLoNrevbLhEis2C78wpE/JBO3MIvjtxIWnzpz1JjPuYjRlVFPjAuM
KY0sm8xfAWHQz32vfAhRrSIjwzQ7jLhijB1mXgQ4Qdz+mJw+5LzNUJBClpEMKeEy
aqA7gPU36kErWSVDNGJ7l8TT3zSfmHemUSa8WpCVnswYIIMsbLldlRRVqZHEDC96
/HAm0/drJu+qG0Mh19B5eBsjR52n
-----END CERTIFICATE-----
