Certificate:
    Data:
        Version: 3 (0x2)
        Serial Number: 3 (0x3)
        Signature Algorithm: ecdsa-with-SHA256
        Issuer: 
        Validity
            Not Before: Sep  1 00:00:00 2023 GMT
            Not After : Nov 30 00:00:00 9998 GMT
        Subject: C = GB, organizationIdentifier = NTRGB-12345678
        Subject Public Key Info:
            Public Key Algorithm: id-ecPublicKey
                Public-Key: (256 bit)
                pub:
                    04:37:a6:d9:19:6d:90:51:59:5c:db:c2:a8:27:b1:
                    8d:c4:01:3b:87:cb:8d:5e:e9:1b:53:d2:e7:aa:9c:
                    06:58:85:89:8b:e1:70:9c:23:12:d6:c1:7b:6b:22:
                    6e:27:6b:01:a2:88:b6:77:90:a2:6d:f1:bf:26:04:
                    f0:f2:3a:82:93
                ASN1 OID: prime256v1
                NIST CURVE: P-256
        X509v3 extensions:
            X509v3 Certificate Policies: 
                Policy: 2.23.140.1.5.2.1
    Signature Algorithm: ecdsa-with-SHA256
    Signature Value:
        30:46:02:21:00:9b:2b:51:2d:88:ab:f2:44:5f:9c:b6:14:81:
        9c:c8:e3:21:e4:23:0d:9b:a0:71:77:b1:78:8c:da:a0:d3:a5:
        eb:02:21:00:a3:6b:34:38:a4:9c:b2:a6:f3:4e:30:6a:41:2a:
        aa:1f:9c:e3:84:98:4e:da:3a:bb:4e:06:46:2c:2c:ba:93:8b
-----BEGIN CERTIFICATE-----
MIIBLzCB1aADAgECAgEDMAoGCCqGSM49BAMCMAAwIBcNMjMwOTAxMDAwMDAwWhgP
OTk5ODExMzAwMDAwMDBaMCYxCzAJBgNVBAYTAkdCMRcwFQYDVQRhEw5OVFJHQi0x
MjM0NTY3ODBZMBMGByqGSM49AgEGCCqGSM49AwEHA0IABDem2RltkFFZXNvCqCex
jcQBO4fLjV7pG1PS56qcBliFiYvhcJwjEtbBe2sibidrAaKItneQom3xvyYE8PI6
gpOjGDAWMBQGA1UdIAQNMAswCQYHZ4EMAQUCATAKBggqhkjOPQQDAgNJADBGAiEA
mytRLYir8kRfnLYUgZzI4yHkIw2boHF3sXiM2qDTpesCIQCjazQ4pJyypvNOMGpB
KqofnOOEmE7aOrtOBkYsLLqTiw==
-----END CERTIFICATE-----