Certificate:
    Data:
        Version: 3 (0x2)
        Serial Number: 3 (0x3)
        Signature Algorithm: ecdsa-with-SHA256
        Issuer: 
        Validity
            Not Before: Sep  1 00:00:00 2023 GMT
            Not After : Nov 30 00:00:00 9998 GMT
        Subject: CN = unmatched@example.com
        Subject Public Key Info:
            Public Key Algorithm: id-ecPublicKey
                Public-Key: (256 bit)
                pub:
                    04:26:b9:6a:c2:88:bc:24:98:ab:63:d4:4a:f4:41:
                    b7:33:28:43:a4:60:d6:9a:9e:3f:4d:cc:37:43:6a:
                    6e:7d:8d:94:cd:bf:39:94:48:b1:2c:d4:6f:e2:a6:
                    2c:df:ce:6a:d7:a0:ea:e9:5e:c1:3c:ce:cb:c3:eb:
                    45:d5:0a:e8:c3
                ASN1 OID: prime256v1
                NIST CURVE: P-256
        X509v3 extensions:
            X509v3 Subject Alternative Name: 
                email:test@example.com
    Signature Algorithm: ecdsa-with-SHA256
    Signature Value:
        30:45:02:21:00:c7:bb:8e:ac:a1:d1:d7:6f:02:d0:f9:2d:e4:
        9a:f7:d0:91:d1:e6:90:65:3f:73:ef:79:cd:3a:45:8c:0e:59:
        3e:02:20:4e:e4:46:d4:05:a5:82:2e:ee:c3:a2:8f:6e:58:20:
        17:82:91:26:0c:38:62:00:12:ba:1e:cf:27:dc:77:d3:2b
-----BEGIN CERTIFICATE-----
MIIBLzCB1qADAgECAgEDMAoGCCqGSM49BAMCMAAwIBcNMjMwOTAxMDAwMDAwWhgP
OTk5ODExMzAwMDAwMDBaMCAxHjAcBgNVBAMMFXVubWF0Y2hlZEBleGFtcGxlLmNv
bTBZMBMGByqGSM49AgEGCCqGSM49AwEHA0IABCa5asKIvCSYq2PUSvRBtzMoQ6Rg
1pqeP03MN0Nqbn2NlM2/OZRIsSzUb+KmLN/Oateg6ulewTzOy8PrRdUK6MOjHzAd
MBsGA1UdEQQUMBKBEHRlc3RAZXhhbXBsZS5jb20wCgYIKoZIzj0EAwIDSAAwRQIh
AMe7jqyh0ddvAtD5LeSa99CR0eaQZT9z73nNOkWMDlk+AiBO5EbUBaWCLu7Doo9u
WCAXgpEmDDhiABK6Hs8n3HfTKw==
-----END CERTIFICATE-----

