Certificate:
    Data:
        Version: 3 (0x2)
        Serial Number: 3 (0x3)
    Signature Algorithm: ecdsa-with-SHA256
        Issuer: 
        Validity
            Not Before: Jan  1 00:00:00 0 GMT
            Not After : Nov 30 00:00:00 9998 GMT
        Subject: CN=test@example.com
        Subject Public Key Info:
            Public Key Algorithm: id-ecPublicKey
                Public-Key: (256 bit)
                pub:
                    04:27:76:32:bd:c0:68:3b:e1:18:89:fa:c1:ea:64:
                    d4:df:07:3d:b5:51:22:85:17:3c:c7:f7:d3:31:3e:
                    2a:fe:bd:f7:90:ee:5b:85:f6:2e:11:05:cf:7b:e5:
                    ed:38:ff:de:8a:58:26:93:83:55:67:c4:8b:53:6a:
                    db:cf:6c:78:8a
                ASN1 OID: prime256v1
                NIST CURVE: P-256
        X509v3 extensions:
            X509v3 Subject Alternative Name: critical
                othername:<unsupported>
    Signature Algorithm: ecdsa-with-SHA256
         30:44:02:20:6a:5c:82:60:82:b4:a4:80:44:83:df:84:91:cc:
         c3:c7:41:be:9d:34:03:1e:33:4b:f8:38:0d:e6:b9:5c:64:a3:
         02:20:7e:80:91:b2:02:0d:5a:6d:09:ce:6f:2c:52:ef:a0:05:
         6f:52:d1:76:46:1d:43:11:70:07:98:bd:62:1d:ba:40
-----BEGIN CERTIFICATE-----
MIIBVTCB/aADAgECAgEDMAoGCCqGSM49BAMCMAAwIhgPMDAwMDAxMDEwMDAwMDBa
GA85OTk4MTEzMDAwMDAwMFowGzEZMBcGA1UEAwwQdGVzdEBleGFtcGxlLmNvbTBZ
MBMGByqGSM49AgEGCCqGSM49AwEHA0IABCd2Mr3AaDvhGIn6wepk1N8HPbVRIoUX
PMf30zE+Kv6995DuW4X2LhEFz3vl7Tj/3opYJpODVWfEi1Nq289seIqjSTBHMEUG
A1UdEQEB/wQ7MDmgNwYIKwYBBQUHCAmgKwwpdGhpcyB2YWx1ZSBkb2VzIG5vdCBt
YXRjaCB0aGUgY29tbW9uIG5hbWUwCgYIKoZIzj0EAwIDRwAwRAIgalyCYIK0pIBE
g9+EkczDx0G+nTQDHjNL+DgN5rlcZKMCIH6AkbICDVptCc5vLFLvoAVvUtF2Rh1D
EXAHmL1iHbpA
-----END CERTIFICATE-----
