Certificate:
    Data:
        Version: 3 (0x2)
        Serial Number: 3 (0x3)
        Signature Algorithm: ecdsa-with-SHA256
        Issuer: 
        Validity
            Not Before: Aug 31 23:00:00 2023 GMT
            Not After : Nov 30 00:00:00 9998 GMT
        Subject: CN = unmatched@example.com
        Subject Public Key Info:
            Public Key Algorithm: id-ecPublicKey
                Public-Key: (256 bit)
                pub:
                    04:e8:78:25:8d:1c:67:c7:64:99:32:31:5c:4a:fa:
                    fd:9c:b8:37:f2:1e:51:28:9d:30:1f:75:73:d3:ae:
                    d9:b7:09:e0:ef:6f:18:76:8d:eb:35:e6:65:e1:60:
                    e8:bb:f6:01:ee:dc:3a:78:6c:7c:73:cb:15:08:fc:
                    4f:17:9a:c1:95
                ASN1 OID: prime256v1
                NIST CURVE: P-256
        X509v3 extensions:
            X509v3 Subject Alternative Name: 
                email:test@example.com
            X509v3 Certificate Policies: 
                Policy: 2.23.140.1.5.1.1
    Signature Algorithm: ecdsa-with-SHA256
    Signature Value:
        30:45:02:20:3a:43:d2:9b:15:b0:2b:f9:72:dd:74:6b:0d:76:
        96:e3:8d:91:f3:01:8c:4f:1f:7f:fd:49:4b:0f:a7:d8:c0:88:
        02:21:00:98:92:e3:e9:13:3b:98:4a:6a:16:4a:bd:86:b8:e0:
        ee:2f:4e:93:8d:e2:fb:66:a0:ca:38:77:0d:d0:f5:bd:54
-----BEGIN CERTIFICATE-----
MIIBRTCB7KADAgECAgEDMAoGCCqGSM49BAMCMAAwIBcNMjMwODMxMjMwMDAwWhgP
OTk5ODExMzAwMDAwMDBaMCAxHjAcBgNVBAMMFXVubWF0Y2hlZEBleGFtcGxlLmNv
bTBZMBMGByqGSM49AgEGCCqGSM49AwEHA0IABOh4JY0cZ8dkmTIxXEr6/Zy4N/Ie
USidMB91c9Ou2bcJ4O9vGHaN6zXmZeFg6Lv2Ae7cOnhsfHPLFQj8TxeawZWjNTAz
MBsGA1UdEQQUMBKBEHRlc3RAZXhhbXBsZS5jb20wFAYDVR0gBA0wCzAJBgdngQwB
BQEBMAoGCCqGSM49BAMCA0gAMEUCIDpD0psVsCv5ct10aw12luONkfMBjE8ff/1J
Sw+n2MCIAiEAmJLj6RM7mEpqFkq9hrjg7i9Ok43i+2agyjh3DdD1vVQ=
-----END CERTIFICATE-----

