Certificate:
    Data:
        Version: 3 (0x2)
        Serial Number:
            aa:18:43:0a:7d:61:0d:76:55:87:b4:e2
        Signature Algorithm: ecdsa-with-SHA256
        Issuer: CN = Lint CA, O = Lint, C = DE
        Validity
            Not Before: Sep  1 00:00:00 2023 GMT
            Not After : Sep  1 00:00:00 2024 GMT
        Subject: CN = Personal Name, O = Lint, C = DE
        Subject Public Key Info:
            Public Key Algorithm: id-ecPublicKey
                Public-Key: (256 bit)
                pub:
                    04:47:d8:e7:1c:93:d7:42:b2:b1:ce:36:0b:68:c1:
                    b7:78:c8:12:37:12:35:9a:c9:05:b8:f5:2e:d9:c1:
                    fe:4f:11:07:b7:21:11:14:a4:66:29:bc:47:7a:44:
                    98:1a:13:88:45:1c:46:80:0d:75:75:32:2f:4d:5d:
                    3d:0f:b4:2b:04
                ASN1 OID: prime256v1
                NIST CURVE: P-256
        X509v3 extensions:
            X509v3 Certificate Policies: 
                Policy: 2.23.140.1.5.3.2
            X509v3 Subject Alternative Name: 
                email:sanonly@example.com
    Signature Algorithm: ecdsa-with-SHA256
    Signature Value:
        30:45:02:20:62:8f:48:b0:70:38:0c:a9:f1:5a:59:ab:6b:a5:
        54:75:24:1f:4b:14:5e:c6:27:dc:b1:48:b5:cb:77:51:04:2d:
        02:21:00:dd:bd:d3:5b:1d:0e:47:15:34:45:4c:a2:43:bb:0b:
        de:58:39:d2:ee:75:10:c5:5e:59:19:05:85:b4:43:cd:9f
-----BEGIN CERTIFICATE-----
MIIBlTCCATugAwIBAgINAKoYQwp9YQ12VYe04jAKBggqhkjOPQQDAjAuMRAwDgYD
VQQDDAdMaW50IENBMQ0wCwYDVQQKDARMaW50MQswCQYDVQQGEwJERTAeFw0yMzA5
MDEwMDAwMDBaFw0yNDA5MDEwMDAwMDBaMDQxFjAUBgNVBAMMDVBlcnNvbmFsIE5h
bWUxDTALBgNVBAoMBExpbnQxCzAJBgNVBAYTAkRFMFkwEwYHKoZIzj0CAQYIKoZI
zj0DAQcDQgAER9jnHJPXQrKxzjYLaMG3eMgSNxI1mskFuPUu2cH+TxEHtyERFKRm
KbxHekSYGhOIRRxGgA11dTIvTV09D7QrBKM4MDYwFAYDVR0gBA0wCzAJBgdngQwB
BQMCMB4GA1UdEQQXMBWBE3Nhbm9ubHlAZXhhbXBsZS5jb20wCgYIKoZIzj0EAwID
SAAwRQIgYo9IsHA4DKnxWlmra6VUdSQfSxRexifcsUi1y3dRBC0CIQDdvdNbHQ5H
FTRFTKJDuwveWDnS7nUQxV5ZGQWFtEPNnw==
-----END CERTIFICATE-----
