Certificate:
    Data:
        Version: 3 (0x2)
        Serial Number:
            e7:55:11:47:5d:8f:22:0b:ef:3b:81:c3
        Signature Algorithm: ecdsa-with-SHA256
        Issuer: CN = Lint CA, O = Lint, C = DE
        Validity
            Not Before: Sep  1 00:00:00 2023 GMT
            Not After : Sep  1 00:00:00 2024 GMT
        Subject: emailAddress = zlint@example.com, O = Lint, C = DE
        Subject Public Key Info:
            Public Key Algorithm: id-ecPublicKey
                Public-Key: (256 bit)
                pub:
                    04:04:fe:3e:21:f9:28:32:5b:1b:dd:01:ef:44:43:
                    fa:0d:40:a0:44:36:14:52:a8:2b:93:c8:b0:5f:5f:
                    16:49:b6:dc:84:29:ec:2a:cd:8f:d8:6e:21:1c:d0:
                    ca:df:fb:a5:48:7a:da:1f:84:97:5d:99:1e:5c:ef:
                    18:8e:90:94:c6
                ASN1 OID: prime256v1
                NIST CURVE: P-256
        X509v3 extensions:
            X509v3 Certificate Policies: 
                Policy: 2.23.140.1.5.3.2
            X509v3 Subject Alternative Name: 
                email:diff@example.com
    Signature Algorithm: ecdsa-with-SHA256
    Signature Value:
        30:44:02:20:2d:bd:d5:2d:dc:d9:ad:7d:8d:29:52:83:56:f0:
        f5:1e:6d:ec:51:55:c8:93:1e:13:19:4d:66:c3:a6:74:23:19:
        02:20:43:30:15:b7:e8:69:6c:cf:4e:20:c6:18:45:f2:32:5a:
        80:68:fb:b1:27:43:83:5c:f8:e3:1f:3c:10:cf:68:40
-----BEGIN CERTIFICATE-----
MIIBmzCCAUKgAwIBAgINAOdVEUddjyIL7zuBwzAKBggqhkjOPQQDAjAuMRAwDgYD
VQQDDAdMaW50IENBMQ0wCwYDVQQKDARMaW50MQswCQYDVQQGEwJERTAeFw0yMzA5
MDEwMDAwMDBaFw0yNDA5MDEwMDAwMDBaMD4xIDAeBgkqhkiG9w0BCQEWEXpsaW50
QGV4YW1wbGUuY29tMQ0wCwYDVQQKDARMaW50MQswCQYDVQQGEwJERTBZMBMGByqG
SM49AgEGCCqGSM49AwEHA0IABAT+PiH5KDJbG90B70RD+g1AoEQ2FFKoK5PIsF9f
Fkm23IQp7CrNj9huIRzQyt/7pUh62h+El12ZHlzvGI6QlMajNTAzMBQGA1UdIAQN
MAswCQYHZ4EMAQUDAjAbBgNVHREEFDASgRBkaWZmQGV4YW1wbGUuY29tMAoGCCqG
SM49BAMCA0cAMEQCIC291S3c2a19jSlSg1bw9R5t7FFVyJMeExlNZsOmdCMZAiBD
MBW36Glsz04gxhhF8jJagGj7sSdDg1z44x88EM9oQA==
-----END CERTIFICATE-----
