Certificate:
    Data:
        Version: 3 (0x2)
        Serial Number: 3 (0x3)
    Signature Algorithm: ecdsa-with-SHA256
        Issuer:
        Validity
            Not Before: Jan  1 00:00:00 0 GMT
            Not After : Nov 30 00:00:00 9998 GMT
        Subject: CN=test@example.com
        Subject Public Key Info:
            Public Key Algorithm: id-ecPublicKey
                Public-Key: (256 bit)
                pub:
                    04:4d:92:ed:6a:61:d6:f0:63:8c:80:03:a8:64:88:
                    19:8d:18:d5:25:63:71:f6:7c:7f:fd:94:ae:cb:fd:
                    c8:19:27:2e:83:7d:2b:e8:fc:26:80:c5:3f:54:aa:
                    56:99:0b:0a:af:ff:55:f7:3b:d2:91:9a:e1:da:5c:
                    78:e2:2d:ae:87
                ASN1 OID: prime256v1
                NIST CURVE: P-256
        X509v3 extensions:
            X509v3 Certificate Policies:
                Policy: 2.23.140.1.5.1.1

            X509v3 Subject Alternative Name: critical
                othername:<unsupported>
    Signature Algorithm: ecdsa-with-SHA256
         30:45:02:20:7e:47:f8:01:cd:9c:dc:e4:cc:fb:e2:50:06:67:
         84:cf:aa:c6:d0:ee:70:48:f6:53:ba:e7:db:40:ac:30:4b:35:
         02:21:00:96:19:07:5f:f5:a9:19:a2:c3:00:59:d4:e2:7d:bd:
         16:42:c0:2e:cf:7f:ff:25:68:08:4f:23:94:5c:7f:93:ad
-----BEGIN CERTIFICATE-----
MIIBTjCB9aADAgECAgEDMAoGCCqGSM49BAMCMAAwIhgPMDAwMDAxMDEwMDAwMDBa
GA85OTk4MTEzMDAwMDAwMFowGzEZMBcGA1UEAwwQdGVzdEBleGFtcGxlLmNvbTBZ
MBMGByqGSM49AgEGCCqGSM49AwEHA0IABE2S7Wph1vBjjIADqGSIGY0Y1SVjcfZ8
f/2Ursv9yBknLoN9K+j8JoDFP1SqVpkLCq//Vfc70pGa4dpceOItroejQTA/MBQG
A1UdIAQNMAswCQYHZ4EMAQUBATAnBgNVHREBAf8EHTAboBkGCCsGAQUFBwgJoA0M
C25vdCBhIG1hdGNoMAoGCCqGSM49BAMCA0gAMEUCIH5H+AHNnNzkzPviUAZnhM+q
xtDucEj2U7rn20CsMEs1AiEAlhkHX/WpGaLDAFnU4n29FkLALs9//yVoCE8jlFx/
k60=
-----END CERTIFICATE-----
