Certificate:
    Data:
        Version: 3 (0x2)
        Serial Number: 3 (0x3)
    Signature Algorithm: ecdsa-with-SHA256
        Issuer:
        Validity
            Not Before: Jan  1 00:00:00 0 GMT
            Not After : Nov 30 00:00:00 9998 GMT
        Subject: CN=test@example.com
        Subject Public Key Info:
            Public Key Algorithm: id-ecPublicKey
                Public-Key: (256 bit)
                pub:
                    04:ee:d6:0c:34:aa:88:1c:8c:71:a9:7b:8d:3d:e9:
                    d9:63:18:22:a7:7a:94:fe:0a:74:31:e4:0c:67:37:
                    15:1d:12:39:e0:32:ab:79:29:8e:14:67:b0:c9:d6:
                    9d:da:e7:c6:e0:23:4b:4a:60:f2:75:24:f1:3f:1e:
                    16:fe:e6:e1:cc
                ASN1 OID: prime256v1
                NIST CURVE: P-256
        X509v3 extensions:
            X509v3 Certificate Policies:
                Policy: 2.23.140.1.5.1.1

            X509v3 Subject Alternative Name: critical
                othername:<unsupported>
    Signature Algorithm: ecdsa-with-SHA256
         30:45:02:21:00:de:88:2f:09:52:6a:15:ff:6f:de:5d:48:2c:
         40:4f:60:00:dd:a1:3c:07:70:49:c3:0c:de:da:15:a7:e1:d2:
         82:02:20:36:be:cc:ab:37:e4:0a:75:92:dc:9d:99:d7:5d:b7:
         1f:6f:87:db:36:b1:00:60:7b:e9:3a:d4:9a:52:1f:2c:95
-----BEGIN CERTIFICATE-----
MIIBWzCCAQGgAwIBAgIBAzAKBggqhkjOPQQDAjAAMCIYDzAwMDAwMTAxMDAwMDAw
WhgPOTk5ODExMzAwMDAwMDBaMBsxGTAXBgNVBAMMEHRlc3RAZXhhbXBsZS5jb20w
WTATBgcqhkjOPQIBBggqhkjOPQMBBwNCAATu1gw0qogcjHGpe4096dljGCKnepT+
CnQx5AxnNxUdEjngMqt5KY4UZ7DJ1p3a58bgI0tKYPJ1JPE/Hhb+5uHMo00wSzAU
BgNVHSAEDTALMAkGB2eBDAEFAQEwMwYDVR0RAQH/BCkwJ6AlBggrBgEFBQcICaAZ
DBdhbm90aGVydGVzdEBleGFtcGxlLmNvbTAKBggqhkjOPQQDAgNIADBFAiEA3ogv
CVJqFf9v3l1ILEBPYADdoTwHcEnDDN7aFafh0oICIDa+zKs35Ap1ktydmdddtx9v
h9s2sQBge+k61JpSHyyV
-----END CERTIFICATE-----
