Certificate:
    Data:
        Version: 3 (0x2)
        Serial Number: 3 (0x3)
        Signature Algorithm: ecdsa-with-SHA256
        Issuer: 
        Validity
            Not Before: Sep  1 00:00:00 2023 GMT
            Not After : Nov 30 00:00:00 9998 GMT
        Subject: CN = test@example.com
        Subject Public Key Info:
            Public Key Algorithm: id-ecPublicKey
                Public-Key: (256 bit)
                pub:
                    04:0b:af:6b:67:c2:cd:db:66:05:ed:6f:30:23:33:
                    e7:cc:cf:61:a2:b3:c8:9b:7c:d2:52:07:ff:86:c6:
                    1e:fa:3c:4f:f8:65:30:79:c8:da:d3:3f:42:f8:c3:
                    15:f1:47:ac:7b:35:fd:d9:b2:cd:f3:ad:05:7d:a8:
                    1c:ef:8a:3f:c8
                ASN1 OID: prime256v1
                NIST CURVE: P-256
        X509v3 extensions:
            X509v3 Subject Alternative Name: 
                email:test@example.com
            X509v3 Certificate Policies: 
                Policy: 2.23.140.1.5.1.1
    Signature Algorithm: ecdsa-with-SHA256
    Signature Value:
        30:45:02:21:00:b6:87:bd:d9:b6:dc:97:69:67:35:ab:e2:37:
        77:30:01:20:0a:41:18:2d:d7:2a:3f:d6:14:77:e9:67:b9:33:
        7d:02:20:62:d9:30:56:13:82:d6:2f:f8:62:90:d5:f3:3a:52:
        1c:b5:b6:11:59:f9:b1:4b:26:2d:8d:7c:4e:8c:ea:26:21
-----BEGIN CERTIFICATE-----
MIIBQDCB56ADAgECAgEDMAoGCCqGSM49BAMCMAAwIBcNMjMwOTAxMDAwMDAwWhgP
OTk5ODExMzAwMDAwMDBaMBsxGTAXBgNVBAMMEHRlc3RAZXhhbXBsZS5jb20wWTAT
BgcqhkjOPQIBBggqhkjOPQMBBwNCAAQLr2tnws3bZgXtbzAjM+fMz2Gis8ibfNJS
B/+Gxh76PE/4ZTB5yNrTP0L4wxXxR6x7Nf3Zss3zrQV9qBzvij/IozUwMzAbBgNV
HREEFDASgRB0ZXN0QGV4YW1wbGUuY29tMBQGA1UdIAQNMAswCQYHZ4EMAQUBATAK
BggqhkjOPQQDAgNIADBFAiEAtoe92bbcl2lnNaviN3cwASAKQRgt1yo/1hR36We5
M30CIGLZMFYTgtYv+GKQ1fM6Uhy1thFZ+bFLJi2NfE6M6iYh
-----END CERTIFICATE-----

