Certificate:
    Data:
        Version: 3 (0x2)
        Serial Number: 3 (0x3)
    Signature Algorithm: ecdsa-with-SHA256
        Issuer: 
        Validity
            Not Before: Jan  1 00:00:00 0 GMT
            Not After : Nov 30 00:00:00 9998 GMT
        Subject:
        Subject Public Key Info:
            Public Key Algorithm: id-ecPublicKey
                Public-Key: (256 bit)
                pub:
                    04:f4:05:c9:ed:e7:9f:2f:19:e7:fe:22:a6:b0:76:
                    55:60:c4:0a:f9:9a:02:a6:e3:92:ea:07:17:b2:69:
                    29:3a:28:6b:76:4b:06:a7:ab:e3:86:25:d2:37:f0:
                    58:94:ab:36:71:a0:b8:76:d9:7e:a1:2e:e1:bf:2a:
                    01:7e:f8:bb:3a
                ASN1 OID: prime256v1
                NIST CURVE: P-256
        X509v3 extensions:
            X509v3 Subject Alternative Name:
                email:test@example.com
            X509v3 Certificate Policies:
                Policy: 2.23.140.1.5.1.1

    Signature Algorithm: ecdsa-with-SHA256
         30:45:02:21:00:cf:03:c5:60:bf:25:4d:3f:eb:aa:b9:01:b1:
         8f:9e:9e:02:0c:78:b8:b4:48:24:6e:3c:84:7d:00:40:cd:67:
         67:02:20:58:5f:1c:6b:29:15:cc:0b:17:42:e7:dc:4b:59:4f:
         06:75:b9:ac:89:00:71:b6:97:03:ba:43:2c:77:03:df:51
-----BEGIN CERTIFICATE-----
MIIBJzCBzqADAgECAgEDMAoGCCqGSM49BAMCMAAwIhgPMDAwMDAxMDEwMDAwMDBa
GA85OTk4MTEzMDAwMDAwMFowADBZMBMGByqGSM49AgEGCCqGSM49AwEHA0IABPQF
ye3nny8Z5/4iprB2VWDECvmaAqbjkuoHF7JpKTooa3ZLBqer44Yl0jfwWJSrNnGg
uHbZfqEu4b8qAX74uzqjNTAzMBsGA1UdEQQUMBKBEHRlc3RAZXhhbXBsZS5jb20w
FAYDVR0gBA0wCzAJBgdngQwBBQEBMAoGCCqGSM49BAMCA0gAMEUCIQDPA8VgvyVN
P+uquQGxj56eAgx4uLRIJG48hH0AQM1nZwIgWF8caykVzAsXQufcS1lPBnW5rIkA
cbaXA7pDLHcD31E=
-----END CERTIFICATE-----
