Certificate:
    Data:
        Version: 3 (0x2)
        Serial Number: 3 (0x3)
    Signature Algorithm: ecdsa-with-SHA256
        Issuer:
        Validity
            Not Before: Jan  1 00:00:00 0 GMT
            Not After : Nov 30 00:00:00 9998 GMT
        Subject: CN=does-not-match-san-email@example.com
        Subject Public Key Info:
            Public Key Algorithm: id-ecPublicKey
                Public-Key: (256 bit)
                pub:
                    04:04:a5:8a:a9:24:93:ac:92:d3:8b:81:ca:f2:ea:
                    12:d4:b8:15:78:9e:57:d2:52:85:e0:02:ae:06:cb:
                    21:e1:cf:04:e0:f6:0c:e6:37:e1:10:6b:0c:81:86:
                    9a:76:cc:f7:cd:62:da:39:24:f5:f4:30:67:ad:01:
                    0e:81:4e:66:e0
                ASN1 OID: prime256v1
                NIST CURVE: P-256
        X509v3 extensions:
            X509v3 Subject Alternative Name:
                email:test@example.com
            X509v3 Certificate Policies:
                Policy: 2.23.140.1.5.1.1

    Signature Algorithm: ecdsa-with-SHA256
         30:45:02:20:20:6c:2c:2b:42:99:cb:f0:de:77:ca:71:97:c0:
         cb:b6:f7:63:16:94:09:70:1b:08:e1:87:16:a0:79:db:06:73:
         02:21:00:b0:ae:9c:10:3c:81:a2:64:fd:cc:ab:7e:9e:b8:0f:
         3e:50:6d:70:fb:2d:c0:22:b6:0f:aa:25:7a:e5:a6:17:c4
-----BEGIN CERTIFICATE-----
MIIBVjCB/aADAgECAgEDMAoGCCqGSM49BAMCMAAwIhgPMDAwMDAxMDEwMDAwMDBa
GA85OTk4MTEzMDAwMDAwMFowLzEtMCsGA1UEAwwkZG9lcy1ub3QtbWF0Y2gtc2Fu
LWVtYWlsQGV4YW1wbGUuY29tMFkwEwYHKoZIzj0CAQYIKoZIzj0DAQcDQgAEBKWK
qSSTrJLTi4HK8uoS1LgVeJ5X0lKF4AKuBssh4c8E4PYM5jfhEGsMgYaadsz3zWLa
OST19DBnrQEOgU5m4KM1MDMwGwYDVR0RBBQwEoEQdGVzdEBleGFtcGxlLmNvbTAU
BgNVHSAEDTALMAkGB2eBDAEFAQEwCgYIKoZIzj0EAwIDSAAwRQIgIGwsK0KZy/De
d8pxl8DLtvdjFpQJcBsI4YcWoHnbBnMCIQCwrpwQPIGiZP3Mq36euA8+UG1w+y3A
IrYPqiV65aYXxA==
-----END CERTIFICATE-----
