Certificate:
    Data:
        Version: 3 (0x2)
        Serial Number: 3 (0x3)
        Signature Algorithm: ecdsa-with-SHA256
        Issuer: 
        Validity
            Not Before: Sep  1 00:00:00 2023 GMT
            Not After : Nov 30 00:00:00 9998 GMT
        Subject: CN = test@example.com
        Subject Public Key Info:
            Public Key Algorithm: id-ecPublicKey
                Public-Key: (256 bit)
                pub:
                    04:d0:34:91:6f:e3:95:da:54:c8:8c:2b:91:97:bc:
                    ec:7b:85:be:9f:42:f1:17:e2:e3:bb:d3:0b:67:8f:
                    fb:34:4c:9a:45:be:cd:12:46:13:9f:28:61:b9:17:
                    05:cc:c5:a7:d5:b2:17:dd:68:3d:61:33:a2:f6:db:
                    c7:d9:ea:0d:7a
                ASN1 OID: prime256v1
                NIST CURVE: P-256
        X509v3 extensions:
            X509v3 Certificate Policies: 
                Policy: 2.23.140.1.5.1.1
            X509v3 Subject Alternative Name: critical
                othername: id-on-personalData::test@example.com
    Signature Algorithm: ecdsa-with-SHA256
    Signature Value:
        30:45:02:21:00:f1:a7:1a:40:59:15:5e:4c:01:c6:0d:92:37:
        5f:3c:6c:33:be:d8:29:d2:fc:c9:c7:76:c7:66:88:bf:e8:ab:
        df:02:20:7a:2f:09:65:b9:09:46:2c:e7:9f:0b:13:82:ad:c9:
        f5:db:f1:0d:ff:ed:e8:e4:17:26:ac:16:cd:0d:54:4f:41
-----BEGIN CERTIFICATE-----
MIIBUTCB+KADAgECAgEDMAoGCCqGSM49BAMCMAAwIBcNMjMwOTAxMDAwMDAwWhgP
OTk5ODExMzAwMDAwMDBaMBsxGTAXBgNVBAMMEHRlc3RAZXhhbXBsZS5jb20wWTAT
BgcqhkjOPQIBBggqhkjOPQMBBwNCAATQNJFv45XaVMiMK5GXvOx7hb6fQvEX4uO7
0wtnj/s0TJpFvs0SRhOfKGG5FwXMxafVshfdaD1hM6L228fZ6g16o0YwRDAUBgNV
HSAEDTALMAkGB2eBDAEFAQEwLAYDVR0RAQH/BCIwIKAeBggrBgEFBQcIAaASDBB0
ZXN0QGV4YW1wbGUuY29tMAoGCCqGSM49BAMCA0gAMEUCIQDxpxpAWRVeTAHGDZI3
XzxsM77YKdL8ycd2x2aIv+ir3wIgei8JZbkJRiznnwsTgq3J9dvxDf/t6OQXJqwW
zQ1UT0E=
-----END CERTIFICATE-----

