Certificate:
    Data:
        Version: 3 (0x2)
        Serial Number: 3 (0x3)
        Signature Algorithm: ecdsa-with-SHA256
        Issuer: 
        Validity
            Not Before: Sep  1 00:00:00 2023 GMT
            Not After : Nov 30 00:00:00 9998 GMT
        Subject: CN = unmatched@example.com
        Subject Public Key Info:
            Public Key Algorithm: id-ecPublicKey
                Public-Key: (256 bit)
                pub:
                    04:6a:9b:c4:ad:66:96:5d:56:6d:df:31:3c:b4:16:
                    8a:88:1d:87:14:b2:aa:9a:00:75:dc:52:b5:81:9e:
                    71:04:1b:32:d7:c2:0d:29:6f:54:7b:25:6f:67:73:
                    dd:6d:43:bf:eb:07:41:29:9e:2f:03:f1:ac:05:01:
                    13:f3:b4:a1:da
                ASN1 OID: prime256v1
                NIST CURVE: P-256
        X509v3 extensions:
            X509v3 Subject Alternative Name: 
                email:test@example.com
            X509v3 Certificate Policies: 
                Policy: 2.23.140.1.5.1.1
    Signature Algorithm: ecdsa-with-SHA256
    Signature Value:
        30:45:02:20:23:e0:6f:5e:74:ec:4c:ae:55:79:93:72:07:cf:
        3f:02:e7:b9:bc:e8:21:af:dc:77:42:6a:cd:65:2c:51:72:fc:
        02:21:00:cf:c4:ee:48:fe:45:c6:ef:11:89:83:f7:75:8c:ba:
        99:89:d0:d1:7f:16:1b:3c:bb:14:24:b0:df:9b:c0:28:c0
-----BEGIN CERTIFICATE-----
MIIBRTCB7KADAgECAgEDMAoGCCqGSM49BAMCMAAwIBcNMjMwOTAxMDAwMDAwWhgP
OTk5ODExMzAwMDAwMDBaMCAxHjAcBgNVBAMMFXVubWF0Y2hlZEBleGFtcGxlLmNv
bTBZMBMGByqGSM49AgEGCCqGSM49AwEHA0IABGqbxK1mll1Wbd8xPLQWiogdhxSy
qpoAddxStYGecQQbMtfCDSlvVHslb2dz3W1Dv+sHQSmeLwPxrAUBE/O0odqjNTAz
MBsGA1UdEQQUMBKBEHRlc3RAZXhhbXBsZS5jb20wFAYDVR0gBA0wCzAJBgdngQwB
BQEBMAoGCCqGSM49BAMCA0gAMEUCICPgb1507EyuVXmTcgfPPwLnubzoIa/cd0Jq
zWUsUXL8AiEAz8TuSP5Fxu8RiYP3dYy6mYnQ0X8WGzy7FCSw35vAKMA=
-----END CERTIFICATE-----

