Certificate:
    Data:
        Version: 3 (0x2)
        Serial Number: 3 (0x3)
        Signature Algorithm: ecdsa-with-SHA256
        Issuer: 
        Validity
            Not Before: Sep  1 00:00:00 2023 GMT
            Not After : Nov 30 00:00:00 9998 GMT
        Subject: CN = unmatched@example.com
        Subject Public Key Info:
            Public Key Algorithm: id-ecPublicKey
                Public-Key: (256 bit)
                pub:
                    04:ad:23:6e:fc:33:09:49:33:2a:cd:b8:88:fb:f0:
                    6f:ee:37:49:9e:cf:60:54:20:96:e3:63:33:b0:87:
                    44:7d:c4:50:20:d5:b3:66:bc:1a:1e:11:1b:80:d2:
                    8e:ad:be:ff:5c:e5:48:e6:ea:ad:35:60:c8:0b:fb:
                    da:a7:f2:04:b8
                ASN1 OID: prime256v1
                NIST CURVE: P-256
        X509v3 extensions:
            X509v3 Certificate Policies: 
                Policy: 2.23.140.1.5.1.1
            X509v3 Subject Alternative Name: critical
                othername: SmtpUTF8Mailbox::test@example.com
    Signature Algorithm: ecdsa-with-SHA256
    Signature Value:
        30:45:02:20:21:22:9c:10:f3:b0:e9:a1:e4:6a:1c:8b:a6:51:
        99:f3:90:65:59:fe:0b:09:5e:fe:51:b5:8e:39:45:ae:82:61:
        02:21:00:dc:b2:43:ca:75:8d:0a:c4:9e:fb:51:17:24:78:38:
        35:c0:60:cf:41:49:68:9d:52:7d:22:8b:c8:7a:a9:8e:45
-----BEGIN CERTIFICATE-----
MIIBVjCB/aADAgECAgEDMAoGCCqGSM49BAMCMAAwIBcNMjMwOTAxMDAwMDAwWhgP
OTk5ODExMzAwMDAwMDBaMCAxHjAcBgNVBAMMFXVubWF0Y2hlZEBleGFtcGxlLmNv
bTBZMBMGByqGSM49AgEGCCqGSM49AwEHA0IABK0jbvwzCUkzKs24iPvwb+43SZ7P
YFQgluNjM7CHRH3EUCDVs2a8Gh4RG4DSjq2+/1zlSObqrTVgyAv72qfyBLijRjBE
MBQGA1UdIAQNMAswCQYHZ4EMAQUBATAsBgNVHREBAf8EIjAgoB4GCCsGAQUFBwgJ
oBIMEHRlc3RAZXhhbXBsZS5jb20wCgYIKoZIzj0EAwIDSAAwRQIgISKcEPOw6aHk
ahyLplGZ85BlWf4LCV7+UbWOOUWugmECIQDcskPKdY0KxJ77URckeDg1wGDPQUlo
nVJ9IovIeqmORQ==
-----END CERTIFICATE-----

