Certificate:
    Data:
        Version: 3 (0x2)
        Serial Number: 3 (0x3)
        Signature Algorithm: ecdsa-with-SHA256
        Issuer: 
        Validity
            Not Before: Sep  1 00:00:00 2023 GMT
            Not After : Nov 30 00:00:00 9998 GMT
        Subject: CN = test@example.com
        Subject Public Key Info:
            Public Key Algorithm: id-ecPublicKey
                Public-Key: (256 bit)
                pub:
                    04:c1:81:4f:04:36:02:fc:9a:a0:76:51:81:8e:aa:
                    d8:6c:6d:b0:4f:44:30:04:da:c6:28:14:31:21:25:
                    87:b1:63:19:d8:e5:3f:e4:fd:0e:4a:e8:fa:ae:c7:
                    69:42:b1:d3:59:5a:39:07:f7:c7:39:c3:38:32:fd:
                    c7:ca:95:36:45
                ASN1 OID: prime256v1
                NIST CURVE: P-256
        X509v3 extensions:
            X509v3 Certificate Policies: 
                Policy: 2.23.140.1.5.1.1
            X509v3 Subject Alternative Name: critical
                othername: SmtpUTF8Mailbox::test@example.com
    Signature Algorithm: ecdsa-with-SHA256
    Signature Value:
        30:45:02:20:1b:0c:2f:00:ca:69:20:a0:8d:75:2b:90:96:57:
        ad:7a:bb:98:64:5f:26:11:f6:aa:d7:f2:88:b1:dd:3c:67:2f:
        02:21:00:f9:62:c4:c5:4c:51:05:88:eb:d3:d9:ea:32:6e:74:
        aa:fa:59:1a:a8:d4:55:44:cd:84:27:0d:1d:74:6f:12:54
-----BEGIN CERTIFICATE-----
MIIBUTCB+KADAgECAgEDMAoGCCqGSM49BAMCMAAwIBcNMjMwOTAxMDAwMDAwWhgP
OTk5ODExMzAwMDAwMDBaMBsxGTAXBgNVBAMMEHRlc3RAZXhhbXBsZS5jb20wWTAT
BgcqhkjOPQIBBggqhkjOPQMBBwNCAATBgU8ENgL8mqB2UYGOqthsbbBPRDAE2sYo
FDEhJYexYxnY5T/k/Q5K6Pqux2lCsdNZWjkH98c5wzgy/cfKlTZFo0YwRDAUBgNV
HSAEDTALMAkGB2eBDAEFAQEwLAYDVR0RAQH/BCIwIKAeBggrBgEFBQcICaASDBB0
ZXN0QGV4YW1wbGUuY29tMAoGCCqGSM49BAMCA0gAMEUCIBsMLwDKaSCgjXUrkJZX
rXq7mGRfJhH2qtfyiLHdPGcvAiEA+WLExUxRBYjr09nqMm50qvpZGqjUVUTNhCcN
HXRvElQ=
-----END CERTIFICATE-----

