Certificate:
    Data:
        Version: 3 (0x2)
        Serial Number:
            6e:77:64:8f:2d:ca:f7:67:b9:66:ea:33
        Signature Algorithm: ecdsa-with-SHA256
        Issuer: CN = Lint CA, O = Lint, C = DE
        Validity
            Not Before: Sep  1 00:00:00 2023 GMT
            Not After : Sep  1 00:00:00 2024 GMT
        Subject: 
        Subject Public Key Info:
            Public Key Algorithm: id-ecPublicKey
                Public-Key: (256 bit)
                pub:
                    04:bc:08:e7:53:65:a4:14:04:48:b0:2c:35:bb:59:
                    62:b5:4e:86:2b:d6:a5:0e:33:37:0f:83:a4:a2:8f:
                    4d:63:70:19:1c:a0:4b:1d:45:b1:f4:12:b8:9f:27:
                    56:71:0f:d1:af:02:bb:a2:9f:35:c3:14:cd:13:68:
                    04:40:ec:89:b6
                ASN1 OID: prime256v1
                NIST CURVE: P-256
        X509v3 extensions:
            X509v3 Certificate Policies: 
                Policy: 2.23.140.1.5.3.2
            X509v3 Subject Alternative Name: critical
                othername: SmtpUTF8Mailbox::test@example.com
    Signature Algorithm: ecdsa-with-SHA256
    Signature Value:
        30:45:02:20:20:d3:d2:af:09:14:23:91:a6:2a:10:ce:9b:9f:
        32:d8:f9:43:7c:a0:7e:b4:1a:c8:5e:0a:90:6f:d6:d5:ba:c8:
        02:21:00:f4:d7:50:77:27:12:3e:31:d7:4a:60:44:c6:8b:f7:
        0d:5d:a0:d6:e2:12:02:a5:ce:21:92:e4:ef:19:c9:86:c8
-----BEGIN CERTIFICATE-----
MIIBbjCCARSgAwIBAgIMbndkjy3K92e5ZuozMAoGCCqGSM49BAMCMC4xEDAOBgNV
BAMMB0xpbnQgQ0ExDTALBgNVBAoMBExpbnQxCzAJBgNVBAYTAkRFMB4XDTIzMDkw
MTAwMDAwMFoXDTI0MDkwMTAwMDAwMFowADBZMBMGByqGSM49AgEGCCqGSM49AwEH
A0IABLwI51NlpBQESLAsNbtZYrVOhivWpQ4zNw+DpKKPTWNwGRygSx1FsfQSuJ8n
VnEP0a8Cu6KfNcMUzRNoBEDsibajRjBEMBQGA1UdIAQNMAswCQYHZ4EMAQUDAjAs
BgNVHREBAf8EIjAgoB4GCCsGAQUFBwgJoBIMEHRlc3RAZXhhbXBsZS5jb20wCgYI
KoZIzj0EAwIDSAAwRQIgINPSrwkUI5GmKhDOm58y2PlDfKB+tBrIXgqQb9bVusgC
IQD011B3JxI+MddKYETGi/cNXaDW4hICpc4hkuTvGcmGyA==
-----END CERTIFICATE-----
