Certificate:
    Data:
        Version: 3 (0x2)
        Serial Number: 3 (0x3)
    Signature Algorithm: ecdsa-with-SHA256
        Issuer: 
        Validity
            Not Before: Jan  1 00:00:00 0 GMT
            Not After : Nov 30 00:00:00 9998 GMT
        Subject:
        Subject Public Key Info:
            Public Key Algorithm: id-ecPublicKey
                Public-Key: (256 bit)
                pub:
                    04:4b:89:11:9f:71:cd:9f:36:7f:85:e8:43:81:37:
                    c5:15:ab:81:ff:2a:e7:d7:13:fb:41:a0:1e:94:44:
                    8d:9c:f0:20:62:51:9c:b2:17:29:ca:87:7a:1f:28:
                    9c:32:8e:ee:95:bd:a7:c9:dc:58:b1:b9:48:33:f7:
                    5c:1c:32:ef:cc
                ASN1 OID: prime256v1
                NIST CURVE: P-256
        X509v3 extensions:
            X509v3 Certificate Policies:
                Policy: 2.23.140.1.5.1.1

            X509v3 Subject Alternative Name: critical
                othername:<unsupported>
    Signature Algorithm: ecdsa-with-SHA256
         30:44:02:20:51:bb:6a:c2:9b:dd:b3:0e:35:90:c4:f5:6d:91:
         e8:a7:a3:5c:f5:13:88:67:8d:66:0d:48:86:94:0d:2c:a8:92:
         02:20:15:2a:0c:cf:3f:f2:88:d1:39:c1:da:88:2f:c7:24:17:
         36:cb:a5:dd:b8:2b:4e:ea:c4:3e:3a:1d:27:6b:ee:22
-----BEGIN CERTIFICATE-----
MIIBUDCB+KADAgECAgEDMAoGCCqGSM49BAMCMAAwIhgPMDAwMDAxMDEwMDAwMDBa
GA85OTk4MTEzMDAwMDAwMFowADBZMBMGByqGSM49AgEGCCqGSM49AwEHA0IABEuJ
EZ9xzZ82f4XoQ4E3xRWrgf8q59cT+0GgHpREjZzwIGJRnLIXKcqHeh8onDKO7pW9
p8ncWLG5SDP3XBwy78yjXzBdMBQGA1UdIAQNMAswCQYHZ4EMAQUBATBFBgNVHREB
Af8EOzA5oDcGCCsGAQUFBwgJoCsMKXRoaXMgdmFsdWUgZG9lcyBub3QgbWF0Y2gg
dGhlIGNvbW1vbiBuYW1lMAoGCCqGSM49BAMCA0cAMEQCIFG7asKb3bMONZDE9W2R
6KejXPUTiGeNZg1IhpQNLKiSAiAVKgzPP/KI0TnB2ogvxyQXNsul3bgrTurEPjod
J2vuIg==
-----END CERTIFICATE-----
