Certificate:
    Data:
        Version: 3 (0x2)
        Serial Number:
            cd:06:4c:49:cc:33:16:20:51:36:00:f5
        Signature Algorithm: ecdsa-with-SHA256
        Issuer: CN = Lint CA, O = Lint, C = DE
        Validity
            Not Before: Sep  1 00:00:00 2023 GMT
            Not After : Sep  1 00:00:00 2024 GMT
        Subject: 
        Subject Public Key Info:
            Public Key Algorithm: id-ecPublicKey
                Public-Key: (256 bit)
                pub:
                    04:f3:ba:54:14:60:f2:4a:81:3a:fd:9e:e1:ca:aa:
                    02:70:3a:f9:eb:cc:cb:09:aa:57:c1:f7:40:9b:8e:
                    ac:ff:1e:5c:5e:cc:9e:b3:d6:7e:15:2d:35:3f:b4:
                    04:05:60:e9:27:bc:7f:86:3d:23:66:cc:96:be:e7:
                    4a:da:f2:90:3e
                ASN1 OID: prime256v1
                NIST CURVE: P-256
        X509v3 extensions:
            X509v3 Certificate Policies: 
                Policy: 2.23.140.1.5.3.2
            X509v3 Subject Alternative Name: critical
                email:test@example.com
    Signature Algorithm: ecdsa-with-SHA256
    Signature Value:
        30:45:02:20:5b:48:5a:9e:f1:34:fb:bb:52:68:1e:2d:dc:32:
        94:95:58:c4:66:b6:53:25:96:e7:91:30:b2:6d:61:bd:7a:da:
        02:21:00:a4:78:63:87:01:7e:4a:ae:1b:7e:52:4c:0f:32:09:
        86:fa:55:93:64:ec:13:22:cb:45:0c:80:2a:7e:b0:f8:e6
-----BEGIN CERTIFICATE-----
MIIBYTCCAQegAwIBAgINAM0GTEnMMxYgUTYA9TAKBggqhkjOPQQDAjAuMRAwDgYD
VQQDDAdMaW50IENBMQ0wCwYDVQQKDARMaW50MQswCQYDVQQGEwJERTAeFw0yMzA5
MDEwMDAwMDBaFw0yNDA5MDEwMDAwMDBaMAAwWTATBgcqhkjOPQIBBggqhkjOPQMB
BwNCAATzulQUYPJKgTr9nuHKqgJwOvnrzMsJqlfB90Cbjqz/HlxezJ6z1n4VLTU/
tAQFYOknvH+GPSNmzJa+50ra8pA+ozgwNjAUBgNVHSAEDTALMAkGB2eBDAEFAwIw
HgYDVR0RAQH/BBQwEoEQdGVzdEBleGFtcGxlLmNvbTAKBggqhkjOPQQDAgNIADBF
AiBbSFqe8TT7u1JoHi3cMpSVWMRmtlMllueRMLJtYb162gIhAKR4Y4cBfkquG35S
TA8yCYb6VZNk7BMiy0UMgCp+sPjm
-----END CERTIFICATE-----
