Certificate:
    Data:
        Version: 3 (0x2)
        Serial Number: 3 (0x3)
    Signature Algorithm: ecdsa-with-SHA256
        Issuer:
        Validity
            Not Before: Jan  1 00:00:00 0 GMT
            Not After : Nov 30 00:00:00 9998 GMT
        Subject: CN=test@example.com
        Subject Public Key Info:
            Public Key Algorithm: id-ecPublicKey
                Public-Key: (256 bit)
                pub:
                    04:64:79:12:e4:09:9f:8d:2b:5f:83:a6:5c:f9:73:
                    dd:09:82:40:de:5f:b2:31:ae:e6:c5:5e:29:61:d5:
                    ab:fc:33:a2:a1:ef:14:f7:ae:f3:21:c8:3e:9b:2f:
                    71:11:b8:1c:da:c9:de:31:0c:03:ad:15:f5:95:4f:
                    46:91:84:c3:c6
                ASN1 OID: prime256v1
                NIST CURVE: P-256
        X509v3 extensions:
            X509v3 Certificate Policies:
                Policy: 2.23.140.1.5.1.1

            X509v3 Subject Alternative Name: critical
                othername:<unsupported>
    Signature Algorithm: ecdsa-with-SHA256
         30:43:02:1f:5f:ca:ec:0f:e0:79:bb:e0:30:2c:11:ab:10:21:
         5a:eb:31:af:0d:dc:bb:ce:04:55:43:fa:d5:17:4f:fc:87:02:
         20:1c:0d:40:58:83:4b:7c:1f:c7:92:f2:4f:bd:76:b3:3a:1c:
         6f:93:df:c2:61:32:c4:a5:61:94:08:fa:9d:fb:f5
-----BEGIN CERTIFICATE-----
MIIBUTCB+qADAgECAgEDMAoGCCqGSM49BAMCMAAwIhgPMDAwMDAxMDEwMDAwMDBa
GA85OTk4MTEzMDAwMDAwMFowGzEZMBcGA1UEAwwQdGVzdEBleGFtcGxlLmNvbTBZ
MBMGByqGSM49AgEGCCqGSM49AwEHA0IABGR5EuQJn40rX4OmXPlz3QmCQN5fsjGu
5sVeKWHVq/wzoqHvFPeu8yHIPpsvcRG4HNrJ3jEMA60V9ZVPRpGEw8ajRjBEMBQG
A1UdIAQNMAswCQYHZ4EMAQUBATAsBgNVHREBAf8EIjAgoB4GCCsGAQUFBwgJoBIM
EHRlc3RAZXhhbXBsZS5jb20wCgYIKoZIzj0EAwIDRgAwQwIfX8rsD+B5u+AwLBGr
ECFa6zGvDdy7zgRVQ/rVF0/8hwIgHA1AWINLfB/HkvJPvXazOhxvk9/CYTLEpWGU
CPqd+/U=
-----END CERTIFICATE-----
