Certificate:
    Data:
        Version: 3 (0x2)
        Serial Number: 3 (0x3)
        Signature Algorithm: ecdsa-with-SHA256
        Issuer: 
        Validity
            Not Before: Sep  1 00:00:00 2023 GMT
            Not After : Nov 30 00:00:00 9998 GMT
        Subject: 
        Subject Public Key Info:
            Public Key Algorithm: id-ecPublicKey
                Public-Key: (256 bit)
                pub:
                    04:8e:4d:90:a7:a0:3f:15:e0:6a:de:89:e1:19:74:
                    23:51:db:37:5d:9c:21:13:db:7a:65:96:10:43:e5:
                    77:f6:dd:52:99:e1:5c:b9:08:81:07:71:cf:59:95:
                    2c:13:6a:bc:34:15:8a:b7:17:99:4c:d4:0d:b0:54:
                    8a:0a:6d:a7:60
                ASN1 OID: prime256v1
                NIST CURVE: P-256
        X509v3 extensions:
            X509v3 Extended Key Usage: 
                E-mail Protection
            X509v3 Subject Alternative Name: 
                email:test@example.com
    Signature Algorithm: ecdsa-with-SHA256
    Signature Value:
        30:44:02:20:63:fe:50:25:07:b3:7c:f1:cb:1a:3f:da:e4:17:
        d8:ec:95:33:08:65:c5:da:d2:4d:af:9d:fb:34:05:80:cb:2b:
        02:20:63:c7:3b:dd:13:d7:3a:60:86:7a:34:c7:a0:a4:35:2b:
        fa:b9:03:37:14:75:cb:e9:8f:db:f9:85:ef:f9:4b:74
-----BEGIN CERTIFICATE-----
MIIBIzCBy6ADAgECAgEDMAoGCCqGSM49BAMCMAAwIBcNMjMwOTAxMDAwMDAwWhgP
OTk5ODExMzAwMDAwMDBaMAAwWTATBgcqhkjOPQIBBggqhkjOPQMBBwNCAASOTZCn
oD8V4GreieEZdCNR2zddnCET23pllhBD5Xf23VKZ4Vy5CIEHcc9ZlSwTarw0FYq3
F5lM1A2wVIoKbadgozQwMjATBgNVHSUEDDAKBggrBgEFBQcDBDAbBgNVHREEFDAS
gRB0ZXN0QGV4YW1wbGUuY29tMAoGCCqGSM49BAMCA0cAMEQCIGP+UCUHs3zxyxo/
2uQX2OyVMwhlxdrSTa+d+zQFgMsrAiBjxzvdE9c6YIZ6NMegpDUr+rkDNxR1y+mP
2/mF7/lLdA==
-----END CERTIFICATE-----

