Certificate:
    Data:
        Version: 3 (0x2)
        Serial Number: 3 (0x3)
    Signature Algorithm: ecdsa-with-SHA256
        Issuer:
        Validity
            Not Before: Jan  1 00:00:00 0 GMT
            Not After : Nov 30 00:00:00 9998 GMT
        Subject: CN=test@example.com
        Subject Public Key Info:
            Public Key Algorithm: id-ecPublicKey
                Public-Key: (256 bit)
                pub:
                    04:d0:f7:a3:fe:7f:d5:70:39:8b:93:5c:64:58:c5:
                    03:e0:25:45:07:fe:0c:6c:0c:c8:c3:60:50:02:94:
                    f3:fd:74:b5:7d:d7:af:56:7c:91:28:44:e9:fe:a8:
                    35:aa:d8:7b:4f:48:2c:64:35:fc:ed:3e:e7:28:31:
                    5b:76:f1:8f:47
                ASN1 OID: prime256v1
                NIST CURVE: P-256
        X509v3 extensions:
            X509v3 Subject Alternative Name:
                email:test@example.com
            X509v3 Certificate Policies:
                Policy: 2.23.140.1.5.1.1

    Signature Algorithm: ecdsa-with-SHA256
         30:45:02:21:00:ca:06:85:a1:06:88:a5:c6:b3:6b:b3:b3:6c:
         31:55:16:dc:72:fe:a3:23:8f:ee:d8:63:a7:ff:21:cc:e2:8c:
         7b:02:20:76:1b:0a:ea:fb:f3:55:35:e8:53:78:1f:d0:c9:c1:
         9d:d1:5e:c0:3a:61:3d:3d:06:bd:b0:26:81:3b:5e:50:47
-----BEGIN CERTIFICATE-----
MIIBQjCB6aADAgECAgEDMAoGCCqGSM49BAMCMAAwIhgPMDAwMDAxMDEwMDAwMDBa
GA85OTk4MTEzMDAwMDAwMFowGzEZMBcGA1UEAwwQdGVzdEBleGFtcGxlLmNvbTBZ
MBMGByqGSM49AgEGCCqGSM49AwEHA0IABND3o/5/1XA5i5NcZFjFA+AlRQf+DGwM
yMNgUAKU8/10tX3Xr1Z8kShE6f6oNarYe09ILGQ1/O0+5ygxW3bxj0ejNTAzMBsG
A1UdEQQUMBKBEHRlc3RAZXhhbXBsZS5jb20wFAYDVR0gBA0wCzAJBgdngQwBBQEB
MAoGCCqGSM49BAMCA0gAMEUCIQDKBoWhBoilxrNrs7NsMVUW3HL+oyOP7thjp/8h
zOKMewIgdhsK6vvzVTXoU3gf0MnBndFewDphPT0GvbAmgTteUEc=
-----END CERTIFICATE-----
