Certificate:
    Data:
        Version: 3 (0x2)
        Serial Number: 3 (0x3)
        Signature Algorithm: ecdsa-with-SHA256
        Issuer: 
        Validity
            Not Before: Sep  1 00:00:00 2023 GMT
            Not After : Nov 30 00:00:00 9998 GMT
        Subject: 
        Subject Public Key Info:
            Public Key Algorithm: id-ecPublicKey
                Public-Key: (256 bit)
                pub:
                    04:a5:21:3a:ef:c4:e4:dd:5d:ad:17:c4:b5:1a:6e:
                    43:72:02:a0:f5:a2:85:e6:56:1e:c7:fe:07:6b:c0:
                    0d:89:14:8e:8c:45:f4:32:24:22:62:d2:48:cc:b7:
                    3e:14:7f:10:d5:95:7f:45:b6:b6:93:40:a9:f6:8a:
                    d6:07:64:0b:c6
                ASN1 OID: prime256v1
                NIST CURVE: P-256
        X509v3 extensions:
            X509v3 Extended Key Usage: 
                E-mail Protection
            X509v3 Subject Alternative Name: critical
                othername: SmtpUTF8Mailbox::test@example.com
    Signature Algorithm: ecdsa-with-SHA256
    Signature Value:
        30:45:02:21:00:b1:e6:48:b7:2d:ef:dc:ec:ca:ae:bb:4a:39:
        61:d0:32:9e:e5:1f:6f:e0:64:bb:75:dd:50:27:ca:6e:f7:75:
        cf:02:20:77:33:c7:f4:79:96:99:5d:be:6b:e4:45:7b:11:18:
        82:05:df:db:29:8d:83:5c:d1:91:81:cf:15:0b:2f:4f:8f
-----BEGIN CERTIFICATE-----
MIIBNTCB3KADAgECAgEDMAoGCCqGSM49BAMCMAAwIBcNMjMwOTAxMDAwMDAwWhgP
OTk5ODExMzAwMDAwMDBaMAAwWTATBgcqhkjOPQIBBggqhkjOPQMBBwNCAASlITrv
xOTdXa0XxLUabkNyAqD1ooXmVh7H/gdrwA2JFI6MRfQyJCJi0kjMtz4UfxDVlX9F
traTQKn2itYHZAvGo0UwQzATBgNVHSUEDDAKBggrBgEFBQcDBDAsBgNVHREBAf8E
IjAgoB4GCCsGAQUFBwgJoBIMEHRlc3RAZXhhbXBsZS5jb20wCgYIKoZIzj0EAwID
SAAwRQIhALHmSLct79zsyq67Sjlh0DKe5R9v4GS7dd1QJ8pu93XPAiB3M8f0eZaZ
Xb5r5EV7ERiCBd/bKY2DXNGRgc8VCy9Pjw==
-----END CERTIFICATE-----

