Certificate:
    Data:
        Version: 3 (0x2)
        Serial Number:
            5b:9b:6c:64:0c:88:e8:fa:af:28:f6:55
        Signature Algorithm: sha256WithRSAEncryption
        Issuer: CN = JLint Sub CA, O = Lint, C = DE
        Validity
            Not Before: Jan  1 00:00:00 2017 GMT
            Not After : Apr  1 00:00:00 2019 GMT
        Subject: CN = 27 months, O = Lint, C = DE
        Subject Public Key Info:
            Public Key Algorithm: rsaEncryption
                RSA Public-Key: (2048 bit)
                Modulus:
                    00:d8:00:cb:b9:43:35:b3:84:5b:ab:a9:53:7f:38:
                    64:4f:51:fc:c1:01:06:3e:32:52:20:98:4d:d7:99:
                    83:9a:38:ce:a7:70:4c:44:0d:53:10:2f:5f:62:46:
                    7a:94:ca:83:f8:c6:e5:34:f3:bf:1d:f7:7d:04:93:
                    59:b0:e8:d5:2c:d7:3a:bf:a5:02:12:a6:da:f0:42:
                    de:71:c3:af:ea:c7:f6:6e:78:13:b8:50:b6:9f:c9:
                    47:d4:5b:2c:1e:5f:d5:39:09:43:da:61:b4:49:cc:
                    06:08:7c:dd:b2:bf:2b:cc:da:ae:52:c3:45:76:9f:
                    c9:f4:45:df:67:a0:f8:48:ef:7b:b3:81:a7:1e:c2:
                    44:a3:f6:fe:fd:ab:b3:f2:d7:96:9b:c7:6a:6e:67:
                    aa:2f:69:67:d0:73:19:30:a3:da:c7:0b:c6:f9:73:
                    a1:00:c9:b6:eb:3c:f3:d2:0d:e0:c5:72:25:65:7d:
                    d7:13:1c:31:25:01:1d:92:f0:58:2c:02:02:16:6a:
                    4c:74:b0:b1:4e:1e:98:fc:7b:13:f5:ae:31:86:f7:
                    28:6a:88:cd:b4:a4:82:f0:22:47:06:92:54:75:ef:
                    5f:5a:55:4d:33:79:30:a3:7d:41:3c:e9:f9:8e:44:
                    d9:9a:f9:b8:f7:19:69:f7:65:80:fa:a2:d6:41:d2:
                    ca:0b
                Exponent: 65537 (0x10001)
        X509v3 extensions:
            X509v3 Authority Key Identifier: 
                keyid:B5:42:27:78:AD:9F:06:6B:3D:14:5E:88:C6:34:6E:E0:94:4D:F2:A6

            X509v3 Subject Key Identifier: 
                2D:2F:C7:BE:9F:5E:54:F0:55:EA:5B:60:7F:37:CD:46:A5:19:1E:2E
            X509v3 Certificate Policies: 
                Policy: 2.23.140.1.1

    Signature Algorithm: sha256WithRSAEncryption
         50:73:5c:f5:4c:be:2c:26:a2:5a:0c:e8:3d:7a:99:ee:95:94:
         94:45:07:55:78:67:bf:bd:27:b3:e7:98:d4:75:a8:ba:49:68:
         db:2f:c6:77:25:82:f0:5b:62:da:80:7c:7f:2b:c9:26:00:c4:
         fd:be:6e:c6:84:97:20:ee:de:87:30:5d:11:91:2e:13:47:4b:
         10:61:63:9e:0b:5e:c7:ad:af:eb:5a:38:f0:88:81:ff:bc:6a:
         9e:1c:ab:18:67:54:4f:46:8a:80:75:c3:90:4e:1e:e8:d5:67:
         19:49:c2:3e:a3:43:53:2b:fa:8a:8c:4d:48:54:5d:55:31:15:
         c0:4a:e8:59:c4:f9:ec:12:f7:5e:07:5d:b9:f7:60:23:b4:7c:
         bd:c7:37:68:07:56:e5:95:a2:7f:2a:c5:63:ba:02:5b:e5:2d:
         15:c9:2f:83:b6:2f:13:57:9c:1b:8e:94:41:5a:79:94:d2:36:
         f7:c8:d6:29:9f:98:46:d7:d9:d0:72:68:84:0d:58:ed:08:9c:
         98:ed:2f:2c:1c:b6:d4:8d:3f:7d:2b:54:3e:9f:82:e0:6d:72:
         e0:28:1e:61:50:b6:7b:69:30:4c:17:b9:6f:2f:f5:81:cb:00:
         b4:85:f1:0a:62:7a:f2:7d:a5:ff:68:44:36:59:57:b9:f9:07:
         2f:e1:95:ff
-----BEGIN CERTIFICATE-----
MIIDPzCCAiegAwIBAgIMW5tsZAyI6PqvKPZVMA0GCSqGSIb3DQEBCwUAMDMxFTAT
BgNVBAMMDEpMaW50IFN1YiBDQTENMAsGA1UECgwETGludDELMAkGA1UEBhMCREUw
HhcNMTcwMTAxMDAwMDAwWhcNMTkwNDAxMDAwMDAwWjAwMRIwEAYDVQQDDAkyNyBt
b250aHMxDTALBgNVBAoMBExpbnQxCzAJBgNVBAYTAkRFMIIBIjANBgkqhkiG9w0B
AQEFAAOCAQ8AMIIBCgKCAQEA2ADLuUM1s4Rbq6lTfzhkT1H8wQEGPjJSIJhN15mD
mjjOp3BMRA1TEC9fYkZ6lMqD+MblNPO/Hfd9BJNZsOjVLNc6v6UCEqba8ELeccOv
6sf2bngTuFC2n8lH1FssHl/VOQlD2mG0ScwGCHzdsr8rzNquUsNFdp/J9EXfZ6D4
SO97s4GnHsJEo/b+/auz8teWm8dqbmeqL2ln0HMZMKPaxwvG+XOhAMm26zzz0g3g
xXIlZX3XExwxJQEdkvBYLAICFmpMdLCxTh6Y/HsT9a4xhvcoaojNtKSC8CJHBpJU
de9fWlVNM3kwo31BPOn5jkTZmvm49xlp92WA+qLWQdLKCwIDAQABo1YwVDAfBgNV
HSMEGDAWgBS1Qid4rZ8Gaz0UXojGNG7glE3ypjAdBgNVHQ4EFgQULS/Hvp9eVPBV
6ltgfzfNRqUZHi4wEgYDVR0gBAswCTAHBgVngQwBATANBgkqhkiG9w0BAQsFAAOC
AQEAUHNc9Uy+LCaiWgzoPXqZ7pWUlEUHVXhnv70ns+eY1HWouklo2y/GdyWC8Fti
2oB8fyvJJgDE/b5uxoSXIO7ehzBdEZEuE0dLEGFjngtex62v61o48IiB/7xqnhyr
GGdUT0aKgHXDkE4e6NVnGUnCPqNDUyv6ioxNSFRdVTEVwEroWcT57BL3Xgddufdg
I7R8vcc3aAdW5ZWifyrFY7oCW+UtFckvg7YvE1ecG46UQVp5lNI298jWKZ+YRtfZ
0HJohA1Y7QicmO0vLBy21I0/fStUPp+C4G1y4CgeYVC2e2kwTBe5by/1gcsAtIXx
CmJ68n2l/2hENllXufkHL+GV/w==
-----END CERTIFICATE-----
