Certificate:
    Data:
        Version: 3 (0x2)
        Serial Number:
            62:c7:75:f5:14:ee:4d:35:4e:5e:8b:ac
        Signature Algorithm: sha256WithRSAEncryption
        Issuer: CN = JLint Sub CA, O = Lint, C = DE
        Validity
            Not Before: Apr 27 13:19:29 2023 GMT
            Not After : Jul 27 13:19:29 2026 GMT
        Subject: CN = 39 months, O = Lint, C = DE
        Subject Public Key Info:
            Public Key Algorithm: rsaEncryption
                RSA Public-Key: (2048 bit)
                Modulus:
                    00:8f:18:83:c8:07:97:3c:61:c1:ed:e3:b3:ec:82:
                    40:d2:63:1d:38:44:99:f4:2e:10:0e:8b:95:9b:a3:
                    94:d7:87:c5:71:77:67:18:61:cf:28:7a:bc:14:71:
                    2b:8f:bd:24:c5:09:f5:5d:5f:d7:ed:2f:d5:2d:d0:
                    1c:bb:18:62:70:63:ec:1e:e6:98:ce:e8:48:65:b2:
                    8d:b3:12:d4:6e:5f:bb:d0:ff:49:b8:64:6a:00:e5:
                    3c:e4:f3:e1:02:c3:e4:f0:b1:64:7a:31:9c:81:45:
                    1c:d9:58:78:3e:59:32:6f:27:b3:50:a1:51:c9:5e:
                    92:f1:39:6c:da:02:2c:c3:a1:94:56:5a:b0:8a:1a:
                    2e:f7:b8:ea:6d:2d:eb:42:4b:d5:72:40:ee:96:af:
                    ef:88:68:87:9c:da:e2:2a:cc:6d:4f:50:de:ad:2a:
                    7b:c6:5a:17:67:2c:3d:0f:04:9c:a5:89:1a:59:c2:
                    40:92:20:c8:b1:15:f7:82:cd:29:05:ea:ae:d6:60:
                    f6:0f:c0:33:fc:5d:c7:27:01:87:da:21:96:61:da:
                    e3:c8:c8:e1:6c:0c:4e:67:24:91:2c:18:4d:0b:d7:
                    f0:fd:8c:0d:4a:97:27:3f:28:28:41:5a:e2:fd:d8:
                    59:8c:b2:f4:84:a5:f8:7e:0a:a4:5e:cd:cc:22:45:
                    68:cf
                Exponent: 65537 (0x10001)
        X509v3 extensions:
            X509v3 Authority Key Identifier: 
                keyid:11:AD:76:DA:18:7C:7C:BB:61:71:AF:B9:BA:0C:39:D6:17:D0:5C:CD

            X509v3 Subject Key Identifier: 
                86:80:F1:64:E4:62:CE:BF:A5:7F:E2:4E:4D:4B:CD:53:7D:7A:62:41
    Signature Algorithm: sha256WithRSAEncryption
         35:10:e4:3d:f7:04:dc:cc:ca:76:b0:ed:3d:fe:3a:be:65:d2:
         56:87:f7:51:06:b3:70:b8:92:02:5b:7d:4a:27:b6:43:0e:f1:
         b2:a7:15:14:23:a0:4e:0b:5d:56:bc:a5:5e:7b:44:fd:62:b0:
         ad:9b:22:8f:78:b6:19:15:5a:f4:3f:7a:77:b8:d8:49:3b:e4:
         bc:80:ad:8e:08:23:b2:5a:92:71:1a:aa:38:9c:83:75:3f:dc:
         d7:07:6f:20:52:d7:f7:02:bd:e5:91:c3:b2:14:3b:2b:7e:dc:
         e4:e0:73:62:a1:a2:fb:f9:be:63:91:1c:e4:f5:67:43:dc:ca:
         67:d2:50:09:a1:10:30:cf:1e:6a:01:c4:6c:71:1c:7c:18:0c:
         c0:32:6e:4e:89:f2:ae:56:75:a7:0c:1d:f7:c7:22:f6:70:40:
         1f:91:3b:ae:a4:48:7e:bf:a9:7e:4d:2b:91:6e:0f:c5:87:7a:
         32:ec:1e:19:46:d2:c8:02:cf:6f:2f:de:02:60:1e:a8:2d:f1:
         5a:17:35:23:bb:4f:ea:13:06:68:e6:9a:3f:2a:db:94:34:c5:
         4b:9c:ad:7e:3b:2f:2f:05:d0:a2:b1:73:0f:5e:a9:ec:48:0b:
         7b:3b:33:cb:5c:7a:e2:64:6e:df:42:7f:83:bc:43:9a:5d:5e:
         40:ee:45:b8
-----BEGIN CERTIFICATE-----
MIIDKzCCAhOgAwIBAgIMYsd19RTuTTVOXousMA0GCSqGSIb3DQEBCwUAMDMxFTAT
BgNVBAMMDEpMaW50IFN1YiBDQTENMAsGA1UECgwETGludDELMAkGA1UEBhMCREUw
HhcNMjMwNDI3MTMxOTI5WhcNMjYwNzI3MTMxOTI5WjAwMRIwEAYDVQQDDAkzOSBt
b250aHMxDTALBgNVBAoMBExpbnQxCzAJBgNVBAYTAkRFMIIBIjANBgkqhkiG9w0B
AQEFAAOCAQ8AMIIBCgKCAQEAjxiDyAeXPGHB7eOz7IJA0mMdOESZ9C4QDouVm6OU
14fFcXdnGGHPKHq8FHErj70kxQn1XV/X7S/VLdAcuxhicGPsHuaYzuhIZbKNsxLU
bl+70P9JuGRqAOU85PPhAsPk8LFkejGcgUUc2Vh4PlkybyezUKFRyV6S8Tls2gIs
w6GUVlqwihou97jqbS3rQkvVckDulq/viGiHnNriKsxtT1DerSp7xloXZyw9DwSc
pYkaWcJAkiDIsRX3gs0pBequ1mD2D8Az/F3HJwGH2iGWYdrjyMjhbAxOZySRLBhN
C9fw/YwNSpcnPygoQVri/dhZjLL0hKX4fgqkXs3MIkVozwIDAQABo0IwQDAfBgNV
HSMEGDAWgBQRrXbaGHx8u2Fxr7m6DDnWF9BczTAdBgNVHQ4EFgQUhoDxZORizr+l
f+JOTUvNU316YkEwDQYJKoZIhvcNAQELBQADggEBADUQ5D33BNzMynaw7T3+Or5l
0laH91EGs3C4kgJbfUontkMO8bKnFRQjoE4LXVa8pV57RP1isK2bIo94thkVWvQ/
ene42Ek75LyArY4II7JaknEaqjicg3U/3NcHbyBS1/cCveWRw7IUOyt+3OTgc2Kh
ovv5vmORHOT1Z0PcymfSUAmhEDDPHmoBxGxxHHwYDMAybk6J8q5WdacMHffHIvZw
QB+RO66kSH6/qX5NK5FuD8WHejLsHhlG0sgCz28v3gJgHqgt8VoXNSO7T+oTBmjm
mj8q25Q0xUucrX47Ly8F0KKxcw9eqexIC3s7M8tceuJkbt9Cf4O8Q5pdXkDuRbg=
-----END CERTIFICATE-----
