Certificate:
    Data:
        Version: 3 (0x2)
        Serial Number:
            03:d8:78:e2:20:05:78:6d:ae:a5:97:c4
        Signature Algorithm: sha256WithRSAEncryption
        Issuer: CN = JLint Sub CA, O = Lint, C = DE
        Validity
            Not Before: Jan  1 00:00:00 2017 GMT
            Not After : Apr  1 00:00:00 2020 GMT
        Subject: CN = 39 months, O = Lint, C = DE
        Subject Public Key Info:
            Public Key Algorithm: rsaEncryption
                RSA Public-Key: (2048 bit)
                Modulus:
                    00:94:07:c4:d7:6e:ab:a7:69:da:00:be:cc:d6:c3:
                    b0:db:64:55:8a:4d:ee:32:43:36:d4:a1:50:08:e8:
                    e1:99:25:00:39:b7:c2:e3:7b:1a:69:17:cf:86:74:
                    cc:8e:ab:8a:51:8d:c4:d9:bb:30:1d:69:47:9b:84:
                    be:62:eb:4c:b3:3f:54:0f:ae:5f:a2:cd:1b:5c:57:
                    91:26:58:c5:e8:b9:ed:71:ee:bf:57:6a:4b:21:c0:
                    56:bd:49:78:9c:ab:4d:79:a8:bf:23:7d:68:63:5e:
                    ae:5c:d2:ae:33:90:0b:51:0c:68:1d:e1:44:69:61:
                    c6:62:9e:e8:01:39:9f:ae:f3:59:c7:92:0e:c9:89:
                    9a:fa:84:d0:3d:3c:c5:d8:4f:bb:89:44:a2:4c:01:
                    29:b3:68:0a:04:b5:7f:c6:a1:2d:b9:fc:b1:95:1e:
                    c4:ec:d4:6e:20:5a:ec:53:00:a3:da:2c:e1:d4:d4:
                    a5:50:6e:2d:b6:ed:1c:ab:c5:a6:d2:fa:3a:90:0b:
                    b8:6b:16:98:45:29:b0:8a:d3:bc:a0:d9:28:f7:a7:
                    85:8f:77:47:64:ca:54:3b:53:cf:70:f0:95:8c:a2:
                    c7:aa:0b:67:3b:27:82:12:28:09:c2:da:e2:09:72:
                    e2:44:51:5a:02:01:14:35:8a:53:c9:8b:95:1e:08:
                    21:ef
                Exponent: 65537 (0x10001)
        X509v3 extensions:
            X509v3 Authority Key Identifier: 
                keyid:EA:F8:6D:8D:77:B0:16:56:C9:89:51:1B:8D:1D:A4:3B:4B:24:B0:DC

            X509v3 Subject Key Identifier: 
                59:62:67:F3:8E:07:B5:2D:F4:1A:2D:0C:1D:5E:EF:B6:10:87:DC:0B
    Signature Algorithm: sha256WithRSAEncryption
         09:67:cc:64:68:84:62:dc:74:62:f7:90:bc:10:96:13:19:f1:
         55:4f:fc:66:75:d2:11:7e:41:41:a3:8f:d8:f2:a8:26:1f:78:
         09:54:76:b3:d6:a7:8e:1c:73:1f:ae:bf:89:5f:2b:14:ed:74:
         6d:f7:63:c8:79:d1:d6:d1:31:5d:c0:4b:bf:6d:f8:61:82:13:
         9c:8e:b4:68:cf:2b:33:df:3c:78:3b:6a:12:ce:af:25:cd:af:
         86:e3:b6:0a:2d:7d:2a:62:fb:16:d5:bf:9f:3d:d3:ee:66:7f:
         cc:13:77:e8:97:7a:8f:e3:08:70:26:49:1c:86:e1:e7:93:fb:
         46:34:4a:46:f5:82:a2:f6:1b:20:a7:e8:5e:e3:ff:58:e7:35:
         7b:5a:47:49:07:f7:fa:ee:dd:ec:90:16:89:7d:fc:05:5a:dc:
         1b:e0:f2:d8:6d:d7:f6:95:18:38:fd:ea:6c:a8:bf:b9:71:14:
         78:62:43:da:85:ba:e0:85:50:9a:de:bb:14:1c:21:c0:e2:47:
         66:f8:79:8c:48:e2:ad:c7:9d:da:36:a6:b2:b0:67:78:d4:ce:
         36:0c:e9:78:99:99:2b:bc:9e:20:bf:0e:7a:ba:51:9c:71:fd:
         96:df:c4:44:11:bf:87:4f:aa:eb:be:4a:9d:e0:9b:42:4a:4b:
         fd:c0:2f:6d
-----BEGIN CERTIFICATE-----
MIIDKzCCAhOgAwIBAgIMA9h44iAFeG2upZfEMA0GCSqGSIb3DQEBCwUAMDMxFTAT
BgNVBAMMDEpMaW50IFN1YiBDQTENMAsGA1UECgwETGludDELMAkGA1UEBhMCREUw
HhcNMTcwMTAxMDAwMDAwWhcNMjAwNDAxMDAwMDAwWjAwMRIwEAYDVQQDDAkzOSBt
b250aHMxDTALBgNVBAoMBExpbnQxCzAJBgNVBAYTAkRFMIIBIjANBgkqhkiG9w0B
AQEFAAOCAQ8AMIIBCgKCAQEAlAfE126rp2naAL7M1sOw22RVik3uMkM21KFQCOjh
mSUAObfC43saaRfPhnTMjquKUY3E2bswHWlHm4S+YutMsz9UD65fos0bXFeRJljF
6Lntce6/V2pLIcBWvUl4nKtNeai/I31oY16uXNKuM5ALUQxoHeFEaWHGYp7oATmf
rvNZx5IOyYma+oTQPTzF2E+7iUSiTAEps2gKBLV/xqEtufyxlR7E7NRuIFrsUwCj
2izh1NSlUG4ttu0cq8Wm0vo6kAu4axaYRSmwitO8oNko96eFj3dHZMpUO1PPcPCV
jKLHqgtnOyeCEigJwtriCXLiRFFaAgEUNYpTyYuVHggh7wIDAQABo0IwQDAfBgNV
HSMEGDAWgBTq+G2Nd7AWVsmJURuNHaQ7SySw3DAdBgNVHQ4EFgQUWWJn844HtS30
Gi0MHV7vthCH3AswDQYJKoZIhvcNAQELBQADggEBAAlnzGRohGLcdGL3kLwQlhMZ
8VVP/GZ10hF+QUGjj9jyqCYfeAlUdrPWp44ccx+uv4lfKxTtdG33Y8h50dbRMV3A
S79t+GGCE5yOtGjPKzPfPHg7ahLOryXNr4bjtgotfSpi+xbVv5890+5mf8wTd+iX
eo/jCHAmSRyG4eeT+0Y0Skb1gqL2GyCn6F7j/1jnNXtaR0kH9/ru3eyQFol9/AVa
3Bvg8tht1/aVGDj96myov7lxFHhiQ9qFuuCFUJreuxQcIcDiR2b4eYxI4q3Hndo2
prKwZ3jUzjYM6XiZmSu8niC/Dnq6UZxx/ZbfxEQRv4dPquu+Sp3gm0JKS/3AL20=
-----END CERTIFICATE-----
