Certificate:
    Data:
        Version: 3 (0x2)
        Serial Number: 4781 (0x12ad)
        Signature Algorithm: sha256WithRSAEncryption
        Issuer: C=DE, ST=Bayern, L=N\xC3\x83\xC2\xBCrnberg, O=Siemens AG, OU=Trustcenter, CN=OliverCA/emailAddress=oliver.stiller@siemens.com
        Validity
            Not Before: Nov  2 11:28:14 2020 GMT
            Not After : Nov  2 11:28:14 2021 GMT
        Subject: O=test5, CN=test5
        Subject Public Key Info:
            Public Key Algorithm: rsaEncryption
                RSA Public-Key: (2048 bit)
                Modulus:
                    00:af:a9:ee:97:0e:39:4c:7e:5c:86:bd:e7:3e:7a:
                    0e:dc:ad:d7:dc:0e:fd:79:30:6a:08:c6:fa:bd:d4:
                    51:f5:9a:1e:25:1c:19:66:fb:f4:cf:8e:24:96:95:
                    b8:1b:80:f9:45:d4:e2:64:a4:ed:14:3d:5e:5c:c4:
                    d8:fc:79:0d:52:5a:72:9d:55:a5:8f:ef:21:fe:5b:
                    9f:8d:49:fa:24:e2:5f:3f:b2:df:b5:cf:3b:8d:19:
                    33:c0:9b:8b:a5:62:41:28:85:99:19:5b:48:17:92:
                    60:dc:6e:f3:f4:e0:03:f3:71:a1:dd:ed:9b:2d:e3:
                    70:d7:c7:b3:7c:6d:7b:ec:5f:02:b8:78:19:28:c8:
                    ae:03:df:0e:db:15:df:ce:02:18:0a:ab:f1:78:d6:
                    07:58:c4:93:d0:16:9f:28:01:7b:4f:b3:b9:fa:e5:
                    73:70:a8:64:42:85:e2:be:00:7b:58:be:9a:13:d1:
                    12:7f:8b:aa:ca:d5:89:ea:80:10:bb:c0:b3:f9:5a:
                    df:42:3a:7e:b8:88:db:c2:f1:56:98:2a:0f:f3:8a:
                    14:b5:98:50:ae:b9:9a:e6:bf:14:8b:24:e6:16:32:
                    f2:c8:e4:f4:b1:31:48:0f:00:fe:73:a0:a5:ed:fc:
                    53:9e:04:20:a3:05:80:b8:88:87:5a:4d:85:38:4b:
                    f2:cf
                Exponent: 65537 (0x10001)
        X509v3 extensions:
            X509v3 Extended Key Usage: 
                Any Extended Key Usage, Code Signing
            X509v3 Key Usage: 
                Digital Signature, Non Repudiation
            OCSP No Check: 

    Signature Algorithm: sha256WithRSAEncryption
         95:9e:f4:5f:fc:45:8e:3e:ed:e7:a8:a6:2d:89:31:b8:c4:98:
         03:ae:bf:25:8d:99:3f:de:1f:ed:1d:a1:00:00:c5:eb:11:df:
         5a:68:7f:87:53:c9:a8:89:15:7d:3a:4f:94:fa:1c:32:d8:44:
         34:6b:95:94:9c:67:de:99:a5:fe:a0:b1:22:65:8c:b9:ea:24:
         cb:55:07:ed:42:19:a5:13:26:5b:8d:f6:d9:65:2d:5e:2d:aa:
         e9:40:f4:f4:3c:d4:73:ef:34:af:62:0f:8f:ee:47:04:98:f4:
         78:07:d9:32:96:59:8b:e2:42:70:08:58:de:27:7e:de:70:d4:
         57:84:8d:f7:bc:a0:c0:b9:3e:11:68:17:b2:1a:f1:c9:4d:a1:
         f0:06:44:17:ab:3e:b3:53:75:50:ec:05:10:65:f0:30:57:58:
         08:ae:b2:6f:9b:97:ec:8a:d5:65:e3:89:c9:fa:b1:26:46:46:
         b3:08:01:70:aa:15:f0:e9:d8:58:b6:1f:03:93:56:7f:5a:5d:
         21:d7:5d:9e:47:9f:05:12:64:77:2e:5a:f4:82:9a:7a:f6:26:
         06:db:35:09:b9:57:50:a0:03:85:d1:73:42:20:9e:97:c8:97:
         a6:a0:08:14:60:51:8b:02:f6:53:31:3d:76:b1:5b:b6:e2:ed:
         e9:1e:bd:4a:06:b2:18:3a:fc:78:d8:cb:2e:62:33:56:c8:37:
         e4:c5:33:a1:c4:0d:81:a5:2f:2e:9d:9d:55:11:3f:88:71:cb:
         ff:9f:74:4d:76:5a:d6:5e:cf:83:3d:a9:f3:c0:46:37:bb:df:
         59:db:3a:28:d0:3c:c3:ab:ea:54:f8:2e:2b:2b:56:83:04:be:
         90:77:b7:fb:16:60:e9:44:53:b9:61:4c:1d:5a:b1:5e:9d:7b:
         e2:ed:0a:d8:57:ab:83:8f:f2:19:91:83:a6:aa:e8:b7:da:e2:
         1f:2d:b5:66:60:1d:53:c7:76:3d:c7:23:cc:f6:d4:ef:6f:05:
         e7:ae:a4:c6:6c:8b:a7:78:4c:67:7e:ef:31:b2:f2:74:d8:50:
         23:1e:70:3f:e5:a2:f2:1a:7b:54:61:0c:0d:73:8c:a3:d2:b2:
         72:4f:7e:23:e7:c4:6c:ff:cf:9a:98:81:ac:05:6a:70:88:36:
         dc:78:a3:c3:09:fe:6c:9d:be:3d:6a:5a:a2:9e:20:61:96:94:
         13:2b:a2:4b:c9:d6:0f:37:f5:5a:4d:1b:24:31:49:79:95:42:
         80:13:cb:8a:4f:66:44:a2:68:00:9b:ec:e9:fa:4b:0c:3a:07:
         85:8f:b1:e3:96:68:8f:10:20:55:ac:74:9a:2b:df:ae:b2:ee:
         eb:e4:60:a3:e0:da:47:67
-----BEGIN CERTIFICATE-----
MIIEdTCCAl2gAwIBAgICEq0wDQYJKoZIhvcNAQELBQAwgZ0xCzAJBgNVBAYTAkRF
MQ8wDQYDVQQIDAZCYXllcm4xFDASBgNVBAcMC07Dg8K8cm5iZXJnMRMwEQYDVQQK
DApTaWVtZW5zIEFHMRQwEgYDVQQLDAtUcnVzdGNlbnRlcjERMA8GA1UEAwwIT2xp
dmVyQ0ExKTAnBgkqhkiG9w0BCQEWGm9saXZlci5zdGlsbGVyQHNpZW1lbnMuY29t
MB4XDTIwMTEwMjExMjgxNFoXDTIxMTEwMjExMjgxNFowIDEOMAwGA1UECgwFdGVz
dDUxDjAMBgNVBAMMBXRlc3Q1MIIBIjANBgkqhkiG9w0BAQEFAAOCAQ8AMIIBCgKC
AQEAr6nulw45TH5chr3nPnoO3K3X3A79eTBqCMb6vdRR9ZoeJRwZZvv0z44klpW4
G4D5RdTiZKTtFD1eXMTY/HkNUlpynVWlj+8h/lufjUn6JOJfP7Lftc87jRkzwJuL
pWJBKIWZGVtIF5Jg3G7z9OAD83Gh3e2bLeNw18ezfG177F8CuHgZKMiuA98O2xXf
zgIYCqvxeNYHWMST0BafKAF7T7O5+uVzcKhkQoXivgB7WL6aE9ESf4uqytWJ6oAQ
u8Cz+VrfQjp+uIjbwvFWmCoP84oUtZhQrrma5r8UiyTmFjLyyOT0sTFIDwD+c6Cl
7fxTngQgowWAuIiHWk2FOEvyzwIDAQABozswOTAZBgNVHSUEEjAQBgRVHSUABggr
BgEFBQcDAzALBgNVHQ8EBAMCBsAwDwYJKwYBBQUHMAEFBAIFADANBgkqhkiG9w0B
AQsFAAOCAgEAlZ70X/xFjj7t56imLYkxuMSYA66/JY2ZP94f7R2hAADF6xHfWmh/
h1PJqIkVfTpPlPocMthENGuVlJxn3pml/qCxImWMueoky1UH7UIZpRMmW4322WUt
Xi2q6UD09DzUc+80r2IPj+5HBJj0eAfZMpZZi+JCcAhY3id+3nDUV4SN97ygwLk+
EWgXshrxyU2h8AZEF6s+s1N1UOwFEGXwMFdYCK6yb5uX7IrVZeOJyfqxJkZGswgB
cKoV8OnYWLYfA5NWf1pdIdddnkefBRJkdy5a9IKaevYmBts1CblXUKADhdFzQiCe
l8iXpqAIFGBRiwL2UzE9drFbtuLt6R69SgayGDr8eNjLLmIzVsg35MUzocQNgaUv
Lp2dVRE/iHHL/590TXZa1l7Pgz2p88BGN7vfWds6KNA8w6vqVPguKytWgwS+kHe3
+xZg6URTuWFMHVqxXp174u0K2Ferg4/yGZGDpqrot9riHy21ZmAdU8d2PccjzPbU
728F566kxmyLp3hMZ37vMbLydNhQIx5wP+Wi8hp7VGEMDXOMo9Kyck9+I+fEbP/P
mpiBrAVqcIg23Hijwwn+bJ2+PWpaop4gYZaUEyuiS8nWDzf1Wk0bJDFJeZVCgBPL
ik9mRKJoAJvs6fpLDDoHhY+x45ZojxAgVax0mivfrrLu6+Rgo+DaR2c=
-----END CERTIFICATE-----
