Certificate:
    Data:
        Version: 3 (0x2)
        Serial Number: 4787 (0x12b3)
        Signature Algorithm: sha256WithRSAEncryption
        Issuer: C=DE, ST=Bayern, L=N\xC3\x83\xC2\xBCrnberg, O=Siemens AG, OU=Trustcenter, CN=OliverCA/emailAddress=oliver.stiller@siemens.com
        Validity
            Not Before: Nov  3 14:38:07 2020 GMT
            Not After : Nov  3 14:38:07 2021 GMT
        Subject: O=test19, CN=test19
        Subject Public Key Info:
            Public Key Algorithm: rsaEncryption
                RSA Public-Key: (2048 bit)
                Modulus:
                    00:c7:9e:f0:ba:ab:52:cf:0d:e3:9c:33:e7:22:0f:
                    63:73:51:9f:29:57:6f:fd:33:7a:11:1b:83:ef:38:
                    4f:63:22:70:9f:f8:b9:35:21:7b:ed:d1:af:12:9c:
                    fd:94:dc:fd:e2:03:a3:45:18:63:c0:27:48:6b:8a:
                    7f:1a:ad:b8:19:52:ec:05:8f:0e:60:67:c0:1f:55:
                    9c:b5:bf:ce:5b:a8:6e:8f:71:75:04:5d:b0:68:75:
                    51:05:50:69:24:46:b3:11:ec:c6:73:31:86:ae:81:
                    23:fa:e8:07:74:8f:f6:58:3c:17:15:82:08:e6:72:
                    ea:3e:9f:e6:5f:d1:9b:7f:42:3a:19:34:65:9d:e7:
                    b0:e2:b3:2c:61:db:06:ed:c2:43:f8:71:43:f4:03:
                    ab:1a:97:33:32:ba:f9:42:17:6d:f0:4a:19:ad:cb:
                    ec:a0:dd:73:31:94:7e:dd:03:f0:69:9d:ef:4d:32:
                    83:dd:57:cf:97:b4:0f:5a:6a:58:04:3c:5b:7c:0a:
                    0d:7c:4a:55:1e:ed:9a:64:63:5e:ac:48:c6:17:67:
                    83:6e:56:45:21:4a:b9:8a:7f:cd:66:b9:2b:52:65:
                    a6:b0:1c:5e:74:05:d2:3a:f1:91:0d:ad:9b:05:ff:
                    de:34:a6:80:ad:03:d0:79:d3:fd:e1:6c:b0:02:09:
                    c5:29
                Exponent: 65537 (0x10001)
        X509v3 extensions:
            X509v3 Extended Key Usage: 
                Any Extended Key Usage, Time Stamping, OCSP Signing
            X509v3 Key Usage: 
                Digital Signature, Non Repudiation
            OCSP No Check: 

    Signature Algorithm: sha256WithRSAEncryption
         32:ca:4b:a8:4b:48:f6:b8:1e:be:5a:0d:90:1c:0a:11:8d:80:
         9f:39:3a:fc:ed:2b:a7:9a:cf:14:18:76:bf:59:be:dd:53:5e:
         59:aa:bb:2f:6e:29:eb:35:60:b9:bb:72:38:cc:53:ff:a1:5f:
         53:52:49:c3:e8:e3:65:67:a9:13:d7:7f:5b:bb:97:eb:b9:1e:
         09:39:da:07:09:44:74:30:31:df:0b:ba:e7:91:0f:b3:f2:ea:
         75:06:42:ca:d5:65:3e:78:2e:54:db:ea:36:eb:7d:90:63:81:
         a2:05:c2:7a:10:cc:ca:10:2b:ad:aa:06:c7:64:c6:cd:8f:c1:
         7f:8b:23:da:c8:3a:4f:72:5c:8a:5a:9b:70:db:1f:63:18:88:
         d6:79:25:24:15:45:cb:10:46:ee:7a:7a:ca:db:e0:df:06:1e:
         e8:ce:8d:9b:94:84:9f:d5:13:c1:10:8f:d4:71:6f:1e:fe:1f:
         10:c8:4f:e4:83:72:f4:ae:ad:d5:d1:99:12:ff:04:fa:70:4c:
         67:d9:10:c3:ba:90:7e:26:c4:53:ff:4a:5a:1a:75:8a:0a:60:
         6a:20:05:a4:af:c8:7d:55:1c:20:2d:c4:cd:a9:41:5a:19:35:
         bd:67:f2:3f:be:c0:ad:1b:1d:af:1c:9d:87:b6:93:f3:9a:42:
         ec:ee:88:2e:08:d3:78:c7:3f:07:0f:8c:77:d9:f8:37:d9:0e:
         66:15:96:07:d3:71:8e:21:e6:3c:9c:0d:65:b1:f3:21:b3:a4:
         8f:79:0e:6d:78:c6:ab:77:9d:19:d4:e5:3c:be:b0:38:e2:7e:
         23:04:cf:01:52:34:f1:ec:28:be:18:93:73:6a:0c:57:ba:7b:
         2a:15:89:88:c3:30:c7:43:6a:5e:37:14:c4:bb:52:54:55:37:
         e3:d3:c2:c4:6f:93:0b:9f:a3:3b:fe:d9:a0:92:b6:8d:09:18:
         05:74:7d:2d:1b:f3:af:db:98:4a:90:6a:37:29:ad:fa:f1:2d:
         b2:de:42:e9:7e:e6:1a:4d:af:20:20:42:cd:72:cc:8a:17:c7:
         77:22:dd:34:0d:83:cc:54:8d:d5:26:c2:6b:47:4c:dd:52:65:
         ea:c4:e5:d8:ea:c1:c7:36:96:94:2d:2c:d0:fd:dd:d1:aa:f1:
         f7:77:52:7e:db:d4:1e:03:92:e5:15:55:20:b8:d4:07:3e:d6:
         7b:f2:df:02:40:b7:be:6a:64:88:1e:d5:49:60:18:2e:92:81:
         40:4f:bc:33:5a:bc:59:23:6e:8a:74:89:13:d5:14:5a:a3:34:
         a1:f0:51:df:df:38:35:e8:06:5f:a2:63:ef:c5:16:89:87:a5:
         80:ce:cb:6d:89:e4:fb:bf
-----BEGIN CERTIFICATE-----
MIIEgTCCAmmgAwIBAgICErMwDQYJKoZIhvcNAQELBQAwgZ0xCzAJBgNVBAYTAkRF
MQ8wDQYDVQQIDAZCYXllcm4xFDASBgNVBAcMC07Dg8K8cm5iZXJnMRMwEQYDVQQK
DApTaWVtZW5zIEFHMRQwEgYDVQQLDAtUcnVzdGNlbnRlcjERMA8GA1UEAwwIT2xp
dmVyQ0ExKTAnBgkqhkiG9w0BCQEWGm9saXZlci5zdGlsbGVyQHNpZW1lbnMuY29t
MB4XDTIwMTEwMzE0MzgwN1oXDTIxMTEwMzE0MzgwN1owIjEPMA0GA1UECgwGdGVz
dDE5MQ8wDQYDVQQDDAZ0ZXN0MTkwggEiMA0GCSqGSIb3DQEBAQUAA4IBDwAwggEK
AoIBAQDHnvC6q1LPDeOcM+ciD2NzUZ8pV2/9M3oRG4PvOE9jInCf+Lk1IXvt0a8S
nP2U3P3iA6NFGGPAJ0hrin8arbgZUuwFjw5gZ8AfVZy1v85bqG6PcXUEXbBodVEF
UGkkRrMR7MZzMYaugSP66Ad0j/ZYPBcVggjmcuo+n+Zf0Zt/QjoZNGWd57Disyxh
2wbtwkP4cUP0A6salzMyuvlCF23wShmty+yg3XMxlH7dA/Bpne9NMoPdV8+XtA9a
algEPFt8Cg18SlUe7ZpkY16sSMYXZ4NuVkUhSrmKf81muStSZaawHF50BdI68ZEN
rZsF/940poCtA9B50/3hbLACCcUpAgMBAAGjRTBDMCMGA1UdJQQcMBoGBFUdJQAG
CCsGAQUFBwMIBggrBgEFBQcDCTALBgNVHQ8EBAMCBsAwDwYJKwYBBQUHMAEFBAIF
ADANBgkqhkiG9w0BAQsFAAOCAgEAMspLqEtI9rgevloNkBwKEY2Anzk6/O0rp5rP
FBh2v1m+3VNeWaq7L24p6zVgubtyOMxT/6FfU1JJw+jjZWepE9d/W7uX67keCTna
BwlEdDAx3wu655EPs/LqdQZCytVlPnguVNvqNut9kGOBogXCehDMyhArraoGx2TG
zY/Bf4sj2sg6T3JcilqbcNsfYxiI1nklJBVFyxBG7np6ytvg3wYe6M6Nm5SEn9UT
wRCP1HFvHv4fEMhP5INy9K6t1dGZEv8E+nBMZ9kQw7qQfibEU/9KWhp1igpgaiAF
pK/IfVUcIC3EzalBWhk1vWfyP77ArRsdrxydh7aT85pC7O6ILgjTeMc/Bw+Md9n4
N9kOZhWWB9NxjiHmPJwNZbHzIbOkj3kObXjGq3edGdTlPL6wOOJ+IwTPAVI08ewo
vhiTc2oMV7p7KhWJiMMwx0NqXjcUxLtSVFU349PCxG+TC5+jO/7ZoJK2jQkYBXR9
LRvzr9uYSpBqNymt+vEtst5C6X7mGk2vICBCzXLMihfHdyLdNA2DzFSN1SbCa0dM
3VJl6sTl2OrBxzaWlC0s0P3d0arx93dSftvUHgOS5RVVILjUBz7We/LfAkC3vmpk
iB7VSWAYLpKBQE+8M1q8WSNuinSJE9UUWqM0ofBR3984NegGX6Jj78UWiYelgM7L
bYnk+78=
-----END CERTIFICATE-----
