Certificate:
    Data:
        Version: 3 (0x2)
        Serial Number: 4780 (0x12ac)
        Signature Algorithm: sha256WithRSAEncryption
        Issuer: C=DE, ST=Bayern, L=N\xC3\x83\xC2\xBCrnberg, O=Siemens AG, OU=Trustcenter, CN=OliverCA/emailAddress=oliver.stiller@siemens.com
        Validity
            Not Before: Nov  2 11:27:44 2020 GMT
            Not After : Nov  2 11:27:44 2021 GMT
        Subject: O=test6, CN=test6
        Subject Public Key Info:
            Public Key Algorithm: rsaEncryption
                RSA Public-Key: (2048 bit)
                Modulus:
                    00:d2:31:0c:05:75:e5:79:7e:dc:b1:ee:62:8d:dc:
                    8e:96:c1:ff:f0:fd:fc:70:88:35:52:c7:49:8c:77:
                    30:4b:70:d5:4d:b8:df:82:f9:04:c8:68:b4:9a:31:
                    80:97:ed:33:81:b1:e8:ac:50:a5:07:b8:61:5a:a4:
                    3d:4e:7d:fd:21:51:61:82:39:c5:02:0a:f8:16:03:
                    ad:8f:12:84:0a:87:44:bf:20:30:2b:e3:91:dc:63:
                    f6:59:ba:02:9b:6d:9e:7a:ef:af:3b:cd:49:61:31:
                    4c:d8:85:23:6b:58:f4:71:5f:43:3f:7b:16:a3:69:
                    0c:77:33:74:68:09:ae:2d:1a:ec:61:09:15:3a:46:
                    35:85:d7:31:bb:04:0e:b8:72:0e:ff:e2:78:f1:ca:
                    7a:68:5a:e7:8e:4a:fb:a7:96:1a:de:4a:f9:c0:8d:
                    22:fa:fa:16:66:f0:c1:18:95:d4:e4:54:d7:85:2a:
                    58:1a:ac:c3:3d:c7:d8:c4:64:83:d9:aa:a7:27:9a:
                    0a:53:57:20:34:b2:fc:72:e5:ba:bd:40:16:4f:6f:
                    f7:87:58:b0:fa:e6:2b:fa:c2:aa:26:04:db:36:8c:
                    93:da:23:51:bb:6b:bb:72:e3:1c:73:23:65:2e:ee:
                    80:7d:8f:27:ed:02:a5:65:fa:23:02:1e:92:f6:38:
                    bb:73
                Exponent: 65537 (0x10001)
        X509v3 extensions:
            X509v3 Extended Key Usage: 
                Any Extended Key Usage, Code Signing
            X509v3 Key Usage: 
                Digital Signature
            OCSP No Check: 

    Signature Algorithm: sha256WithRSAEncryption
         74:63:1a:a4:52:a4:ee:e8:67:33:16:8c:b8:38:0e:24:fe:94:
         cd:81:bc:d2:a8:cd:f9:5f:80:e7:7e:42:89:5c:44:46:34:60:
         b4:06:4f:38:0e:7f:9a:46:ce:83:df:db:18:59:37:ac:aa:b6:
         a6:56:07:e2:2f:8d:e1:1d:89:8b:fb:5c:ba:48:92:73:d7:68:
         b7:b7:f6:2b:e6:ce:24:71:c8:8e:b6:21:71:ac:a0:e6:1f:ed:
         bc:d9:9d:d4:c5:5c:9d:79:5e:79:65:dd:40:fb:1d:3c:f7:6f:
         ae:a4:93:97:dd:df:69:dc:c5:7c:8b:b5:87:d0:f2:c0:7c:64:
         53:1a:ab:a6:6c:be:d9:25:66:f1:a2:c3:ce:80:f2:c9:33:31:
         d8:21:67:d6:24:0b:f2:09:57:aa:1e:9b:99:04:f3:5f:23:92:
         cc:32:35:56:a5:a3:98:7d:6b:60:3c:f9:ea:78:3d:e3:dd:3b:
         83:51:26:1d:8c:8b:14:7d:ba:0e:1f:3e:00:a1:7e:68:6f:dc:
         cd:95:3e:1f:23:42:26:4b:26:33:3b:b7:ea:be:b6:10:6b:f8:
         9c:ea:0a:5b:f6:ab:d8:ea:a5:b8:14:d4:66:cc:f9:f4:2b:a7:
         d6:57:ed:d2:eb:29:c2:ba:54:61:5b:6e:70:7b:78:ca:9c:a8:
         2c:42:42:0d:89:77:8e:af:47:76:5d:b5:76:9e:05:84:b7:12:
         dd:cd:ef:74:c6:3f:4d:6d:84:65:48:7c:07:11:e2:2b:ad:97:
         b1:9c:80:07:a6:d7:3b:ab:2d:98:b0:87:0b:ed:02:24:de:2a:
         03:b1:a3:78:bc:17:27:04:f0:22:53:ff:05:93:31:87:49:8e:
         a1:15:c0:b4:f9:cb:40:dc:de:1b:9f:c2:c6:b8:f4:ef:42:26:
         c4:12:e8:75:c1:95:33:5b:f7:a6:54:87:e0:3b:c5:9c:fb:cb:
         3b:11:4b:16:d1:78:7c:39:4d:39:c5:9b:9b:55:3b:10:43:37:
         71:c7:dd:ae:41:d5:d0:11:86:ec:26:c5:1d:0c:d8:97:5b:74:
         2e:fc:12:75:4f:06:7b:de:e5:e0:2a:9e:ff:78:c9:7c:ae:d0:
         4b:77:74:f8:f0:38:14:f7:6f:f8:9e:a2:e5:4a:e7:e9:23:87:
         53:32:e4:18:4b:b4:2a:a6:e1:ee:8b:c6:0d:f3:df:aa:f0:27:
         7a:f4:d9:98:3e:c1:de:81:c2:39:a5:c9:02:92:46:15:4c:29:
         95:6f:bd:01:d8:74:46:91:62:eb:2b:05:df:02:06:94:54:28:
         6a:f0:a0:34:b3:fb:dd:7d:af:d5:ff:04:89:34:8f:28:d6:3a:
         e9:f2:89:46:9c:ff:d1:21
-----BEGIN CERTIFICATE-----
MIIEdTCCAl2gAwIBAgICEqwwDQYJKoZIhvcNAQELBQAwgZ0xCzAJBgNVBAYTAkRF
MQ8wDQYDVQQIDAZCYXllcm4xFDASBgNVBAcMC07Dg8K8cm5iZXJnMRMwEQYDVQQK
DApTaWVtZW5zIEFHMRQwEgYDVQQLDAtUcnVzdGNlbnRlcjERMA8GA1UEAwwIT2xp
dmVyQ0ExKTAnBgkqhkiG9w0BCQEWGm9saXZlci5zdGlsbGVyQHNpZW1lbnMuY29t
MB4XDTIwMTEwMjExMjc0NFoXDTIxMTEwMjExMjc0NFowIDEOMAwGA1UECgwFdGVz
dDYxDjAMBgNVBAMMBXRlc3Q2MIIBIjANBgkqhkiG9w0BAQEFAAOCAQ8AMIIBCgKC
AQEA0jEMBXXleX7cse5ijdyOlsH/8P38cIg1UsdJjHcwS3DVTbjfgvkEyGi0mjGA
l+0zgbHorFClB7hhWqQ9Tn39IVFhgjnFAgr4FgOtjxKECodEvyAwK+OR3GP2WboC
m22eeu+vO81JYTFM2IUja1j0cV9DP3sWo2kMdzN0aAmuLRrsYQkVOkY1hdcxuwQO
uHIO/+J48cp6aFrnjkr7p5Ya3kr5wI0i+voWZvDBGJXU5FTXhSpYGqzDPcfYxGSD
2aqnJ5oKU1cgNLL8cuW6vUAWT2/3h1iw+uYr+sKqJgTbNoyT2iNRu2u7cuMccyNl
Lu6AfY8n7QKlZfojAh6S9ji7cwIDAQABozswOTAZBgNVHSUEEjAQBgRVHSUABggr
BgEFBQcDAzALBgNVHQ8EBAMCB4AwDwYJKwYBBQUHMAEFBAIFADANBgkqhkiG9w0B
AQsFAAOCAgEAdGMapFKk7uhnMxaMuDgOJP6UzYG80qjN+V+A535CiVxERjRgtAZP
OA5/mkbOg9/bGFk3rKq2plYH4i+N4R2Ji/tcukiSc9dot7f2K+bOJHHIjrYhcayg
5h/tvNmd1MVcnXleeWXdQPsdPPdvrqSTl93fadzFfIu1h9DywHxkUxqrpmy+2SVm
8aLDzoDyyTMx2CFn1iQL8glXqh6bmQTzXyOSzDI1VqWjmH1rYDz56ng94907g1Em
HYyLFH26Dh8+AKF+aG/czZU+HyNCJksmMzu36r62EGv4nOoKW/ar2OqluBTUZsz5
9Cun1lft0uspwrpUYVtucHt4ypyoLEJCDYl3jq9Hdl21dp4FhLcS3c3vdMY/TW2E
ZUh8BxHiK62XsZyAB6bXO6stmLCHC+0CJN4qA7GjeLwXJwTwIlP/BZMxh0mOoRXA
tPnLQNzeG5/Cxrj070ImxBLodcGVM1v3plSH4DvFnPvLOxFLFtF4fDlNOcWbm1U7
EEM3ccfdrkHV0BGG7CbFHQzYl1t0LvwSdU8Ge97l4Cqe/3jJfK7QS3d0+PA4FPdv
+J6i5Urn6SOHUzLkGEu0Kqbh7ovGDfPfqvAnevTZmD7B3oHCOaXJApJGFUwplW+9
Adh0RpFi6ysF3wIGlFQoavCgNLP73X2v1f8EiTSPKNY66fKJRpz/0SE=
-----END CERTIFICATE-----
