Certificate:
    Data:
        Version: 3 (0x2)
        Serial Number: 4777 (0x12a9)
        Signature Algorithm: sha256WithRSAEncryption
        Issuer: C=DE, ST=Bayern, L=N\xC3\x83\xC2\xBCrnberg, O=Siemens AG, OU=Trustcenter, CN=OliverCA/emailAddress=oliver.stiller@siemens.com
        Validity
            Not Before: Nov  2 11:25:03 2020 GMT
            Not After : Nov  2 11:25:03 2021 GMT
        Subject: O=test13, CN=test13
        Subject Public Key Info:
            Public Key Algorithm: rsaEncryption
                RSA Public-Key: (2048 bit)
                Modulus:
                    00:de:1c:36:b7:2e:6d:48:6c:2b:87:77:f0:48:2d:
                    ec:da:6b:af:26:1a:b0:82:4a:56:e9:df:a7:3e:e7:
                    c1:eb:c1:e0:d0:37:ca:5b:4f:07:11:f2:3e:a2:89:
                    4d:e0:12:2c:7b:85:0a:14:ea:01:df:0b:af:2f:0f:
                    72:df:e6:81:72:00:c2:e2:71:4e:0a:08:01:0b:18:
                    ee:5a:c9:bf:c8:93:83:cf:3c:5b:e8:06:f3:f8:39:
                    d0:0a:da:e4:8c:f9:d8:bd:26:68:24:14:6e:2f:8a:
                    5e:54:e4:ed:02:6f:f8:56:f3:68:c7:fb:6f:92:fb:
                    ba:b0:89:3a:d2:64:37:0f:c9:e4:85:88:db:4f:17:
                    de:50:fe:81:f9:7c:87:35:d3:70:d5:64:e5:25:cf:
                    0a:98:b5:be:18:b6:c9:f2:f6:80:7c:70:8a:4b:4a:
                    59:24:0a:a2:cb:d3:c0:70:1e:dd:5a:ab:89:a8:f6:
                    50:91:cb:43:50:ee:7d:63:f2:15:01:e0:12:0c:1e:
                    f7:82:91:d0:e4:1c:8b:2d:66:de:18:63:04:b2:31:
                    25:a5:21:6c:b9:c4:3e:a7:ff:8f:31:c9:c2:b6:40:
                    5b:69:91:89:07:f7:82:e4:72:ce:9e:26:4f:a9:7c:
                    f1:d2:09:64:0d:c7:e3:ba:b2:82:f7:27:30:35:b2:
                    a0:ff
                Exponent: 65537 (0x10001)
        X509v3 extensions:
            X509v3 Extended Key Usage: 
                Any Extended Key Usage, Time Stamping
            X509v3 Key Usage: 
                Key Encipherment
            OCSP No Check: 

    Signature Algorithm: sha256WithRSAEncryption
         44:b6:06:8b:43:0a:a3:ff:7a:1e:1c:3d:c5:42:28:61:0a:6b:
         a7:3d:b4:ea:fb:67:85:8c:45:13:93:8d:51:2b:36:16:a5:11:
         84:16:ba:b0:9b:8a:5e:4b:6c:bb:66:39:13:44:fb:e1:86:26:
         f7:79:b6:e9:69:dc:1d:3f:03:9a:aa:87:7c:2f:23:d1:7d:c4:
         de:ae:b9:d7:b8:fa:2a:aa:b1:b4:1f:61:ae:6b:46:0a:27:cd:
         95:cc:db:26:b3:cf:56:8d:87:a9:1f:3c:37:85:8c:81:f5:83:
         8d:b8:9a:5d:0b:d1:a8:56:e4:a2:20:a7:26:4a:87:d6:5e:ce:
         07:f7:e5:33:c7:7b:1e:03:d8:2d:82:86:c2:f0:2e:28:19:1b:
         26:53:7a:c8:09:99:14:26:a3:21:9e:7e:09:a4:8d:cc:bc:54:
         fe:81:dc:85:22:e5:39:32:68:14:f1:17:98:17:ba:e6:66:f9:
         4d:5c:2b:3d:e4:95:97:d5:5f:b5:a6:52:a0:39:79:b5:3f:11:
         51:56:4d:fe:17:45:cd:ee:b2:48:76:c2:0a:61:4d:02:ab:99:
         a5:85:d7:1a:e6:c8:bc:1e:04:40:dd:c9:e7:b3:01:9a:aa:8a:
         2d:fa:ae:a5:00:7d:cc:70:43:1a:e0:92:ea:0e:40:5e:b4:0f:
         a4:97:ad:6e:b9:07:9d:a4:47:95:61:61:ce:06:9c:af:d8:98:
         93:43:6c:9f:29:cc:6f:0f:0d:2f:ab:dd:28:bd:41:19:14:08:
         7e:a7:23:ec:7b:e0:ff:2a:39:f9:0d:e5:2d:e4:0c:45:62:8b:
         4b:df:2b:25:e0:70:fb:b0:c9:c8:fc:58:23:18:7a:3e:90:7f:
         e6:09:a5:21:e3:bc:fa:cc:ff:22:73:5a:be:c9:05:29:89:f3:
         e5:6d:6a:59:59:66:58:36:09:95:aa:d8:a7:9d:e0:7c:aa:7f:
         5f:06:b5:5d:80:7b:3d:48:e2:42:ba:7f:11:2f:4a:46:72:73:
         42:f8:84:85:fa:b6:5d:35:49:14:3c:21:d9:e7:29:43:40:80:
         72:49:24:0c:b3:7b:9d:a0:c4:55:54:20:13:8a:a5:8c:12:bb:
         a7:bc:43:0d:23:cf:a6:47:22:0c:20:74:dc:34:2a:6c:df:48:
         02:6b:83:49:72:e0:25:6b:16:4c:ba:a1:f0:4b:89:ed:5e:1c:
         2c:16:3e:68:1a:e5:d8:cb:59:1b:a4:4f:b2:fa:75:0a:d7:94:
         e7:72:3e:40:76:93:7b:7d:75:c5:91:c2:1c:31:34:95:49:09:
         88:79:db:01:ef:d7:21:79:74:91:f9:95:7d:c1:ae:dc:b9:0a:
         01:b2:71:27:b8:5c:51:f9
-----BEGIN CERTIFICATE-----
MIIEdzCCAl+gAwIBAgICEqkwDQYJKoZIhvcNAQELBQAwgZ0xCzAJBgNVBAYTAkRF
MQ8wDQYDVQQIDAZCYXllcm4xFDASBgNVBAcMC07Dg8K8cm5iZXJnMRMwEQYDVQQK
DApTaWVtZW5zIEFHMRQwEgYDVQQLDAtUcnVzdGNlbnRlcjERMA8GA1UEAwwIT2xp
dmVyQ0ExKTAnBgkqhkiG9w0BCQEWGm9saXZlci5zdGlsbGVyQHNpZW1lbnMuY29t
MB4XDTIwMTEwMjExMjUwM1oXDTIxMTEwMjExMjUwM1owIjEPMA0GA1UECgwGdGVz
dDEzMQ8wDQYDVQQDDAZ0ZXN0MTMwggEiMA0GCSqGSIb3DQEBAQUAA4IBDwAwggEK
AoIBAQDeHDa3Lm1IbCuHd/BILezaa68mGrCCSlbp36c+58HrweDQN8pbTwcR8j6i
iU3gEix7hQoU6gHfC68vD3Lf5oFyAMLicU4KCAELGO5ayb/Ik4PPPFvoBvP4OdAK
2uSM+di9JmgkFG4vil5U5O0Cb/hW82jH+2+S+7qwiTrSZDcPyeSFiNtPF95Q/oH5
fIc103DVZOUlzwqYtb4Ytsny9oB8cIpLSlkkCqLL08BwHt1aq4mo9lCRy0NQ7n1j
8hUB4BIMHveCkdDkHIstZt4YYwSyMSWlIWy5xD6n/48xycK2QFtpkYkH94Lkcs6e
Jk+pfPHSCWQNx+O6soL3JzA1sqD/AgMBAAGjOzA5MBkGA1UdJQQSMBAGBFUdJQAG
CCsGAQUFBwMIMAsGA1UdDwQEAwIFIDAPBgkrBgEFBQcwAQUEAgUAMA0GCSqGSIb3
DQEBCwUAA4ICAQBEtgaLQwqj/3oeHD3FQihhCmunPbTq+2eFjEUTk41RKzYWpRGE
Frqwm4peS2y7ZjkTRPvhhib3ebbpadwdPwOaqod8LyPRfcTerrnXuPoqqrG0H2Gu
a0YKJ82VzNsms89WjYepHzw3hYyB9YONuJpdC9GoVuSiIKcmSofWXs4H9+Uzx3se
A9gtgobC8C4oGRsmU3rICZkUJqMhnn4JpI3MvFT+gdyFIuU5MmgU8ReYF7rmZvlN
XCs95JWX1V+1plKgOXm1PxFRVk3+F0XN7rJIdsIKYU0Cq5mlhdca5si8HgRA3cnn
swGaqoot+q6lAH3McEMa4JLqDkBetA+kl61uuQedpEeVYWHOBpyv2JiTQ2yfKcxv
Dw0vq90ovUEZFAh+pyPse+D/Kjn5DeUt5AxFYotL3ysl4HD7sMnI/FgjGHo+kH/m
CaUh47z6zP8ic1q+yQUpifPlbWpZWWZYNgmVqtinneB8qn9fBrVdgHs9SOJCun8R
L0pGcnNC+ISF+rZdNUkUPCHZ5ylDQIBySSQMs3udoMRVVCATiqWMErunvEMNI8+m
RyIMIHTcNCps30gCa4NJcuAlaxZMuqHwS4ntXhwsFj5oGuXYy1kbpE+y+nUK15Tn
cj5AdpN7fXXFkcIcMTSVSQmIedsB79cheXSR+ZV9wa7cuQoBsnEnuFxR+Q==
-----END CERTIFICATE-----
