Certificate:
    Data:
        Version: 3 (0x2)
        Serial Number: 4774 (0x12a6)
        Signature Algorithm: sha256WithRSAEncryption
        Issuer: C=DE, ST=Bayern, L=N\xC3\x83\xC2\xBCrnberg, O=Siemens AG, OU=Trustcenter, CN=OliverCA/emailAddress=oliver.stiller@siemens.com
        Validity
            Not Before: Nov  2 11:22:03 2020 GMT
            Not After : Nov  2 11:22:03 2021 GMT
        Subject: O=test12, CN=test12
        Subject Public Key Info:
            Public Key Algorithm: rsaEncryption
                RSA Public-Key: (2048 bit)
                Modulus:
                    00:c6:12:ce:13:79:90:49:47:fe:10:b0:ba:12:9d:
                    1a:cc:a9:2a:f3:35:9a:da:5c:41:28:86:de:c7:9e:
                    4f:dc:3b:bd:6e:e4:94:a0:1e:02:89:24:53:de:a7:
                    01:45:c0:98:93:f7:e9:8d:e3:3d:bd:ec:b9:52:6f:
                    4a:6d:e6:cb:1b:0d:a1:41:8d:25:9f:fd:f8:7c:cf:
                    b4:39:76:c1:75:b0:ff:a4:44:38:e1:76:e3:4c:c2:
                    3a:51:cf:7e:d0:98:e0:5b:38:34:b8:f3:d2:d8:d9:
                    ca:3e:19:ee:88:b2:1f:2d:8d:fc:3d:de:a3:fa:f0:
                    e5:bd:0d:d4:55:f5:f0:cd:ec:f6:75:21:b5:34:32:
                    c1:28:d0:5f:35:83:b0:f0:32:f9:b1:e1:76:71:f2:
                    5d:74:d7:df:ba:93:43:52:33:4b:fd:63:68:5a:71:
                    fd:31:30:11:65:00:ae:e0:e8:66:1d:a8:f0:5f:b2:
                    aa:12:01:26:b4:69:54:70:f7:35:ba:c9:02:28:4a:
                    45:69:f2:a3:65:aa:08:ff:be:98:9e:28:d0:b1:e0:
                    33:04:c9:ff:a5:5a:16:a4:48:29:4b:67:17:07:76:
                    c9:03:71:07:62:31:57:9e:ff:6d:f3:7e:78:88:1c:
                    42:06:73:be:ec:fb:f5:6c:30:96:6d:fc:74:b4:2b:
                    e5:27
                Exponent: 65537 (0x10001)
        X509v3 extensions:
            X509v3 Extended Key Usage: 
                Any Extended Key Usage, OCSP Signing
            X509v3 Key Usage: 
                Digital Signature
            OCSP No Check: 

    Signature Algorithm: sha256WithRSAEncryption
         8b:72:23:59:5e:13:39:81:c1:53:ff:39:85:98:83:7c:6f:07:
         77:1b:ff:6e:d1:a4:67:e5:fb:f9:cd:b7:99:f1:10:39:4f:ff:
         af:b6:48:2a:fe:6e:a6:c2:d8:2e:b9:56:6a:ab:3c:d5:a5:53:
         51:2c:e4:61:6d:60:02:12:8f:03:73:03:18:1b:5b:9c:e1:17:
         49:ec:b8:95:19:ea:2e:de:b5:e5:15:41:16:66:9f:3d:b7:b1:
         13:6e:3b:20:29:d6:5d:e2:53:d3:54:21:4b:4f:11:67:44:00:
         37:87:5f:21:4d:82:6e:4f:70:66:e8:4d:e1:76:29:45:a2:88:
         13:74:47:12:8c:7a:f7:b3:de:e4:a2:ee:39:6d:06:56:30:83:
         fb:66:ff:e6:ed:03:1d:1b:34:78:2c:6f:9a:54:77:85:48:4d:
         b9:76:91:72:aa:25:1a:dc:ab:fc:99:ec:da:48:79:a2:12:4b:
         be:36:63:41:0f:c3:df:c0:dd:85:2f:1c:b3:6f:97:65:1c:80:
         a0:58:af:09:e2:2b:dc:a8:54:3b:ba:72:0b:ba:84:82:af:b8:
         51:2a:0c:24:0a:6a:be:a7:4c:a4:8e:d5:81:fd:5d:6b:89:03:
         84:4e:1c:80:65:f4:ae:d4:ea:8b:d9:c1:77:12:0e:7d:fe:79:
         4b:c2:4f:3a:fa:60:b6:9b:30:ae:26:3a:9e:62:a4:12:af:71:
         73:2f:28:40:78:79:fe:cd:ee:4b:84:0f:b1:c8:f0:3c:47:16:
         de:cf:32:1d:f7:86:d5:25:60:9b:74:1c:1f:f1:7a:44:14:43:
         57:85:80:7c:27:9a:26:0c:da:53:21:6f:ca:d0:7e:2a:55:70:
         c8:7f:8b:86:8c:03:ef:e0:5a:28:8c:a8:61:a8:89:d3:a5:e5:
         89:2b:05:d8:4a:b1:2a:6d:34:58:76:ec:39:2c:d6:a8:38:4c:
         ad:d9:bc:aa:bf:f3:7a:bf:d4:f4:3c:6e:71:2e:ff:7e:89:00:
         62:46:28:62:d4:f6:ef:eb:09:0c:11:2a:5a:33:50:06:68:77:
         a4:09:1e:a7:85:9a:79:f0:12:09:4e:c5:0f:94:89:f3:94:e1:
         76:54:de:8f:24:0e:78:e4:49:15:97:0d:c4:95:c5:14:37:ba:
         21:a6:81:bc:4c:57:12:4c:ce:6e:e8:96:aa:25:d8:52:66:58:
         ca:1c:98:9f:92:85:f5:b9:e8:a7:ee:76:cf:75:72:8b:e8:1c:
         1b:99:35:32:58:03:a0:fc:94:c5:07:12:4f:3a:92:84:e8:fd:
         9c:7e:c6:7d:0a:02:24:18:b9:d5:60:eb:1a:30:62:ae:9d:00:
         4b:f1:bb:b1:3f:4c:21:8d
-----BEGIN CERTIFICATE-----
MIIEdzCCAl+gAwIBAgICEqYwDQYJKoZIhvcNAQELBQAwgZ0xCzAJBgNVBAYTAkRF
MQ8wDQYDVQQIDAZCYXllcm4xFDASBgNVBAcMC07Dg8K8cm5iZXJnMRMwEQYDVQQK
DApTaWVtZW5zIEFHMRQwEgYDVQQLDAtUcnVzdGNlbnRlcjERMA8GA1UEAwwIT2xp
dmVyQ0ExKTAnBgkqhkiG9w0BCQEWGm9saXZlci5zdGlsbGVyQHNpZW1lbnMuY29t
MB4XDTIwMTEwMjExMjIwM1oXDTIxMTEwMjExMjIwM1owIjEPMA0GA1UECgwGdGVz
dDEyMQ8wDQYDVQQDDAZ0ZXN0MTIwggEiMA0GCSqGSIb3DQEBAQUAA4IBDwAwggEK
AoIBAQDGEs4TeZBJR/4QsLoSnRrMqSrzNZraXEEoht7Hnk/cO71u5JSgHgKJJFPe
pwFFwJiT9+mN4z297LlSb0pt5ssbDaFBjSWf/fh8z7Q5dsF1sP+kRDjhduNMwjpR
z37QmOBbODS489LY2co+Ge6Ish8tjfw93qP68OW9DdRV9fDN7PZ1IbU0MsEo0F81
g7DwMvmx4XZx8l1019+6k0NSM0v9Y2hacf0xMBFlAK7g6GYdqPBfsqoSASa0aVRw
9zW6yQIoSkVp8qNlqgj/vpieKNCx4DMEyf+lWhakSClLZxcHdskDcQdiMVee/23z
fniIHEIGc77s+/VsMJZt/HS0K+UnAgMBAAGjOzA5MBkGA1UdJQQSMBAGBFUdJQAG
CCsGAQUFBwMJMAsGA1UdDwQEAwIHgDAPBgkrBgEFBQcwAQUEAgUAMA0GCSqGSIb3
DQEBCwUAA4ICAQCLciNZXhM5gcFT/zmFmIN8bwd3G/9u0aRn5fv5zbeZ8RA5T/+v
tkgq/m6mwtguuVZqqzzVpVNRLORhbWACEo8DcwMYG1uc4RdJ7LiVGeou3rXlFUEW
Zp89t7ETbjsgKdZd4lPTVCFLTxFnRAA3h18hTYJuT3Bm6E3hdilFoogTdEcSjHr3
s97kou45bQZWMIP7Zv/m7QMdGzR4LG+aVHeFSE25dpFyqiUa3Kv8mezaSHmiEku+
NmNBD8PfwN2FLxyzb5dlHICgWK8J4ivcqFQ7unILuoSCr7hRKgwkCmq+p0ykjtWB
/V1riQOEThyAZfSu1OqL2cF3Eg59/nlLwk86+mC2mzCuJjqeYqQSr3FzLyhAeHn+
ze5LhA+xyPA8RxbezzId94bVJWCbdBwf8XpEFENXhYB8J5omDNpTIW/K0H4qVXDI
f4uGjAPv4FoojKhhqInTpeWJKwXYSrEqbTRYduw5LNaoOEyt2byqv/N6v9T0PG5x
Lv9+iQBiRihi1Pbv6wkMESpaM1AGaHekCR6nhZp58BIJTsUPlInzlOF2VN6PJA54
5EkVlw3ElcUUN7ohpoG8TFcSTM5u6JaqJdhSZljKHJifkoX1uein7nbPdXKL6Bwb
mTUyWAOg/JTFBxJPOpKE6P2cfsZ9CgIkGLnVYOsaMGKunQBL8buxP0whjQ==
-----END CERTIFICATE-----
