Certificate:
    Data:
        Version: 3 (0x2)
        Serial Number: 4779 (0x12ab)
        Signature Algorithm: sha256WithRSAEncryption
        Issuer: C=DE, ST=Bayern, L=N\xC3\x83\xC2\xBCrnberg, O=Siemens AG, OU=Trustcenter, CN=OliverCA/emailAddress=oliver.stiller@siemens.com
        Validity
            Not Before: Nov  2 11:26:27 2020 GMT
            Not After : Nov  2 11:26:27 2021 GMT
        Subject: O=test7, CN=test7
        Subject Public Key Info:
            Public Key Algorithm: rsaEncryption
                RSA Public-Key: (2048 bit)
                Modulus:
                    00:c3:1e:a5:94:57:4c:43:50:63:f7:96:a8:d5:1c:
                    ee:3e:20:52:65:94:c3:ef:32:2d:a6:3c:0c:4c:4f:
                    bb:0d:6c:34:47:d4:57:ae:ee:c0:e1:ef:39:d6:58:
                    06:5c:94:50:d8:db:7b:d1:b0:44:ac:6c:76:b0:20:
                    ac:63:2f:7a:bf:c7:25:ef:9d:06:0f:23:5d:c5:71:
                    01:fc:be:d8:0f:d4:4c:96:f4:68:d0:08:1f:7e:c8:
                    34:67:b1:8e:76:df:07:eb:37:cc:95:18:5d:99:24:
                    dc:c4:52:3e:46:11:32:95:1d:9e:4b:49:1b:70:2f:
                    1c:74:e6:85:7b:3a:e7:34:61:c9:b3:da:9a:fa:e8:
                    6b:b9:9a:8c:04:a0:37:b8:ec:5a:51:d7:d5:4a:9e:
                    47:a0:f6:5d:16:10:fe:9c:d9:ac:82:75:82:a2:bd:
                    02:e3:d3:cb:a1:93:cc:de:85:9f:a5:aa:fa:6b:59:
                    9b:84:76:04:90:b2:68:e5:0d:c2:6b:ca:ad:8d:83:
                    82:ce:11:e4:71:9a:db:9f:15:bb:cc:4a:88:18:ae:
                    5d:e3:8b:3a:95:f0:2d:d3:52:1a:67:ce:9f:89:9a:
                    4c:87:2c:68:93:0b:ca:32:23:a7:f2:5d:57:4f:c7:
                    b9:e6:6f:2a:60:5e:ff:87:5e:46:c7:3f:bb:40:3a:
                    66:3b
                Exponent: 65537 (0x10001)
        X509v3 extensions:
            X509v3 Extended Key Usage: 
                Any Extended Key Usage, E-mail Protection
            X509v3 Key Usage: 
                Digital Signature, Non Repudiation, Key Encipherment, Key Agreement
            OCSP No Check: 

    Signature Algorithm: sha256WithRSAEncryption
         81:35:ee:08:a3:0a:34:42:98:96:67:aa:89:81:ed:8a:a8:e6:
         9a:e3:82:95:67:53:dc:b7:e9:19:00:1d:b8:ab:99:a1:5a:c0:
         c9:b7:be:9a:01:bc:0f:2e:6c:39:79:73:13:c9:93:39:c0:e9:
         53:ee:26:fb:7c:07:86:70:79:83:d1:70:99:12:1c:89:b0:94:
         db:b7:d5:87:c9:56:c3:b9:0b:56:28:1c:3b:fd:94:6e:44:cf:
         61:89:e6:f4:3f:49:c1:9a:f1:98:0a:e9:70:f7:61:16:6f:f3:
         ab:c8:84:39:54:8d:0e:dc:ce:84:57:eb:1b:78:e7:11:65:27:
         f1:5d:8e:dc:c9:82:b4:1d:0e:e8:af:ed:a6:90:ac:b6:37:a7:
         ae:91:17:30:c7:6a:33:3a:0d:6b:3d:ae:af:32:c9:9d:bc:53:
         64:c9:ea:7c:d1:55:05:fe:64:d2:84:bc:2a:4e:79:7d:f9:fb:
         45:ef:ed:50:01:20:cf:c7:3c:03:fb:00:35:77:ef:89:1a:4d:
         14:a0:61:50:bd:d9:ad:67:24:08:cc:b5:dd:6e:4b:d1:93:cb:
         b6:df:61:ed:14:9b:fd:02:24:4f:09:fb:64:50:fd:58:85:b1:
         b3:48:20:c1:dc:fb:8a:be:68:b3:43:07:a5:7c:a4:f1:a7:21:
         10:14:7c:94:44:5a:b3:81:9b:55:4f:d1:20:9b:4a:ee:36:d6:
         7d:ac:0b:ec:59:df:85:b1:8c:05:65:74:33:10:8b:73:ae:b1:
         a1:78:a8:e7:f8:fe:35:6c:58:ed:80:3a:60:5f:af:54:72:7d:
         6e:7f:5d:34:8d:56:d2:45:32:4a:09:bf:6f:49:77:64:13:18:
         61:ac:5a:1a:f8:69:16:47:9d:89:93:da:76:71:65:61:ff:10:
         f3:ab:bf:c6:a4:49:9c:ed:b1:02:b0:1e:03:d2:cf:dd:ce:50:
         35:47:a7:54:3c:1e:72:e4:50:d6:53:0a:ea:22:d5:b8:dc:f5:
         09:f3:c6:e0:f7:ed:f0:6d:a7:cf:6b:5d:1b:8e:78:b4:b7:51:
         ee:79:6b:3d:4e:1e:33:77:ed:eb:1d:e6:f9:aa:02:b8:58:6b:
         12:12:f6:2a:e9:ae:91:b6:27:3b:c3:a1:d9:68:39:80:8b:e1:
         b0:db:8f:75:7e:75:68:f8:14:d8:a4:7d:bb:6b:81:3b:06:e8:
         b5:3b:b6:42:f9:3e:48:42:52:2f:61:93:36:10:33:0b:e9:9d:
         5e:17:c8:d9:f6:d4:77:f5:22:cb:ec:0e:af:01:7a:37:34:df:
         6b:da:7e:b2:1b:1b:6c:d3:2c:fa:70:8e:7f:e4:d9:d3:1b:ec:
         b0:0b:30:ec:b9:6a:0c:c1
-----BEGIN CERTIFICATE-----
MIIEdTCCAl2gAwIBAgICEqswDQYJKoZIhvcNAQELBQAwgZ0xCzAJBgNVBAYTAkRF
MQ8wDQYDVQQIDAZCYXllcm4xFDASBgNVBAcMC07Dg8K8cm5iZXJnMRMwEQYDVQQK
DApTaWVtZW5zIEFHMRQwEgYDVQQLDAtUcnVzdGNlbnRlcjERMA8GA1UEAwwIT2xp
dmVyQ0ExKTAnBgkqhkiG9w0BCQEWGm9saXZlci5zdGlsbGVyQHNpZW1lbnMuY29t
MB4XDTIwMTEwMjExMjYyN1oXDTIxMTEwMjExMjYyN1owIDEOMAwGA1UECgwFdGVz
dDcxDjAMBgNVBAMMBXRlc3Q3MIIBIjANBgkqhkiG9w0BAQEFAAOCAQ8AMIIBCgKC
AQEAwx6llFdMQ1Bj95ao1RzuPiBSZZTD7zItpjwMTE+7DWw0R9RXru7A4e851lgG
XJRQ2Nt70bBErGx2sCCsYy96v8cl750GDyNdxXEB/L7YD9RMlvRo0Agffsg0Z7GO
dt8H6zfMlRhdmSTcxFI+RhEylR2eS0kbcC8cdOaFezrnNGHJs9qa+uhruZqMBKA3
uOxaUdfVSp5HoPZdFhD+nNmsgnWCor0C49PLoZPM3oWfpar6a1mbhHYEkLJo5Q3C
a8qtjYOCzhHkcZrbnxW7zEqIGK5d44s6lfAt01IaZ86fiZpMhyxokwvKMiOn8l1X
T8e55m8qYF7/h15Gxz+7QDpmOwIDAQABozswOTAZBgNVHSUEEjAQBgRVHSUABggr
BgEFBQcDBDALBgNVHQ8EBAMCA+gwDwYJKwYBBQUHMAEFBAIFADANBgkqhkiG9w0B
AQsFAAOCAgEAgTXuCKMKNEKYlmeqiYHtiqjmmuOClWdT3LfpGQAduKuZoVrAybe+
mgG8Dy5sOXlzE8mTOcDpU+4m+3wHhnB5g9FwmRIcibCU27fVh8lWw7kLVigcO/2U
bkTPYYnm9D9JwZrxmArpcPdhFm/zq8iEOVSNDtzOhFfrG3jnEWUn8V2O3MmCtB0O
6K/tppCstjenrpEXMMdqMzoNaz2urzLJnbxTZMnqfNFVBf5k0oS8Kk55ffn7Re/t
UAEgz8c8A/sANXfviRpNFKBhUL3ZrWckCMy13W5L0ZPLtt9h7RSb/QIkTwn7ZFD9
WIWxs0ggwdz7ir5os0MHpXyk8achEBR8lERas4GbVU/RIJtK7jbWfawL7FnfhbGM
BWV0MxCLc66xoXio5/j+NWxY7YA6YF+vVHJ9bn9dNI1W0kUySgm/b0l3ZBMYYaxa
GvhpFkediZPadnFlYf8Q86u/xqRJnO2xArAeA9LP3c5QNUenVDwecuRQ1lMK6iLV
uNz1CfPG4Pft8G2nz2tdG454tLdR7nlrPU4eM3ft6x3m+aoCuFhrEhL2KumukbYn
O8Oh2Wg5gIvhsNuPdX51aPgU2KR9u2uBOwbotTu2Qvk+SEJSL2GTNhAzC+mdXhfI
2fbUd/Uiy+wOrwF6NzTfa9p+shsbbNMs+nCOf+TZ0xvssAsw7LlqDME=
-----END CERTIFICATE-----
