Certificate:
    Data:
        Version: 3 (0x2)
        Serial Number: 4776 (0x12a8)
        Signature Algorithm: sha256WithRSAEncryption
        Issuer: C=DE, ST=Bayern, L=N\xC3\x83\xC2\xBCrnberg, O=Siemens AG, OU=Trustcenter, CN=OliverCA/emailAddress=oliver.stiller@siemens.com
        Validity
            Not Before: Nov  2 11:23:12 2020 GMT
            Not After : Nov  2 11:23:12 2021 GMT
        Subject: O=test10, CN=test10
        Subject Public Key Info:
            Public Key Algorithm: rsaEncryption
                RSA Public-Key: (2048 bit)
                Modulus:
                    00:c1:35:81:0f:72:1a:15:2e:e7:1b:da:09:38:e9:
                    bf:13:ac:78:8e:e8:e3:2f:af:7a:13:1d:e8:d7:f7:
                    5c:e5:65:b2:c5:d6:81:59:1b:12:fb:b3:60:0d:9b:
                    a2:2a:fd:a0:3b:e9:de:a2:3a:9c:9a:cd:8b:4d:51:
                    6b:d0:67:81:f3:c2:e5:73:c6:89:e8:02:87:64:69:
                    40:8d:89:47:01:21:ea:54:20:55:ec:c4:07:2b:20:
                    ff:d5:7b:76:0d:59:c7:c1:70:a4:8e:9a:d3:f4:e7:
                    de:d6:c5:86:4c:8c:fd:61:06:03:8d:9d:50:b9:2b:
                    d5:75:54:9b:1d:4c:f9:d2:83:e0:0d:3a:26:b2:55:
                    1f:f7:8f:2e:d1:40:84:4b:53:f3:22:63:53:93:a9:
                    5e:a8:50:cc:82:cd:8c:5d:2a:08:7e:a0:ca:61:86:
                    14:1b:43:b5:be:01:c2:54:1c:b8:98:3f:fe:3d:1a:
                    27:df:65:3c:05:d7:b5:84:d0:38:6b:c3:42:02:f8:
                    28:b1:eb:17:80:e3:dd:09:15:e1:9e:5c:c1:b8:9d:
                    8e:ab:90:f6:14:a1:7c:ab:20:32:41:31:04:ae:fc:
                    c3:05:97:c6:ae:6b:87:65:27:e4:46:76:2a:99:7f:
                    b6:ac:11:c6:bf:01:2c:19:7f:7b:58:fd:ab:cb:2a:
                    99:e5
                Exponent: 65537 (0x10001)
        X509v3 extensions:
            X509v3 Extended Key Usage: 
                Any Extended Key Usage, Time Stamping
            X509v3 Key Usage: 
                Digital Signature, Non Repudiation
            OCSP No Check: 

    Signature Algorithm: sha256WithRSAEncryption
         03:be:6c:c0:92:41:21:d4:46:66:58:58:89:bb:ae:8b:68:77:
         28:8b:7d:08:74:00:b1:45:45:0b:b2:20:ef:54:33:3f:57:49:
         17:21:1c:57:b7:f8:ea:58:b6:27:a1:b6:ff:c3:63:a1:36:21:
         91:03:db:69:e5:7d:11:5d:0f:4f:73:c2:c4:91:77:24:54:f7:
         ff:42:bb:e0:c1:b1:3d:fc:f4:24:5a:65:67:fc:eb:d6:90:b7:
         ee:6f:93:d1:4b:17:24:df:21:ab:cf:65:03:c2:c0:07:84:b7:
         81:cf:d9:01:ca:2a:b8:88:14:ed:44:c8:f5:9b:2e:10:ab:b0:
         a5:bf:08:8b:62:05:28:24:ad:92:69:73:b8:70:ec:ee:fd:9f:
         a6:f1:f5:1e:ba:86:17:64:15:8f:7a:cc:de:8f:75:0e:00:bb:
         4d:95:90:b0:7c:b7:a5:16:56:04:30:73:04:6f:2e:42:58:ff:
         71:32:55:93:8d:c1:e4:82:1a:2e:c0:af:1a:a9:6b:81:76:d0:
         94:67:a7:0b:f8:31:91:04:a2:90:33:15:5b:4d:36:f8:4c:cc:
         c8:66:0a:48:99:80:75:cc:9c:0c:2e:72:c4:73:f6:03:44:e6:
         0e:c5:9a:02:df:24:cb:73:0c:81:ff:52:3b:49:4f:b9:33:fa:
         8d:2e:b6:e8:1d:b8:10:9f:ab:c0:f1:38:1e:25:51:cf:4c:1e:
         87:be:d7:e1:09:df:24:56:44:f1:98:37:66:1b:67:ff:93:48:
         4d:aa:0d:d8:bf:84:51:92:48:28:c3:f4:3e:1a:ea:9a:c7:ec:
         b3:bf:02:f8:1e:c1:de:af:9d:74:94:95:76:82:c1:ca:3b:80:
         99:01:c4:45:1d:de:31:93:bd:24:3c:f7:85:ab:30:59:d7:45:
         ba:1f:31:69:b2:d4:9f:12:fd:b8:32:88:a8:33:58:d9:da:06:
         02:5f:1e:14:39:37:14:d6:c7:9e:14:0a:78:18:2f:fc:ae:30:
         4d:92:6f:f4:6c:c4:f3:21:f2:75:fb:3d:50:3e:37:3a:ef:43:
         81:b7:89:7b:43:ac:53:ad:3e:13:d4:76:46:e4:a8:6e:d7:c7:
         06:40:40:0c:f5:fe:a7:68:73:46:f3:4b:16:9b:f8:f0:16:b8:
         db:97:8f:fd:6a:d4:4f:93:b5:f5:b5:a7:d7:fc:20:25:22:6a:
         bb:a6:74:fa:c6:c1:21:1c:22:84:04:5c:24:27:31:89:a1:a7:
         d6:3f:cd:a2:69:0e:90:32:9a:f4:2b:44:9a:a0:3e:0f:93:0d:
         ba:e6:d0:38:b4:b0:e4:26:19:8a:dc:21:21:00:e1:3c:a1:80:
         84:78:08:83:98:f0:4e:a9
-----BEGIN CERTIFICATE-----
MIIEdzCCAl+gAwIBAgICEqgwDQYJKoZIhvcNAQELBQAwgZ0xCzAJBgNVBAYTAkRF
MQ8wDQYDVQQIDAZCYXllcm4xFDASBgNVBAcMC07Dg8K8cm5iZXJnMRMwEQYDVQQK
DApTaWVtZW5zIEFHMRQwEgYDVQQLDAtUcnVzdGNlbnRlcjERMA8GA1UEAwwIT2xp
dmVyQ0ExKTAnBgkqhkiG9w0BCQEWGm9saXZlci5zdGlsbGVyQHNpZW1lbnMuY29t
MB4XDTIwMTEwMjExMjMxMloXDTIxMTEwMjExMjMxMlowIjEPMA0GA1UECgwGdGVz
dDEwMQ8wDQYDVQQDDAZ0ZXN0MTAwggEiMA0GCSqGSIb3DQEBAQUAA4IBDwAwggEK
AoIBAQDBNYEPchoVLucb2gk46b8TrHiO6OMvr3oTHejX91zlZbLF1oFZGxL7s2AN
m6Iq/aA76d6iOpyazYtNUWvQZ4HzwuVzxonoAodkaUCNiUcBIepUIFXsxAcrIP/V
e3YNWcfBcKSOmtP0597WxYZMjP1hBgONnVC5K9V1VJsdTPnSg+ANOiayVR/3jy7R
QIRLU/MiY1OTqV6oUMyCzYxdKgh+oMphhhQbQ7W+AcJUHLiYP/49GiffZTwF17WE
0Dhrw0IC+Cix6xeA490JFeGeXMG4nY6rkPYUoXyrIDJBMQSu/MMFl8aua4dlJ+RG
diqZf7asEca/ASwZf3tY/avLKpnlAgMBAAGjOzA5MBkGA1UdJQQSMBAGBFUdJQAG
CCsGAQUFBwMIMAsGA1UdDwQEAwIGwDAPBgkrBgEFBQcwAQUEAgUAMA0GCSqGSIb3
DQEBCwUAA4ICAQADvmzAkkEh1EZmWFiJu66LaHcoi30IdACxRUULsiDvVDM/V0kX
IRxXt/jqWLYnobb/w2OhNiGRA9tp5X0RXQ9Pc8LEkXckVPf/QrvgwbE9/PQkWmVn
/OvWkLfub5PRSxck3yGrz2UDwsAHhLeBz9kByiq4iBTtRMj1my4Qq7ClvwiLYgUo
JK2SaXO4cOzu/Z+m8fUeuoYXZBWPeszej3UOALtNlZCwfLelFlYEMHMEby5CWP9x
MlWTjcHkghouwK8aqWuBdtCUZ6cL+DGRBKKQMxVbTTb4TMzIZgpImYB1zJwMLnLE
c/YDROYOxZoC3yTLcwyB/1I7SU+5M/qNLrboHbgQn6vA8TgeJVHPTB6HvtfhCd8k
VkTxmDdmG2f/k0hNqg3Yv4RRkkgow/Q+Guqax+yzvwL4HsHer510lJV2gsHKO4CZ
AcRFHd4xk70kPPeFqzBZ10W6HzFpstSfEv24MoioM1jZ2gYCXx4UOTcU1seeFAp4
GC/8rjBNkm/0bMTzIfJ1+z1QPjc670OBt4l7Q6xTrT4T1HZG5Khu18cGQEAM9f6n
aHNG80sWm/jwFrjbl4/9atRPk7X1tafX/CAlImq7pnT6xsEhHCKEBFwkJzGJoafW
P82iaQ6QMpr0K0SaoD4Pkw265tA4tLDkJhmK3CEhAOE8oYCEeAiDmPBOqQ==
-----END CERTIFICATE-----
