Certificate:
    Data:
        Version: 3 (0x2)
        Serial Number: 4778 (0x12aa)
        Signature Algorithm: sha256WithRSAEncryption
        Issuer: C=DE, ST=Bayern, L=N\xC3\x83\xC2\xBCrnberg, O=Siemens AG, OU=Trustcenter, CN=OliverCA/emailAddress=oliver.stiller@siemens.com
        Validity
            Not Before: Nov  2 11:25:40 2020 GMT
            Not After : Nov  2 11:25:40 2021 GMT
        Subject: O=test0, CN=test0
        Subject Public Key Info:
            Public Key Algorithm: rsaEncryption
                RSA Public-Key: (2048 bit)
                Modulus:
                    00:b3:ef:e2:a2:6c:07:b0:ee:af:6f:5f:c2:f2:3d:
                    68:68:e8:9d:c0:8b:9e:8a:65:2d:04:3d:37:2e:b8:
                    01:f9:a3:cf:92:3d:0c:07:8c:74:de:20:2e:1f:67:
                    0d:72:6f:9a:a3:f4:fb:8a:ae:b6:35:b8:37:08:bd:
                    44:08:05:34:7a:a6:70:7b:72:64:28:07:79:e1:e9:
                    17:ac:8b:0a:8d:1d:f4:89:1c:4a:b5:31:02:21:65:
                    99:9e:97:fe:33:34:04:21:16:25:31:b6:e6:b3:c2:
                    8a:b5:c9:54:b1:ac:e6:c7:67:e5:ff:4c:15:d8:0a:
                    40:cd:36:e8:bb:d1:4e:d7:2a:42:30:ad:ce:1c:42:
                    2b:dd:cf:24:d0:68:75:66:a8:47:3e:3e:4b:5b:b5:
                    75:18:cb:92:87:0c:a3:99:66:6e:a3:5f:29:66:36:
                    6c:85:ae:bf:48:53:53:e6:24:a0:26:a4:83:f6:44:
                    b7:92:f0:3c:0e:c8:cc:e4:cb:4c:47:39:7d:e4:20:
                    00:5b:92:ea:da:78:1f:9a:6f:7f:3e:b5:c3:f3:d2:
                    2e:7e:49:0c:d4:72:cc:1b:49:a0:fb:7e:2a:63:1e:
                    8e:b4:d1:0e:80:0b:17:19:53:ff:26:63:3e:e7:68:
                    06:f2:88:ad:55:a2:48:af:90:ab:71:31:9a:24:d8:
                    79:b1
                Exponent: 65537 (0x10001)
        X509v3 extensions:
            X509v3 Extended Key Usage: 
                Any Extended Key Usage, E-mail Protection
            X509v3 Key Usage: 
                Digital Signature, Non Repudiation, Key Encipherment
            OCSP No Check: 

    Signature Algorithm: sha256WithRSAEncryption
         27:f1:82:17:f5:ae:d1:f8:98:30:5f:85:72:ce:b5:4c:c2:17:
         79:9f:e5:2b:35:e5:a4:94:72:90:49:b0:22:7e:d0:e1:89:9e:
         0d:8c:6f:5a:f4:22:fc:ed:88:58:af:11:78:5a:93:19:c3:2f:
         83:e0:ef:5c:93:11:1c:83:a0:56:67:20:57:a3:fd:1d:44:a7:
         ca:2a:67:82:5e:19:f5:1a:5b:71:4b:77:55:45:06:05:30:f4:
         a9:66:f8:f9:65:62:38:e2:46:70:6e:2e:d3:d1:f9:1d:a9:44:
         37:31:45:d6:a2:51:1f:9c:60:08:59:c4:f9:dd:fc:2b:a4:ab:
         35:60:a4:a4:f8:20:6b:dd:59:0e:f5:fc:97:86:eb:b2:3f:0e:
         62:09:e5:7a:cf:d4:f6:0f:34:1a:8b:2d:1b:17:80:d5:c2:89:
         8e:88:9e:b4:4f:47:74:1a:f8:0a:03:fb:66:90:c7:08:3f:27:
         b7:29:a4:d8:5a:a4:e9:f7:5f:24:ec:4d:9e:6d:b4:9a:d6:d3:
         50:74:16:fe:29:f3:a5:4b:a6:10:9f:17:63:9a:6e:55:49:26:
         81:a7:0f:5c:df:0e:4f:8b:13:b5:65:fb:b2:e6:73:23:b1:a2:
         54:62:e5:ea:fa:70:0c:36:44:00:d1:6c:4d:d6:c7:80:65:b6:
         43:93:66:5f:3f:b5:66:c4:8d:45:73:c7:52:ab:a9:fc:20:47:
         a3:7a:a4:1c:bc:af:cd:87:b2:e1:da:b4:19:6e:a2:db:42:22:
         89:7c:02:f3:4d:ef:4a:7e:06:36:c2:23:29:c8:46:a4:0f:1c:
         a7:8b:68:3f:30:a6:27:38:8d:f1:e3:c4:e7:74:43:24:2b:d9:
         ef:ed:4d:13:b9:e7:92:de:7c:4d:c4:6b:b5:f6:48:ce:38:0b:
         8d:22:83:8b:fd:83:c4:d1:7c:5a:8c:6e:6d:b0:c3:ac:e1:1f:
         31:3b:71:9a:3b:46:b9:3c:c1:b6:39:f3:a2:12:73:16:43:7d:
         2d:d2:65:76:33:60:a8:a1:58:9c:0f:6a:33:b7:49:e9:a3:6b:
         6d:7a:29:64:1b:2e:21:2c:b9:43:5b:2f:e0:72:c5:ec:89:7b:
         1a:ba:24:6c:a5:1c:d3:4d:2b:33:d8:3b:b5:9b:95:97:21:5c:
         ee:89:2f:40:d5:e7:c6:ab:8b:fa:75:14:c6:b1:5c:67:79:04:
         aa:4d:d1:b9:07:a7:f9:e9:bb:3f:08:9e:79:36:b9:90:17:56:
         a5:6f:1d:98:9b:7e:ed:6e:5a:ba:ec:53:d9:98:b6:6e:d9:c5:
         b1:01:53:71:fd:e6:61:1b:79:de:72:a5:44:1a:56:7a:f5:23:
         6b:b5:c5:82:dd:5a:16:c7
-----BEGIN CERTIFICATE-----
MIIEdTCCAl2gAwIBAgICEqowDQYJKoZIhvcNAQELBQAwgZ0xCzAJBgNVBAYTAkRF
MQ8wDQYDVQQIDAZCYXllcm4xFDASBgNVBAcMC07Dg8K8cm5iZXJnMRMwEQYDVQQK
DApTaWVtZW5zIEFHMRQwEgYDVQQLDAtUcnVzdGNlbnRlcjERMA8GA1UEAwwIT2xp
dmVyQ0ExKTAnBgkqhkiG9w0BCQEWGm9saXZlci5zdGlsbGVyQHNpZW1lbnMuY29t
MB4XDTIwMTEwMjExMjU0MFoXDTIxMTEwMjExMjU0MFowIDEOMAwGA1UECgwFdGVz
dDAxDjAMBgNVBAMMBXRlc3QwMIIBIjANBgkqhkiG9w0BAQEFAAOCAQ8AMIIBCgKC
AQEAs+/iomwHsO6vb1/C8j1oaOidwIueimUtBD03LrgB+aPPkj0MB4x03iAuH2cN
cm+ao/T7iq62Nbg3CL1ECAU0eqZwe3JkKAd54ekXrIsKjR30iRxKtTECIWWZnpf+
MzQEIRYlMbbms8KKtclUsazmx2fl/0wV2ApAzTbou9FO1ypCMK3OHEIr3c8k0Gh1
ZqhHPj5LW7V1GMuShwyjmWZuo18pZjZsha6/SFNT5iSgJqSD9kS3kvA8DsjM5MtM
Rzl95CAAW5Lq2ngfmm9/PrXD89IufkkM1HLMG0mg+34qYx6OtNEOgAsXGVP/JmM+
52gG8oitVaJIr5CrcTGaJNh5sQIDAQABozswOTAZBgNVHSUEEjAQBgRVHSUABggr
BgEFBQcDBDALBgNVHQ8EBAMCBeAwDwYJKwYBBQUHMAEFBAIFADANBgkqhkiG9w0B
AQsFAAOCAgEAJ/GCF/Wu0fiYMF+Fcs61TMIXeZ/lKzXlpJRykEmwIn7Q4YmeDYxv
WvQi/O2IWK8ReFqTGcMvg+DvXJMRHIOgVmcgV6P9HUSnyipngl4Z9RpbcUt3VUUG
BTD0qWb4+WViOOJGcG4u09H5HalENzFF1qJRH5xgCFnE+d38K6SrNWCkpPgga91Z
DvX8l4brsj8OYgnles/U9g80GostGxeA1cKJjoietE9HdBr4CgP7ZpDHCD8ntymk
2Fqk6fdfJOxNnm20mtbTUHQW/inzpUumEJ8XY5puVUkmgacPXN8OT4sTtWX7suZz
I7GiVGLl6vpwDDZEANFsTdbHgGW2Q5NmXz+1ZsSNRXPHUqup/CBHo3qkHLyvzYey
4dq0GW6i20IiiXwC803vSn4GNsIjKchGpA8cp4toPzCmJziN8ePE53RDJCvZ7+1N
E7nnkt58TcRrtfZIzjgLjSKDi/2DxNF8WoxubbDDrOEfMTtxmjtGuTzBtjnzohJz
FkN9LdJldjNgqKFYnA9qM7dJ6aNrbXopZBsuISy5Q1sv4HLF7Il7GrokbKUc000r
M9g7tZuVlyFc7okvQNXnxquL+nUUxrFcZ3kEqk3RuQen+em7PwieeTa5kBdWpW8d
mJt+7W5auuxT2Zi2btnFsQFTcf3mYRt53nKlRBpWevUja7XFgt1aFsc=
-----END CERTIFICATE-----
