Certificate:
    Data:
        Version: 3 (0x2)
        Serial Number: 4783 (0x12af)
        Signature Algorithm: sha256WithRSAEncryption
        Issuer: C=DE, ST=Bayern, L=N\xC3\x83\xC2\xBCrnberg, O=Siemens AG, OU=Trustcenter, CN=OliverCA/emailAddress=oliver.stiller@siemens.com
        Validity
            Not Before: Nov  2 11:47:43 2020 GMT
            Not After : Nov  2 11:47:43 2021 GMT
        Subject: O=test3, CN=test3
        Subject Public Key Info:
            Public Key Algorithm: rsaEncryption
                RSA Public-Key: (2048 bit)
                Modulus:
                    00:ab:f3:e6:c3:61:d6:2f:25:43:9f:d4:9b:b8:62:
                    4e:07:41:54:a6:84:54:ee:41:b9:18:5d:73:59:10:
                    06:28:31:46:80:13:37:a2:de:da:e2:1c:53:4a:60:
                    e0:6b:a7:ed:13:f8:7b:88:d6:68:44:1f:06:a2:72:
                    51:71:58:b7:fa:ce:3a:e5:9b:95:10:93:13:b1:c4:
                    8f:dd:98:ad:71:2e:29:2d:e8:43:6c:22:90:ae:cc:
                    6c:2d:08:7b:4c:35:8d:4d:2a:68:83:b9:f0:06:45:
                    bf:a4:a8:28:e6:6c:cb:47:ab:e6:20:7b:aa:bb:d0:
                    0a:7e:e1:b4:00:16:fd:88:b6:70:09:b4:24:cb:66:
                    e1:81:3d:0d:13:74:8c:42:b9:0c:8d:31:bd:b0:d1:
                    0f:2a:51:58:9e:b1:20:40:02:b0:f2:28:08:44:47:
                    df:f0:a4:d6:c0:78:3a:13:42:62:ce:02:29:12:5b:
                    1e:81:d0:4f:7a:37:74:7f:7a:c6:30:49:c0:46:70:
                    63:24:af:29:80:1d:db:09:14:07:bc:69:e0:3b:1c:
                    03:5e:37:2d:e6:cf:be:12:31:62:9c:6c:2f:00:3d:
                    86:da:42:36:e1:ae:8d:52:cc:d4:b0:0b:f4:9d:45:
                    1a:1e:2a:e6:2a:98:85:2c:30:9e:9c:3d:0e:fe:08:
                    64:7f
                Exponent: 65537 (0x10001)
        X509v3 extensions:
            X509v3 Extended Key Usage: 
                Any Extended Key Usage, TLS Web Client Authentication
            X509v3 Key Usage: 
                Digital Signature, Key Agreement
            OCSP No Check: 

    Signature Algorithm: sha256WithRSAEncryption
         7e:ff:2c:a7:d1:dd:66:60:9e:fb:16:df:39:3a:bc:7f:c4:2a:
         3e:e2:bf:82:d5:9f:c8:4a:7e:a6:7b:26:63:2f:2a:f5:22:d9:
         2b:5f:5d:3c:2e:79:07:81:cb:bc:2a:a6:6f:2a:60:00:a8:f7:
         2f:1f:4a:35:64:73:85:79:b8:f2:7d:1b:f6:18:97:46:be:5e:
         e3:eb:59:2e:89:b4:27:79:bd:89:8e:05:19:39:a1:43:d1:63:
         ae:bc:51:97:b8:f6:57:86:99:e9:9d:1a:c1:f7:12:34:1a:50:
         f2:f6:8e:eb:6a:a9:fc:44:ba:4b:78:63:48:5a:02:60:61:3c:
         b4:2e:51:ea:60:03:1f:7e:9f:a0:13:61:97:6b:1e:f1:54:21:
         b7:b5:5a:6d:6d:b6:22:68:88:0e:94:38:29:cf:1b:e3:21:bb:
         0c:46:d6:8c:d9:50:b9:ba:29:36:26:f1:0c:54:30:95:8e:db:
         f9:9b:1c:d2:85:e4:95:5a:4f:87:73:b2:21:77:c6:93:f9:47:
         60:a0:01:3d:5d:43:fc:fa:71:5c:19:1b:eb:02:76:55:40:b4:
         da:1e:3e:31:e3:dc:83:7b:bd:81:bc:7c:69:9e:32:d2:c6:46:
         9a:6a:ec:57:ef:95:92:d9:88:63:d9:2c:93:61:c3:aa:a7:c7:
         94:76:69:56:60:34:21:e3:97:3b:42:b5:53:9f:fe:9f:23:67:
         20:2c:b5:03:a9:44:f1:ce:66:4e:1b:8f:18:70:4e:4f:82:b4:
         9c:d3:d8:77:01:4b:02:d2:06:43:5a:b3:65:e2:e4:a0:df:87:
         df:3f:7d:0e:d3:ba:6b:57:b7:3b:5b:5d:b0:58:fd:47:7b:27:
         72:52:ff:26:08:7c:d5:78:7f:04:86:fd:a0:68:3a:49:f2:f0:
         55:d9:4f:9a:57:5f:41:2e:0b:e5:0a:d1:95:28:53:b2:8f:37:
         9e:4b:26:ee:2a:d1:84:91:b1:e1:83:b3:0b:3b:a9:1d:27:20:
         37:d1:96:7d:bd:ad:dd:d6:a9:16:83:f8:be:05:61:a2:91:41:
         13:8b:ae:5a:be:00:07:65:02:b6:25:60:9f:5a:9f:00:f2:0c:
         d8:38:4f:c8:9c:42:e3:1c:1d:a5:7e:ee:47:6f:53:4d:11:24:
         09:dc:13:49:2e:9d:54:3c:8c:b7:2b:8f:4b:0a:ba:04:95:ad:
         9a:92:e5:9f:0b:ca:5f:b6:25:f0:bc:e8:e0:9d:73:4b:d6:18:
         5d:92:fc:6a:67:75:0e:ed:75:7e:68:3d:bd:2c:35:ba:3a:66:
         e3:08:11:24:76:c9:7e:96:b6:8c:75:61:ae:ab:4b:26:6c:81:
         6f:6d:0c:7f:c5:83:1d:38
-----BEGIN CERTIFICATE-----
MIIEdTCCAl2gAwIBAgICEq8wDQYJKoZIhvcNAQELBQAwgZ0xCzAJBgNVBAYTAkRF
MQ8wDQYDVQQIDAZCYXllcm4xFDASBgNVBAcMC07Dg8K8cm5iZXJnMRMwEQYDVQQK
DApTaWVtZW5zIEFHMRQwEgYDVQQLDAtUcnVzdGNlbnRlcjERMA8GA1UEAwwIT2xp
dmVyQ0ExKTAnBgkqhkiG9w0BCQEWGm9saXZlci5zdGlsbGVyQHNpZW1lbnMuY29t
MB4XDTIwMTEwMjExNDc0M1oXDTIxMTEwMjExNDc0M1owIDEOMAwGA1UECgwFdGVz
dDMxDjAMBgNVBAMMBXRlc3QzMIIBIjANBgkqhkiG9w0BAQEFAAOCAQ8AMIIBCgKC
AQEAq/Pmw2HWLyVDn9SbuGJOB0FUpoRU7kG5GF1zWRAGKDFGgBM3ot7a4hxTSmDg
a6ftE/h7iNZoRB8GonJRcVi3+s465ZuVEJMTscSP3ZitcS4pLehDbCKQrsxsLQh7
TDWNTSpog7nwBkW/pKgo5mzLR6vmIHuqu9AKfuG0ABb9iLZwCbQky2bhgT0NE3SM
QrkMjTG9sNEPKlFYnrEgQAKw8igIREff8KTWwHg6E0JizgIpElsegdBPejd0f3rG
MEnARnBjJK8pgB3bCRQHvGngOxwDXjct5s++EjFinGwvAD2G2kI24a6NUszUsAv0
nUUaHirmKpiFLDCenD0O/ghkfwIDAQABozswOTAZBgNVHSUEEjAQBgRVHSUABggr
BgEFBQcDAjALBgNVHQ8EBAMCA4gwDwYJKwYBBQUHMAEFBAIFADANBgkqhkiG9w0B
AQsFAAOCAgEAfv8sp9HdZmCe+xbfOTq8f8QqPuK/gtWfyEp+pnsmYy8q9SLZK19d
PC55B4HLvCqmbypgAKj3Lx9KNWRzhXm48n0b9hiXRr5e4+tZLom0J3m9iY4FGTmh
Q9FjrrxRl7j2V4aZ6Z0awfcSNBpQ8vaO62qp/ES6S3hjSFoCYGE8tC5R6mADH36f
oBNhl2se8VQht7VabW22ImiIDpQ4Kc8b4yG7DEbWjNlQubopNibxDFQwlY7b+Zsc
0oXklVpPh3OyIXfGk/lHYKABPV1D/PpxXBkb6wJ2VUC02h4+MePcg3u9gbx8aZ4y
0sZGmmrsV++VktmIY9ksk2HDqqfHlHZpVmA0IeOXO0K1U5/+nyNnICy1A6lE8c5m
ThuPGHBOT4K0nNPYdwFLAtIGQ1qzZeLkoN+H3z99DtO6a1e3O1tdsFj9R3snclL/
Jgh81Xh/BIb9oGg6SfLwVdlPmldfQS4L5QrRlShTso83nksm7irRhJGx4YOzCzup
HScgN9GWfb2t3dapFoP4vgVhopFBE4uuWr4AB2UCtiVgn1qfAPIM2DhPyJxC4xwd
pX7uR29TTREkCdwTSS6dVDyMtyuPSwq6BJWtmpLlnwvKX7Yl8Lzo4J1zS9YYXZL8
amd1Du11fmg9vSw1ujpm4wgRJHbJfpa2jHVhrqtLJmyBb20Mf8WDHTg=
-----END CERTIFICATE-----
