Certificate:
    Data:
        Version: 3 (0x2)
        Serial Number: 4788 (0x12b4)
        Signature Algorithm: sha256WithRSAEncryption
        Issuer: C=DE, ST=Bayern, L=N\xC3\x83\xC2\xBCrnberg, O=Siemens AG, OU=Trustcenter, CN=OliverCA/emailAddress=oliver.stiller@siemens.com
        Validity
            Not Before: Nov  3 14:39:19 2020 GMT
            Not After : Nov  3 14:39:19 2021 GMT
        Subject: O=test18, CN=test18
        Subject Public Key Info:
            Public Key Algorithm: rsaEncryption
                RSA Public-Key: (2048 bit)
                Modulus:
                    00:ca:97:48:a3:65:70:9d:15:4b:a6:64:49:88:6c:
                    4f:df:f7:c7:b0:25:60:97:25:17:72:60:9d:91:0e:
                    08:1e:6f:0b:26:a9:31:82:ed:ca:36:e1:1f:0b:b0:
                    ae:b5:e9:59:a2:24:e3:21:73:15:f6:4e:07:5a:56:
                    e0:72:3b:bc:e0:93:9e:4a:10:b6:d6:54:32:df:1f:
                    74:db:97:21:d7:40:0f:54:ac:be:f2:f0:8e:aa:6b:
                    b2:86:fc:74:34:d2:96:93:cf:12:c9:06:ce:5a:36:
                    b9:cb:b5:26:b4:19:0c:a2:68:e6:df:2e:16:75:5e:
                    e6:e3:2b:f2:80:21:16:83:44:55:a3:e1:88:5d:42:
                    b8:85:79:14:39:4c:a1:be:68:f1:ec:1d:58:23:84:
                    2f:d8:d8:79:fd:1b:86:6c:08:5b:32:bb:0b:01:42:
                    ef:18:53:2b:10:72:fb:57:61:dc:c5:f7:55:6f:88:
                    de:6c:1b:0c:68:4f:65:b3:79:d6:18:cc:10:ac:dc:
                    4d:a3:d8:82:17:66:c4:f9:e2:f6:af:3a:58:df:c9:
                    f5:41:50:ae:fc:a3:ce:cf:ce:2e:5f:56:a7:37:52:
                    82:67:98:ec:0a:19:d7:34:c0:b0:37:18:35:f0:b1:
                    8f:b1:ae:f1:55:45:4c:b8:51:f7:12:8b:f5:d4:15:
                    4a:63
                Exponent: 65537 (0x10001)
        X509v3 extensions:
            X509v3 Extended Key Usage: 
                Any Extended Key Usage, TLS Web Client Authentication, Code Signing
            X509v3 Key Usage: 
                Key Agreement
            OCSP No Check: 

    Signature Algorithm: sha256WithRSAEncryption
         37:bc:dd:6c:c9:75:c4:e7:34:2a:29:6a:92:9d:12:6e:d8:49:
         c1:c3:2e:4b:56:7a:bf:0b:91:a2:84:ec:51:a9:21:67:ca:75:
         b3:0e:c8:5a:69:50:49:96:8f:62:47:e4:2b:d2:f6:b3:05:36:
         aa:8d:86:c3:f3:09:7a:91:bb:a8:60:f4:c9:5f:df:f5:0a:e7:
         f0:6d:8a:6d:65:16:b1:f8:03:77:f6:b5:0b:d0:e3:21:16:52:
         4a:f9:b2:3b:20:cc:9a:92:cb:5a:c7:cf:6b:26:b6:90:c7:2f:
         b8:fc:fe:a5:33:39:fc:1f:03:ee:1b:f7:01:c1:aa:c1:af:48:
         80:b7:24:4a:55:71:c8:72:4c:b3:d1:93:06:54:58:14:68:46:
         2c:8e:be:e9:6d:ec:8f:79:4e:6c:ba:2b:63:d6:ff:0a:96:b7:
         a1:8d:57:83:45:1c:9f:a3:77:0a:ef:5d:71:b1:c4:8e:a5:fd:
         e6:9f:06:ce:37:b7:4f:72:65:7b:51:5b:7b:cd:1f:96:3c:18:
         ae:f4:98:4f:5d:59:45:f9:14:60:9a:19:c5:07:b9:cc:ee:3a:
         e1:f8:d5:eb:50:6a:4b:81:68:a6:0b:48:e8:3c:30:ce:3c:04:
         11:d7:39:11:b4:0e:6f:68:ce:26:e4:69:31:fa:3e:7e:4a:62:
         d7:00:0a:be:72:12:32:63:42:8d:0e:00:08:ff:20:e4:34:e5:
         e7:2f:7a:3a:67:d5:99:00:4e:ca:57:9e:fa:ee:ca:87:e1:fb:
         71:79:84:ee:bd:51:54:28:5a:2d:41:f9:bb:6d:f5:a1:ad:85:
         54:ca:72:da:e4:2e:15:42:7a:0d:68:80:39:0b:38:42:4d:7f:
         1b:8d:48:99:86:7a:c8:b2:6d:52:73:d4:b2:2f:61:ef:3c:ce:
         ae:9f:be:80:e4:71:55:cb:5b:7a:7a:58:00:33:bf:b4:40:41:
         c9:32:8c:44:24:00:11:81:8c:36:ad:a1:2a:68:e2:5b:de:85:
         92:a6:1b:f2:ee:52:18:32:95:4b:28:51:a8:0f:11:04:50:e2:
         6e:48:5f:44:65:ca:d8:a2:1a:5b:aa:76:c2:d7:93:27:0f:78:
         1c:40:08:94:37:5c:fd:2c:ef:22:ea:85:91:e3:82:e0:25:00:
         f9:b5:20:3f:41:34:17:77:f3:9f:d1:f2:7e:25:e8:fe:0a:95:
         d8:12:5e:5e:45:26:7f:3c:a8:c8:19:42:84:5f:3d:b4:a6:bc:
         32:f3:e0:86:fc:e5:d1:a1:b1:63:a7:c2:cd:5c:b2:8d:2f:c8:
         fc:49:66:af:e1:03:f6:69:a7:61:fa:0d:75:c4:e4:8e:e7:8e:
         2b:fc:14:3e:18:27:0c:33
-----BEGIN CERTIFICATE-----
MIIEgTCCAmmgAwIBAgICErQwDQYJKoZIhvcNAQELBQAwgZ0xCzAJBgNVBAYTAkRF
MQ8wDQYDVQQIDAZCYXllcm4xFDASBgNVBAcMC07Dg8K8cm5iZXJnMRMwEQYDVQQK
DApTaWVtZW5zIEFHMRQwEgYDVQQLDAtUcnVzdGNlbnRlcjERMA8GA1UEAwwIT2xp
dmVyQ0ExKTAnBgkqhkiG9w0BCQEWGm9saXZlci5zdGlsbGVyQHNpZW1lbnMuY29t
MB4XDTIwMTEwMzE0MzkxOVoXDTIxMTEwMzE0MzkxOVowIjEPMA0GA1UECgwGdGVz
dDE4MQ8wDQYDVQQDDAZ0ZXN0MTgwggEiMA0GCSqGSIb3DQEBAQUAA4IBDwAwggEK
AoIBAQDKl0ijZXCdFUumZEmIbE/f98ewJWCXJRdyYJ2RDggebwsmqTGC7co24R8L
sK616VmiJOMhcxX2TgdaVuByO7zgk55KELbWVDLfH3TblyHXQA9UrL7y8I6qa7KG
/HQ00paTzxLJBs5aNrnLtSa0GQyiaObfLhZ1XubjK/KAIRaDRFWj4YhdQriFeRQ5
TKG+aPHsHVgjhC/Y2Hn9G4ZsCFsyuwsBQu8YUysQcvtXYdzF91VviN5sGwxoT2Wz
edYYzBCs3E2j2IIXZsT54vavOljfyfVBUK78o87Pzi5fVqc3UoJnmOwKGdc0wLA3
GDXwsY+xrvFVRUy4UfcSi/XUFUpjAgMBAAGjRTBDMCMGA1UdJQQcMBoGBFUdJQAG
CCsGAQUFBwMCBggrBgEFBQcDAzALBgNVHQ8EBAMCAwgwDwYJKwYBBQUHMAEFBAIF
ADANBgkqhkiG9w0BAQsFAAOCAgEAN7zdbMl1xOc0Kilqkp0SbthJwcMuS1Z6vwuR
ooTsUakhZ8p1sw7IWmlQSZaPYkfkK9L2swU2qo2Gw/MJepG7qGD0yV/f9Qrn8G2K
bWUWsfgDd/a1C9DjIRZSSvmyOyDMmpLLWsfPaya2kMcvuPz+pTM5/B8D7hv3AcGq
wa9IgLckSlVxyHJMs9GTBlRYFGhGLI6+6W3sj3lObLorY9b/Cpa3oY1Xg0Ucn6N3
Cu9dcbHEjqX95p8Gzje3T3Jle1Fbe80fljwYrvSYT11ZRfkUYJoZxQe5zO464fjV
61BqS4FopgtI6DwwzjwEEdc5EbQOb2jOJuRpMfo+fkpi1wAKvnISMmNCjQ4ACP8g
5DTl5y96OmfVmQBOylee+u7Kh+H7cXmE7r1RVChaLUH5u231oa2FVMpy2uQuFUJ6
DWiAOQs4Qk1/G41ImYZ6yLJtUnPUsi9h7zzOrp++gORxVctbenpYADO/tEBByTKM
RCQAEYGMNq2hKmjiW96FkqYb8u5SGDKVSyhRqA8RBFDibkhfRGXK2KIaW6p2wteT
Jw94HEAIlDdc/SzvIuqFkeOC4CUA+bUgP0E0F3fzn9HyfiXo/gqV2BJeXkUmfzyo
yBlChF89tKa8MvPghvzl0aGxY6fCzVyyjS/I/Elmr+ED9mmnYfoNdcTkjueOK/wU
PhgnDDM=
-----END CERTIFICATE-----
