Certificate:
    Data:
        Version: 3 (0x2)
        Serial Number: 4790 (0x12b6)
        Signature Algorithm: sha256WithRSAEncryption
        Issuer: C=DE, ST=Bayern, L=N\xC3\x83\xC2\xBCrnberg, O=Siemens AG, OU=Trustcenter, CN=OliverCA/emailAddress=oliver.stiller@siemens.com
        Validity
            Not Before: Nov  3 14:46:02 2020 GMT
            Not After : Nov  3 14:46:02 2021 GMT
        Subject: O=test17, CN=test17
        Subject Public Key Info:
            Public Key Algorithm: rsaEncryption
                RSA Public-Key: (2048 bit)
                Modulus:
                    00:ea:62:ee:77:91:46:27:ae:66:e9:98:37:b1:eb:
                    9b:17:81:d9:1a:e1:eb:ea:88:e1:08:20:c6:a0:80:
                    b8:3d:34:61:db:eb:a5:5a:41:63:3c:1b:5c:7d:70:
                    0c:0f:ca:4c:e6:13:f5:d2:81:8b:e2:44:00:c1:7e:
                    d8:01:1d:2f:9c:9a:49:62:4f:b8:68:03:ce:9c:bc:
                    11:5a:4f:bb:e1:92:26:1f:59:ff:07:dd:28:56:90:
                    42:f7:3c:65:dc:4e:3b:fd:19:83:b0:ce:ba:33:86:
                    86:0e:9e:c1:98:1c:2a:67:e0:31:46:34:1b:03:c1:
                    8b:8b:62:76:7c:c5:37:f0:a8:00:85:1c:04:65:35:
                    b8:61:c7:ee:54:53:e8:c5:4b:a8:16:e6:c5:de:e8:
                    7d:08:11:6f:56:8d:f2:2f:07:86:45:0b:26:25:a9:
                    af:6d:bb:de:3e:26:31:2b:2e:a6:0c:32:7d:04:f9:
                    54:f5:7e:1c:b5:60:18:2d:82:2e:06:1d:c4:a5:57:
                    07:c0:57:e2:cf:f0:33:24:1f:02:73:07:76:be:13:
                    55:8e:be:09:50:23:02:b1:f4:6a:fb:e7:5a:db:11:
                    c7:d7:f9:f2:b7:53:b8:e1:b7:38:9e:8e:de:ee:bc:
                    d8:b2:3e:b9:fd:37:b9:9c:bb:62:ea:d0:4b:9c:c9:
                    d7:39
                Exponent: 65537 (0x10001)
        X509v3 extensions:
            X509v3 Extended Key Usage: 
                Any Extended Key Usage, TLS Web Server Authentication, TLS Web Client Authentication
            X509v3 Key Usage: 
                Non Repudiation, Certificate Sign
            OCSP No Check: 

    Signature Algorithm: sha256WithRSAEncryption
         de:d3:38:d2:c7:34:71:4d:9e:a7:e3:29:40:d8:a4:1e:ba:13:
         12:6b:00:64:41:86:5c:d2:11:0f:34:a0:d3:f3:c6:19:8d:d8:
         09:23:b2:f3:c3:f5:6d:57:7f:c8:99:b7:f9:20:a3:41:62:12:
         d2:60:93:59:26:51:9d:41:52:ed:5f:26:b9:8d:97:b4:a7:99:
         0a:e4:0f:0c:cc:46:ad:ac:60:01:cf:94:a7:42:ff:8f:09:6e:
         80:34:c4:1d:65:06:d9:d3:6f:91:46:4d:00:50:27:fc:8e:ca:
         31:43:75:76:b7:c9:e7:78:df:fc:1a:40:d3:4a:cd:4f:39:e6:
         ae:1b:90:d7:e4:42:5b:f5:51:06:ab:ce:14:40:26:70:d8:f6:
         28:03:f9:30:07:c6:81:81:88:f4:0d:2c:29:1c:bf:f9:cb:5d:
         b7:e0:a8:d6:d2:f7:12:9e:24:c8:ab:00:94:06:9c:46:2e:0c:
         a9:8d:78:50:1e:36:ac:c2:11:ca:4c:d5:15:d2:69:d4:a9:6e:
         3c:f1:59:1c:eb:a9:0e:41:b6:59:91:ac:26:ab:2b:6b:99:d1:
         2e:69:eb:c3:00:b5:85:71:fe:9a:50:f4:3f:a8:91:a0:6b:02:
         86:77:7c:71:85:58:44:cf:94:8d:50:d3:1f:29:55:4f:34:a2:
         ce:8e:cd:70:b3:ac:39:79:a7:09:c1:c4:b9:a5:b0:5f:53:75:
         38:57:3a:20:74:5b:66:3a:e2:a5:03:30:e4:f7:b5:ec:64:a6:
         3f:1d:48:a0:00:a0:1c:03:26:3f:2e:3a:c9:4f:9a:55:cd:2f:
         9b:03:5d:6d:cd:97:e5:65:f4:18:d7:a9:1f:7b:04:3a:b5:3c:
         70:fa:dc:5f:81:3e:cf:2f:f2:12:c1:dd:ad:56:77:5a:b0:c3:
         06:d9:21:65:12:e9:cf:71:23:8b:fe:98:c1:98:bf:8f:6f:d8:
         12:4b:d9:86:ae:8f:3a:66:8a:2c:e1:a2:ae:e9:26:f2:ca:ab:
         06:a2:d8:cc:c9:51:b4:5c:08:1a:21:9a:c2:dd:4a:19:be:1d:
         5a:a5:80:8e:0e:eb:ca:f2:c0:3f:7c:7d:b4:64:b8:da:0f:57:
         81:fb:1b:4b:81:22:80:c2:78:58:62:a7:55:11:da:e7:4f:59:
         16:88:a0:31:bf:27:12:90:34:8f:04:f8:fc:e5:2e:6f:74:e3:
         92:90:6b:a0:71:8a:83:dd:29:38:d8:5b:f1:00:eb:98:bc:bc:
         31:ca:28:eb:65:be:7d:b7:a4:a7:89:53:10:d0:12:58:3a:61:
         29:62:36:00:0d:cc:c1:0d:60:e3:e4:ea:d3:e3:7a:b6:99:f2:
         aa:5f:3a:26:ec:b1:8e:ea
-----BEGIN CERTIFICATE-----
MIIEgTCCAmmgAwIBAgICErYwDQYJKoZIhvcNAQELBQAwgZ0xCzAJBgNVBAYTAkRF
MQ8wDQYDVQQIDAZCYXllcm4xFDASBgNVBAcMC07Dg8K8cm5iZXJnMRMwEQYDVQQK
DApTaWVtZW5zIEFHMRQwEgYDVQQLDAtUcnVzdGNlbnRlcjERMA8GA1UEAwwIT2xp
dmVyQ0ExKTAnBgkqhkiG9w0BCQEWGm9saXZlci5zdGlsbGVyQHNpZW1lbnMuY29t
MB4XDTIwMTEwMzE0NDYwMloXDTIxMTEwMzE0NDYwMlowIjEPMA0GA1UECgwGdGVz
dDE3MQ8wDQYDVQQDDAZ0ZXN0MTcwggEiMA0GCSqGSIb3DQEBAQUAA4IBDwAwggEK
AoIBAQDqYu53kUYnrmbpmDex65sXgdka4evqiOEIIMaggLg9NGHb66VaQWM8G1x9
cAwPykzmE/XSgYviRADBftgBHS+cmkliT7hoA86cvBFaT7vhkiYfWf8H3ShWkEL3
PGXcTjv9GYOwzrozhoYOnsGYHCpn4DFGNBsDwYuLYnZ8xTfwqACFHARlNbhhx+5U
U+jFS6gW5sXe6H0IEW9WjfIvB4ZFCyYlqa9tu94+JjErLqYMMn0E+VT1fhy1YBgt
gi4GHcSlVwfAV+LP8DMkHwJzB3a+E1WOvglQIwKx9Gr751rbEcfX+fK3U7jhtzie
jt7uvNiyPrn9N7mcu2Lq0Eucydc5AgMBAAGjRTBDMCMGA1UdJQQcMBoGBFUdJQAG
CCsGAQUFBwMBBggrBgEFBQcDAjALBgNVHQ8EBAMCAkQwDwYJKwYBBQUHMAEFBAIF
ADANBgkqhkiG9w0BAQsFAAOCAgEA3tM40sc0cU2ep+MpQNikHroTEmsAZEGGXNIR
DzSg0/PGGY3YCSOy88P1bVd/yJm3+SCjQWIS0mCTWSZRnUFS7V8muY2XtKeZCuQP
DMxGraxgAc+Up0L/jwlugDTEHWUG2dNvkUZNAFAn/I7KMUN1drfJ53jf/BpA00rN
TznmrhuQ1+RCW/VRBqvOFEAmcNj2KAP5MAfGgYGI9A0sKRy/+ctdt+Co1tL3Ep4k
yKsAlAacRi4MqY14UB42rMIRykzVFdJp1KluPPFZHOupDkG2WZGsJqsra5nRLmnr
wwC1hXH+mlD0P6iRoGsChnd8cYVYRM+UjVDTHylVTzSizo7NcLOsOXmnCcHEuaWw
X1N1OFc6IHRbZjripQMw5Pe17GSmPx1IoACgHAMmPy46yU+aVc0vmwNdbc2X5WX0
GNepH3sEOrU8cPrcX4E+zy/yEsHdrVZ3WrDDBtkhZRLpz3Eji/6YwZi/j2/YEkvZ
hq6POmaKLOGirukm8sqrBqLYzMlRtFwIGiGawt1KGb4dWqWAjg7ryvLAP3x9tGS4
2g9XgfsbS4EigMJ4WGKnVRHa509ZFoigMb8nEpA0jwT4/OUub3TjkpBroHGKg90p
ONhb8QDrmLy8Mcoo62W+fbekp4lTENASWDphKWI2AA3MwQ1g4+Tq0+N6tpnyql86
Juyxjuo=
-----END CERTIFICATE-----
