Certificate:
    Data:
        Version: 3 (0x2)
        Serial Number: 4786 (0x12b2)
        Signature Algorithm: sha256WithRSAEncryption
        Issuer: C=DE, ST=Bayern, L=N\xC3\x83\xC2\xBCrnberg, O=Siemens AG, OU=Trustcenter, CN=OliverCA/emailAddress=oliver.stiller@siemens.com
        Validity
            Not Before: Nov  2 11:51:08 2020 GMT
            Not After : Nov  2 11:51:08 2021 GMT
        Subject: O=test16, CN=test16
        Subject Public Key Info:
            Public Key Algorithm: rsaEncryption
                RSA Public-Key: (2048 bit)
                Modulus:
                    00:cf:4e:8b:df:84:9d:21:d3:91:b8:94:a8:51:66:
                    e8:39:05:f0:d7:58:65:ad:03:64:25:8e:5c:a1:9c:
                    1b:0d:f3:ab:a2:9a:6d:e1:e8:95:9e:68:14:b2:d4:
                    1f:96:32:27:ec:91:d9:93:f3:2f:22:58:c3:2c:d4:
                    87:7d:63:6f:16:31:c1:9f:e9:e7:54:b0:fa:62:68:
                    08:68:0f:70:9f:0b:98:98:79:02:eb:a3:c7:2c:64:
                    c0:da:72:9d:83:59:85:68:c3:54:e2:a4:02:af:97:
                    69:39:9d:9f:5e:2d:85:36:f8:d2:95:1d:48:ae:81:
                    9f:29:b7:4e:41:9e:76:f0:a6:e6:f8:ae:c8:a4:c6:
                    83:8d:f0:2c:ca:9f:e7:e4:d7:16:0c:a2:67:bb:1a:
                    33:73:ad:7b:02:c7:38:b5:44:a1:ec:85:f3:5c:eb:
                    8b:08:ce:9c:60:82:58:10:b1:eb:81:53:e2:81:47:
                    67:17:ff:97:80:18:90:0b:3c:2e:55:fe:84:47:3a:
                    29:e7:cc:71:ce:67:0e:a5:9e:f0:f1:09:35:de:61:
                    a1:91:8f:6c:0f:d4:62:92:9b:76:02:fa:52:7f:4d:
                    9a:61:38:32:da:ef:34:aa:ca:7d:6e:b9:68:79:74:
                    0d:f2:65:3e:ac:22:ca:60:da:81:1f:4e:de:23:d1:
                    5d:43
                Exponent: 65537 (0x10001)
        X509v3 extensions:
            X509v3 Extended Key Usage: 
                Any Extended Key Usage, TLS Web Server Authentication
            X509v3 Key Usage: 
                Digital Signature, Key Encipherment
            OCSP No Check: 

    Signature Algorithm: sha256WithRSAEncryption
         11:66:11:b4:e8:db:72:32:eb:2e:21:86:7d:87:34:a5:3b:2f:
         39:12:51:cc:b4:0f:59:5f:8d:f0:b2:db:68:10:95:f7:64:9e:
         49:f0:9c:0c:a2:95:5e:d3:80:b8:1f:30:33:bd:c3:e0:6c:b5:
         06:36:57:3b:16:a3:0e:d8:84:c2:e2:e5:d1:0a:ab:20:16:75:
         29:37:8b:2b:14:02:08:6a:4a:95:95:9a:1c:76:4a:45:a0:64:
         c7:54:08:59:28:a1:49:f8:fe:44:2a:ad:21:c9:e4:be:e2:d2:
         13:98:6d:76:a6:13:33:20:93:9f:79:7f:d7:81:4a:e8:c8:43:
         3e:08:b3:62:07:f1:e5:be:51:1b:1e:b7:f8:11:95:3c:a5:46:
         32:16:80:04:af:0b:2f:d2:2a:bf:16:8e:dc:60:cb:c1:52:cd:
         46:f5:b3:29:27:c5:a2:12:80:55:03:c8:db:66:89:6a:13:2e:
         42:f3:42:dc:6d:76:24:ad:30:9a:5e:0c:75:1b:9f:9f:1e:7e:
         18:70:ca:51:a8:30:69:5b:74:39:96:63:b9:16:fc:13:f8:18:
         87:ca:6c:29:33:67:95:aa:17:43:eb:0d:b5:e7:50:77:94:89:
         0e:98:06:65:87:a8:e0:a3:91:61:39:59:7f:e0:47:a8:85:75:
         13:52:d0:21:e4:77:12:c4:3b:25:7c:92:18:e9:b0:b2:6d:2c:
         b8:90:66:2c:78:e5:ca:bb:4c:76:db:72:79:d3:be:bd:e4:a9:
         ac:93:73:71:f2:bf:41:cd:30:7a:1f:0b:b6:e8:db:5a:a6:97:
         31:5e:f6:01:93:6e:89:58:41:11:01:a0:fd:16:e1:86:9b:ea:
         4c:ec:92:79:75:2c:b7:44:d9:7c:70:d6:4c:63:1d:61:7c:bd:
         a4:b3:74:72:c0:26:72:7f:dc:75:c1:3f:d1:7f:5f:38:53:04:
         84:dc:b9:fd:e4:a4:9f:07:40:09:71:62:3a:f9:9d:f5:2d:73:
         ad:9d:c3:95:d5:2c:36:eb:4d:5a:ab:82:63:b1:3a:9a:67:87:
         3e:19:0f:01:02:cf:2f:9f:b9:80:41:ee:fb:7e:9c:96:fe:b5:
         31:6d:25:46:76:a4:b0:49:1e:49:89:01:75:b5:c4:c7:6f:83:
         aa:28:86:f1:48:a9:75:16:89:ef:28:f9:62:94:37:b6:8f:bf:
         a2:51:38:7d:ba:80:97:8f:03:f7:f8:8d:fa:93:62:6d:3e:75:
         d2:61:0b:69:c5:e6:a7:f4:2f:cd:ab:82:1b:f8:c2:8a:f8:aa:
         48:5e:a3:9f:e4:64:78:1a:f1:34:2f:06:30:d1:8f:fe:75:66:
         a2:84:46:e8:52:84:7f:c6
-----BEGIN CERTIFICATE-----
MIIEdzCCAl+gAwIBAgICErIwDQYJKoZIhvcNAQELBQAwgZ0xCzAJBgNVBAYTAkRF
MQ8wDQYDVQQIDAZCYXllcm4xFDASBgNVBAcMC07Dg8K8cm5iZXJnMRMwEQYDVQQK
DApTaWVtZW5zIEFHMRQwEgYDVQQLDAtUcnVzdGNlbnRlcjERMA8GA1UEAwwIT2xp
dmVyQ0ExKTAnBgkqhkiG9w0BCQEWGm9saXZlci5zdGlsbGVyQHNpZW1lbnMuY29t
MB4XDTIwMTEwMjExNTEwOFoXDTIxMTEwMjExNTEwOFowIjEPMA0GA1UECgwGdGVz
dDE2MQ8wDQYDVQQDDAZ0ZXN0MTYwggEiMA0GCSqGSIb3DQEBAQUAA4IBDwAwggEK
AoIBAQDPTovfhJ0h05G4lKhRZug5BfDXWGWtA2QljlyhnBsN86uimm3h6JWeaBSy
1B+WMifskdmT8y8iWMMs1Id9Y28WMcGf6edUsPpiaAhoD3CfC5iYeQLro8csZMDa
cp2DWYVow1TipAKvl2k5nZ9eLYU2+NKVHUiugZ8pt05Bnnbwpub4rsikxoON8CzK
n+fk1xYMome7GjNzrXsCxzi1RKHshfNc64sIzpxgglgQseuBU+KBR2cX/5eAGJAL
PC5V/oRHOinnzHHOZw6lnvDxCTXeYaGRj2wP1GKSm3YC+lJ/TZphODLa7zSqyn1u
uWh5dA3yZT6sIspg2oEfTt4j0V1DAgMBAAGjOzA5MBkGA1UdJQQSMBAGBFUdJQAG
CCsGAQUFBwMBMAsGA1UdDwQEAwIFoDAPBgkrBgEFBQcwAQUEAgUAMA0GCSqGSIb3
DQEBCwUAA4ICAQARZhG06NtyMusuIYZ9hzSlOy85ElHMtA9ZX43wsttoEJX3ZJ5J
8JwMopVe04C4HzAzvcPgbLUGNlc7FqMO2ITC4uXRCqsgFnUpN4srFAIIakqVlZoc
dkpFoGTHVAhZKKFJ+P5EKq0hyeS+4tITmG12phMzIJOfeX/XgUroyEM+CLNiB/Hl
vlEbHrf4EZU8pUYyFoAErwsv0iq/Fo7cYMvBUs1G9bMpJ8WiEoBVA8jbZolqEy5C
80LcbXYkrTCaXgx1G5+fHn4YcMpRqDBpW3Q5lmO5FvwT+BiHymwpM2eVqhdD6w21
51B3lIkOmAZlh6jgo5FhOVl/4EeohXUTUtAh5HcSxDslfJIY6bCybSy4kGYseOXK
u0x223J507695Kmsk3Nx8r9BzTB6Hwu26NtappcxXvYBk26JWEERAaD9FuGGm+pM
7JJ5dSy3RNl8cNZMYx1hfL2ks3RywCZyf9x1wT/Rf184UwSE3Ln95KSfB0AJcWI6
+Z31LXOtncOV1Sw2601aq4JjsTqaZ4c+GQ8BAs8vn7mAQe77fpyW/rUxbSVGdqSw
SR5JiQF1tcTHb4OqKIbxSKl1FonvKPlilDe2j7+iUTh9uoCXjwP3+I36k2JtPnXS
YQtpxean9C/Nq4Ib+MKK+KpIXqOf5GR4GvE0LwYw0Y/+dWaihEboUoR/xg==
-----END CERTIFICATE-----
