Certificate:
    Data:
        Version: 3 (0x2)
        Serial Number: 4785 (0x12b1)
        Signature Algorithm: sha256WithRSAEncryption
        Issuer: C=DE, ST=Bayern, L=N\xC3\x83\xC2\xBCrnberg, O=Siemens AG, OU=Trustcenter, CN=OliverCA/emailAddress=oliver.stiller@siemens.com
        Validity
            Not Before: Nov  2 11:49:51 2020 GMT
            Not After : Nov  2 11:49:51 2021 GMT
        Subject: O=test15, CN=test15
        Subject Public Key Info:
            Public Key Algorithm: rsaEncryption
                RSA Public-Key: (2048 bit)
                Modulus:
                    00:b4:1b:39:99:56:5a:e4:49:a0:41:98:b0:e3:a4:
                    29:5c:62:0d:82:15:fd:0c:6c:6d:be:61:c3:da:fc:
                    64:bf:4b:de:25:c5:b5:5c:ac:ae:6e:b2:76:ef:1e:
                    fc:e7:32:2b:93:8b:66:ae:e7:db:a2:75:3f:c3:b0:
                    b0:d2:ba:71:62:86:0a:aa:e5:b7:37:f7:d6:24:13:
                    35:93:71:ae:7c:c6:9e:a5:d5:8f:3a:ba:e1:74:21:
                    e0:38:6e:0b:c5:eb:9c:33:40:f8:c0:42:df:3c:89:
                    5f:e6:6e:37:4c:a3:e3:a7:e3:fe:02:70:57:76:18:
                    84:e1:81:53:fc:db:73:a8:39:48:08:b1:a4:89:aa:
                    dc:e8:0a:a0:c7:2e:dd:a0:d1:a5:a6:aa:19:f4:a3:
                    8a:51:49:6b:7c:05:dd:42:c0:99:6f:a4:b5:60:69:
                    72:75:66:0c:86:40:14:27:d0:ad:a9:13:ab:1f:07:
                    4d:49:61:f7:90:67:b1:35:1e:f4:5e:77:7a:70:ee:
                    f0:36:c3:ea:78:42:54:f6:ab:34:4d:1a:8b:a8:6b:
                    50:ed:0c:52:ac:dd:e9:9e:0a:b1:94:e5:9d:17:8a:
                    0a:4b:a5:5f:5a:d8:ca:d7:23:4c:6c:b8:b0:93:2b:
                    4a:aa:45:05:7d:2f:db:80:18:9f:21:7a:9f:79:14:
                    58:f9
                Exponent: 65537 (0x10001)
        X509v3 extensions:
            X509v3 Extended Key Usage: 
                Any Extended Key Usage, TLS Web Server Authentication
            X509v3 Key Usage: 
                Digital Signature
            OCSP No Check: 

    Signature Algorithm: sha256WithRSAEncryption
         d5:94:b0:6c:b0:b5:1d:87:74:e8:bd:75:c8:9c:ee:50:9d:7b:
         95:fd:1f:c2:64:ea:88:cf:f3:44:97:19:f9:ee:d2:a3:9c:f7:
         b4:35:83:83:dc:39:eb:15:bc:12:64:aa:2b:ab:1d:68:07:54:
         c8:25:aa:13:db:ad:6e:59:b6:75:1d:3d:7b:f1:d0:4c:e6:aa:
         82:b6:6d:c0:ba:ef:9b:7b:bb:4e:36:85:6b:a3:6c:49:bb:a3:
         6b:32:e7:c6:d7:1d:63:9a:d9:ae:27:e7:d5:5d:a1:d8:5e:2f:
         17:23:c0:9d:77:8a:64:95:44:d2:83:ce:64:58:3d:ff:f8:78:
         bc:df:fb:d3:7a:1a:7c:82:da:dc:c5:24:e9:48:bd:94:b5:71:
         19:e1:cb:c0:2e:b9:fc:7b:7c:05:24:29:14:ad:4e:f0:ec:cd:
         5d:88:6c:a7:9e:ad:01:72:a3:1e:41:10:d5:b2:0b:6f:54:a9:
         67:3b:31:83:cf:b3:07:85:94:a6:d6:49:55:ab:c7:7f:6a:26:
         54:e0:46:03:7d:fb:7f:c4:31:a7:a9:80:75:88:cc:60:1d:c9:
         22:c4:79:d0:a9:69:16:4c:cc:63:16:9d:36:3e:a3:33:87:a4:
         8e:bb:45:6c:9b:39:47:e0:e9:9e:e8:2c:ac:76:a7:66:57:44:
         35:ad:21:7f:ea:63:13:f0:4a:3c:23:74:a5:18:eb:48:1c:7a:
         b2:6c:86:9d:dc:84:cf:44:c5:0b:99:00:d1:eb:66:09:f8:f9:
         3e:76:e2:cb:3f:f9:ed:a2:c4:c6:f4:5d:9b:a3:85:77:44:6f:
         44:14:aa:bc:59:af:18:96:99:cf:0d:46:3b:f0:31:b1:03:89:
         21:15:e5:57:18:7f:b2:96:3f:86:c6:8f:19:fe:f1:95:ef:2f:
         b6:2a:3d:fa:93:a0:c3:93:a1:e7:0e:de:16:53:99:b6:69:23:
         6d:a6:60:4f:96:a8:55:65:b3:c2:d6:47:82:98:8a:c9:07:3c:
         45:f8:32:c5:b5:6b:01:bb:54:c3:f3:34:b4:cd:6e:55:41:30:
         00:ec:46:aa:14:b8:d9:47:b3:f8:80:91:e8:59:d0:53:f4:e8:
         ce:92:99:18:d5:95:df:1a:89:f7:7d:7b:67:47:07:8a:1b:48:
         52:54:fa:c5:f5:a7:01:dc:c4:91:e3:cc:a6:b7:a7:fc:d7:67:
         8f:c2:e8:06:f0:3b:82:63:09:5b:83:46:06:c7:78:59:33:5b:
         ac:bc:fa:49:fd:07:74:8b:49:50:9e:c6:7f:62:61:74:4d:c3:
         ee:9a:17:cd:b8:88:cd:1e:b6:da:f8:7c:b1:f1:6e:d6:6b:3f:
         1d:88:e3:ec:2e:80:65:9d
-----BEGIN CERTIFICATE-----
MIIEdzCCAl+gAwIBAgICErEwDQYJKoZIhvcNAQELBQAwgZ0xCzAJBgNVBAYTAkRF
MQ8wDQYDVQQIDAZCYXllcm4xFDASBgNVBAcMC07Dg8K8cm5iZXJnMRMwEQYDVQQK
DApTaWVtZW5zIEFHMRQwEgYDVQQLDAtUcnVzdGNlbnRlcjERMA8GA1UEAwwIT2xp
dmVyQ0ExKTAnBgkqhkiG9w0BCQEWGm9saXZlci5zdGlsbGVyQHNpZW1lbnMuY29t
MB4XDTIwMTEwMjExNDk1MVoXDTIxMTEwMjExNDk1MVowIjEPMA0GA1UECgwGdGVz
dDE1MQ8wDQYDVQQDDAZ0ZXN0MTUwggEiMA0GCSqGSIb3DQEBAQUAA4IBDwAwggEK
AoIBAQC0GzmZVlrkSaBBmLDjpClcYg2CFf0MbG2+YcPa/GS/S94lxbVcrK5usnbv
HvznMiuTi2au59uidT/DsLDSunFihgqq5bc399YkEzWTca58xp6l1Y86uuF0IeA4
bgvF65wzQPjAQt88iV/mbjdMo+On4/4CcFd2GIThgVP823OoOUgIsaSJqtzoCqDH
Lt2g0aWmqhn0o4pRSWt8Bd1CwJlvpLVgaXJ1ZgyGQBQn0K2pE6sfB01JYfeQZ7E1
HvRed3pw7vA2w+p4QlT2qzRNGouoa1DtDFKs3emeCrGU5Z0XigpLpV9a2MrXI0xs
uLCTK0qqRQV9L9uAGJ8hep95FFj5AgMBAAGjOzA5MBkGA1UdJQQSMBAGBFUdJQAG
CCsGAQUFBwMBMAsGA1UdDwQEAwIHgDAPBgkrBgEFBQcwAQUEAgUAMA0GCSqGSIb3
DQEBCwUAA4ICAQDVlLBssLUdh3TovXXInO5QnXuV/R/CZOqIz/NElxn57tKjnPe0
NYOD3DnrFbwSZKorqx1oB1TIJaoT261uWbZ1HT178dBM5qqCtm3Auu+be7tONoVr
o2xJu6NrMufG1x1jmtmuJ+fVXaHYXi8XI8Cdd4pklUTSg85kWD3/+Hi83/vTehp8
gtrcxSTpSL2UtXEZ4cvALrn8e3wFJCkUrU7w7M1diGynnq0BcqMeQRDVsgtvVKln
OzGDz7MHhZSm1klVq8d/aiZU4EYDfft/xDGnqYB1iMxgHckixHnQqWkWTMxjFp02
PqMzh6SOu0VsmzlH4Ome6CysdqdmV0Q1rSF/6mMT8Eo8I3SlGOtIHHqybIad3ITP
RMULmQDR62YJ+Pk+duLLP/ntosTG9F2bo4V3RG9EFKq8Wa8YlpnPDUY78DGxA4kh
FeVXGH+ylj+Gxo8Z/vGV7y+2Kj36k6DDk6HnDt4WU5m2aSNtpmBPlqhVZbPC1keC
mIrJBzxF+DLFtWsBu1TD8zS0zW5VQTAA7EaqFLjZR7P4gJHoWdBT9OjOkpkY1ZXf
Gon3fXtnRweKG0hSVPrF9acB3MSR48ymt6f812ePwugG8DuCYwlbg0YGx3hZM1us
vPpJ/Qd0i0lQnsZ/YmF0TcPumhfNuIjNHrba+Hyx8W7Waz8diOPsLoBlnQ==
-----END CERTIFICATE-----
