Certificate:
    Data:
        Version: 3 (0x2)
        Serial Number:
            af:a9:43:14:a9:7a:a0:5d:2c:45:49:7b
        Signature Algorithm: ecdsa-with-SHA256
        Issuer: CN = Lint CA, O = Lint, C = DE
        Validity
            Not Before: Sep 15 00:00:00 2023 GMT
            Not After : Sep 15 00:00:00 2024 GMT
        Subject: 
        Subject Public Key Info:
            Public Key Algorithm: id-ecPublicKey
                Public-Key: (256 bit)
                pub:
                    04:3c:16:95:eb:6d:bc:30:86:2f:16:32:94:43:d3:
                    fc:44:d9:b9:29:83:d1:7c:e3:58:b4:4b:80:bf:98:
                    79:e2:51:cc:3f:c0:55:c7:8b:da:d3:0d:a5:da:6e:
                    42:75:12:aa:56:65:e9:d0:00:dc:f4:94:34:b4:33:
                    ee:ef:3f:45:70
                ASN1 OID: prime256v1
                NIST CURVE: P-256
        X509v3 extensions:
            X509v3 Certificate Policies: 
                Policy: 2.23.140.1.2.1

            Authority Information Access: 
                OCSP - URI:http://ocsp.example.com/ocsp

    Signature Algorithm: ecdsa-with-SHA256
         30:45:02:20:70:53:45:99:31:5a:4f:bd:2e:28:59:7e:6b:e5:
         e0:a7:eb:bc:ef:ac:51:eb:e7:e9:c3:58:65:4b:42:14:a5:85:
         02:21:00:fd:b4:78:6d:7f:05:6d:04:b4:ba:b9:53:5b:ef:74:
         ea:4b:8e:75:56:fc:e0:fb:ec:59:fe:1e:7c:c5:43:2c:1c
-----BEGIN CERTIFICATE-----
MIIBejCCASCgAwIBAgINAK+pQxSpeqBdLEVJezAKBggqhkjOPQQDAjAuMRAwDgYD
VQQDDAdMaW50IENBMQ0wCwYDVQQKDARMaW50MQswCQYDVQQGEwJERTAeFw0yMzA5
MTUwMDAwMDBaFw0yNDA5MTUwMDAwMDBaMAAwWTATBgcqhkjOPQIBBggqhkjOPQMB
BwNCAAQ8FpXrbbwwhi8WMpRD0/xE2bkpg9F841i0S4C/mHniUcw/wFXHi9rTDaXa
bkJ1EqpWZenQANz0lDS0M+7vP0Vwo1EwTzATBgNVHSAEDDAKMAgGBmeBDAECATA4
BggrBgEFBQcBAQQsMCowKAYIKwYBBQUHMAGGHGh0dHA6Ly9vY3NwLmV4YW1wbGUu
Y29tL29jc3AwCgYIKoZIzj0EAwIDSAAwRQIgcFNFmTFaT70uKFl+a+Xgp+u876xR
6+fpw1hlS0IUpYUCIQD9tHhtfwVtBLS6uVNb73TqS451Vvzg++xZ/h58xUMsHA==
-----END CERTIFICATE-----
