Certificate:
    Data:
        Version: 3 (0x2)
        Serial Number:
            80:e9:dd:3c:87:d9:98:3c:c4:a9:2c:93
        Signature Algorithm: ecdsa-with-SHA256
        Issuer: CN = Lint CA, O = Lint, C = DE
        Validity
            Not Before: Sep 15 00:00:00 2023 GMT
            Not After : Sep 15 00:00:00 2024 GMT
        Subject: 
        Subject Public Key Info:
            Public Key Algorithm: id-ecPublicKey
                Public-Key: (256 bit)
                pub:
                    04:cd:10:7a:c7:20:48:b9:65:d6:f6:55:ce:b8:3a:
                    91:e8:85:a2:9b:9e:3e:64:70:8f:ed:1e:94:b1:fc:
                    e7:81:4e:b9:fb:2d:34:39:79:84:b7:e0:c4:09:cc:
                    1b:a8:53:5d:fc:86:19:aa:fd:58:5c:b9:4c:f8:f2:
                    e8:dc:86:5e:f2
                ASN1 OID: prime256v1
                NIST CURVE: P-256
        X509v3 extensions:
            X509v3 Certificate Policies: 
                Policy: 2.23.140.1.2.1

            Authority Information Access: 
                CA Issuers - URI:ldap://issuers.example.com/

    Signature Algorithm: ecdsa-with-SHA256
         30:44:02:20:16:b1:c7:79:88:ef:15:cb:e6:08:de:96:d3:8d:
         2f:ff:ea:04:af:2d:da:1d:b6:2a:f0:71:55:c1:69:fa:f0:63:
         02:20:11:08:6e:f8:29:d6:69:9e:91:22:80:60:fc:b6:49:51:
         57:ee:0d:2e:fc:04:bd:16:a8:95:62:18:42:c0:ca:b7
-----BEGIN CERTIFICATE-----
MIIBeDCCAR+gAwIBAgINAIDp3TyH2Zg8xKkskzAKBggqhkjOPQQDAjAuMRAwDgYD
VQQDDAdMaW50IENBMQ0wCwYDVQQKDARMaW50MQswCQYDVQQGEwJERTAeFw0yMzA5
MTUwMDAwMDBaFw0yNDA5MTUwMDAwMDBaMAAwWTATBgcqhkjOPQIBBggqhkjOPQMB
BwNCAATNEHrHIEi5Zdb2Vc64OpHohaKbnj5kcI/tHpSx/OeBTrn7LTQ5eYS34MQJ
zBuoU138hhmq/VhcuUz48ujchl7yo1AwTjATBgNVHSAEDDAKMAgGBmeBDAECATA3
BggrBgEFBQcBAQQrMCkwJwYIKwYBBQUHMAKGG2xkYXA6Ly9pc3N1ZXJzLmV4YW1w
bGUuY29tLzAKBggqhkjOPQQDAgNHADBEAiAWscd5iO8Vy+YI3pbTjS//6gSvLdod
tirwcVXBafrwYwIgEQhu+CnWaZ6RIoBg/LZJUVfuDS78BL0WqJViGELAyrc=
-----END CERTIFICATE-----
