Certificate:
    Data:
        Version: 3 (0x2)
        Serial Number:
            ba:05:bc:a4:0a:2a:63:34:48:e4:43:32
        Signature Algorithm: ecdsa-with-SHA256
        Issuer: CN = Lint CA, O = Lint, C = DE
        Validity
            Not Before: Sep 14 23:59:59 2023 GMT
            Not After : Sep 14 23:59:59 2024 GMT
        Subject: 
        Subject Public Key Info:
            Public Key Algorithm: id-ecPublicKey
                Public-Key: (256 bit)
                pub:
                    04:b5:35:3a:dd:12:97:00:f4:d2:59:df:2f:8b:50:
                    92:a2:b8:e8:1c:a7:0b:cb:c0:b1:fd:0b:28:af:9c:
                    aa:a0:84:14:5a:b0:fb:d0:f2:19:ff:46:73:0d:48:
                    a6:e8:c8:f0:11:f1:df:61:46:f6:e0:26:f9:c4:1a:
                    d6:e7:82:2e:24
                ASN1 OID: prime256v1
                NIST CURVE: P-256
        X509v3 extensions:
            X509v3 Certificate Policies: 
                Policy: 2.23.140.1.2.1

            Authority Information Access: 
                CA Issuers - URI:http://issuers.example.com/

    Signature Algorithm: ecdsa-with-SHA256
         30:44:02:20:1e:a4:c4:b3:68:4c:fd:e4:13:c2:c6:35:d0:49:
         cd:9f:70:22:af:79:02:c5:58:a0:f1:fa:ba:e8:3b:4c:2d:09:
         02:20:4c:52:61:be:dc:ad:61:f1:98:08:0f:d4:40:0a:9a:b3:
         ba:80:c6:8d:4d:1d:0b:8e:39:79:a7:b9:b9:9d:c2:c6
-----BEGIN CERTIFICATE-----
MIIBeDCCAR+gAwIBAgINALoFvKQKKmM0SORDMjAKBggqhkjOPQQDAjAuMRAwDgYD
VQQDDAdMaW50IENBMQ0wCwYDVQQKDARMaW50MQswCQYDVQQGEwJERTAeFw0yMzA5
MTQyMzU5NTlaFw0yNDA5MTQyMzU5NTlaMAAwWTATBgcqhkjOPQIBBggqhkjOPQMB
BwNCAAS1NTrdEpcA9NJZ3y+LUJKiuOgcpwvLwLH9CyivnKqghBRasPvQ8hn/RnMN
SKboyPAR8d9hRvbgJvnEGtbngi4ko1AwTjATBgNVHSAEDDAKMAgGBmeBDAECATA3
BggrBgEFBQcBAQQrMCkwJwYIKwYBBQUHMAKGG2h0dHA6Ly9pc3N1ZXJzLmV4YW1w
bGUuY29tLzAKBggqhkjOPQQDAgNHADBEAiAepMSzaEz95BPCxjXQSc2fcCKveQLF
WKDx+rroO0wtCQIgTFJhvtytYfGYCA/UQAqas7qAxo1NHQuOOXmnubmdwsY=
-----END CERTIFICATE-----
