Certificate:
    Data:
        Version: 3 (0x2)
        Serial Number:
            22:a2:d6:ed:44:07:03:e0:95:5d:a5:d9
        Signature Algorithm: ecdsa-with-SHA256
        Issuer: CN = Lint CA, O = Lint, C = DE
        Validity
            Not Before: Sep 15 00:00:00 2023 GMT
            Not After : Sep 15 00:00:00 2024 GMT
        Subject: 
        Subject Public Key Info:
            Public Key Algorithm: id-ecPublicKey
                Public-Key: (256 bit)
                pub:
                    04:4d:4a:2c:bd:c5:a7:5c:8d:f0:51:f4:2e:97:09:
                    03:09:7a:89:95:c1:6b:5a:f4:75:48:56:9d:81:47:
                    7f:c1:db:7e:d1:21:af:d8:3c:13:60:67:dd:18:35:
                    91:03:23:b2:46:ce:2e:1f:95:92:1d:a2:92:b5:24:
                    35:3a:9c:70:76
                ASN1 OID: prime256v1
                NIST CURVE: P-256
        X509v3 extensions:
            X509v3 Certificate Policies: 
                Policy: 2.23.140.1.2.1

            Authority Information Access: 
                CA Issuers - URI:https://ocsp.example.com/ocsp

    Signature Algorithm: ecdsa-with-SHA256
         30:45:02:20:1e:dd:1f:e3:b5:59:cc:fc:46:bd:de:f7:2a:e9:
         c0:bc:f1:67:69:50:e0:45:48:42:13:d4:b4:01:c2:95:e4:e9:
         02:21:00:d8:bd:7e:2b:09:df:4c:dc:07:35:d0:67:d8:1c:9f:
         9a:d6:e3:27:26:c7:a1:5a:2d:c6:71:50:9a:c9:a4:87:40
-----BEGIN CERTIFICATE-----
MIIBejCCASCgAwIBAgIMIqLW7UQHA+CVXaXZMAoGCCqGSM49BAMCMC4xEDAOBgNV
BAMMB0xpbnQgQ0ExDTALBgNVBAoMBExpbnQxCzAJBgNVBAYTAkRFMB4XDTIzMDkx
NTAwMDAwMFoXDTI0MDkxNTAwMDAwMFowADBZMBMGByqGSM49AgEGCCqGSM49AwEH
A0IABE1KLL3Fp1yN8FH0LpcJAwl6iZXBa1r0dUhWnYFHf8HbftEhr9g8E2Bn3Rg1
kQMjskbOLh+Vkh2ikrUkNTqccHajUjBQMBMGA1UdIAQMMAowCAYGZ4EMAQIBMDkG
CCsGAQUFBwEBBC0wKzApBggrBgEFBQcwAoYdaHR0cHM6Ly9vY3NwLmV4YW1wbGUu
Y29tL29jc3AwCgYIKoZIzj0EAwIDSAAwRQIgHt0f47VZzPxGvd73KunAvPFnaVDg
RUhCE9S0AcKV5OkCIQDYvX4rCd9M3Ac10GfYHJ+a1uMnJsehWi3GcVCayaSHQA==
-----END CERTIFICATE-----
