Certificate:
    Data:
        Version: 3 (0x2)
        Serial Number:
            a4:f4:6d:4f:10:ca:7e:ef:f9:e3:c0:85
        Signature Algorithm: ecdsa-with-SHA256
        Issuer: CN = Lint CA, O = Lint, C = DE
        Validity
            Not Before: Sep 15 00:00:00 2023 GMT
            Not After : Sep 15 00:00:00 2024 GMT
        Subject: 
        Subject Public Key Info:
            Public Key Algorithm: id-ecPublicKey
                Public-Key: (256 bit)
                pub:
                    04:8f:74:a1:d5:84:f6:c9:04:2a:ef:8d:3a:91:9c:
                    35:d7:17:7a:ac:99:09:31:97:93:42:41:d2:81:51:
                    ff:59:82:62:7c:8e:30:b8:ec:52:a5:c3:6e:bf:73:
                    22:b7:01:22:1b:da:cb:8b:0a:7c:ab:35:ab:6a:b6:
                    81:8f:0c:33:de
                ASN1 OID: prime256v1
                NIST CURVE: P-256
        X509v3 extensions:
            X509v3 Certificate Policies: 
                Policy: 2.23.140.1.2.1

            Authority Information Access: 
                CA Issuers - URI:ftp://issuers.example.com/

    Signature Algorithm: ecdsa-with-SHA256
         30:46:02:21:00:a5:9f:fc:9d:ed:7f:10:2d:5f:ea:c2:ee:f9:
         92:62:56:52:63:fe:f3:12:27:5f:1d:81:e0:01:c3:dc:aa:bd:
         2e:02:21:00:db:a7:aa:01:00:8d:53:c4:5f:d5:46:b2:42:31:
         87:03:77:f5:ad:83:49:e2:31:38:58:7d:8e:d9:03:d0:11:34
-----BEGIN CERTIFICATE-----
MIIBeTCCAR6gAwIBAgINAKT0bU8Qyn7v+ePAhTAKBggqhkjOPQQDAjAuMRAwDgYD
VQQDDAdMaW50IENBMQ0wCwYDVQQKDARMaW50MQswCQYDVQQGEwJERTAeFw0yMzA5
MTUwMDAwMDBaFw0yNDA5MTUwMDAwMDBaMAAwWTATBgcqhkjOPQIBBggqhkjOPQMB
BwNCAASPdKHVhPbJBCrvjTqRnDXXF3qsmQkxl5NCQdKBUf9ZgmJ8jjC47FKlw26/
cyK3ASIb2suLCnyrNatqtoGPDDPeo08wTTATBgNVHSAEDDAKMAgGBmeBDAECATA2
BggrBgEFBQcBAQQqMCgwJgYIKwYBBQUHMAKGGmZ0cDovL2lzc3VlcnMuZXhhbXBs
ZS5jb20vMAoGCCqGSM49BAMCA0kAMEYCIQCln/yd7X8QLV/qwu75kmJWUmP+8xIn
Xx2B4AHD3Kq9LgIhANunqgEAjVPEX9VGskIxhwN39a2DSeIxOFh9jtkD0BE0
-----END CERTIFICATE-----
