Certificate:
    Data:
        Version: 3 (0x2)
        Serial Number:
            cf:1d:3e:98:ec:3f:f1:df:cf:85:a6:75
        Signature Algorithm: ecdsa-with-SHA256
        Issuer: CN = Lint CA, O = Lint, C = DE
        Validity
            Not Before: Sep 15 00:00:00 2023 GMT
            Not After : Sep 15 00:00:00 2024 GMT
        Subject: 
        Subject Public Key Info:
            Public Key Algorithm: id-ecPublicKey
                Public-Key: (256 bit)
                pub:
                    04:ae:5e:8e:a1:a7:00:e1:75:66:4f:b8:b0:35:70:
                    2c:cb:6e:fb:83:fc:9c:f8:7b:67:cf:2d:71:e3:2d:
                    f2:1f:30:ea:ef:63:09:8b:ee:df:f2:ae:54:2d:5f:
                    9d:47:17:4d:09:2f:6e:bb:d2:5f:0a:f8:83:26:6c:
                    df:4f:6e:f3:39
                ASN1 OID: prime256v1
                NIST CURVE: P-256
        X509v3 extensions:
            X509v3 Certificate Policies: 
                Policy: 2.23.140.1.2.1

            Authority Information Access: 
                CA Issuers - URI:http://issuers.example.com/ca
                CA Issuers - URI:ldap://issuers.example.com/

    Signature Algorithm: ecdsa-with-SHA256
         30:45:02:20:28:e6:e6:7c:c9:b7:6a:af:ba:ae:ab:d3:39:39:
         48:2d:da:d4:a9:79:b0:e1:51:bf:10:70:6b:2b:90:4e:fd:db:
         02:21:00:9e:0d:0e:42:a1:19:38:e9:b8:72:e5:c2:25:bc:fd:
         ef:15:93:65:20:f9:75:3f:41:8f:2b:ad:77:52:70:e7:6d
-----BEGIN CERTIFICATE-----
MIIBpDCCAUqgAwIBAgINAM8dPpjsP/Hfz4WmdTAKBggqhkjOPQQDAjAuMRAwDgYD
VQQDDAdMaW50IENBMQ0wCwYDVQQKDARMaW50MQswCQYDVQQGEwJERTAeFw0yMzA5
MTUwMDAwMDBaFw0yNDA5MTUwMDAwMDBaMAAwWTATBgcqhkjOPQIBBggqhkjOPQMB
BwNCAASuXo6hpwDhdWZPuLA1cCzLbvuD/Jz4e2fPLXHjLfIfMOrvYwmL7t/yrlQt
X51HF00JL2670l8K+IMmbN9PbvM5o3sweTATBgNVHSAEDDAKMAgGBmeBDAECATBi
BggrBgEFBQcBAQRWMFQwKQYIKwYBBQUHMAKGHWh0dHA6Ly9pc3N1ZXJzLmV4YW1w
bGUuY29tL2NhMCcGCCsGAQUFBzAChhtsZGFwOi8vaXNzdWVycy5leGFtcGxlLmNv
bS8wCgYIKoZIzj0EAwIDSAAwRQIgKObmfMm3aq+6rqvTOTlILdrUqXmw4VG/EHBr
K5BO/dsCIQCeDQ5CoRk46bhy5cIlvP3vFZNlIPl1P0GPK613UnDnbQ==
-----END CERTIFICATE-----
