Certificate:
    Data:
        Version: 3 (0x2)
        Serial Number:
            e6:d6:fc:e0:b2:b6:a4:38:42:83:b0:2c
        Signature Algorithm: ecdsa-with-SHA256
        Issuer: CN = Lint CA, O = Lint, C = DE
        Validity
            Not Before: Sep 15 00:00:00 2023 GMT
            Not After : Sep 15 00:00:00 2024 GMT
        Subject: 
        Subject Public Key Info:
            Public Key Algorithm: id-ecPublicKey
                Public-Key: (256 bit)
                pub:
                    04:bf:30:2a:6f:9d:8c:bf:17:ce:e6:b5:6c:a6:2a:
                    a0:44:c8:22:62:09:d2:0f:b3:48:70:e3:b8:8a:f3:
                    75:78:4b:4f:b6:ae:31:13:3e:e3:27:3f:2b:7c:89:
                    61:cb:07:eb:3d:99:30:15:36:e9:2f:ba:92:0b:ef:
                    ee:07:d2:63:90
                ASN1 OID: prime256v1
                NIST CURVE: P-256
        X509v3 extensions:
            X509v3 Certificate Policies: 
                Policy: 2.23.140.1.2.1

            Authority Information Access: 
                CA Issuers - URI:http://ocsp.example.com/ocsp

    Signature Algorithm: ecdsa-with-SHA256
         30:45:02:21:00:a0:69:ca:bb:32:bd:b4:49:4a:e1:81:93:25:
         38:34:34:77:8a:bf:d8:5e:08:af:8a:f6:f3:66:b3:a9:e2:76:
         fa:02:20:33:35:c3:07:ec:11:92:9a:02:a0:cb:7b:11:a0:84:
         e6:28:1d:0d:6c:f7:09:d8:76:a5:e1:09:36:e9:48:de:b2
-----BEGIN CERTIFICATE-----
MIIBejCCASCgAwIBAgINAObW/OCytqQ4QoOwLDAKBggqhkjOPQQDAjAuMRAwDgYD
VQQDDAdMaW50IENBMQ0wCwYDVQQKDARMaW50MQswCQYDVQQGEwJERTAeFw0yMzA5
MTUwMDAwMDBaFw0yNDA5MTUwMDAwMDBaMAAwWTATBgcqhkjOPQIBBggqhkjOPQMB
BwNCAAS/MCpvnYy/F87mtWymKqBEyCJiCdIPs0hw47iK83V4S0+2rjETPuMnPyt8
iWHLB+s9mTAVNukvupIL7+4H0mOQo1EwTzATBgNVHSAEDDAKMAgGBmeBDAECATA4
BggrBgEFBQcBAQQsMCowKAYIKwYBBQUHMAKGHGh0dHA6Ly9vY3NwLmV4YW1wbGUu
Y29tL29jc3AwCgYIKoZIzj0EAwIDSAAwRQIhAKBpyrsyvbRJSuGBkyU4NDR3ir/Y
XgivivbzZrOp4nb6AiAzNcMH7BGSmgKgy3sRoITmKB0NbPcJ2Hal4Qk26Ujesg==
-----END CERTIFICATE-----
