Certificate:
    Data:
        Version: 3 (0x2)
        Serial Number:
            0a:0e:8f:1b:ac:b8:b6:65:c1:a1:c0:16
        Signature Algorithm: ecdsa-with-SHA256
        Issuer: CN = Lint CA, O = Lint, C = DE
        Validity
            Not Before: Sep 15 00:00:00 2023 GMT
            Not After : Sep 15 00:00:00 2024 GMT
        Subject: 
        Subject Public Key Info:
            Public Key Algorithm: id-ecPublicKey
                Public-Key: (256 bit)
                pub:
                    04:a9:93:ad:52:49:46:30:93:40:03:2e:4c:12:e3:
                    8a:49:05:ae:04:88:c5:53:75:8d:2c:21:8c:99:60:
                    16:7a:aa:f0:11:3b:87:82:d7:59:56:f7:65:2d:f6:
                    8d:bd:d2:cb:9a:8e:6e:36:e1:be:0c:00:d8:cb:5d:
                    02:3c:6e:9c:39
                ASN1 OID: prime256v1
                NIST CURVE: P-256
        X509v3 extensions:
            X509v3 Certificate Policies: 
                Policy: 2.23.140.1.2.1

            Authority Information Access: 
                CA Issuers - URI:http://caissuer1.example.com/caissuer
                CA Issuers - URI:http://caissuer2.example.com/caIssuer
                CA Issuers - URI:http://caissuer1.example.com/caIssuer
                CA Issuers - URI:http://caissuer3.example.com/caIssuer

    Signature Algorithm: ecdsa-with-SHA256
         30:44:02:20:61:56:47:53:c0:91:04:8b:a9:88:ef:2f:78:71:
         91:91:79:7c:a2:c0:be:c1:ad:02:cc:1e:d7:e8:e8:04:28:36:
         02:20:38:40:5c:41:63:2a:22:cf:40:e8:36:5c:38:d4:76:d3:
         76:f5:2d:04:69:e5:87:84:97:7f:03:43:bf:81:3a:90
-----BEGIN CERTIFICATE-----
MIICHzCCAcagAwIBAgIMCg6PG6y4tmXBocAWMAoGCCqGSM49BAMCMC4xEDAOBgNV
BAMMB0xpbnQgQ0ExDTALBgNVBAoMBExpbnQxCzAJBgNVBAYTAkRFMB4XDTIzMDkx
NTAwMDAwMFoXDTI0MDkxNTAwMDAwMFowADBZMBMGByqGSM49AgEGCCqGSM49AwEH
A0IABKmTrVJJRjCTQAMuTBLjikkFrgSIxVN1jSwhjJlgFnqq8BE7h4LXWVb3ZS32
jb3Sy5qObjbhvgwA2MtdAjxunDmjgfcwgfQwEwYDVR0gBAwwCjAIBgZngQwBAgEw
gdwGCCsGAQUFBwEBBIHPMIHMMDEGCCsGAQUFBzAChiVodHRwOi8vY2Fpc3N1ZXIx
LmV4YW1wbGUuY29tL2NhaXNzdWVyMDEGCCsGAQUFBzAChiVodHRwOi8vY2Fpc3N1
ZXIyLmV4YW1wbGUuY29tL2NhSXNzdWVyMDEGCCsGAQUFBzAChiVodHRwOi8vY2Fp
c3N1ZXIxLmV4YW1wbGUuY29tL2NhSXNzdWVyMDEGCCsGAQUFBzAChiVodHRwOi8v
Y2Fpc3N1ZXIzLmV4YW1wbGUuY29tL2NhSXNzdWVyMAoGCCqGSM49BAMCA0cAMEQC
IGFWR1PAkQSLqYjvL3hxkZF5fKLAvsGtAswe1+joBCg2AiA4QFxBYyoiz0DoNlw4
1HbTdvUtBGnlh4SXfwNDv4E6kA==
-----END CERTIFICATE-----
