Certificate:
    Data:
        Version: 3 (0x2)
        Serial Number:
            df:47:e2:39:97:ea:2a:8d:0d:60:84:29
        Signature Algorithm: ecdsa-with-SHA256
        Issuer: CN = Lint CA, O = Lint, C = DE
        Validity
            Not Before: Sep 15 00:00:00 2023 GMT
            Not After : Sep 15 00:00:00 2024 GMT
        Subject: 
        Subject Public Key Info:
            Public Key Algorithm: id-ecPublicKey
                Public-Key: (256 bit)
                pub:
                    04:05:a3:40:79:30:23:5b:6f:66:8e:cc:a1:08:56:
                    74:7c:9a:02:3c:62:76:52:c4:e3:71:77:db:61:93:
                    b6:b4:a0:93:af:9d:f4:f8:0d:c0:2c:f3:84:15:4b:
                    15:f9:cc:78:ce:cc:3e:29:50:e3:76:03:0f:22:cd:
                    8f:9a:0b:ef:88
                ASN1 OID: prime256v1
                NIST CURVE: P-256
        X509v3 extensions:
            X509v3 Certificate Policies: 
                Policy: 2.23.140.1.2.1

            Authority Information Access: 
                OCSP - URI:http://ocsp1.example.com/ocsp
                OCSP - URI:http://ocsp2.example.com/ocsp
                OCSP - URI:http://ocsp1.example.com/ocsp
                OCSP - URI:http://ocsp3.example.com/ocsp

    Signature Algorithm: ecdsa-with-SHA256
         30:45:02:20:5a:3f:46:b5:83:ee:ae:9a:04:9f:e1:16:47:3e:
         f1:d8:6f:1e:16:7b:44:e8:7f:e4:11:21:67:f9:62:9a:0f:bb:
         02:21:00:b1:af:32:60:41:6b:72:1a:e6:b1:94:96:af:0c:a4:
         3b:d8:70:7e:f1:26:04:e6:7c:5c:4f:fe:4b:1c:f8:f5:f7
-----BEGIN CERTIFICATE-----
MIICATCCAaegAwIBAgINAN9H4jmX6iqNDWCEKTAKBggqhkjOPQQDAjAuMRAwDgYD
VQQDDAdMaW50IENBMQ0wCwYDVQQKDARMaW50MQswCQYDVQQGEwJERTAeFw0yMzA5
MTUwMDAwMDBaFw0yNDA5MTUwMDAwMDBaMAAwWTATBgcqhkjOPQIBBggqhkjOPQMB
BwNCAAQFo0B5MCNbb2aOzKEIVnR8mgI8YnZSxONxd9thk7a0oJOvnfT4DcAs84QV
SxX5zHjOzD4pUON2Aw8izY+aC++Io4HXMIHUMBMGA1UdIAQMMAowCAYGZ4EMAQIB
MIG8BggrBgEFBQcBAQSBrzCBrDApBggrBgEFBQcwAYYdaHR0cDovL29jc3AxLmV4
YW1wbGUuY29tL29jc3AwKQYIKwYBBQUHMAGGHWh0dHA6Ly9vY3NwMi5leGFtcGxl
LmNvbS9vY3NwMCkGCCsGAQUFBzABhh1odHRwOi8vb2NzcDEuZXhhbXBsZS5jb20v
b2NzcDApBggrBgEFBQcwAYYdaHR0cDovL29jc3AzLmV4YW1wbGUuY29tL29jc3Aw
CgYIKoZIzj0EAwIDSAAwRQIgWj9GtYPurpoEn+EWRz7x2G8eFntE6H/kESFn+WKa
D7sCIQCxrzJgQWtyGuaxlJavDKQ72HB+8SYE5nxcT/5LHPj19w==
-----END CERTIFICATE-----
