Certificate:
    Data:
        Version: 3 (0x2)
        Serial Number:
            96:91:37:c9:bd:b6:ca:30:d4:f2:9f:fd
        Signature Algorithm: ecdsa-with-SHA256
        Issuer: CN = Lint CA, O = Lint, C = DE
        Validity
            Not Before: Sep 15 00:00:00 2023 GMT
            Not After : Sep 15 00:00:00 2024 GMT
        Subject: 
        Subject Public Key Info:
            Public Key Algorithm: id-ecPublicKey
                Public-Key: (256 bit)
                pub:
                    04:88:6a:50:96:83:aa:12:8c:45:35:a9:06:61:fb:
                    88:5c:ac:d2:01:11:0c:fd:b7:49:24:4a:66:9a:6c:
                    ff:32:d5:ca:c8:aa:6b:04:04:26:8d:77:21:ad:ff:
                    fc:05:13:f5:fb:c7:1d:44:d5:5e:ba:e2:90:8f:91:
                    89:ba:a6:a5:45
                ASN1 OID: prime256v1
                NIST CURVE: P-256
        X509v3 extensions:
            X509v3 Certificate Policies: 
                Policy: 2.23.140.1.2.1

            Authority Information Access: 
                OCSP - URI:http://ocsp.example.com/ocsp
                OCSP - URI:ldap://ocsp.example.com/ocsp

    Signature Algorithm: ecdsa-with-SHA256
         30:45:02:21:00:f2:c4:22:fe:6f:db:a0:45:01:fb:18:df:2d:
         ca:29:90:dc:98:58:da:87:f5:31:d6:83:ea:16:14:02:03:d7:
         ba:02:20:63:6a:69:72:e9:f0:f7:fa:3e:00:0b:94:6b:ee:9e:
         ef:99:0d:ce:62:21:6c:ed:f4:21:74:67:ef:70:e6:44:50
-----BEGIN CERTIFICATE-----
MIIBpDCCAUqgAwIBAgINAJaRN8m9tsow1PKf/TAKBggqhkjOPQQDAjAuMRAwDgYD
VQQDDAdMaW50IENBMQ0wCwYDVQQKDARMaW50MQswCQYDVQQGEwJERTAeFw0yMzA5
MTUwMDAwMDBaFw0yNDA5MTUwMDAwMDBaMAAwWTATBgcqhkjOPQIBBggqhkjOPQMB
BwNCAASIalCWg6oSjEU1qQZh+4hcrNIBEQz9t0kkSmaabP8y1crIqmsEBCaNdyGt
//wFE/X7xx1E1V664pCPkYm6pqVFo3sweTATBgNVHSAEDDAKMAgGBmeBDAECATBi
BggrBgEFBQcBAQRWMFQwKAYIKwYBBQUHMAGGHGh0dHA6Ly9vY3NwLmV4YW1wbGUu
Y29tL29jc3AwKAYIKwYBBQUHMAGGHGxkYXA6Ly9vY3NwLmV4YW1wbGUuY29tL29j
c3AwCgYIKoZIzj0EAwIDSAAwRQIhAPLEIv5v26BFAfsY3y3KKZDcmFjah/Ux1oPq
FhQCA9e6AiBjamly6fD3+j4AC5Rr7p7vmQ3OYiFs7fQhdGfvcOZEUA==
-----END CERTIFICATE-----
