Certificate:
    Data:
        Version: 3 (0x2)
        Serial Number:
            34:a9:11:10:85:2d:cc:ed:5a:74:5c:52
        Signature Algorithm: ecdsa-with-SHA256
        Issuer: CN = Lint CA, O = Lint, C = DE
        Validity
            Not Before: Sep 15 00:00:00 2023 GMT
            Not After : Sep 15 00:00:00 2024 GMT
        Subject: 
        Subject Public Key Info:
            Public Key Algorithm: id-ecPublicKey
                Public-Key: (256 bit)
                pub:
                    04:27:1c:55:27:70:10:bd:c8:cc:84:d8:74:7a:c7:
                    3a:4d:6f:b5:59:06:71:59:9b:13:28:34:bf:aa:81:
                    3d:b0:74:90:f6:0d:b8:71:47:fe:80:66:49:0f:95:
                    0a:9a:11:20:5d:ab:e4:4e:2d:46:6e:81:78:84:2f:
                    0f:43:a7:07:22
                ASN1 OID: prime256v1
                NIST CURVE: P-256
        X509v3 extensions:
            X509v3 Certificate Policies: 
                Policy: 2.23.140.1.2.1

            Authority Information Access: 
                OCSP - URI:https://ocsp.example.com/ocsp

    Signature Algorithm: ecdsa-with-SHA256
         30:45:02:21:00:f2:ff:52:3a:8b:f9:05:af:bd:fa:23:ba:f5:
         cf:92:f0:6a:b4:b9:66:d1:c3:9e:9e:fb:4e:3e:cc:b9:89:c0:
         cf:02:20:06:8f:f2:c4:14:75:74:56:51:be:b1:f1:11:bd:03:
         7e:59:85:8e:34:71:02:ed:13:4b:2f:14:4e:7b:42:90:23
-----BEGIN CERTIFICATE-----
MIIBejCCASCgAwIBAgIMNKkREIUtzO1adFxSMAoGCCqGSM49BAMCMC4xEDAOBgNV
BAMMB0xpbnQgQ0ExDTALBgNVBAoMBExpbnQxCzAJBgNVBAYTAkRFMB4XDTIzMDkx
NTAwMDAwMFoXDTI0MDkxNTAwMDAwMFowADBZMBMGByqGSM49AgEGCCqGSM49AwEH
A0IABCccVSdwEL3IzITYdHrHOk1vtVkGcVmbEyg0v6qBPbB0kPYNuHFH/oBmSQ+V
CpoRIF2r5E4tRm6BeIQvD0OnByKjUjBQMBMGA1UdIAQMMAowCAYGZ4EMAQIBMDkG
CCsGAQUFBwEBBC0wKzApBggrBgEFBQcwAYYdaHR0cHM6Ly9vY3NwLmV4YW1wbGUu
Y29tL29jc3AwCgYIKoZIzj0EAwIDSAAwRQIhAPL/UjqL+QWvvfojuvXPkvBqtLlm
0cOenvtOPsy5icDPAiAGj/LEFHV0VlG+sfERvQN+WYWONHEC7RNLLxROe0KQIw==
-----END CERTIFICATE-----
