Certificate:
    Data:
        Version: 3 (0x2)
        Serial Number:
            0f:b7:9c:7f:ae:82:d2:c0:9e:16:4a:9d
        Signature Algorithm: ecdsa-with-SHA256
        Issuer: CN = Lint CA, O = Lint, C = DE
        Validity
            Not Before: Sep 14 23:59:59 2023 GMT
            Not After : Sep 14 23:59:59 2024 GMT
        Subject: 
        Subject Public Key Info:
            Public Key Algorithm: id-ecPublicKey
                Public-Key: (256 bit)
                pub:
                    04:ed:95:18:e6:ca:a4:bc:a4:06:69:dc:3c:a1:11:
                    38:68:66:f1:c2:1e:b6:48:9f:4d:14:18:5d:12:9a:
                    93:90:e8:3c:ba:ff:1f:a8:d6:03:e7:37:12:ff:d9:
                    84:53:48:68:32:15:4e:13:62:8d:be:ca:78:0a:1a:
                    19:ed:a2:c8:41
                ASN1 OID: prime256v1
                NIST CURVE: P-256
        X509v3 extensions:
            X509v3 Certificate Policies: 
                Policy: 2.23.140.1.2.1

            Authority Information Access: 
                OCSP - URI:http://ocsp.example.com/ocsp

    Signature Algorithm: ecdsa-with-SHA256
         30:45:02:20:36:e5:80:bf:35:70:9b:a4:13:58:e4:78:0f:b5:
         58:7c:c2:9b:57:51:f4:66:9a:bb:f0:1e:46:b6:e8:b0:7c:07:
         02:21:00:97:77:49:c8:b6:c7:75:bb:34:10:a5:3e:48:c3:37:
         04:d3:5e:74:8c:91:c7:85:e5:9f:c4:bb:6d:9c:45:95:9f
-----BEGIN CERTIFICATE-----
MIIBeTCCAR+gAwIBAgIMD7ecf66C0sCeFkqdMAoGCCqGSM49BAMCMC4xEDAOBgNV
BAMMB0xpbnQgQ0ExDTALBgNVBAoMBExpbnQxCzAJBgNVBAYTAkRFMB4XDTIzMDkx
NDIzNTk1OVoXDTI0MDkxNDIzNTk1OVowADBZMBMGByqGSM49AgEGCCqGSM49AwEH
A0IABO2VGObKpLykBmncPKEROGhm8cIetkifTRQYXRKak5DoPLr/H6jWA+c3Ev/Z
hFNIaDIVThNijb7KeAoaGe2iyEGjUTBPMBMGA1UdIAQMMAowCAYGZ4EMAQIBMDgG
CCsGAQUFBwEBBCwwKjAoBggrBgEFBQcwAYYcaHR0cDovL29jc3AuZXhhbXBsZS5j
b20vb2NzcDAKBggqhkjOPQQDAgNIADBFAiA25YC/NXCbpBNY5HgPtVh8wptXUfRm
mrvwHka26LB8BwIhAJd3Sci2x3W7NBClPkjDNwTTXnSMkceF5Z/Eu22cRZWf
-----END CERTIFICATE-----
