-------------Leaf-------------
Certificate:
    Data:
        Version: 3 (0x2)
        Serial Number: 3 (0x3)
        Signature Algorithm: ecdsa-with-SHA256
        Issuer: 
        Validity
            Not Before: Jul  1 00:00:00 2013 GMT
            Not After : Nov 30 00:00:00 9998 GMT
        Subject: 
        Subject Public Key Info:
            Public Key Algorithm: id-ecPublicKey
                Public-Key: (256 bit)
                pub:
                    04:13:46:12:76:34:c9:58:c6:08:99:ea:8f:81:38:
                    89:f3:2f:da:43:b7:95:10:ac:94:35:50:17:f4:ae:
                    1f:5b:e9:1e:fb:cb:75:a8:97:24:82:d4:42:36:db:
                    cb:d3:40:41:54:6a:86:dc:65:c1:cb:52:e4:5f:a6:
                    71:2b:f5:3c:1e
                ASN1 OID: prime256v1
                NIST CURVE: P-256
        X509v3 extensions:
            X509v3 Extended Key Usage: 
                TLS Web Server Authentication
            Authority Information Access: 
                OCSP - URI:http://internalname
                CA Issuers - URI:http://internalname
    Signature Algorithm: ecdsa-with-SHA256
    Signature Value:
        30:45:02:20:62:9f:37:38:36:16:78:d7:40:00:7c:6e:44:b8:
        8a:ae:02:90:77:0c:70:56:5f:4f:05:99:e3:06:ab:69:27:41:
        02:21:00:9b:f4:df:e6:dc:92:03:54:59:94:0a:0d:ec:51:28:
        a9:fc:ff:07:9e:2a:b9:a8:22:0b:23:8a:71:18:b1:00:ec
-----BEGIN CERTIFICATE-----
MIIBWjCCAQCgAwIBAgIBAzAKBggqhkjOPQQDAjAAMCAXDTEzMDcwMTAwMDAwMFoY
Dzk5OTgxMTMwMDAwMDAwWjAAMFkwEwYHKoZIzj0CAQYIKoZIzj0DAQcDQgAEE0YS
djTJWMYImeqPgTiJ8y/aQ7eVEKyUNVAX9K4fW+ke+8t1qJckgtRCNtvL00BBVGqG
3GXBy1LkX6ZxK/U8HqNpMGcwEwYDVR0lBAwwCgYIKwYBBQUHAwEwUAYIKwYBBQUH
AQEERDBCMB8GCCsGAQUFBzABhhNodHRwOi8vaW50ZXJuYWxuYW1lMB8GCCsGAQUF
BzAChhNodHRwOi8vaW50ZXJuYWxuYW1lMAoGCCqGSM49BAMCA0gAMEUCIGKfNzg2
FnjXQAB8bkS4iq4CkHcMcFZfTwWZ4waraSdBAiEAm/Tf5tySA1RZlAoN7FEoqfz/
B54quagiCyOKcRixAOw=
-----END CERTIFICATE-----