Certificate:
    Data:
        Version: 3 (0x2)
        Serial Number:
            25:95:c4:dd:89:f7:52:f4:52:9d:f8:5c
        Signature Algorithm: ecdsa-with-SHA256
        Issuer: CN = Lint CA, O = Lint, C = DE
        Validity
            Not Before: Sep 15 00:00:00 2023 GMT
            Not After : Sep 15 00:00:00 2024 GMT
        Subject: 
        Subject Public Key Info:
            Public Key Algorithm: id-ecPublicKey
                Public-Key: (256 bit)
                pub:
                    04:86:f4:f1:aa:3b:62:23:0d:14:7f:d1:d5:17:17:
                    50:86:03:32:1d:31:89:13:51:53:e8:64:a5:f3:a7:
                    e8:1a:2d:e5:22:ae:4a:1b:9c:10:b3:41:9c:1d:81:
                    ce:f6:29:a5:19:d7:ef:ac:c9:4f:9d:2e:ba:e1:d6:
                    c1:8c:41:77:69
                ASN1 OID: prime256v1
                NIST CURVE: P-256
        X509v3 extensions:
            X509v3 Certificate Policies: 
                Policy: 2.23.140.1.2.1

            Authority Information Access: 
                CA Issuers - email:http://issuers.example.com/

    Signature Algorithm: ecdsa-with-SHA256
         30:44:02:20:48:c9:7c:07:de:b0:fb:1f:f6:af:86:5a:88:74:
         4b:fd:51:57:64:c0:f0:d8:5c:7b:f6:80:21:55:a4:77:39:3a:
         02:20:15:c1:3b:f7:7c:e3:2e:ea:97:8b:ba:b3:16:25:ae:9a:
         2a:b4:c0:44:87:4e:60:23:d6:d0:25:68:aa:4d:a8:6a
-----BEGIN CERTIFICATE-----
MIIBdzCCAR6gAwIBAgIMJZXE3Yn3UvRSnfhcMAoGCCqGSM49BAMCMC4xEDAOBgNV
BAMMB0xpbnQgQ0ExDTALBgNVBAoMBExpbnQxCzAJBgNVBAYTAkRFMB4XDTIzMDkx
NTAwMDAwMFoXDTI0MDkxNTAwMDAwMFowADBZMBMGByqGSM49AgEGCCqGSM49AwEH
A0IABIb08ao7YiMNFH/R1RcXUIYDMh0xiRNRU+hkpfOn6Bot5SKuShucELNBnB2B
zvYppRnX76zJT50uuuHWwYxBd2mjUDBOMBMGA1UdIAQMMAowCAYGZ4EMAQIBMDcG
CCsGAQUFBwEBBCswKTAnBggrBgEFBQcwAoEbaHR0cDovL2lzc3VlcnMuZXhhbXBs
ZS5jb20vMAoGCCqGSM49BAMCA0cAMEQCIEjJfAfesPsf9q+GWoh0S/1RV2TA8Nhc
e/aAIVWkdzk6AiAVwTv3fOMu6peLurMWJa6aKrTARIdOYCPW0CVoqk2oag==
-----END CERTIFICATE-----
