-------------Leaf-------------
Certificate:
    Data:
        Version: 3 (0x2)
        Serial Number: 3 (0x3)
        Signature Algorithm: ecdsa-with-SHA256
        Issuer: 
        Validity
            Not Before: Jul  1 00:00:00 2013 GMT
            Not After : Nov 30 00:00:00 9998 GMT
        Subject: 
        Subject Public Key Info:
            Public Key Algorithm: id-ecPublicKey
                Public-Key: (256 bit)
                pub:
                    04:4b:47:1f:0e:2e:8c:19:19:ba:a2:ed:0c:5c:f3:
                    9d:ac:fc:24:bc:9b:35:d1:47:41:f8:44:3a:5b:1c:
                    d5:4d:44:3d:d1:f9:bb:c7:5e:06:97:51:05:d2:75:
                    28:ef:04:9e:a9:df:80:7c:da:43:b6:87:91:f2:f9:
                    cb:62:94:fe:1a
                ASN1 OID: prime256v1
                NIST CURVE: P-256
        X509v3 extensions:
            X509v3 Extended Key Usage: 
                TLS Web Server Authentication
            Authority Information Access: 
                OCSP - URI:http://example.com
                CA Issuers - URI:http://example.com
    Signature Algorithm: ecdsa-with-SHA256
    Signature Value:
        30:45:02:20:2b:fd:a5:b6:1b:30:2e:50:1a:a5:ae:26:72:e9:
        34:86:95:59:a4:41:33:ed:f2:2e:4b:ff:da:b9:26:81:96:dc:
        02:21:00:aa:13:10:65:23:01:f5:2f:f1:1e:8e:e6:7f:2d:56:
        0a:be:7e:d9:c8:7d:6f:58:4e:49:85:c7:ed:53:8b:ef:dc
-----BEGIN CERTIFICATE-----
MIIBVzCB/qADAgECAgEDMAoGCCqGSM49BAMCMAAwIBcNMTMwNzAxMDAwMDAwWhgP
OTk5ODExMzAwMDAwMDBaMAAwWTATBgcqhkjOPQIBBggqhkjOPQMBBwNCAARLRx8O
LowZGbqi7Qxc852s/CS8mzXRR0H4RDpbHNVNRD3R+bvHXgaXUQXSdSjvBJ6p34B8
2kO2h5Hy+ctilP4ao2cwZTATBgNVHSUEDDAKBggrBgEFBQcDATBOBggrBgEFBQcB
AQRCMEAwHgYIKwYBBQUHMAGGEmh0dHA6Ly9leGFtcGxlLmNvbTAeBggrBgEFBQcw
AoYSaHR0cDovL2V4YW1wbGUuY29tMAoGCCqGSM49BAMCA0gAMEUCICv9pbYbMC5Q
GqWuJnLpNIaVWaRBM+3yLkv/2rkmgZbcAiEAqhMQZSMB9S/xHo7mfy1WCr5+2ch9
b1hOSYXH7VOL79w=
-----END CERTIFICATE-----