Certificate:
    Data:
        Version: 3 (0x2)
        Serial Number: 18008675984 (0x431669690)
    Signature Algorithm: sha256WithRSAEncryption
        Issuer: C = US, O = Mother Nature, OU = Everything, CN = Mother Nature
        Validity
            Not Before: Jul  7 15:48:28 2016 GMT
            Not After : Sep 19 15:48:28 2016 GMT
        Subject: C = US, ST = FL, L = Tallahassee, street = 3210 Holly Mill Run, postalCode = 30062, O = Extreme Discord, OU = Chaos, CN = gov.us
        Subject Public Key Info:
            Public Key Algorithm: rsaEncryption
                Public-Key: (2048 bit)
                Modulus:
                    00:d7:5c:8c:f6:ef:41:f7:be:ef:0b:cf:63:f8:59:
                    93:3e:ad:70:00:a3:90:18:70:b6:2b:2f:52:0b:e6:
                    13:12:6f:cd:79:c8:41:b3:b6:a2:90:bc:c6:55:9d:
                    95:34:b6:38:f7:df:65:47:a2:bf:f7:86:8a:2d:60:
                    19:c8:d4:71:6e:d2:26:94:79:1e:be:2a:06:4a:ee:
                    3c:32:04:b4:b5:84:4a:42:f5:c0:38:0b:70:c6:a2:
                    6e:db:5c:74:a1:9d:17:67:66:39:4f:1f:3d:fc:cc:
                    df:ae:ca:33:0e:b7:a2:33:c4:0b:06:be:87:10:80:
                    7e:db:dd:b9:97:3f:c1:d7:ab:1e:93:d2:9f:3b:f9:
                    6d:98:c8:8b:d3:e6:56:94:af:9a:1a:ad:46:ea:22:
                    ae:cb:bc:75:d4:2f:ef:84:e8:88:b1:c0:b2:9a:0a:
                    c6:95:9b:50:e2:af:2d:ec:82:4d:97:20:c8:3c:a1:
                    b9:d6:2e:79:f6:6c:bb:79:56:f1:59:39:33:ba:4f:
                    49:66:fa:52:54:07:34:2b:66:77:7b:99:d4:46:24:
                    f9:2c:b5:22:e0:9f:81:9a:12:c8:6e:95:5d:5f:ae:
                    ab:5b:c2:6e:c9:8b:f7:48:1d:8f:6b:4b:6c:81:64:
                    cb:fb:75:95:bb:de:ca:6f:e8:f1:ff:86:da:87:c9:
                    f7:9f
                Exponent: 65537 (0x10001)
        X509v3 extensions:
            X509v3 Key Usage: critical
                Digital Signature, Key Encipherment
            X509v3 Extended Key Usage: 
                TLS Web Client Authentication, TLS Web Server Authentication
            X509v3 Basic Constraints: critical
                CA:TRUE
            Authority Information Access: 
                OCSP - URI:http://theca.net/ocsp
                CA Issuers - URI:http://theca.net/totallythecert.crt

            X509v3 Certificate Policies: 
                Policy: 1.3.6.1.5.5.7.13.1
                Policy: 2.23.140.1.2.2

            X509v3 Subject Key Identifier: 
                04:03:02:01
            X509v3 Subject Alternative Name: 
                DNS:*.gov.us, DNS:gov.us
            X509v3 Issuer Alternative Name: 
                DNS:allthethings.net, DNS:theca.net
            X509v3 Authority Key Identifier: 
                serial:1C:BD:7D:87:57

    Signature Algorithm: sha256WithRSAEncryption
         07:ae:e7:a2:65:73:18:a1:a0:e8:8c:28:8e:ae:48:97:34:2b:
         f8:18:7b:08:2f:c9:bd:43:f8:86:53:d3:2e:e1:b5:2d:76:63:
         17:2a:7c:d5:6b:6f:89:aa:14:c4:2b:40:d8:c8:04:15:89:b3:
         dc:46:f0:45:e4:f4:3d:3c:f9:4f:93:1d:be:a9:b0:44:2c:44:
         23:0a:e4:93:bf:66:b8:d9:10:26:c6:ae:7e:c4:a7:ee:16:b3:
         cf:fc:e3:55:13:b8:47:32:ec:46:eb:56:dc:c5:53:3a:f3:82:
         09:55:51:4a:d3:26:33:70:54:9d:0d:a6:2b:60:7d:57:17:eb:
         22:2e:91:18:1e:7d:df:45:46:94:4c:8f:c2:50:e2:e7:b2:87:
         bb:74:59:f5:b8:c8:f0:ef:d3:d2:0a:eb:d3:22:eb:b2:cf:ca:
         5d:70:e9:cb:d9:10:1f:c6:eb:91:fc:bd:3d:52:f4:94:b4:f6:
         16:fb:e0:b6:0d:39:12:33:52:1c:1e:06:38:12:d5:52:e1:a7:
         de:d1:96:17:73:96:0e:98:6c:69:e2:0f:1a:ee:60:af:c7:7e:
         72:88:b5:5f:d8:46:13:b9:c2:98:e3:79:99:10:f0:97:a6:86:
         c3:dd:31:b9:8a:41:01:e2:f7:58:14:ac:31:ba:de:03:3d:0c:
         cb:c7:f6:66
-----BEGIN CERTIFICATE-----
MIIEnDCCA4SgAwIBAgIFBDFmlpAwDQYJKoZIhvcNAQELBQAwUjELMAkGA1UEBhMC
VVMxFjAUBgNVBAoTDU1vdGhlciBOYXR1cmUxEzARBgNVBAsTCkV2ZXJ5dGhpbmcx
FjAUBgNVBAMTDU1vdGhlciBOYXR1cmUwHhcNMTYwNzA3MTU0ODI4WhcNMTYwOTE5
MTU0ODI4WjCBmTELMAkGA1UEBhMCVVMxCzAJBgNVBAgTAkZMMRQwEgYDVQQHEwtU
YWxsYWhhc3NlZTEcMBoGA1UECRMTMzIxMCBIb2xseSBNaWxsIFJ1bjEOMAwGA1UE
ERMFMzAwNjIxGDAWBgNVBAoTD0V4dHJlbWUgRGlzY29yZDEOMAwGA1UECxMFQ2hh
b3MxDzANBgNVBAMTBmdvdi51czCCASIwDQYJKoZIhvcNAQEBBQADggEPADCCAQoC
ggEBANdcjPbvQfe+7wvPY/hZkz6tcACjkBhwtisvUgvmExJvzXnIQbO2opC8xlWd
lTS2OPffZUeiv/eGii1gGcjUcW7SJpR5Hr4qBkruPDIEtLWESkL1wDgLcMaibttc
dKGdF2dmOU8fPfzM367KMw63ojPECwa+hxCAftvduZc/wderHpPSnzv5bZjIi9Pm
VpSvmhqtRuoirsu8ddQv74ToiLHAspoKxpWbUOKvLeyCTZcgyDyhudYuefZsu3lW
8Vk5M7pPSWb6UlQHNCtmd3uZ1EYk+Sy1IuCfgZoSyG6VXV+uq1vCbsmL90gdj2tL
bIFky/t1lbveym/o8f+G2ofJ958CAwEAAaOCAS8wggErMA4GA1UdDwEB/wQEAwIF
oDAdBgNVHSUEFjAUBggrBgEFBQcDAgYIKwYBBQUHAwEwDwYDVR0TAQH/BAUwAwEB
/zBiBggrBgEFBQcBAQRWMFQwIQYIKwYBBQUHMAGGFWh0dHA6Ly90aGVjYS5uZXQv
b2NzcDAvBggrBgEFBQcwAoYjaHR0cDovL3RoZWNhLm5ldC90b3RhbGx5dGhlY2Vy
dC5jcnQwHwYDVR0gBBgwFjAKBggrBgEFBQcNATAIBgZngQwBAgIwDQYDVR0OBAYE
BAQDAgEwGwYDVR0RBBQwEoIIKi5nb3YudXOCBmdvdi51czAmBgNVHRIEHzAdghBh
bGx0aGV0aGluZ3MubmV0ggl0aGVjYS5uZXQwEAYDVR0jBAkwB4IFHL19h1cwDQYJ
KoZIhvcNAQELBQADggEBAAeu56JlcxihoOiMKI6uSJc0K/gYewgvyb1D+IZT0y7h
tS12YxcqfNVrb4mqFMQrQNjIBBWJs9xG8EXk9D08+U+THb6psEQsRCMK5JO/ZrjZ
ECbGrn7Ep+4Ws8/841UTuEcy7EbrVtzFUzrzgglVUUrTJjNwVJ0NpitgfVcX6yIu
kRgefd9FRpRMj8JQ4ueyh7t0WfW4yPDv09IK69Mi67LPyl1w6cvZEB/G65H8vT1S
9JS09hb74LYNORIzUhweBjgS1VLhp97Rlhdzlg6YbGniDxruYK/HfnKItV/YRhO5
wpjjeZkQ8JemhsPdMbmKQQHi91gUrDG63gM9DMvH9mY=
-----END CERTIFICATE-----
