Certificate:
    Data:
        Version: 3 (0x2)
        Serial Number:
            4e:d8:69:ff:85:c9:c2:f3:1c:49:ba:13:3d:13:bb:31
        Signature Algorithm: sha256WithRSAEncryption
        Issuer: C=XX, O=Some CA, CN=Fake CA for zlint testing
        Validity
            Not Before: Mar 23 00:00:00 2026 GMT
            Not After : Oct 19 00:00:00 2026 GMT
        Subject: C=SE, ST=Götaland, L=Göteborg, O=Some Company AB, CN=example.org
        Subject Public Key Info:
            Public Key Algorithm: rsaEncryption
                Public-Key: (2048 bit)
                Modulus:
                    00:d3:a8:84:8c:eb:1b:69:fc:8e:02:a2:80:75:4b:
                    d4:9b:c5:a9:11:68:4c:77:ad:ae:c0:09:67:5d:62:
                    87:37:85:ff:8f:42:19:b2:e0:e4:7b:ab:b4:4d:e0:
                    13:38:1c:e7:f0:7b:87:d2:16:77:cd:ca:9e:01:10:
                    d0:0c:3f:a5:cf:61:c9:a4:df:52:d1:e9:3d:23:a7:
                    ed:13:44:bb:f5:30:dd:2d:02:4f:7a:40:71:07:5d:
                    b8:bb:4a:04:65:53:41:09:17:06:50:57:7a:6c:10:
                    a7:5d:67:da:7b:54:3b:c6:8b:04:a8:a0:8f:42:48:
                    d8:08:40:6e:31:9e:e4:1b:1d:3b:48:8e:ac:7f:f2:
                    87:e5:50:4d:c6:d6:69:a3:cf:ee:e6:ee:2d:82:23:
                    41:94:ee:5d:02:83:5d:46:31:6d:50:9e:e1:e7:b5:
                    77:a1:6a:1a:31:0b:71:00:77:00:6b:37:f9:eb:03:
                    fe:c3:4a:65:0a:f6:9c:29:e7:9a:4f:22:e6:21:da:
                    9a:46:9b:38:91:9e:bc:e4:0a:61:20:b7:7a:b9:8f:
                    c2:1a:58:bd:3d:d5:8d:d7:c6:1e:64:7c:7c:90:1b:
                    05:ef:6e:17:db:d9:99:ef:39:e3:23:95:25:ef:00:
                    1b:d1:97:0a:a8:bc:80:cf:24:28:ef:db:09:04:5c:
                    dd:a9
                Exponent: 65537 (0x10001)
        X509v3 extensions:
            X509v3 Key Usage: critical
                Digital Signature, Key Encipherment
            X509v3 Extended Key Usage: 
                TLS Web Client Authentication, TLS Web Server Authentication
            X509v3 Authority Key Identifier: 
                E8:B6:F6:76:4B:D0:3B:E5:46:A5:F9:54:D4:7E:07:B3:DE:0D:60:3E
            Authority Information Access: 
                OCSP - URI:http://ca.someca-inc.com/ocsp
                CA Issuers - URI:http://ca.someca-inc.com/root
            X509v3 Subject Alternative Name: 
                DNS:example.org
            X509v3 Certificate Policies: 
                Policy: 2.23.140.1.2.2
            X509v3 CRL Distribution Points: 
                Full Name:
                  URI:http://ca.someca-inc.com/crl

    Signature Algorithm: sha256WithRSAEncryption
    Signature Value:
        09:07:b1:82:2d:90:87:7f:cd:7e:99:14:fd:8b:cc:81:d8:71:
        5f:20:0f:98:4e:29:02:4b:73:c2:29:a7:58:98:02:f4:8e:68:
        8f:98:f3:56:2f:11:d3:f2:f7:2b:25:e7:0f:38:43:90:14:ad:
        33:4a:ae:f7:90:1f:cb:c5:b2:48:dd:17:e8:fe:4a:63:1c:59:
        c6:b0:3e:c8:9f:ab:81:d3:d4:15:dc:a3:fb:f3:8b:10:a9:2f:
        b8:87:d9:0f:32:0b:dc:6d:a1:07:ce:c5:5f:12:4b:0d:06:3d:
        e4:a1:dc:24:1a:b0:8c:d1:df:da:d2:53:6a:84:1d:8e:71:bc:
        61:bb:d3:31:e7:73:c9:f3:ae:3c:3a:4d:79:87:30:31:c6:06:
        92:bd:2b:cb:5e:73:3f:70:05:bf:63:3d:26:17:99:98:da:0b:
        66:14:87:60:48:29:fb:c2:21:ab:83:bb:26:89:06:ae:ea:8c:
        00:1c:86:04:f4:17:a9:1b:64:46:32:7d:f3:4d:1c:c4:8b:91:
        f2:e0:2d:c7:a4:23:be:3e:8c:48:69:41:3e:e6:e1:93:8e:9f:
        3e:41:41:06:38:0e:8a:6b:0e:85:ef:0f:0e:81:39:7a:74:05:
        b9:6a:ab:fd:24:72:1f:33:ab:c5:d9:bf:2e:f1:3c:dd:12:80:
        0b:6d:95:ea
-----BEGIN CERTIFICATE-----
MIIESjCCAzKgAwIBAgIQTthp/4XJwvMcSboTPRO7MTANBgkqhkiG9w0BAQsFADBD
MQswCQYDVQQGEwJYWDEQMA4GA1UEChMHU29tZSBDQTEiMCAGA1UEAxMZRmFrZSBD
QSBmb3IgemxpbnQgdGVzdGluZzAeFw0yNjAzMjMwMDAwMDBaFw0yNjEwMTkwMDAw
MDBaMGUxCzAJBgNVBAYTAlNFMRIwEAYDVQQIDAlHw7Z0YWxhbmQxEjAQBgNVBAcM
CUfDtnRlYm9yZzEYMBYGA1UEChMPU29tZSBDb21wYW55IEFCMRQwEgYDVQQDEwtl
eGFtcGxlLm9yZzCCASIwDQYJKoZIhvcNAQEBBQADggEPADCCAQoCggEBANOohIzr
G2n8jgKigHVL1JvFqRFoTHetrsAJZ11ihzeF/49CGbLg5HurtE3gEzgc5/B7h9IW
d83KngEQ0Aw/pc9hyaTfUtHpPSOn7RNEu/Uw3S0CT3pAcQdduLtKBGVTQQkXBlBX
emwQp11n2ntUO8aLBKigj0JI2AhAbjGe5BsdO0iOrH/yh+VQTcbWaaPP7ubuLYIj
QZTuXQKDXUYxbVCe4ee1d6FqGjELcQB3AGs3+esD/sNKZQr2nCnnmk8i5iHamkab
OJGevOQKYSC3ermPwhpYvT3VjdfGHmR8fJAbBe9uF9vZme854yOVJe8AG9GXCqi8
gM8kKO/bCQRc3akCAwEAAaOCARYwggESMA4GA1UdDwEB/wQEAwIFoDAdBgNVHSUE
FjAUBggrBgEFBQcDAgYIKwYBBQUHAwEwHwYDVR0jBBgwFoAU6Lb2dkvQO+VGpflU
1H4Hs94NYD4wZAYIKwYBBQUHAQEEWDBWMCkGCCsGAQUFBzABhh1odHRwOi8vY2Eu
c29tZWNhLWluYy5jb20vb2NzcDApBggrBgEFBQcwAoYdaHR0cDovL2NhLnNvbWVj
YS1pbmMuY29tL3Jvb3QwFgYDVR0RBA8wDYILZXhhbXBsZS5vcmcwEwYDVR0gBAww
CjAIBgZngQwBAgIwLQYDVR0fBCYwJDAioCCgHoYcaHR0cDovL2NhLnNvbWVjYS1p
bmMuY29tL2NybDANBgkqhkiG9w0BAQsFAAOCAQEACQexgi2Qh3/NfpkU/YvMgdhx
XyAPmE4pAktzwimnWJgC9I5oj5jzVi8R0/L3KyXnDzhDkBStM0qu95Afy8WySN0X
6P5KYxxZxrA+yJ+rgdPUFdyj+/OLEKkvuIfZDzIL3G2hB87FXxJLDQY95KHcJBqw
jNHf2tJTaoQdjnG8YbvTMedzyfOuPDpNeYcwMcYGkr0ry15zP3AFv2M9JheZmNoL
ZhSHYEgp+8Ihq4O7JokGruqMAByGBPQXqRtkRjJ9800cxIuR8uAtx6Qjvj6MSGlB
Pubhk46fPkFBBjgOimsOhe8PDoE5enQFuWqr/SRyHzOrxdm/LvE83RKAC22V6g==
-----END CERTIFICATE-----
