Certificate:
    Data:
        Version: 3 (0x2)
        Serial Number:
            4d:77:31:61:a1:51:87:86:d7:0e:e2:7a:bd:1c:96:ff
        Signature Algorithm: sha256WithRSAEncryption
        Issuer: C=XX, O=Some CA, CN=Fake CA for zlint testing
        Validity
            Not Before: Mar 23 00:00:00 2026 GMT
            Not After : Oct  8 00:00:00 2026 GMT
        Subject: C=SE, ST=Götaland, L=Göteborg, O=Some Company AB, CN=100.51.198.203.in-addr.arpa
        Subject Public Key Info:
            Public Key Algorithm: rsaEncryption
                Public-Key: (2048 bit)
                Modulus:
                    00:b8:6c:bc:04:96:e6:a7:f7:6c:28:9a:6d:3c:71:
                    b3:71:31:fe:f6:b8:b5:64:d7:0b:d9:a9:04:7f:90:
                    2d:b7:24:39:b4:fe:9d:dc:28:d9:75:d3:f5:cc:6f:
                    15:83:af:2c:72:6a:5d:50:2b:27:b5:f3:fe:97:4a:
                    2d:61:87:6e:ae:8a:89:08:34:46:0e:f7:58:d6:8a:
                    62:30:d9:59:bf:e9:b0:03:b6:68:4c:b5:9e:d6:b4:
                    dd:e2:c7:5c:6d:ef:3f:a7:64:c5:6a:c5:55:39:ce:
                    a9:d6:b6:ba:e8:58:cd:1d:6c:6d:4c:eb:9d:24:1e:
                    23:77:eb:8f:96:f7:d5:4c:56:d1:46:f2:84:89:25:
                    d1:43:18:8f:b4:99:37:24:67:f3:25:3e:3b:b1:44:
                    6d:a1:e0:7e:40:df:6a:1d:7b:8e:99:c2:8d:b8:07:
                    fb:14:36:a1:7d:64:c3:d2:7b:51:d9:b0:e8:01:7d:
                    bc:a8:9b:89:e9:f5:e8:f9:1b:7e:06:a4:f2:42:57:
                    c2:c0:ea:0f:08:08:c3:61:df:f0:1b:6f:1f:1c:a2:
                    12:a1:54:36:3e:68:65:2c:aa:0f:ab:9f:c7:ba:36:
                    f0:92:14:88:f5:22:88:5f:24:7e:2e:c9:03:90:59:
                    4c:6d:42:63:0d:a2:54:20:09:64:15:14:ee:77:cc:
                    f5:31
                Exponent: 65537 (0x10001)
        X509v3 extensions:
            X509v3 Key Usage: critical
                Digital Signature, Key Encipherment
            X509v3 Extended Key Usage: 
                TLS Web Client Authentication, TLS Web Server Authentication
            X509v3 Authority Key Identifier: 
                E8:B6:F6:76:4B:D0:3B:E5:46:A5:F9:54:D4:7E:07:B3:DE:0D:60:3E
            Authority Information Access: 
                OCSP - URI:http://ca.someca-inc.com/ocsp
                CA Issuers - URI:http://ca.someca-inc.com/root
            X509v3 Subject Alternative Name: 
                DNS:100.51.198.203.in-addr.arpa
            X509v3 Certificate Policies: 
                Policy: 2.23.140.1.2.2
            X509v3 CRL Distribution Points: 
                Full Name:
                  URI:http://ca.someca-inc.com/crl

    Signature Algorithm: sha256WithRSAEncryption
    Signature Value:
        02:c8:16:84:b4:a7:5c:4e:76:cd:0d:db:f0:35:3d:40:87:95:
        19:60:bc:b6:51:84:bc:55:3f:61:fd:eb:cb:6e:c2:17:20:d1:
        0f:39:c8:96:46:8d:d1:11:b0:68:90:1e:a3:a7:03:d9:a0:22:
        4e:80:2b:ef:f6:66:9c:cb:8a:58:9a:ac:13:dd:13:1b:11:d3:
        6b:59:96:2e:9f:31:37:00:ac:c0:4f:77:18:d8:4f:c2:5f:1d:
        c8:00:55:c7:7e:90:62:ef:7c:b9:3c:b6:7d:c3:ea:4b:02:10:
        85:fb:01:83:1f:65:b1:d0:7e:6e:89:a3:16:d8:d3:98:40:3c:
        7a:f1:ae:15:af:48:c8:18:6e:ab:9b:35:57:50:c4:4b:d4:32:
        38:74:e1:d1:5c:a2:70:60:fa:b4:57:1f:7d:cb:2b:3a:d8:1e:
        3d:ea:4f:84:05:a7:da:88:f3:41:8e:b8:bb:e6:bb:5d:32:12:
        12:cc:84:d5:13:fa:84:bf:07:f7:8f:f7:34:00:63:ab:4c:9b:
        2a:d0:de:40:e6:f1:76:6d:61:99:d7:a4:4c:6b:8a:1d:64:15:
        0f:f2:59:0a:bc:ad:16:ce:e8:6d:ff:05:b6:a1:44:2e:04:29:
        c3:cd:72:93:eb:f8:01:cb:55:b1:a6:34:07:a1:bf:fd:d4:41:
        bf:30:03:b1
-----BEGIN CERTIFICATE-----
MIIEajCCA1KgAwIBAgIQTXcxYaFRh4bXDuJ6vRyW/zANBgkqhkiG9w0BAQsFADBD
MQswCQYDVQQGEwJYWDEQMA4GA1UEChMHU29tZSBDQTEiMCAGA1UEAxMZRmFrZSBD
QSBmb3IgemxpbnQgdGVzdGluZzAeFw0yNjAzMjMwMDAwMDBaFw0yNjEwMDgwMDAw
MDBaMHUxCzAJBgNVBAYTAlNFMRIwEAYDVQQIDAlHw7Z0YWxhbmQxEjAQBgNVBAcM
CUfDtnRlYm9yZzEYMBYGA1UEChMPU29tZSBDb21wYW55IEFCMSQwIgYDVQQDExsx
MDAuNTEuMTk4LjIwMy5pbi1hZGRyLmFycGEwggEiMA0GCSqGSIb3DQEBAQUAA4IB
DwAwggEKAoIBAQC4bLwEluan92womm08cbNxMf72uLVk1wvZqQR/kC23JDm0/p3c
KNl10/XMbxWDryxyal1QKye18/6XSi1hh26uiokINEYO91jWimIw2Vm/6bADtmhM
tZ7WtN3ix1xt7z+nZMVqxVU5zqnWtrroWM0dbG1M650kHiN364+W99VMVtFG8oSJ
JdFDGI+0mTckZ/MlPjuxRG2h4H5A32ode46Zwo24B/sUNqF9ZMPSe1HZsOgBfbyo
m4np9ej5G34GpPJCV8LA6g8ICMNh3/Abbx8cohKhVDY+aGUsqg+rn8e6NvCSFIj1
IohfJH4uyQOQWUxtQmMNolQgCWQVFO53zPUxAgMBAAGjggEmMIIBIjAOBgNVHQ8B
Af8EBAMCBaAwHQYDVR0lBBYwFAYIKwYBBQUHAwIGCCsGAQUFBwMBMB8GA1UdIwQY
MBaAFOi29nZL0DvlRqX5VNR+B7PeDWA+MGQGCCsGAQUFBwEBBFgwVjApBggrBgEF
BQcwAYYdaHR0cDovL2NhLnNvbWVjYS1pbmMuY29tL29jc3AwKQYIKwYBBQUHMAKG
HWh0dHA6Ly9jYS5zb21lY2EtaW5jLmNvbS9yb290MCYGA1UdEQQfMB2CGzEwMC41
MS4xOTguMjAzLmluLWFkZHIuYXJwYTATBgNVHSAEDDAKMAgGBmeBDAECAjAtBgNV
HR8EJjAkMCKgIKAehhxodHRwOi8vY2Euc29tZWNhLWluYy5jb20vY3JsMA0GCSqG
SIb3DQEBCwUAA4IBAQACyBaEtKdcTnbNDdvwNT1Ah5UZYLy2UYS8VT9h/evLbsIX
INEPOciWRo3REbBokB6jpwPZoCJOgCvv9macy4pYmqwT3RMbEdNrWZYunzE3AKzA
T3cY2E/CXx3IAFXHfpBi73y5PLZ9w+pLAhCF+wGDH2Wx0H5uiaMW2NOYQDx68a4V
r0jIGG6rmzVXUMRL1DI4dOHRXKJwYPq0Vx99yys62B496k+EBafaiPNBjri75rtd
MhISzITVE/qEvwf3j/c0AGOrTJsq0N5A5vF2bWGZ16RMa4odZBUP8lkKvK0Wzuht
/wW2oUQuBCnDzXKT6/gBy1WxpjQHob/91EG/MAOx
-----END CERTIFICATE-----
