Certificate:
    Data:
        Version: 3 (0x2)
        Serial Number:
            e2:97:1f:0e:aa:ef:ab:e9:86:ad:fb:d4:1c:3a:e2:1b
        Signature Algorithm: sha256WithRSAEncryption
        Issuer: C=XX, O=Some CA, CN=Fake CA for zlint testing
        Validity
            Not Before: Mar 23 00:00:00 2026 GMT
            Not After : Oct  8 00:00:00 2026 GMT
        Subject: C=SE, ST=Götaland, L=Göteborg, O=Some Company AB, CN=b.a.9.8.7.6.5.0.0.0.0.0.0.0.0.0.0.0.0.0.0.0.0.0.8.b.d.0.1.0.0.2.ip6.arpa
        Subject Public Key Info:
            Public Key Algorithm: rsaEncryption
                Public-Key: (2048 bit)
                Modulus:
                    00:d0:1d:24:1f:f4:83:39:74:03:c3:f6:11:54:e6:
                    2e:db:ef:3e:af:e1:01:50:3b:fc:41:53:8f:13:bb:
                    ee:37:46:ba:c2:4b:92:f7:65:f2:0c:e3:35:43:3b:
                    28:a1:ed:d0:50:e4:9d:e9:b5:34:e8:c7:58:09:44:
                    c0:90:2e:1c:d6:e1:57:84:02:bb:0c:cb:76:d3:5a:
                    f1:6b:65:2f:53:d4:8e:84:d5:89:f9:d9:8e:ec:59:
                    e2:76:21:14:09:ca:ce:e5:38:03:79:ed:7a:e5:ab:
                    e1:03:7e:cd:51:5c:89:04:3b:37:4b:23:14:b3:d2:
                    59:0d:96:2d:0e:bd:f0:47:44:8a:37:44:ce:91:a2:
                    93:73:2b:14:df:73:3c:56:a6:c1:1f:62:b3:8d:ab:
                    66:cc:d6:65:57:c0:40:c8:f7:35:2d:04:2e:32:eb:
                    13:2c:85:f8:0b:a1:bb:82:eb:56:2d:c6:9f:b7:5b:
                    25:e7:b2:f9:d9:de:5f:4f:00:cc:1f:60:4e:aa:36:
                    76:c9:65:5e:89:72:09:04:5f:6a:8e:2a:0c:8b:fc:
                    ea:d8:8b:14:48:57:80:6d:b7:71:a5:53:15:3e:03:
                    bd:5f:32:b7:53:a8:17:42:a6:50:95:b6:11:c5:e0:
                    a4:d2:6e:5d:d3:8c:df:ec:bc:bc:2c:77:20:90:89:
                    e9:c5
                Exponent: 65537 (0x10001)
        X509v3 extensions:
            X509v3 Key Usage: critical
                Digital Signature, Key Encipherment
            X509v3 Extended Key Usage: 
                TLS Web Client Authentication, TLS Web Server Authentication
            X509v3 Authority Key Identifier: 
                E8:B6:F6:76:4B:D0:3B:E5:46:A5:F9:54:D4:7E:07:B3:DE:0D:60:3E
            Authority Information Access: 
                OCSP - URI:http://ca.someca-inc.com/ocsp
                CA Issuers - URI:http://ca.someca-inc.com/root
            X509v3 Subject Alternative Name: 
                DNS:b.a.9.8.7.6.5.0.0.0.0.0.0.0.0.0.0.0.0.0.0.0.0.0.8.b.d.0.1.0.0.2.ip6.arpa
            X509v3 Certificate Policies: 
                Policy: 2.23.140.1.2.2
            X509v3 CRL Distribution Points: 
                Full Name:
                  URI:http://ca.someca-inc.com/crl

    Signature Algorithm: sha256WithRSAEncryption
    Signature Value:
        be:07:2b:00:fc:2d:1d:18:2d:ce:67:7b:fc:a3:a4:74:b1:c9:
        0a:68:eb:77:08:2a:74:31:63:c9:2c:46:d7:6c:b7:c5:08:ba:
        27:2f:5c:fa:c8:9f:91:78:83:e9:14:34:c4:83:c1:2f:65:01:
        b9:5b:83:6a:a7:fc:bc:52:ab:5f:07:74:e8:f3:0a:1e:a5:af:
        5a:0f:0c:f1:2f:19:76:45:7b:a7:5f:29:40:aa:bc:47:19:c3:
        f2:16:0b:ef:be:79:d2:d6:4d:9a:6a:2c:f0:1a:f6:38:6e:31:
        58:05:0d:ae:ac:40:70:4f:89:6c:f5:6c:a4:2a:29:e0:d1:d3:
        fa:9b:bd:bf:4a:cd:ae:1f:bd:0e:d2:68:15:c7:38:0a:46:53:
        67:66:96:9c:75:0c:a6:13:31:28:f0:19:70:a7:bb:84:59:00:
        56:65:d9:c8:ec:77:9b:e3:8b:55:a8:c9:b8:83:41:50:3d:82:
        cc:3c:3c:f3:66:f4:15:96:ee:a0:de:88:95:64:0c:a6:c7:7e:
        d0:08:f6:f7:fb:5f:3a:05:3c:f5:47:c7:74:38:d1:fb:f4:ea:
        a6:f9:21:eb:a1:e1:04:7c:2b:6e:8e:7b:80:c9:4c:5f:2f:b2:
        10:d9:2f:4f:4c:ff:79:18:d5:85:3a:14:86:64:1f:19:47:56:
        5d:1f:16:77
-----BEGIN CERTIFICATE-----
MIIExjCCA66gAwIBAgIRAOKXHw6q76vphq371Bw64hswDQYJKoZIhvcNAQELBQAw
QzELMAkGA1UEBhMCWFgxEDAOBgNVBAoTB1NvbWUgQ0ExIjAgBgNVBAMTGUZha2Ug
Q0EgZm9yIHpsaW50IHRlc3RpbmcwHhcNMjYwMzIzMDAwMDAwWhcNMjYxMDA4MDAw
MDAwWjCBojELMAkGA1UEBhMCU0UxEjAQBgNVBAgMCUfDtnRhbGFuZDESMBAGA1UE
BwwJR8O2dGVib3JnMRgwFgYDVQQKEw9Tb21lIENvbXBhbnkgQUIxUTBPBgNVBAMT
SGIuYS45LjguNy42LjUuMC4wLjAuMC4wLjAuMC4wLjAuMC4wLjAuMC4wLjAuMC4w
LjguYi5kLjAuMS4wLjAuMi5pcDYuYXJwYTCCASIwDQYJKoZIhvcNAQEBBQADggEP
ADCCAQoCggEBANAdJB/0gzl0A8P2EVTmLtvvPq/hAVA7/EFTjxO77jdGusJLkvdl
8gzjNUM7KKHt0FDknem1NOjHWAlEwJAuHNbhV4QCuwzLdtNa8WtlL1PUjoTVifnZ
juxZ4nYhFAnKzuU4A3nteuWr4QN+zVFciQQ7N0sjFLPSWQ2WLQ698EdEijdEzpGi
k3MrFN9zPFamwR9is42rZszWZVfAQMj3NS0ELjLrEyyF+Auhu4LrVi3Gn7dbJeey
+dneX08AzB9gTqo2dsllXolyCQRfao4qDIv86tiLFEhXgG23caVTFT4DvV8yt1Oo
F0KmUJW2EcXgpNJuXdOM3+y8vCx3IJCJ6cUCAwEAAaOCAVMwggFPMA4GA1UdDwEB
/wQEAwIFoDAdBgNVHSUEFjAUBggrBgEFBQcDAgYIKwYBBQUHAwEwHwYDVR0jBBgw
FoAU6Lb2dkvQO+VGpflU1H4Hs94NYD4wZAYIKwYBBQUHAQEEWDBWMCkGCCsGAQUF
BzABhh1odHRwOi8vY2Euc29tZWNhLWluYy5jb20vb2NzcDApBggrBgEFBQcwAoYd
aHR0cDovL2NhLnNvbWVjYS1pbmMuY29tL3Jvb3QwUwYDVR0RBEwwSoJIYi5hLjku
OC43LjYuNS4wLjAuMC4wLjAuMC4wLjAuMC4wLjAuMC4wLjAuMC4wLjAuOC5iLmQu
MC4xLjAuMC4yLmlwNi5hcnBhMBMGA1UdIAQMMAowCAYGZ4EMAQICMC0GA1UdHwQm
MCQwIqAgoB6GHGh0dHA6Ly9jYS5zb21lY2EtaW5jLmNvbS9jcmwwDQYJKoZIhvcN
AQELBQADggEBAL4HKwD8LR0YLc5ne/yjpHSxyQpo63cIKnQxY8ksRtdst8UIuicv
XPrIn5F4g+kUNMSDwS9lAblbg2qn/LxSq18HdOjzCh6lr1oPDPEvGXZFe6dfKUCq
vEcZw/IWC+++edLWTZpqLPAa9jhuMVgFDa6sQHBPiWz1bKQqKeDR0/qbvb9Kza4f
vQ7SaBXHOApGU2dmlpx1DKYTMSjwGXCnu4RZAFZl2cjsd5vji1WoybiDQVA9gsw8
PPNm9BWW7qDeiJVkDKbHftAI9vf7XzoFPPVHx3Q40fv06qb5Ieuh4QR8K26Oe4DJ
TF8vshDZL09M/3kY1YU6FIZkHxlHVl0fFnc=
-----END CERTIFICATE-----
