Certificate:
    Data:
        Version: 3 (0x2)
        Serial Number:
            fb:08:39:90:0a:aa:7e:67:a2:d1:c7:41:8c:3b:84:e0
        Signature Algorithm: sha256WithRSAEncryption
        Issuer: C=XX, O=Some CA, CN=Fake CA for zlint testing
        Validity
            Not Before: Mar  9 11:19:01 2026 GMT
            Not After : Sep 24 11:19:01 2026 GMT
        Subject: C=SE, ST=Götaland, L=Göteborg, O=Some Company AB, CN=b.a.9.8.7.6.5.0.0.0.0.0.0.0.0.0.0.0.0.0.0.0.0.0.8.b.d.0.1.0.0.2.ip6.arpa
        Subject Public Key Info:
            Public Key Algorithm: rsaEncryption
                Public-Key: (2048 bit)
                Modulus:
                    00:a4:6b:ec:46:98:f7:e7:9a:d9:df:e0:9b:23:44:
                    6d:6d:70:22:3d:a1:8d:28:6a:5b:ff:8c:d1:b4:63:
                    b6:11:37:9b:d9:ea:bc:d3:21:6d:ce:76:9d:1b:0c:
                    12:a5:9e:78:c8:68:d2:16:9b:fe:e5:d4:d1:70:0f:
                    89:f2:7e:f0:8f:bf:54:9e:c1:aa:0c:22:6a:5e:74:
                    05:41:7d:d4:74:5f:6f:6a:5b:43:87:8d:43:ba:8a:
                    d2:f8:87:ff:d6:65:b5:6c:95:ae:9d:34:82:69:e8:
                    d5:88:d1:4a:fe:e5:d9:b7:e1:d7:97:ad:18:0c:a0:
                    52:80:99:d8:67:05:04:f5:f2:80:c8:60:bd:5b:e5:
                    7a:64:32:96:59:3f:06:73:2e:81:7b:01:d3:92:0c:
                    8e:64:9d:0d:40:61:c7:bb:e6:9d:cd:46:bf:51:94:
                    be:b5:74:a7:76:d4:e5:63:32:6a:b9:29:6e:59:75:
                    5a:0c:e1:c3:ab:0a:07:68:51:ba:2b:37:e9:4f:9f:
                    0b:9e:82:48:b3:b9:77:ef:75:a9:dc:97:5c:19:a0:
                    a2:12:1e:9b:32:04:54:1c:2e:5f:90:0b:b0:b4:46:
                    45:f7:02:5f:e9:1b:a6:0a:20:14:36:15:7a:12:8b:
                    2b:06:9f:23:f6:6a:9e:ca:d4:6f:5d:24:e9:f1:cd:
                    c3:93
                Exponent: 65537 (0x10001)
        X509v3 extensions:
            X509v3 Key Usage: critical
                Digital Signature, Key Encipherment
            X509v3 Extended Key Usage: 
                TLS Web Client Authentication, TLS Web Server Authentication
            X509v3 Authority Key Identifier: 
                E8:B6:F6:76:4B:D0:3B:E5:46:A5:F9:54:D4:7E:07:B3:DE:0D:60:3E
            Authority Information Access: 
                OCSP - URI:http://ca.someca-inc.com/ocsp
                CA Issuers - URI:http://ca.someca-inc.com/root
            X509v3 Subject Alternative Name: 
                DNS:b.a.9.8.7.6.5.0.0.0.0.0.0.0.0.0.0.0.0.0.0.0.0.0.8.b.d.0.1.0.0.2.ip6.arpa
            X509v3 Certificate Policies: 
                Policy: 2.23.140.1.2.2
            X509v3 CRL Distribution Points: 
                Full Name:
                  URI:http://ca.someca-inc.com/crl

    Signature Algorithm: sha256WithRSAEncryption
    Signature Value:
        25:d3:b6:fd:5d:fd:c3:d3:8a:b1:7d:e8:b8:27:9f:85:96:e7:
        c4:b9:6c:5a:ca:5d:0b:ac:d0:a9:38:eb:94:9d:fc:05:1b:cb:
        11:fc:ab:d2:98:da:13:98:4e:5e:f0:0d:27:6b:0a:6e:de:91:
        97:99:c5:36:24:cf:cb:f5:57:26:2f:75:5d:f0:5c:ce:ce:33:
        49:d2:e9:4b:e9:04:bd:cc:2d:3e:24:8f:3f:44:37:ed:22:d8:
        24:a0:4f:51:fe:b6:37:b8:c6:d8:82:e9:54:7e:a2:c1:ea:02:
        0a:be:31:56:c9:84:4f:19:3f:21:c3:2c:31:33:ad:41:70:f2:
        fb:29:91:19:7d:f2:fa:af:c5:06:4c:9b:82:b8:d9:c1:b5:e5:
        26:b3:40:8c:cd:f1:af:9c:ea:b5:45:09:cc:a8:70:81:ee:5a:
        02:8f:6e:8d:f5:09:4d:6b:d4:00:6b:3a:11:0c:09:11:4d:22:
        32:9e:6f:8f:bb:35:94:6c:a2:f9:e1:56:46:f3:3f:71:ba:b8:
        1a:21:ad:8e:cf:49:20:19:41:07:50:e5:50:2e:51:3e:35:18:
        76:d6:a5:de:b8:9c:e8:35:6b:80:b0:10:eb:7f:61:51:7d:05:
        82:c8:7b:bd:7d:2e:25:17:26:af:dc:da:25:ef:86:30:b6:fc:
        93:fe:ac:d0
-----BEGIN CERTIFICATE-----
MIIExjCCA66gAwIBAgIRAPsIOZAKqn5notHHQYw7hOAwDQYJKoZIhvcNAQELBQAw
QzELMAkGA1UEBhMCWFgxEDAOBgNVBAoTB1NvbWUgQ0ExIjAgBgNVBAMTGUZha2Ug
Q0EgZm9yIHpsaW50IHRlc3RpbmcwHhcNMjYwMzA5MTExOTAxWhcNMjYwOTI0MTEx
OTAxWjCBojELMAkGA1UEBhMCU0UxEjAQBgNVBAgMCUfDtnRhbGFuZDESMBAGA1UE
BwwJR8O2dGVib3JnMRgwFgYDVQQKEw9Tb21lIENvbXBhbnkgQUIxUTBPBgNVBAMT
SGIuYS45LjguNy42LjUuMC4wLjAuMC4wLjAuMC4wLjAuMC4wLjAuMC4wLjAuMC4w
LjguYi5kLjAuMS4wLjAuMi5pcDYuYXJwYTCCASIwDQYJKoZIhvcNAQEBBQADggEP
ADCCAQoCggEBAKRr7EaY9+ea2d/gmyNEbW1wIj2hjShqW/+M0bRjthE3m9nqvNMh
bc52nRsMEqWeeMho0hab/uXU0XAPifJ+8I+/VJ7Bqgwial50BUF91HRfb2pbQ4eN
Q7qK0viH/9ZltWyVrp00gmno1YjRSv7l2bfh15etGAygUoCZ2GcFBPXygMhgvVvl
emQyllk/BnMugXsB05IMjmSdDUBhx7vmnc1Gv1GUvrV0p3bU5WMyarkpbll1Wgzh
w6sKB2hRuis36U+fC56CSLO5d+91qdyXXBmgohIemzIEVBwuX5ALsLRGRfcCX+kb
pgogFDYVehKLKwafI/ZqnsrUb10k6fHNw5MCAwEAAaOCAVMwggFPMA4GA1UdDwEB
/wQEAwIFoDAdBgNVHSUEFjAUBggrBgEFBQcDAgYIKwYBBQUHAwEwHwYDVR0jBBgw
FoAU6Lb2dkvQO+VGpflU1H4Hs94NYD4wZAYIKwYBBQUHAQEEWDBWMCkGCCsGAQUF
BzABhh1odHRwOi8vY2Euc29tZWNhLWluYy5jb20vb2NzcDApBggrBgEFBQcwAoYd
aHR0cDovL2NhLnNvbWVjYS1pbmMuY29tL3Jvb3QwUwYDVR0RBEwwSoJIYi5hLjku
OC43LjYuNS4wLjAuMC4wLjAuMC4wLjAuMC4wLjAuMC4wLjAuMC4wLjAuOC5iLmQu
MC4xLjAuMC4yLmlwNi5hcnBhMBMGA1UdIAQMMAowCAYGZ4EMAQICMC0GA1UdHwQm
MCQwIqAgoB6GHGh0dHA6Ly9jYS5zb21lY2EtaW5jLmNvbS9jcmwwDQYJKoZIhvcN
AQELBQADggEBACXTtv1d/cPTirF96Lgnn4WW58S5bFrKXQus0Kk465Sd/AUbyxH8
q9KY2hOYTl7wDSdrCm7ekZeZxTYkz8v1VyYvdV3wXM7OM0nS6UvpBL3MLT4kjz9E
N+0i2CSgT1H+tje4xtiC6VR+osHqAgq+MVbJhE8ZPyHDLDEzrUFw8vspkRl98vqv
xQZMm4K42cG15SazQIzN8a+c6rVFCcyocIHuWgKPbo31CU1r1ABrOhEMCRFNIjKe
b4+7NZRsovnhVkbzP3G6uBohrY7PSSAZQQdQ5VAuUT41GHbWpd64nOg1a4CwEOt/
YVF9BYLIe719LiUXJq/c2iXvhjC2/JP+rNA=
-----END CERTIFICATE-----
