Certificate:
    Data:
        Version: 3 (0x2)
        Serial Number:
            d2:8b:53:04:ef:03:20:05:5e:ae:9b:cb:0e:32:a9:21
        Signature Algorithm: sha256WithRSAEncryption
        Issuer: C=XX, O=Some CA, CN=Fake CA for zlint testing
        Validity
            Not Before: Mar  9 09:57:57 2026 GMT
            Not After : Sep 24 09:57:57 2026 GMT
        Subject: C=SE, ST=Götaland, L=Göteborg, O=Some Company AB, CN=100.51.198.203.in-addr.arpa
        Subject Public Key Info:
            Public Key Algorithm: rsaEncryption
                Public-Key: (2048 bit)
                Modulus:
                    00:9a:5a:1c:83:3e:44:7d:32:1e:67:f5:7b:db:f6:
                    32:58:2e:0b:c9:d3:c6:46:9b:b8:86:ed:29:6e:a6:
                    df:df:21:01:52:19:01:65:9c:a6:f2:6b:c3:ee:17:
                    60:22:d9:e0:46:bb:23:00:56:9c:83:f0:35:54:fe:
                    78:5f:34:43:74:e5:ed:ad:ea:14:45:59:0f:cc:20:
                    72:70:bd:fa:08:28:7f:42:c9:ef:ee:b0:3c:5a:72:
                    07:f1:8a:a0:3b:fa:3d:83:0c:84:11:1b:a0:fc:bc:
                    44:2e:55:8c:d5:34:e8:73:7b:c5:eb:f2:bf:ab:77:
                    d9:c0:d0:e1:94:6f:e6:30:0e:8f:c7:b4:96:5d:d9:
                    dc:b9:a2:05:5c:07:1a:d6:f7:d8:02:a5:34:fd:c7:
                    63:32:a6:20:01:73:ae:0f:74:4a:ec:23:df:e0:bd:
                    32:6a:ec:8f:35:f0:10:cd:b5:6a:98:f1:56:78:3b:
                    e6:a8:53:55:ec:81:ed:bc:ec:d2:05:ef:67:c3:e7:
                    25:25:6f:15:8e:e0:2d:8a:20:0f:91:08:fe:ca:90:
                    aa:80:79:20:18:11:5f:e9:89:5b:50:a3:9d:11:f9:
                    bd:bf:13:d3:c7:78:1f:23:ad:53:1f:a4:4b:f6:28:
                    cc:a8:b5:b8:bd:0a:4c:93:be:83:6d:1c:c6:ae:a8:
                    f9:cf
                Exponent: 65537 (0x10001)
        X509v3 extensions:
            X509v3 Key Usage: critical
                Digital Signature, Key Encipherment
            X509v3 Extended Key Usage: 
                TLS Web Client Authentication, TLS Web Server Authentication
            X509v3 Authority Key Identifier: 
                E8:B6:F6:76:4B:D0:3B:E5:46:A5:F9:54:D4:7E:07:B3:DE:0D:60:3E
            Authority Information Access: 
                OCSP - URI:http://ca.someca-inc.com/ocsp
                CA Issuers - URI:http://ca.someca-inc.com/root
            X509v3 Subject Alternative Name: 
                DNS:100.51.198.203.in-addr.arpa
            X509v3 Certificate Policies: 
                Policy: 2.23.140.1.2.2
            X509v3 CRL Distribution Points: 
                Full Name:
                  URI:http://ca.someca-inc.com/crl

    Signature Algorithm: sha256WithRSAEncryption
    Signature Value:
        33:36:dc:22:5d:65:d0:ff:bb:4e:f5:e1:9b:de:69:1b:df:32:
        ac:05:89:1b:e8:cf:78:18:df:a7:59:f1:4c:5f:95:0d:90:7a:
        d2:9c:91:9d:2f:d2:c1:d0:84:ec:b2:c8:15:e7:9b:0d:6a:d0:
        9f:de:a0:ec:37:1b:08:21:ef:b3:95:06:e4:e9:82:9d:ec:f1:
        90:be:33:57:78:89:5d:c6:1e:8e:74:80:5f:24:0c:cc:a0:c6:
        a5:16:09:f7:e6:46:9b:18:7b:93:75:10:9a:bd:c6:73:f2:1d:
        41:ac:2a:be:b0:78:49:23:f7:ea:a5:e3:f6:76:78:b0:45:f4:
        a2:e7:b2:7b:a5:df:9f:e6:48:4f:1a:06:21:30:08:30:93:db:
        87:ab:b7:8e:a8:d8:b1:6f:6c:9d:d6:50:34:90:a2:b9:96:2b:
        04:2a:a5:62:4a:c8:46:5a:fb:ca:93:2f:d3:08:94:ed:d0:77:
        2e:35:e1:18:58:5c:4d:8f:8b:98:3e:ba:d0:1a:cb:b4:7a:68:
        08:3b:a1:b9:82:89:b3:c3:98:9e:b0:79:7d:6c:55:ae:b6:3c:
        f6:4d:a9:d3:78:19:fc:eb:c3:ec:b5:42:b5:9e:20:3d:4c:27:
        74:8d:3c:3b:1b:be:f1:37:c3:01:af:66:54:78:78:ec:a6:9e:
        7d:20:de:ff
-----BEGIN CERTIFICATE-----
MIIEazCCA1OgAwIBAgIRANKLUwTvAyAFXq6byw4yqSEwDQYJKoZIhvcNAQELBQAw
QzELMAkGA1UEBhMCWFgxEDAOBgNVBAoTB1NvbWUgQ0ExIjAgBgNVBAMTGUZha2Ug
Q0EgZm9yIHpsaW50IHRlc3RpbmcwHhcNMjYwMzA5MDk1NzU3WhcNMjYwOTI0MDk1
NzU3WjB1MQswCQYDVQQGEwJTRTESMBAGA1UECAwJR8O2dGFsYW5kMRIwEAYDVQQH
DAlHw7Z0ZWJvcmcxGDAWBgNVBAoTD1NvbWUgQ29tcGFueSBBQjEkMCIGA1UEAxMb
MTAwLjUxLjE5OC4yMDMuaW4tYWRkci5hcnBhMIIBIjANBgkqhkiG9w0BAQEFAAOC
AQ8AMIIBCgKCAQEAmlocgz5EfTIeZ/V72/YyWC4LydPGRpu4hu0pbqbf3yEBUhkB
ZZym8mvD7hdgItngRrsjAFacg/A1VP54XzRDdOXtreoURVkPzCBycL36CCh/Qsnv
7rA8WnIH8YqgO/o9gwyEERug/LxELlWM1TToc3vF6/K/q3fZwNDhlG/mMA6Px7SW
XdncuaIFXAca1vfYAqU0/cdjMqYgAXOuD3RK7CPf4L0yauyPNfAQzbVqmPFWeDvm
qFNV7IHtvOzSBe9nw+clJW8VjuAtiiAPkQj+ypCqgHkgGBFf6YlbUKOdEfm9vxPT
x3gfI61TH6RL9ijMqLW4vQpMk76DbRzGrqj5zwIDAQABo4IBJjCCASIwDgYDVR0P
AQH/BAQDAgWgMB0GA1UdJQQWMBQGCCsGAQUFBwMCBggrBgEFBQcDATAfBgNVHSME
GDAWgBTotvZ2S9A75Ual+VTUfgez3g1gPjBkBggrBgEFBQcBAQRYMFYwKQYIKwYB
BQUHMAGGHWh0dHA6Ly9jYS5zb21lY2EtaW5jLmNvbS9vY3NwMCkGCCsGAQUFBzAC
hh1odHRwOi8vY2Euc29tZWNhLWluYy5jb20vcm9vdDAmBgNVHREEHzAdghsxMDAu
NTEuMTk4LjIwMy5pbi1hZGRyLmFycGEwEwYDVR0gBAwwCjAIBgZngQwBAgIwLQYD
VR0fBCYwJDAioCCgHoYcaHR0cDovL2NhLnNvbWVjYS1pbmMuY29tL2NybDANBgkq
hkiG9w0BAQsFAAOCAQEAMzbcIl1l0P+7TvXhm95pG98yrAWJG+jPeBjfp1nxTF+V
DZB60pyRnS/SwdCE7LLIFeebDWrQn96g7DcbCCHvs5UG5OmCnezxkL4zV3iJXcYe
jnSAXyQMzKDGpRYJ9+ZGmxh7k3UQmr3Gc/IdQawqvrB4SSP36qXj9nZ4sEX0ouey
e6Xfn+ZITxoGITAIMJPbh6u3jqjYsW9sndZQNJCiuZYrBCqlYkrIRlr7ypMv0wiU
7dB3LjXhGFhcTY+LmD660BrLtHpoCDuhuYKJs8OYnrB5fWxVrrY89k2p03gZ/OvD
7LVCtZ4gPUwndI08Oxu+8TfDAa9mVHh47KaefSDe/w==
-----END CERTIFICATE-----
