Certificate:
    Data:
        Version: 3 (0x2)
        Serial Number:
            e9:4c:e1:e8:e5:58:30:64:b5:42:b6:29:8a:77:fd:16
        Signature Algorithm: sha256WithRSAEncryption
        Issuer: C=XX, O=Some CA, CN=Fake Root CA for zlint testing
        Validity
            Not Before: Mar  9 13:11:07 2026 GMT
            Not After : Mar  8 13:11:07 2031 GMT
        Subject: C=XX, ST=Some State, L=Some Locality, O=Some CA, CN=Fake CA for zlint testing
        Subject Public Key Info:
            Public Key Algorithm: rsaEncryption
                Public-Key: (4096 bit)
                Modulus:
                    00:e8:d1:27:a1:85:5c:ca:11:1e:85:25:dd:fe:79:
                    f6:dc:a4:f1:f2:42:fe:1a:4f:fe:a7:1b:15:de:de:
                    79:ee:fd:0f:4d:3c:01:cb:a2:60:fa:01:38:8a:39:
                    51:9f:a7:9b:98:db:22:56:58:4c:35:48:28:81:56:
                    8c:9a:44:b0:1c:17:f6:d0:e2:d3:bc:13:01:3c:fc:
                    81:8f:4a:65:37:c1:10:4c:bb:43:65:b5:b7:87:f6:
                    34:ef:c4:dd:94:3d:3a:8a:0e:1d:18:93:2b:0b:b2:
                    28:da:fd:ea:d0:d9:e0:82:ed:e2:1f:5a:80:fd:1a:
                    ad:9e:85:aa:93:5b:86:1b:89:43:31:a5:ea:30:37:
                    35:ee:d4:26:93:b0:33:7c:fd:18:b9:5e:6b:c8:89:
                    65:f7:b1:47:1f:c8:fa:6b:7c:c0:d7:ed:95:6e:75:
                    f3:12:b1:53:41:bc:54:02:93:86:6f:c2:10:21:60:
                    03:92:51:12:15:c6:fe:ba:65:00:d0:8d:9b:35:83:
                    5e:1a:a6:ee:fa:d8:a2:1f:ff:56:62:64:98:85:b5:
                    ad:6e:51:4b:c4:8f:de:dd:13:27:8c:13:c1:b6:79:
                    b1:f4:75:44:fb:36:36:fa:cc:f8:61:6a:75:a8:2a:
                    fc:b6:7a:f6:4e:2f:1e:74:f0:8a:0d:89:7f:f7:78:
                    b7:5c:64:3b:25:a2:29:e7:3d:7d:ae:af:ee:67:a4:
                    2e:ff:74:eb:d3:da:c3:c0:28:5f:16:1d:2b:cd:7f:
                    0a:ad:37:72:32:11:39:e7:96:2e:da:08:02:19:58:
                    98:87:bd:8e:7b:25:a2:c7:b1:e2:20:c6:07:bf:32:
                    62:16:85:d1:1e:4d:c2:71:d9:fa:ae:08:81:22:1d:
                    c6:8a:c5:23:b9:ca:58:67:a8:06:65:19:29:82:5c:
                    60:15:31:f6:7e:98:fe:98:2b:30:aa:aa:6c:df:dc:
                    a5:03:27:20:07:6b:8a:93:04:d2:68:76:4d:61:79:
                    1f:08:7a:6a:f3:57:39:08:02:b1:e4:34:0d:c2:a2:
                    29:a4:c1:0c:db:29:26:87:8d:86:68:c9:94:e4:af:
                    71:98:fd:f0:7a:ba:c2:3f:2e:fa:e5:dd:90:06:eb:
                    63:80:ce:f9:4f:83:04:6d:08:5e:23:48:ce:10:7e:
                    b8:c7:28:b3:84:4f:1d:c4:47:cf:fc:67:ec:cc:3b:
                    16:f7:f8:62:b2:71:69:7f:d2:a7:43:95:14:52:8e:
                    ab:8d:9e:ec:c9:50:a0:0a:99:b2:42:e5:0a:ce:5a:
                    71:73:09:fc:f6:55:8c:91:a0:b5:80:c2:a4:7e:4f:
                    32:99:8f:09:56:1c:0b:41:3a:b9:53:4f:22:a4:25:
                    55:90:89
                Exponent: 65537 (0x10001)
        X509v3 extensions:
            X509v3 Key Usage: critical
                Certificate Sign, CRL Sign
            X509v3 Extended Key Usage: 
                TLS Web Client Authentication, TLS Web Server Authentication
            X509v3 Basic Constraints: critical
                CA:TRUE
            X509v3 Subject Key Identifier: 
                1C:FF:DB:87:69:51:CE:5F:2A:A9:4D:53:EB:C6:2E:33:58:38:71:40
            X509v3 Authority Key Identifier: 
                E8:B6:F6:76:4B:D0:3B:E5:46:A5:F9:54:D4:7E:07:B3:DE:0D:60:3E
            Authority Information Access: 
                OCSP - URI:http://ca.someca-inc.com/ocsp
                CA Issuers - URI:http://ca.someca-inc.com/root
            X509v3 Certificate Policies: 
                Policy: X509v3 Any Policy
            X509v3 CRL Distribution Points: 
                Full Name:
                  URI:http://ca.someca-inc.com/crl

    Signature Algorithm: sha256WithRSAEncryption
    Signature Value:
        e4:32:75:7a:0e:97:68:00:b5:76:f6:76:8c:ad:82:14:c6:5b:
        f5:5e:64:53:dc:03:7c:7e:08:1c:05:58:78:2b:fa:74:6a:06:
        f5:68:46:f0:b5:51:5e:62:48:4f:2a:74:63:ba:d1:31:ad:8f:
        a3:0c:86:89:9f:2e:01:c6:1b:aa:36:b3:8c:d7:f0:03:8a:2b:
        14:b6:f7:a0:9d:bb:84:12:ae:40:25:0f:32:7a:58:ee:69:4d:
        7d:a8:65:b9:3d:ab:ee:97:fd:5f:2e:2e:6e:bf:e2:22:f3:a6:
        9f:39:fc:42:5a:8c:d6:db:51:98:bd:36:5d:97:36:47:2c:55:
        e1:2e:a5:1f:5a:88:b9:91:c2:a1:f6:04:a0:e9:94:7f:a1:b0:
        9e:bc:8a:e8:87:ec:7e:23:36:40:c5:6c:5c:c5:bf:60:2c:d8:
        53:95:62:4d:4c:c8:91:39:3c:d2:51:8c:68:54:2b:03:eb:25:
        e1:f1:65:71:eb:8a:1e:7e:03:75:b1:71:1b:57:53:f4:a7:b4:
        c3:8a:6a:aa:29:78:80:8b:82:b8:61:6e:bf:ec:2c:4b:8f:bc:
        e4:7f:2b:0c:d0:b1:b7:5e:c6:0a:fb:33:95:c9:d8:0c:3f:66:
        26:33:47:c3:84:7d:70:d7:93:56:f1:cb:e8:14:3a:99:0c:2d:
        ad:de:1f:e5:46:a5:96:b0:22:9a:8c:be:87:bf:7d:80:5e:b9:
        8b:2a:ae:38:ef:41:5c:3d:3f:17:0f:2b:6f:3b:b9:3e:1b:1b:
        9f:22:04:0d:5a:b4:d3:03:59:17:7c:8c:02:03:a9:a8:ad:8d:
        29:0b:68:3f:1a:4c:cf:3a:c1:68:25:19:21:bc:71:6f:08:97:
        54:15:f5:1c:41:61:96:bc:e2:d6:bd:ca:88:ec:73:7b:86:2b:
        be:52:1c:61:11:a6:94:55:05:b6:40:ab:d8:9e:1a:69:50:dd:
        07:ed:d4:40:5f:7a:b6:9d:44:f3:7d:22:0d:6b:cc:b6:4b:ea:
        ca:20:ad:b7:a9:f2:5a:b2:57:d8:02:e8:df:07:82:a7:52:65:
        bd:34:45:ce:a2:72:5d:91:01:e7:f6:00:14:78:05:d6:bb:a5:
        ce:02:85:a0:a7:d8:79:23:05:64:58:90:da:b4:18:5f:ea:1c:
        34:00:70:ad:74:3b:93:e1:21:0f:90:36:5c:84:b7:63:2b:ea:
        e8:b3:49:5b:19:62:00:5d:85:c2:92:b3:e6:64:0f:21:17:15:
        b2:3a:26:24:74:a9:f2:54:23:40:9a:3a:aa:8f:c3:f6:c2:99:
        51:f5:2e:26:87:6a:f9:35:0e:28:a2:a0:c4:03:28:18:2a:27:
        92:d5:bb:05:a0:7f:06:c1
-----BEGIN CERTIFICATE-----
MIIGcTCCBFmgAwIBAgIRAOlM4ejlWDBktUK2KYp3/RYwDQYJKoZIhvcNAQELBQAw
SDELMAkGA1UEBhMCWFgxEDAOBgNVBAoTB1NvbWUgQ0ExJzAlBgNVBAMTHkZha2Ug
Um9vdCBDQSBmb3IgemxpbnQgdGVzdGluZzAeFw0yNjAzMDkxMzExMDdaFw0zMTAz
MDgxMzExMDdaMHAxCzAJBgNVBAYTAlhYMRMwEQYDVQQIEwpTb21lIFN0YXRlMRYw
FAYDVQQHEw1Tb21lIExvY2FsaXR5MRAwDgYDVQQKEwdTb21lIENBMSIwIAYDVQQD
ExlGYWtlIENBIGZvciB6bGludCB0ZXN0aW5nMIICIjANBgkqhkiG9w0BAQEFAAOC
Ag8AMIICCgKCAgEA6NEnoYVcyhEehSXd/nn23KTx8kL+Gk/+pxsV3t557v0PTTwB
y6Jg+gE4ijlRn6ebmNsiVlhMNUgogVaMmkSwHBf20OLTvBMBPPyBj0plN8EQTLtD
ZbW3h/Y078TdlD06ig4dGJMrC7Io2v3q0Nnggu3iH1qA/RqtnoWqk1uGG4lDMaXq
MDc17tQmk7AzfP0YuV5ryIll97FHH8j6a3zA1+2VbnXzErFTQbxUApOGb8IQIWAD
klESFcb+umUA0I2bNYNeGqbu+tiiH/9WYmSYhbWtblFLxI/e3RMnjBPBtnmx9HVE
+zY2+sz4YWp1qCr8tnr2Ti8edPCKDYl/93i3XGQ7JaIp5z19rq/uZ6Qu/3Tr09rD
wChfFh0rzX8KrTdyMhE555Yu2ggCGViYh72OeyWix7HiIMYHvzJiFoXRHk3Ccdn6
rgiBIh3GisUjucpYZ6gGZRkpglxgFTH2fpj+mCswqqps39ylAycgB2uKkwTSaHZN
YXkfCHpq81c5CAKx5DQNwqIppMEM2ykmh42GaMmU5K9xmP3werrCPy765d2QButj
gM75T4MEbQheI0jOEH64xyizhE8dxEfP/GfszDsW9/hisnFpf9KnQ5UUUo6rjZ7s
yVCgCpmyQuUKzlpxcwn89lWMkaC1gMKkfk8ymY8JVhwLQTq5U08ipCVVkIkCAwEA
AaOCASwwggEoMA4GA1UdDwEB/wQEAwIBBjAdBgNVHSUEFjAUBggrBgEFBQcDAgYI
KwYBBQUHAwEwDwYDVR0TAQH/BAUwAwEB/zAdBgNVHQ4EFgQUHP/bh2lRzl8qqU1T
68YuM1g4cUAwHwYDVR0jBBgwFoAU6Lb2dkvQO+VGpflU1H4Hs94NYD4wZAYIKwYB
BQUHAQEEWDBWMCkGCCsGAQUFBzABhh1odHRwOi8vY2Euc29tZWNhLWluYy5jb20v
b2NzcDApBggrBgEFBQcwAoYdaHR0cDovL2NhLnNvbWVjYS1pbmMuY29tL3Jvb3Qw
EQYDVR0gBAowCDAGBgRVHSAAMC0GA1UdHwQmMCQwIqAgoB6GHGh0dHA6Ly9jYS5z
b21lY2EtaW5jLmNvbS9jcmwwDQYJKoZIhvcNAQELBQADggIBAOQydXoOl2gAtXb2
doytghTGW/VeZFPcA3x+CBwFWHgr+nRqBvVoRvC1UV5iSE8qdGO60TGtj6MMhomf
LgHGG6o2s4zX8AOKKxS296Cdu4QSrkAlDzJ6WO5pTX2oZbk9q+6X/V8uLm6/4iLz
pp85/EJajNbbUZi9Nl2XNkcsVeEupR9aiLmRwqH2BKDplH+hsJ68iuiH7H4jNkDF
bFzFv2As2FOVYk1MyJE5PNJRjGhUKwPrJeHxZXHrih5+A3WxcRtXU/SntMOKaqop
eICLgrhhbr/sLEuPvOR/KwzQsbdexgr7M5XJ2Aw/ZiYzR8OEfXDXk1bxy+gUOpkM
La3eH+VGpZawIpqMvoe/fYBeuYsqrjjvQVw9PxcPK287uT4bG58iBA1atNMDWRd8
jAIDqaitjSkLaD8aTM86wWglGSG8cW8Il1QV9RxBYZa84ta9yojsc3uGK75SHGER
ppRVBbZAq9ieGmlQ3Qft1EBferadRPN9Ig1rzLZL6sogrbep8lqyV9gC6N8HgqdS
Zb00Rc6icl2RAef2ABR4Bda7pc4ChaCn2HkjBWRYkNq0GF/qHDQAcK10O5PhIQ+Q
NlyEt2Mr6uizSVsZYgBdhcKSs+ZkDyEXFbI6JiR0qfJUI0CaOqqPw/bCmVH1LiaH
avk1DiiioMQDKBgqJ5LVuwWgfwbB
-----END CERTIFICATE-----
