Certificate:
    Data:
        Version: 3 (0x2)
        Serial Number:
            84:11:69:f7:bc:70:e7:68:34:66:fc:9a:ba:cb:e0:3e
        Signature Algorithm: sha256WithRSAEncryption
        Issuer: C=XX, O=Some CA, CN=Fake CA for zlint testing
        Validity
            Not Before: Nov 17 08:43:14 2025 GMT
            Not After : Nov 17 08:43:14 2026 GMT
        Subject: C=SE, ST=Götaland, L=Göteborg, O=Some Company AB
        Subject Public Key Info:
            Public Key Algorithm: rsaEncryption
                Public-Key: (2048 bit)
                Modulus:
                    00:a7:97:d0:5a:7e:67:af:16:b4:c0:f6:2d:2d:d7:
                    41:b8:c7:21:89:28:62:cc:ed:f3:0d:d2:19:05:c2:
                    2e:94:52:40:fe:6e:26:d5:27:0d:ed:e7:68:4d:95:
                    8e:80:7a:88:dd:5f:0f:c5:c7:87:6e:ce:65:1f:56:
                    54:85:3e:84:f8:11:e0:e2:23:2f:86:ad:0a:b7:34:
                    43:e6:c9:2c:fc:b2:7f:3a:2d:1c:c7:83:31:91:27:
                    e8:ca:a8:2a:35:e0:cf:57:58:ac:6f:46:7e:7d:3a:
                    e4:6c:46:3e:52:dc:e6:36:f7:f2:f6:4e:60:44:fc:
                    ed:94:44:97:28:51:87:12:2a:ef:f3:7d:9e:7e:d4:
                    ed:84:cb:a2:81:97:29:2d:a1:3b:6f:50:16:89:b7:
                    fd:a4:ff:2c:7a:a5:da:52:b4:0e:84:dd:21:1d:6a:
                    37:77:09:09:e2:ce:b1:37:8f:19:9e:89:e7:af:47:
                    a8:7b:65:20:b6:63:c5:4f:f7:39:67:17:8e:c9:31:
                    67:a6:66:5a:16:d0:db:e0:e7:80:30:55:6f:c6:82:
                    86:66:bc:73:26:26:2c:da:ec:13:fa:f8:ec:55:da:
                    88:c8:2c:27:24:01:d2:fc:08:57:c8:82:3c:8c:2a:
                    83:8e:0f:ce:39:89:11:13:92:8a:09:9a:26:48:1e:
                    f9:9d
                Exponent: 65537 (0x10001)
        X509v3 extensions:
            X509v3 Key Usage: critical
                Digital Signature, Key Encipherment
            X509v3 Extended Key Usage: 
                TLS Web Client Authentication, TLS Web Server Authentication
            X509v3 Authority Key Identifier: 
                E8:B6:F6:76:4B:D0:3B:E5:46:A5:F9:54:D4:7E:07:B3:DE:0D:60:3E
            Authority Information Access: 
                OCSP - URI:http://ca.someca-inc.com/ocsp
                CA Issuers - URI:http://ca.someca-inc.com/root
            X509v3 Subject Alternative Name: 
                DNS:example.org
            X509v3 Certificate Policies: 
                Policy: 2.23.140.1.2.2
            X509v3 CRL Distribution Points: 
                Full Name:
                  URI:http://ca.someca-inc.com/crl

    Signature Algorithm: sha256WithRSAEncryption
    Signature Value:
        57:8d:de:01:5e:b4:bf:e7:4a:98:a6:ff:2c:00:ce:67:79:da:
        ea:8f:5c:db:5d:51:d7:12:f9:25:e0:da:72:ea:17:2b:9b:67:
        98:79:95:ec:45:02:af:ce:19:ff:ea:60:c0:ba:51:db:86:7b:
        a9:d1:aa:f5:15:64:00:5c:47:14:34:0d:19:45:40:03:0e:d7:
        67:82:4b:4d:5d:f5:3d:70:c4:1f:b5:09:d7:d4:f8:ba:eb:4f:
        d1:14:85:b1:8e:e9:e3:e2:d9:dd:45:19:b4:c2:74:98:ec:51:
        41:93:f9:e8:56:c1:79:e4:92:e3:48:0d:86:43:75:62:95:98:
        b9:d2:9d:fe:b1:d2:b9:8a:34:2d:1d:aa:4a:4b:4a:0a:c9:70:
        e1:e2:d8:90:d0:09:d0:68:b1:d7:46:80:62:28:c6:b9:5e:2c:
        79:4f:4f:84:b6:68:8b:c7:1f:90:74:f1:f9:f8:2a:f3:a4:12:
        3b:8f:45:23:49:c2:36:05:ff:0e:49:b5:1c:6e:d5:2b:04:87:
        c3:ed:3c:d4:82:a7:c9:6f:1b:c5:20:9c:a8:f7:4c:15:3d:d2:
        79:65:09:d0:21:3b:e2:ea:e3:79:59:7e:71:29:87:4c:3a:85:
        ec:db:99:ab:9a:c1:ac:d1:63:a9:37:6d:63:e1:ec:a7:d4:b4:
        0d:5a:6f:b3
-----BEGIN CERTIFICATE-----
MIIENTCCAx2gAwIBAgIRAIQRafe8cOdoNGb8mrrL4D4wDQYJKoZIhvcNAQELBQAw
QzELMAkGA1UEBhMCWFgxEDAOBgNVBAoTB1NvbWUgQ0ExIjAgBgNVBAMTGUZha2Ug
Q0EgZm9yIHpsaW50IHRlc3RpbmcwHhcNMjUxMTE3MDg0MzE0WhcNMjYxMTE3MDg0
MzE0WjBPMQswCQYDVQQGEwJTRTESMBAGA1UECAwJR8O2dGFsYW5kMRIwEAYDVQQH
DAlHw7Z0ZWJvcmcxGDAWBgNVBAoTD1NvbWUgQ29tcGFueSBBQjCCASIwDQYJKoZI
hvcNAQEBBQADggEPADCCAQoCggEBAKeX0Fp+Z68WtMD2LS3XQbjHIYkoYszt8w3S
GQXCLpRSQP5uJtUnDe3naE2VjoB6iN1fD8XHh27OZR9WVIU+hPgR4OIjL4atCrc0
Q+bJLPyyfzotHMeDMZEn6MqoKjXgz1dYrG9Gfn065GxGPlLc5jb38vZOYET87ZRE
lyhRhxIq7/N9nn7U7YTLooGXKS2hO29QFom3/aT/LHql2lK0DoTdIR1qN3cJCeLO
sTePGZ6J569HqHtlILZjxU/3OWcXjskxZ6ZmWhbQ2+DngDBVb8aChma8cyYmLNrs
E/r47FXaiMgsJyQB0vwIV8iCPIwqg44PzjmJEROSigmaJkge+Z0CAwEAAaOCARYw
ggESMA4GA1UdDwEB/wQEAwIFoDAdBgNVHSUEFjAUBggrBgEFBQcDAgYIKwYBBQUH
AwEwHwYDVR0jBBgwFoAU6Lb2dkvQO+VGpflU1H4Hs94NYD4wZAYIKwYBBQUHAQEE
WDBWMCkGCCsGAQUFBzABhh1odHRwOi8vY2Euc29tZWNhLWluYy5jb20vb2NzcDAp
BggrBgEFBQcwAoYdaHR0cDovL2NhLnNvbWVjYS1pbmMuY29tL3Jvb3QwFgYDVR0R
BA8wDYILZXhhbXBsZS5vcmcwEwYDVR0gBAwwCjAIBgZngQwBAgIwLQYDVR0fBCYw
JDAioCCgHoYcaHR0cDovL2NhLnNvbWVjYS1pbmMuY29tL2NybDANBgkqhkiG9w0B
AQsFAAOCAQEAV43eAV60v+dKmKb/LADOZ3na6o9c211R1xL5JeDacuoXK5tnmHmV
7EUCr84Z/+pgwLpR24Z7qdGq9RVkAFxHFDQNGUVAAw7XZ4JLTV31PXDEH7UJ19T4
uutP0RSFsY7p4+LZ3UUZtMJ0mOxRQZP56FbBeeSS40gNhkN1YpWYudKd/rHSuYo0
LR2qSktKCslw4eLYkNAJ0Gix10aAYijGuV4seU9PhLZoi8cfkHTx+fgq86QSO49F
I0nCNgX/Dkm1HG7VKwSHw+081IKnyW8bxSCcqPdMFT3SeWUJ0CE74urjeVl+cSmH
TDqF7NuZq5rBrNFjqTdtY+Hsp9S0DVpvsw==
-----END CERTIFICATE-----
