Certificate:
    Data:
        Version: 3 (0x2)
        Serial Number: 3 (0x3)
        Signature Algorithm: ecdsa-with-SHA256
        Issuer: CN = Intermediate
        Validity
            Not Before: Sep 30 00:00:00 2023 GMT
            Not After : Nov 30 00:00:00 9998 GMT
        Subject: 
        Subject Public Key Info:
            Public Key Algorithm: id-ecPublicKey
                Public-Key: (256 bit)
                pub:
                    04:1c:d4:af:92:68:2f:bc:38:53:2e:45:d6:79:d4:
                    42:e6:9f:b4:72:51:2d:cc:be:55:77:6b:53:37:ff:
                    05:90:4d:a7:67:84:8c:5e:9f:b6:f3:73:da:80:a9:
                    4a:bc:30:66:27:94:a9:92:5a:2f:32:9e:a3:64:ae:
                    fc:0a:2f:2e:34
                ASN1 OID: prime256v1
                NIST CURVE: P-256
        X509v3 extensions:
            X509v3 Basic Constraints: critical
                CA:FALSE
    Signature Algorithm: ecdsa-with-SHA256
    Signature Value:
        30:44:02:20:51:1e:6f:c4:98:db:72:aa:cf:29:0a:01:6b:5a:
        bf:fd:d0:89:05:88:4a:0d:06:b2:50:1b:a0:7c:20:47:ea:bd:
        02:20:28:03:af:10:58:2e:d9:23:b2:9f:15:58:27:60:4c:39:
        29:66:f0:15:a0:f4:c2:ca:02:71:f6:b1:4c:9d:b8:39
-----BEGIN CERTIFICATE-----
MIIBFjCBvqADAgECAgEDMAoGCCqGSM49BAMCMBcxFTATBgNVBAMTDEludGVybWVk
aWF0ZTAgFw0yMzA5MzAwMDAwMDBaGA85OTk4MTEzMDAwMDAwMFowADBZMBMGByqG
SM49AgEGCCqGSM49AwEHA0IABBzUr5JoL7w4Uy5F1nnUQuaftHJRLcy+VXdrUzf/
BZBNp2eEjF6ftvNz2oCpSrwwZieUqZJaLzKeo2Su/AovLjSjEDAOMAwGA1UdEwEB
/wQCMAAwCgYIKoZIzj0EAwIDRwAwRAIgUR5vxJjbcqrPKQoBa1q//dCJBYhKDQay
UBugfCBH6r0CICgDrxBYLtkjsp8VWCdgTDkpZvAVoPTCygJx9rFMnbg5
-----END CERTIFICATE-----
