Certificate:
    Data:
        Version: 3 (0x2)
        Serial Number: 3 (0x3)
        Signature Algorithm: ecdsa-with-SHA256
        Issuer: CN = Intermediate
        Validity
            Not Before: Sep 30 00:00:00 2023 GMT
            Not After : Nov 30 00:00:00 9998 GMT
        Subject: 
        Subject Public Key Info:
            Public Key Algorithm: id-ecPublicKey
                Public-Key: (256 bit)
                pub:
                    04:f1:a6:22:0b:be:40:27:99:bd:42:d3:8d:ca:92:
                    5e:96:95:e4:b5:42:42:8b:6e:08:d8:01:1d:41:05:
                    89:ee:6c:09:b2:9a:7f:51:3d:bd:c1:c1:4c:61:0e:
                    05:a8:af:ba:59:c2:68:ef:5b:ea:5c:a6:cc:06:61:
                    97:31:19:71:eb
                ASN1 OID: prime256v1
                NIST CURVE: P-256
        X509v3 extensions:
            X509v3 Basic Constraints: 
                CA:FALSE
    Signature Algorithm: ecdsa-with-SHA256
    Signature Value:
        30:45:02:21:00:a2:db:24:9e:2e:a8:e5:41:eb:4a:0e:cc:51:
        71:8b:0d:09:f3:8e:91:cb:75:47:a7:a6:a4:20:e1:61:22:de:
        ee:02:20:2f:9d:a1:2d:fd:18:bf:9e:83:ab:00:98:2c:36:f3:
        6a:12:7c:43:67:80:09:1c:2d:ba:65:97:97:69:fa:2a:05
-----BEGIN CERTIFICATE-----
MIIBFDCBu6ADAgECAgEDMAoGCCqGSM49BAMCMBcxFTATBgNVBAMTDEludGVybWVk
aWF0ZTAgFw0yMzA5MzAwMDAwMDBaGA85OTk4MTEzMDAwMDAwMFowADBZMBMGByqG
SM49AgEGCCqGSM49AwEHA0IABPGmIgu+QCeZvULTjcqSXpaV5LVCQotuCNgBHUEF
ie5sCbKaf1E9vcHBTGEOBaivulnCaO9b6lymzAZhlzEZceujDTALMAkGA1UdEwQC
MAAwCgYIKoZIzj0EAwIDSAAwRQIhAKLbJJ4uqOVB60oOzFFxiw0J846Ry3VHp6ak
IOFhIt7uAiAvnaEt/Ri/noOrAJgsNvNqEnxDZ4AJHC26ZZeXafoqBQ==
-----END CERTIFICATE-----
