Certificate:
    Data:
        Version: 3 (0x2)
        Serial Number:
            d0:b3:52:e7:80:a4:82:94:0b:bc:f4:0e:73:4d:9a:55
        Signature Algorithm: sha256WithRSAEncryption
        Issuer: C=XX, O=Some CA, CN=Fake CA for zlint testing
        Validity
            Not Before: Nov 17 06:55:46 2025 GMT
            Not After : Nov 17 06:55:46 2026 GMT
        Subject: C=SE, ST=Götaland, L=Göteborg, O=Some Company AB
        Subject Public Key Info:
            Public Key Algorithm: rsaEncryption
                Public-Key: (2048 bit)
                Modulus:
                    00:ad:b3:0f:63:67:67:99:aa:a3:2f:33:e3:f8:74:
                    4b:a3:8e:ad:2c:ac:42:a6:6e:4f:d3:ad:46:7b:05:
                    e7:62:ed:b6:b7:e6:67:ed:4a:b7:18:d4:71:43:25:
                    6a:a7:da:fb:47:42:d9:3f:0d:76:ad:67:54:aa:12:
                    79:87:60:d9:08:bd:e3:2c:72:bc:f3:8c:98:6b:ff:
                    35:84:46:93:e1:0f:1d:b1:09:68:71:ad:9c:e6:27:
                    43:fa:1a:6e:93:1f:f9:29:c4:c8:7f:2c:6d:7c:60:
                    9c:fa:8b:57:da:02:a5:28:9d:aa:39:06:31:61:aa:
                    22:96:34:bb:85:e8:40:61:84:5b:04:e4:d3:00:d5:
                    bf:9f:40:41:8a:7e:1b:c3:2f:0f:84:f0:f9:f7:a6:
                    ab:2c:ef:b7:8b:34:77:e4:6d:04:df:10:a9:4b:96:
                    04:88:56:16:1d:9e:91:ac:bb:0a:d9:0a:aa:09:41:
                    00:d8:34:08:c1:82:2d:44:cb:b3:38:e6:0c:4f:2e:
                    b6:ee:99:7a:c3:ab:25:33:96:9b:50:54:75:34:09:
                    8a:cf:14:7d:ed:9c:a9:30:f9:43:ea:e0:55:09:70:
                    44:4a:f2:09:2e:81:7c:d1:45:04:72:d3:82:26:d5:
                    a2:95:43:18:ff:c7:4e:a2:21:fb:7a:d1:d2:cf:9c:
                    4f:73
                Exponent: 65537 (0x10001)
        X509v3 extensions:
            X509v3 Key Usage: critical
                Digital Signature, Key Encipherment
            X509v3 Extended Key Usage: 
                TLS Web Client Authentication, TLS Web Server Authentication
            X509v3 Basic Constraints: critical
                CA:FALSE
            X509v3 Authority Key Identifier: 
                E8:B6:F6:76:4B:D0:3B:E5:46:A5:F9:54:D4:7E:07:B3:DE:0D:60:3E
            Authority Information Access: 
                OCSP - URI:http://ca.someca-inc.com/ocsp
                CA Issuers - URI:http://ca.someca-inc.com/root
            X509v3 Subject Alternative Name: 
                DNS:example.org
            X509v3 Certificate Policies: 
                Policy: 2.23.140.1.2.2
            X509v3 CRL Distribution Points: 
                Full Name:
                  URI:http://ca.someca-inc.com/crl

    Signature Algorithm: sha256WithRSAEncryption
    Signature Value:
        3e:98:ef:a2:c3:02:c9:5f:15:4f:bf:f0:37:0a:40:81:80:c5:
        6b:e6:18:3f:5f:64:f9:af:22:71:00:d9:a9:6b:b5:6c:d7:a1:
        23:a8:49:c9:20:cd:75:6a:7d:e6:ce:fd:c7:d4:91:c2:e7:aa:
        2c:42:be:ce:1b:c7:74:29:cd:89:aa:45:47:82:1e:90:76:ab:
        ca:74:15:18:bc:62:e1:f2:3b:d0:d8:a7:a0:3e:3f:a1:27:f9:
        aa:87:ca:ab:86:f9:f1:eb:4e:af:0f:3f:3e:b0:42:cd:c9:7f:
        32:94:03:88:32:32:24:28:ca:05:df:09:40:b6:cc:fc:e7:d6:
        36:02:ac:df:5c:88:81:80:94:31:f2:18:95:f6:28:db:54:ca:
        71:f4:00:e2:8e:3d:d2:f8:5a:a5:6c:74:9e:ed:c3:9e:9b:27:
        12:4b:37:f8:9b:a1:5c:c5:4d:c8:93:4b:23:0e:4c:1a:c2:6c:
        17:da:75:50:d4:c4:0c:0d:3a:9e:7e:e4:11:dd:0c:2b:7a:bb:
        cf:8e:7e:7d:43:c8:4e:20:e0:f9:38:31:a9:a6:76:9e:55:a3:
        73:95:42:f1:8b:10:7d:b0:82:75:67:98:ae:45:70:8d:29:40:
        7d:b2:05:62:39:a8:a6:94:6e:a7:1e:17:ed:fc:9c:df:8e:d3:
        d4:4e:03:c3
-----BEGIN CERTIFICATE-----
MIIERjCCAy6gAwIBAgIRANCzUueApIKUC7z0DnNNmlUwDQYJKoZIhvcNAQELBQAw
QzELMAkGA1UEBhMCWFgxEDAOBgNVBAoTB1NvbWUgQ0ExIjAgBgNVBAMTGUZha2Ug
Q0EgZm9yIHpsaW50IHRlc3RpbmcwHhcNMjUxMTE3MDY1NTQ2WhcNMjYxMTE3MDY1
NTQ2WjBPMQswCQYDVQQGEwJTRTESMBAGA1UECAwJR8O2dGFsYW5kMRIwEAYDVQQH
DAlHw7Z0ZWJvcmcxGDAWBgNVBAoTD1NvbWUgQ29tcGFueSBBQjCCASIwDQYJKoZI
hvcNAQEBBQADggEPADCCAQoCggEBAK2zD2NnZ5mqoy8z4/h0S6OOrSysQqZuT9Ot
RnsF52LttrfmZ+1KtxjUcUMlaqfa+0dC2T8Ndq1nVKoSeYdg2Qi94yxyvPOMmGv/
NYRGk+EPHbEJaHGtnOYnQ/oabpMf+SnEyH8sbXxgnPqLV9oCpSidqjkGMWGqIpY0
u4XoQGGEWwTk0wDVv59AQYp+G8MvD4Tw+femqyzvt4s0d+RtBN8QqUuWBIhWFh2e
kay7CtkKqglBANg0CMGCLUTLszjmDE8utu6ZesOrJTOWm1BUdTQJis8Ufe2cqTD5
Q+rgVQlwREryCS6BfNFFBHLTgibVopVDGP/HTqIh+3rR0s+cT3MCAwEAAaOCAScw
ggEjMA4GA1UdDwEB/wQEAwIFoDAdBgNVHSUEFjAUBggrBgEFBQcDAgYIKwYBBQUH
AwEwDwYDVR0TAQH/BAUwAwEBADAfBgNVHSMEGDAWgBTotvZ2S9A75Ual+VTUfgez
3g1gPjBkBggrBgEFBQcBAQRYMFYwKQYIKwYBBQUHMAGGHWh0dHA6Ly9jYS5zb21l
Y2EtaW5jLmNvbS9vY3NwMCkGCCsGAQUFBzAChh1odHRwOi8vY2Euc29tZWNhLWlu
Yy5jb20vcm9vdDAWBgNVHREEDzANggtleGFtcGxlLm9yZzATBgNVHSAEDDAKMAgG
BmeBDAECAjAtBgNVHR8EJjAkMCKgIKAehhxodHRwOi8vY2Euc29tZWNhLWluYy5j
b20vY3JsMA0GCSqGSIb3DQEBCwUAA4IBAQA+mO+iwwLJXxVPv/A3CkCBgMVr5hg/
X2T5ryJxANmpa7Vs16EjqEnJIM11an3mzv3H1JHC56osQr7OG8d0Kc2JqkVHgh6Q
dqvKdBUYvGLh8jvQ2KegPj+hJ/mqh8qrhvnx606vDz8+sELNyX8ylAOIMjIkKMoF
3wlAtsz859Y2AqzfXIiBgJQx8hiV9ijbVMpx9ADijj3S+FqlbHSe7cOemycSSzf4
m6FcxU3Ik0sjDkwawmwX2nVQ1MQMDTqefuQR3QwrervPjn59Q8hOIOD5ODGppnae
VaNzlULxixB9sIJ1Z5iuRXCNKUB9sgViOaimlG6nHhft/JzfjtPUTgPD
-----END CERTIFICATE-----
