Certificate:
    Data:
        Version: 3 (0x2)
        Serial Number: 4806 (0x12c6)
        Signature Algorithm: sha256WithRSAEncryption
        Issuer: C=DE, ST=Bayern, L=N\xC3\x83\xC2\xBCrnberg, O=Siemens AG, OU=Trustcenter, CN=OliverCA/emailAddress=oliver.stiller@siemens.com
        Validity
            Not Before: Dec 31 13:28:17 2020 GMT
            Not After : Dec 31 13:28:17 2021 GMT
        Subject: O=testconstraints05, CN=testconstraints05
        Subject Public Key Info:
            Public Key Algorithm: rsaEncryption
                RSA Public-Key: (2048 bit)
                Modulus:
                    00:d5:18:3e:09:a2:89:05:4e:a7:d4:e3:6c:ce:da:
                    b1:f6:d8:e6:5e:c2:30:d8:f5:66:78:b9:2c:48:e9:
                    b3:60:cb:8a:28:bf:1a:92:f6:cc:76:db:cb:f5:66:
                    97:21:58:6b:6b:fd:11:21:b1:2f:fb:a2:70:21:1d:
                    8e:68:70:cd:ea:e5:31:b0:6e:31:84:4d:27:14:d6:
                    f8:ad:9c:4f:62:13:b7:a3:7b:57:fb:1e:44:77:06:
                    da:06:da:65:31:7c:43:43:98:e3:ff:c7:7b:a8:ee:
                    8d:3d:94:bf:39:a7:81:54:58:89:79:b7:a1:59:b1:
                    d2:8b:27:e0:52:e1:81:7f:ca:c7:7e:cb:2f:f5:5d:
                    31:f6:ff:bc:b9:23:5a:f1:13:6f:17:41:67:76:d8:
                    df:f8:12:a6:f9:e0:62:67:ba:2e:1b:77:2f:39:e9:
                    e0:35:e6:76:9d:ae:f2:92:bb:05:bb:73:0b:92:03:
                    5d:eb:31:9c:76:f8:a1:36:90:3f:ea:55:17:29:29:
                    0a:57:56:57:6d:82:a6:21:a0:7f:01:2e:7e:2d:e1:
                    f9:f6:cb:00:64:1e:bb:b8:8d:54:5a:f7:de:8f:e8:
                    ab:7e:8f:a7:c5:6a:97:55:81:08:c8:bb:71:fd:2f:
                    12:30:1c:57:4e:62:a3:d8:f6:c9:cd:4a:b0:c9:23:
                    27:71
                Exponent: 65537 (0x10001)
        X509v3 extensions:
            X509v3 Extended Key Usage: 
                Any Extended Key Usage, TLS Web Server Authentication
            X509v3 Key Usage: 
                Digital Signature, Key Encipherment
            X509v3 Name Constraints: 
                Permitted:
                  URI:.example.com

    Signature Algorithm: sha256WithRSAEncryption
         ab:7a:96:37:f0:cb:e9:6e:4a:8e:14:ad:57:7f:15:33:cd:36:
         fb:e1:c2:a6:86:27:e2:88:96:4e:a1:40:2f:10:75:47:44:56:
         2e:9e:18:00:71:99:1f:fb:f0:bd:a6:66:a1:6e:40:d5:89:bf:
         70:92:4e:60:e0:e2:f9:bb:5b:5f:61:a7:82:26:c8:ae:16:ed:
         03:ef:14:2e:4e:a2:1e:f6:3e:64:d2:4b:d1:7d:a2:71:f5:73:
         01:ed:da:e9:4f:cb:05:d6:ec:52:43:f0:02:0f:f7:81:81:92:
         44:3f:54:b5:f6:85:a9:4c:13:25:a1:45:0d:be:c9:2c:15:6b:
         b0:ce:93:b1:b8:9a:cf:65:47:c7:68:15:21:6f:f8:d4:48:a8:
         3f:40:40:75:07:5a:76:3b:6d:db:1c:0c:95:70:40:32:3b:29:
         87:63:9b:27:e3:7a:e4:e6:57:f1:97:a3:23:04:aa:72:59:f7:
         c2:56:54:e9:43:ca:ad:f7:bf:7c:3f:09:98:4c:d7:38:e5:9f:
         ed:0e:01:fe:52:8a:79:68:53:99:55:1c:88:14:40:03:93:b2:
         7b:4c:c0:a2:5a:70:aa:89:63:30:44:43:ee:f0:44:0b:20:13:
         5b:21:5a:f5:65:0e:64:bb:cc:04:a2:f6:d2:89:bc:d1:f0:bf:
         67:c8:de:6b:5b:a1:3c:81:e0:90:74:ce:01:c4:80:80:26:51:
         ed:7a:4e:3f:40:fb:28:31:31:4a:b8:9a:81:9b:54:9d:50:7c:
         32:6a:9c:a0:de:7f:e4:86:ab:b5:0f:68:1e:b5:42:a6:f5:37:
         de:1a:1b:ab:d8:db:9a:6f:32:dd:27:cb:a7:26:15:2a:05:ad:
         6c:c3:35:54:3c:b1:d6:93:f5:4c:40:9d:af:49:03:87:32:ea:
         1d:80:ff:f4:4f:8e:9f:39:15:2d:79:0b:25:3e:a8:3c:58:3d:
         4d:82:44:0a:cd:ab:4e:83:58:d8:4d:e5:9e:d2:ba:19:56:7b:
         63:56:60:74:74:8d:81:48:cf:93:f9:44:78:db:d4:cb:ae:02:
         33:4d:7e:0a:88:a1:98:b4:99:9e:51:41:49:b9:e3:2c:67:2a:
         cb:c6:6b:8c:c2:90:57:db:75:1c:5c:72:37:70:7f:a7:11:9d:
         79:66:54:e6:7d:ff:f5:af:32:0f:7c:98:96:5e:27:29:5d:2b:
         4c:ee:eb:ef:76:60:f6:e1:04:0a:ad:e8:8a:2e:bd:9a:bb:ab:
         eb:07:5f:9f:3a:67:d2:21:bc:c1:dc:2a:73:73:7a:52:40:1d:
         a3:77:6c:76:50:d4:de:85:23:c3:79:72:0f:5b:13:01:70:68:
         58:11:27:25:a1:6b:b7:6f
-----BEGIN CERTIFICATE-----
MIIEmTCCAoGgAwIBAgICEsYwDQYJKoZIhvcNAQELBQAwgZ0xCzAJBgNVBAYTAkRF
MQ8wDQYDVQQIDAZCYXllcm4xFDASBgNVBAcMC07Dg8K8cm5iZXJnMRMwEQYDVQQK
DApTaWVtZW5zIEFHMRQwEgYDVQQLDAtUcnVzdGNlbnRlcjERMA8GA1UEAwwIT2xp
dmVyQ0ExKTAnBgkqhkiG9w0BCQEWGm9saXZlci5zdGlsbGVyQHNpZW1lbnMuY29t
MB4XDTIwMTIzMTEzMjgxN1oXDTIxMTIzMTEzMjgxN1owODEaMBgGA1UECgwRdGVz
dGNvbnN0cmFpbnRzMDUxGjAYBgNVBAMMEXRlc3Rjb25zdHJhaW50czA1MIIBIjAN
BgkqhkiG9w0BAQEFAAOCAQ8AMIIBCgKCAQEA1Rg+CaKJBU6n1ONsztqx9tjmXsIw
2PVmeLksSOmzYMuKKL8akvbMdtvL9WaXIVhra/0RIbEv+6JwIR2OaHDN6uUxsG4x
hE0nFNb4rZxPYhO3o3tX+x5EdwbaBtplMXxDQ5jj/8d7qO6NPZS/OaeBVFiJebeh
WbHSiyfgUuGBf8rHfssv9V0x9v+8uSNa8RNvF0Fndtjf+BKm+eBiZ7ouG3cvOeng
NeZ2na7ykrsFu3MLkgNd6zGcdvihNpA/6lUXKSkKV1ZXbYKmIaB/AS5+LeH59ssA
ZB67uI1UWvfej+irfo+nxWqXVYEIyLtx/S8SMBxXTmKj2PbJzUqwySMncQIDAQAB
o0cwRTAZBgNVHSUEEjAQBgRVHSUABggrBgEFBQcDATALBgNVHQ8EBAMCBaAwGwYD
VR0eBBQwEqAQMA6GDC5leGFtcGxlLmNvbTANBgkqhkiG9w0BAQsFAAOCAgEAq3qW
N/DL6W5KjhStV38VM802++HCpoYn4oiWTqFALxB1R0RWLp4YAHGZH/vwvaZmoW5A
1Ym/cJJOYODi+btbX2GngibIrhbtA+8ULk6iHvY+ZNJL0X2icfVzAe3a6U/LBdbs
UkPwAg/3gYGSRD9UtfaFqUwTJaFFDb7JLBVrsM6Tsbiaz2VHx2gVIW/41EioP0BA
dQdadjtt2xwMlXBAMjsph2ObJ+N65OZX8ZejIwSqcln3wlZU6UPKrfe/fD8JmEzX
OOWf7Q4B/lKKeWhTmVUciBRAA5Oye0zAolpwqoljMERD7vBECyATWyFa9WUOZLvM
BKL20om80fC/Z8jea1uhPIHgkHTOAcSAgCZR7XpOP0D7KDExSriagZtUnVB8Mmqc
oN5/5IartQ9oHrVCpvU33hobq9jbmm8y3SfLpyYVKgWtbMM1VDyx1pP1TECdr0kD
hzLqHYD/9E+OnzkVLXkLJT6oPFg9TYJECs2rToNY2E3lntK6GVZ7Y1ZgdHSNgUjP
k/lEeNvUy64CM01+CoihmLSZnlFBSbnjLGcqy8ZrjMKQV9t1HFxyN3B/pxGdeWZU
5n3/9a8yD3yYll4nKV0rTO7r73Zg9uEECq3oii69mrur6wdfnzpn0iG8wdwqc3N6
UkAdo3dsdlDU3oUjw3lyD1sTAXBoWBEnJaFrt28=
-----END CERTIFICATE-----
