Certificate:
    Data:
        Version: 3 (0x2)
        Serial Number:
            c6:f0:d3:0e:22:65:f1:7c:ba:a9:07:6d:44:37:39:9c
        Signature Algorithm: sha256WithRSAEncryption
        Issuer: C = XX, O = Some CA, CN = Fake Root CA for zlint testing
        Validity
            Not Before: May  3 07:42:07 2024 GMT
            Not After : May  2 07:42:07 2029 GMT
        Subject: C = XX, ST = Some State, L = Some Locality, O = Some CA, CN = Fake CA for zlint testing
        Subject Public Key Info:
            Public Key Algorithm: rsaEncryption
                RSA Public-Key: (4096 bit)
                Modulus:
                    00:ea:78:20:de:5a:af:5a:09:d3:49:50:bd:a7:1c:
                    db:00:ed:90:95:dc:96:47:39:05:33:96:5a:22:01:
                    12:84:5e:77:20:74:eb:20:1a:a7:61:38:db:e2:97:
                    1b:8c:ae:1e:46:80:da:50:6c:5a:b0:a0:24:0c:af:
                    66:8a:8b:75:18:74:02:11:6f:dd:51:86:8b:e5:ca:
                    eb:ce:ec:d7:a0:f1:b6:54:9e:1b:94:ba:45:26:a0:
                    5a:55:fa:84:30:89:ff:14:1a:10:f9:f6:a0:59:0a:
                    a7:d2:7e:18:24:cb:4c:be:f9:9d:ba:fa:a3:6b:41:
                    54:61:a5:7a:08:76:79:56:d9:0b:5d:f7:48:f8:a5:
                    fb:40:94:1b:05:e5:43:ff:82:40:c4:ac:3f:03:6e:
                    bc:5d:f0:4d:57:45:fc:4f:e5:31:10:56:6d:a5:b5:
                    e1:5b:34:c9:82:12:28:b7:06:8d:a4:f9:c9:ff:fa:
                    3b:28:cc:a9:85:58:a0:be:c6:cc:70:df:29:ec:03:
                    7d:87:49:46:ab:25:aa:2c:a7:36:38:68:34:87:28:
                    a3:3c:a8:bd:8f:bc:22:19:4a:f6:5f:61:1f:da:ac:
                    71:8a:15:1e:dd:63:13:e8:f8:0a:c7:04:fa:a1:ac:
                    35:8c:4e:b7:2e:27:6f:b8:02:95:db:eb:0c:2c:b6:
                    1f:ad:0d:3a:34:3d:d1:2b:19:90:aa:bc:cf:4a:73:
                    a9:e7:20:89:6b:7c:9c:7f:9c:b0:62:19:22:be:65:
                    b3:b0:89:10:0d:96:b3:b7:d5:e6:ac:ef:7f:4e:c2:
                    c3:a3:e7:e4:59:aa:7b:8b:a9:ab:78:b8:39:6e:ba:
                    fb:64:5f:59:c1:c2:ee:f8:f7:b7:0e:4c:69:33:23:
                    d7:ea:2e:07:cc:66:9d:a3:61:12:61:c4:60:69:95:
                    9a:b5:f1:44:1d:10:5f:57:98:2b:49:0f:59:80:6a:
                    f6:4c:a6:02:ee:de:c1:c9:e0:f6:e0:42:ce:09:c4:
                    39:c4:2b:9e:e6:7a:80:5d:87:68:8a:3e:83:b4:96:
                    58:d8:91:62:43:1a:20:48:6e:af:ce:7d:28:7c:8c:
                    d8:12:dd:07:c9:81:4a:2b:3f:5f:3a:06:89:d0:9b:
                    1d:6b:06:51:a9:e5:c5:d0:d4:0f:0e:96:54:40:c3:
                    c2:66:6a:4c:f4:aa:4f:1d:c3:f3:91:64:c8:78:be:
                    32:6a:f5:f5:67:6b:42:a1:ae:99:19:f8:57:42:ad:
                    6c:ca:69:3f:1a:f6:df:1e:2e:88:5c:7d:d0:f8:c0:
                    a3:07:54:a4:17:82:f7:32:1c:da:4b:e7:43:55:d0:
                    8a:d4:6a:27:2d:66:cd:61:75:73:d5:94:a8:65:42:
                    45:6d:05
                Exponent: 65537 (0x10001)
        X509v3 extensions:
            X509v3 Key Usage: critical
                Certificate Sign, CRL Sign
            X509v3 Extended Key Usage: 
                TLS Web Client Authentication, TLS Web Server Authentication
            X509v3 Basic Constraints: critical
                CA:TRUE
            X509v3 Subject Key Identifier: 
                DC:7A:E3:5E:EE:91:DD:D7:17:79:FC:43:59:FB:C5:19:E5:B1:A5:6F
            X509v3 Authority Key Identifier: 
                keyid:E8:B6:F6:76:4B:D0:3B:E5:46:A5:F9:54:D4:7E:07:B3:DE:0D:60:3E

            Authority Information Access: 
                OCSP - URI:http://ca.someca-inc.com/ocsp
                CA Issuers - URI:http://ca.someca-inc.com/root

            X509v3 Certificate Policies: 
                Policy: X509v3 Any Policy

            X509v3 CRL Distribution Points: 

                Full Name:
                  URI:http://ca.someca-inc.com/crl

    Signature Algorithm: sha256WithRSAEncryption
         de:24:26:06:41:a3:d2:fb:b1:bd:72:c0:df:98:85:ea:72:1a:
         63:8b:f6:05:a0:71:c3:ba:25:25:46:e2:d0:5c:1d:6f:46:a4:
         45:67:d6:df:b3:c0:e9:7f:72:78:cb:af:5c:4f:ae:bd:45:53:
         6a:17:9e:df:0e:40:ea:8a:2a:b4:09:41:67:04:75:f9:34:7b:
         49:d6:e3:d7:1d:a6:b3:81:0e:d0:14:f7:13:6a:d7:1e:99:88:
         a9:cd:f8:54:64:7a:8c:92:27:c8:21:0c:62:47:c1:a5:39:09:
         a0:ff:17:86:c5:ac:31:e4:72:dd:1a:c7:fd:fe:cf:64:3b:c3:
         74:04:82:2c:32:0c:ef:c7:25:51:12:89:e1:b0:86:19:2e:f1:
         2e:4e:23:38:77:cb:b5:ad:32:a6:90:8d:cd:17:98:9b:5f:b0:
         4e:1d:02:85:27:33:cc:b5:93:45:af:7d:5c:d0:b1:d7:de:9d:
         06:28:5b:2a:bc:dd:e9:06:77:4b:38:1a:41:24:08:9b:18:b7:
         ed:a7:fe:b3:f5:75:1c:3e:1b:97:dc:ef:28:21:18:50:f4:ba:
         c4:b4:f1:7b:cc:cd:76:35:cf:9a:c9:a3:ba:6c:b7:5e:89:b9:
         b8:e6:b5:16:6a:f8:7f:03:3b:bc:f9:10:00:5c:43:ff:27:39:
         92:cf:07:9f:a9:27:bf:3f:d8:60:c2:51:e4:c5:5e:60:ba:ac:
         dd:56:2e:b7:53:7b:84:c7:92:3e:8c:90:41:c2:1e:16:27:01:
         c8:11:d7:d5:2a:6d:da:d7:f1:a3:dc:ae:60:f3:30:8f:b8:5e:
         51:ca:52:15:f4:0f:f4:de:b1:52:4c:5c:e4:89:0f:dd:d1:04:
         5e:0c:5c:b1:ea:ba:82:f3:9c:c7:13:76:b7:a0:95:cb:5d:38:
         19:0d:b0:d5:5b:12:91:ec:2f:fd:e4:55:ea:6c:83:df:b6:9c:
         27:cd:51:00:37:20:48:95:ad:c1:82:07:70:08:0f:6e:59:32:
         40:e8:86:4e:b0:af:fd:82:04:97:44:26:30:99:ea:f5:23:7b:
         70:97:3d:22:ef:e1:15:ca:bc:c4:1c:3e:09:74:c2:dc:72:13:
         32:cf:02:f5:bf:a5:41:35:47:f2:65:f7:ad:90:f1:ae:07:72:
         a1:69:5d:94:3f:95:f5:e6:6c:7e:79:08:3f:a0:15:a4:c2:b3:
         2f:b6:8d:43:22:e4:75:26:06:18:f4:96:cd:a4:59:f3:20:88:
         23:e1:80:07:10:40:16:2a:d5:77:41:ea:83:8d:64:a3:67:50:
         79:34:61:0e:ec:04:97:c5:95:8d:25:a8:44:a5:58:64:6f:97:
         db:c2:48:24:6a:b7:01:f7
-----BEGIN CERTIFICATE-----
MIIGcTCCBFmgAwIBAgIRAMbw0w4iZfF8uqkHbUQ3OZwwDQYJKoZIhvcNAQELBQAw
SDELMAkGA1UEBhMCWFgxEDAOBgNVBAoTB1NvbWUgQ0ExJzAlBgNVBAMTHkZha2Ug
Um9vdCBDQSBmb3IgemxpbnQgdGVzdGluZzAeFw0yNDA1MDMwNzQyMDdaFw0yOTA1
MDIwNzQyMDdaMHAxCzAJBgNVBAYTAlhYMRMwEQYDVQQIEwpTb21lIFN0YXRlMRYw
FAYDVQQHEw1Tb21lIExvY2FsaXR5MRAwDgYDVQQKEwdTb21lIENBMSIwIAYDVQQD
ExlGYWtlIENBIGZvciB6bGludCB0ZXN0aW5nMIICIjANBgkqhkiG9w0BAQEFAAOC
Ag8AMIICCgKCAgEA6ngg3lqvWgnTSVC9pxzbAO2QldyWRzkFM5ZaIgEShF53IHTr
IBqnYTjb4pcbjK4eRoDaUGxasKAkDK9miot1GHQCEW/dUYaL5crrzuzXoPG2VJ4b
lLpFJqBaVfqEMIn/FBoQ+fagWQqn0n4YJMtMvvmduvqja0FUYaV6CHZ5VtkLXfdI
+KX7QJQbBeVD/4JAxKw/A268XfBNV0X8T+UxEFZtpbXhWzTJghIotwaNpPnJ//o7
KMyphVigvsbMcN8p7AN9h0lGqyWqLKc2OGg0hyijPKi9j7wiGUr2X2Ef2qxxihUe
3WMT6PgKxwT6oaw1jE63LidvuAKV2+sMLLYfrQ06ND3RKxmQqrzPSnOp5yCJa3yc
f5ywYhkivmWzsIkQDZazt9XmrO9/TsLDo+fkWap7i6mreLg5brr7ZF9ZwcLu+Pe3
DkxpMyPX6i4HzGado2ESYcRgaZWatfFEHRBfV5grSQ9ZgGr2TKYC7t7ByeD24ELO
CcQ5xCue5nqAXYdoij6DtJZY2JFiQxogSG6vzn0ofIzYEt0HyYFKKz9fOgaJ0Jsd
awZRqeXF0NQPDpZUQMPCZmpM9KpPHcPzkWTIeL4yavX1Z2tCoa6ZGfhXQq1symk/
GvbfHi6IXH3Q+MCjB1SkF4L3MhzaS+dDVdCK1GonLWbNYXVz1ZSoZUJFbQUCAwEA
AaOCASwwggEoMA4GA1UdDwEB/wQEAwIBBjAdBgNVHSUEFjAUBggrBgEFBQcDAgYI
KwYBBQUHAwEwDwYDVR0TAQH/BAUwAwEB/zAdBgNVHQ4EFgQU3HrjXu6R3dcXefxD
WfvFGeWxpW8wHwYDVR0jBBgwFoAU6Lb2dkvQO+VGpflU1H4Hs94NYD4wZAYIKwYB
BQUHAQEEWDBWMCkGCCsGAQUFBzABhh1odHRwOi8vY2Euc29tZWNhLWluYy5jb20v
b2NzcDApBggrBgEFBQcwAoYdaHR0cDovL2NhLnNvbWVjYS1pbmMuY29tL3Jvb3Qw
EQYDVR0gBAowCDAGBgRVHSAAMC0GA1UdHwQmMCQwIqAgoB6GHGh0dHA6Ly9jYS5z
b21lY2EtaW5jLmNvbS9jcmwwDQYJKoZIhvcNAQELBQADggIBAN4kJgZBo9L7sb1y
wN+YhepyGmOL9gWgccO6JSVG4tBcHW9GpEVn1t+zwOl/cnjLr1xPrr1FU2oXnt8O
QOqKKrQJQWcEdfk0e0nW49cdprOBDtAU9xNq1x6ZiKnN+FRkeoySJ8ghDGJHwaU5
CaD/F4bFrDHkct0ax/3+z2Q7w3QEgiwyDO/HJVESieGwhhku8S5OIzh3y7WtMqaQ
jc0XmJtfsE4dAoUnM8y1k0WvfVzQsdfenQYoWyq83ekGd0s4GkEkCJsYt+2n/rP1
dRw+G5fc7yghGFD0usS08XvMzXY1z5rJo7pst16JubjmtRZq+H8DO7z5EABcQ/8n
OZLPB5+pJ78/2GDCUeTFXmC6rN1WLrdTe4THkj6MkEHCHhYnAcgR19UqbdrX8aPc
rmDzMI+4XlHKUhX0D/TesVJMXOSJD93RBF4MXLHquoLznMcTdreglctdOBkNsNVb
EpHsL/3kVepsg9+2nCfNUQA3IEiVrcGCB3AID25ZMkDohk6wr/2CBJdEJjCZ6vUj
e3CXPSLv4RXKvMQcPgl0wtxyEzLPAvW/pUE1R/Jl962Q8a4HcqFpXZQ/lfXmbH55
CD+gFaTCsy+2jUMi5HUmBhj0ls2kWfMgiCPhgAcQQBYq1XdB6oONZKNnUHk0YQ7s
BJfFlY0lqESlWGRvl9vCSCRqtwH3
-----END CERTIFICATE-----
