Certificate:
    Data:
        Version: 3 (0x2)
        Serial Number:
            b7:6c:81:72:91:65:55:53:44:f0:62:ac:21:28:90:4b
        Signature Algorithm: sha256WithRSAEncryption
        Issuer: C = XX, O = Some CA, CN = Fake Root CA for zlint testing
        Validity
            Not Before: May  3 08:06:51 2024 GMT
            Not After : May  2 08:06:51 2029 GMT
        Subject: C = XX, ST = Some State, L = Some Locality, O = Some CA, CN = Fake CA for zlint testing
        Subject Public Key Info:
            Public Key Algorithm: rsaEncryption
                RSA Public-Key: (4096 bit)
                Modulus:
                    00:c0:30:a5:25:9a:c6:ca:14:f3:57:ea:56:f3:14:
                    f3:78:0c:c1:81:e3:ec:6e:36:8d:15:d5:d3:11:51:
                    d4:06:cd:db:88:3b:bd:24:8c:ce:55:6b:f7:20:a9:
                    25:b5:1a:9e:ff:7e:83:6e:db:81:fa:6e:36:60:b9:
                    f4:c4:64:a0:8a:fc:f4:20:b8:ac:17:40:e9:70:9c:
                    86:a9:67:79:42:1b:2e:37:5b:5a:99:89:2e:d1:05:
                    29:72:5c:5b:c9:3c:69:08:f4:32:c5:49:85:84:c1:
                    75:d3:a5:37:d1:77:b4:5c:de:74:e8:4f:7d:e9:59:
                    ce:cf:bd:d7:74:15:21:01:57:61:7d:d3:e8:3c:8c:
                    26:68:45:50:3e:1a:56:52:04:6d:bc:31:30:a4:1b:
                    79:35:2e:7f:e2:b1:a5:ff:ba:8d:88:f1:e4:5e:93:
                    fa:bf:39:28:f7:be:91:5e:95:b0:63:70:bb:eb:ce:
                    f9:f9:52:dd:8f:53:63:b3:cd:25:e4:4a:d6:2f:26:
                    2c:fc:09:7b:b4:d5:57:b7:f9:ab:e6:e2:58:95:5f:
                    20:e7:ea:ba:94:45:dc:71:60:c4:af:80:23:e3:f4:
                    55:31:43:ab:48:88:f1:b2:42:e8:c3:3c:5d:12:90:
                    33:cc:6a:f2:ae:67:cf:db:5d:9f:c5:63:c2:53:7e:
                    32:61:60:e9:ae:2f:94:a2:9e:b7:e7:d7:1a:9e:01:
                    3d:97:3b:09:da:14:03:22:df:0e:b1:01:fa:86:cf:
                    14:f2:ee:1c:45:dd:ed:47:2a:b3:8b:32:6d:0a:c2:
                    cf:40:56:80:ab:5a:c9:c3:d2:a0:a0:3a:41:dd:5d:
                    01:29:bf:4b:af:df:17:8d:a7:f2:da:67:8c:b9:ff:
                    fc:fa:aa:8b:ca:a3:64:d8:82:5a:cc:f7:28:c9:54:
                    da:31:2c:02:c6:52:db:03:41:8b:2d:ab:26:76:d9:
                    a7:64:d2:a4:2b:b0:de:5b:34:35:43:dc:4e:49:e2:
                    c6:1f:86:bb:dc:02:dd:8b:ad:d2:2c:c9:3a:68:fb:
                    f2:35:df:00:ac:db:6f:19:56:1e:09:f5:16:c2:9e:
                    3b:b1:00:25:45:28:dc:06:62:fb:2b:30:fc:1d:0d:
                    e0:f7:a4:55:a2:b2:37:a5:7d:09:1b:ac:a7:7b:e7:
                    d6:0a:de:12:ce:cf:5e:f4:c4:ea:57:9d:da:b6:52:
                    2f:ae:43:c2:07:fa:90:98:48:31:ba:8c:35:94:99:
                    7e:eb:d0:51:5c:fa:51:27:5a:f1:37:dc:90:cb:ee:
                    82:d9:59:02:ab:6a:4a:c8:78:3c:9e:de:7e:a1:5e:
                    57:5c:72:b0:0f:7b:c5:60:fa:2f:48:48:3a:44:e1:
                    19:a1:b5
                Exponent: 65537 (0x10001)
        X509v3 extensions:
            X509v3 Key Usage: critical
                Certificate Sign, CRL Sign
            X509v3 Basic Constraints: critical
                CA:TRUE
            X509v3 Subject Key Identifier: 
                E1:CD:52:A2:03:78:2D:CF:54:5F:D1:4A:2A:76:5F:59:56:01:7F:D9
            X509v3 Authority Key Identifier: 
                keyid:E8:B6:F6:76:4B:D0:3B:E5:46:A5:F9:54:D4:7E:07:B3:DE:0D:60:3E

            Authority Information Access: 
                OCSP - URI:http://ca.someca-inc.com/ocsp
                CA Issuers - URI:http://ca.someca-inc.com/root

            X509v3 Certificate Policies: 
                Policy: X509v3 Any Policy

            X509v3 CRL Distribution Points: 

                Full Name:
                  URI:http://ca.someca-inc.com/crl

    Signature Algorithm: sha256WithRSAEncryption
         59:cb:9b:3a:8d:75:a4:44:fb:c6:4d:aa:f8:cb:8d:96:61:6f:
         1c:20:fd:64:df:76:91:cd:8e:35:6f:d4:a6:a4:b8:d3:62:2c:
         2a:f4:b8:a7:f8:22:f0:6f:72:75:8a:21:2f:a8:6b:00:f9:79:
         09:4c:ef:f1:98:65:38:32:df:ce:e5:1d:af:d0:0f:98:7f:19:
         e0:b9:f5:53:02:b3:bc:ea:fa:08:28:0d:0c:b9:33:f3:81:09:
         8c:f7:5f:1f:60:79:4f:03:89:39:85:c8:a1:49:56:54:b0:bd:
         44:e0:ad:99:fb:b5:eb:38:60:20:80:8b:a6:24:aa:5d:6b:5f:
         73:a3:7c:e4:85:a2:eb:38:f6:76:0c:d1:c2:59:5e:96:e1:d1:
         ae:ce:8b:c2:a7:06:d0:3c:4c:d7:76:ea:02:c3:68:2a:89:e5:
         a8:18:77:c3:fb:83:ac:91:35:b0:cc:1a:88:ad:9e:50:29:d4:
         b8:53:5b:1d:b8:57:33:63:15:7d:45:10:13:d0:82:87:d5:af:
         c6:b1:ed:68:78:0f:5a:e3:da:01:df:12:d1:49:c9:c3:ee:00:
         ed:07:08:84:91:f1:28:ee:71:e1:18:ea:dd:8d:b2:8b:2f:28:
         0d:56:e4:c1:32:1e:ee:16:39:84:58:6c:a9:f0:81:a2:05:6b:
         8c:9d:0c:f1:87:10:d4:77:9d:4b:80:09:a5:17:6f:2f:45:41:
         21:88:ca:3a:6e:85:6d:56:c9:c7:7f:bc:24:ba:5d:22:48:7f:
         18:bc:52:d2:88:b3:7c:d0:7f:8a:c3:09:dd:5b:50:a4:5b:51:
         9f:bb:ca:ea:fa:eb:8a:fa:24:96:d0:03:39:40:a9:4f:73:48:
         23:42:62:13:b1:98:7f:46:40:ba:98:81:a2:51:b4:aa:be:40:
         77:9a:42:39:f2:3f:19:8a:56:4b:a2:a7:8a:6f:0e:21:5d:cd:
         4d:ee:ec:4a:c3:8c:c8:3e:d2:d0:6e:c8:ae:63:82:0a:48:eb:
         35:ba:c0:3b:f0:83:ba:d3:86:b8:df:a7:4d:54:89:3d:1d:dc:
         06:fd:17:71:16:c8:9b:a9:b1:0a:d6:3b:a0:d5:60:21:c8:c2:
         73:74:ff:d7:bc:0b:2d:13:48:ed:c4:1f:bf:ca:1b:2d:e2:2a:
         13:6c:93:82:85:08:cd:66:2f:00:30:24:8e:ba:1e:e0:9e:c9:
         18:67:97:1a:be:4f:4a:93:b1:5f:7c:2f:24:34:aa:22:b6:82:
         28:d3:73:05:42:3a:8c:55:d4:69:2b:6e:6b:c2:46:f9:38:28:
         95:bc:1e:c4:a0:7c:ee:4a:75:3d:d0:40:b8:83:26:35:fe:57:
         05:3c:bc:61:36:b7:4e:3f
-----BEGIN CERTIFICATE-----
MIIGUjCCBDqgAwIBAgIRALdsgXKRZVVTRPBirCEokEswDQYJKoZIhvcNAQELBQAw
SDELMAkGA1UEBhMCWFgxEDAOBgNVBAoTB1NvbWUgQ0ExJzAlBgNVBAMTHkZha2Ug
Um9vdCBDQSBmb3IgemxpbnQgdGVzdGluZzAeFw0yNDA1MDMwODA2NTFaFw0yOTA1
MDIwODA2NTFaMHAxCzAJBgNVBAYTAlhYMRMwEQYDVQQIEwpTb21lIFN0YXRlMRYw
FAYDVQQHEw1Tb21lIExvY2FsaXR5MRAwDgYDVQQKEwdTb21lIENBMSIwIAYDVQQD
ExlGYWtlIENBIGZvciB6bGludCB0ZXN0aW5nMIICIjANBgkqhkiG9w0BAQEFAAOC
Ag8AMIICCgKCAgEAwDClJZrGyhTzV+pW8xTzeAzBgePsbjaNFdXTEVHUBs3biDu9
JIzOVWv3IKkltRqe/36DbtuB+m42YLn0xGSgivz0ILisF0DpcJyGqWd5QhsuN1ta
mYku0QUpclxbyTxpCPQyxUmFhMF106U30Xe0XN506E996VnOz73XdBUhAVdhfdPo
PIwmaEVQPhpWUgRtvDEwpBt5NS5/4rGl/7qNiPHkXpP6vzko976RXpWwY3C76875
+VLdj1Njs80l5ErWLyYs/Al7tNVXt/mr5uJYlV8g5+q6lEXccWDEr4Aj4/RVMUOr
SIjxskLowzxdEpAzzGryrmfP212fxWPCU34yYWDpri+Uop6359cangE9lzsJ2hQD
It8OsQH6hs8U8u4cRd3tRyqzizJtCsLPQFaAq1rJw9KgoDpB3V0BKb9Lr98Xjafy
2meMuf/8+qqLyqNk2IJazPcoyVTaMSwCxlLbA0GLLasmdtmnZNKkK7DeWzQ1Q9xO
SeLGH4a73ALdi63SLMk6aPvyNd8ArNtvGVYeCfUWwp47sQAlRSjcBmL7KzD8HQ3g
96RVorI3pX0JG6yne+fWCt4Szs9e9MTqV53atlIvrkPCB/qQmEgxuow1lJl+69BR
XPpRJ1rxN9yQy+6C2VkCq2pKyHg8nt5+oV5XXHKwD3vFYPovSEg6ROEZobUCAwEA
AaOCAQ0wggEJMA4GA1UdDwEB/wQEAwIBBjAPBgNVHRMBAf8EBTADAQH/MB0GA1Ud
DgQWBBThzVKiA3gtz1Rf0Uoqdl9ZVgF/2TAfBgNVHSMEGDAWgBTotvZ2S9A75Ual
+VTUfgez3g1gPjBkBggrBgEFBQcBAQRYMFYwKQYIKwYBBQUHMAGGHWh0dHA6Ly9j
YS5zb21lY2EtaW5jLmNvbS9vY3NwMCkGCCsGAQUFBzAChh1odHRwOi8vY2Euc29t
ZWNhLWluYy5jb20vcm9vdDARBgNVHSAECjAIMAYGBFUdIAAwLQYDVR0fBCYwJDAi
oCCgHoYcaHR0cDovL2NhLnNvbWVjYS1pbmMuY29tL2NybDANBgkqhkiG9w0BAQsF
AAOCAgEAWcubOo11pET7xk2q+MuNlmFvHCD9ZN92kc2ONW/UpqS402IsKvS4p/gi
8G9ydYohL6hrAPl5CUzv8ZhlODLfzuUdr9APmH8Z4Ln1UwKzvOr6CCgNDLkz84EJ
jPdfH2B5TwOJOYXIoUlWVLC9ROCtmfu16zhgIICLpiSqXWtfc6N85IWi6zj2dgzR
wlleluHRrs6LwqcG0DxM13bqAsNoKonlqBh3w/uDrJE1sMwaiK2eUCnUuFNbHbhX
M2MVfUUQE9CCh9WvxrHtaHgPWuPaAd8S0UnJw+4A7QcIhJHxKO5x4Rjq3Y2yiy8o
DVbkwTIe7hY5hFhsqfCBogVrjJ0M8YcQ1HedS4AJpRdvL0VBIYjKOm6FbVbJx3+8
JLpdIkh/GLxS0oizfNB/isMJ3VtQpFtRn7vK6vrrivokltADOUCpT3NII0JiE7GY
f0ZAupiBolG0qr5Ad5pCOfI/GYpWS6Knim8OIV3NTe7sSsOMyD7S0G7IrmOCCkjr
NbrAO/CDutOGuN+nTVSJPR3cBv0XcRbIm6mxCtY7oNVgIcjCc3T/17wLLRNI7cQf
v8obLeIqE2yTgoUIzWYvADAkjroe4J7JGGeXGr5PSpOxX3wvJDSqIraCKNNzBUI6
jFXUaStua8JG+TgolbwexKB87kp1PdBAuIMmNf5XBTy8YTa3Tj8=
-----END CERTIFICATE-----
