Certificate:
    Data:
        Version: 3 (0x2)
        Serial Number:
            f9:fd:dc:78:68:f0:2a:bd:06:41:3c:b4:75:22:38:56
        Signature Algorithm: sha256WithRSAEncryption
        Issuer: C = XX, O = Some CA, CN = Fake Root CA for zlint testing
        Validity
            Not Before: May  3 07:58:38 2024 GMT
            Not After : May  2 07:58:38 2029 GMT
        Subject: C = XX, ST = Some State, L = Some Locality, O = Some CA, CN = Fake CA for zlint testing
        Subject Public Key Info:
            Public Key Algorithm: rsaEncryption
                RSA Public-Key: (4096 bit)
                Modulus:
                    00:ae:b2:90:5e:b1:1d:8f:85:59:c4:fc:c4:7d:3d:
                    93:37:a4:87:28:ac:6e:2a:a2:b6:9b:07:62:56:88:
                    e6:a1:fd:04:a4:cc:0e:b7:80:7c:08:83:7f:ea:08:
                    a9:8c:57:7d:18:3b:b6:eb:32:3d:97:7e:5b:1f:06:
                    94:93:ec:a8:96:33:9b:47:8c:45:5b:13:e3:90:6b:
                    87:a6:3a:ab:c3:59:90:7d:26:7e:70:1b:5d:73:0c:
                    40:6d:42:bb:3f:3d:5e:c0:10:d6:d3:6e:45:a5:e6:
                    cd:5e:74:99:f2:7b:08:dd:54:11:aa:58:95:68:64:
                    7b:b9:9f:2a:ed:61:b8:e0:80:1a:be:b9:a7:44:1b:
                    2c:1e:e2:08:ea:76:87:d3:bf:81:d6:64:be:e8:13:
                    a2:d4:a7:a8:23:1f:1e:bc:15:c4:c8:89:4a:40:82:
                    eb:56:a8:d2:bc:13:e2:97:bf:fb:66:9c:41:96:5b:
                    3f:42:bf:e4:49:32:08:1b:62:5a:29:ac:39:d8:c1:
                    eb:64:1b:2a:bf:5a:e9:48:12:57:7d:17:09:de:93:
                    53:0c:e0:14:6a:91:49:0f:c1:ed:f6:5a:f0:4b:80:
                    90:f3:8b:b5:0d:22:92:12:c1:4f:a0:95:ca:e9:80:
                    52:c3:cf:ce:ea:46:20:18:92:4a:9a:35:61:7c:71:
                    11:21:6d:43:97:0c:2e:20:d8:78:05:35:b4:f9:c7:
                    ad:3c:56:8f:2c:b0:bb:f1:dc:d8:49:a8:04:79:0f:
                    93:a0:a7:98:65:ec:12:90:16:ce:e9:f1:56:13:ef:
                    7d:e4:a7:c6:99:92:e2:b9:50:66:5d:22:59:a1:8f:
                    2b:58:ab:eb:4a:84:dd:61:14:41:e7:fc:85:db:d5:
                    00:b8:88:f8:c9:4c:53:8f:50:2e:2d:97:21:2f:30:
                    66:32:0a:42:8a:ab:46:1c:a7:94:df:6a:c0:23:34:
                    28:4a:1b:50:ff:5f:4b:5a:7b:90:d2:71:59:39:22:
                    2f:53:84:9d:91:9b:44:3f:59:df:dc:a7:ae:1c:e9:
                    c6:28:b0:24:45:29:28:79:5c:78:d3:d1:32:0f:d9:
                    a7:68:b2:31:9b:fc:07:55:72:e8:6b:38:e7:c4:09:
                    ce:e9:55:c2:96:f8:e3:31:71:6e:bc:87:36:22:ad:
                    b8:e0:99:ef:20:68:65:9d:07:16:d6:11:a6:90:76:
                    71:b6:b8:2c:19:63:f0:ce:6e:7f:f8:ae:76:7f:84:
                    e5:46:be:bd:2f:c1:69:4d:2e:6f:10:28:65:e9:f2:
                    02:60:5f:f8:a9:38:28:2c:b0:cd:17:c5:1e:30:49:
                    0f:42:f9:01:44:56:bf:d7:a2:9c:f2:d9:f0:74:c3:
                    6d:94:0b
                Exponent: 65537 (0x10001)
        X509v3 extensions:
            X509v3 Key Usage: critical
                Certificate Sign, CRL Sign
            X509v3 Extended Key Usage: 
                TLS Web Client Authentication, TLS Web Server Authentication, E-mail Protection
            X509v3 Basic Constraints: critical
                CA:TRUE
            X509v3 Subject Key Identifier: 
                BF:37:A4:36:84:22:BC:0E:B4:A5:3A:4D:3E:91:A8:EF:0D:85:A8:46
            X509v3 Authority Key Identifier: 
                keyid:E8:B6:F6:76:4B:D0:3B:E5:46:A5:F9:54:D4:7E:07:B3:DE:0D:60:3E

            Authority Information Access: 
                OCSP - URI:http://ca.someca-inc.com/ocsp
                CA Issuers - URI:http://ca.someca-inc.com/root

            X509v3 Certificate Policies: 
                Policy: X509v3 Any Policy

            X509v3 CRL Distribution Points: 

                Full Name:
                  URI:http://ca.someca-inc.com/crl

    Signature Algorithm: sha256WithRSAEncryption
         59:b6:41:b9:58:84:45:2d:ff:2e:b6:d9:e7:27:c6:38:d9:77:
         1f:40:86:d8:0a:24:88:6f:f1:35:08:4c:64:d7:ff:63:23:5c:
         8e:a3:5a:88:97:60:f3:64:4d:72:c3:41:9a:63:a7:58:0a:d1:
         9f:90:c0:1d:6a:a7:68:45:28:a4:6b:42:2d:db:44:63:dc:48:
         9c:93:ad:ce:d3:a1:4a:22:e7:c7:03:f2:8f:9d:6d:92:db:49:
         be:5c:19:e1:59:f2:d8:56:4c:4a:a4:7f:4d:a3:92:df:65:26:
         b5:30:45:40:39:73:75:ac:50:3e:c7:b5:21:60:2a:4b:39:87:
         e0:29:e5:53:39:98:16:85:6b:e0:f5:5f:aa:31:d7:ae:56:97:
         4e:d6:d2:3f:ae:c1:3c:c6:38:68:19:0e:84:cc:27:a3:75:f3:
         97:46:e0:24:e8:f1:2d:26:1c:16:92:eb:71:36:22:c9:58:53:
         f7:25:09:9a:53:0f:8f:28:fb:01:1e:41:4e:0c:66:20:d1:8a:
         d5:85:c7:76:f1:86:62:d7:dc:20:d1:d5:3f:16:ff:d1:55:41:
         f5:1e:f4:a5:bb:4a:d4:a8:b9:ed:88:82:da:e4:64:62:8d:90:
         8b:53:1f:64:87:3b:99:5e:0d:74:1a:63:52:5d:4c:1e:23:50:
         2a:dc:9a:10:93:9b:df:dd:45:ac:36:02:15:a7:45:96:46:8b:
         b8:23:ef:1c:5d:d5:55:a7:42:18:6c:42:f1:4d:8a:f9:f1:87:
         7c:e0:8f:79:ee:85:5b:f7:f7:4f:6a:d4:8f:bd:90:b3:24:55:
         70:d9:33:bf:5c:45:16:28:67:6e:e5:9e:17:84:c0:a8:85:fa:
         43:d2:f1:27:15:c5:52:c5:a5:c0:57:9d:d4:e6:7c:36:f2:c5:
         44:cb:f3:96:96:cf:a5:6a:4d:dd:4f:3c:ad:2e:1c:54:cb:73:
         f4:31:48:50:c4:97:78:2e:9c:5d:be:c3:cc:a0:0d:18:a1:86:
         2e:a8:e4:04:69:32:10:4e:8a:c8:79:34:b1:3f:7b:54:fc:5f:
         38:7c:c5:cf:57:2b:c2:32:04:a2:76:9c:f4:25:b0:56:f6:eb:
         78:bb:dc:65:c9:30:d9:6c:80:39:d9:2d:2c:15:3b:d5:0c:b9:
         ea:73:d2:0d:a5:34:b7:7c:c0:1a:89:83:18:b6:58:8a:b7:0c:
         1b:95:6a:c9:85:b9:da:b7:26:ef:4a:ce:16:ff:5f:82:e0:34:
         22:a0:f7:45:63:5a:2b:ce:aa:7c:f1:b8:1c:0d:16:3f:2c:d2:
         1e:4b:73:8c:53:51:59:85:c8:04:93:03:a9:4d:4e:7d:0f:2a:
         ab:12:ab:b3:d4:c9:11:5c
-----BEGIN CERTIFICATE-----
MIIGezCCBGOgAwIBAgIRAPn93Hho8Cq9BkE8tHUiOFYwDQYJKoZIhvcNAQELBQAw
SDELMAkGA1UEBhMCWFgxEDAOBgNVBAoTB1NvbWUgQ0ExJzAlBgNVBAMTHkZha2Ug
Um9vdCBDQSBmb3IgemxpbnQgdGVzdGluZzAeFw0yNDA1MDMwNzU4MzhaFw0yOTA1
MDIwNzU4MzhaMHAxCzAJBgNVBAYTAlhYMRMwEQYDVQQIEwpTb21lIFN0YXRlMRYw
FAYDVQQHEw1Tb21lIExvY2FsaXR5MRAwDgYDVQQKEwdTb21lIENBMSIwIAYDVQQD
ExlGYWtlIENBIGZvciB6bGludCB0ZXN0aW5nMIICIjANBgkqhkiG9w0BAQEFAAOC
Ag8AMIICCgKCAgEArrKQXrEdj4VZxPzEfT2TN6SHKKxuKqK2mwdiVojmof0EpMwO
t4B8CIN/6gipjFd9GDu26zI9l35bHwaUk+yoljObR4xFWxPjkGuHpjqrw1mQfSZ+
cBtdcwxAbUK7Pz1ewBDW025FpebNXnSZ8nsI3VQRqliVaGR7uZ8q7WG44IAavrmn
RBssHuII6naH07+B1mS+6BOi1KeoIx8evBXEyIlKQILrVqjSvBPil7/7ZpxBlls/
Qr/kSTIIG2JaKaw52MHrZBsqv1rpSBJXfRcJ3pNTDOAUapFJD8Ht9lrwS4CQ84u1
DSKSEsFPoJXK6YBSw8/O6kYgGJJKmjVhfHERIW1DlwwuINh4BTW0+cetPFaPLLC7
8dzYSagEeQ+ToKeYZewSkBbO6fFWE+995KfGmZLiuVBmXSJZoY8rWKvrSoTdYRRB
5/yF29UAuIj4yUxTj1AuLZchLzBmMgpCiqtGHKeU32rAIzQoShtQ/19LWnuQ0nFZ
OSIvU4SdkZtEP1nf3KeuHOnGKLAkRSkoeVx409EyD9mnaLIxm/wHVXLoazjnxAnO
6VXClvjjMXFuvIc2Iq244JnvIGhlnQcW1hGmkHZxtrgsGWPwzm5/+K52f4TlRr69
L8FpTS5vEChl6fICYF/4qTgoLLDNF8UeMEkPQvkBRFa/16Kc8tnwdMNtlAsCAwEA
AaOCATYwggEyMA4GA1UdDwEB/wQEAwIBBjAnBgNVHSUEIDAeBggrBgEFBQcDAgYI
KwYBBQUHAwEGCCsGAQUFBwMEMA8GA1UdEwEB/wQFMAMBAf8wHQYDVR0OBBYEFL83
pDaEIrwOtKU6TT6RqO8NhahGMB8GA1UdIwQYMBaAFOi29nZL0DvlRqX5VNR+B7Pe
DWA+MGQGCCsGAQUFBwEBBFgwVjApBggrBgEFBQcwAYYdaHR0cDovL2NhLnNvbWVj
YS1pbmMuY29tL29jc3AwKQYIKwYBBQUHMAKGHWh0dHA6Ly9jYS5zb21lY2EtaW5j
LmNvbS9yb290MBEGA1UdIAQKMAgwBgYEVR0gADAtBgNVHR8EJjAkMCKgIKAehhxo
dHRwOi8vY2Euc29tZWNhLWluYy5jb20vY3JsMA0GCSqGSIb3DQEBCwUAA4ICAQBZ
tkG5WIRFLf8uttnnJ8Y42XcfQIbYCiSIb/E1CExk1/9jI1yOo1qIl2DzZE1yw0Ga
Y6dYCtGfkMAdaqdoRSika0It20Rj3Eick63O06FKIufHA/KPnW2S20m+XBnhWfLY
VkxKpH9No5LfZSa1MEVAOXN1rFA+x7UhYCpLOYfgKeVTOZgWhWvg9V+qMdeuVpdO
1tI/rsE8xjhoGQ6EzCejdfOXRuAk6PEtJhwWkutxNiLJWFP3JQmaUw+PKPsBHkFO
DGYg0YrVhcd28YZi19wg0dU/Fv/RVUH1HvSlu0rUqLntiILa5GRijZCLUx9khzuZ
Xg10GmNSXUweI1Aq3JoQk5vf3UWsNgIVp0WWRou4I+8cXdVVp0IYbELxTYr58Yd8
4I957oVb9/dPatSPvZCzJFVw2TO/XEUWKGdu5Z4XhMCohfpD0vEnFcVSxaXAV53U
5nw28sVEy/OWls+lak3dTzytLhxUy3P0MUhQxJd4LpxdvsPMoA0YoYYuqOQEaTIQ
TorIeTSxP3tU/F84fMXPVyvCMgSidpz0JbBW9ut4u9xlyTDZbIA52S0sFTvVDLnq
c9INpTS3fMAaiYMYtliKtwwblWrJhbnatybvSs4W/1+C4DQioPdFY1orzqp88bgc
DRY/LNIeS3OMU1FZhcgEkwOpTU59DyqrEquz1MkRXA==
-----END CERTIFICATE-----
