Certificate:
    Data:
        Version: 3 (0x2)
        Serial Number:
            5d:96:06:e1:0e:82:f5:0f:b4:b0:94:a8:57:6e:52:d0
        Signature Algorithm: sha256WithRSAEncryption
        Issuer: C = XX, O = Some CA, CN = Fake Root CA for zlint testing
        Validity
            Not Before: May  3 08:12:30 2024 GMT
            Not After : May  2 08:12:30 2029 GMT
        Subject: C = XX, ST = Some State, L = Some Locality, O = Some CA, CN = Fake CA for zlint testing
        Subject Public Key Info:
            Public Key Algorithm: rsaEncryption
                RSA Public-Key: (4096 bit)
                Modulus:
                    00:98:31:21:d2:be:56:cf:d8:c0:67:e4:0b:62:94:
                    31:df:3d:2d:f7:7a:e7:de:ed:5c:51:bc:2c:f4:c3:
                    9e:21:63:8e:2a:a1:2c:45:0b:69:b4:0a:d7:33:ac:
                    29:35:4d:e9:2a:d9:d9:97:63:36:48:b7:6d:3e:81:
                    41:30:fb:77:33:6c:77:1f:c9:01:48:d4:ac:d3:1a:
                    8d:95:5f:b7:50:90:75:33:7d:c8:80:76:a8:a6:d7:
                    50:b7:e0:68:cd:e6:33:70:bf:cf:75:48:39:c7:ff:
                    04:54:d6:a3:11:02:cb:6d:12:07:8b:8f:96:39:81:
                    6a:6b:9e:ca:d8:8a:84:dc:70:35:b4:c6:36:05:6c:
                    77:29:26:86:07:fc:5d:c8:70:2d:19:6d:c1:bb:04:
                    c6:ca:07:94:05:54:71:12:4a:41:7c:0d:cf:e8:ad:
                    38:ff:8f:7c:30:3e:9b:c6:7c:bc:c2:09:00:c8:5d:
                    1f:9b:75:e7:74:3b:8e:94:d6:c4:e4:35:c8:51:28:
                    18:b9:d7:57:34:6e:1e:df:7d:6e:7d:7c:1c:6d:36:
                    b6:9e:da:09:a1:4a:63:17:18:58:dc:63:ba:aa:b3:
                    d4:5b:62:68:9c:51:b0:3d:9d:77:fc:20:d0:5d:d6:
                    aa:ee:0a:e3:c8:a5:50:1f:ff:33:5a:39:bd:41:c5:
                    7e:94:2f:46:da:f0:d9:5d:aa:49:53:41:81:62:26:
                    ee:42:de:d6:1e:aa:3d:34:72:84:ea:9a:64:7c:40:
                    e7:37:96:08:40:2e:ea:b2:e9:09:b3:9c:63:bf:28:
                    23:dc:3b:e3:b2:a3:db:e9:28:51:94:43:59:43:1e:
                    f7:9c:ef:4d:fb:cf:5c:8f:aa:07:c3:b0:05:91:1b:
                    f8:31:48:9b:a3:9f:df:b1:b5:b3:9a:5e:ac:54:2a:
                    c5:f4:30:4f:2a:f6:63:a3:7d:3e:70:ca:1c:de:b5:
                    ea:82:13:58:be:da:4d:80:e7:2f:85:9b:b5:90:43:
                    24:8a:de:0f:fa:47:d1:bf:a5:3f:f6:a9:22:91:04:
                    cb:df:44:85:45:c3:e0:80:b8:01:f2:35:cf:e3:18:
                    b7:1c:ac:1d:f1:41:14:68:d0:7a:ff:c6:aa:7c:6e:
                    18:98:21:21:ac:a0:a8:4f:35:33:8e:35:76:f7:5f:
                    6c:cd:cc:f6:95:8a:3f:ab:28:5e:2e:ea:1e:0f:66:
                    d8:4c:1b:b3:a9:be:c6:4b:cf:7f:70:eb:70:f0:f2:
                    38:bd:f7:ab:2e:dc:96:87:a3:11:6c:d3:f4:b9:71:
                    a1:c4:66:ed:8f:d1:7b:67:ad:34:f4:78:46:31:0c:
                    4d:8a:6a:8d:a1:1c:f6:f1:35:3a:43:9d:03:ca:58:
                    57:4b:73
                Exponent: 65537 (0x10001)
        X509v3 extensions:
            X509v3 Key Usage: critical
                Certificate Sign, CRL Sign
            X509v3 Extended Key Usage: 
                Any Extended Key Usage
            X509v3 Basic Constraints: critical
                CA:TRUE
            X509v3 Subject Key Identifier: 
                80:0E:21:A8:A5:FF:51:55:F0:CA:6F:8F:8C:76:96:F0:62:08:81:7C
            X509v3 Authority Key Identifier: 
                keyid:E8:B6:F6:76:4B:D0:3B:E5:46:A5:F9:54:D4:7E:07:B3:DE:0D:60:3E

            Authority Information Access: 
                OCSP - URI:http://ca.someca-inc.com/ocsp
                CA Issuers - URI:http://ca.someca-inc.com/root

            X509v3 Certificate Policies: 
                Policy: X509v3 Any Policy

            X509v3 CRL Distribution Points: 

                Full Name:
                  URI:http://ca.someca-inc.com/crl

    Signature Algorithm: sha256WithRSAEncryption
         62:7f:9c:ab:20:e4:f2:a4:a4:69:fc:8d:09:a3:08:83:af:ad:
         66:78:68:e3:24:55:5b:e1:46:33:b4:20:34:5c:67:a5:b4:16:
         55:16:8b:97:d9:ec:5c:ce:fc:4b:37:35:bb:61:39:e2:10:fd:
         f2:b9:cb:83:6f:f6:8c:ba:cf:9f:0a:c5:b0:7b:ad:10:f7:a9:
         e5:39:1e:2f:3b:1b:44:dd:d3:e5:4a:5a:57:4b:bb:94:c2:20:
         3e:22:1d:b2:9a:89:46:6e:36:71:29:bf:2f:80:9f:39:e2:87:
         d7:97:7e:1b:a6:27:50:41:b8:94:f7:4d:05:0f:fe:ba:fc:7d:
         6b:3a:61:42:cd:0b:79:47:ee:a8:26:6c:ed:d9:f0:83:72:8a:
         d1:92:7c:19:4e:35:ef:74:42:a2:3d:15:8a:9c:92:5c:22:24:
         a7:3f:df:76:9e:dc:c1:2c:89:44:88:91:0c:a0:7e:4b:b0:4b:
         2e:bd:47:de:94:f9:45:31:24:51:58:11:ac:46:de:d6:5e:72:
         34:a3:23:a5:cc:db:ff:7d:5b:f9:d6:f8:ed:d3:ec:74:77:4a:
         b6:09:95:af:13:8f:df:48:95:f7:18:90:ce:79:8b:07:62:f9:
         3d:9e:8a:51:62:0f:0c:b6:d5:79:4d:05:41:97:96:c7:e1:f5:
         7b:c6:ff:7f:99:d0:df:c9:46:06:37:af:50:35:b3:94:18:20:
         8b:3c:0e:2b:e9:4f:04:04:d9:a9:f8:2c:f3:72:b5:63:ba:18:
         ee:f6:2e:6d:21:e4:4f:04:b5:93:80:ef:1d:51:0a:b3:58:5b:
         95:27:ad:01:0f:da:6e:36:81:93:9b:1d:7c:9e:45:84:9a:10:
         eb:e9:85:5e:59:76:b2:dc:6b:2d:22:9c:88:ab:6c:30:52:c7:
         01:07:79:71:45:89:71:41:85:1f:45:63:aa:ea:c3:eb:c1:4f:
         3b:c0:68:db:e7:98:ea:37:2d:19:d6:0e:0b:fb:71:01:1d:76:
         14:68:be:37:7c:cc:0f:17:6b:58:bc:2a:ed:5a:fa:70:cd:f8:
         67:b1:69:43:75:73:66:f9:9f:c1:72:54:43:d5:4c:7f:34:da:
         29:fe:b8:64:15:5f:26:09:5f:7c:0c:23:b3:a9:ec:75:e5:39:
         a4:e8:7c:67:f4:99:b6:27:80:7d:ff:6d:5a:01:b2:18:c1:9e:
         7c:1a:2a:9d:e1:5f:33:f9:48:b1:29:5e:46:30:62:94:08:c8:
         51:77:a0:45:28:3e:02:02:95:7f:3d:fb:f5:7b:1c:04:4f:62:
         d1:c7:21:90:02:f6:70:cf:64:23:d9:31:a6:4f:be:f9:90:a2:
         e7:d1:fe:c5:83:5b:43:8b
-----BEGIN CERTIFICATE-----
MIIGYjCCBEqgAwIBAgIQXZYG4Q6C9Q+0sJSoV25S0DANBgkqhkiG9w0BAQsFADBI
MQswCQYDVQQGEwJYWDEQMA4GA1UEChMHU29tZSBDQTEnMCUGA1UEAxMeRmFrZSBS
b290IENBIGZvciB6bGludCB0ZXN0aW5nMB4XDTI0MDUwMzA4MTIzMFoXDTI5MDUw
MjA4MTIzMFowcDELMAkGA1UEBhMCWFgxEzARBgNVBAgTClNvbWUgU3RhdGUxFjAU
BgNVBAcTDVNvbWUgTG9jYWxpdHkxEDAOBgNVBAoTB1NvbWUgQ0ExIjAgBgNVBAMT
GUZha2UgQ0EgZm9yIHpsaW50IHRlc3RpbmcwggIiMA0GCSqGSIb3DQEBAQUAA4IC
DwAwggIKAoICAQCYMSHSvlbP2MBn5AtilDHfPS33eufe7VxRvCz0w54hY44qoSxF
C2m0CtczrCk1Tekq2dmXYzZIt20+gUEw+3czbHcfyQFI1KzTGo2VX7dQkHUzfciA
dqim11C34GjN5jNwv891SDnH/wRU1qMRAsttEgeLj5Y5gWprnsrYioTccDW0xjYF
bHcpJoYH/F3IcC0ZbcG7BMbKB5QFVHESSkF8Dc/orTj/j3wwPpvGfLzCCQDIXR+b
ded0O46U1sTkNchRKBi511c0bh7ffW59fBxtNrae2gmhSmMXGFjcY7qqs9RbYmic
UbA9nXf8INBd1qruCuPIpVAf/zNaOb1BxX6UL0ba8NldqklTQYFiJu5C3tYeqj00
coTqmmR8QOc3lghALuqy6QmznGO/KCPcO+Oyo9vpKFGUQ1lDHvec7037z1yPqgfD
sAWRG/gxSJujn9+xtbOaXqxUKsX0ME8q9mOjfT5wyhzeteqCE1i+2k2A5y+Fm7WQ
QySK3g/6R9G/pT/2qSKRBMvfRIVFw+CAuAHyNc/jGLccrB3xQRRo0Hr/xqp8bhiY
ISGsoKhPNTOONXb3X2zNzPaVij+rKF4u6h4PZthMG7OpvsZLz39w63Dw8ji996su
3JaHoxFs0/S5caHEZu2P0XtnrTT0eEYxDE2Kao2hHPbxNTpDnQPKWFdLcwIDAQAB
o4IBHjCCARowDgYDVR0PAQH/BAQDAgEGMA8GA1UdJQQIMAYGBFUdJQAwDwYDVR0T
AQH/BAUwAwEB/zAdBgNVHQ4EFgQUgA4hqKX/UVXwym+PjHaW8GIIgXwwHwYDVR0j
BBgwFoAU6Lb2dkvQO+VGpflU1H4Hs94NYD4wZAYIKwYBBQUHAQEEWDBWMCkGCCsG
AQUFBzABhh1odHRwOi8vY2Euc29tZWNhLWluYy5jb20vb2NzcDApBggrBgEFBQcw
AoYdaHR0cDovL2NhLnNvbWVjYS1pbmMuY29tL3Jvb3QwEQYDVR0gBAowCDAGBgRV
HSAAMC0GA1UdHwQmMCQwIqAgoB6GHGh0dHA6Ly9jYS5zb21lY2EtaW5jLmNvbS9j
cmwwDQYJKoZIhvcNAQELBQADggIBAGJ/nKsg5PKkpGn8jQmjCIOvrWZ4aOMkVVvh
RjO0IDRcZ6W0FlUWi5fZ7FzO/Es3NbthOeIQ/fK5y4Nv9oy6z58KxbB7rRD3qeU5
Hi87G0Td0+VKWldLu5TCID4iHbKaiUZuNnEpvy+Anznih9eXfhumJ1BBuJT3TQUP
/rr8fWs6YULNC3lH7qgmbO3Z8INyitGSfBlONe90QqI9FYqcklwiJKc/33ae3MEs
iUSIkQygfkuwSy69R96U+UUxJFFYEaxG3tZecjSjI6XM2/99W/nW+O3T7HR3SrYJ
la8Tj99IlfcYkM55iwdi+T2eilFiDwy21XlNBUGXlsfh9XvG/3+Z0N/JRgY3r1A1
s5QYIIs8DivpTwQE2an4LPNytWO6GO72Lm0h5E8EtZOA7x1RCrNYW5UnrQEP2m42
gZObHXyeRYSaEOvphV5ZdrLcay0inIirbDBSxwEHeXFFiXFBhR9FY6rqw+vBTzvA
aNvnmOo3LRnWDgv7cQEddhRovjd8zA8Xa1i8Ku1a+nDN+GexaUN1c2b5n8FyVEPV
TH802in+uGQVXyYJX3wMI7Op7HXlOaTofGf0mbYngH3/bVoBshjBnnwaKp3hXzP5
SLEpXkYwYpQIyFF3oEUoPgIClX89+/V7HARPYtHHIZAC9nDPZCPZMaZPvvmQoufR
/sWDW0OL
-----END CERTIFICATE-----
