Certificate:
    Data:
        Version: 3 (0x2)
        Serial Number:
            1f:af:ea:65:1e:59:fe:3f:75:1d:8c:10:15:7a:af:f1
        Signature Algorithm: sha256WithRSAEncryption
        Issuer: C = XX, O = Some CA, CN = Fake Root CA for zlint testing
        Validity
            Not Before: May  3 08:55:53 2024 GMT
            Not After : May  2 08:55:53 2029 GMT
        Subject: C = XX, ST = Some State, L = Some Locality, O = Some CA, CN = Fake CA for zlint testing
        Subject Public Key Info:
            Public Key Algorithm: rsaEncryption
                RSA Public-Key: (4096 bit)
                Modulus:
                    00:b4:3f:2c:a3:61:fb:7f:25:d1:2c:1a:93:4c:26:
                    ca:27:22:0e:98:37:67:67:5d:6e:7b:b0:f4:c1:0b:
                    a4:95:81:ac:19:ea:34:f9:83:c8:fe:f6:b6:ac:75:
                    56:a5:cd:ff:d4:8a:6f:1d:ef:31:d7:4f:b1:38:03:
                    29:80:bf:49:22:a6:13:ec:b0:b6:37:db:29:67:a6:
                    29:ec:1e:7c:c7:d5:20:c8:dc:b3:59:78:1c:d7:f7:
                    3d:a0:6c:2c:aa:b8:8e:bf:59:4b:b7:4f:2f:eb:e8:
                    74:c2:a7:9b:5c:7f:90:20:42:d3:09:f2:f6:66:c9:
                    b8:ec:23:98:93:c1:a7:88:98:d3:ff:13:4b:20:24:
                    25:38:97:0a:fa:dc:66:1f:18:fd:89:77:ae:c8:f0:
                    1e:75:7a:33:78:44:cf:84:a0:d2:6a:92:3e:58:7b:
                    3e:74:b9:8c:da:c2:8d:0b:a2:ab:1b:68:5a:fd:3c:
                    cc:30:27:de:75:3d:29:f7:33:aa:b0:3c:60:9a:c9:
                    c5:fb:66:8c:70:3d:18:84:de:99:75:ef:b4:3c:9f:
                    87:db:03:3c:f4:44:e6:33:d2:d8:d1:bb:7c:33:8d:
                    3d:c1:9f:e2:4e:de:9d:de:35:eb:7c:49:56:e1:97:
                    91:d1:9e:f4:71:0c:85:1e:ba:2b:b9:14:92:eb:4d:
                    ea:2d:49:fe:fe:54:15:96:51:2a:9f:76:6d:03:92:
                    61:d8:2d:a4:c8:09:18:be:ca:9a:f2:06:d6:35:6e:
                    ed:05:af:e5:c5:ed:c5:9f:1a:5e:c4:45:75:f5:0e:
                    57:6e:f0:1e:1e:fa:c3:fa:fb:33:2d:8a:84:18:aa:
                    03:cc:db:78:b3:2f:c1:7c:62:e0:1d:ea:9b:41:d2:
                    30:94:4a:7d:63:09:74:75:a8:bb:57:a1:54:41:8e:
                    a3:18:07:af:b0:69:fb:fc:30:66:c8:2b:06:cd:8b:
                    33:36:4a:2c:0c:1f:75:e0:fb:d0:ae:19:67:23:11:
                    22:d9:f4:3e:56:cd:41:03:5e:22:69:6a:69:c2:83:
                    3a:f8:28:51:87:60:7d:c3:bc:04:00:18:b4:48:28:
                    df:5c:ee:0a:1a:c5:3f:54:4e:5b:53:04:b3:e9:8f:
                    3f:52:c1:2c:eb:a2:34:81:b2:48:b5:91:43:c2:84:
                    b5:f2:c4:90:12:9e:9d:ba:8b:fa:39:80:24:41:b4:
                    3a:44:62:6e:00:fd:ac:e3:db:48:71:d0:1a:eb:c8:
                    a2:b0:29:59:94:bd:d2:8d:5b:31:fa:16:7b:9a:03:
                    d9:33:a0:fb:68:72:0b:39:e0:62:57:d0:0d:71:bc:
                    03:11:ed:6d:4f:74:7d:5b:22:f1:ec:80:80:43:af:
                    60:b4:55
                Exponent: 65537 (0x10001)
        X509v3 extensions:
            X509v3 Key Usage: critical
                Certificate Sign, CRL Sign
            X509v3 Extended Key Usage: 
                Any Extended Key Usage, E-mail Protection
            X509v3 Basic Constraints: critical
                CA:TRUE
            X509v3 Subject Key Identifier: 
                10:08:8D:17:A7:90:14:FF:AD:0C:17:1C:2B:CF:63:3F:BA:9B:5A:E9
            X509v3 Authority Key Identifier: 
                keyid:E8:B6:F6:76:4B:D0:3B:E5:46:A5:F9:54:D4:7E:07:B3:DE:0D:60:3E

            Authority Information Access: 
                OCSP - URI:http://ca.someca-inc.com/ocsp
                CA Issuers - URI:http://ca.someca-inc.com/root

            X509v3 Certificate Policies: 
                Policy: X509v3 Any Policy

            X509v3 CRL Distribution Points: 

                Full Name:
                  URI:http://ca.someca-inc.com/crl

    Signature Algorithm: sha256WithRSAEncryption
         9d:b4:3d:00:02:2b:bc:01:b2:f9:6f:d0:5b:b2:77:dd:62:d6:
         05:6c:a2:f0:2d:f5:b0:87:9c:7e:61:be:26:7c:3c:73:40:70:
         03:7c:75:08:e6:e3:8f:a3:c7:87:72:70:0f:3d:64:20:e6:85:
         8d:27:93:f5:3e:9a:9d:7b:01:d8:ce:12:3f:e9:3d:c1:74:7c:
         61:d1:10:4b:52:3d:42:bb:36:1d:56:cc:67:09:fc:da:e1:2b:
         a5:0e:81:de:b8:66:2e:11:5c:78:dc:7e:dc:76:e0:9f:f8:0b:
         52:23:aa:d0:95:b6:1d:33:7c:fd:5b:f3:61:61:84:43:4b:66:
         60:2b:39:3a:02:40:a1:5e:78:36:ef:1b:0c:e5:06:2d:f4:1b:
         4d:fc:0b:60:5a:1b:32:0f:9e:ec:d2:92:98:69:6a:89:d1:1e:
         9e:ad:26:06:b3:8a:9f:8e:c1:b7:14:6d:5e:89:45:6a:c8:a9:
         fa:9f:52:68:8d:ee:38:0c:d5:54:3b:c5:09:5b:44:cc:64:cc:
         ce:07:9d:a6:a4:d9:0a:11:f6:5c:74:90:e8:c4:b0:1d:ce:de:
         7a:aa:ef:c5:f5:74:9a:72:a7:9c:65:06:d8:ce:fd:98:0f:df:
         ec:1d:8c:32:0d:30:5d:87:80:60:cf:84:99:0c:2a:17:35:dd:
         2c:84:03:5d:bc:84:13:f2:6c:d2:fb:97:73:e9:7f:35:f7:7f:
         f5:b8:7e:0f:1b:3d:fa:ce:30:8d:4e:0b:25:6d:5e:f6:e0:a0:
         22:63:aa:84:03:f3:74:8d:45:e3:cd:bd:fb:da:c7:05:cf:18:
         e8:ce:88:36:d7:6b:6a:88:40:a1:0a:0e:9f:f8:da:84:38:b0:
         c6:e7:b8:6f:2b:d5:29:42:f9:dc:2c:38:e7:30:16:19:13:64:
         d2:99:7e:ba:61:ca:0f:f0:6b:ad:7f:0e:cb:40:fe:9e:b6:ae:
         bc:7c:4c:cf:3c:34:57:fd:1b:1e:a8:70:b9:f9:01:27:f1:02:
         ee:3f:5d:62:78:90:f8:94:6b:de:23:c5:ba:fa:af:56:c3:2a:
         01:83:f2:4d:c5:b7:81:45:d6:fd:38:64:3e:55:51:af:4f:ce:
         97:0b:8f:bc:c9:a0:90:34:18:3a:36:06:a9:b5:d9:dd:3a:f8:
         ab:ae:85:10:36:45:5b:29:ac:5d:93:29:99:c5:07:63:e7:c8:
         95:64:50:1f:9d:13:88:62:c8:86:f7:10:fe:cb:6c:ae:71:f1:
         68:33:77:7b:95:85:44:ad:da:ed:8f:47:6d:94:a0:98:de:d8:
         89:e9:11:94:21:17:68:af:e4:e1:9e:f2:96:8f:6c:db:07:50:
         52:89:c6:61:e8:05:61:2d
-----BEGIN CERTIFICATE-----
MIIGbDCCBFSgAwIBAgIQH6/qZR5Z/j91HYwQFXqv8TANBgkqhkiG9w0BAQsFADBI
MQswCQYDVQQGEwJYWDEQMA4GA1UEChMHU29tZSBDQTEnMCUGA1UEAxMeRmFrZSBS
b290IENBIGZvciB6bGludCB0ZXN0aW5nMB4XDTI0MDUwMzA4NTU1M1oXDTI5MDUw
MjA4NTU1M1owcDELMAkGA1UEBhMCWFgxEzARBgNVBAgTClNvbWUgU3RhdGUxFjAU
BgNVBAcTDVNvbWUgTG9jYWxpdHkxEDAOBgNVBAoTB1NvbWUgQ0ExIjAgBgNVBAMT
GUZha2UgQ0EgZm9yIHpsaW50IHRlc3RpbmcwggIiMA0GCSqGSIb3DQEBAQUAA4IC
DwAwggIKAoICAQC0PyyjYft/JdEsGpNMJsonIg6YN2dnXW57sPTBC6SVgawZ6jT5
g8j+9rasdValzf/Uim8d7zHXT7E4AymAv0kiphPssLY32ylnpinsHnzH1SDI3LNZ
eBzX9z2gbCyquI6/WUu3Ty/r6HTCp5tcf5AgQtMJ8vZmybjsI5iTwaeImNP/E0sg
JCU4lwr63GYfGP2Jd67I8B51ejN4RM+EoNJqkj5Yez50uYzawo0LoqsbaFr9PMww
J951PSn3M6qwPGCaycX7ZoxwPRiE3pl177Q8n4fbAzz0ROYz0tjRu3wzjT3Bn+JO
3p3eNet8SVbhl5HRnvRxDIUeuiu5FJLrTeotSf7+VBWWUSqfdm0DkmHYLaTICRi+
ypryBtY1bu0Fr+XF7cWfGl7ERXX1Dldu8B4e+sP6+zMtioQYqgPM23izL8F8YuAd
6ptB0jCUSn1jCXR1qLtXoVRBjqMYB6+wafv8MGbIKwbNizM2SiwMH3Xg+9CuGWcj
ESLZ9D5WzUEDXiJpamnCgzr4KFGHYH3DvAQAGLRIKN9c7goaxT9UTltTBLPpjz9S
wSzrojSBski1kUPChLXyxJASnp26i/o5gCRBtDpEYm4A/azj20hx0BrryKKwKVmU
vdKNWzH6FnuaA9kzoPtocgs54GJX0A1xvAMR7W1PdH1bIvHsgIBDr2C0VQIDAQAB
o4IBKDCCASQwDgYDVR0PAQH/BAQDAgEGMBkGA1UdJQQSMBAGBFUdJQAGCCsGAQUF
BwMEMA8GA1UdEwEB/wQFMAMBAf8wHQYDVR0OBBYEFBAIjRenkBT/rQwXHCvPYz+6
m1rpMB8GA1UdIwQYMBaAFOi29nZL0DvlRqX5VNR+B7PeDWA+MGQGCCsGAQUFBwEB
BFgwVjApBggrBgEFBQcwAYYdaHR0cDovL2NhLnNvbWVjYS1pbmMuY29tL29jc3Aw
KQYIKwYBBQUHMAKGHWh0dHA6Ly9jYS5zb21lY2EtaW5jLmNvbS9yb290MBEGA1Ud
IAQKMAgwBgYEVR0gADAtBgNVHR8EJjAkMCKgIKAehhxodHRwOi8vY2Euc29tZWNh
LWluYy5jb20vY3JsMA0GCSqGSIb3DQEBCwUAA4ICAQCdtD0AAiu8AbL5b9Bbsnfd
YtYFbKLwLfWwh5x+Yb4mfDxzQHADfHUI5uOPo8eHcnAPPWQg5oWNJ5P1PpqdewHY
zhI/6T3BdHxh0RBLUj1CuzYdVsxnCfza4SulDoHeuGYuEVx43H7cduCf+AtSI6rQ
lbYdM3z9W/NhYYRDS2ZgKzk6AkChXng27xsM5QYt9BtN/AtgWhsyD57s0pKYaWqJ
0R6erSYGs4qfjsG3FG1eiUVqyKn6n1Joje44DNVUO8UJW0TMZMzOB52mpNkKEfZc
dJDoxLAdzt56qu/F9XSacqecZQbYzv2YD9/sHYwyDTBdh4Bgz4SZDCoXNd0shANd
vIQT8mzS+5dz6X8193/1uH4PGz36zjCNTgslbV724KAiY6qEA/N0jUXjzb372scF
zxjozog212tqiEChCg6f+NqEOLDG57hvK9UpQvncLDjnMBYZE2TSmX66YcoP8Gut
fw7LQP6etq68fEzPPDRX/RseqHC5+QEn8QLuP11ieJD4lGveI8W6+q9WwyoBg/JN
xbeBRdb9OGQ+VVGvT86XC4+8yaCQNBg6NgaptdndOvirroUQNkVbKaxdkymZxQdj
58iVZFAfnROIYsiG9xD+y2yucfFoM3d7lYVErdrtj0dtlKCY3tiJ6RGUIRdor+Th
nvKWj2zbB1BSicZh6AVhLQ==
-----END CERTIFICATE-----
