Certificate:
    Data:
        Version: 3 (0x2)
        Serial Number:
            aa:74:25:f5:a2:e8:0e:c2:3c:a3:b3:77:19:ee:93:e3
        Signature Algorithm: sha256WithRSAEncryption
        Issuer: C = XX, O = Some CA, CN = Fake Root CA for zlint testing
        Validity
            Not Before: Apr 15 00:00:00 2020 GMT
            Not After : Apr 14 00:00:00 2025 GMT
        Subject: C = XX, ST = Some State, L = Some Locality, O = Some CA, CN = Fake CA for zlint testing
        Subject Public Key Info:
            Public Key Algorithm: rsaEncryption
                RSA Public-Key: (4096 bit)
                Modulus:
                    00:c9:08:c5:57:b6:42:e9:df:3c:e4:23:f7:19:d3:
                    3d:68:9e:fd:d8:2b:7b:13:3f:0d:87:3c:97:f9:45:
                    e4:49:fe:45:75:88:29:6b:3a:7f:5d:e7:cc:b4:b0:
                    2c:83:47:ab:5c:60:a0:ad:06:42:68:88:32:f8:21:
                    b8:22:bb:c6:06:98:60:20:f0:4d:a7:86:87:24:78:
                    d7:62:28:10:d7:7e:46:7d:5c:87:cc:e5:48:a9:ce:
                    5c:bc:8a:18:26:83:0f:36:e1:1e:69:ce:e3:ba:39:
                    31:67:57:c6:c3:5a:fb:da:6a:0c:26:0a:5b:b4:10:
                    51:ef:78:92:79:70:0a:34:d4:cf:34:80:80:b5:1e:
                    d1:88:2e:8c:7d:d3:4e:82:f9:26:81:08:0f:5f:41:
                    36:02:8d:5d:39:d8:56:1d:49:01:a2:7f:4d:5c:8a:
                    0c:35:fc:23:47:06:aa:2b:16:a4:a2:c4:01:1d:ce:
                    b1:71:c1:bf:cf:a6:9b:03:78:b2:be:3e:09:76:d7:
                    05:39:f0:7c:82:d8:47:91:7a:ec:06:b2:e6:ec:b0:
                    f4:92:b4:cc:bc:9f:0c:32:4a:e5:b8:b1:16:5c:cd:
                    35:08:62:54:13:54:28:c3:7c:65:6e:82:ff:ac:c0:
                    f1:8e:bf:38:7d:99:e6:a1:22:c4:c2:88:72:7b:a3:
                    52:5f:7e:20:ea:41:dc:72:5a:21:eb:7d:aa:5f:50:
                    a6:45:23:09:d0:a3:fe:d8:46:14:df:ad:12:b9:5a:
                    d9:0b:ee:53:df:9e:23:1b:c2:4f:b5:5a:fd:9f:22:
                    07:1c:d9:ab:a4:b9:6f:24:7b:d7:2d:28:32:ba:a6:
                    06:72:fa:a4:8e:79:1d:d7:79:c0:2c:ac:dd:eb:c4:
                    e8:cc:df:06:ca:73:2f:a7:3e:be:82:71:06:6a:37:
                    a0:4d:c2:d5:6e:2e:08:20:ea:86:d0:fd:4c:ac:56:
                    a3:41:58:7f:01:80:64:22:b5:02:c5:c7:35:fb:d5:
                    75:31:91:bf:1e:72:f9:0b:e3:45:a3:92:4e:87:f6:
                    76:d4:ae:07:40:a6:b6:37:8c:c0:25:2b:5e:fc:ab:
                    50:f8:2d:3a:fb:a2:1b:81:2d:cb:14:50:54:d7:ee:
                    70:4b:de:d0:fb:03:4c:48:02:d2:ed:76:a4:7c:40:
                    ec:13:37:1d:86:b4:28:56:31:b5:ad:61:a5:20:fe:
                    ed:89:a0:59:37:90:1a:98:4a:6b:2a:4a:46:38:bd:
                    8d:7a:37:70:17:c2:0a:e0:77:d3:2e:08:92:ca:d3:
                    6d:32:c0:75:7f:1f:99:12:e6:5e:6e:bf:4a:34:ad:
                    8c:c3:07:a9:20:03:f1:e1:60:1f:09:d2:7a:8c:2f:
                    87:7f:91
                Exponent: 65537 (0x10001)
        X509v3 extensions:
            X509v3 Key Usage: critical
                Certificate Sign, CRL Sign
            X509v3 Extended Key Usage: 
                TLS Web Client Authentication, TLS Web Server Authentication, E-mail Protection
            X509v3 Basic Constraints: critical
                CA:TRUE
            X509v3 Subject Key Identifier: 
                4B:0E:21:1D:C9:7A:A7:02:C4:14:0E:29:E2:9D:1C:CF:D6:CF:08:8E
            X509v3 Authority Key Identifier: 
                keyid:E8:B6:F6:76:4B:D0:3B:E5:46:A5:F9:54:D4:7E:07:B3:DE:0D:60:3E

            Authority Information Access: 
                OCSP - URI:http://ca.someca-inc.com/ocsp
                CA Issuers - URI:http://ca.someca-inc.com/root

            X509v3 Certificate Policies: 
                Policy: X509v3 Any Policy

            X509v3 CRL Distribution Points: 

                Full Name:
                  URI:http://ca.someca-inc.com/crl

    Signature Algorithm: sha256WithRSAEncryption
         23:c4:42:d9:d5:a8:ef:a9:3d:3f:09:6f:a3:a3:9e:f6:fc:d5:
         a3:20:ee:97:2e:53:36:18:61:7d:37:d9:fb:c1:7b:70:03:3d:
         78:fc:5f:35:17:42:04:92:38:13:dc:97:1c:c7:b8:7c:d5:1c:
         00:38:e3:cd:d9:1e:2f:79:26:83:36:51:f3:35:2e:a9:3c:f0:
         11:a9:70:81:d2:99:0e:79:48:c2:39:ef:c1:87:fb:a6:85:94:
         77:8c:3e:25:6a:9a:6c:05:1e:ec:23:12:f5:75:08:d4:6e:35:
         31:b1:74:60:bb:5f:49:76:48:75:2e:49:0a:e7:4d:73:84:bc:
         c4:60:79:32:93:69:ff:c1:86:c2:1b:3b:f9:03:ae:31:d0:3c:
         e2:b9:d8:56:61:8b:32:05:7e:f1:43:30:01:72:be:17:2b:81:
         27:ff:0f:e9:3a:23:02:db:29:d1:45:7c:8b:36:55:10:5b:db:
         3f:7e:a0:3e:28:87:ff:fb:ec:55:6e:56:37:4a:ea:db:3d:c6:
         2d:ba:ff:44:06:b3:25:1b:20:3a:89:b7:86:d1:91:92:91:07:
         81:02:a8:13:94:d8:87:ad:18:e1:50:e7:df:b2:9f:cc:f0:ed:
         71:31:ed:33:95:df:ea:58:2b:e0:4b:63:90:72:40:38:b1:86:
         d8:1b:a0:33:4e:53:8a:77:c7:85:93:60:4f:d5:6a:4a:11:3b:
         70:e9:66:b5:a8:d1:12:5f:de:77:c3:44:1a:c8:62:d9:5a:7b:
         fc:c0:a7:78:19:5a:87:a8:ba:93:c0:15:8e:57:dc:e4:5f:93:
         f6:24:e8:53:18:00:96:a8:2b:8f:c1:37:34:91:85:b2:a0:ac:
         b8:2f:bf:7a:a2:a9:1d:b0:97:89:c6:21:39:57:cd:43:69:4f:
         cd:41:cb:b7:6e:26:61:40:ad:da:08:51:f8:f6:ff:92:9d:64:
         1c:9d:15:96:a0:aa:d7:0a:24:01:e7:75:1f:82:51:81:aa:e6:
         2a:bb:99:ea:7f:cc:ce:42:a1:88:80:af:6c:6d:11:55:62:60:
         89:c1:bf:f2:e7:b9:38:3e:2d:2d:62:8c:80:48:fb:62:fe:b9:
         75:51:1b:07:7a:94:2f:d0:7f:f2:2b:41:43:07:cd:f8:11:58:
         ca:6b:5a:b1:5c:41:02:ea:25:ee:92:f2:1b:79:29:e4:01:0e:
         f3:d7:72:37:a2:61:57:81:31:45:42:1d:16:3e:05:9e:ce:32:
         6c:3c:2e:6e:62:12:83:bd:d9:b1:f7:ce:5e:b7:cd:74:85:55:
         e6:d9:6e:77:68:2c:c0:a4:c2:06:02:7a:29:5d:b7:a0:fa:2a:
         dc:ca:e3:45:3b:b9:9f:7d
-----BEGIN CERTIFICATE-----
MIIGezCCBGOgAwIBAgIRAKp0JfWi6A7CPKOzdxnuk+MwDQYJKoZIhvcNAQELBQAw
SDELMAkGA1UEBhMCWFgxEDAOBgNVBAoTB1NvbWUgQ0ExJzAlBgNVBAMTHkZha2Ug
Um9vdCBDQSBmb3IgemxpbnQgdGVzdGluZzAeFw0yMDA0MTUwMDAwMDBaFw0yNTA0
MTQwMDAwMDBaMHAxCzAJBgNVBAYTAlhYMRMwEQYDVQQIEwpTb21lIFN0YXRlMRYw
FAYDVQQHEw1Tb21lIExvY2FsaXR5MRAwDgYDVQQKEwdTb21lIENBMSIwIAYDVQQD
ExlGYWtlIENBIGZvciB6bGludCB0ZXN0aW5nMIICIjANBgkqhkiG9w0BAQEFAAOC
Ag8AMIICCgKCAgEAyQjFV7ZC6d885CP3GdM9aJ792Ct7Ez8NhzyX+UXkSf5FdYgp
azp/XefMtLAsg0erXGCgrQZCaIgy+CG4IrvGBphgIPBNp4aHJHjXYigQ135GfVyH
zOVIqc5cvIoYJoMPNuEeac7jujkxZ1fGw1r72moMJgpbtBBR73iSeXAKNNTPNICA
tR7RiC6MfdNOgvkmgQgPX0E2Ao1dOdhWHUkBon9NXIoMNfwjRwaqKxakosQBHc6x
ccG/z6abA3iyvj4JdtcFOfB8gthHkXrsBrLm7LD0krTMvJ8MMkrluLEWXM01CGJU
E1Qow3xlboL/rMDxjr84fZnmoSLEwohye6NSX34g6kHccloh632qX1CmRSMJ0KP+
2EYU360SuVrZC+5T354jG8JPtVr9nyIHHNmrpLlvJHvXLSgyuqYGcvqkjnkd13nA
LKzd68TozN8GynMvpz6+gnEGajegTcLVbi4IIOqG0P1MrFajQVh/AYBkIrUCxcc1
+9V1MZG/HnL5C+NFo5JOh/Z21K4HQKa2N4zAJSte/KtQ+C06+6IbgS3LFFBU1+5w
S97Q+wNMSALS7XakfEDsEzcdhrQoVjG1rWGlIP7tiaBZN5AamEprKkpGOL2Nejdw
F8IK4HfTLgiSytNtMsB1fx+ZEuZebr9KNK2MwwepIAPx4WAfCdJ6jC+Hf5ECAwEA
AaOCATYwggEyMA4GA1UdDwEB/wQEAwIBBjAnBgNVHSUEIDAeBggrBgEFBQcDAgYI
KwYBBQUHAwEGCCsGAQUFBwMEMA8GA1UdEwEB/wQFMAMBAf8wHQYDVR0OBBYEFEsO
IR3JeqcCxBQOKeKdHM/WzwiOMB8GA1UdIwQYMBaAFOi29nZL0DvlRqX5VNR+B7Pe
DWA+MGQGCCsGAQUFBwEBBFgwVjApBggrBgEFBQcwAYYdaHR0cDovL2NhLnNvbWVj
YS1pbmMuY29tL29jc3AwKQYIKwYBBQUHMAKGHWh0dHA6Ly9jYS5zb21lY2EtaW5j
LmNvbS9yb290MBEGA1UdIAQKMAgwBgYEVR0gADAtBgNVHR8EJjAkMCKgIKAehhxo
dHRwOi8vY2Euc29tZWNhLWluYy5jb20vY3JsMA0GCSqGSIb3DQEBCwUAA4ICAQAj
xELZ1ajvqT0/CW+jo572/NWjIO6XLlM2GGF9N9n7wXtwAz14/F81F0IEkjgT3Jcc
x7h81RwAOOPN2R4veSaDNlHzNS6pPPARqXCB0pkOeUjCOe/Bh/umhZR3jD4lapps
BR7sIxL1dQjUbjUxsXRgu19Jdkh1LkkK501zhLzEYHkyk2n/wYbCGzv5A64x0Dzi
udhWYYsyBX7xQzABcr4XK4En/w/pOiMC2ynRRXyLNlUQW9s/fqA+KIf/++xVblY3
SurbPcYtuv9EBrMlGyA6ibeG0ZGSkQeBAqgTlNiHrRjhUOffsp/M8O1xMe0zld/q
WCvgS2OQckA4sYbYG6AzTlOKd8eFk2BP1WpKETtw6Wa1qNESX953w0QayGLZWnv8
wKd4GVqHqLqTwBWOV9zkX5P2JOhTGACWqCuPwTc0kYWyoKy4L796oqkdsJeJxiE5
V81DaU/NQcu3biZhQK3aCFH49v+SnWQcnRWWoKrXCiQB53UfglGBquYqu5nqf8zO
QqGIgK9sbRFVYmCJwb/y57k4Pi0tYoyASPti/rl1URsHepQv0H/yK0FDB834EVjK
a1qxXEEC6iXukvIbeSnkAQ7z13I3omFXgTFFQh0WPgWezjJsPC5uYhKDvdmx985e
t810hVXm2W53aCzApMIGAnopXbeg+ircyuNFO7mffQ==
-----END CERTIFICATE-----
