Certificate:
    Data:
        Version: 3 (0x2)
        Serial Number:
            32:03:73:83:a6:03:dc:2b:81:98:3f:5f:ff:6c:04:31
        Signature Algorithm: sha256WithRSAEncryption
        Issuer: C = XX, O = Some CA, CN = Fake Root CA for zlint testing
        Validity
            Not Before: May  3 08:01:45 2024 GMT
            Not After : May  2 08:01:45 2029 GMT
        Subject: C = XX, ST = Some State, L = Some Locality, O = Some CA, CN = Fake CA for zlint testing
        Subject Public Key Info:
            Public Key Algorithm: rsaEncryption
                RSA Public-Key: (4096 bit)
                Modulus:
                    00:b6:95:98:06:5e:cd:b7:44:7f:af:cb:8a:a2:b0:
                    eb:bb:08:90:a0:6a:d2:d8:9e:70:91:13:7d:bc:79:
                    21:ec:0b:d5:9c:13:0a:aa:a6:c8:b0:15:35:99:2f:
                    27:b5:c6:95:26:60:49:31:90:0f:48:5f:51:29:f9:
                    7e:e8:75:53:fb:2d:ac:85:07:a3:15:83:a7:69:18:
                    f8:57:b4:3e:e7:69:fe:2a:d9:9a:ba:56:3a:e3:36:
                    a3:bd:50:49:fd:d3:9d:73:02:91:aa:94:30:1c:a4:
                    ba:c7:5c:ee:b8:0a:6a:6f:97:22:58:9b:51:d0:e3:
                    b8:83:34:2a:93:9c:aa:e5:b0:3d:f0:ab:1d:39:d4:
                    c4:31:44:d3:98:a1:20:d6:45:31:b3:33:52:06:15:
                    c6:04:69:1d:0f:ed:df:01:df:d2:81:07:bf:4f:74:
                    2c:41:9e:30:8f:0a:ef:44:74:95:e8:a7:4a:76:5b:
                    02:75:fa:53:d1:92:69:8d:31:6c:60:11:7c:f4:6a:
                    ad:82:f8:1f:39:64:9c:fe:dc:35:ae:b2:92:c3:cf:
                    06:86:e3:d5:f2:b3:88:09:3f:1f:13:71:b2:8d:61:
                    a9:00:3d:09:ad:8d:82:f5:53:23:37:c6:f2:11:fe:
                    2e:5c:32:3e:65:8a:a2:5c:82:ce:9f:aa:28:7d:96:
                    cb:c2:c2:f4:25:34:b7:ec:30:58:92:dc:2d:0f:ff:
                    66:ca:fc:f1:69:e8:f5:7b:3d:b4:46:8a:18:65:43:
                    86:b3:3b:e6:bd:ad:ad:28:af:5b:6e:6f:c2:f7:e7:
                    6a:e8:ba:e3:91:3d:a1:7f:8e:fc:db:86:8a:ad:30:
                    99:52:66:db:55:83:64:3c:36:78:38:36:37:31:2d:
                    ad:c4:8d:f1:14:b0:f6:d2:db:7b:9c:71:b0:56:3a:
                    32:67:7a:80:51:f2:c4:a7:cc:eb:14:00:8d:fe:8e:
                    6f:49:c7:e0:b9:2d:6c:bb:5c:88:20:03:8c:68:bc:
                    06:9e:53:b4:5c:3a:31:56:f2:b2:a0:2d:5b:dd:7f:
                    fe:b5:72:6a:2b:46:4a:80:07:ef:1d:27:20:b0:a4:
                    d2:d2:00:99:c4:e0:d1:cb:2f:24:c4:8d:fb:31:84:
                    01:76:df:c7:74:5d:ae:bf:48:5b:c9:25:02:e1:c5:
                    a7:ce:5c:96:f1:02:0b:db:19:0a:e3:02:9b:a4:92:
                    14:35:8b:d8:3d:b2:1e:07:b9:f8:de:8a:f6:5e:53:
                    e5:31:df:e7:c1:ef:1a:58:10:42:b3:b5:a0:78:b6:
                    60:99:98:36:05:ed:02:51:b4:3b:70:46:5f:c5:6d:
                    d0:82:a4:dd:98:13:7b:e7:03:ae:45:b2:a1:96:d7:
                    fd:bd:df
                Exponent: 65537 (0x10001)
        X509v3 extensions:
            X509v3 Key Usage: critical
                Certificate Sign, CRL Sign
            X509v3 Extended Key Usage: 
                TLS Web Client Authentication, E-mail Protection
            X509v3 Basic Constraints: critical
                CA:TRUE
            X509v3 Subject Key Identifier: 
                36:00:EE:55:D6:67:B2:ED:E7:0A:21:8D:C0:01:FA:E1:43:F8:94:65
            X509v3 Authority Key Identifier: 
                keyid:E8:B6:F6:76:4B:D0:3B:E5:46:A5:F9:54:D4:7E:07:B3:DE:0D:60:3E

            Authority Information Access: 
                OCSP - URI:http://ca.someca-inc.com/ocsp
                CA Issuers - URI:http://ca.someca-inc.com/root

            X509v3 Certificate Policies: 
                Policy: X509v3 Any Policy

            X509v3 CRL Distribution Points: 

                Full Name:
                  URI:http://ca.someca-inc.com/crl

    Signature Algorithm: sha256WithRSAEncryption
         93:8e:6a:aa:e3:57:17:36:b2:89:f7:66:c9:1c:1c:90:27:40:
         bc:81:45:ec:b2:85:8c:0d:f5:48:e5:70:49:aa:d8:6a:87:60:
         8d:51:4d:51:2f:28:7a:15:99:92:af:af:0a:04:a9:61:ff:8b:
         21:95:e3:f4:78:b7:08:3d:3b:e8:a2:4c:0d:fc:ab:8b:1d:ab:
         5a:f7:21:c5:63:a3:90:ca:20:12:a9:05:16:e8:68:f7:a2:8e:
         60:ef:3a:b8:e9:6c:57:ac:85:f4:7b:02:9e:07:63:04:ec:bb:
         0e:a6:82:7b:26:02:a2:1f:91:98:75:e2:97:39:92:d9:56:dd:
         42:a9:95:02:e5:6a:3c:72:73:54:ac:50:83:89:97:82:26:fd:
         83:9f:64:2f:f3:f9:97:16:b6:37:95:a0:32:28:9d:7e:21:24:
         94:c0:bb:c9:0d:bf:78:60:95:9c:76:ce:7a:3b:ba:a1:f8:47:
         b8:3a:49:1b:0e:50:06:60:61:e2:ad:16:ff:94:67:3a:7d:f7:
         d4:85:a6:91:aa:ac:0b:77:b0:39:4b:4d:30:3f:9b:76:48:40:
         46:4f:3c:9a:9a:6f:48:2e:6b:b6:8d:b1:81:ed:5b:37:e5:fb:
         be:84:6d:83:bb:bf:b2:89:e5:03:93:e5:32:96:45:c3:ee:1c:
         82:e2:60:f6:64:9c:e3:c9:91:6f:63:8e:4e:cb:81:e3:f5:7d:
         3d:87:90:12:80:5c:59:45:d0:86:53:82:bc:e6:45:b7:33:04:
         68:97:b0:b2:0e:63:c2:25:57:c1:6a:a6:8b:69:b2:21:23:99:
         12:71:02:2a:a3:9f:e4:d7:bd:d4:b9:22:7a:e4:36:37:45:7e:
         33:90:59:f3:f8:0f:e4:8e:71:71:b9:03:87:fd:d8:c0:80:2b:
         70:01:06:3a:e7:f2:a9:45:58:bf:a5:5b:c9:00:cc:65:27:c3:
         4e:d8:43:aa:b5:08:99:1a:fb:c0:18:72:b4:52:73:40:c5:86:
         91:96:c8:5e:17:f5:f0:a1:31:00:60:2a:a1:a0:b4:4d:04:ff:
         d6:3f:21:64:fd:53:f7:ad:8d:9b:d7:6b:d7:cf:05:ff:3e:d1:
         09:6a:2a:e2:45:fe:ae:9a:92:f2:07:4c:74:4c:2c:e3:ee:6b:
         44:39:65:a6:0a:3f:9e:fd:b0:cd:1c:19:2a:14:06:ee:99:ee:
         31:7e:6c:5d:45:89:49:74:c4:e6:b5:41:a2:2b:93:70:dc:ea:
         7d:83:3a:c3:e5:67:04:4d:ad:c4:e4:a7:4a:9b:6e:c7:c2:d3:
         43:ed:3a:cf:32:4d:e1:5e:f3:9c:38:b2:84:ce:d2:89:b9:77:
         e6:50:a6:99:b1:58:04:5a
-----BEGIN CERTIFICATE-----
MIIGcDCCBFigAwIBAgIQMgNzg6YD3CuBmD9f/2wEMTANBgkqhkiG9w0BAQsFADBI
MQswCQYDVQQGEwJYWDEQMA4GA1UEChMHU29tZSBDQTEnMCUGA1UEAxMeRmFrZSBS
b290IENBIGZvciB6bGludCB0ZXN0aW5nMB4XDTI0MDUwMzA4MDE0NVoXDTI5MDUw
MjA4MDE0NVowcDELMAkGA1UEBhMCWFgxEzARBgNVBAgTClNvbWUgU3RhdGUxFjAU
BgNVBAcTDVNvbWUgTG9jYWxpdHkxEDAOBgNVBAoTB1NvbWUgQ0ExIjAgBgNVBAMT
GUZha2UgQ0EgZm9yIHpsaW50IHRlc3RpbmcwggIiMA0GCSqGSIb3DQEBAQUAA4IC
DwAwggIKAoICAQC2lZgGXs23RH+vy4qisOu7CJCgatLYnnCRE328eSHsC9WcEwqq
psiwFTWZLye1xpUmYEkxkA9IX1Ep+X7odVP7LayFB6MVg6dpGPhXtD7naf4q2Zq6
VjrjNqO9UEn9051zApGqlDAcpLrHXO64CmpvlyJYm1HQ47iDNCqTnKrlsD3wqx05
1MQxRNOYoSDWRTGzM1IGFcYEaR0P7d8B39KBB79PdCxBnjCPCu9EdJXop0p2WwJ1
+lPRkmmNMWxgEXz0aq2C+B85ZJz+3DWuspLDzwaG49Xys4gJPx8TcbKNYakAPQmt
jYL1UyM3xvIR/i5cMj5liqJcgs6fqih9lsvCwvQlNLfsMFiS3C0P/2bK/PFp6PV7
PbRGihhlQ4azO+a9ra0or1tub8L352rouuORPaF/jvzbhoqtMJlSZttVg2Q8Nng4
NjcxLa3EjfEUsPbS23uccbBWOjJneoBR8sSnzOsUAI3+jm9Jx+C5LWy7XIggA4xo
vAaeU7RcOjFW8rKgLVvdf/61cmorRkqAB+8dJyCwpNLSAJnE4NHLLyTEjfsxhAF2
38d0Xa6/SFvJJQLhxafOXJbxAgvbGQrjApukkhQ1i9g9sh4HufjeivZeU+Ux3+fB
7xpYEEKztaB4tmCZmDYF7QJRtDtwRl/FbdCCpN2YE3vnA65FsqGW1/293wIDAQAB
o4IBLDCCASgwDgYDVR0PAQH/BAQDAgEGMB0GA1UdJQQWMBQGCCsGAQUFBwMCBggr
BgEFBQcDBDAPBgNVHRMBAf8EBTADAQH/MB0GA1UdDgQWBBQ2AO5V1mey7ecKIY3A
AfrhQ/iUZTAfBgNVHSMEGDAWgBTotvZ2S9A75Ual+VTUfgez3g1gPjBkBggrBgEF
BQcBAQRYMFYwKQYIKwYBBQUHMAGGHWh0dHA6Ly9jYS5zb21lY2EtaW5jLmNvbS9v
Y3NwMCkGCCsGAQUFBzAChh1odHRwOi8vY2Euc29tZWNhLWluYy5jb20vcm9vdDAR
BgNVHSAECjAIMAYGBFUdIAAwLQYDVR0fBCYwJDAioCCgHoYcaHR0cDovL2NhLnNv
bWVjYS1pbmMuY29tL2NybDANBgkqhkiG9w0BAQsFAAOCAgEAk45qquNXFzayifdm
yRwckCdAvIFF7LKFjA31SOVwSarYaodgjVFNUS8oehWZkq+vCgSpYf+LIZXj9Hi3
CD076KJMDfyrix2rWvchxWOjkMogEqkFFuho96KOYO86uOlsV6yF9HsCngdjBOy7
DqaCeyYCoh+RmHXilzmS2VbdQqmVAuVqPHJzVKxQg4mXgib9g59kL/P5lxa2N5Wg
MiidfiEklMC7yQ2/eGCVnHbOeju6ofhHuDpJGw5QBmBh4q0W/5RnOn331IWmkaqs
C3ewOUtNMD+bdkhARk88mppvSC5rto2xge1bN+X7voRtg7u/sonlA5PlMpZFw+4c
guJg9mSc48mRb2OOTsuB4/V9PYeQEoBcWUXQhlOCvOZFtzMEaJewsg5jwiVXwWqm
i2myISOZEnECKqOf5Ne91LkieuQ2N0V+M5BZ8/gP5I5xcbkDh/3YwIArcAEGOufy
qUVYv6VbyQDMZSfDTthDqrUImRr7wBhytFJzQMWGkZbIXhf18KExAGAqoaC0TQT/
1j8hZP1T962Nm9dr188F/z7RCWoq4kX+rpqS8gdMdEws4+5rRDllpgo/nv2wzRwZ
KhQG7pnuMX5sXUWJSXTE5rVBoiuTcNzqfYM6w+VnBE2txOSnSptux8LTQ+06zzJN
4V7znDiyhM7Sibl35lCmmbFYBFo=
-----END CERTIFICATE-----
