Certificate:
    Data:
        Version: 3 (0x2)
        Serial Number:
            d7:8e:89:06:42:47:60:ba:0a:1e:68:61:c4:75:38:66
        Signature Algorithm: sha256WithRSAEncryption
        Issuer: C = XX, ST = Some State, L = Some Locality, O = Some Organization, CN = Fake Root CA for zlint testing
        Validity
            Not Before: May  3 12:40:48 2024 GMT
            Not After : May  2 12:40:48 2029 GMT
        Subject: C = XX, ST = Some State, L = Some Locality, O = Some Organization, CN = Fake Root CA for zlint testing
        Subject Public Key Info:
            Public Key Algorithm: rsaEncryption
                RSA Public-Key: (4096 bit)
                Modulus:
                    00:e0:5e:32:17:48:75:50:2d:4b:d0:87:5f:45:0e:
                    f7:65:b5:10:f2:56:58:f5:2e:6a:e1:76:19:a6:d4:
                    df:db:e2:ef:27:d2:c8:d9:2b:41:09:c9:ce:65:8b:
                    5a:f7:9e:f3:e6:04:15:ec:cb:ed:db:9c:de:fc:1d:
                    a5:90:70:d6:ea:17:82:32:a2:02:ce:a0:80:14:29:
                    ad:ed:53:85:ba:14:ee:77:a8:61:de:45:cf:3e:d7:
                    55:0d:af:16:3d:ac:f4:49:f9:d5:25:7b:1a:19:5d:
                    c1:74:ef:0a:e6:55:82:03:1c:9b:5d:5a:cd:c7:f9:
                    24:2e:13:bf:4b:62:6b:a6:44:84:e8:06:f7:48:03:
                    f0:c8:f0:d1:12:6a:7b:9f:bd:d8:37:0b:ed:3c:21:
                    fb:2b:86:77:7b:6f:19:b1:b7:92:78:06:68:ac:c5:
                    ca:95:15:a0:76:0b:79:48:7b:0d:fb:29:47:ed:bc:
                    74:71:e8:cf:ca:2a:5f:7d:24:6e:1c:b1:18:3b:ce:
                    ce:fe:3f:6e:64:9c:17:05:8f:24:7d:3e:35:00:13:
                    5d:74:02:39:da:08:8a:92:16:3c:cc:d6:28:1d:2e:
                    57:75:75:9f:4c:42:65:f7:7e:36:20:a1:83:b8:83:
                    99:a4:5a:d1:cc:0b:da:6d:db:77:8b:ca:42:c6:57:
                    97:9d:63:20:11:10:64:60:6a:04:d0:3e:2f:b4:85:
                    9a:31:25:d9:a6:11:68:d5:83:eb:d5:79:fe:9b:0a:
                    9a:73:3e:4b:24:dc:90:1d:21:da:25:d4:5f:38:b0:
                    3d:54:5d:50:f0:dd:36:35:a6:ff:ff:10:88:67:78:
                    66:b6:37:58:c2:b5:55:2f:42:ee:9e:ca:11:b9:1f:
                    69:7c:8a:2d:81:17:66:ea:9b:00:f5:25:0b:c8:c3:
                    12:83:db:54:b4:4d:56:68:3e:ea:14:bb:d7:d8:d3:
                    8d:c9:1d:8c:bf:18:c1:8d:ef:85:b0:b0:b6:0e:96:
                    77:bb:0d:a7:ac:23:34:b3:0d:78:f1:a3:25:40:45:
                    0b:63:90:ce:83:9c:34:d9:b4:52:f6:5b:51:25:02:
                    36:fe:56:f2:be:9e:92:b7:ee:3a:00:7f:5a:ea:4e:
                    36:65:ed:b7:9c:9c:bc:a3:0b:d6:d1:a5:22:e0:57:
                    eb:14:53:71:ce:21:5b:43:e9:dd:9c:b1:c2:d1:ad:
                    50:3f:df:45:30:6c:79:25:c6:88:7d:e5:6c:c8:43:
                    61:85:ea:7d:67:85:47:5c:f2:50:33:0d:98:86:ca:
                    21:25:ba:0b:2c:3b:6b:b1:88:8a:38:7a:a2:8a:d8:
                    01:ca:37:47:fc:af:8c:ea:3f:92:79:4a:57:df:8b:
                    d8:75:35
                Exponent: 65537 (0x10001)
        X509v3 extensions:
            X509v3 Key Usage: critical
                Certificate Sign, CRL Sign
            X509v3 Basic Constraints: critical
                CA:TRUE
            X509v3 Subject Key Identifier: 
                7A:43:F6:AC:05:10:4A:9C:67:80:9E:BD:C4:C5:96:1C:DC:56:97:8A
    Signature Algorithm: sha256WithRSAEncryption
         a2:8d:e0:ac:7b:ec:ca:e5:9b:b0:b3:ad:13:42:bf:c9:e8:4e:
         11:03:16:77:d0:08:4a:10:b8:3b:c5:ab:ab:ec:86:09:80:e5:
         2c:a2:e2:99:4c:19:c2:2b:11:9c:b0:70:38:b5:d9:2d:6a:e4:
         7f:8a:96:01:f3:2b:d5:fd:05:dd:83:c0:64:d2:c8:66:8f:5d:
         32:97:34:85:08:71:2c:86:86:de:5d:51:15:60:2b:ea:df:36:
         0d:e6:64:16:e6:1a:22:a0:eb:4a:10:ad:35:7d:56:67:3e:56:
         d8:8d:f7:0e:6f:f0:ba:fc:f8:00:f2:a7:09:e9:82:4f:2b:8b:
         1b:7f:d7:c3:59:9d:2a:f9:28:eb:30:77:b0:56:6f:33:66:24:
         75:b0:db:77:f8:56:48:4f:9b:d5:f7:43:a1:6e:a9:5a:64:ca:
         06:fc:02:1c:1b:d3:8e:4c:ef:02:e4:e2:f7:97:e2:8e:ac:fb:
         5c:b5:0e:9d:4f:ad:1b:8a:3b:f0:fd:15:1b:8c:3b:26:f4:b9:
         04:46:d7:87:f2:d0:44:0e:e0:b0:33:7f:a2:b3:cf:c8:bf:79:
         07:23:89:3e:0e:d2:b0:94:74:e0:71:42:68:63:51:d8:da:f7:
         72:82:65:23:df:b6:5b:d0:6e:8f:db:50:80:c5:ab:58:50:06:
         e6:37:36:fa:29:92:a7:56:eb:12:b9:a0:0c:80:0f:a7:14:26:
         37:77:6b:c0:f8:b6:00:d6:7c:10:c7:13:84:b9:9f:4b:21:bb:
         44:35:de:0b:50:e6:e0:02:17:2e:62:f5:e6:22:83:fc:89:3c:
         c0:c4:84:3f:9c:9d:a0:d5:0f:15:15:b4:f1:05:0c:29:9b:89:
         7c:84:27:82:53:df:42:b5:a2:f2:61:54:fb:8c:5c:e2:36:8b:
         98:d5:e7:a5:4c:b8:ee:e3:cf:46:8d:16:8f:1c:25:35:53:1b:
         05:76:8a:2e:33:c3:6e:4c:f7:4b:dc:a4:51:0b:54:41:a5:f1:
         5d:d4:e2:12:68:af:42:e6:d8:fe:e9:cf:7b:1e:76:04:6c:98:
         93:f1:34:c7:3c:cc:dd:23:e2:90:1e:88:18:ce:04:3e:73:92:
         b0:6a:29:2b:32:17:73:57:4f:ee:8b:7c:b6:24:eb:26:18:1a:
         ef:5f:dd:49:fe:b0:14:1e:96:7b:04:85:a8:b5:60:50:84:23:
         b1:67:ef:f6:6e:7a:ac:27:60:e8:72:f6:6d:b1:2f:16:cd:04:
         47:13:20:8d:40:46:26:92:bf:75:bc:da:33:76:58:01:b5:7b:
         c8:d1:77:0c:41:19:66:c4:b2:e1:49:0e:02:db:5b:d6:51:b2:
         d4:8a:4c:0c:4b:47:ce:61
-----BEGIN CERTIFICATE-----
MIIFyzCCA7OgAwIBAgIRANeOiQZCR2C6Ch5oYcR1OGYwDQYJKoZIhvcNAQELBQAw
fzELMAkGA1UEBhMCWFgxEzARBgNVBAgTClNvbWUgU3RhdGUxFjAUBgNVBAcTDVNv
bWUgTG9jYWxpdHkxGjAYBgNVBAoTEVNvbWUgT3JnYW5pemF0aW9uMScwJQYDVQQD
Ex5GYWtlIFJvb3QgQ0EgZm9yIHpsaW50IHRlc3RpbmcwHhcNMjQwNTAzMTI0MDQ4
WhcNMjkwNTAyMTI0MDQ4WjB/MQswCQYDVQQGEwJYWDETMBEGA1UECBMKU29tZSBT
dGF0ZTEWMBQGA1UEBxMNU29tZSBMb2NhbGl0eTEaMBgGA1UEChMRU29tZSBPcmdh
bml6YXRpb24xJzAlBgNVBAMTHkZha2UgUm9vdCBDQSBmb3IgemxpbnQgdGVzdGlu
ZzCCAiIwDQYJKoZIhvcNAQEBBQADggIPADCCAgoCggIBAOBeMhdIdVAtS9CHX0UO
92W1EPJWWPUuauF2GabU39vi7yfSyNkrQQnJzmWLWvee8+YEFezL7duc3vwdpZBw
1uoXgjKiAs6ggBQpre1ThboU7neoYd5Fzz7XVQ2vFj2s9En51SV7GhldwXTvCuZV
ggMcm11azcf5JC4Tv0tia6ZEhOgG90gD8Mjw0RJqe5+92DcL7Twh+yuGd3tvGbG3
kngGaKzFypUVoHYLeUh7DfspR+28dHHoz8oqX30kbhyxGDvOzv4/bmScFwWPJH0+
NQATXXQCOdoIipIWPMzWKB0uV3V1n0xCZfd+NiChg7iDmaRa0cwL2m3bd4vKQsZX
l51jIBEQZGBqBNA+L7SFmjEl2aYRaNWD69V5/psKmnM+SyTckB0h2iXUXziwPVRd
UPDdNjWm//8QiGd4ZrY3WMK1VS9C7p7KEbkfaXyKLYEXZuqbAPUlC8jDEoPbVLRN
Vmg+6hS719jTjckdjL8YwY3vhbCwtg6Wd7sNp6wjNLMNePGjJUBFC2OQzoOcNNm0
UvZbUSUCNv5W8r6ekrfuOgB/WupONmXtt5ycvKML1tGlIuBX6xRTcc4hW0Pp3Zyx
wtGtUD/fRTBseSXGiH3lbMhDYYXqfWeFR1zyUDMNmIbKISW6Cyw7a7GIijh6oorY
Aco3R/yvjOo/knlKV9+L2HU1AgMBAAGjQjBAMA4GA1UdDwEB/wQEAwIBBjAPBgNV
HRMBAf8EBTADAQH/MB0GA1UdDgQWBBR6Q/asBRBKnGeAnr3ExZYc3FaXijANBgkq
hkiG9w0BAQsFAAOCAgEAoo3grHvsyuWbsLOtE0K/yehOEQMWd9AIShC4O8Wrq+yG
CYDlLKLimUwZwisRnLBwOLXZLWrkf4qWAfMr1f0F3YPAZNLIZo9dMpc0hQhxLIaG
3l1RFWAr6t82DeZkFuYaIqDrShCtNX1WZz5W2I33Dm/wuvz4APKnCemCTyuLG3/X
w1mdKvko6zB3sFZvM2YkdbDbd/hWSE+b1fdDoW6pWmTKBvwCHBvTjkzvAuTi95fi
jqz7XLUOnU+tG4o78P0VG4w7JvS5BEbXh/LQRA7gsDN/orPPyL95ByOJPg7SsJR0
4HFCaGNR2Nr3coJlI9+2W9Buj9tQgMWrWFAG5jc2+imSp1brErmgDIAPpxQmN3dr
wPi2ANZ8EMcThLmfSyG7RDXeC1Dm4AIXLmL15iKD/Ik8wMSEP5ydoNUPFRW08QUM
KZuJfIQnglPfQrWi8mFU+4xc4jaLmNXnpUy47uPPRo0WjxwlNVMbBXaKLjPDbkz3
S9ykUQtUQaXxXdTiEmivQubY/unPex52BGyYk/E0xzzM3SPikB6IGM4EPnOSsGop
KzIXc1dP7ot8tiTrJhga71/dSf6wFB6WewSFqLVgUIQjsWfv9m56rCdg6HL2bbEv
Fs0ERxMgjUBGJpK/dbzaM3ZYAbV7yNF3DEEZZsSy4UkOAttb1lGy1IpMDEtHzmE=
-----END CERTIFICATE-----
