Certificate:
    Data:
        Version: 3 (0x2)
        Serial Number:
            a6:d3:4d:5b:ac:7b:80:f6:7f:7d:b2:53:e6:b8:17:e4
        Signature Algorithm: sha256WithRSAEncryption
        Issuer: C = XX, O = Some CA, CN = Fake Root CA for zlint testing
        Validity
            Not Before: Jun  5 06:55:19 2025 GMT
            Not After : Jun  4 06:55:19 2030 GMT
        Subject: C = XX, ST = Some State, L = Some Locality, O = Some CA, CN = Fake CA for zlint testing
        Subject Public Key Info:
            Public Key Algorithm: rsaEncryption
                RSA Public-Key: (4096 bit)
                Modulus:
                    00:c7:0f:5f:b0:69:99:6f:79:5a:62:23:d0:70:3e:
                    0c:f3:40:ef:08:b0:35:d4:c9:4d:d0:f5:07:ed:ed:
                    10:92:ea:dd:34:27:87:61:32:49:a0:d1:13:96:a7:
                    ae:44:93:68:f9:fd:1d:b8:c9:2d:c5:a5:f6:70:2f:
                    08:2d:6c:16:72:ce:80:89:b1:ca:80:c3:e1:65:2a:
                    9e:6e:78:02:a5:93:bd:1e:b6:10:4a:2c:58:30:af:
                    c8:cc:e2:b2:b9:66:c5:06:0d:b0:68:f5:21:e9:e4:
                    4b:b1:fc:d9:5e:c1:3e:a9:3d:77:11:09:36:75:a5:
                    81:d6:97:e3:49:9e:99:93:49:e8:8c:8b:d9:4e:23:
                    0e:4f:ba:44:b2:b1:4f:ae:8f:ad:7c:93:d8:c5:6d:
                    77:6f:8d:9a:90:49:0f:7d:84:8e:04:fc:45:c7:c1:
                    e1:89:ad:aa:f6:2b:be:68:d3:8b:bf:59:02:0d:ae:
                    bf:42:9d:d2:2b:47:80:ba:fc:49:8b:2f:f5:65:06:
                    ae:af:c6:a4:eb:c1:06:0a:17:a4:50:38:b0:ea:3c:
                    74:c0:0f:49:a2:13:a5:da:81:a5:0a:7b:bd:19:4d:
                    c7:b8:09:41:0f:80:27:9a:89:4c:b5:71:82:cb:cd:
                    02:d1:37:0d:24:f8:83:62:ae:95:38:7d:6f:a9:3e:
                    d4:f8:6e:6f:ec:6d:c8:cb:f7:d7:92:63:fd:f3:1c:
                    f6:8e:4d:a9:7b:1e:cd:65:8f:05:2d:66:24:4c:be:
                    ff:b5:5e:ed:ba:2e:ef:36:78:eb:1c:3d:81:f2:ee:
                    4d:5d:e0:e2:63:58:cc:ec:af:8d:87:c8:d1:dc:57:
                    8c:60:ea:b0:78:d8:6b:a8:53:bc:d7:a6:db:f1:40:
                    9e:41:ec:39:63:02:10:e6:45:ba:f2:93:51:69:a4:
                    86:9c:2e:12:b5:d3:ec:c0:b4:c1:7c:e9:96:0d:94:
                    f4:ad:ff:4b:59:25:af:04:2b:d7:db:6b:f1:db:5d:
                    b4:29:18:2d:9d:1a:2d:b9:df:96:13:fe:0e:63:f8:
                    53:70:2c:ce:19:12:21:39:7e:59:b7:4d:86:21:95:
                    07:e6:b2:75:90:48:93:d8:44:b8:fc:56:6c:ff:59:
                    26:73:6b:43:49:54:63:6f:63:ec:c9:45:a8:60:a1:
                    d1:60:84:b0:7d:77:c0:83:c4:d0:1f:eb:62:e8:5d:
                    1c:15:df:02:cf:8d:27:74:30:e2:7c:20:82:a3:80:
                    17:26:b9:b9:38:99:24:71:c2:e5:4d:14:f5:f0:1e:
                    dc:43:cd:1e:19:0f:dc:6e:2c:2a:c7:c8:6c:b4:8e:
                    ec:1f:9b:9d:04:ff:8c:cb:af:5b:25:c8:8d:9f:1e:
                    09:a5:b1
                Exponent: 65537 (0x10001)
        X509v3 extensions:
            X509v3 Key Usage: critical
                Certificate Sign, CRL Sign
            X509v3 Extended Key Usage: 
                TLS Web Client Authentication, TLS Web Server Authentication
            X509v3 Basic Constraints: critical
                CA:TRUE
            X509v3 Subject Key Identifier: 
                A2:DA:E0:5D:E3:AD:A2:A4:E8:BA:D1:C0:17:17:1B:FE:C8:D9:52:03
            X509v3 Authority Key Identifier: 
                keyid:E8:B6:F6:76:4B:D0:3B:E5:46:A5:F9:54:D4:7E:07:B3:DE:0D:60:3E

            Authority Information Access: 
                OCSP - URI:http://ca.someca-inc.com/ocsp
                CA Issuers - URI:http://ca.someca-inc.com/root

            X509v3 Certificate Policies: 
                Policy: 2.23.140.1.2.2

            X509v3 CRL Distribution Points: 

                Full Name:
                  URI:http://ca.someca-inc.com/crl

    Signature Algorithm: sha256WithRSAEncryption
         63:7d:29:28:6c:74:cd:23:ac:d9:fc:be:f6:0c:76:6c:5b:6d:
         31:0a:ec:61:9f:ba:36:66:21:e2:22:67:0d:2d:0e:40:87:92:
         9f:0e:4d:1c:54:cf:7b:1f:8c:8e:33:54:ad:8f:c7:ce:23:be:
         24:6c:bf:37:c2:6b:6a:f2:87:5a:c3:f6:b4:d4:64:d3:90:67:
         fe:e8:00:9c:e3:76:5b:5d:c7:93:88:3f:ad:ef:ca:b3:9e:a0:
         22:26:61:a9:54:93:a1:6d:22:f5:26:34:cf:22:9f:02:24:22:
         25:e2:83:0a:cc:be:66:97:a2:cd:db:b1:ea:dc:ef:31:f8:80:
         bf:9f:0a:68:1c:e9:98:be:07:5a:19:a2:9f:ee:34:19:9e:15:
         0b:b5:1e:3d:36:71:8e:25:cc:78:59:0b:09:29:f7:6f:52:04:
         10:3a:de:1c:5c:2a:de:91:bb:6b:a6:2e:be:6f:82:ab:f9:55:
         66:0a:2e:d0:3d:df:ba:f7:0c:fe:a9:4a:23:e3:ce:38:38:35:
         31:a7:12:1b:bf:77:ec:84:30:3a:4c:7a:ed:97:8f:d8:b0:a2:
         3a:d2:8b:36:ae:b4:b3:9d:e9:64:4a:94:9d:11:40:cf:85:d0:
         ff:91:94:8b:4c:57:98:5d:fd:7d:81:e2:b7:75:be:36:91:40:
         8e:da:b4:61:03:f9:7b:17:29:3a:b2:0d:ae:7f:25:60:be:c7:
         d1:bc:c7:fb:cd:c7:fe:28:cf:f1:99:87:30:84:66:45:4f:1e:
         64:3f:60:41:c2:75:0c:48:f7:14:8e:98:39:8f:89:66:01:7b:
         0c:03:9d:51:c2:d1:e4:3f:26:fd:13:bf:94:d3:af:05:f2:28:
         f1:7f:ba:6e:4a:4b:68:fc:19:c8:9c:fa:ff:a3:ed:d0:35:08:
         a3:8b:21:0d:b5:ca:c5:02:a8:b3:56:a0:31:24:75:32:46:7e:
         61:53:60:70:dd:cf:88:e1:ae:3d:40:75:c3:77:ca:04:86:bf:
         a7:8b:ed:b5:3f:66:90:39:d0:9c:0c:d6:4c:6b:82:e1:a2:e2:
         7e:af:07:ce:65:09:91:27:24:8d:ae:a8:78:05:98:75:68:98:
         68:64:e3:7d:40:3e:c2:94:e5:d6:fd:44:27:08:06:08:84:e6:
         a2:a3:15:af:7c:8d:00:34:aa:f8:a3:3c:22:69:e1:51:28:48:
         94:67:19:4e:88:bf:ec:f0:08:13:64:5c:59:dd:69:65:a7:20:
         96:9f:90:d3:fd:b2:07:d0:a4:f0:67:9f:d0:62:d0:8e:90:22:
         96:a5:c6:83:2e:0f:16:dd:f5:8e:fd:74:1f:38:77:50:e0:70:
         eb:82:94:65:d8:89:1e:87
-----BEGIN CERTIFICATE-----
MIIGczCCBFugAwIBAgIRAKbTTVuse4D2f32yU+a4F+QwDQYJKoZIhvcNAQELBQAw
SDELMAkGA1UEBhMCWFgxEDAOBgNVBAoTB1NvbWUgQ0ExJzAlBgNVBAMTHkZha2Ug
Um9vdCBDQSBmb3IgemxpbnQgdGVzdGluZzAeFw0yNTA2MDUwNjU1MTlaFw0zMDA2
MDQwNjU1MTlaMHAxCzAJBgNVBAYTAlhYMRMwEQYDVQQIEwpTb21lIFN0YXRlMRYw
FAYDVQQHEw1Tb21lIExvY2FsaXR5MRAwDgYDVQQKEwdTb21lIENBMSIwIAYDVQQD
ExlGYWtlIENBIGZvciB6bGludCB0ZXN0aW5nMIICIjANBgkqhkiG9w0BAQEFAAOC
Ag8AMIICCgKCAgEAxw9fsGmZb3laYiPQcD4M80DvCLA11MlN0PUH7e0QkurdNCeH
YTJJoNETlqeuRJNo+f0duMktxaX2cC8ILWwWcs6AibHKgMPhZSqebngCpZO9HrYQ
SixYMK/IzOKyuWbFBg2waPUh6eRLsfzZXsE+qT13EQk2daWB1pfjSZ6Zk0nojIvZ
TiMOT7pEsrFPro+tfJPYxW13b42akEkPfYSOBPxFx8Hhia2q9iu+aNOLv1kCDa6/
Qp3SK0eAuvxJiy/1ZQaur8ak68EGChekUDiw6jx0wA9JohOl2oGlCnu9GU3HuAlB
D4AnmolMtXGCy80C0TcNJPiDYq6VOH1vqT7U+G5v7G3Iy/fXkmP98xz2jk2pex7N
ZY8FLWYkTL7/tV7tui7vNnjrHD2B8u5NXeDiY1jM7K+Nh8jR3FeMYOqweNhrqFO8
16bb8UCeQew5YwIQ5kW68pNRaaSGnC4StdPswLTBfOmWDZT0rf9LWSWvBCvX22vx
2120KRgtnRotud+WE/4OY/hTcCzOGRIhOX5Zt02GIZUH5rJ1kEiT2ES4/FZs/1km
c2tDSVRjb2PsyUWoYKHRYISwfXfAg8TQH+ti6F0cFd8Cz40ndDDifCCCo4AXJrm5
OJkkccLlTRT18B7cQ80eGQ/cbiwqx8hstI7sH5udBP+My69bJciNnx4JpbECAwEA
AaOCAS4wggEqMA4GA1UdDwEB/wQEAwIBBjAdBgNVHSUEFjAUBggrBgEFBQcDAgYI
KwYBBQUHAwEwDwYDVR0TAQH/BAUwAwEB/zAdBgNVHQ4EFgQUotrgXeOtoqToutHA
Fxcb/sjZUgMwHwYDVR0jBBgwFoAU6Lb2dkvQO+VGpflU1H4Hs94NYD4wZAYIKwYB
BQUHAQEEWDBWMCkGCCsGAQUFBzABhh1odHRwOi8vY2Euc29tZWNhLWluYy5jb20v
b2NzcDApBggrBgEFBQcwAoYdaHR0cDovL2NhLnNvbWVjYS1pbmMuY29tL3Jvb3Qw
EwYDVR0gBAwwCjAIBgZngQwBAgIwLQYDVR0fBCYwJDAioCCgHoYcaHR0cDovL2Nh
LnNvbWVjYS1pbmMuY29tL2NybDANBgkqhkiG9w0BAQsFAAOCAgEAY30pKGx0zSOs
2fy+9gx2bFttMQrsYZ+6NmYh4iJnDS0OQIeSnw5NHFTPex+MjjNUrY/HziO+JGy/
N8JravKHWsP2tNRk05Bn/ugAnON2W13Hk4g/re/Ks56gIiZhqVSToW0i9SY0zyKf
AiQiJeKDCsy+Zpeizdux6tzvMfiAv58KaBzpmL4HWhmin+40GZ4VC7UePTZxjiXM
eFkLCSn3b1IEEDreHFwq3pG7a6Yuvm+Cq/lVZgou0D3fuvcM/qlKI+POODg1MacS
G7937IQwOkx67ZeP2LCiOtKLNq60s53pZEqUnRFAz4XQ/5GUi0xXmF39fYHit3W+
NpFAjtq0YQP5excpOrINrn8lYL7H0bzH+83H/ijP8ZmHMIRmRU8eZD9gQcJ1DEj3
FI6YOY+JZgF7DAOdUcLR5D8m/RO/lNOvBfIo8X+6bkpLaPwZyJz6/6Pt0DUIo4sh
DbXKxQKos1agMSR1MkZ+YVNgcN3PiOGuPUB1w3fKBIa/p4vttT9mkDnQnAzWTGuC
4aLifq8HzmUJkSckja6oeAWYdWiYaGTjfUA+wpTl1v1EJwgGCITmoqMVr3yNADSq
+KM8ImnhUShIlGcZToi/7PAIE2RcWd1pZacglp+Q0/2yB9Ck8Gef0GLQjpAilqXG
gy4PFt31jv10Hzh3UOBw64KUZdiJHoc=
-----END CERTIFICATE-----
