Certificate:
    Data:
        Version: 3 (0x2)
        Serial Number:
            68:93:d2:ef:ba:51:8d:9f:83:2e:4f:2b:82:cd:95:e7
        Signature Algorithm: sha256WithRSAEncryption
        Issuer: C = XX, O = Some CA, CN = Fake Root CA for zlint testing
        Validity
            Not Before: Jun  5 06:20:32 2025 GMT
            Not After : Jun  4 06:20:32 2030 GMT
        Subject: C = XX, ST = Some State, L = Some Locality, O = Some CA, CN = Fake CA for zlint testing
        Subject Public Key Info:
            Public Key Algorithm: rsaEncryption
                RSA Public-Key: (4096 bit)
                Modulus:
                    00:af:4c:49:ea:c6:63:c6:65:19:42:21:52:c9:6d:
                    7c:80:49:71:3b:df:21:70:83:fe:ea:16:ea:4e:21:
                    9c:1a:21:3d:37:d6:a0:04:e1:c0:0f:a9:de:95:4e:
                    8a:ef:58:3b:86:b6:d3:f8:51:0b:9f:c5:4a:36:15:
                    4f:0d:cf:cb:2d:27:a6:c3:8f:18:66:47:e6:71:8d:
                    b5:20:69:91:85:c2:8a:f3:a4:4f:37:15:38:b3:d5:
                    bb:51:7c:e1:b5:2c:fe:e8:2a:63:9a:ce:04:67:95:
                    1a:e8:f5:aa:2d:89:9d:7b:d9:dc:b1:a5:9b:2d:85:
                    90:74:52:a8:87:5b:c3:0e:d0:37:65:b4:5d:81:9b:
                    ef:e9:52:07:56:15:9b:45:0b:71:c6:5c:37:9f:f6:
                    a4:e7:c2:49:ad:9e:82:03:72:7d:a4:18:da:03:9c:
                    35:95:2d:cb:7a:91:79:af:76:ed:1b:1b:46:2c:9c:
                    2b:90:aa:d3:b1:bc:c4:24:c6:7f:19:61:60:82:48:
                    a8:59:ca:6a:eb:16:f2:12:75:82:75:f0:4d:20:9f:
                    9b:22:bb:21:cf:8d:d8:9c:d1:99:35:18:20:30:b0:
                    5d:e7:f0:86:5a:1f:f7:d9:45:f2:82:e2:b0:01:9b:
                    dd:c4:7a:72:83:4f:5a:5b:11:82:ae:e6:e0:ec:c5:
                    b2:ec:6f:cc:d6:8e:62:b9:37:2a:45:96:46:ac:2b:
                    7b:dd:9f:61:f9:76:73:7b:8d:ae:02:25:cb:92:2c:
                    e8:88:5e:45:d4:30:b5:30:2f:9a:58:34:ef:65:0f:
                    44:d6:3b:84:95:a0:61:8e:fc:47:9d:ed:d5:b5:ce:
                    61:88:a6:b9:22:d3:37:3e:b9:ac:f0:ae:20:4a:bb:
                    b4:a4:95:c5:11:39:a3:17:6e:9c:14:b6:93:0e:cc:
                    49:0d:18:0f:92:d6:99:a6:4e:ea:2f:ad:89:30:da:
                    81:19:47:20:04:71:ea:b0:93:e9:40:87:8f:bb:a7:
                    d1:b5:8d:06:17:6e:9a:cd:53:19:ed:ec:e9:d7:73:
                    53:e4:e7:9b:f5:ad:70:29:1f:4a:ec:00:f3:69:80:
                    cb:89:69:d4:d2:ad:33:5d:08:d8:8b:5c:e0:fe:c8:
                    a4:42:13:ee:1f:94:12:93:06:44:29:4d:be:cb:75:
                    b1:fb:0b:70:61:3f:ea:14:eb:ab:a4:4c:bc:6e:47:
                    69:78:36:0d:83:cb:96:17:a5:84:5d:08:87:3f:fa:
                    c5:62:02:25:23:68:f8:20:3a:aa:48:e8:98:c3:29:
                    8b:13:f2:4e:04:b0:92:58:c3:8f:16:38:a0:0e:f0:
                    54:24:14:17:22:fb:1e:aa:82:d6:e0:f0:c2:7c:5a:
                    85:fe:8f
                Exponent: 65537 (0x10001)
        X509v3 extensions:
            X509v3 Key Usage: critical
                Certificate Sign, CRL Sign
            X509v3 Extended Key Usage: 
                TLS Web Client Authentication, TLS Web Server Authentication
            X509v3 Basic Constraints: critical
                CA:TRUE
            X509v3 Subject Key Identifier: 
                F8:C6:78:32:BB:59:83:9F:8D:0E:00:DC:CF:89:C3:F1:38:82:71:E2
            X509v3 Authority Key Identifier: 
                keyid:E8:B6:F6:76:4B:D0:3B:E5:46:A5:F9:54:D4:7E:07:B3:DE:0D:60:3E

            Authority Information Access: 
                OCSP - URI:http://ca.someca-inc.com/ocsp
                CA Issuers - URI:http://ca.someca-inc.com/root

            X509v3 Certificate Policies: 
                Policy: 2.23.140.1.2.1
                Policy: 2.23.140.1.2.2
                Policy: 2.23.140.1.1

            X509v3 CRL Distribution Points: 

                Full Name:
                  URI:http://ca.someca-inc.com/crl

    Signature Algorithm: sha256WithRSAEncryption
         41:32:07:1d:9a:29:f1:c3:7c:65:c9:06:fc:f6:1b:43:c1:05:
         f2:4f:a3:cb:8b:44:f4:9c:1f:37:b8:12:41:68:2c:f1:ab:00:
         36:f6:bf:2a:6b:56:bb:be:f0:c1:70:37:d1:4f:b4:8e:29:b9:
         1a:75:7a:b2:35:60:bf:b8:ce:39:d7:dd:e1:5c:43:06:34:3c:
         79:ed:07:a4:23:88:49:7b:35:7c:59:71:81:ed:67:dd:c5:a8:
         83:d0:29:ea:61:fc:db:9c:5c:95:65:41:39:43:65:fc:ad:35:
         79:eb:af:83:53:df:e8:d2:e0:32:45:b8:8f:d7:cf:cc:20:76:
         9b:11:a4:86:91:8b:d5:f8:72:47:31:01:04:c4:98:e4:74:5f:
         dd:c4:77:1b:57:73:79:9f:94:8e:1e:2e:43:37:81:f1:43:5a:
         fe:3f:5d:41:9c:5b:fa:cb:c8:f0:d5:21:d1:3a:ce:d9:e2:57:
         7d:c6:5d:ad:f2:2c:65:75:10:46:f7:11:6e:51:8a:37:ec:5e:
         df:0d:b5:5a:7b:86:22:5e:e3:62:75:d9:c3:45:49:ac:f7:21:
         9b:ba:17:aa:42:35:be:e0:37:a9:c6:56:f7:9f:e9:39:9a:be:
         4f:c0:f2:1d:20:d9:41:3f:37:d2:28:eb:d2:7b:a5:7e:98:e8:
         8f:b5:ad:e3:89:9d:5d:23:85:14:8a:60:2f:39:c7:50:0e:4d:
         9d:5a:4c:70:c7:c0:9a:56:4a:1c:d4:0a:da:72:89:e4:63:45:
         bb:2b:e1:3d:29:65:c9:3a:96:d7:20:d0:84:f7:7a:5f:bf:66:
         bb:18:5b:bc:7b:1f:bc:a4:4c:ea:1a:b8:19:62:81:d7:b1:59:
         b4:79:9a:59:31:a3:f1:a3:6e:22:7c:de:58:3f:8d:28:f5:81:
         2d:71:94:4a:2c:e1:b0:54:8d:91:2f:fd:2b:df:d3:25:45:1c:
         83:8e:d1:78:1b:25:00:3f:30:06:2d:20:b1:a3:32:d2:d6:c6:
         40:2f:6b:cf:c1:80:2b:f6:cf:2a:0d:bf:06:8c:bb:07:f1:25:
         91:bb:68:23:5d:48:5a:aa:70:85:70:a9:b2:d9:a7:8c:e7:1a:
         7e:15:0f:da:02:ae:ae:a3:6e:fd:73:bb:95:5d:c8:f5:95:0f:
         57:20:56:53:0d:ff:c7:c2:b2:31:71:44:ae:7c:7c:ac:ad:2f:
         39:35:9b:4c:3e:26:c1:ce:44:da:ef:bf:61:0e:bf:03:4c:bf:
         d3:8c:18:63:99:b7:83:42:83:3b:a6:35:d7:27:f0:f2:35:61:
         9a:f0:b3:01:ce:20:94:c6:b3:36:32:66:46:e5:86:71:43:cb:
         66:67:2d:50:0c:a5:4f:29
-----BEGIN CERTIFICATE-----
MIIGhTCCBG2gAwIBAgIQaJPS77pRjZ+DLk8rgs2V5zANBgkqhkiG9w0BAQsFADBI
MQswCQYDVQQGEwJYWDEQMA4GA1UEChMHU29tZSBDQTEnMCUGA1UEAxMeRmFrZSBS
b290IENBIGZvciB6bGludCB0ZXN0aW5nMB4XDTI1MDYwNTA2MjAzMloXDTMwMDYw
NDA2MjAzMlowcDELMAkGA1UEBhMCWFgxEzARBgNVBAgTClNvbWUgU3RhdGUxFjAU
BgNVBAcTDVNvbWUgTG9jYWxpdHkxEDAOBgNVBAoTB1NvbWUgQ0ExIjAgBgNVBAMT
GUZha2UgQ0EgZm9yIHpsaW50IHRlc3RpbmcwggIiMA0GCSqGSIb3DQEBAQUAA4IC
DwAwggIKAoICAQCvTEnqxmPGZRlCIVLJbXyASXE73yFwg/7qFupOIZwaIT031qAE
4cAPqd6VTorvWDuGttP4UQufxUo2FU8Nz8stJ6bDjxhmR+ZxjbUgaZGFworzpE83
FTiz1btRfOG1LP7oKmOazgRnlRro9aotiZ172dyxpZsthZB0UqiHW8MO0DdltF2B
m+/pUgdWFZtFC3HGXDef9qTnwkmtnoIDcn2kGNoDnDWVLct6kXmvdu0bG0YsnCuQ
qtOxvMQkxn8ZYWCCSKhZymrrFvISdYJ18E0gn5siuyHPjdic0Zk1GCAwsF3n8IZa
H/fZRfKC4rABm93EenKDT1pbEYKu5uDsxbLsb8zWjmK5NypFlkasK3vdn2H5dnN7
ja4CJcuSLOiIXkXUMLUwL5pYNO9lD0TWO4SVoGGO/Eed7dW1zmGIprki0zc+uazw
riBKu7SklcUROaMXbpwUtpMOzEkNGA+S1pmmTuovrYkw2oEZRyAEceqwk+lAh4+7
p9G1jQYXbprNUxnt7OnXc1Pk55v1rXApH0rsAPNpgMuJadTSrTNdCNiLXOD+yKRC
E+4flBKTBkQpTb7LdbH7C3BhP+oU66ukTLxuR2l4Ng2Dy5YXpYRdCIc/+sViAiUj
aPggOqpI6JjDKYsT8k4EsJJYw48WOKAO8FQkFBci+x6qgtbg8MJ8WoX+jwIDAQAB
o4IBQTCCAT0wDgYDVR0PAQH/BAQDAgEGMB0GA1UdJQQWMBQGCCsGAQUFBwMCBggr
BgEFBQcDATAPBgNVHRMBAf8EBTADAQH/MB0GA1UdDgQWBBT4xngyu1mDn40OANzP
icPxOIJx4jAfBgNVHSMEGDAWgBTotvZ2S9A75Ual+VTUfgez3g1gPjBkBggrBgEF
BQcBAQRYMFYwKQYIKwYBBQUHMAGGHWh0dHA6Ly9jYS5zb21lY2EtaW5jLmNvbS9v
Y3NwMCkGCCsGAQUFBzAChh1odHRwOi8vY2Euc29tZWNhLWluYy5jb20vcm9vdDAm
BgNVHSAEHzAdMAgGBmeBDAECATAIBgZngQwBAgIwBwYFZ4EMAQEwLQYDVR0fBCYw
JDAioCCgHoYcaHR0cDovL2NhLnNvbWVjYS1pbmMuY29tL2NybDANBgkqhkiG9w0B
AQsFAAOCAgEAQTIHHZop8cN8ZckG/PYbQ8EF8k+jy4tE9JwfN7gSQWgs8asANva/
KmtWu77wwXA30U+0jim5GnV6sjVgv7jOOdfd4VxDBjQ8ee0HpCOISXs1fFlxge1n
3cWog9Ap6mH825xclWVBOUNl/K01eeuvg1Pf6NLgMkW4j9fPzCB2mxGkhpGL1fhy
RzEBBMSY5HRf3cR3G1dzeZ+Ujh4uQzeB8UNa/j9dQZxb+svI8NUh0TrO2eJXfcZd
rfIsZXUQRvcRblGKN+xe3w21WnuGIl7jYnXZw0VJrPchm7oXqkI1vuA3qcZW95/p
OZq+T8DyHSDZQT830ijr0nulfpjoj7Wt44mdXSOFFIpgLznHUA5NnVpMcMfAmlZK
HNQK2nKJ5GNFuyvhPSllyTqW1yDQhPd6X79muxhbvHsfvKRM6hq4GWKB17FZtHma
WTGj8aNuInzeWD+NKPWBLXGUSizhsFSNkS/9K9/TJUUcg47ReBslAD8wBi0gsaMy
0tbGQC9rz8GAK/bPKg2/Boy7B/ElkbtoI11IWqpwhXCpstmnjOcafhUP2gKurqNu
/XO7lV3I9ZUPVyBWUw3/x8KyMXFErnx8rK0vOTWbTD4mwc5E2u+/YQ6/A0y/04wY
Y5m3g0KDO6Y11yfw8jVhmvCzAc4glMazNjJmRuWGcUPLZmctUAylTyk=
-----END CERTIFICATE-----
