Certificate:
    Data:
        Version: 3 (0x2)
        Serial Number:
            70:92:af:77:18:28:07:2a:ae:ff:b1:6f:e3:82:54:7f
        Signature Algorithm: sha256WithRSAEncryption
        Issuer: C = XX, O = Some CA, CN = Fake Root CA for zlint testing
        Validity
            Not Before: Jun  5 08:49:59 2025 GMT
            Not After : Jun  4 08:49:59 2030 GMT
        Subject: C = XX, ST = Some State, L = Some Locality, O = Some CA, CN = Fake CA for zlint testing
        Subject Public Key Info:
            Public Key Algorithm: rsaEncryption
                RSA Public-Key: (4096 bit)
                Modulus:
                    00:c7:c1:3c:f9:8e:bf:51:1b:c3:b5:c2:d5:02:02:
                    3c:7e:f9:9b:42:9a:92:1e:92:5a:96:51:bc:1f:0d:
                    08:eb:2b:82:4f:f7:37:bd:84:97:ea:b1:cd:b9:03:
                    17:25:84:4d:34:85:07:70:27:f1:59:3f:ae:db:7d:
                    86:df:eb:51:f4:4b:d2:08:41:c2:3a:26:a6:93:16:
                    3b:9a:c4:ac:3f:d7:34:2f:a4:8e:73:88:e3:fd:59:
                    9d:54:61:40:76:56:d5:83:ac:81:8e:79:6f:3b:88:
                    58:52:ae:3b:ac:92:30:25:8b:8e:11:97:db:90:ab:
                    27:25:81:70:6d:5e:79:51:43:14:9d:a8:74:32:1d:
                    d9:4c:3d:67:4c:1d:b7:d4:46:f6:ca:6d:9f:cc:02:
                    e6:fb:0b:25:5d:fd:b1:b2:68:c8:c8:a8:51:a0:91:
                    66:60:5e:5f:bf:87:ea:3d:0b:b3:24:8d:ee:75:ba:
                    f2:e0:59:ca:11:1e:97:7a:c4:00:f7:12:be:78:c6:
                    dc:7a:57:87:d5:e2:9f:4f:fa:c8:fb:97:31:7e:f1:
                    7b:bc:65:83:27:8e:86:ea:f2:f0:32:5d:83:c8:08:
                    77:28:9c:49:3f:37:fc:fc:b9:b6:21:f3:48:a2:7e:
                    ab:e4:36:00:d8:7e:72:b4:78:53:8d:28:3b:39:0d:
                    f4:69:69:52:93:0c:ff:2b:ae:14:b6:38:99:d1:bc:
                    9e:1d:c8:61:43:f7:5f:a0:d6:aa:ca:f9:fc:e0:16:
                    33:d3:76:c5:34:cb:a2:64:88:d7:74:24:99:67:42:
                    d5:b9:8e:18:01:28:fd:54:b1:d5:f1:b0:d9:db:cc:
                    dd:4e:dc:36:d0:32:8f:af:14:8d:a9:c5:23:fb:2d:
                    7d:82:56:f5:cf:8d:91:8b:25:a1:8f:2e:d0:57:a6:
                    2b:27:0a:6b:93:1b:f6:b5:cb:75:f0:54:f2:c1:9d:
                    f2:60:b8:41:7f:d7:55:90:81:12:9c:40:74:3b:d8:
                    38:17:c8:a5:3a:3f:00:91:bd:50:f9:86:a1:1e:d8:
                    34:3c:6d:37:42:b1:ef:25:f3:f5:d4:c9:45:6b:a9:
                    bc:e6:1c:19:a7:92:a5:07:d1:c3:3f:92:dd:17:31:
                    0d:ad:a4:17:10:84:5e:f6:d7:1d:f3:00:61:21:21:
                    69:4c:a1:c6:62:bc:71:fa:3b:29:ed:10:72:e2:ce:
                    45:97:e9:81:9e:d0:5a:23:9b:b3:64:ed:eb:7f:5a:
                    24:61:90:45:69:82:b8:21:52:c3:7e:5e:49:e6:da:
                    1f:84:22:03:75:ff:43:0d:81:90:bf:3e:f4:d2:f0:
                    4c:0b:e8:9a:0d:8b:eb:bb:bc:7c:6f:e1:f9:ba:46:
                    b3:91:27
                Exponent: 65537 (0x10001)
        X509v3 extensions:
            X509v3 Key Usage: critical
                Certificate Sign, CRL Sign
            X509v3 Extended Key Usage: 
                TLS Web Client Authentication, TLS Web Server Authentication
            X509v3 Basic Constraints: critical
                CA:TRUE
            X509v3 Subject Key Identifier: 
                F5:59:A0:FC:BB:AF:86:A5:24:05:DB:DB:F8:6E:75:C8:E9:7B:49:0E
            X509v3 Authority Key Identifier: 
                keyid:E8:B6:F6:76:4B:D0:3B:E5:46:A5:F9:54:D4:7E:07:B3:DE:0D:60:3E

            Authority Information Access: 
                OCSP - URI:http://ca.someca-inc.com/ocsp
                CA Issuers - URI:http://ca.someca-inc.com/root

            X509v3 Certificate Policies: 
                Policy: 2.23.140.1.1
                Policy: 2.23.140.1.2.2

            X509v3 CRL Distribution Points: 

                Full Name:
                  URI:http://ca.someca-inc.com/crl

    Signature Algorithm: sha256WithRSAEncryption
         b8:c3:ab:a9:df:cd:f3:89:c0:de:73:8b:3c:6c:69:4a:2c:b2:
         9f:4a:37:16:f9:2b:aa:08:a1:a3:3c:72:fd:59:91:59:3e:19:
         b9:e9:da:99:79:8c:ee:a4:98:d4:68:d5:96:ee:c3:e2:cb:32:
         71:30:9f:18:c0:32:64:24:74:a5:2a:6f:f2:93:c2:4b:45:2a:
         21:45:22:04:6a:47:8b:dc:68:6a:01:37:3e:15:f6:04:9d:6d:
         19:5a:dd:0c:05:62:63:6e:c1:0a:e3:c3:c7:86:58:8f:2b:5d:
         74:07:73:34:b4:db:c5:29:0c:fb:1c:ae:d5:79:1d:0a:da:d7:
         ba:33:1b:d3:e4:0f:88:6b:90:88:4a:52:4f:eb:9a:02:cf:2b:
         7a:2b:42:40:81:1e:38:ef:44:4b:54:ec:52:81:8f:a9:7e:6d:
         fb:df:8f:60:9b:bb:c8:98:d7:23:76:73:7a:a6:79:c3:e5:f5:
         49:23:76:1f:7b:ed:b9:2b:8b:c3:43:5c:5c:23:d1:01:1c:bd:
         e9:09:b0:e7:83:33:1e:e1:14:e7:d4:69:3d:4e:89:ce:b6:05:
         1c:20:d2:e5:42:8c:04:16:72:73:0e:2e:cd:d9:72:52:bc:2f:
         e4:d0:61:be:c5:60:5b:be:fc:34:be:9e:60:4b:5e:0f:25:e8:
         49:d1:86:e5:e7:a8:30:bd:b9:ef:52:f3:a7:20:e4:0a:d3:c8:
         62:92:12:68:3e:46:dc:2b:5d:b2:5d:0b:af:96:68:0f:a4:ee:
         b8:58:0d:f5:cb:c9:d7:37:7b:3c:b4:c0:70:db:73:fb:66:9b:
         54:6c:af:21:e8:8b:6f:63:8f:d9:89:15:10:e2:b7:0e:c5:ac:
         60:4d:ae:f7:28:5c:32:f6:3c:96:be:fa:35:fa:93:b9:76:be:
         42:8a:96:30:2e:a9:7c:de:4a:9c:b2:b2:6f:3b:82:98:fb:79:
         3d:03:fb:e9:b5:28:f6:e5:7a:b0:20:b6:6a:ab:3a:02:8b:c7:
         50:ea:70:9d:8b:bf:fd:c9:b7:24:49:bf:db:3c:18:c6:59:9e:
         8f:42:96:3f:2a:ff:a0:ec:7a:fb:07:47:43:26:4a:ef:6d:93:
         cf:7b:ac:1f:0a:2d:91:bc:3f:9e:9c:8f:df:b8:ee:3c:33:15:
         84:18:ef:e6:2d:ae:51:64:a1:c9:8d:7f:79:22:2e:dd:b6:98:
         29:58:5d:75:87:a8:03:1d:2f:eb:aa:33:c8:40:35:fd:e9:ca:
         4a:5d:a5:f2:e1:9d:13:e5:2d:9f:10:4e:85:33:de:a0:d8:00:
         35:03:8a:94:50:82:7b:d8:5b:e1:cb:1b:d9:ce:79:86:2a:85:
         df:87:a2:5d:82:44:df:46
-----BEGIN CERTIFICATE-----
MIIGezCCBGOgAwIBAgIQcJKvdxgoByqu/7Fv44JUfzANBgkqhkiG9w0BAQsFADBI
MQswCQYDVQQGEwJYWDEQMA4GA1UEChMHU29tZSBDQTEnMCUGA1UEAxMeRmFrZSBS
b290IENBIGZvciB6bGludCB0ZXN0aW5nMB4XDTI1MDYwNTA4NDk1OVoXDTMwMDYw
NDA4NDk1OVowcDELMAkGA1UEBhMCWFgxEzARBgNVBAgTClNvbWUgU3RhdGUxFjAU
BgNVBAcTDVNvbWUgTG9jYWxpdHkxEDAOBgNVBAoTB1NvbWUgQ0ExIjAgBgNVBAMT
GUZha2UgQ0EgZm9yIHpsaW50IHRlc3RpbmcwggIiMA0GCSqGSIb3DQEBAQUAA4IC
DwAwggIKAoICAQDHwTz5jr9RG8O1wtUCAjx++ZtCmpIeklqWUbwfDQjrK4JP9ze9
hJfqsc25AxclhE00hQdwJ/FZP67bfYbf61H0S9IIQcI6JqaTFjuaxKw/1zQvpI5z
iOP9WZ1UYUB2VtWDrIGOeW87iFhSrjuskjAli44Rl9uQqyclgXBtXnlRQxSdqHQy
HdlMPWdMHbfURvbKbZ/MAub7CyVd/bGyaMjIqFGgkWZgXl+/h+o9C7Mkje51uvLg
WcoRHpd6xAD3Er54xtx6V4fV4p9P+sj7lzF+8Xu8ZYMnjobq8vAyXYPICHconEk/
N/z8ubYh80iifqvkNgDYfnK0eFONKDs5DfRpaVKTDP8rrhS2OJnRvJ4dyGFD91+g
1qrK+fzgFjPTdsU0y6JkiNd0JJlnQtW5jhgBKP1UsdXxsNnbzN1O3DbQMo+vFI2p
xSP7LX2CVvXPjZGLJaGPLtBXpisnCmuTG/a1y3XwVPLBnfJguEF/11WQgRKcQHQ7
2DgXyKU6PwCRvVD5hqEe2DQ8bTdCse8l8/XUyUVrqbzmHBmnkqUH0cM/kt0XMQ2t
pBcQhF721x3zAGEhIWlMocZivHH6OyntEHLizkWX6YGe0Fojm7Nk7et/WiRhkEVp
grghUsN+Xknm2h+EIgN1/0MNgZC/PvTS8EwL6JoNi+u7vHxv4fm6RrORJwIDAQAB
o4IBNzCCATMwDgYDVR0PAQH/BAQDAgEGMB0GA1UdJQQWMBQGCCsGAQUFBwMCBggr
BgEFBQcDATAPBgNVHRMBAf8EBTADAQH/MB0GA1UdDgQWBBT1WaD8u6+GpSQF29v4
bnXI6XtJDjAfBgNVHSMEGDAWgBTotvZ2S9A75Ual+VTUfgez3g1gPjBkBggrBgEF
BQcBAQRYMFYwKQYIKwYBBQUHMAGGHWh0dHA6Ly9jYS5zb21lY2EtaW5jLmNvbS9v
Y3NwMCkGCCsGAQUFBzAChh1odHRwOi8vY2Euc29tZWNhLWluYy5jb20vcm9vdDAc
BgNVHSAEFTATMAcGBWeBDAEBMAgGBmeBDAECAjAtBgNVHR8EJjAkMCKgIKAehhxo
dHRwOi8vY2Euc29tZWNhLWluYy5jb20vY3JsMA0GCSqGSIb3DQEBCwUAA4ICAQC4
w6up383zicDec4s8bGlKLLKfSjcW+SuqCKGjPHL9WZFZPhm56dqZeYzupJjUaNWW
7sPiyzJxMJ8YwDJkJHSlKm/yk8JLRSohRSIEakeL3GhqATc+FfYEnW0ZWt0MBWJj
bsEK48PHhliPK110B3M0tNvFKQz7HK7VeR0K2te6MxvT5A+Ia5CISlJP65oCzyt6
K0JAgR4470RLVOxSgY+pfm37349gm7vImNcjdnN6pnnD5fVJI3Yfe+25K4vDQ1xc
I9EBHL3pCbDngzMe4RTn1Gk9TonOtgUcINLlQowEFnJzDi7N2XJSvC/k0GG+xWBb
vvw0vp5gS14PJehJ0Ybl56gwvbnvUvOnIOQK08hikhJoPkbcK12yXQuvlmgPpO64
WA31y8nXN3s8tMBw23P7ZptUbK8h6ItvY4/ZiRUQ4rcOxaxgTa73KFwy9jyWvvo1
+pO5dr5CipYwLql83kqcsrJvO4KY+3k9A/vptSj25XqwILZqqzoCi8dQ6nCdi7/9
ybckSb/bPBjGWZ6PQpY/Kv+g7Hr7B0dDJkrvbZPPe6wfCi2RvD+enI/fuO48MxWE
GO/mLa5RZKHJjX95Ii7dtpgpWF11h6gDHS/rqjPIQDX96cpKXaXy4Z0T5S2fEE6F
M96g2AA1A4qUUIJ72FvhyxvZznmGKoXfh6JdgkTfRg==
-----END CERTIFICATE-----
