Certificate:
    Data:
        Version: 3 (0x2)
        Serial Number:
            8e:89:1f:28:db:d7:1c:93:7b:97:3c:96:f7:f1:35:4c
        Signature Algorithm: sha256WithRSAEncryption
        Issuer: C = XX, ST = Some State, L = Some Locality, O = Some Organization, CN = Fake Root CA for zlint testing
        Validity
            Not Before: Jun  5 07:02:21 2025 GMT
            Not After : Jun  4 07:02:21 2030 GMT
        Subject: C = XX, ST = Some State, L = Some Locality, O = Some Organization, CN = Fake Root CA for zlint testing
        Subject Public Key Info:
            Public Key Algorithm: rsaEncryption
                RSA Public-Key: (4096 bit)
                Modulus:
                    00:a1:3c:69:54:9b:9a:e9:be:c5:00:7f:0b:86:31:
                    81:b9:4f:4a:8c:5f:52:85:13:0e:5b:4c:4f:05:83:
                    03:1f:a6:1a:46:ab:a8:4d:b4:b2:d6:17:69:da:45:
                    59:bb:eb:21:9a:f2:dc:17:94:7d:7e:06:cd:59:80:
                    93:1b:5e:5e:a5:1d:fd:6d:54:7b:9a:7e:c6:f7:0a:
                    a1:e0:cb:66:60:01:52:19:f9:35:d8:75:20:6d:ba:
                    75:a1:2f:5e:91:f8:3d:61:24:5f:c8:f4:bd:5a:82:
                    c3:a5:bf:3f:ca:a0:7c:3a:a8:04:84:08:b0:45:e5:
                    7d:15:1c:64:62:a8:e2:39:f2:da:90:01:59:d0:eb:
                    d9:db:15:dc:64:8d:aa:d2:d6:8a:20:14:3a:fb:d4:
                    be:eb:7b:ec:ae:a2:8e:aa:19:23:e6:e5:35:9b:00:
                    cb:24:13:2a:fe:52:a3:dc:93:b4:ab:d8:78:34:c7:
                    11:1c:b3:a5:f1:fd:3f:57:d6:ff:cf:fb:94:8e:ec:
                    ed:27:4c:07:b9:45:c3:e0:89:1c:72:70:3e:8a:3f:
                    54:46:74:18:aa:af:b6:ac:2a:09:e1:a2:c5:f5:40:
                    88:30:48:3d:f1:95:a5:9a:2d:81:44:9b:43:f0:7d:
                    15:a6:a3:af:90:72:b5:74:f4:12:cc:b4:9f:36:11:
                    4a:e9:37:78:ec:9f:d7:23:4c:7c:1c:d0:3e:2c:c4:
                    5d:90:e6:72:27:dc:73:36:c7:37:e8:17:d8:0d:87:
                    41:a6:44:a1:7f:0d:3e:73:89:fb:d3:5c:01:5b:69:
                    53:c7:b6:ec:87:ce:0f:56:75:1d:1a:5a:63:7e:cb:
                    13:8d:ce:42:85:ad:a8:ca:f7:e9:96:26:60:e3:56:
                    02:d0:27:3c:c8:a9:94:dd:ef:15:46:2e:4d:a8:b3:
                    fb:51:29:99:54:8b:14:91:38:48:76:10:43:6f:49:
                    ec:23:ff:d5:07:cc:64:5d:e8:3d:92:78:0b:fa:bb:
                    c6:82:9a:e9:42:94:83:77:f0:7b:63:9e:2c:67:77:
                    df:48:5a:31:3f:68:72:44:ac:f6:f9:89:87:3d:9c:
                    1a:cb:af:4b:18:1a:7a:fe:0f:85:02:c7:3d:a8:9b:
                    87:48:a9:66:49:4c:21:33:d8:a7:8b:64:8e:e9:5b:
                    46:71:34:c2:5a:c9:37:92:d2:37:ca:f3:d8:bb:a4:
                    8d:9c:a0:57:ed:76:7f:52:38:a6:fd:1a:5b:f3:ec:
                    0c:72:0e:9f:22:d1:9d:34:8e:7d:be:05:31:72:c1:
                    f7:0c:90:c0:b4:07:51:23:e9:70:55:f2:5b:4c:8d:
                    23:5f:90:25:28:3d:a3:ba:4d:34:54:b2:44:3d:8c:
                    a2:e1:09
                Exponent: 65537 (0x10001)
        X509v3 extensions:
            X509v3 Key Usage: critical
                Certificate Sign, CRL Sign
            X509v3 Basic Constraints: critical
                CA:TRUE
            X509v3 Subject Key Identifier: 
                90:BF:57:77:EA:12:21:AF:C3:28:7F:7C:E6:17:D5:07:0B:EC:50:6E
    Signature Algorithm: sha256WithRSAEncryption
         85:25:46:12:f0:9a:5f:66:47:15:91:4c:a6:36:d8:71:0c:9b:
         ff:a9:8d:aa:e6:dd:a1:6b:e6:62:5c:31:a3:87:bc:a3:c2:da:
         cd:8c:7e:76:03:d0:c8:60:08:42:32:c2:0f:46:76:1f:0f:46:
         88:d3:37:e4:71:9d:9c:4f:5c:60:a5:f8:59:a2:3d:a0:62:4f:
         58:12:dd:ca:04:d3:2c:a1:8a:76:12:f0:35:89:de:32:d8:4d:
         8f:76:3b:50:98:92:2f:29:73:93:93:ca:bb:8d:45:8c:11:90:
         0f:23:f3:e6:be:08:9f:f5:a4:da:8a:c0:07:43:d3:57:ba:0d:
         5c:6b:2f:95:a8:ed:40:a4:f8:08:51:50:d9:86:14:09:8f:84:
         5f:82:0b:28:4c:7f:96:ec:20:29:da:72:6e:86:df:07:cc:47:
         be:6f:50:5f:2a:f6:ff:a0:d2:e5:79:df:d9:87:be:8c:39:f0:
         f7:ba:8c:32:b1:dc:57:db:6d:b7:c9:25:5d:ae:0f:d1:8f:5d:
         95:5f:db:b3:d0:f1:14:f4:6c:e7:f7:38:a3:6f:f9:21:dd:ce:
         3f:f5:19:2f:37:12:99:20:ad:e1:d3:41:23:28:94:77:30:88:
         ba:f7:d5:68:0a:8b:43:46:76:68:2e:1d:45:0e:63:44:79:35:
         30:ca:7c:99:4f:e3:00:b1:0e:ad:5f:60:a0:93:96:7e:9a:e8:
         16:88:bf:23:25:88:3f:61:36:06:84:83:f9:c4:59:35:c5:be:
         fa:a9:ac:f9:60:d6:c5:c7:f2:2c:52:ef:55:d6:21:d6:8d:0d:
         1c:e8:c1:40:4b:eb:90:bf:76:3f:e6:c5:2b:12:60:d1:69:64:
         1b:40:c5:3c:e8:9e:45:cf:b8:26:63:c9:8b:47:de:bd:65:c5:
         53:8e:b8:da:31:66:6f:15:cf:f9:ba:05:80:85:a5:ab:3f:f4:
         7f:b0:ec:03:cd:90:c6:f7:5f:db:53:6a:02:30:23:7b:3b:96:
         3d:dc:69:e4:e4:b9:77:ec:1e:a1:81:00:d7:1b:a7:97:e3:eb:
         db:b7:1f:6c:6c:fe:af:94:78:54:8a:14:7c:8e:e1:c2:da:31:
         3d:05:61:03:2a:c5:24:be:17:75:5e:16:ed:76:aa:f4:cf:b2:
         0b:c6:57:d8:c1:22:b9:cf:ad:fb:c9:5a:0c:bd:50:b5:f8:2f:
         4a:45:eb:4a:5a:8b:d2:6a:c6:d0:79:30:d9:b9:eb:2c:42:7a:
         4d:93:c1:d2:27:9a:94:a9:cd:47:9c:1c:ed:4f:6f:dc:97:b8:
         8b:da:90:9b:66:27:37:ec:af:50:a2:f7:01:77:c4:1c:45:3d:
         c1:c9:37:2f:fe:15:bd:f1
-----BEGIN CERTIFICATE-----
MIIFyzCCA7OgAwIBAgIRAI6JHyjb1xyTe5c8lvfxNUwwDQYJKoZIhvcNAQELBQAw
fzELMAkGA1UEBhMCWFgxEzARBgNVBAgTClNvbWUgU3RhdGUxFjAUBgNVBAcTDVNv
bWUgTG9jYWxpdHkxGjAYBgNVBAoTEVNvbWUgT3JnYW5pemF0aW9uMScwJQYDVQQD
Ex5GYWtlIFJvb3QgQ0EgZm9yIHpsaW50IHRlc3RpbmcwHhcNMjUwNjA1MDcwMjIx
WhcNMzAwNjA0MDcwMjIxWjB/MQswCQYDVQQGEwJYWDETMBEGA1UECBMKU29tZSBT
dGF0ZTEWMBQGA1UEBxMNU29tZSBMb2NhbGl0eTEaMBgGA1UEChMRU29tZSBPcmdh
bml6YXRpb24xJzAlBgNVBAMTHkZha2UgUm9vdCBDQSBmb3IgemxpbnQgdGVzdGlu
ZzCCAiIwDQYJKoZIhvcNAQEBBQADggIPADCCAgoCggIBAKE8aVSbmum+xQB/C4Yx
gblPSoxfUoUTDltMTwWDAx+mGkarqE20stYXadpFWbvrIZry3BeUfX4GzVmAkxte
XqUd/W1Ue5p+xvcKoeDLZmABUhn5Ndh1IG26daEvXpH4PWEkX8j0vVqCw6W/P8qg
fDqoBIQIsEXlfRUcZGKo4jny2pABWdDr2dsV3GSNqtLWiiAUOvvUvut77K6ijqoZ
I+blNZsAyyQTKv5So9yTtKvYeDTHERyzpfH9P1fW/8/7lI7s7SdMB7lFw+CJHHJw
Poo/VEZ0GKqvtqwqCeGixfVAiDBIPfGVpZotgUSbQ/B9Faajr5BytXT0Esy0nzYR
Suk3eOyf1yNMfBzQPizEXZDmcifcczbHN+gX2A2HQaZEoX8NPnOJ+9NcAVtpU8e2
7IfOD1Z1HRpaY37LE43OQoWtqMr36ZYmYONWAtAnPMiplN3vFUYuTaiz+1EpmVSL
FJE4SHYQQ29J7CP/1QfMZF3oPZJ4C/q7xoKa6UKUg3fwe2OeLGd330haMT9ockSs
9vmJhz2cGsuvSxgaev4PhQLHPaibh0ipZklMITPYp4tkjulbRnE0wlrJN5LSN8rz
2LukjZygV+12f1I4pv0aW/PsDHIOnyLRnTSOfb4FMXLB9wyQwLQHUSPpcFXyW0yN
I1+QJSg9o7pNNFSyRD2MouEJAgMBAAGjQjBAMA4GA1UdDwEB/wQEAwIBBjAPBgNV
HRMBAf8EBTADAQH/MB0GA1UdDgQWBBSQv1d36hIhr8Mof3zmF9UHC+xQbjANBgkq
hkiG9w0BAQsFAAOCAgEAhSVGEvCaX2ZHFZFMpjbYcQyb/6mNqubdoWvmYlwxo4e8
o8LazYx+dgPQyGAIQjLCD0Z2Hw9GiNM35HGdnE9cYKX4WaI9oGJPWBLdygTTLKGK
dhLwNYneMthNj3Y7UJiSLylzk5PKu41FjBGQDyPz5r4In/Wk2orAB0PTV7oNXGsv
lajtQKT4CFFQ2YYUCY+EX4ILKEx/luwgKdpybobfB8xHvm9QXyr2/6DS5Xnf2Ye+
jDnw97qMMrHcV9ttt8klXa4P0Y9dlV/bs9DxFPRs5/c4o2/5Id3OP/UZLzcSmSCt
4dNBIyiUdzCIuvfVaAqLQ0Z2aC4dRQ5jRHk1MMp8mU/jALEOrV9goJOWfproFoi/
IyWIP2E2BoSD+cRZNcW++qms+WDWxcfyLFLvVdYh1o0NHOjBQEvrkL92P+bFKxJg
0WlkG0DFPOieRc+4JmPJi0fevWXFU4642jFmbxXP+boFgIWlqz/0f7DsA82Qxvdf
21NqAjAjezuWPdxp5OS5d+weoYEA1xunl+Pr27cfbGz+r5R4VIoUfI7hwtoxPQVh
AyrFJL4XdV4W7Xaq9M+yC8ZX2MEiuc+t+8laDL1QtfgvSkXrSlqL0mrG0Hkw2bnr
LEJ6TZPB0iealKnNR5wc7U9v3Je4i9qQm2YnN+yvUKL3AXfEHEU9wck3L/4VvfE=
-----END CERTIFICATE-----
