Certificate:
    Data:
        Version: 3 (0x2)
        Serial Number:
            30:c6:9a:33:e1:01:5f:80:5e:35:74:f2:b7:f3:db:5b
        Signature Algorithm: sha256WithRSAEncryption
        Issuer: C = XX, O = Some CA, CN = Fake Root CA for zlint testing
        Validity
            Not Before: Jun  5 09:11:45 2025 GMT
            Not After : Jun  4 09:11:45 2030 GMT
        Subject: C = XX, ST = Some State, L = Some Locality, O = Some CA, CN = Fake CA for zlint testing
        Subject Public Key Info:
            Public Key Algorithm: rsaEncryption
                RSA Public-Key: (4096 bit)
                Modulus:
                    00:e3:ce:83:af:83:27:cb:4d:ff:d0:53:1e:59:3d:
                    83:8a:4a:62:29:36:86:11:39:83:b4:69:51:41:49:
                    6e:1f:01:7f:9d:f1:a8:32:71:9c:30:4e:98:c3:ae:
                    47:66:69:79:a9:0c:c9:46:99:5d:9a:63:cf:7e:10:
                    91:70:c6:e4:01:6b:f2:f7:df:e6:dc:d7:19:d5:3f:
                    35:d2:c9:d1:82:2a:11:b7:79:5c:44:ef:93:f1:9c:
                    59:9b:cb:f6:06:12:ef:ca:d1:d7:5e:fe:1f:dd:ef:
                    ae:8e:89:5f:ba:28:0b:b6:d6:ba:f3:11:b0:eb:c4:
                    46:fa:18:36:23:13:0b:75:5e:dc:11:90:23:03:69:
                    25:9b:11:ea:69:4f:50:0c:8b:61:64:88:b8:f9:cd:
                    d4:7f:14:a4:34:5d:17:09:b8:d7:12:ab:5b:47:86:
                    c9:89:b8:36:93:8b:d7:5b:38:37:79:e8:2d:66:50:
                    ac:69:76:8b:f6:47:94:34:c5:57:9d:de:76:e5:0b:
                    9b:b0:d3:d5:e4:c7:d8:81:fd:e0:89:98:a8:58:a5:
                    f4:f1:45:a3:e6:99:3d:65:a9:06:8d:09:11:6d:b1:
                    9c:d4:b6:2d:34:e8:b3:64:6c:08:ff:f7:39:03:d6:
                    f1:05:c7:d6:dd:fb:7e:9e:93:98:c0:3e:56:89:9d:
                    28:f3:67:ad:e1:1d:4a:25:74:7b:ff:5b:88:e0:4f:
                    f5:8d:a4:42:d5:76:43:3e:f7:53:0f:b9:46:59:8c:
                    d0:a9:8b:61:3a:7b:d4:04:3f:a8:08:27:03:c4:3f:
                    b6:8a:eb:c5:ba:a6:6c:4b:9d:eb:32:89:39:f5:9b:
                    cd:0f:3d:a0:83:38:78:89:f3:20:49:32:e8:d7:0b:
                    46:27:c2:01:f0:86:87:f9:9f:b7:b8:3c:4d:3f:7a:
                    cd:66:50:5f:00:32:e2:1b:ad:0f:f9:5d:82:df:bb:
                    c5:a8:36:69:89:3d:0a:a8:3f:f7:59:74:b1:96:9b:
                    00:51:a1:82:d0:39:6d:ea:4e:25:c2:01:5f:e9:87:
                    ac:af:75:af:b6:b0:b8:b3:b9:f5:ab:32:48:0a:f7:
                    cb:47:ab:05:05:d4:1c:89:90:4e:13:1d:67:43:42:
                    94:e3:4c:cd:b8:a1:52:9c:aa:c2:ea:01:b2:6d:77:
                    31:ab:6d:f9:42:2b:d5:74:6d:1f:2f:97:8f:60:b6:
                    69:c6:b3:be:fc:d8:3a:0a:26:8d:94:d0:59:c7:34:
                    47:8a:66:f1:35:48:bd:cd:6f:30:b0:fa:77:92:92:
                    08:a4:bf:f1:24:9a:b3:93:4f:52:13:da:3a:5e:d3:
                    7d:a2:8e:8e:fd:f0:96:04:31:06:af:68:97:6b:51:
                    d3:0a:d7
                Exponent: 65537 (0x10001)
        X509v3 extensions:
            X509v3 Key Usage: critical
                Certificate Sign, CRL Sign
            X509v3 Extended Key Usage: 
                TLS Web Client Authentication, TLS Web Server Authentication
            X509v3 Basic Constraints: critical
                CA:TRUE
            X509v3 Subject Key Identifier: 
                95:23:41:77:A7:85:52:F9:F2:B7:82:31:F7:26:A6:EC:83:A2:ED:26
            X509v3 Authority Key Identifier: 
                keyid:E8:B6:F6:76:4B:D0:3B:E5:46:A5:F9:54:D4:7E:07:B3:DE:0D:60:3E

            Authority Information Access: 
                OCSP - URI:http://ca.someca-inc.com/ocsp
                CA Issuers - URI:http://ca.someca-inc.com/root

            X509v3 Certificate Policies: 
                Policy: 2.23.140.1.2.3
                Policy: 2.23.140.1.2.2

            X509v3 CRL Distribution Points: 

                Full Name:
                  URI:http://ca.someca-inc.com/crl

    Signature Algorithm: sha256WithRSAEncryption
         45:72:66:c4:b1:e3:dd:94:cf:8c:3f:d3:c1:67:d5:13:f0:8f:
         e4:83:76:05:df:b9:d0:17:50:5e:c6:24:4f:bf:24:42:fe:59:
         92:f6:04:2b:35:8a:fb:11:55:d9:3e:49:ab:da:54:8f:20:8c:
         23:2a:9a:36:38:f7:48:81:77:30:32:b9:d6:f8:25:c6:79:08:
         23:fa:70:44:72:a4:a9:20:b8:63:08:6d:b6:ca:04:17:9d:01:
         50:ab:b2:64:00:1a:73:6b:b4:69:e2:a1:13:81:30:4e:20:81:
         3f:b7:b5:37:fc:3a:dc:e8:2b:8b:3d:c7:e0:ff:c2:f3:e0:f8:
         ce:cb:26:55:ca:f5:37:29:7a:bb:58:8e:75:09:45:70:24:d7:
         7e:28:02:4f:68:4c:12:9c:ba:27:f2:cc:fc:bd:2c:0f:e1:59:
         9d:56:9c:98:81:02:ec:8a:42:1d:1a:75:72:17:81:98:b2:6b:
         98:2a:25:63:39:5b:87:d1:7d:31:4b:80:86:2a:9c:3a:8f:bf:
         3b:5b:10:d1:47:df:d6:ed:77:4c:ea:3a:13:4d:5e:21:a6:d2:
         44:9f:ae:98:7f:ff:67:08:0b:1c:88:f7:85:57:bb:b8:47:3a:
         c6:e5:82:35:8d:e3:0c:ec:64:a1:9a:86:28:f4:cb:c4:38:d8:
         44:5f:1d:0e:94:4f:cf:49:72:5c:22:86:da:cb:dd:90:97:79:
         cb:48:6c:38:5d:76:08:54:77:45:6d:b4:cb:d5:43:dc:01:fc:
         e6:bc:8a:47:e2:a8:4d:d5:75:1e:14:0e:06:2e:7c:33:01:b6:
         52:b4:a3:25:81:5a:83:2b:f3:5e:8a:fc:26:80:f4:70:3f:16:
         bf:53:10:3c:48:a8:79:9e:ec:e0:4d:b9:28:6f:a6:47:ae:9a:
         3d:40:1f:73:cc:f3:1e:c9:89:94:d4:06:07:8c:e5:5c:8f:8f:
         08:b3:a3:d6:1a:7e:73:d2:62:99:8e:6d:3d:d1:16:17:b5:76:
         2d:8a:c6:f0:fc:32:c0:0c:ea:9e:fe:95:8b:7d:90:0b:cf:14:
         14:2a:f5:7b:3b:e6:2d:7a:e6:e4:09:cc:95:4a:fd:43:dd:52:
         b5:4b:31:9d:d0:3f:93:2a:07:c0:4e:a5:89:f1:dd:de:f7:b1:
         e0:2f:7a:5a:42:e1:a2:6b:0d:7b:25:9f:9f:b5:4f:d2:c6:60:
         2f:54:36:40:f7:98:fd:00:0b:39:49:34:6a:92:43:32:40:8d:
         9e:e2:60:ac:e4:92:b7:81:02:34:75:29:22:77:53:d4:21:1f:
         77:2d:45:06:8f:fc:2a:e3:36:25:40:15:fa:61:a8:31:25:7a:
         d5:16:9b:b2:52:98:04:e4
-----BEGIN CERTIFICATE-----
MIIGfDCCBGSgAwIBAgIQMMaaM+EBX4BeNXTyt/PbWzANBgkqhkiG9w0BAQsFADBI
MQswCQYDVQQGEwJYWDEQMA4GA1UEChMHU29tZSBDQTEnMCUGA1UEAxMeRmFrZSBS
b290IENBIGZvciB6bGludCB0ZXN0aW5nMB4XDTI1MDYwNTA5MTE0NVoXDTMwMDYw
NDA5MTE0NVowcDELMAkGA1UEBhMCWFgxEzARBgNVBAgTClNvbWUgU3RhdGUxFjAU
BgNVBAcTDVNvbWUgTG9jYWxpdHkxEDAOBgNVBAoTB1NvbWUgQ0ExIjAgBgNVBAMT
GUZha2UgQ0EgZm9yIHpsaW50IHRlc3RpbmcwggIiMA0GCSqGSIb3DQEBAQUAA4IC
DwAwggIKAoICAQDjzoOvgyfLTf/QUx5ZPYOKSmIpNoYROYO0aVFBSW4fAX+d8agy
cZwwTpjDrkdmaXmpDMlGmV2aY89+EJFwxuQBa/L33+bc1xnVPzXSydGCKhG3eVxE
75PxnFmby/YGEu/K0dde/h/d766OiV+6KAu21rrzEbDrxEb6GDYjEwt1XtwRkCMD
aSWbEeppT1AMi2FkiLj5zdR/FKQ0XRcJuNcSq1tHhsmJuDaTi9dbODd56C1mUKxp
dov2R5Q0xVed3nblC5uw09Xkx9iB/eCJmKhYpfTxRaPmmT1lqQaNCRFtsZzUti00
6LNkbAj/9zkD1vEFx9bd+36ek5jAPlaJnSjzZ63hHUoldHv/W4jgT/WNpELVdkM+
91MPuUZZjNCpi2E6e9QEP6gIJwPEP7aK68W6pmxLnesyiTn1m80PPaCDOHiJ8yBJ
MujXC0YnwgHwhof5n7e4PE0/es1mUF8AMuIbrQ/5XYLfu8WoNmmJPQqoP/dZdLGW
mwBRoYLQOW3qTiXCAV/ph6yvda+2sLizufWrMkgK98tHqwUF1ByJkE4THWdDQpTj
TM24oVKcqsLqAbJtdzGrbflCK9V0bR8vl49gtmnGs7782DoKJo2U0FnHNEeKZvE1
SL3NbzCw+neSkgikv/EkmrOTT1IT2jpe032ijo798JYEMQavaJdrUdMK1wIDAQAB
o4IBODCCATQwDgYDVR0PAQH/BAQDAgEGMB0GA1UdJQQWMBQGCCsGAQUFBwMCBggr
BgEFBQcDATAPBgNVHRMBAf8EBTADAQH/MB0GA1UdDgQWBBSVI0F3p4VS+fK3gjH3
Jqbsg6LtJjAfBgNVHSMEGDAWgBTotvZ2S9A75Ual+VTUfgez3g1gPjBkBggrBgEF
BQcBAQRYMFYwKQYIKwYBBQUHMAGGHWh0dHA6Ly9jYS5zb21lY2EtaW5jLmNvbS9v
Y3NwMCkGCCsGAQUFBzAChh1odHRwOi8vY2Euc29tZWNhLWluYy5jb20vcm9vdDAd
BgNVHSAEFjAUMAgGBmeBDAECAzAIBgZngQwBAgIwLQYDVR0fBCYwJDAioCCgHoYc
aHR0cDovL2NhLnNvbWVjYS1pbmMuY29tL2NybDANBgkqhkiG9w0BAQsFAAOCAgEA
RXJmxLHj3ZTPjD/TwWfVE/CP5IN2Bd+50BdQXsYkT78kQv5ZkvYEKzWK+xFV2T5J
q9pUjyCMIyqaNjj3SIF3MDK51vglxnkII/pwRHKkqSC4YwhttsoEF50BUKuyZAAa
c2u0aeKhE4EwTiCBP7e1N/w63Ogriz3H4P/C8+D4zssmVcr1Nyl6u1iOdQlFcCTX
figCT2hMEpy6J/LM/L0sD+FZnVacmIEC7IpCHRp1cheBmLJrmColYzlbh9F9MUuA
hiqcOo+/O1sQ0Uff1u13TOo6E01eIabSRJ+umH//ZwgLHIj3hVe7uEc6xuWCNY3j
DOxkoZqGKPTLxDjYRF8dDpRPz0lyXCKG2svdkJd5y0hsOF12CFR3RW20y9VD3AH8
5ryKR+KoTdV1HhQOBi58MwG2UrSjJYFagyvzXor8JoD0cD8Wv1MQPEioeZ7s4E25
KG+mR66aPUAfc8zzHsmJlNQGB4zlXI+PCLOj1hp+c9JimY5tPdEWF7V2LYrG8Pwy
wAzqnv6Vi32QC88UFCr1ezvmLXrm5AnMlUr9Q91StUsxndA/kyoHwE6lifHd3vex
4C96WkLhomsNeyWfn7VP0sZgL1Q2QPeY/QALOUk0apJDMkCNnuJgrOSSt4ECNHUp
IndT1CEfdy1FBo/8KuM2JUAV+mGoMSV61RabslKYBOQ=
-----END CERTIFICATE-----
