Certificate:
    Data:
        Version: 3 (0x2)
        Serial Number:
            eb:8b:b2:6c:8e:9b:45:01:e9:aa:c8:7f:48:7e:ef:20
        Signature Algorithm: sha256WithRSAEncryption
        Issuer: C = XX, O = Some CA, CN = Fake Root CA for zlint testing
        Validity
            Not Before: Jun  5 06:39:54 2025 GMT
            Not After : Jun  4 06:39:54 2030 GMT
        Subject: C = XX, ST = Some State, L = Some Locality, O = Some CA, CN = Fake CA for zlint testing
        Subject Public Key Info:
            Public Key Algorithm: rsaEncryption
                RSA Public-Key: (4096 bit)
                Modulus:
                    00:c8:5b:9d:00:b6:14:27:db:46:3a:4e:1f:7f:f4:
                    79:0f:08:ff:27:69:ef:b1:48:a7:d9:6a:a2:da:2e:
                    6d:23:16:3f:97:b5:e4:db:6b:54:28:c6:1f:ba:43:
                    30:9c:5e:f1:c5:32:28:48:19:97:2c:b5:94:50:f1:
                    ba:76:a5:db:bc:b6:ea:b2:3f:fb:a7:08:01:9f:2a:
                    d1:3c:ee:30:3d:44:9c:b9:b9:20:1a:91:a3:0d:8f:
                    5d:df:ea:48:ed:36:5a:1b:43:7c:a7:89:7d:ec:50:
                    44:bd:c4:46:c6:e2:17:26:5c:84:0a:73:49:7a:25:
                    e8:36:65:9d:fa:40:86:80:45:f1:27:f5:20:89:0f:
                    5c:06:33:c2:4b:f8:16:e0:c1:f3:63:16:28:b2:aa:
                    06:40:4f:b7:a9:5d:e2:5b:cf:7c:74:1f:a9:1a:9d:
                    13:6c:4a:9a:a7:13:bd:3e:6d:8e:99:6e:c9:2c:5e:
                    5a:e9:0b:72:f0:2a:ae:76:d6:f0:aa:e1:a7:3d:45:
                    ea:97:72:11:9b:b9:f2:e2:c3:70:37:5c:f3:f6:43:
                    ba:07:a2:82:32:82:43:b7:38:67:8e:c6:21:13:90:
                    2f:15:8c:57:5e:fd:21:75:73:0a:87:09:f8:37:d4:
                    07:6b:6c:ec:23:05:8c:aa:72:4c:6c:9d:e5:7f:a7:
                    78:36:3a:f4:0a:67:5e:f2:bd:4f:cc:3a:da:35:56:
                    3f:f0:6d:23:3b:31:00:08:bd:48:c1:6f:05:c0:ab:
                    bd:6c:4d:5b:c9:ad:91:7e:cd:43:c8:be:33:ff:28:
                    a2:0e:f5:a6:5f:08:52:a1:c4:76:f8:9d:77:c7:5b:
                    72:4e:df:0e:dc:4a:a7:1f:0f:41:54:af:b2:a6:0f:
                    8a:af:31:6a:26:c5:a7:4f:8f:e0:e8:1b:2f:d9:f1:
                    96:76:ce:87:4d:6e:45:ae:c1:4c:72:09:51:8d:0d:
                    09:0e:12:e8:9d:d8:2f:df:1d:f3:e7:27:23:37:d0:
                    3b:51:e0:5c:c4:16:7a:e3:04:43:07:83:47:f3:0f:
                    ef:69:0a:ab:2a:6f:bd:d0:90:e8:3f:31:64:8f:8e:
                    96:c2:c0:c2:f7:15:66:4c:f6:4b:6a:74:09:39:9c:
                    84:88:89:5a:8f:67:eb:dc:78:0a:dc:92:16:67:28:
                    6f:c5:c3:bf:86:1c:e0:e5:55:ad:20:7a:c9:75:b9:
                    0e:91:bb:6f:65:de:3a:19:71:08:a8:2c:f6:d8:77:
                    c1:c8:38:2b:36:cc:86:45:13:e9:26:b7:af:7f:e7:
                    59:3c:74:77:2d:77:e4:8c:6a:be:2d:89:7f:27:33:
                    fd:1c:52:cd:24:fa:a3:e4:c4:fc:21:f2:84:91:71:
                    7a:ce:43
                Exponent: 65537 (0x10001)
        X509v3 extensions:
            X509v3 Key Usage: critical
                Certificate Sign, CRL Sign
            X509v3 Extended Key Usage: 
                TLS Web Client Authentication, TLS Web Server Authentication
            X509v3 Basic Constraints: critical
                CA:TRUE
            X509v3 Subject Key Identifier: 
                CD:FD:47:04:A6:07:9C:5C:ED:9B:8B:85:45:EC:FC:33:2D:A4:8E:DB
            X509v3 Authority Key Identifier: 
                keyid:E8:B6:F6:76:4B:D0:3B:E5:46:A5:F9:54:D4:7E:07:B3:DE:0D:60:3E

            Authority Information Access: 
                OCSP - URI:http://ca.someca-inc.com/ocsp
                CA Issuers - URI:http://ca.someca-inc.com/root

            X509v3 Certificate Policies: 
                Policy: X509v3 Any Policy

            X509v3 CRL Distribution Points: 

                Full Name:
                  URI:http://ca.someca-inc.com/crl

    Signature Algorithm: sha256WithRSAEncryption
         5e:1c:e8:51:79:d3:a4:76:f4:15:2e:37:be:14:7b:25:77:91:
         5c:64:aa:0d:1f:9c:0a:55:9f:4f:e0:d2:0d:53:76:be:ad:31:
         7e:d2:1b:3e:f1:53:86:bb:0d:2b:97:06:ac:6f:42:dd:80:56:
         5c:14:35:91:f4:d0:5c:cf:67:97:03:63:e1:d9:ee:04:9c:58:
         ed:2c:53:25:33:c0:df:f9:a8:09:7e:5f:d9:3f:fe:49:ef:bb:
         f4:56:2c:f6:2b:3b:1d:df:97:ef:7e:f5:0c:bd:c0:61:58:46:
         b9:82:36:ef:90:55:5a:68:30:36:fe:b3:3f:6c:ff:33:9d:a7:
         15:f3:3d:12:de:e1:bf:73:ea:b3:f3:03:71:61:37:57:a3:0a:
         d1:1d:f3:80:c1:04:2d:a8:36:07:75:4e:87:fa:ab:4b:13:55:
         27:66:3d:8d:b2:58:c3:75:e0:60:1d:9a:35:3a:b6:91:6e:45:
         3b:a7:46:8c:42:81:5b:2d:39:09:70:f9:ed:b9:a7:1a:08:ee:
         fa:d7:b3:06:bb:61:52:7d:d8:e9:78:5f:1f:d3:bf:48:fe:30:
         63:e1:4d:08:1a:bc:b0:2c:8b:b5:bd:a0:c7:fc:12:b0:70:73:
         16:fa:2b:ea:6a:8f:8e:60:59:85:53:26:5e:79:b3:3f:3e:0f:
         4d:32:72:76:d3:0c:a1:1b:46:59:69:93:6e:c4:b0:9c:5d:81:
         39:c8:8f:8b:64:19:94:cb:6b:fd:5d:b3:2e:f6:cb:ff:36:4d:
         92:95:f1:b5:e6:d1:53:fd:66:2e:15:2a:94:b3:06:8a:d5:f3:
         f6:61:0c:61:e1:b1:f7:14:4a:f2:29:b2:24:e4:88:5f:01:c7:
         a1:44:e9:5a:fa:53:ac:f8:76:b4:11:0c:62:ab:90:23:ec:4a:
         b2:62:bf:ed:8c:12:64:61:34:be:83:7a:a7:57:ca:ba:b2:a1:
         cf:39:7b:60:7f:be:fd:26:9b:9b:c5:bd:37:8d:b4:90:db:53:
         c8:95:0c:71:6a:43:25:64:d0:4e:dd:40:30:f5:51:0b:dd:4f:
         d5:53:be:1b:6e:de:a0:69:09:91:9c:7b:bc:52:13:0b:5e:23:
         22:cd:02:59:93:0e:5c:1b:6f:fc:5c:2d:de:8e:98:b0:2b:ba:
         6c:48:e5:18:b0:75:04:f8:f6:f8:ae:77:2f:5b:a8:ea:21:4a:
         52:83:e9:9b:9c:f4:d9:43:2a:2b:e0:ff:e7:06:bc:6c:64:b8:
         d7:ab:b6:ef:2a:f8:d3:8a:ca:d1:86:73:2e:32:27:04:b8:66:
         10:ff:55:7e:24:70:ef:8b:d9:23:eb:b3:c0:62:d5:3b:d8:b5:
         46:93:1d:d7:25:3d:4c:67
-----BEGIN CERTIFICATE-----
MIIGcTCCBFmgAwIBAgIRAOuLsmyOm0UB6arIf0h+7yAwDQYJKoZIhvcNAQELBQAw
SDELMAkGA1UEBhMCWFgxEDAOBgNVBAoTB1NvbWUgQ0ExJzAlBgNVBAMTHkZha2Ug
Um9vdCBDQSBmb3IgemxpbnQgdGVzdGluZzAeFw0yNTA2MDUwNjM5NTRaFw0zMDA2
MDQwNjM5NTRaMHAxCzAJBgNVBAYTAlhYMRMwEQYDVQQIEwpTb21lIFN0YXRlMRYw
FAYDVQQHEw1Tb21lIExvY2FsaXR5MRAwDgYDVQQKEwdTb21lIENBMSIwIAYDVQQD
ExlGYWtlIENBIGZvciB6bGludCB0ZXN0aW5nMIICIjANBgkqhkiG9w0BAQEFAAOC
Ag8AMIICCgKCAgEAyFudALYUJ9tGOk4ff/R5Dwj/J2nvsUin2Wqi2i5tIxY/l7Xk
22tUKMYfukMwnF7xxTIoSBmXLLWUUPG6dqXbvLbqsj/7pwgBnyrRPO4wPUScubkg
GpGjDY9d3+pI7TZaG0N8p4l97FBEvcRGxuIXJlyECnNJeiXoNmWd+kCGgEXxJ/Ug
iQ9cBjPCS/gW4MHzYxYosqoGQE+3qV3iW898dB+pGp0TbEqapxO9Pm2OmW7JLF5a
6Qty8CqudtbwquGnPUXql3IRm7ny4sNwN1zz9kO6B6KCMoJDtzhnjsYhE5AvFYxX
Xv0hdXMKhwn4N9QHa2zsIwWMqnJMbJ3lf6d4Njr0Cmde8r1PzDraNVY/8G0jOzEA
CL1IwW8FwKu9bE1bya2Rfs1DyL4z/yiiDvWmXwhSocR2+J13x1tyTt8O3EqnHw9B
VK+ypg+KrzFqJsWnT4/g6Bsv2fGWds6HTW5FrsFMcglRjQ0JDhLondgv3x3z5ycj
N9A7UeBcxBZ64wRDB4NH8w/vaQqrKm+90JDoPzFkj46WwsDC9xVmTPZLanQJOZyE
iIlaj2fr3HgK3JIWZyhvxcO/hhzg5VWtIHrJdbkOkbtvZd46GXEIqCz22HfByDgr
NsyGRRPpJrevf+dZPHR3LXfkjGq+LYl/JzP9HFLNJPqj5MT8IfKEkXF6zkMCAwEA
AaOCASwwggEoMA4GA1UdDwEB/wQEAwIBBjAdBgNVHSUEFjAUBggrBgEFBQcDAgYI
KwYBBQUHAwEwDwYDVR0TAQH/BAUwAwEB/zAdBgNVHQ4EFgQUzf1HBKYHnFztm4uF
Rez8My2kjtswHwYDVR0jBBgwFoAU6Lb2dkvQO+VGpflU1H4Hs94NYD4wZAYIKwYB
BQUHAQEEWDBWMCkGCCsGAQUFBzABhh1odHRwOi8vY2Euc29tZWNhLWluYy5jb20v
b2NzcDApBggrBgEFBQcwAoYdaHR0cDovL2NhLnNvbWVjYS1pbmMuY29tL3Jvb3Qw
EQYDVR0gBAowCDAGBgRVHSAAMC0GA1UdHwQmMCQwIqAgoB6GHGh0dHA6Ly9jYS5z
b21lY2EtaW5jLmNvbS9jcmwwDQYJKoZIhvcNAQELBQADggIBAF4c6FF506R29BUu
N74UeyV3kVxkqg0fnApVn0/g0g1Tdr6tMX7SGz7xU4a7DSuXBqxvQt2AVlwUNZH0
0FzPZ5cDY+HZ7gScWO0sUyUzwN/5qAl+X9k//knvu/RWLPYrOx3fl+9+9Qy9wGFY
RrmCNu+QVVpoMDb+sz9s/zOdpxXzPRLe4b9z6rPzA3FhN1ejCtEd84DBBC2oNgd1
Tof6q0sTVSdmPY2yWMN14GAdmjU6tpFuRTunRoxCgVstOQlw+e25pxoI7vrXswa7
YVJ92Ol4Xx/Tv0j+MGPhTQgavLAsi7W9oMf8ErBwcxb6K+pqj45gWYVTJl55sz8+
D00ycnbTDKEbRllpk27EsJxdgTnIj4tkGZTLa/1dsy72y/82TZKV8bXm0VP9Zi4V
KpSzBorV8/ZhDGHhsfcUSvIpsiTkiF8Bx6FE6Vr6U6z4drQRDGKrkCPsSrJiv+2M
EmRhNL6DeqdXyrqyoc85e2B/vv0mm5vFvTeNtJDbU8iVDHFqQyVk0E7dQDD1UQvd
T9VTvhtu3qBpCZGce7xSEwteIyLNAlmTDlwbb/xcLd6OmLArumxI5RiwdQT49viu
dy9bqOohSlKD6Zuc9NlDKivg/+cGvGxkuNertu8q+NOKytGGcy4yJwS4ZhD/VX4k
cO+L2SPrs8Bi1TvYtUaTHdclPUxn
-----END CERTIFICATE-----
