Certificate:
    Data:
        Version: 3 (0x2)
        Serial Number:
            fe:b2:a9:96:fe:79:3d:88:54:9e:29:6e:3a:c1:05:8a
        Signature Algorithm: sha256WithRSAEncryption
        Issuer: C = XX, O = Some CA, CN = Fake Root CA for zlint testing
        Validity
            Not Before: Sep 13 00:00:00 2023 GMT
            Not After : Sep 11 00:00:00 2028 GMT
        Subject: C = XX, ST = Some State, L = Some Locality, O = Some CA, CN = Fake CA for zlint testing
        Subject Public Key Info:
            Public Key Algorithm: rsaEncryption
                RSA Public-Key: (4096 bit)
                Modulus:
                    00:cb:a1:ad:a7:b1:25:da:85:ce:8b:dc:3a:ef:8c:
                    20:62:b3:31:42:32:1c:7c:67:ff:0f:e1:7d:dd:5e:
                    90:46:36:0f:c0:d5:f1:83:3d:42:f0:86:6c:91:dd:
                    3b:2f:97:91:dc:de:e8:93:8c:a5:31:bf:f9:02:79:
                    d2:1b:58:de:27:26:fc:00:0c:3b:0f:2a:e4:72:36:
                    d5:f2:d4:50:26:35:0d:44:50:9a:84:4b:91:5b:6c:
                    01:f4:ef:71:4c:da:4f:3d:87:af:ef:62:42:35:8e:
                    06:db:93:c0:14:b1:41:67:cd:a1:34:33:40:7a:9e:
                    fd:aa:e4:47:ff:af:33:ba:5b:9b:d7:b7:be:db:7e:
                    9e:56:ef:63:c9:2e:2e:12:c7:ae:32:f0:56:96:06:
                    ec:9b:37:ca:7f:72:70:33:da:cd:bb:81:db:cb:80:
                    b9:03:56:67:64:b4:28:e5:75:be:84:aa:03:1c:3c:
                    ed:f5:e3:1c:0d:f3:1c:08:ca:6e:ed:6e:c0:49:1b:
                    00:ba:2c:4e:09:6f:e2:82:fb:34:46:14:65:ab:e7:
                    98:c6:b1:6d:72:8f:07:9b:46:e6:5b:5c:a0:73:06:
                    b1:2e:0c:05:33:a0:72:5e:e4:24:09:a1:f7:31:25:
                    01:ba:da:4d:ce:96:3c:e4:77:45:3c:59:a0:d3:c8:
                    2d:16:59:8a:b5:17:fd:68:ca:05:97:a4:8d:5a:d8:
                    02:46:81:2d:45:a0:e2:9d:e0:4b:13:2f:76:cc:b6:
                    2f:ad:a5:27:42:f6:f1:7e:ce:ea:7e:eb:82:b3:f4:
                    d3:ca:85:7b:70:a0:60:d5:af:98:f9:13:99:1d:97:
                    d1:93:3f:9c:de:50:4a:e9:ab:3c:cc:a2:fc:1e:65:
                    14:3b:cc:e1:45:be:8a:2f:16:0f:b4:29:e9:a4:da:
                    26:8d:8e:ce:3b:c7:5e:cf:73:41:46:06:4d:cc:30:
                    38:dd:fc:71:76:41:db:71:a1:6f:8e:34:fa:b2:ea:
                    5e:6e:19:56:6c:bf:18:4b:9b:dc:1e:42:7c:fe:38:
                    70:ea:52:7a:a3:e7:6c:12:92:a5:da:74:2d:ee:c6:
                    19:0c:af:c4:75:3b:41:49:6e:80:d5:fb:eb:f6:5e:
                    57:b0:90:01:7c:6a:34:38:c5:6d:85:17:dc:09:76:
                    cf:63:b6:f0:c0:9d:3b:87:7f:2b:1f:20:46:a8:11:
                    d4:8c:0b:f3:b0:ef:e5:00:e8:61:05:86:75:ec:85:
                    4d:f0:82:72:94:c0:e5:aa:3b:fb:04:1a:4b:61:c7:
                    3b:9e:96:05:de:8d:b7:da:00:6e:c6:8d:8e:f6:19:
                    a1:9b:61:40:a4:96:40:35:21:50:8a:43:cb:c9:68:
                    16:78:e3
                Exponent: 65537 (0x10001)
        X509v3 extensions:
            X509v3 Key Usage: critical
                Certificate Sign, CRL Sign
            X509v3 Extended Key Usage: 
                TLS Web Client Authentication, TLS Web Server Authentication
            X509v3 Basic Constraints: critical
                CA:TRUE
            X509v3 Subject Key Identifier: 
                80:A1:66:9F:62:3E:1A:D2:67:FA:45:D4:4E:C1:F4:8E:41:D8:AA:C6
            X509v3 Authority Key Identifier: 
                keyid:E8:B6:F6:76:4B:D0:3B:E5:46:A5:F9:54:D4:7E:07:B3:DE:0D:60:3E

            Authority Information Access: 
                OCSP - URI:http://ca.someca-inc.com/ocsp
                CA Issuers - URI:http://ca.someca-inc.com/root

            X509v3 Certificate Policies: 
                Policy: 2.23.140.1.2.1
                Policy: 2.23.140.1.2.2

            X509v3 CRL Distribution Points: 

                Full Name:
                  URI:http://ca.someca-inc.com/crl

    Signature Algorithm: sha256WithRSAEncryption
         3c:74:8c:33:79:40:10:67:f4:8f:44:3f:69:de:94:d6:9c:de:
         d2:bf:42:38:4e:b3:e2:89:d9:ae:0c:ae:28:a1:70:f5:b1:00:
         06:fe:e5:96:ae:b1:aa:81:7f:89:3e:41:c8:13:a9:8f:41:f2:
         6e:b6:ea:4d:5a:83:59:f9:7b:32:c9:94:c9:e8:35:ef:87:99:
         9f:0d:a7:59:a1:3e:1a:16:bc:a9:78:af:72:a4:56:fa:02:eb:
         dd:a5:58:50:4c:74:41:20:31:27:68:1e:f6:b5:67:b1:cb:ac:
         3c:59:27:f4:b9:2a:3d:79:b8:75:e9:3c:02:84:ff:d4:ba:f6:
         50:95:65:e9:7a:ff:ce:17:22:98:2f:96:44:12:e5:5e:2e:93:
         a9:6b:d1:7c:9d:61:c1:f2:96:ba:25:61:b8:e1:a2:88:39:6a:
         73:75:35:0b:86:60:35:95:24:04:b9:5a:e9:5c:5e:94:93:2b:
         b7:ee:8e:24:c3:5a:4e:85:fa:06:36:b7:5c:21:ac:11:03:56:
         a6:8a:b2:14:21:f6:5f:39:c6:0f:69:e0:da:c2:b3:1e:be:11:
         a6:ad:e4:f8:82:e4:56:d0:40:d8:ea:fd:6a:ec:d3:ec:fa:85:
         f0:29:b0:84:ea:b2:61:ac:bf:d2:68:69:34:7c:39:7f:c2:ff:
         44:04:fb:57:26:37:b4:bf:b0:b4:fc:4c:af:30:f5:c0:13:3c:
         62:dc:dc:88:ce:2b:60:d7:7d:01:05:7a:0f:22:c9:05:f8:0f:
         fa:24:5e:80:70:6e:b1:56:1f:44:0c:57:c0:dd:7b:05:34:80:
         6f:a3:ac:b2:51:d3:f7:65:7e:2b:aa:29:09:0b:39:38:c8:20:
         2a:23:f1:65:55:f8:6a:7e:00:b6:73:fd:ac:1b:d4:a8:f1:87:
         67:c1:34:8c:bb:d4:c8:60:53:b5:39:c5:40:06:a8:42:17:b4:
         71:f2:09:8a:30:f3:6e:e8:9b:b5:00:d4:73:1d:a1:da:ac:37:
         37:dd:48:c8:f8:78:fd:54:1f:df:bf:6c:8c:fc:dd:be:22:ad:
         1f:32:0f:35:65:5d:f9:5e:64:65:86:23:5d:af:c4:48:80:e9:
         5a:33:75:49:f9:cb:28:fe:b7:50:b1:fa:d8:a2:5c:05:50:ba:
         84:7c:6e:42:78:a4:20:9c:f5:ca:63:a8:ba:ab:f6:2d:da:68:
         4b:d3:ae:fe:89:ba:91:6c:6e:62:60:fd:0d:19:cc:5a:07:40:
         cd:51:62:7f:46:2a:ac:0e:e8:8e:9d:fb:0b:10:54:2c:9d:d0:
         a1:74:2c:5a:bb:2b:e0:b6:e1:8d:6c:b8:54:2b:3b:1a:f4:1c:
         f8:f6:b1:04:ff:53:0c:92
-----BEGIN CERTIFICATE-----
MIIGfTCCBGWgAwIBAgIRAP6yqZb+eT2IVJ4pbjrBBYowDQYJKoZIhvcNAQELBQAw
SDELMAkGA1UEBhMCWFgxEDAOBgNVBAoTB1NvbWUgQ0ExJzAlBgNVBAMTHkZha2Ug
Um9vdCBDQSBmb3IgemxpbnQgdGVzdGluZzAeFw0yMzA5MTMwMDAwMDBaFw0yODA5
MTEwMDAwMDBaMHAxCzAJBgNVBAYTAlhYMRMwEQYDVQQIEwpTb21lIFN0YXRlMRYw
FAYDVQQHEw1Tb21lIExvY2FsaXR5MRAwDgYDVQQKEwdTb21lIENBMSIwIAYDVQQD
ExlGYWtlIENBIGZvciB6bGludCB0ZXN0aW5nMIICIjANBgkqhkiG9w0BAQEFAAOC
Ag8AMIICCgKCAgEAy6Gtp7El2oXOi9w674wgYrMxQjIcfGf/D+F93V6QRjYPwNXx
gz1C8IZskd07L5eR3N7ok4ylMb/5AnnSG1jeJyb8AAw7DyrkcjbV8tRQJjUNRFCa
hEuRW2wB9O9xTNpPPYev72JCNY4G25PAFLFBZ82hNDNAep79quRH/68zulub17e+
236eVu9jyS4uEseuMvBWlgbsmzfKf3JwM9rNu4Hby4C5A1ZnZLQo5XW+hKoDHDzt
9eMcDfMcCMpu7W7ASRsAuixOCW/igvs0RhRlq+eYxrFtco8Hm0bmW1ygcwaxLgwF
M6ByXuQkCaH3MSUButpNzpY85HdFPFmg08gtFlmKtRf9aMoFl6SNWtgCRoEtRaDi
neBLEy92zLYvraUnQvbxfs7qfuuCs/TTyoV7cKBg1a+Y+ROZHZfRkz+c3lBK6as8
zKL8HmUUO8zhRb6KLxYPtCnppNomjY7OO8dez3NBRgZNzDA43fxxdkHbcaFvjjT6
supebhlWbL8YS5vcHkJ8/jhw6lJ6o+dsEpKl2nQt7sYZDK/EdTtBSW6A1fvr9l5X
sJABfGo0OMVthRfcCXbPY7bwwJ07h38rHyBGqBHUjAvzsO/lAOhhBYZ17IVN8IJy
lMDlqjv7BBpLYcc7npYF3o232gBuxo2O9hmhm2FApJZANSFQikPLyWgWeOMCAwEA
AaOCATgwggE0MA4GA1UdDwEB/wQEAwIBBjAdBgNVHSUEFjAUBggrBgEFBQcDAgYI
KwYBBQUHAwEwDwYDVR0TAQH/BAUwAwEB/zAdBgNVHQ4EFgQUgKFmn2I+GtJn+kXU
TsH0jkHYqsYwHwYDVR0jBBgwFoAU6Lb2dkvQO+VGpflU1H4Hs94NYD4wZAYIKwYB
BQUHAQEEWDBWMCkGCCsGAQUFBzABhh1odHRwOi8vY2Euc29tZWNhLWluYy5jb20v
b2NzcDApBggrBgEFBQcwAoYdaHR0cDovL2NhLnNvbWVjYS1pbmMuY29tL3Jvb3Qw
HQYDVR0gBBYwFDAIBgZngQwBAgEwCAYGZ4EMAQICMC0GA1UdHwQmMCQwIqAgoB6G
HGh0dHA6Ly9jYS5zb21lY2EtaW5jLmNvbS9jcmwwDQYJKoZIhvcNAQELBQADggIB
ADx0jDN5QBBn9I9EP2nelNac3tK/QjhOs+KJ2a4MriihcPWxAAb+5ZausaqBf4k+
QcgTqY9B8m626k1ag1n5ezLJlMnoNe+HmZ8Np1mhPhoWvKl4r3KkVvoC692lWFBM
dEEgMSdoHva1Z7HLrDxZJ/S5Kj15uHXpPAKE/9S69lCVZel6/84XIpgvlkQS5V4u
k6lr0XydYcHylrolYbjhoog5anN1NQuGYDWVJAS5WulcXpSTK7fujiTDWk6F+gY2
t1whrBEDVqaKshQh9l85xg9p4NrCsx6+Eaat5PiC5FbQQNjq/Wrs0+z6hfApsITq
smGsv9JoaTR8OX/C/0QE+1cmN7S/sLT8TK8w9cATPGLc3IjOK2DXfQEFeg8iyQX4
D/okXoBwbrFWH0QMV8DdewU0gG+jrLJR0/dlfiuqKQkLOTjIICoj8WVV+Gp+ALZz
/awb1Kjxh2fBNIy71MhgU7U5xUAGqEIXtHHyCYow827om7UA1HMdodqsNzfdSMj4
eP1UH9+/bIz83b4irR8yDzVlXfleZGWGI12vxEiA6VozdUn5yyj+t1Cx+tiiXAVQ
uoR8bkJ4pCCc9cpjqLqr9i3aaEvTrv6JupFsbmJg/Q0ZzFoHQM1RYn9GKqwO6I6d
+wsQVCyd0KF0LFq7K+C24Y1suFQrOxr0HPj2sQT/UwyS
-----END CERTIFICATE-----
