Certificate:
    Data:
        Version: 3 (0x2)
        Serial Number:
            c6:d9:78:27:16:31:14:e9:93:6d:12:4f:b8:a7:84:8a
        Signature Algorithm: sha256WithRSAEncryption
        Issuer: C = XX, O = Some CA, CN = Fake Root CA for zlint testing
        Validity
            Not Before: Jun  5 04:44:21 2025 GMT
            Not After : Jun  4 04:44:21 2030 GMT
        Subject: C = XX, ST = Some State, L = Some Locality, O = Some CA, CN = Fake CA for zlint testing
        Subject Public Key Info:
            Public Key Algorithm: rsaEncryption
                RSA Public-Key: (4096 bit)
                Modulus:
                    00:b3:63:e4:58:f5:ee:72:63:ac:15:8b:a8:d8:c2:
                    12:0d:c6:9e:19:05:5e:4b:c0:09:33:0b:d3:01:8a:
                    02:50:13:e1:60:ab:9a:f8:62:ab:1f:57:3c:0d:ad:
                    65:6b:7f:f2:87:bc:49:5e:ae:e0:68:e8:ce:f5:42:
                    3d:26:87:a6:01:81:de:b2:a9:23:25:a9:21:85:a7:
                    33:90:74:b4:43:ae:54:07:64:b6:51:17:0b:cd:c1:
                    a3:f2:bf:b5:34:96:df:fb:73:5d:72:b5:cb:ad:f2:
                    cd:2c:7f:01:03:40:8e:7a:2c:f3:3f:94:08:0b:b9:
                    72:d7:37:02:65:2e:01:ae:d0:9a:6a:6c:3b:33:8c:
                    1c:73:61:5a:69:eb:99:47:a8:06:da:45:1d:f8:58:
                    ca:2a:69:41:3f:cb:21:69:fe:e0:c2:fb:21:b5:55:
                    5b:25:1f:f2:f6:4d:76:ee:e9:16:f1:e9:a9:72:2d:
                    b8:0f:4c:f5:22:d3:16:e7:4c:76:31:2e:1a:1c:48:
                    8a:4d:42:4e:17:c6:18:7f:a3:b0:74:11:ed:92:36:
                    5d:53:44:ad:49:6e:a9:78:c1:e7:c8:db:f2:39:66:
                    9b:24:ff:c7:2e:30:88:5f:fb:0c:93:cb:d8:98:c3:
                    54:96:c7:00:b4:a1:86:42:35:af:d7:14:47:a5:f8:
                    c4:3a:d3:1d:3c:7a:eb:c2:49:0b:a4:d6:83:33:75:
                    6a:41:19:bb:61:b3:f1:3f:05:42:f8:2e:8c:09:8d:
                    50:18:63:06:e5:c1:82:76:70:94:b5:34:f1:60:f4:
                    0f:ce:6c:39:fc:a1:73:87:3f:57:b5:7d:c6:59:29:
                    07:a4:6b:eb:2e:54:88:56:2a:e6:3a:e7:dd:3e:e1:
                    bb:17:db:77:eb:4c:83:4c:16:73:82:42:00:fb:43:
                    61:7c:fd:db:ff:54:0b:8b:7e:b5:22:a7:fb:05:ac:
                    69:3a:33:50:bd:4c:ff:b7:86:1e:b2:60:4f:07:f1:
                    7a:5a:95:2e:77:b4:36:9f:89:5e:fb:d2:5f:86:33:
                    0d:63:8c:49:78:a6:e2:09:ba:a4:b4:4f:e7:09:0f:
                    17:91:c2:1d:68:f6:7e:34:32:18:42:75:59:24:56:
                    54:b2:a9:a3:b0:c8:eb:bb:17:d9:f0:02:d6:fc:ad:
                    03:65:2d:90:7f:3a:64:6b:b6:8c:31:bc:4d:1c:fa:
                    f5:a1:dd:1a:ba:aa:db:d3:e3:c3:84:82:2e:94:9f:
                    4b:d9:fb:8c:49:a0:f8:38:19:a7:9e:31:e1:70:f4:
                    cf:52:7f:a4:ea:37:25:37:6b:72:24:d3:0a:15:71:
                    d1:7e:d6:45:96:ec:c8:00:e6:eb:db:6f:7f:53:02:
                    67:a2:a7
                Exponent: 65537 (0x10001)
        X509v3 extensions:
            X509v3 Key Usage: critical
                Certificate Sign, CRL Sign
            X509v3 Extended Key Usage: 
                TLS Web Client Authentication, TLS Web Server Authentication
            X509v3 Basic Constraints: critical
                CA:TRUE
            X509v3 Subject Key Identifier: 
                61:91:B9:B0:5B:8F:EA:08:51:F0:46:B6:C1:BD:BF:E4:68:07:EB:79
            X509v3 Authority Key Identifier: 
                keyid:E8:B6:F6:76:4B:D0:3B:E5:46:A5:F9:54:D4:7E:07:B3:DE:0D:60:3E

            Authority Information Access: 
                OCSP - URI:http://ca.someca-inc.com/ocsp
                CA Issuers - URI:http://ca.someca-inc.com/root

            X509v3 Certificate Policies: 
                Policy: 2.23.140.1.2.1
                Policy: 2.23.140.1.2.2

            X509v3 CRL Distribution Points: 

                Full Name:
                  URI:http://ca.someca-inc.com/crl

    Signature Algorithm: sha256WithRSAEncryption
         08:a9:3c:96:67:15:4f:c1:b6:95:27:00:49:4a:25:6f:25:64:
         3f:36:b4:dc:37:6f:ab:26:b6:a5:38:1f:18:d0:7c:67:cf:6e:
         52:bc:5c:e0:c9:26:d5:2a:c3:6b:af:68:ee:12:96:2f:85:67:
         0c:45:da:96:a7:68:ef:d1:92:07:b8:a3:c6:69:63:00:44:3c:
         ea:d7:bc:ee:db:1c:2e:c2:09:49:3e:a4:f7:38:b5:89:46:71:
         9e:8d:9b:80:df:45:0c:3e:87:f0:50:ac:cf:6b:2e:90:d8:58:
         0f:1c:f3:45:85:ee:0f:be:4d:42:7a:ea:92:38:10:6f:65:6f:
         92:20:e3:28:cc:88:7d:d2:5c:73:9c:32:00:24:63:6c:4e:f1:
         68:c9:db:34:32:10:15:d8:de:6a:cd:21:b4:f2:d7:64:ab:5c:
         6e:9d:61:41:8d:f7:53:88:35:5a:f9:0f:6a:6d:b2:28:7f:c0:
         b0:39:50:73:a3:85:8d:97:b7:53:9d:e1:69:94:4e:aa:ff:48:
         72:b6:d7:0f:2f:9b:ab:af:6e:ff:30:a0:fc:fb:77:d5:81:90:
         cb:43:99:11:9c:d9:72:13:82:73:a3:7f:83:60:fc:90:b8:5d:
         15:77:c0:b2:85:7e:3a:a1:b4:ad:89:ca:a4:b7:2a:b9:dc:ba:
         7f:d4:58:0c:ce:74:fc:3d:95:8f:6a:a8:9c:68:c3:e8:c1:a6:
         e7:0f:40:b9:e5:11:89:e7:1a:40:98:80:d7:fd:96:6e:52:9d:
         96:ce:11:51:86:bf:76:e4:60:dd:cd:1d:15:cc:61:68:96:03:
         62:4d:a6:2d:4a:46:23:58:6a:1b:5b:d9:4a:f7:a4:e6:0a:f9:
         87:71:22:6f:cf:df:51:99:59:21:43:69:d8:ad:61:3a:08:19:
         50:11:bc:f8:78:71:51:97:ed:5a:45:a0:ec:f1:d3:3d:e7:c2:
         22:3b:82:be:08:1e:f4:0c:bc:a2:0f:e2:78:7e:44:09:11:58:
         c5:0e:35:a3:0f:87:66:4e:0a:66:94:c3:8a:b5:5d:57:46:dd:
         c4:26:c4:e9:ca:fc:15:38:e4:fa:8f:e7:aa:c6:b6:4b:e1:5e:
         0a:61:e1:9c:b9:e3:fa:b1:fe:e2:63:f8:2b:f7:b9:9b:45:b7:
         ee:3c:9f:aa:c0:a9:39:ba:49:5e:b8:39:08:f6:64:db:f5:b7:
         c1:4e:89:ce:8a:b7:dd:7b:ee:50:57:b6:e4:0e:95:d5:38:6d:
         11:26:5e:65:46:c7:04:7f:5d:4c:fd:7b:3f:df:76:c8:d3:68:
         75:ad:83:6d:f6:77:39:d5:1b:25:7a:97:aa:2f:16:a0:14:dc:
         fc:4f:1d:1d:6d:ef:9b:be
-----BEGIN CERTIFICATE-----
MIIGfTCCBGWgAwIBAgIRAMbZeCcWMRTpk20ST7inhIowDQYJKoZIhvcNAQELBQAw
SDELMAkGA1UEBhMCWFgxEDAOBgNVBAoTB1NvbWUgQ0ExJzAlBgNVBAMTHkZha2Ug
Um9vdCBDQSBmb3IgemxpbnQgdGVzdGluZzAeFw0yNTA2MDUwNDQ0MjFaFw0zMDA2
MDQwNDQ0MjFaMHAxCzAJBgNVBAYTAlhYMRMwEQYDVQQIEwpTb21lIFN0YXRlMRYw
FAYDVQQHEw1Tb21lIExvY2FsaXR5MRAwDgYDVQQKEwdTb21lIENBMSIwIAYDVQQD
ExlGYWtlIENBIGZvciB6bGludCB0ZXN0aW5nMIICIjANBgkqhkiG9w0BAQEFAAOC
Ag8AMIICCgKCAgEAs2PkWPXucmOsFYuo2MISDcaeGQVeS8AJMwvTAYoCUBPhYKua
+GKrH1c8Da1la3/yh7xJXq7gaOjO9UI9JoemAYHesqkjJakhhaczkHS0Q65UB2S2
URcLzcGj8r+1NJbf+3NdcrXLrfLNLH8BA0COeizzP5QIC7ly1zcCZS4BrtCaamw7
M4wcc2FaaeuZR6gG2kUd+FjKKmlBP8shaf7gwvshtVVbJR/y9k127ukW8empci24
D0z1ItMW50x2MS4aHEiKTUJOF8YYf6OwdBHtkjZdU0StSW6peMHnyNvyOWabJP/H
LjCIX/sMk8vYmMNUlscAtKGGQjWv1xRHpfjEOtMdPHrrwkkLpNaDM3VqQRm7YbPx
PwVC+C6MCY1QGGMG5cGCdnCUtTTxYPQPzmw5/KFzhz9XtX3GWSkHpGvrLlSIVirm
OufdPuG7F9t360yDTBZzgkIA+0NhfP3b/1QLi361Iqf7BaxpOjNQvUz/t4YesmBP
B/F6WpUud7Q2n4le+9JfhjMNY4xJeKbiCbqktE/nCQ8XkcIdaPZ+NDIYQnVZJFZU
sqmjsMjruxfZ8ALW/K0DZS2Qfzpka7aMMbxNHPr1od0auqrb0+PDhIIulJ9L2fuM
SaD4OBmnnjHhcPTPUn+k6jclN2tyJNMKFXHRftZFluzIAObr229/UwJnoqcCAwEA
AaOCATgwggE0MA4GA1UdDwEB/wQEAwIBBjAdBgNVHSUEFjAUBggrBgEFBQcDAgYI
KwYBBQUHAwEwDwYDVR0TAQH/BAUwAwEB/zAdBgNVHQ4EFgQUYZG5sFuP6ghR8Ea2
wb2/5GgH63kwHwYDVR0jBBgwFoAU6Lb2dkvQO+VGpflU1H4Hs94NYD4wZAYIKwYB
BQUHAQEEWDBWMCkGCCsGAQUFBzABhh1odHRwOi8vY2Euc29tZWNhLWluYy5jb20v
b2NzcDApBggrBgEFBQcwAoYdaHR0cDovL2NhLnNvbWVjYS1pbmMuY29tL3Jvb3Qw
HQYDVR0gBBYwFDAIBgZngQwBAgEwCAYGZ4EMAQICMC0GA1UdHwQmMCQwIqAgoB6G
HGh0dHA6Ly9jYS5zb21lY2EtaW5jLmNvbS9jcmwwDQYJKoZIhvcNAQELBQADggIB
AAipPJZnFU/BtpUnAElKJW8lZD82tNw3b6smtqU4HxjQfGfPblK8XODJJtUqw2uv
aO4Sli+FZwxF2panaO/Rkge4o8ZpYwBEPOrXvO7bHC7CCUk+pPc4tYlGcZ6Nm4Df
RQw+h/BQrM9rLpDYWA8c80WF7g++TUJ66pI4EG9lb5Ig4yjMiH3SXHOcMgAkY2xO
8WjJ2zQyEBXY3mrNIbTy12SrXG6dYUGN91OINVr5D2ptsih/wLA5UHOjhY2Xt1Od
4WmUTqr/SHK21w8vm6uvbv8woPz7d9WBkMtDmRGc2XITgnOjf4Ng/JC4XRV3wLKF
fjqhtK2JyqS3Krncun/UWAzOdPw9lY9qqJxow+jBpucPQLnlEYnnGkCYgNf9lm5S
nZbOEVGGv3bkYN3NHRXMYWiWA2JNpi1KRiNYahtb2Ur3pOYK+YdxIm/P31GZWSFD
aditYToIGVARvPh4cVGX7VpFoOzx0z3nwiI7gr4IHvQMvKIP4nh+RAkRWMUONaMP
h2ZOCmaUw4q1XVdG3cQmxOnK/BU45PqP56rGtkvhXgph4Zy54/qx/uJj+Cv3uZtF
t+48n6rAqTm6SV64OQj2ZNv1t8FOic6Kt9177lBXtuQOldU4bREmXmVGxwR/XUz9
ez/fdsjTaHWtg232dznVGyV6l6ovFqAU3PxPHR1t75u+
-----END CERTIFICATE-----
