Certificate:
    Data:
        Version: 3 (0x2)
        Serial Number: 18008675309 (0x4316693ed)
    Signature Algorithm: sha256WithRSAEncryption
        Issuer: C = US, O = Mother Nature, OU = Everything, CN = Mother Nature
        Validity
            Not Before: Jun 30 22:59:24 2016 GMT
            Not After : Sep 11 22:59:24 2016 GMT
        Subject: C = US, ST = FL, L = Tallahassee, street = 3210 Holly Mill Run, postalCode = 30062, O = Extreme Discord, OU = Chaos, CN = gov.us
        Subject Public Key Info:
            Public Key Algorithm: rsaEncryption
                Public-Key: (2048 bit)
                Modulus:
                    00:d2:cd:5e:37:67:83:62:2b:28:c7:76:dc:28:12:
                    38:b1:0f:6e:4a:e2:fc:80:fd:94:83:cb:75:66:d8:
                    48:0e:dc:54:8a:dd:84:0b:2b:25:77:cb:9d:80:1a:
                    2a:81:1e:f5:ea:9a:db:88:71:9b:8f:74:29:a6:7e:
                    89:1c:65:0c:e8:cc:e4:2f:97:ce:96:20:f8:02:24:
                    b9:81:62:94:91:9b:db:7d:23:8c:40:3d:bf:61:61:
                    73:7b:3f:1c:e0:97:b3:1a:43:6f:d8:7c:0e:2d:cb:
                    ca:0c:49:d4:ae:85:70:7c:e0:cc:81:58:f1:26:67:
                    b9:f8:81:4b:ae:39:03:44:b6:71:66:4e:15:f8:24:
                    2d:d2:8d:75:1d:f5:76:63:01:93:59:63:bb:b2:f5:
                    93:43:be:3f:82:85:af:66:9a:c0:55:d0:a9:9c:86:
                    94:68:e2:86:7c:cf:c0:6a:83:18:fb:a4:86:d9:cb:
                    30:00:e4:41:1c:57:db:27:59:54:38:3e:07:63:36:
                    6d:a3:c0:7b:86:d5:10:a0:83:19:21:e3:47:e7:cd:
                    07:32:62:78:cd:97:00:1d:13:74:68:07:fc:ac:80:
                    83:7e:98:3a:ea:a9:68:88:47:0e:5f:47:ea:a8:5f:
                    82:13:c2:24:fc:72:4e:a5:f7:c4:42:9c:7f:b2:3c:
                    40:d9
                Exponent: 65537 (0x10001)
        X509v3 extensions:
            X509v3 Extended Key Usage: 
                TLS Web Client Authentication, TLS Web Server Authentication
            X509v3 Authority Key Identifier: 
                keyid:01:02:03

            Authority Information Access: 
                OCSP - URI:http://theca.net/ocsp
                CA Issuers - URI:http://theca.net/totallythecert.crt

            X509v3 Certificate Policies: 
                Policy: 2.23.140.1.2.2

            X509v3 Subject Key Identifier: 
                04:03:02:01
            X509v3 Subject Alternative Name: 
                DNS:*.gov.us, DNS:gov.us
            X509v3 Key Usage: 
                Digital Signature, Certificate Sign, CRL Sign
            X509v3 Basic Constraints: critical
                CA:TRUE
    Signature Algorithm: sha256WithRSAEncryption
         65:92:28:71:86:41:63:86:e7:51:8c:fe:02:02:90:af:31:71:
         dd:33:7f:87:df:ba:ca:c0:51:22:27:85:5a:c8:86:32:cb:1a:
         6f:6f:b6:c0:d6:9a:86:83:5a:5a:83:40:43:d4:13:a6:55:02:
         3a:35:01:5b:06:9d:8c:a3:83:ef:a4:bf:b6:82:86:f5:82:0b:
         f4:44:89:72:be:e6:3b:70:65:41:dc:5d:21:0a:8f:d5:65:cd:
         48:2c:8c:12:7b:43:bf:ab:f3:9a:62:e5:ec:7a:7f:f9:9e:f4:
         51:07:aa:5b:e0:d2:75:2b:5a:5d:a4:bd:39:bf:02:52:71:dd:
         4f:ef:22:b9:bf:b4:8f:e0:51:fe:84:8d:bb:9f:d1:aa:10:b5:
         09:9b:63:15:3f:f7:c4:f2:84:83:d3:50:fd:98:31:be:6c:f9:
         66:49:73:0f:d3:34:e6:87:82:f1:dd:2a:02:db:e9:27:79:24:
         a4:ae:99:c7:0f:ed:cb:7a:2e:bd:93:2b:04:02:a5:25:8c:91:
         cb:84:44:ee:a6:d4:ef:24:10:80:77:6f:b5:2e:ab:16:67:11:
         3c:1f:13:b8:5d:b1:88:50:95:a9:20:f8:0c:d3:f8:4f:b3:b0:
         90:05:64:3e:5e:ed:50:49:a7:34:74:cf:8c:9b:2c:86:6b:ae:
         52:1a:28:ac
-----BEGIN CERTIFICATE-----
MIIEYTCCA0mgAwIBAgIFBDFmk+0wDQYJKoZIhvcNAQELBQAwUjELMAkGA1UEBhMC
VVMxFjAUBgNVBAoTDU1vdGhlciBOYXR1cmUxEzARBgNVBAsTCkV2ZXJ5dGhpbmcx
FjAUBgNVBAMTDU1vdGhlciBOYXR1cmUwHhcNMTYwNjMwMjI1OTI0WhcNMTYwOTEx
MjI1OTI0WjCBmTELMAkGA1UEBhMCVVMxCzAJBgNVBAgTAkZMMRQwEgYDVQQHEwtU
YWxsYWhhc3NlZTEcMBoGA1UECRMTMzIxMCBIb2xseSBNaWxsIFJ1bjEOMAwGA1UE
ERMFMzAwNjIxGDAWBgNVBAoTD0V4dHJlbWUgRGlzY29yZDEOMAwGA1UECxMFQ2hh
b3MxDzANBgNVBAMTBmdvdi51czCCASIwDQYJKoZIhvcNAQEBBQADggEPADCCAQoC
ggEBANLNXjdng2IrKMd23CgSOLEPbkri/ID9lIPLdWbYSA7cVIrdhAsrJXfLnYAa
KoEe9eqa24hxm490KaZ+iRxlDOjM5C+XzpYg+AIkuYFilJGb230jjEA9v2Fhc3s/
HOCXsxpDb9h8Di3LygxJ1K6FcHzgzIFY8SZnufiBS645A0S2cWZOFfgkLdKNdR31
dmMBk1lju7L1k0O+P4KFr2aawFXQqZyGlGjihnzPwGqDGPukhtnLMADkQRxX2ydZ
VDg+B2M2baPAe4bVEKCDGSHjR+fNBzJieM2XAB0TdGgH/KyAg36YOuqpaIhHDl9H
6qhfghPCJPxyTqX3xEKcf7I8QNkCAwEAAaOB9TCB8jAdBgNVHSUEFjAUBggrBgEF
BQcDAgYIKwYBBQUHAwEwDgYDVR0jBAcwBYADAQIDMGIGCCsGAQUFBwEBBFYwVDAh
BggrBgEFBQcwAYYVaHR0cDovL3RoZWNhLm5ldC9vY3NwMC8GCCsGAQUFBzAChiNo
dHRwOi8vdGhlY2EubmV0L3RvdGFsbHl0aGVjZXJ0LmNydDATBgNVHSAEDDAKMAgG
BmeBDAECAjANBgNVHQ4EBgQEBAMCATAbBgNVHREEFDASgggqLmdvdi51c4IGZ292
LnVzMAsGA1UdDwQEAwIBhjAPBgNVHRMBAf8EBTADAQH/MA0GCSqGSIb3DQEBCwUA
A4IBAQBlkihxhkFjhudRjP4CApCvMXHdM3+H37rKwFEiJ4VayIYyyxpvb7bA1pqG
g1pag0BD1BOmVQI6NQFbBp2Mo4PvpL+2gob1ggv0RIlyvuY7cGVB3F0hCo/VZc1I
LIwSe0O/q/OaYuXsen/5nvRRB6pb4NJ1K1pdpL05vwJScd1P7yK5v7SP4FH+hI27
n9GqELUJm2MVP/fE8oSD01D9mDG+bPlmSXMP0zTmh4Lx3SoC2+kneSSkrpnHD+3L
ei69kysEAqUljJHLhETuptTvJBCAd2+1LqsWZxE8HxO4XbGIUJWpIPgM0/hPs7CQ
BWQ+Xu1QSac0dM+MmyyGa65SGiis
-----END CERTIFICATE-----
