Certificate:
    Data:
        Version: 3 (0x2)
        Serial Number: 1716835999 (0x6654d69f)
        Signature Algorithm: sha256WithRSAEncryption
        Issuer: CN=Zlint Demo Test CA
        Validity
            Not Before: May 27 18:53:19 2024 GMT
            Not After : May 27 18:53:19 2025 GMT
        Subject: organizationIdentifier=PSDIT-BI-3075, CN=example.com
        Subject Public Key Info:
            Public Key Algorithm: rsaEncryption
                Public-Key: (2048 bit)
                Modulus:
                    00:e5:c6:4f:f6:d1:1e:2c:2c:77:1f:ce:ca:42:6f:
                    c1:0c:f0:d4:a8:79:98:0c:d9:9a:27:00:c1:7d:24:
                    13:a3:39:4e:54:6d:58:50:af:03:f8:95:82:68:04:
                    0a:2a:98:5b:a2:21:d0:07:64:92:48:0e:5f:e2:39:
                    fc:80:7c:58:de:f9:63:1f:7b:b8:1e:de:da:dd:d0:
                    4d:49:8e:82:3d:ef:cc:47:65:a1:68:9a:b9:ed:4a:
                    ed:f9:4c:2f:99:ca:ec:fb:09:6c:5f:f0:d8:ca:c2:
                    06:8b:1d:e1:0e:30:74:4b:6c:f1:c4:09:68:35:a9:
                    54:c8:a4:9b:ac:8a:58:74:5c:2c:92:ac:b0:20:85:
                    92:e6:b4:e0:e0:49:67:06:cc:21:88:19:66:df:1b:
                    a9:65:c4:48:1b:c2:94:bd:6f:03:ea:72:93:f1:49:
                    5d:9c:d3:1b:36:03:99:fd:ae:24:2c:0b:ee:48:01:
                    63:ea:0c:1d:2a:16:e5:04:45:6c:6d:59:9f:79:86:
                    86:6a:02:df:a0:8c:77:ae:9b:57:e3:86:94:64:b3:
                    8e:c3:fd:dc:3e:fa:58:ed:15:35:d8:82:3f:fc:01:
                    01:d4:f1:63:18:62:fa:4f:df:d9:88:d0:bf:dc:df:
                    db:7f:bb:41:20:cc:93:97:f4:85:0a:89:86:69:bb:
                    87:5d
                Exponent: 65537 (0x10001)
        X509v3 extensions:
            X509v3 Basic Constraints: critical
                CA:FALSE
            X509v3 Key Usage: critical
                Digital Signature, Key Encipherment
            X509v3 Subject Key Identifier: 
                05:E9:4B:2A:CB:D1:C5:C1:66:DE:0E:A6:64:9E:58:40:AE:B8:79:DE
            2.23.140.3.1: 
                0...PSD..IT..BI..3075
            X509v3 Extended Key Usage: 
                TLS Web Server Authentication, TLS Web Client Authentication
    Signature Algorithm: sha256WithRSAEncryption
    Signature Value:
        83:af:14:c3:00:c0:3a:fc:2b:b7:d6:ca:d8:f8:ca:30:0c:0b:
        29:ff:4c:40:67:7e:84:4a:10:11:31:1e:38:d6:4a:9f:43:78:
        4b:6b:b0:dc:0b:f7:19:0c:53:92:58:12:98:66:9f:86:76:49:
        7c:b5:44:c7:61:b9:ab:d8:f3:6a:be:00:04:1d:e8:d0:99:39:
        5e:98:2a:1f:72:04:5f:26:da:32:01:61:e6:9f:96:5a:b9:c0:
        2a:6d:80:32:2f:3a:ae:9e:ad:58:63:1d:ef:96:92:23:46:8c:
        dc:19:a4:03:04:de:7f:2f:0e:fc:fa:9c:ec:99:6a:db:00:ec:
        d2:2e:f5:44:07:8e:bd:a8:9b:e0:2a:56:2d:fe:80:02:48:7c:
        26:2e:8d:bf:bb:65:d0:76:ef:97:6e:5e:e9:66:5b:9d:f2:e0:
        f4:b6:91:90:4e:84:c7:5a:60:8d:73:32:65:ae:5b:ed:c7:63:
        7e:0e:68:05:31:0b:08:00:5c:db:5d:a3:4b:a0:fd:f0:88:9d:
        1a:55:be:14:52:e5:e4:6c:19:cd:42:83:9e:47:ac:b3:6e:54:
        cf:73:07:b9:40:0c:e8:34:10:0b:38:c7:d4:47:f2:73:af:14:
        a2:72:4a:8c:6a:d9:49:9e:47:ec:ea:f9:b7:7b:b7:2d:8f:ba:
        75:a8:67:aa
-----BEGIN CERTIFICATE-----
MIIDRzCCAi+gAwIBAgIEZlTWnzANBgkqhkiG9w0BAQsFADAdMRswGQYDVQQDDBJa
bGludCBEZW1vIFRlc3QgQ0EwHhcNMjQwNTI3MTg1MzE5WhcNMjUwNTI3MTg1MzE5
WjAuMRYwFAYDVQRhDA1QU0RJVC1CSS0zMDc1MRQwEgYDVQQDDAtleGFtcGxlLmNv
bTCCASIwDQYJKoZIhvcNAQEBBQADggEPADCCAQoCggEBAOXGT/bRHiwsdx/OykJv
wQzw1Kh5mAzZmicAwX0kE6M5TlRtWFCvA/iVgmgECiqYW6Ih0AdkkkgOX+I5/IB8
WN75Yx97uB7e2t3QTUmOgj3vzEdloWiaue1K7flML5nK7PsJbF/w2MrCBosd4Q4w
dEts8cQJaDWpVMikm6yKWHRcLJKssCCFkua04OBJZwbMIYgZZt8bqWXESBvClL1v
A+pyk/FJXZzTGzYDmf2uJCwL7kgBY+oMHSoW5QRFbG1Zn3mGhmoC36CMd66bV+OG
lGSzjsP93D76WO0VNdiCP/wBAdTxYxhi+k/f2YjQv9zf23+7QSDMk5f0hQqJhmm7
h10CAwEAAaN+MHwwDAYDVR0TAQH/BAIwADAOBgNVHQ8BAf8EBAMCBaAwHQYDVR0O
BBYEFAXpSyrL0cXBZt4OpmSeWECuuHneMB4GBWeBDAMBBBUwExMDUFNEEwJJVIAC
QkkMBDMwNzUwHQYDVR0lBBYwFAYIKwYBBQUHAwEGCCsGAQUFBwMCMA0GCSqGSIb3
DQEBCwUAA4IBAQCDrxTDAMA6/Cu31srY+MowDAsp/0xAZ36EShARMR441kqfQ3hL
a7DcC/cZDFOSWBKYZp+Gdkl8tUTHYbmr2PNqvgAEHejQmTlemCofcgRfJtoyAWHm
n5ZaucAqbYAyLzqunq1YYx3vlpIjRozcGaQDBN5/Lw78+pzsmWrbAOzSLvVEB469
qJvgKlYt/oACSHwmLo2/u2XQdu+Xbl7pZlud8uD0tpGQToTHWmCNczJlrlvtx2N+
DmgFMQsIAFzbXaNLoP3wiJ0aVb4UUuXkbBnNQoOeR6yzblTPcwe5QAzoNBALOMfU
R/JzrxSickqMatlJnkfs6vm3e7ctj7p1qGeq
-----END CERTIFICATE-----
