Certificate:
    Data:
        Version: 3 (0x2)
        Serial Number: 1716890097 (0x6655a9f1)
        Signature Algorithm: sha256WithRSAEncryption
        Issuer: CN=Zlint Demo Test CA
        Validity
            Not Before: May 28 09:54:57 2024 GMT
            Not After : May 28 09:54:57 2025 GMT
        Subject: organizationIdentifier=PSDNL-XX-1234, CN=example.com
        Subject Public Key Info:
            Public Key Algorithm: rsaEncryption
                Public-Key: (2048 bit)
                Modulus:
                    00:b7:dd:65:2e:37:cf:62:85:a6:df:1a:29:d0:49:
                    b5:65:c9:5b:ce:e1:2b:3f:f2:7e:09:f6:d7:78:83:
                    e3:53:4e:46:f1:f0:e9:f5:b9:48:9a:b6:86:48:99:
                    08:9e:31:a7:2d:9a:95:95:3c:dd:8f:54:51:83:d0:
                    b1:0d:82:88:13:ed:43:98:ac:38:29:24:84:72:af:
                    59:30:96:c8:68:22:0f:ef:99:19:7f:cd:0b:b7:31:
                    4b:8d:68:26:4a:1c:87:88:c6:5f:04:a2:ba:b1:bc:
                    d8:41:49:5c:3d:f0:83:82:ee:cf:4e:08:69:40:ac:
                    36:31:e2:87:91:54:a2:80:78:59:b5:30:d1:7d:eb:
                    3d:e4:01:9b:f8:a7:7a:c5:4f:4e:c2:2a:eb:7c:5b:
                    c1:b6:ed:04:3c:c9:9c:e5:f5:72:76:25:2a:6f:ce:
                    6e:e3:b0:de:9e:47:58:ba:b3:dc:82:79:33:a0:c5:
                    61:0c:91:da:d8:8b:5e:64:74:f3:70:f0:f3:76:e6:
                    1d:12:67:43:4c:34:a4:e2:1a:b7:3a:c7:5e:4b:4e:
                    00:28:96:c4:16:82:bb:ef:98:02:38:03:9d:80:64:
                    87:06:65:74:b9:8d:4c:a4:fd:8e:9f:02:72:a5:14:
                    48:53:6d:78:6b:5d:b0:c0:2e:25:6f:6d:80:d3:f6:
                    8e:d1
                Exponent: 65537 (0x10001)
        X509v3 extensions:
            X509v3 Basic Constraints: critical
                CA:FALSE
            X509v3 Key Usage: critical
                Digital Signature, Key Encipherment
            X509v3 Subject Key Identifier: 
                42:17:AC:FD:D5:2C:A8:0E:F5:E7:0A:67:7B:AB:54:9F:32:2A:96:1E
            X509v3 Extended Key Usage: 
                TLS Web Server Authentication, TLS Web Client Authentication
            2.23.140.3.1: 
                0...PSD..NL..XX..1234
    Signature Algorithm: sha256WithRSAEncryption
    Signature Value:
        82:ed:5e:ce:a7:43:41:f2:22:2c:c6:98:e1:63:ca:f6:77:8f:
        5a:22:ec:f7:cc:08:d2:dd:5c:d7:1c:6f:71:90:71:ee:84:4b:
        7d:ca:b2:10:ab:30:7d:48:62:0f:1d:0d:40:1a:d5:37:a9:de:
        e4:3f:59:e4:02:6e:ed:52:44:ce:76:0d:3c:9e:63:94:12:99:
        95:a6:64:61:d3:8d:ce:fc:69:09:f8:15:e1:6d:0c:bb:61:2b:
        c5:ea:00:28:81:92:1c:9a:03:3d:b7:57:80:5e:23:03:bc:ef:
        0f:a9:7a:a2:64:ca:7e:a7:33:a4:e8:8e:d6:56:6d:a5:0f:73:
        8d:2e:d2:29:1e:29:9c:18:7d:c5:cb:b3:4e:32:b0:46:3d:9c:
        72:4f:73:b1:9d:29:1c:2b:62:2e:fa:ef:91:bc:73:8f:08:ed:
        75:c7:64:6e:f1:9e:46:b9:13:a5:ed:f4:a5:40:71:1e:0b:79:
        ca:a1:8a:a3:d5:d0:fd:c0:f1:5a:1c:fa:ff:5d:65:ae:14:9b:
        ce:cc:f7:47:f8:e5:72:23:bc:5d:fc:82:18:7e:86:1a:8c:cb:
        30:61:64:2c:ac:87:6e:6f:f1:b3:a0:b5:59:c1:78:ce:39:ba:
        76:5e:f5:b3:2f:30:8c:b6:0b:e7:72:41:7a:ec:f6:25:ff:6c:
        27:0d:35:5b
-----BEGIN CERTIFICATE-----
MIIDRzCCAi+gAwIBAgIEZlWp8TANBgkqhkiG9w0BAQsFADAdMRswGQYDVQQDDBJa
bGludCBEZW1vIFRlc3QgQ0EwHhcNMjQwNTI4MDk1NDU3WhcNMjUwNTI4MDk1NDU3
WjAuMRYwFAYDVQRhDA1QU0ROTC1YWC0xMjM0MRQwEgYDVQQDDAtleGFtcGxlLmNv
bTCCASIwDQYJKoZIhvcNAQEBBQADggEPADCCAQoCggEBALfdZS43z2KFpt8aKdBJ
tWXJW87hKz/yfgn213iD41NORvHw6fW5SJq2hkiZCJ4xpy2alZU83Y9UUYPQsQ2C
iBPtQ5isOCkkhHKvWTCWyGgiD++ZGX/NC7cxS41oJkoch4jGXwSiurG82EFJXD3w
g4Luz04IaUCsNjHih5FUooB4WbUw0X3rPeQBm/inesVPTsIq63xbwbbtBDzJnOX1
cnYlKm/ObuOw3p5HWLqz3IJ5M6DFYQyR2tiLXmR083Dw83bmHRJnQ0w0pOIatzrH
XktOACiWxBaCu++YAjgDnYBkhwZldLmNTKT9jp8CcqUUSFNteGtdsMAuJW9tgNP2
jtECAwEAAaN+MHwwDAYDVR0TAQH/BAIwADAOBgNVHQ8BAf8EBAMCBaAwHQYDVR0O
BBYEFEIXrP3VLKgO9ecKZ3urVJ8yKpYeMB0GA1UdJQQWMBQGCCsGAQUFBwMBBggr
BgEFBQcDAjAeBgVngQwDAQQVMBMTA1BTRBMCTkyAAlhYDAQxMjM0MA0GCSqGSIb3
DQEBCwUAA4IBAQCC7V7Op0NB8iIsxpjhY8r2d49aIuz3zAjS3VzXHG9xkHHuhEt9
yrIQqzB9SGIPHQ1AGtU3qd7kP1nkAm7tUkTOdg08nmOUEpmVpmRh043O/GkJ+BXh
bQy7YSvF6gAogZIcmgM9t1eAXiMDvO8PqXqiZMp+pzOk6I7WVm2lD3ONLtIpHimc
GH3Fy7NOMrBGPZxyT3OxnSkcK2Iu+u+RvHOPCO11x2Ru8Z5GuROl7fSlQHEeC3nK
oYqj1dD9wPFaHPr/XWWuFJvOzPdH+OVyI7xd/IIYfoYajMswYWQsrIdub/GzoLVZ
wXjOObp2XvWzLzCMtgvnckF67PYl/2wnDTVb
-----END CERTIFICATE-----
