Certificate:
    Data:
        Version: 3 (0x2)
        Serial Number:
            ba:f5:bc:4c:2c:96:a4:fd:9d:de:eb:01
        Signature Algorithm: ecdsa-with-SHA256
        Issuer: CN = Lint CA, O = Lint, C = DE
        Validity
            Not Before: Sep 15 00:00:00 2023 GMT
            Not After : Sep 15 00:00:00 2024 GMT
        Subject: 
        Subject Public Key Info:
            Public Key Algorithm: id-ecPublicKey
                Public-Key: (256 bit)
                pub:
                    04:81:de:80:8a:c8:be:60:a9:7d:9f:a8:e9:9d:61:
                    d0:f0:99:8f:aa:e8:b0:39:50:00:4f:73:76:98:16:
                    13:64:a7:26:92:dc:bc:4c:56:0d:83:f4:35:45:0b:
                    08:71:36:cb:0a:b0:d4:d4:f1:8b:b4:51:37:10:5d:
                    a3:33:df:d9:6a
                ASN1 OID: prime256v1
                NIST CURVE: P-256
        X509v3 extensions:
            X509v3 Certificate Policies: 
                Policy: 2.23.140.1.2.1

            X509v3 Basic Constraints: critical
                CA:TRUE
    Signature Algorithm: ecdsa-with-SHA256
         30:45:02:20:08:4c:72:d9:47:2a:4e:d2:ff:50:31:73:78:bd:
         04:1b:3e:ad:fc:44:ca:31:24:b4:4c:fb:94:00:19:7d:e0:3d:
         02:21:00:a5:ed:31:8e:3f:77:92:0c:f2:f0:52:78:e3:80:15:
         8b:23:97:d0:30:d2:4e:26:c7:a5:24:33:3c:be:0c:e4:b1
-----BEGIN CERTIFICATE-----
MIIBUDCB96ADAgECAg0AuvW8TCyWpP2d3usBMAoGCCqGSM49BAMCMC4xEDAOBgNV
BAMMB0xpbnQgQ0ExDTALBgNVBAoMBExpbnQxCzAJBgNVBAYTAkRFMB4XDTIzMDkx
NTAwMDAwMFoXDTI0MDkxNTAwMDAwMFowADBZMBMGByqGSM49AgEGCCqGSM49AwEH
A0IABIHegIrIvmCpfZ+o6Z1h0PCZj6rosDlQAE9zdpgWE2SnJpLcvExWDYP0NUUL
CHE2ywqw1NTxi7RRNxBdozPf2WqjKDAmMBMGA1UdIAQMMAowCAYGZ4EMAQIBMA8G
A1UdEwEB/wQFMAMBAf8wCgYIKoZIzj0EAwIDSAAwRQIgCExy2UcqTtL/UDFzeL0E
Gz6t/ETKMSS0TPuUABl94D0CIQCl7TGOP3eSDPLwUnjjgBWLI5fQMNJOJselJDM8
vgzksQ==
-----END CERTIFICATE-----
