Certificate:
    Data:
        Version: 3 (0x2)
        Serial Number:
            0d:bc:53:53:f1:a4:58:83:6e:23:c3:db:97:33:16:99
        Signature Algorithm: sha256WithRSAEncryption
        Issuer: C = XX, O = Some CA, CN = Fake Root CA for zlint testing
        Validity
            Not Before: Sep 30 13:33:14 2024 GMT
            Not After : Sep 29 13:33:14 2029 GMT
        Subject: C = XX, ST = Some State, L = Some Locality, O = Some CA, CN = Fake CA for zlint testing
        Subject Public Key Info:
            Public Key Algorithm: rsaEncryption
                RSA Public-Key: (4096 bit)
                Modulus:
                    00:97:0e:5e:ce:69:be:e6:b1:a1:63:17:30:f6:ce:
                    39:82:89:85:f6:8f:0a:e4:e1:eb:8f:b0:04:8f:17:
                    ba:bd:7d:db:9d:9d:0c:a3:a3:66:bc:07:b1:52:96:
                    17:57:19:b0:49:d2:78:7f:be:e4:0d:27:83:f6:8b:
                    77:f0:16:f3:4e:08:f1:a0:1a:1c:21:4c:88:01:76:
                    17:2c:d7:fd:7e:3b:82:ff:b4:8c:58:c3:2d:ea:83:
                    e1:9f:e8:5d:d7:6d:c8:0a:8d:79:64:4f:86:08:71:
                    c3:48:1d:85:49:61:63:7b:ea:be:60:37:aa:f3:00:
                    e8:f9:7e:af:2e:11:e7:3b:8b:f7:69:d8:5b:f1:9d:
                    e5:4b:70:6d:e1:5e:1a:d8:da:57:54:4d:6b:3b:10:
                    0f:25:c7:d9:e3:1b:1a:bd:c9:91:10:57:aa:3c:93:
                    1f:10:0b:b1:6e:82:b4:7b:64:76:63:42:9c:62:ad:
                    81:d6:a3:51:1d:bf:24:5a:15:b7:e2:38:9b:f9:c9:
                    7e:35:f3:e3:4c:7f:d6:4c:c2:21:41:27:46:37:74:
                    c8:09:c1:ae:15:51:80:5b:b8:67:55:f7:93:0b:7b:
                    4c:bb:56:7a:13:ef:3c:ca:1d:97:12:7a:89:7f:91:
                    f6:e0:aa:52:bf:7d:8d:e4:8e:ff:49:3b:52:cb:c1:
                    3c:82:05:d3:ef:96:23:70:35:85:3a:82:d9:82:fd:
                    ff:b0:c0:bf:07:89:a8:48:85:63:f2:93:e3:fa:6a:
                    e3:13:23:c6:4e:0a:61:6f:f4:10:77:58:2b:4a:ac:
                    d7:df:ab:e5:c9:16:fc:75:dd:09:37:23:20:28:8d:
                    4f:1a:a8:98:59:3b:55:26:d2:43:d9:27:4a:1d:39:
                    e2:c5:ff:2c:97:80:2d:87:5f:2b:4e:e2:a9:5a:bb:
                    c4:39:1c:67:e6:97:2a:2a:ab:fd:27:a9:13:dd:68:
                    2e:f7:67:5d:16:1b:8c:ac:cb:71:f8:cc:89:8c:14:
                    49:be:cd:d5:51:d9:00:23:6f:ee:de:00:94:09:99:
                    44:15:43:d4:03:b0:13:c6:ce:dc:8d:7c:e3:8c:c4:
                    16:53:24:8f:5e:9b:a8:73:6b:a9:7d:b2:f7:bc:aa:
                    e1:fe:3a:62:6f:c0:a3:96:18:03:25:4b:ce:7e:76:
                    ea:5c:88:56:6d:21:e0:63:00:2c:1e:ac:2f:24:d5:
                    51:a0:3e:24:b4:ce:52:12:92:3c:30:81:cc:a7:c1:
                    b5:5e:e9:3e:43:31:a0:51:08:32:14:77:91:49:f5:
                    46:34:9a:09:b1:88:af:f6:0b:80:6b:99:76:c8:f5:
                    03:c0:52:31:c8:29:c4:6a:7c:88:10:6a:9c:54:c4:
                    87:71:17
                Exponent: 65537 (0x10001)
        X509v3 extensions:
            X509v3 Key Usage: critical
                Certificate Sign, CRL Sign
            X509v3 Extended Key Usage: 
                TLS Web Client Authentication, TLS Web Server Authentication
            X509v3 Basic Constraints: critical
                CA:TRUE
            X509v3 Subject Key Identifier: 
                5C:4A:CC:83:9A:B2:BD:6F:5F:D0:4E:D2:43:33:08:00:2B:70:49:CE
            X509v3 Authority Key Identifier: 
                keyid:E8:B6:F6:76:4B:D0:3B:E5:46:A5:F9:54:D4:7E:07:B3:DE:0D:60:3E

            Authority Information Access: 
                OCSP - URI:http://ca.someca-inc.com/ocsp
                CA Issuers - URI:http://ca.someca-inc.com/root

            X509v3 CRL Distribution Points: 

                Full Name:
                  URI:http://ca.someca-inc.com/crl

    Signature Algorithm: sha256WithRSAEncryption
         87:a7:af:ce:eb:59:0b:a2:29:dd:1e:ea:87:8f:44:ea:d2:c9:
         cb:e6:74:81:73:22:69:c1:2f:8d:81:b3:84:6a:a2:d2:dc:a6:
         38:33:bc:34:6a:e0:b1:49:06:ed:07:13:10:43:23:d7:54:26:
         7f:76:98:24:b2:64:84:81:48:55:1a:8a:43:9f:68:8e:f3:ea:
         d1:99:fe:f1:39:6a:ae:c2:12:cc:a2:50:80:d4:18:74:17:88:
         d8:9a:d5:a9:2c:1b:b2:23:3a:d8:df:f1:36:00:9f:86:bb:7c:
         11:07:b0:da:8d:43:b6:9b:dd:22:2b:d6:ed:3b:c2:cb:57:53:
         4a:c6:66:99:40:bf:d3:8a:ed:50:36:43:31:af:b9:cd:f8:0f:
         6e:fe:ac:62:ad:99:11:9b:14:4b:36:c9:b2:8e:ce:cc:db:1f:
         4a:10:f2:d2:0e:a0:f6:a0:db:11:34:af:9a:44:58:cd:52:29:
         2c:09:18:0f:9d:e8:e9:5c:da:75:12:3c:e0:64:5f:26:33:87:
         a4:56:78:ad:bc:18:c5:0a:1a:e1:20:87:d5:94:15:14:f9:f7:
         26:a6:52:9a:99:92:d7:98:ef:7a:6b:35:f6:29:14:a2:e9:0f:
         45:27:09:dd:4e:79:ce:93:6b:35:7e:75:5f:1e:22:b6:da:32:
         03:ff:3f:0c:6c:d1:0c:b8:d7:61:0f:cb:b7:de:df:e0:4b:10:
         bd:c5:50:50:d4:e9:ce:6c:82:54:ff:e2:53:d7:2a:b6:eb:22:
         8d:41:8f:68:f1:b7:b5:6f:f2:64:f1:40:5a:e1:fc:b1:e5:9a:
         f5:a7:3a:5f:62:0b:44:e2:47:e0:0a:a1:38:6a:17:f0:60:72:
         2f:53:b9:0b:14:35:cf:c2:45:71:7d:88:9f:64:df:8b:64:fe:
         76:36:51:40:09:d2:8f:73:96:6e:73:31:29:95:95:6e:dd:3a:
         d1:84:8e:07:1c:54:1e:a1:e0:17:2f:0f:a5:36:a3:32:de:6f:
         3d:ea:59:25:77:22:8b:09:2e:1f:3a:17:f6:98:1a:82:8a:36:
         26:90:af:e6:61:99:e0:49:9d:7d:a2:e5:dc:f7:04:0f:6c:4a:
         dc:61:b6:95:8a:84:b8:2c:62:05:2e:bd:87:ac:4e:87:17:bc:
         b2:a8:05:4b:85:ae:61:43:3b:be:0a:7c:00:4e:33:30:d0:0d:
         dd:82:1f:99:d6:73:3d:a2:d0:55:de:ca:09:85:44:f9:8c:ec:
         f9:71:2c:21:36:a0:67:fe:43:af:9b:cf:33:d4:2c:9a:6c:e3:
         5e:ba:82:4b:86:3f:78:f7:fc:0d:8a:79:3e:c8:65:9e:b5:0e:
         b0:57:fe:2c:85:48:ce:7f
-----BEGIN CERTIFICATE-----
MIIGXTCCBEWgAwIBAgIQDbxTU/GkWINuI8PblzMWmTANBgkqhkiG9w0BAQsFADBI
MQswCQYDVQQGEwJYWDEQMA4GA1UEChMHU29tZSBDQTEnMCUGA1UEAxMeRmFrZSBS
b290IENBIGZvciB6bGludCB0ZXN0aW5nMB4XDTI0MDkzMDEzMzMxNFoXDTI5MDky
OTEzMzMxNFowcDELMAkGA1UEBhMCWFgxEzARBgNVBAgTClNvbWUgU3RhdGUxFjAU
BgNVBAcTDVNvbWUgTG9jYWxpdHkxEDAOBgNVBAoTB1NvbWUgQ0ExIjAgBgNVBAMT
GUZha2UgQ0EgZm9yIHpsaW50IHRlc3RpbmcwggIiMA0GCSqGSIb3DQEBAQUAA4IC
DwAwggIKAoICAQCXDl7Oab7msaFjFzD2zjmCiYX2jwrk4euPsASPF7q9fdudnQyj
o2a8B7FSlhdXGbBJ0nh/vuQNJ4P2i3fwFvNOCPGgGhwhTIgBdhcs1/1+O4L/tIxY
wy3qg+Gf6F3XbcgKjXlkT4YIccNIHYVJYWN76r5gN6rzAOj5fq8uEec7i/dp2Fvx
neVLcG3hXhrY2ldUTWs7EA8lx9njGxq9yZEQV6o8kx8QC7FugrR7ZHZjQpxirYHW
o1EdvyRaFbfiOJv5yX418+NMf9ZMwiFBJ0Y3dMgJwa4VUYBbuGdV95MLe0y7VnoT
7zzKHZcSeol/kfbgqlK/fY3kjv9JO1LLwTyCBdPvliNwNYU6gtmC/f+wwL8HiahI
hWPyk+P6auMTI8ZOCmFv9BB3WCtKrNffq+XJFvx13Qk3IyAojU8aqJhZO1Um0kPZ
J0odOeLF/yyXgC2HXytO4qlau8Q5HGfmlyoqq/0nqRPdaC73Z10WG4ysy3H4zImM
FEm+zdVR2QAjb+7eAJQJmUQVQ9QDsBPGztyNfOOMxBZTJI9em6hza6l9sve8quH+
OmJvwKOWGAMlS85+dupciFZtIeBjACwerC8k1VGgPiS0zlISkjwwgcynwbVe6T5D
MaBRCDIUd5FJ9UY0mgmxiK/2C4BrmXbI9QPAUjHIKcRqfIgQapxUxIdxFwIDAQAB
o4IBGTCCARUwDgYDVR0PAQH/BAQDAgEGMB0GA1UdJQQWMBQGCCsGAQUFBwMCBggr
BgEFBQcDATAPBgNVHRMBAf8EBTADAQH/MB0GA1UdDgQWBBRcSsyDmrK9b1/QTtJD
MwgAK3BJzjAfBgNVHSMEGDAWgBTotvZ2S9A75Ual+VTUfgez3g1gPjBkBggrBgEF
BQcBAQRYMFYwKQYIKwYBBQUHMAGGHWh0dHA6Ly9jYS5zb21lY2EtaW5jLmNvbS9v
Y3NwMCkGCCsGAQUFBzAChh1odHRwOi8vY2Euc29tZWNhLWluYy5jb20vcm9vdDAt
BgNVHR8EJjAkMCKgIKAehhxodHRwOi8vY2Euc29tZWNhLWluYy5jb20vY3JsMA0G
CSqGSIb3DQEBCwUAA4ICAQCHp6/O61kLoindHuqHj0Tq0snL5nSBcyJpwS+NgbOE
aqLS3KY4M7w0auCxSQbtBxMQQyPXVCZ/dpgksmSEgUhVGopDn2iO8+rRmf7xOWqu
whLMolCA1Bh0F4jYmtWpLBuyIzrY3/E2AJ+Gu3wRB7DajUO2m90iK9btO8LLV1NK
xmaZQL/Tiu1QNkMxr7nN+A9u/qxirZkRmxRLNsmyjs7M2x9KEPLSDqD2oNsRNK+a
RFjNUiksCRgPnejpXNp1EjzgZF8mM4ekVnitvBjFChrhIIfVlBUU+fcmplKamZLX
mO96azX2KRSi6Q9FJwndTnnOk2s1fnVfHiK22jID/z8MbNEMuNdhD8u33t/gSxC9
xVBQ1OnObIJU/+JT1yq26yKNQY9o8be1b/Jk8UBa4fyx5Zr1pzpfYgtE4kfgCqE4
ahfwYHIvU7kLFDXPwkVxfYifZN+LZP52NlFACdKPc5ZuczEplZVu3TrRhI4HHFQe
oeAXLw+lNqMy3m896lkldyKLCS4fOhf2mBqCijYmkK/mYZngSZ19ouXc9wQPbErc
YbaVioS4LGIFLr2HrE6HF7yyqAVLha5hQzu+CnwATjMw0A3dgh+Z1nM9otBV3soJ
hUT5jOz5cSwhNqBn/kOvm88z1CyabONeuoJLhj949/wNink+yGWetQ6wV/4shUjO
fw==
-----END CERTIFICATE-----
