Certificate:
    Data:
        Version: 3 (0x2)
        Serial Number:
            b4:97:0d:61:9a:13:fc:5a:83:9b:1b:bc:45:1d:7c:75
        Signature Algorithm: sha256WithRSAEncryption
        Issuer: C = XX, O = Some CA, CN = Fake Root CA for zlint testing
        Validity
            Not Before: Sep 30 13:57:08 2024 GMT
            Not After : Sep 29 13:57:08 2029 GMT
        Subject: C = XX, ST = Some State, L = Some Locality, O = Some CA, CN = Fake CA for zlint testing
        Subject Public Key Info:
            Public Key Algorithm: rsaEncryption
                RSA Public-Key: (4096 bit)
                Modulus:
                    00:e7:8d:f6:59:af:0a:7e:d0:fc:19:c4:0c:23:a0:
                    fd:23:b6:b9:f0:a5:a0:df:54:ea:7b:2f:2f:4b:12:
                    60:82:c0:53:d8:57:5e:07:19:22:18:74:0f:8e:0e:
                    7f:f2:f5:55:1b:86:47:73:c7:00:3a:0a:b2:4a:b4:
                    bf:bf:1f:8a:1b:ce:00:30:08:07:e7:8c:47:34:42:
                    3d:6f:3f:a0:b5:f0:a7:15:5f:5f:5b:81:5c:7e:f8:
                    f3:85:d5:8e:e8:e9:29:6d:40:71:37:86:60:89:38:
                    93:31:1f:22:4d:0a:93:57:c5:40:8e:09:63:ea:28:
                    36:b2:17:5f:8f:8f:03:bf:8b:3f:01:14:7c:f4:f3:
                    dd:63:72:aa:a5:c0:ac:c7:d9:88:7e:b9:2f:50:0a:
                    e2:c7:36:ca:46:c0:8a:18:dd:e6:75:07:61:b7:5b:
                    2d:4a:2e:50:5a:b9:7c:bc:df:b0:0b:ea:34:2d:e8:
                    6b:bc:49:5a:d2:5d:c4:b2:f9:3d:7a:cb:11:10:14:
                    94:7f:5a:31:72:cb:98:e2:d0:fe:49:4c:b6:df:1a:
                    a6:73:3c:03:83:99:bc:e2:74:57:a2:62:ff:6c:25:
                    88:4e:ff:6d:32:48:78:12:af:b2:8c:1f:33:90:85:
                    d5:5a:0a:91:61:66:ac:81:af:bc:e5:a3:ee:c6:d7:
                    c6:4c:1b:28:3b:0f:d5:71:ba:f2:bf:f7:9d:c8:e2:
                    5e:7e:24:3a:8f:e2:24:41:32:27:f0:00:e1:14:6b:
                    26:3c:48:8c:d1:21:5d:99:61:c2:d5:eb:5d:ca:04:
                    34:e5:d8:33:ee:e6:59:d6:07:90:3f:40:fe:e0:1e:
                    45:27:cc:5a:93:4e:05:e0:9f:c1:11:c6:35:f5:a2:
                    6d:06:79:6a:80:7e:3a:a3:fd:9e:8f:fd:6c:6e:50:
                    b5:36:a0:52:6f:00:7d:66:e0:e2:61:bd:c1:5b:27:
                    e5:9b:6a:f2:94:f4:31:59:57:03:4f:b5:9e:b1:34:
                    9b:35:c9:1f:15:1f:ec:d4:51:8b:aa:67:8e:69:3e:
                    3f:13:e5:75:f8:90:30:5a:80:3c:64:15:59:5d:91:
                    9e:88:5e:18:13:91:8c:94:61:60:7b:8f:6f:4d:cd:
                    e8:0e:aa:57:e4:30:54:87:b0:f1:a3:29:a9:d5:fc:
                    91:33:07:78:d9:af:73:3f:86:18:37:3c:cd:25:03:
                    79:08:49:1b:ff:fc:20:f5:d1:a4:0d:dd:b8:b8:a4:
                    3a:f8:7c:9e:be:42:7a:18:dd:2e:b6:10:a6:2e:b3:
                    b5:a1:21:dd:92:9d:58:cd:4d:74:fe:fe:d0:7f:a1:
                    df:23:58:14:10:2b:88:ce:84:77:71:26:05:14:fd:
                    08:07:4d
                Exponent: 65537 (0x10001)
        X509v3 extensions:
            X509v3 Key Usage: critical
                Certificate Sign, CRL Sign
            X509v3 Extended Key Usage: 
                TLS Web Client Authentication, TLS Web Server Authentication
            X509v3 Basic Constraints: critical
                CA:TRUE
            X509v3 Subject Key Identifier: 
                B3:6F:1F:4D:69:41:EA:58:01:8B:08:59:16:AA:58:DA:28:A7:16:AD
            X509v3 Authority Key Identifier: 
                keyid:E8:B6:F6:76:4B:D0:3B:E5:46:A5:F9:54:D4:7E:07:B3:DE:0D:60:3E

            Authority Information Access: 
                OCSP - URI:http://ca.someca-inc.com/ocsp
                CA Issuers - URI:http://ca.someca-inc.com/root

            X509v3 Certificate Policies: 
                Policy: 1.2.3.5.7.9
                Policy: 2.23.140.1.2.1

            X509v3 CRL Distribution Points: 

                Full Name:
                  URI:http://ca.someca-inc.com/crl

    Signature Algorithm: sha256WithRSAEncryption
         9a:ef:87:4b:ba:10:41:cd:95:af:c8:50:34:34:01:01:05:24:
         d7:c6:2c:f2:f4:fa:9b:8e:3c:a7:fd:75:69:30:f2:b4:60:18:
         a3:24:08:11:7e:a3:c6:ac:a4:4b:e1:97:1d:cf:a3:f4:50:cc:
         e1:63:2e:64:50:31:a4:a0:7a:ac:7f:e6:5f:10:54:29:c1:b5:
         d5:31:cf:0f:e0:a9:84:14:2f:5d:a5:45:00:14:87:3f:1a:ee:
         8f:d0:5d:ad:12:78:49:59:20:df:f8:79:51:cf:1f:72:99:ba:
         d1:e9:2d:4f:5e:08:fa:f3:b4:b3:07:aa:5a:2d:86:a8:a6:11:
         ba:0e:84:31:41:bd:b6:ee:3e:44:24:6a:b0:2f:29:d6:fb:1a:
         21:fd:e4:b9:35:5d:35:c0:33:a1:fe:60:9f:ea:78:9a:94:6f:
         e6:d7:7f:ad:ac:e9:76:4f:8f:78:5b:2a:3e:95:e3:a2:9f:89:
         a4:17:2d:1c:ba:39:06:e0:f1:78:45:bf:ab:d7:e4:be:b4:b1:
         79:a1:c2:62:65:c2:c4:f5:78:9b:ec:4f:b6:c9:09:cd:73:e4:
         58:29:be:4e:f9:db:ea:88:22:66:5b:e0:42:4c:6e:0b:33:32:
         28:93:a0:e5:c1:0d:59:76:e0:2c:42:61:a5:e5:16:17:64:56:
         89:42:fe:52:d8:bf:f8:40:45:5d:f0:48:cd:8c:ed:ec:94:e6:
         14:6a:0f:a1:0e:70:7d:8e:cc:47:a1:61:b4:4a:40:8d:07:47:
         b8:f3:89:e4:7c:88:6b:90:b1:13:aa:11:d3:f0:3c:f8:9d:84:
         ca:0c:06:87:ac:28:d2:5c:15:c4:4d:53:3a:b0:df:ca:80:2e:
         4f:ed:a8:2f:ea:b0:3b:1b:32:04:09:84:6e:d9:87:e6:7d:2d:
         d9:56:9d:59:e5:c3:92:7a:30:16:fc:da:ce:76:16:40:67:e0:
         b7:36:41:c8:a0:f5:08:60:d9:98:9e:c2:5d:f2:7c:71:98:6c:
         ea:e5:9c:65:9b:22:bb:74:07:d9:6a:ce:b1:96:ac:e2:56:90:
         f6:91:fa:a8:3f:49:b4:a0:6f:20:23:74:db:64:e4:9d:7a:3a:
         eb:12:ab:5a:e1:e3:b8:e1:93:4b:4d:23:cc:21:31:e1:98:ce:
         48:98:06:00:0f:51:26:99:5e:81:ac:7b:e0:82:6e:2b:aa:44:
         49:c3:66:52:df:e4:ab:8b:5d:fa:4d:a1:84:cf:76:c3:94:e7:
         9c:0e:a1:67:93:b4:88:83:58:98:a6:95:22:9b:92:25:4b:93:
         70:f5:6a:57:71:bd:75:a8:77:ac:c2:6b:3a:07:8f:16:9b:1d:
         3b:a6:93:5e:d6:a9:4b:12
-----BEGIN CERTIFICATE-----
MIIGfDCCBGSgAwIBAgIRALSXDWGaE/xag5sbvEUdfHUwDQYJKoZIhvcNAQELBQAw
SDELMAkGA1UEBhMCWFgxEDAOBgNVBAoTB1NvbWUgQ0ExJzAlBgNVBAMTHkZha2Ug
Um9vdCBDQSBmb3IgemxpbnQgdGVzdGluZzAeFw0yNDA5MzAxMzU3MDhaFw0yOTA5
MjkxMzU3MDhaMHAxCzAJBgNVBAYTAlhYMRMwEQYDVQQIEwpTb21lIFN0YXRlMRYw
FAYDVQQHEw1Tb21lIExvY2FsaXR5MRAwDgYDVQQKEwdTb21lIENBMSIwIAYDVQQD
ExlGYWtlIENBIGZvciB6bGludCB0ZXN0aW5nMIICIjANBgkqhkiG9w0BAQEFAAOC
Ag8AMIICCgKCAgEA5432Wa8KftD8GcQMI6D9I7a58KWg31Tqey8vSxJggsBT2Fde
BxkiGHQPjg5/8vVVG4ZHc8cAOgqySrS/vx+KG84AMAgH54xHNEI9bz+gtfCnFV9f
W4FcfvjzhdWO6OkpbUBxN4ZgiTiTMR8iTQqTV8VAjglj6ig2shdfj48Dv4s/ARR8
9PPdY3KqpcCsx9mIfrkvUArixzbKRsCKGN3mdQdht1stSi5QWrl8vN+wC+o0Lehr
vEla0l3Esvk9essREBSUf1oxcsuY4tD+SUy23xqmczwDg5m84nRXomL/bCWITv9t
Mkh4Eq+yjB8zkIXVWgqRYWasga+85aPuxtfGTBsoOw/Vcbryv/edyOJefiQ6j+Ik
QTIn8ADhFGsmPEiM0SFdmWHC1etdygQ05dgz7uZZ1geQP0D+4B5FJ8xak04F4J/B
EcY19aJtBnlqgH46o/2ej/1sblC1NqBSbwB9ZuDiYb3BWyflm2rylPQxWVcDT7We
sTSbNckfFR/s1FGLqmeOaT4/E+V1+JAwWoA8ZBVZXZGeiF4YE5GMlGFge49vTc3o
DqpX5DBUh7Dxoymp1fyRMwd42a9zP4YYNzzNJQN5CEkb//wg9dGkDd24uKQ6+Hye
vkJ6GN0uthCmLrO1oSHdkp1YzU10/v7Qf6HfI1gUECuIzoR3cSYFFP0IB00CAwEA
AaOCATcwggEzMA4GA1UdDwEB/wQEAwIBBjAdBgNVHSUEFjAUBggrBgEFBQcDAgYI
KwYBBQUHAwEwDwYDVR0TAQH/BAUwAwEB/zAdBgNVHQ4EFgQUs28fTWlB6lgBiwhZ
FqpY2iinFq0wHwYDVR0jBBgwFoAU6Lb2dkvQO+VGpflU1H4Hs94NYD4wZAYIKwYB
BQUHAQEEWDBWMCkGCCsGAQUFBzABhh1odHRwOi8vY2Euc29tZWNhLWluYy5jb20v
b2NzcDApBggrBgEFBQcwAoYdaHR0cDovL2NhLnNvbWVjYS1pbmMuY29tL3Jvb3Qw
HAYDVR0gBBUwEzAHBgUqAwUHCTAIBgZngQwBAgEwLQYDVR0fBCYwJDAioCCgHoYc
aHR0cDovL2NhLnNvbWVjYS1pbmMuY29tL2NybDANBgkqhkiG9w0BAQsFAAOCAgEA
mu+HS7oQQc2Vr8hQNDQBAQUk18Ys8vT6m448p/11aTDytGAYoyQIEX6jxqykS+GX
Hc+j9FDM4WMuZFAxpKB6rH/mXxBUKcG11THPD+CphBQvXaVFABSHPxruj9BdrRJ4
SVkg3/h5Uc8fcpm60ektT14I+vO0sweqWi2GqKYRug6EMUG9tu4+RCRqsC8p1vsa
If3kuTVdNcAzof5gn+p4mpRv5td/razpdk+PeFsqPpXjop+JpBctHLo5BuDxeEW/
q9fkvrSxeaHCYmXCxPV4m+xPtskJzXPkWCm+Tvnb6ogiZlvgQkxuCzMyKJOg5cEN
WXbgLEJhpeUWF2RWiUL+Uti/+EBFXfBIzYzt7JTmFGoPoQ5wfY7MR6FhtEpAjQdH
uPOJ5HyIa5CxE6oR0/A8+J2EygwGh6wo0lwVxE1TOrDfyoAuT+2oL+qwOxsyBAmE
btmH5n0t2VadWeXDknowFvzaznYWQGfgtzZByKD1CGDZmJ7CXfJ8cZhs6uWcZZsi
u3QH2WrOsZas4laQ9pH6qD9JtKBvICN022TknXo66xKrWuHjuOGTS00jzCEx4ZjO
SJgGAA9RJplegax74IJuK6pEScNmUt/kq4td+k2hhM92w5TnnA6hZ5O0iINYmKaV
IpuSJUuTcPVqV3G9dah3rMJrOgePFpsdO6aTXtapSxI=
-----END CERTIFICATE-----
