Certificate:
    Data:
        Version: 3 (0x2)
        Serial Number:
            e2:6e:ba:43:96:62:04:5e:53:09:a6:e3:34:69:e2:0d
        Signature Algorithm: sha256WithRSAEncryption
        Issuer: C = XX, O = Some CA, CN = Fake Root CA for zlint testing
        Validity
            Not Before: Sep 30 13:45:44 2024 GMT
            Not After : Sep 29 13:45:44 2029 GMT
        Subject: C = XX, ST = Some State, L = Some Locality, O = Some CA, CN = Fake CA for zlint testing
        Subject Public Key Info:
            Public Key Algorithm: rsaEncryption
                RSA Public-Key: (4096 bit)
                Modulus:
                    00:b2:e9:50:c1:0f:64:2e:88:9f:bb:6c:f2:27:ac:
                    a7:c0:5b:cd:09:9b:c9:fa:03:ef:a3:dc:27:a7:b4:
                    cf:26:69:eb:bc:1f:b8:86:2e:cb:c7:6a:d1:ad:3d:
                    88:c5:2f:d1:10:9a:fd:37:a1:24:79:ab:fc:10:a9:
                    69:b3:fc:44:11:8a:56:36:0e:4c:2c:a4:3f:49:bd:
                    3d:14:95:bf:df:6e:80:ea:d0:48:03:f5:e3:8e:90:
                    3a:8d:00:1b:9a:71:03:ba:2f:6a:1e:09:f6:30:7b:
                    1b:c8:56:bb:1c:04:f1:72:59:1b:8d:24:e2:e3:33:
                    e0:bd:62:6f:ed:74:79:2d:e7:dd:fb:71:07:30:4c:
                    25:fb:b1:24:e2:3e:cd:78:32:68:8c:f5:e4:99:25:
                    be:fa:2f:ba:a8:bf:9c:f4:2e:eb:57:be:ba:58:ef:
                    f6:fd:0b:2e:03:40:55:49:c1:0a:32:5f:f9:60:90:
                    52:25:51:2f:2c:7c:bb:23:6d:14:72:d7:4a:42:7f:
                    81:00:58:3b:ab:04:9a:5f:2c:cb:a9:d1:95:42:1b:
                    0d:71:dc:d2:b5:21:e8:ac:5a:86:dc:48:68:01:ee:
                    7b:28:e6:2d:73:85:83:8d:5c:42:09:b8:11:e2:1a:
                    53:54:57:58:cf:3a:3f:fb:5d:d2:c5:59:94:dd:b7:
                    5d:a8:ff:b0:e7:e0:a3:54:c6:e7:f7:9f:df:c4:aa:
                    5c:71:5a:2a:10:df:cd:7d:bd:70:8e:0b:0d:d3:14:
                    4a:ab:7a:00:ee:b3:75:88:78:7a:4e:86:4c:ac:f0:
                    54:d4:05:a4:03:53:e9:a5:09:55:a6:76:9f:8d:96:
                    a3:9a:4f:dd:58:45:95:4b:e1:48:5f:fb:9d:87:41:
                    24:e5:d5:17:ac:c6:68:d0:74:4c:b2:e7:86:eb:30:
                    83:54:36:88:f1:f4:d7:f5:48:40:39:4c:31:76:0d:
                    2e:19:38:a5:fa:54:d8:93:a0:86:e5:5c:e9:64:99:
                    2f:2f:3c:ee:4e:67:bd:59:fe:9b:ce:3d:4d:34:4d:
                    d8:76:23:06:dd:56:84:40:25:8c:52:ab:c4:e3:d4:
                    2d:4e:46:1e:b3:23:78:9a:c8:79:fe:6d:b0:63:6c:
                    63:1b:08:50:82:38:d7:0a:d2:12:f0:46:64:32:f5:
                    29:7a:3a:77:dc:91:3e:8f:60:2d:2e:f6:92:f9:02:
                    91:e7:a7:e2:06:dc:af:3a:26:4c:d9:ef:32:8f:22:
                    ef:3c:75:f5:90:3d:01:91:13:29:f2:01:4d:6a:f6:
                    8a:a5:5b:7d:f8:aa:bf:31:74:56:cf:b1:0d:eb:3e:
                    d3:9a:1d:ff:96:b5:ff:6d:e3:64:0d:5b:dc:ff:1d:
                    25:94:7d
                Exponent: 65537 (0x10001)
        X509v3 extensions:
            X509v3 Key Usage: critical
                Certificate Sign, CRL Sign
            X509v3 Extended Key Usage: 
                TLS Web Client Authentication, TLS Web Server Authentication
            X509v3 Basic Constraints: critical
                CA:TRUE
            X509v3 Subject Key Identifier: 
                FC:93:E4:46:9E:96:CF:F1:DB:11:44:B7:83:AE:59:44:A5:D4:D9:D0
            X509v3 Authority Key Identifier: 
                keyid:E8:B6:F6:76:4B:D0:3B:E5:46:A5:F9:54:D4:7E:07:B3:DE:0D:60:3E

            Authority Information Access: 
                OCSP - URI:http://ca.someca-inc.com/ocsp
                CA Issuers - URI:http://ca.someca-inc.com/root

            X509v3 Certificate Policies: 
                Policy: 2.23.140.1.2.1
                Policy: X509v3 Any Policy

            X509v3 CRL Distribution Points: 

                Full Name:
                  URI:http://ca.someca-inc.com/crl

    Signature Algorithm: sha256WithRSAEncryption
         6b:14:20:11:e4:cd:4a:49:9b:14:a2:c8:b6:6e:48:8c:e0:ec:
         00:f9:fa:5e:e1:24:df:3f:6d:17:d0:ab:bd:af:2b:95:1e:c2:
         8b:8a:42:73:81:2b:2b:4d:08:5f:c2:e2:f5:f6:74:12:6b:9b:
         74:c1:8a:33:f1:69:9a:ff:16:8a:58:9b:01:52:f8:da:cc:5f:
         15:3a:26:46:70:d1:c6:39:92:11:17:60:12:76:e1:c8:53:fe:
         c2:b0:37:28:ab:e2:4d:c5:71:41:5a:dd:1a:06:c9:fd:58:50:
         1e:0e:aa:9a:e8:e6:c8:30:90:51:cb:f8:41:42:62:c2:f2:f7:
         1d:5a:7f:4c:71:a2:7c:6f:9c:ab:c6:24:99:77:b6:0f:b2:76:
         90:97:e8:06:fa:bc:e2:1a:15:a0:d3:0b:c9:11:21:11:dc:e7:
         9e:8f:27:a4:2e:0c:c2:04:ff:e1:f6:fb:5e:14:d4:2f:14:68:
         b8:a5:14:73:31:04:42:94:86:5a:bf:c8:bd:28:0b:0b:bc:d6:
         9d:f5:6c:7f:97:2e:4a:85:35:b9:b4:8d:11:bf:2a:30:e6:da:
         98:21:a0:3f:32:f0:11:d4:6e:24:86:93:db:cf:93:1a:73:4e:
         64:6a:cb:d9:d6:37:34:d1:7d:9d:df:6e:4c:f6:4a:56:04:3a:
         ed:6d:8e:60:a3:4e:ad:fb:98:a3:9f:bd:35:7c:b0:67:49:c0:
         f2:30:73:51:94:d7:80:3f:ba:db:f0:31:32:d9:94:37:f8:cc:
         ab:af:3d:ad:9b:bc:a8:18:5f:40:3a:74:1f:bd:2e:17:d6:57:
         33:ce:22:3d:18:25:0f:d6:19:f5:cc:11:2b:5c:55:98:76:96:
         20:a3:eb:8c:ff:9d:c6:01:70:3f:8b:ff:a6:1c:c9:b8:24:1a:
         d1:fe:1f:ec:40:a4:f3:a4:8d:5e:f8:2e:ac:ce:73:b0:f6:fb:
         27:59:31:73:11:d8:69:df:b6:2d:81:1a:89:c1:b3:fa:b1:fa:
         bf:a7:c4:ed:f0:cf:85:2b:26:ca:08:a9:2d:93:36:49:5a:5e:
         39:0e:70:e9:18:80:60:d1:82:8c:83:79:3d:39:24:32:c4:f2:
         65:fd:06:61:43:c8:f6:9f:9a:46:10:9a:17:00:91:aa:0f:e7:
         ab:04:e1:8d:2b:66:04:5b:6e:96:fe:63:6a:32:08:c0:78:3f:
         8f:95:a4:5c:3b:24:c7:37:1b:db:ee:35:36:fd:56:49:9c:0b:
         34:94:a3:52:13:30:ec:ec:58:95:95:cd:35:b7:f8:dd:75:93:
         43:4f:55:71:79:88:2d:56:72:5e:bc:2d:31:9f:ab:b1:4c:3f:
         21:24:45:e9:0f:ec:97:2b
-----BEGIN CERTIFICATE-----
MIIGezCCBGOgAwIBAgIRAOJuukOWYgReUwmm4zRp4g0wDQYJKoZIhvcNAQELBQAw
SDELMAkGA1UEBhMCWFgxEDAOBgNVBAoTB1NvbWUgQ0ExJzAlBgNVBAMTHkZha2Ug
Um9vdCBDQSBmb3IgemxpbnQgdGVzdGluZzAeFw0yNDA5MzAxMzQ1NDRaFw0yOTA5
MjkxMzQ1NDRaMHAxCzAJBgNVBAYTAlhYMRMwEQYDVQQIEwpTb21lIFN0YXRlMRYw
FAYDVQQHEw1Tb21lIExvY2FsaXR5MRAwDgYDVQQKEwdTb21lIENBMSIwIAYDVQQD
ExlGYWtlIENBIGZvciB6bGludCB0ZXN0aW5nMIICIjANBgkqhkiG9w0BAQEFAAOC
Ag8AMIICCgKCAgEAsulQwQ9kLoifu2zyJ6ynwFvNCZvJ+gPvo9wnp7TPJmnrvB+4
hi7Lx2rRrT2IxS/REJr9N6Ekeav8EKlps/xEEYpWNg5MLKQ/Sb09FJW/326A6tBI
A/XjjpA6jQAbmnEDui9qHgn2MHsbyFa7HATxclkbjSTi4zPgvWJv7XR5Lefd+3EH
MEwl+7Ek4j7NeDJojPXkmSW++i+6qL+c9C7rV766WO/2/QsuA0BVScEKMl/5YJBS
JVEvLHy7I20UctdKQn+BAFg7qwSaXyzLqdGVQhsNcdzStSHorFqG3EhoAe57KOYt
c4WDjVxCCbgR4hpTVFdYzzo/+13SxVmU3bddqP+w5+CjVMbn95/fxKpccVoqEN/N
fb1wjgsN0xRKq3oA7rN1iHh6ToZMrPBU1AWkA1PppQlVpnafjZajmk/dWEWVS+FI
X/udh0Ek5dUXrMZo0HRMsueG6zCDVDaI8fTX9UhAOUwxdg0uGTil+lTYk6CG5Vzp
ZJkvLzzuTme9Wf6bzj1NNE3YdiMG3VaEQCWMUqvE49QtTkYesyN4msh5/m2wY2xj
GwhQgjjXCtIS8EZkMvUpejp33JE+j2AtLvaS+QKR56fiBtyvOiZM2e8yjyLvPHX1
kD0BkRMp8gFNavaKpVt9+Kq/MXRWz7EN6z7Tmh3/lrX/beNkDVvc/x0llH0CAwEA
AaOCATYwggEyMA4GA1UdDwEB/wQEAwIBBjAdBgNVHSUEFjAUBggrBgEFBQcDAgYI
KwYBBQUHAwEwDwYDVR0TAQH/BAUwAwEB/zAdBgNVHQ4EFgQU/JPkRp6Wz/HbEUS3
g65ZRKXU2dAwHwYDVR0jBBgwFoAU6Lb2dkvQO+VGpflU1H4Hs94NYD4wZAYIKwYB
BQUHAQEEWDBWMCkGCCsGAQUFBzABhh1odHRwOi8vY2Euc29tZWNhLWluYy5jb20v
b2NzcDApBggrBgEFBQcwAoYdaHR0cDovL2NhLnNvbWVjYS1pbmMuY29tL3Jvb3Qw
GwYDVR0gBBQwEjAIBgZngQwBAgEwBgYEVR0gADAtBgNVHR8EJjAkMCKgIKAehhxo
dHRwOi8vY2Euc29tZWNhLWluYy5jb20vY3JsMA0GCSqGSIb3DQEBCwUAA4ICAQBr
FCAR5M1KSZsUosi2bkiM4OwA+fpe4STfP20X0Ku9ryuVHsKLikJzgSsrTQhfwuL1
9nQSa5t0wYoz8Wma/xaKWJsBUvjazF8VOiZGcNHGOZIRF2ASduHIU/7CsDcoq+JN
xXFBWt0aBsn9WFAeDqqa6ObIMJBRy/hBQmLC8vcdWn9McaJ8b5yrxiSZd7YPsnaQ
l+gG+rziGhWg0wvJESER3OeejyekLgzCBP/h9vteFNQvFGi4pRRzMQRClIZav8i9
KAsLvNad9Wx/ly5KhTW5tI0Rvyow5tqYIaA/MvAR1G4khpPbz5Mac05kasvZ1jc0
0X2d325M9kpWBDrtbY5go06t+5ijn701fLBnScDyMHNRlNeAP7rb8DEy2ZQ3+Myr
rz2tm7yoGF9AOnQfvS4X1lczziI9GCUP1hn1zBErXFWYdpYgo+uM/53GAXA/i/+m
HMm4JBrR/h/sQKTzpI1e+C6sznOw9vsnWTFzEdhp37YtgRqJwbP6sfq/p8Tt8M+F
KybKCKktkzZJWl45DnDpGIBg0YKMg3k9OSQyxPJl/QZhQ8j2n5pGEJoXAJGqD+er
BOGNK2YEW26W/mNqMgjAeD+PlaRcOyTHNxvb7jU2/VZJnAs0lKNSEzDs7FiVlc01
t/jddZNDT1VxeYgtVnJevC0xn6uxTD8hJEXpD+yXKw==
-----END CERTIFICATE-----
