Certificate:
    Data:
        Version: 3 (0x2)
        Serial Number:
            1d:b9:17:4b:3f:9c:de:6a:2f:74:9e:77:5b:a2:a5:b9
        Signature Algorithm: sha256WithRSAEncryption
        Issuer: C = XX, O = Some CA, CN = Fake Root CA for zlint testing
        Validity
            Not Before: Sep 30 13:43:06 2024 GMT
            Not After : Sep 29 13:43:06 2029 GMT
        Subject: C = XX, ST = Some State, L = Some Locality, O = Some CA, CN = Fake CA for zlint testing
        Subject Public Key Info:
            Public Key Algorithm: rsaEncryption
                RSA Public-Key: (4096 bit)
                Modulus:
                    00:e6:d6:2c:cf:80:ca:29:5b:b8:4f:e3:45:01:60:
                    b5:c2:b8:73:43:ef:4d:a4:07:d5:05:ae:2a:66:6f:
                    e5:17:36:ea:64:ff:00:56:ff:45:ce:b3:8a:d2:f3:
                    3c:7b:15:22:b2:7d:1b:32:7e:15:62:5c:a0:32:49:
                    f9:c3:82:bc:fb:66:96:0b:d3:be:7d:48:83:c9:bc:
                    52:e6:0e:df:b0:e5:78:15:ef:77:f6:bd:14:f9:b9:
                    66:7a:83:a2:a0:8f:93:58:40:87:f3:3c:b0:73:2a:
                    81:da:21:7a:49:00:86:19:e3:57:2e:e8:87:da:d1:
                    50:01:c0:49:aa:f7:56:cf:4c:d9:97:f2:44:7d:26:
                    f5:a0:ff:ee:22:65:e6:5a:e2:38:9a:91:15:a8:8b:
                    40:5b:8d:e6:aa:d4:40:17:9a:5a:21:a2:56:77:ed:
                    ac:42:9a:d0:f9:38:98:fa:3d:92:47:45:b6:4f:6c:
                    52:00:12:b5:d1:94:f6:2d:33:57:0a:2c:41:f4:7a:
                    b2:5e:59:28:00:66:ab:82:56:ed:f3:00:c6:6e:82:
                    0e:99:06:91:0d:60:1e:22:37:c4:98:44:05:38:0a:
                    33:06:38:08:f3:5e:1a:a6:dc:ec:1f:60:c0:71:f2:
                    a9:46:73:cb:89:56:ef:39:8b:8e:22:48:e3:ee:c6:
                    5e:f7:25:51:36:95:6d:6b:2c:40:7d:af:cf:e4:cc:
                    fe:62:74:6e:27:4a:92:e8:6c:25:44:6e:41:19:89:
                    d6:71:d5:32:3f:5a:78:ae:f5:83:0d:77:42:9b:18:
                    63:8a:2e:43:b2:a5:ab:fe:14:29:41:b3:77:61:31:
                    79:24:03:06:18:9b:28:18:57:3a:74:43:ac:1f:57:
                    ea:fa:4c:71:29:f1:d1:13:9d:e3:bc:6f:f6:0e:6e:
                    b2:2f:c7:d6:0f:4a:6a:da:a1:e8:4d:82:7e:ec:04:
                    28:2a:a4:d0:f0:7c:80:0c:a0:26:9e:d0:d7:90:6c:
                    23:12:dd:bb:6d:41:e1:8b:50:81:3a:b2:50:94:2f:
                    63:ed:b4:84:e3:9b:5b:bf:28:e9:ca:3a:07:af:2b:
                    c5:df:e8:c7:bd:ba:48:e1:fd:21:a2:65:b5:6c:5b:
                    42:cd:6f:98:c4:2a:91:05:4e:f8:68:f2:5d:53:39:
                    ab:cd:88:0b:86:8a:82:e2:7e:68:e8:79:11:53:77:
                    e2:0b:74:62:0c:5e:76:4c:ad:c9:a5:24:48:13:cd:
                    89:d3:12:07:60:60:44:94:b9:ca:45:88:64:30:5a:
                    a3:31:f9:7f:00:fc:37:3c:6e:47:2e:e6:e2:23:06:
                    c5:3c:39:f4:df:38:61:5c:14:c0:7d:aa:83:c4:8f:
                    6c:18:97
                Exponent: 65537 (0x10001)
        X509v3 extensions:
            X509v3 Key Usage: critical
                Certificate Sign, CRL Sign
            X509v3 Extended Key Usage: 
                TLS Web Client Authentication, TLS Web Server Authentication
            X509v3 Basic Constraints: critical
                CA:TRUE
            X509v3 Subject Key Identifier: 
                9E:C0:F2:97:2D:50:C6:11:7E:EE:3E:83:EC:1B:84:91:2C:F8:B4:B7
            X509v3 Authority Key Identifier: 
                keyid:E8:B6:F6:76:4B:D0:3B:E5:46:A5:F9:54:D4:7E:07:B3:DE:0D:60:3E

            Authority Information Access: 
                OCSP - URI:http://ca.someca-inc.com/ocsp
                CA Issuers - URI:http://ca.someca-inc.com/root

            X509v3 Certificate Policies: 
                Policy: X509v3 Any Policy

            X509v3 CRL Distribution Points: 

                Full Name:
                  URI:http://ca.someca-inc.com/crl

    Signature Algorithm: sha256WithRSAEncryption
         e4:6d:9b:35:e5:16:0e:48:5f:aa:05:f9:e9:86:fa:ca:3a:03:
         91:9a:6e:98:4b:e2:c5:eb:1d:88:42:47:02:30:3c:b9:c0:54:
         14:13:c0:f8:38:19:b1:b2:27:85:74:95:ca:bc:d8:02:8f:dd:
         c3:7b:0b:9f:38:c2:85:50:1a:be:02:8f:94:71:5b:82:00:5a:
         a0:cd:ad:ed:78:ef:7a:69:88:dc:5a:5f:0c:61:1c:0b:a6:b9:
         88:4e:4d:ee:96:0a:a2:d1:ca:43:85:f4:26:5a:d4:e7:eb:d5:
         1b:f9:0e:71:b4:2a:b8:72:6f:dd:96:12:d0:43:bc:57:29:f0:
         8d:d5:e9:31:85:c3:91:be:75:95:d3:5d:1b:dd:f9:4f:14:9e:
         eb:f8:d2:66:e9:fe:9f:f5:d2:98:72:be:89:71:cd:94:c3:b1:
         9f:aa:2f:d8:c3:19:df:82:63:d7:14:4d:56:c3:0e:82:d3:ad:
         c2:2b:ca:b9:90:49:6b:fb:33:7a:d7:26:04:5a:5f:26:85:c4:
         c6:c1:5d:93:ef:f6:11:ea:90:7a:b7:e5:a1:63:a8:3c:9c:43:
         98:a0:5f:1f:d7:62:52:36:52:64:2a:20:2b:a2:b4:60:2c:a8:
         ea:55:df:2c:2b:19:b8:78:ba:85:3d:98:25:05:dc:78:4e:7f:
         85:20:52:5b:fc:3a:c0:e7:c7:18:62:f4:c4:b7:eb:8b:2a:de:
         34:41:f8:5c:19:95:5e:3a:da:65:31:2a:59:65:cf:81:76:95:
         ba:13:6c:66:42:a1:9f:61:05:d9:6d:67:a2:7b:27:83:c9:96:
         8a:dd:31:ee:ce:01:84:39:24:40:c3:e2:ce:04:23:62:24:36:
         d1:43:92:90:3e:9c:12:07:ea:e9:6c:9f:7d:b1:08:7b:eb:84:
         ee:75:6e:11:5e:53:7f:e2:e9:dc:22:d3:9e:7e:f4:dc:14:66:
         12:c4:83:f7:36:53:79:48:4b:74:8c:a3:38:15:44:27:61:64:
         c4:91:3b:05:ae:7a:c4:68:0a:76:f9:a7:2d:2f:89:6a:0b:ca:
         a9:6a:cd:f1:a5:e4:c1:52:d8:d8:bd:8c:44:e4:4b:8c:34:78:
         6f:7c:83:74:d3:9e:35:aa:13:19:b4:70:13:dd:a9:3a:cb:e3:
         29:9c:6b:11:ff:93:bb:c0:c7:b9:cb:b7:49:7c:99:df:d0:95:
         79:fb:73:ea:1e:ac:2d:37:a9:fe:db:bf:7d:64:34:d7:3e:61:
         90:62:45:5d:97:2d:7e:8e:95:bc:67:e9:59:2e:d0:74:04:ff:
         2f:b5:28:a5:50:70:0c:14:ed:b7:c6:e3:e6:44:9f:5d:e5:00:
         a9:60:85:39:6a:10:56:af
-----BEGIN CERTIFICATE-----
MIIGcDCCBFigAwIBAgIQHbkXSz+c3movdJ53W6KluTANBgkqhkiG9w0BAQsFADBI
MQswCQYDVQQGEwJYWDEQMA4GA1UEChMHU29tZSBDQTEnMCUGA1UEAxMeRmFrZSBS
b290IENBIGZvciB6bGludCB0ZXN0aW5nMB4XDTI0MDkzMDEzNDMwNloXDTI5MDky
OTEzNDMwNlowcDELMAkGA1UEBhMCWFgxEzARBgNVBAgTClNvbWUgU3RhdGUxFjAU
BgNVBAcTDVNvbWUgTG9jYWxpdHkxEDAOBgNVBAoTB1NvbWUgQ0ExIjAgBgNVBAMT
GUZha2UgQ0EgZm9yIHpsaW50IHRlc3RpbmcwggIiMA0GCSqGSIb3DQEBAQUAA4IC
DwAwggIKAoICAQDm1izPgMopW7hP40UBYLXCuHND702kB9UFripmb+UXNupk/wBW
/0XOs4rS8zx7FSKyfRsyfhViXKAySfnDgrz7ZpYL0759SIPJvFLmDt+w5XgV73f2
vRT5uWZ6g6Kgj5NYQIfzPLBzKoHaIXpJAIYZ41cu6Ifa0VABwEmq91bPTNmX8kR9
JvWg/+4iZeZa4jiakRWoi0Bbjeaq1EAXmloholZ37axCmtD5OJj6PZJHRbZPbFIA
ErXRlPYtM1cKLEH0erJeWSgAZquCVu3zAMZugg6ZBpENYB4iN8SYRAU4CjMGOAjz
Xhqm3OwfYMBx8qlGc8uJVu85i44iSOPuxl73JVE2lW1rLEB9r8/kzP5idG4nSpLo
bCVEbkEZidZx1TI/Wniu9YMNd0KbGGOKLkOypav+FClBs3dhMXkkAwYYmygYVzp0
Q6wfV+r6THEp8dETneO8b/YObrIvx9YPSmraoehNgn7sBCgqpNDwfIAMoCae0NeQ
bCMS3bttQeGLUIE6slCUL2PttITjm1u/KOnKOgevK8Xf6Me9ukjh/SGiZbVsW0LN
b5jEKpEFTvho8l1TOavNiAuGioLifmjoeRFTd+ILdGIMXnZMrcmlJEgTzYnTEgdg
YESUucpFiGQwWqMx+X8A/Dc8bkcu5uIjBsU8OfTfOGFcFMB9qoPEj2wYlwIDAQAB
o4IBLDCCASgwDgYDVR0PAQH/BAQDAgEGMB0GA1UdJQQWMBQGCCsGAQUFBwMCBggr
BgEFBQcDATAPBgNVHRMBAf8EBTADAQH/MB0GA1UdDgQWBBSewPKXLVDGEX7uPoPs
G4SRLPi0tzAfBgNVHSMEGDAWgBTotvZ2S9A75Ual+VTUfgez3g1gPjBkBggrBgEF
BQcBAQRYMFYwKQYIKwYBBQUHMAGGHWh0dHA6Ly9jYS5zb21lY2EtaW5jLmNvbS9v
Y3NwMCkGCCsGAQUFBzAChh1odHRwOi8vY2Euc29tZWNhLWluYy5jb20vcm9vdDAR
BgNVHSAECjAIMAYGBFUdIAAwLQYDVR0fBCYwJDAioCCgHoYcaHR0cDovL2NhLnNv
bWVjYS1pbmMuY29tL2NybDANBgkqhkiG9w0BAQsFAAOCAgEA5G2bNeUWDkhfqgX5
6Yb6yjoDkZpumEvixesdiEJHAjA8ucBUFBPA+DgZsbInhXSVyrzYAo/dw3sLnzjC
hVAavgKPlHFbggBaoM2t7XjvemmI3FpfDGEcC6a5iE5N7pYKotHKQ4X0JlrU5+vV
G/kOcbQquHJv3ZYS0EO8VynwjdXpMYXDkb51ldNdG935TxSe6/jSZun+n/XSmHK+
iXHNlMOxn6ov2MMZ34Jj1xRNVsMOgtOtwivKuZBJa/szetcmBFpfJoXExsFdk+/2
EeqQerfloWOoPJxDmKBfH9diUjZSZCogK6K0YCyo6lXfLCsZuHi6hT2YJQXceE5/
hSBSW/w6wOfHGGL0xLfriyreNEH4XBmVXjraZTEqWWXPgXaVuhNsZkKhn2EF2W1n
onsng8mWit0x7s4BhDkkQMPizgQjYiQ20UOSkD6cEgfq6WyffbEIe+uE7nVuEV5T
f+Lp3CLTnn703BRmEsSD9zZTeUhLdIyjOBVEJ2FkxJE7Ba56xGgKdvmnLS+JagvK
qWrN8aXkwVLY2L2MRORLjDR4b3yDdNOeNaoTGbRwE92pOsvjKZxrEf+Tu8DHucu3
SXyZ39CVeftz6h6sLTep/tu/fWQ01z5hkGJFXZctfo6VvGfpWS7QdAT/L7UopVBw
DBTtt8bj5kSfXeUAqWCFOWoQVq8=
-----END CERTIFICATE-----
