Certificate:
    Data:
        Version: 3 (0x2)
        Serial Number:
            7b:54:dc:f0:b1:6d:fb:dd:ad:8e:01:20:39:78:b0:28
        Signature Algorithm: sha256WithRSAEncryption
        Issuer: C = XX, O = Some CA, CN = Fake Root CA for zlint testing
        Validity
            Not Before: Sep 30 13:55:20 2024 GMT
            Not After : Sep 29 13:55:20 2029 GMT
        Subject: C = XX, ST = Some State, L = Some Locality, O = Some CA, CN = Fake CA for zlint testing
        Subject Public Key Info:
            Public Key Algorithm: rsaEncryption
                RSA Public-Key: (4096 bit)
                Modulus:
                    00:df:5f:76:7e:1e:01:4d:2e:9d:33:99:52:78:9c:
                    e9:9a:03:ca:15:69:09:24:74:f1:6d:ce:7b:5f:e1:
                    db:8b:3e:c6:5a:72:d1:25:50:63:11:f9:2a:98:09:
                    19:67:d1:12:97:b8:7c:a3:00:c4:32:fe:c8:9a:6e:
                    96:1e:6d:93:fc:c1:35:6e:89:0d:fe:fd:d5:f4:cb:
                    f5:ca:40:0f:ff:fc:b0:85:a2:37:b7:cc:a2:86:8d:
                    25:40:33:a8:8c:24:01:5d:ed:60:6b:05:32:df:cb:
                    29:e5:55:73:50:3d:15:94:3d:3f:4e:4b:01:7d:3b:
                    39:dd:2d:2e:9e:0a:03:57:b7:a4:c9:15:8d:63:16:
                    46:72:62:8a:6e:ed:ea:8f:5c:15:25:3e:81:fc:0d:
                    5e:dd:36:f3:db:96:46:03:b1:93:08:62:48:5d:f2:
                    32:75:f2:45:89:36:01:70:9f:74:b4:2b:22:b8:d6:
                    93:41:78:37:21:3c:6f:87:b9:ec:9e:d1:0d:61:bc:
                    c9:f1:fa:4c:fd:cd:30:6f:ac:31:13:eb:14:a6:e7:
                    87:48:2e:55:13:f0:12:27:ec:a4:44:46:65:ca:07:
                    f4:a2:59:4b:63:d6:58:a7:ee:dc:3d:62:c6:31:19:
                    9c:9e:20:f2:20:94:23:1d:a5:5c:8e:e4:81:f7:d5:
                    1d:5e:6e:85:af:3e:e5:c2:24:9d:31:9a:5a:a0:43:
                    d5:5a:73:e0:ed:98:f0:df:ab:4f:ce:0a:1a:48:f6:
                    0e:61:98:5f:13:8a:25:13:8e:ee:7c:dd:2f:d7:11:
                    a5:b8:18:13:52:d8:21:06:85:9c:46:9a:c9:c2:ec:
                    40:ef:d1:ad:17:89:26:88:6e:2f:1f:00:1f:a5:e4:
                    8c:ba:be:fd:10:c9:94:ea:fa:85:2f:eb:21:57:f1:
                    ba:8a:5f:be:29:eb:5c:dd:bd:a6:48:f9:59:1a:4d:
                    c6:12:0f:7a:4e:5f:14:7b:1f:6a:80:29:ca:34:19:
                    b7:a1:90:2e:33:95:6d:a6:48:06:57:ea:72:fa:39:
                    97:8a:7d:a8:f2:e1:7b:ac:c1:78:7b:76:21:a9:9d:
                    ea:73:82:06:ae:23:4f:13:1d:cf:cb:c6:78:94:f4:
                    b2:cf:bc:b1:a1:62:91:27:9e:88:d3:a4:fe:44:7e:
                    2a:0d:4e:68:c5:54:2d:01:d3:bf:14:62:0d:54:22:
                    54:76:e9:04:e6:a4:6b:80:28:c1:cd:0e:8b:3a:9e:
                    9b:6e:9a:a4:ce:27:e6:06:d5:bb:36:0f:a4:fd:a7:
                    08:8a:69:14:7b:2b:a8:54:64:d5:72:84:8e:ee:4f:
                    b6:58:c1:5f:e6:b1:94:a9:57:21:f9:97:2c:d8:38:
                    6d:ca:99
                Exponent: 65537 (0x10001)
        X509v3 extensions:
            X509v3 Key Usage: critical
                Certificate Sign, CRL Sign
            X509v3 Extended Key Usage: 
                TLS Web Client Authentication, TLS Web Server Authentication
            X509v3 Basic Constraints: critical
                CA:TRUE
            X509v3 Subject Key Identifier: 
                0F:AE:FB:36:D7:76:1A:1C:5C:3F:E0:40:A3:37:37:E7:E1:1B:10:4E
            X509v3 Authority Key Identifier: 
                keyid:E8:B6:F6:76:4B:D0:3B:E5:46:A5:F9:54:D4:7E:07:B3:DE:0D:60:3E

            Authority Information Access: 
                OCSP - URI:http://ca.someca-inc.com/ocsp
                CA Issuers - URI:http://ca.someca-inc.com/root

            X509v3 Certificate Policies: 
                Policy: 1.2.3.5.7.9
                Policy: 1.2.4.6.8.10

            X509v3 CRL Distribution Points: 

                Full Name:
                  URI:http://ca.someca-inc.com/crl

    Signature Algorithm: sha256WithRSAEncryption
         dc:e8:bc:8e:47:0e:ad:42:4f:63:1d:79:35:03:19:95:59:21:
         63:fc:5e:a9:97:65:c5:ab:67:fa:d0:4a:51:63:25:d8:fb:3f:
         6d:31:64:50:0a:1c:6f:33:55:94:18:27:2b:ea:24:a7:4b:c3:
         e8:6c:47:1d:c9:44:5e:96:e5:c3:e2:71:0b:29:09:20:a2:a1:
         c7:79:4a:99:2d:39:97:61:ec:c8:30:94:08:19:b0:7c:3b:36:
         a9:ca:05:aa:ea:9a:c1:08:58:38:0c:3f:b4:a3:99:8c:cd:d1:
         16:d6:d7:44:b5:87:f5:4e:bc:cb:82:47:1a:62:11:2f:0b:4d:
         20:93:6d:0c:15:51:f9:3e:fb:d9:35:66:66:e0:63:c3:27:fe:
         e0:c1:dd:6a:5e:3b:d4:2e:4f:99:13:4b:82:f5:1a:f7:df:a8:
         bc:af:5d:ca:1e:fa:fc:7f:15:52:a9:a9:f4:d0:4d:8a:dc:72:
         2b:c2:59:b6:97:28:22:68:ea:75:c0:6b:ed:22:4f:c5:49:fc:
         73:b1:e3:18:af:f0:37:94:af:9c:33:af:cf:c4:2c:ff:d5:30:
         4b:c8:e0:ba:a8:bf:75:1a:ed:e1:e5:b4:d0:1c:de:b3:cf:97:
         eb:02:f6:a9:a3:72:27:00:59:b4:d3:4e:6b:c9:bc:c7:e1:d8:
         d0:41:3e:0e:1f:d1:30:f1:8d:d1:f8:ad:f4:b6:e4:04:bf:49:
         bb:d1:5c:54:d9:6a:1d:9b:f7:f8:ce:61:33:68:7e:14:67:a4:
         86:bc:5e:4d:0c:74:89:27:45:c1:ad:2f:b6:c9:de:cc:08:a2:
         33:c9:f5:ea:4a:33:52:52:ba:01:a3:67:1a:31:d0:c8:b0:56:
         61:eb:c0:25:71:6f:f9:1b:34:e8:d5:78:6f:6d:5e:c5:cf:39:
         ac:e8:66:ca:6a:22:dc:6e:30:a8:85:9e:ef:4b:b7:3d:1e:26:
         0b:7c:54:3f:e5:29:d8:25:1d:5b:d1:0c:3a:70:88:05:3c:79:
         54:34:ca:28:f2:d6:a6:81:96:79:11:7a:90:5d:d9:d1:ca:f8:
         4c:66:b4:f2:45:de:1e:98:a6:17:8b:3e:6f:86:4e:ae:29:43:
         cb:8d:4e:56:6b:7f:bb:0d:c8:09:c3:93:e3:2b:a5:21:ed:d3:
         34:a5:d6:5f:6d:4c:1a:a5:4b:12:74:36:87:56:d3:24:31:4c:
         77:68:90:46:ac:de:09:a3:08:3c:50:67:8b:58:31:12:68:48:
         53:de:dd:fd:13:c6:20:91:31:10:87:bf:9b:c3:24:d6:e0:39:
         58:1f:04:1f:1d:31:7e:c8:a8:49:e8:3e:0f:f6:a2:75:04:81:
         40:2b:7c:95:33:ab:a8:9a
-----BEGIN CERTIFICATE-----
MIIGejCCBGKgAwIBAgIQe1Tc8LFt+92tjgEgOXiwKDANBgkqhkiG9w0BAQsFADBI
MQswCQYDVQQGEwJYWDEQMA4GA1UEChMHU29tZSBDQTEnMCUGA1UEAxMeRmFrZSBS
b290IENBIGZvciB6bGludCB0ZXN0aW5nMB4XDTI0MDkzMDEzNTUyMFoXDTI5MDky
OTEzNTUyMFowcDELMAkGA1UEBhMCWFgxEzARBgNVBAgTClNvbWUgU3RhdGUxFjAU
BgNVBAcTDVNvbWUgTG9jYWxpdHkxEDAOBgNVBAoTB1NvbWUgQ0ExIjAgBgNVBAMT
GUZha2UgQ0EgZm9yIHpsaW50IHRlc3RpbmcwggIiMA0GCSqGSIb3DQEBAQUAA4IC
DwAwggIKAoICAQDfX3Z+HgFNLp0zmVJ4nOmaA8oVaQkkdPFtzntf4duLPsZactEl
UGMR+SqYCRln0RKXuHyjAMQy/siabpYebZP8wTVuiQ3+/dX0y/XKQA///LCFoje3
zKKGjSVAM6iMJAFd7WBrBTLfyynlVXNQPRWUPT9OSwF9OzndLS6eCgNXt6TJFY1j
FkZyYopu7eqPXBUlPoH8DV7dNvPblkYDsZMIYkhd8jJ18kWJNgFwn3S0KyK41pNB
eDchPG+Hueye0Q1hvMnx+kz9zTBvrDET6xSm54dILlUT8BIn7KRERmXKB/SiWUtj
1lin7tw9YsYxGZyeIPIglCMdpVyO5IH31R1eboWvPuXCJJ0xmlqgQ9Vac+DtmPDf
q0/OChpI9g5hmF8TiiUTju583S/XEaW4GBNS2CEGhZxGmsnC7EDv0a0XiSaIbi8f
AB+l5Iy6vv0QyZTq+oUv6yFX8bqKX74p61zdvaZI+VkaTcYSD3pOXxR7H2qAKco0
GbehkC4zlW2mSAZX6nL6OZeKfajy4XuswXh7diGpnepzggauI08THc/LxniU9LLP
vLGhYpEnnojTpP5EfioNTmjFVC0B078UYg1UIlR26QTmpGuAKMHNDos6nptumqTO
J+YG1bs2D6T9pwiKaRR7K6hUZNVyhI7uT7ZYwV/msZSpVyH5lyzYOG3KmQIDAQAB
o4IBNjCCATIwDgYDVR0PAQH/BAQDAgEGMB0GA1UdJQQWMBQGCCsGAQUFBwMCBggr
BgEFBQcDATAPBgNVHRMBAf8EBTADAQH/MB0GA1UdDgQWBBQPrvs213YaHFw/4ECj
Nzfn4RsQTjAfBgNVHSMEGDAWgBTotvZ2S9A75Ual+VTUfgez3g1gPjBkBggrBgEF
BQcBAQRYMFYwKQYIKwYBBQUHMAGGHWh0dHA6Ly9jYS5zb21lY2EtaW5jLmNvbS9v
Y3NwMCkGCCsGAQUFBzAChh1odHRwOi8vY2Euc29tZWNhLWluYy5jb20vcm9vdDAb
BgNVHSAEFDASMAcGBSoDBQcJMAcGBSoEBggKMC0GA1UdHwQmMCQwIqAgoB6GHGh0
dHA6Ly9jYS5zb21lY2EtaW5jLmNvbS9jcmwwDQYJKoZIhvcNAQELBQADggIBANzo
vI5HDq1CT2MdeTUDGZVZIWP8XqmXZcWrZ/rQSlFjJdj7P20xZFAKHG8zVZQYJyvq
JKdLw+hsRx3JRF6W5cPicQspCSCiocd5SpktOZdh7MgwlAgZsHw7NqnKBarqmsEI
WDgMP7SjmYzN0RbW10S1h/VOvMuCRxpiES8LTSCTbQwVUfk++9k1ZmbgY8Mn/uDB
3WpeO9QuT5kTS4L1GvffqLyvXcoe+vx/FVKpqfTQTYrccivCWbaXKCJo6nXAa+0i
T8VJ/HOx4xiv8DeUr5wzr8/ELP/VMEvI4Lqov3Ua7eHltNAc3rPPl+sC9qmjcicA
WbTTTmvJvMfh2NBBPg4f0TDxjdH4rfS25AS/SbvRXFTZah2b9/jOYTNofhRnpIa8
Xk0MdIknRcGtL7bJ3swIojPJ9epKM1JSugGjZxox0MiwVmHrwCVxb/kbNOjVeG9t
XsXPOazoZspqItxuMKiFnu9Ltz0eJgt8VD/lKdglHVvRDDpwiAU8eVQ0yijy1qaB
lnkRepBd2dHK+ExmtPJF3h6YpheLPm+GTq4pQ8uNTlZrf7sNyAnDk+MrpSHt0zSl
1l9tTBqlSxJ0NodW0yQxTHdokEas3gmjCDxQZ4tYMRJoSFPe3f0TxiCRMRCHv5vD
JNbgOVgfBB8dMX7IqEnoPg/2onUEgUArfJUzq6ia
-----END CERTIFICATE-----
