Certificate:
    Data:
        Version: 3 (0x2)
        Serial Number:
            2b:41:ad:6b:5e:05:c6:9d:34:77:49:d0:d3:6f:ee:a3
        Signature Algorithm: sha256WithRSAEncryption
        Issuer: C = XX, O = Some CA, CN = Fake Root CA for zlint testing
        Validity
            Not Before: Apr 23 00:00:00 2022 GMT
            Not After : Apr 22 00:00:00 2027 GMT
        Subject: C = XX, ST = Some State, L = Some Locality, O = Some CA, CN = Fake CA for zlint testing
        Subject Public Key Info:
            Public Key Algorithm: rsaEncryption
                RSA Public-Key: (4096 bit)
                Modulus:
                    00:d2:8f:2f:c3:db:e4:7c:a3:d1:dd:df:48:f8:ac:
                    71:5e:44:f1:81:aa:74:48:5d:b2:49:2b:07:1b:ea:
                    06:e2:07:c3:38:2a:df:cf:4c:03:64:e9:2f:db:f7:
                    e8:84:64:ea:7f:8e:33:e0:6f:e8:a6:c3:12:db:f6:
                    41:9f:38:fa:69:3a:88:4b:52:cb:74:21:00:4c:e1:
                    5a:e5:b1:5b:dd:8f:d7:36:52:4b:65:67:69:23:e0:
                    14:aa:0b:5b:e7:af:46:f0:02:d4:9b:f2:08:9b:34:
                    83:a1:69:3f:3d:66:2e:cc:94:74:06:2e:69:ce:b0:
                    be:fd:73:15:cf:40:02:6d:eb:b7:21:e9:5e:35:b7:
                    ac:f8:92:f0:35:cd:bf:a5:12:a4:f3:6f:dc:3b:0c:
                    10:7b:72:fd:11:22:75:41:41:74:8a:ad:b8:b0:1a:
                    b4:98:38:1e:69:76:c5:af:d8:0b:6f:f2:42:e8:ea:
                    7d:6b:71:b5:56:42:e5:d2:66:d5:26:62:81:d4:40:
                    03:08:dc:23:04:e9:af:69:8b:8b:f4:38:42:96:7a:
                    5b:66:0e:12:84:9f:3e:19:da:be:a8:b8:8d:29:c5:
                    e1:2f:2d:e4:e6:3b:b8:af:e1:58:a1:27:1f:fb:8a:
                    e0:cc:68:ce:26:00:56:4b:bb:ea:e6:7f:76:ad:da:
                    c1:9f:32:14:ec:7f:b8:96:b3:7a:9e:fe:69:a7:4e:
                    ab:89:44:cf:cd:ea:ce:ba:34:08:8e:b7:4a:05:e6:
                    11:5e:0e:af:f3:a6:17:c8:b2:76:40:25:6e:b4:a2:
                    bf:2f:c1:8c:ce:19:88:9a:94:29:7b:a9:d3:39:2d:
                    d4:15:e5:c9:6d:ef:f7:9a:c4:21:00:c8:4c:45:95:
                    04:15:ac:3a:9f:75:23:e9:45:28:fb:53:24:2d:dd:
                    80:b6:da:20:fb:c2:ad:63:39:7d:51:c0:cf:7b:35:
                    89:93:49:65:10:38:d1:76:a5:0e:9c:af:6a:51:c8:
                    fb:a7:a3:65:a4:2a:98:24:7b:e5:ef:46:09:51:f8:
                    26:d4:c2:bb:ba:cc:9a:8b:95:db:2a:dc:a5:57:7e:
                    8b:72:0b:54:4c:e2:67:48:15:6a:ec:1c:f7:43:63:
                    bb:24:bd:5b:9f:02:2c:6b:99:ea:9f:1c:79:0c:18:
                    a8:35:71:26:db:44:68:be:44:b4:db:df:10:eb:34:
                    7a:08:78:d4:01:1b:5e:fc:a9:a1:b3:fe:91:b6:99:
                    b4:78:18:69:c0:75:69:91:98:40:f8:56:95:06:67:
                    62:56:58:b5:c8:9c:6c:e0:e8:78:76:df:6e:06:0b:
                    e9:57:e1:ad:94:df:55:97:cc:85:ca:2f:d8:89:ca:
                    43:28:ef
                Exponent: 65537 (0x10001)
        X509v3 extensions:
            X509v3 Key Usage: critical
                Certificate Sign, CRL Sign
            X509v3 Extended Key Usage: 
                TLS Web Client Authentication, TLS Web Server Authentication
            X509v3 Basic Constraints: critical
                CA:TRUE
            X509v3 Subject Key Identifier: 
                A7:D4:F6:F3:59:93:F0:8E:D9:93:61:3F:7C:BA:A1:1E:A6:6E:07:C1
            X509v3 Authority Key Identifier: 
                keyid:E8:B6:F6:76:4B:D0:3B:E5:46:A5:F9:54:D4:7E:07:B3:DE:0D:60:3E

            Authority Information Access: 
                OCSP - URI:http://ca.someca-inc.com/ocsp
                CA Issuers - URI:http://ca.someca-inc.com/root

            X509v3 Certificate Policies: 
                Policy: 1.2.3.5.7.9
                Policy: 1.2.4.6.8.10

            X509v3 CRL Distribution Points: 

                Full Name:
                  URI:http://ca.someca-inc.com/crl

    Signature Algorithm: sha256WithRSAEncryption
         19:07:36:68:dc:e2:16:b2:aa:c9:77:32:d6:9e:d9:98:c7:37:
         ae:b1:dd:c7:46:55:48:09:20:5b:95:04:b0:c0:80:28:67:40:
         aa:b9:de:24:c6:3e:d0:5d:d4:65:1a:17:01:7d:51:b4:9e:0b:
         88:2b:97:da:76:9f:e3:95:81:b1:c1:35:61:1b:d0:ce:8e:be:
         05:31:e3:fe:7f:07:86:83:2b:10:87:b1:23:4b:85:19:3c:6d:
         a1:67:80:1e:09:17:b4:50:15:9b:50:6e:2f:9b:3b:7e:b1:d7:
         64:82:0f:5a:b7:b4:0b:23:c4:66:16:ab:79:13:7e:4e:1c:2a:
         94:2d:19:10:3c:6d:2f:6c:fa:8c:7f:f2:b7:e3:59:e0:1d:23:
         01:ee:35:53:6a:64:80:4e:7c:33:d5:06:2f:cf:e1:39:45:b5:
         b7:fc:ba:f0:21:f6:5a:89:a7:da:bc:98:9d:b2:d5:3c:63:51:
         01:7d:be:db:d7:d0:d0:47:a7:c3:29:71:66:07:b0:c2:26:a1:
         80:cb:c9:c6:7c:0c:5e:bc:d5:4a:2b:86:02:54:3c:50:34:6b:
         c8:d3:35:df:20:a8:f7:31:ef:a1:bd:fa:69:f6:39:cd:53:c4:
         31:66:38:aa:86:58:27:c1:2c:6e:1a:68:e2:06:6f:36:f0:b5:
         5c:db:c2:ad:2d:a6:59:ab:07:e7:96:f9:f4:fd:a1:be:e8:7c:
         60:b6:e8:37:56:40:a9:eb:2e:16:b1:dc:8f:02:5e:83:ab:d9:
         14:c9:3b:a5:af:65:9a:49:38:86:4b:50:50:b0:16:d0:80:30:
         0b:60:85:7a:ab:6f:7b:21:81:51:da:c5:68:27:0d:a8:a3:dc:
         20:30:c0:2f:91:22:b5:ea:5b:ce:08:91:b3:8b:f9:b5:65:a3:
         de:15:ee:92:91:98:84:57:a7:18:a9:76:04:2c:ed:aa:a2:d0:
         91:76:60:5d:88:c8:23:d1:db:51:60:84:f7:70:ba:61:27:24:
         ff:d2:3f:f4:cb:44:56:d4:63:22:37:0e:0a:80:81:ae:d3:de:
         42:83:d3:f7:44:09:42:cf:81:d9:a0:ee:cb:b8:e9:a8:da:59:
         ca:1e:db:cf:94:68:5c:e5:28:3f:f7:3a:0c:7f:4d:13:2e:52:
         ec:b1:37:94:62:69:ef:14:ac:84:60:9a:3c:a0:18:3c:27:40:
         86:a1:26:fa:eb:49:ab:a3:9f:7f:dd:5e:61:eb:e6:64:b2:9a:
         76:95:9d:17:e7:da:48:53:cb:d0:37:de:4c:f7:60:83:e1:c1:
         dd:45:64:21:31:5a:93:b9:27:62:ff:f0:ef:70:06:47:22:ba:
         71:0d:98:df:cd:f6:cc:7a
-----BEGIN CERTIFICATE-----
MIIGejCCBGKgAwIBAgIQK0Gta14Fxp00d0nQ02/uozANBgkqhkiG9w0BAQsFADBI
MQswCQYDVQQGEwJYWDEQMA4GA1UEChMHU29tZSBDQTEnMCUGA1UEAxMeRmFrZSBS
b290IENBIGZvciB6bGludCB0ZXN0aW5nMB4XDTIyMDQyMzAwMDAwMFoXDTI3MDQy
MjAwMDAwMFowcDELMAkGA1UEBhMCWFgxEzARBgNVBAgTClNvbWUgU3RhdGUxFjAU
BgNVBAcTDVNvbWUgTG9jYWxpdHkxEDAOBgNVBAoTB1NvbWUgQ0ExIjAgBgNVBAMT
GUZha2UgQ0EgZm9yIHpsaW50IHRlc3RpbmcwggIiMA0GCSqGSIb3DQEBAQUAA4IC
DwAwggIKAoICAQDSjy/D2+R8o9Hd30j4rHFeRPGBqnRIXbJJKwcb6gbiB8M4Kt/P
TANk6S/b9+iEZOp/jjPgb+imwxLb9kGfOPppOohLUst0IQBM4VrlsVvdj9c2Uktl
Z2kj4BSqC1vnr0bwAtSb8gibNIOhaT89Zi7MlHQGLmnOsL79cxXPQAJt67ch6V41
t6z4kvA1zb+lEqTzb9w7DBB7cv0RInVBQXSKrbiwGrSYOB5pdsWv2Atv8kLo6n1r
cbVWQuXSZtUmYoHUQAMI3CME6a9pi4v0OEKWeltmDhKEnz4Z2r6ouI0pxeEvLeTm
O7iv4VihJx/7iuDMaM4mAFZLu+rmf3at2sGfMhTsf7iWs3qe/mmnTquJRM/N6s66
NAiOt0oF5hFeDq/zphfIsnZAJW60or8vwYzOGYialCl7qdM5LdQV5clt7/eaxCEA
yExFlQQVrDqfdSPpRSj7UyQt3YC22iD7wq1jOX1RwM97NYmTSWUQONF2pQ6cr2pR
yPuno2WkKpgke+XvRglR+CbUwru6zJqLldsq3KVXfotyC1RM4mdIFWrsHPdDY7sk
vVufAixrmeqfHHkMGKg1cSbbRGi+RLTb3xDrNHoIeNQBG178qaGz/pG2mbR4GGnA
dWmRmED4VpUGZ2JWWLXInGzg6Hh2324GC+lX4a2U31WXzIXKL9iJykMo7wIDAQAB
o4IBNjCCATIwDgYDVR0PAQH/BAQDAgEGMB0GA1UdJQQWMBQGCCsGAQUFBwMCBggr
BgEFBQcDATAPBgNVHRMBAf8EBTADAQH/MB0GA1UdDgQWBBSn1PbzWZPwjtmTYT98
uqEepm4HwTAfBgNVHSMEGDAWgBTotvZ2S9A75Ual+VTUfgez3g1gPjBkBggrBgEF
BQcBAQRYMFYwKQYIKwYBBQUHMAGGHWh0dHA6Ly9jYS5zb21lY2EtaW5jLmNvbS9v
Y3NwMCkGCCsGAQUFBzAChh1odHRwOi8vY2Euc29tZWNhLWluYy5jb20vcm9vdDAb
BgNVHSAEFDASMAcGBSoDBQcJMAcGBSoEBggKMC0GA1UdHwQmMCQwIqAgoB6GHGh0
dHA6Ly9jYS5zb21lY2EtaW5jLmNvbS9jcmwwDQYJKoZIhvcNAQELBQADggIBABkH
Nmjc4hayqsl3Mtae2ZjHN66x3cdGVUgJIFuVBLDAgChnQKq53iTGPtBd1GUaFwF9
UbSeC4grl9p2n+OVgbHBNWEb0M6OvgUx4/5/B4aDKxCHsSNLhRk8baFngB4JF7RQ
FZtQbi+bO36x12SCD1q3tAsjxGYWq3kTfk4cKpQtGRA8bS9s+ox/8rfjWeAdIwHu
NVNqZIBOfDPVBi/P4TlFtbf8uvAh9lqJp9q8mJ2y1TxjUQF9vtvX0NBHp8MpcWYH
sMImoYDLycZ8DF681UorhgJUPFA0a8jTNd8gqPcx76G9+mn2Oc1TxDFmOKqGWCfB
LG4aaOIGbzbwtVzbwq0tplmrB+eW+fT9ob7ofGC26DdWQKnrLhax3I8CXoOr2RTJ
O6WvZZpJOIZLUFCwFtCAMAtghXqrb3shgVHaxWgnDaij3CAwwC+RIrXqW84IkbOL
+bVlo94V7pKRmIRXpxipdgQs7aqi0JF2YF2IyCPR21FghPdwumEnJP/SP/TLRFbU
YyI3DgqAga7T3kKD0/dECULPgdmg7su46ajaWcoe28+UaFzlKD/3Ogx/TRMuUuyx
N5Riae8UrIRgmjygGDwnQIahJvrrSaujn3/dXmHr5mSymnaVnRfn2khTy9A33kz3
YIPhwd1FZCExWpO5J2L/8O9wBkciunENmN/N9sx6
-----END CERTIFICATE-----
