Certificate:
    Data:
        Version: 3 (0x2)
        Serial Number:
            1c:0a:02:4e:4c:9b:c4:4d:b6:fa:4c:5c:65:77:13:13
        Signature Algorithm: sha256WithRSAEncryption
        Issuer: C = XX, O = Some CA, CN = Fake CA for zlint testing
        Validity
            Not Before: Jul 26 12:27:20 2024 GMT
            Not After : Jul 26 12:27:20 2025 GMT
        Subject: C = IT, ST = Some State or Province, L = Somewhere, O = Some Company Ltd., CN = example.org, serialNumber = 1234567890, businessCategory = Non-Commercial Entity
        Subject Public Key Info:
            Public Key Algorithm: rsaEncryption
                RSA Public-Key: (2048 bit)
                Modulus:
                    00:b4:e3:b6:07:99:6a:ac:3c:17:36:26:06:f3:0c:
                    f0:17:64:08:f1:73:da:a7:8b:7e:aa:3d:2c:4a:6a:
                    9f:72:2d:6d:40:0e:ff:36:e1:79:29:0d:18:6a:2b:
                    5b:76:ca:c6:ee:db:ae:e9:6d:9b:0e:0e:41:d7:5b:
                    6d:a1:10:85:6a:e8:7c:3f:ea:3e:98:c6:50:36:61:
                    df:be:24:fd:02:7e:bc:1a:43:d5:8f:b6:39:69:4e:
                    cb:cb:b3:48:c5:6b:a0:55:00:b2:92:ef:29:16:12:
                    6e:12:16:af:5a:89:7d:bb:81:de:ac:fb:34:ce:9a:
                    88:5b:aa:41:01:0f:7c:e2:29:2a:65:c4:ce:a7:7c:
                    01:ce:95:a9:eb:8b:a9:e5:10:5d:f5:51:d6:87:9e:
                    54:30:cf:71:1b:84:51:f7:98:29:e0:b7:14:95:2d:
                    be:7c:db:7c:5a:53:84:4f:41:f3:7b:e0:88:e4:64:
                    9a:6c:2f:e0:71:7d:73:df:f6:44:1e:a4:b8:c0:03:
                    23:b2:1b:fa:ed:72:28:7e:5d:ca:55:07:18:94:a6:
                    c2:c0:00:9c:4f:3b:e6:64:0d:ad:92:10:72:52:8d:
                    fd:1b:ba:ba:7e:a8:03:27:33:35:2d:c7:00:ae:00:
                    55:dd:04:dc:21:54:7f:07:32:28:d0:d4:47:9c:1b:
                    11:59
                Exponent: 65537 (0x10001)
        X509v3 extensions:
            X509v3 Key Usage: critical
                Digital Signature, Key Encipherment
            X509v3 Extended Key Usage: 
                TLS Web Client Authentication, TLS Web Server Authentication
            X509v3 Subject Key Identifier: 
                91:F2:01:FC:F4:49:02:5F:02:0D:BB:71:BD:C1:18:39:C4:CD:E4:9B
            X509v3 Authority Key Identifier: 
                keyid:E8:B6:F6:76:4B:D0:3B:E5:46:A5:F9:54:D4:7E:07:B3:DE:0D:60:3E

            Authority Information Access: 
                OCSP - URI:http://ca.someca-inc.com/ocsp
                CA Issuers - URI:http://ca.someca-inc.com/root

            X509v3 Subject Alternative Name: 
                DNS:example.org
            X509v3 Certificate Policies: 
                Policy: 2.23.140.1.1

            X509v3 CRL Distribution Points: 

                Full Name:
                  URI:http://ca.someca-inc.com/crl

    Signature Algorithm: sha256WithRSAEncryption
         86:4f:6f:56:69:af:d2:92:48:62:e0:cb:4e:95:a3:e4:0e:62:
         42:92:78:6b:74:eb:ad:86:3a:95:28:12:d6:91:e7:9f:0d:56:
         c4:32:3e:21:b6:9b:27:73:4d:8c:eb:4e:b0:73:bf:9e:1f:f2:
         83:3b:c6:1f:0b:19:38:eb:36:65:c7:9a:a0:9c:39:80:30:c7:
         61:8a:ab:a3:7c:90:3e:c2:7e:cf:27:10:a1:bd:1a:fb:ef:72:
         c1:da:37:72:17:cf:60:de:77:60:e9:3a:53:1c:43:75:cc:6a:
         64:a2:28:cb:a4:a5:26:73:45:86:04:94:94:a4:72:32:1e:7c:
         a4:a3:7c:b5:a7:28:b2:c3:f0:d3:3c:2f:42:7f:e5:98:ca:d1:
         15:ba:73:45:bb:a4:6b:a2:04:e4:09:74:78:11:e5:37:ce:88:
         95:04:6f:02:8b:91:9a:1b:ce:cc:31:ae:aa:01:8c:fc:91:49:
         8f:35:a7:34:ac:90:16:10:cf:92:a0:8d:fa:96:2b:38:07:3e:
         51:30:ff:12:02:99:2a:d9:71:e6:f8:33:e2:94:54:f0:fd:7b:
         f8:3b:50:64:73:8c:55:86:cf:0f:ff:0f:d7:9d:05:0f:b7:8c:
         7e:a3:d0:a4:b0:b3:ab:84:99:dc:81:31:08:13:11:6d:a9:c6:
         1c:84:42:f0
-----BEGIN CERTIFICATE-----
MIIErTCCA5WgAwIBAgIQHAoCTkybxE22+kxcZXcTEzANBgkqhkiG9w0BAQsFADBD
MQswCQYDVQQGEwJYWDEQMA4GA1UEChMHU29tZSBDQTEiMCAGA1UEAxMZRmFrZSBD
QSBmb3IgemxpbnQgdGVzdGluZzAeFw0yNDA3MjYxMjI3MjBaFw0yNTA3MjYxMjI3
MjBaMIGpMQswCQYDVQQGEwJJVDEfMB0GA1UECBMWU29tZSBTdGF0ZSBvciBQcm92
aW5jZTESMBAGA1UEBxMJU29tZXdoZXJlMRowGAYDVQQKExFTb21lIENvbXBhbnkg
THRkLjEUMBIGA1UEAxMLZXhhbXBsZS5vcmcxEzARBgNVBAUTCjEyMzQ1Njc4OTAx
HjAcBgNVBA8TFU5vbi1Db21tZXJjaWFsIEVudGl0eTCCASIwDQYJKoZIhvcNAQEB
BQADggEPADCCAQoCggEBALTjtgeZaqw8FzYmBvMM8BdkCPFz2qeLfqo9LEpqn3It
bUAO/zbheSkNGGorW3bKxu7brultmw4OQddbbaEQhWrofD/qPpjGUDZh374k/QJ+
vBpD1Y+2OWlOy8uzSMVroFUAspLvKRYSbhIWr1qJfbuB3qz7NM6aiFuqQQEPfOIp
KmXEzqd8Ac6VqeuLqeUQXfVR1oeeVDDPcRuEUfeYKeC3FJUtvnzbfFpThE9B83vg
iORkmmwv4HF9c9/2RB6kuMADI7Ib+u1yKH5dylUHGJSmwsAAnE875mQNrZIQclKN
/Ru6un6oAyczNS3HAK4AVd0E3CFUfwcyKNDUR5wbEVkCAwEAAaOCATQwggEwMA4G
A1UdDwEB/wQEAwIFoDAdBgNVHSUEFjAUBggrBgEFBQcDAgYIKwYBBQUHAwEwHQYD
VR0OBBYEFJHyAfz0SQJfAg27cb3BGDnEzeSbMB8GA1UdIwQYMBaAFOi29nZL0Dvl
RqX5VNR+B7PeDWA+MGQGCCsGAQUFBwEBBFgwVjApBggrBgEFBQcwAYYdaHR0cDov
L2NhLnNvbWVjYS1pbmMuY29tL29jc3AwKQYIKwYBBQUHMAKGHWh0dHA6Ly9jYS5z
b21lY2EtaW5jLmNvbS9yb290MBYGA1UdEQQPMA2CC2V4YW1wbGUub3JnMBIGA1Ud
IAQLMAkwBwYFZ4EMAQEwLQYDVR0fBCYwJDAioCCgHoYcaHR0cDovL2NhLnNvbWVj
YS1pbmMuY29tL2NybDANBgkqhkiG9w0BAQsFAAOCAQEAhk9vVmmv0pJIYuDLTpWj
5A5iQpJ4a3TrrYY6lSgS1pHnnw1WxDI+IbabJ3NNjOtOsHO/nh/ygzvGHwsZOOs2
ZceaoJw5gDDHYYqro3yQPsJ+zycQob0a++9ywdo3chfPYN53YOk6UxxDdcxqZKIo
y6SlJnNFhgSUlKRyMh58pKN8tacossPw0zwvQn/lmMrRFbpzRbuka6IE5Al0eBHl
N86IlQRvAouRmhvOzDGuqgGM/JFJjzWnNKyQFhDPkqCN+pYrOAc+UTD/EgKZKtlx
5vgz4pRU8P17+DtQZHOMVYbPD/8P150FD7eMfqPQpLCzq4SZ3IExCBMRbanGHIRC
8A==
-----END CERTIFICATE-----
