Certificate:
    Data:
        Version: 3 (0x2)
        Serial Number:
            c5:7c:85:ae:85:de:0f:e7:a0:39:25:bc:f7:a1:66:9c
        Signature Algorithm: sha256WithRSAEncryption
        Issuer: C = XX, O = Some CA, CN = Fake Root CA for zlint testing
        Validity
            Not Before: Apr 23 00:00:00 2022 GMT
            Not After : Apr 22 00:00:00 2027 GMT
        Subject: C = XX, ST = Some State, L = Some Locality, O = Some CA, CN = Fake CA for zlint testing
        Subject Public Key Info:
            Public Key Algorithm: rsaEncryption
                RSA Public-Key: (4096 bit)
                Modulus:
                    00:cb:4b:29:72:96:90:69:7d:30:0d:6a:46:52:ba:
                    ca:62:a8:f0:1a:b7:19:ab:a8:1f:08:56:01:bb:78:
                    ee:27:1f:34:d7:ec:67:1e:24:20:cc:91:f5:1a:a6:
                    7f:fb:e1:3d:86:26:36:a0:fa:23:db:65:c7:c2:5a:
                    7a:5f:84:72:27:2e:15:a8:c9:da:b6:86:22:b7:a1:
                    b6:73:63:2b:0e:61:fb:f1:7f:d6:dc:36:be:15:55:
                    75:73:1e:43:af:df:5f:c6:ba:9c:69:bf:2e:b7:b8:
                    76:a1:ab:1e:91:ee:6c:25:2d:77:d0:67:a6:8e:68:
                    32:12:93:76:f4:79:78:b5:dc:b9:ef:03:3f:6f:60:
                    5f:f7:5e:da:26:ba:02:8f:42:a8:6f:f3:cd:06:78:
                    e6:64:d9:5f:4c:5a:a9:36:2a:d2:c0:59:fb:19:31:
                    81:24:c4:51:0b:36:f3:f1:7b:fb:07:bd:41:1e:b2:
                    9d:9f:62:02:80:a8:cc:7b:c9:e6:75:8a:91:96:1b:
                    45:35:95:56:75:04:d5:00:20:c6:70:8c:30:27:b4:
                    23:93:ff:2c:3b:ee:cc:58:ce:f8:42:b0:5a:20:81:
                    7b:8f:27:92:7b:75:cb:da:85:53:15:61:31:ec:d3:
                    da:f6:29:1d:cd:03:56:cb:12:3b:cb:3f:22:c0:77:
                    84:53:41:a8:b1:2a:99:58:0a:81:4c:77:df:43:22:
                    68:52:1c:f1:b1:0a:66:42:f7:38:7b:b3:46:98:e3:
                    dc:3e:63:93:58:ab:23:1e:a4:e2:27:e9:17:50:6e:
                    43:7f:f1:86:73:1f:b8:ee:82:d4:18:76:e1:79:de:
                    a1:e6:95:ab:df:43:f0:29:4a:1e:9a:cb:15:a4:a7:
                    1d:77:ff:22:89:08:1a:92:bd:29:9a:cd:97:4a:76:
                    3d:49:b7:3d:a7:4f:95:d8:fe:b6:b5:bc:a9:0b:77:
                    8a:7e:a8:68:8c:77:a2:4c:af:0f:20:6a:37:47:13:
                    8a:4c:2c:d1:f1:d7:7f:86:24:71:8a:1e:f1:bc:42:
                    b3:3e:11:fa:21:da:c0:37:db:f0:ca:9b:d9:64:38:
                    b1:58:af:26:e6:d1:ad:76:0a:87:7c:f5:a0:99:11:
                    16:a4:cf:be:8a:d1:80:2d:98:11:d6:ad:7f:38:9d:
                    16:31:51:cb:a3:1d:d1:38:6e:b8:30:68:1f:5d:9d:
                    aa:b2:18:fb:05:30:84:fa:a1:48:a2:ed:80:1f:d4:
                    72:4f:b0:9a:01:fc:25:0d:19:f9:76:3a:fd:9f:84:
                    c9:b3:d9:27:6d:2c:99:2f:56:56:8f:e6:27:fa:c5:
                    88:b8:f6:da:f6:aa:24:1c:34:43:e2:c4:48:50:f6:
                    15:30:db
                Exponent: 65537 (0x10001)
        X509v3 extensions:
            X509v3 Key Usage: critical
                Certificate Sign, CRL Sign
            X509v3 Extended Key Usage: 
                TLS Web Client Authentication, TLS Web Server Authentication
            X509v3 Basic Constraints: critical
                CA:TRUE
            X509v3 Subject Key Identifier: 
                CE:9B:B5:47:F4:45:AB:1E:5C:90:66:A5:D0:79:FE:37:04:3D:DA:2A
            X509v3 Authority Key Identifier: 
                keyid:E8:B6:F6:76:4B:D0:3B:E5:46:A5:F9:54:D4:7E:07:B3:DE:0D:60:3E

            Authority Information Access: 
                OCSP - URI:http://ca.someca-inc.com/ocsp
                CA Issuers - URI:http://ca.someca-inc.com/root

            X509v3 Certificate Policies: 
                Policy: 1.2.3.4.5

            X509v3 CRL Distribution Points: 

                Full Name:
                  URI:http://ca.someca-inc.com/crl

    Signature Algorithm: sha256WithRSAEncryption
         87:bd:8b:d8:4e:f9:4a:54:d9:b3:3e:82:4f:48:08:58:d1:fa:
         fd:f2:31:6f:c4:fb:36:2f:4b:0e:bc:cf:35:4d:f7:1e:aa:59:
         9c:ad:18:32:14:b5:15:0d:d8:58:26:38:e8:5f:84:20:13:d0:
         fa:ae:fa:1a:0b:d4:4e:26:1f:29:25:f8:53:f9:0a:7c:b8:4e:
         c6:2e:e6:33:23:2b:16:03:10:47:c9:0b:75:0e:86:59:41:e8:
         a9:00:11:f3:d5:b4:0e:e4:a0:21:6a:ff:2e:d1:aa:b2:4a:2a:
         37:e9:7c:01:b0:83:78:c2:4d:fe:63:78:76:69:a9:cf:f1:da:
         f0:6b:9a:71:78:08:99:6e:d2:29:33:d2:84:27:65:f3:19:bd:
         06:be:15:fb:03:ea:4d:fc:7d:ca:2e:b5:cb:a3:73:83:58:bd:
         07:3c:76:27:18:aa:7d:6f:62:1b:c1:3d:1a:d8:05:f8:d8:79:
         c8:54:d5:5d:e5:ac:6e:7d:b0:70:76:1e:a7:31:d9:98:a7:b7:
         f6:ee:3d:02:36:73:51:2d:8a:7c:52:21:ab:9e:33:d0:e2:e4:
         e1:ea:00:db:e5:7b:f8:cf:6c:06:e9:56:9b:7c:3d:fd:7c:30:
         a1:46:72:9f:34:98:32:8c:1a:55:93:df:2c:5f:f7:c4:23:ea:
         7b:f8:9f:51:bf:04:b0:e6:cd:de:e7:a0:3a:38:23:dc:88:f6:
         24:aa:31:f6:fd:d4:22:0c:ab:da:e6:6c:3c:df:9d:b3:35:d7:
         25:25:c9:eb:48:1d:11:74:26:74:c4:bd:81:d5:98:4d:3c:4c:
         4b:49:3a:7a:c5:40:fb:37:fa:fe:db:1c:64:ce:43:62:0e:6d:
         5d:0a:25:c5:f2:e0:ab:28:d8:61:c7:86:ce:ca:2d:cf:81:f9:
         ae:31:5f:8c:63:01:c1:a7:03:a9:58:ca:3b:4e:df:2b:53:58:
         e0:0c:fc:a6:21:76:b1:2c:40:6d:9c:c9:49:20:71:b8:ef:4c:
         09:e7:c4:e1:10:2a:5b:65:ed:be:91:6c:54:4b:fd:4a:c7:5e:
         fd:ab:1d:cd:5c:63:dd:fd:12:77:2d:c0:89:83:bb:24:fa:37:
         34:61:34:13:cb:01:91:57:a0:39:6d:b4:a7:5c:4b:5e:b5:10:
         5e:5a:97:ae:8b:da:68:cb:e7:c3:e1:45:56:18:3f:0d:5b:ba:
         c8:b6:54:e0:6f:08:77:d9:15:03:8a:21:cb:1e:a6:39:b8:96:
         13:53:d8:5e:f8:70:6a:00:36:48:e0:13:80:c0:9f:17:0e:6d:
         d8:05:f9:a0:4e:a8:f5:1a:a9:23:c0:0e:bb:b6:7d:00:02:f6:
         61:f7:4c:b1:eb:4d:d5:e0
-----BEGIN CERTIFICATE-----
MIIGcTCCBFmgAwIBAgIRAMV8ha6F3g/noDklvPehZpwwDQYJKoZIhvcNAQELBQAw
SDELMAkGA1UEBhMCWFgxEDAOBgNVBAoTB1NvbWUgQ0ExJzAlBgNVBAMTHkZha2Ug
Um9vdCBDQSBmb3IgemxpbnQgdGVzdGluZzAeFw0yMjA0MjMwMDAwMDBaFw0yNzA0
MjIwMDAwMDBaMHAxCzAJBgNVBAYTAlhYMRMwEQYDVQQIEwpTb21lIFN0YXRlMRYw
FAYDVQQHEw1Tb21lIExvY2FsaXR5MRAwDgYDVQQKEwdTb21lIENBMSIwIAYDVQQD
ExlGYWtlIENBIGZvciB6bGludCB0ZXN0aW5nMIICIjANBgkqhkiG9w0BAQEFAAOC
Ag8AMIICCgKCAgEAy0spcpaQaX0wDWpGUrrKYqjwGrcZq6gfCFYBu3juJx801+xn
HiQgzJH1GqZ/++E9hiY2oPoj22XHwlp6X4RyJy4VqMnatoYit6G2c2MrDmH78X/W
3Da+FVV1cx5Dr99fxrqcab8ut7h2oaseke5sJS130GemjmgyEpN29Hl4tdy57wM/
b2Bf917aJroCj0Kob/PNBnjmZNlfTFqpNirSwFn7GTGBJMRRCzbz8Xv7B71BHrKd
n2ICgKjMe8nmdYqRlhtFNZVWdQTVACDGcIwwJ7Qjk/8sO+7MWM74QrBaIIF7jyeS
e3XL2oVTFWEx7NPa9ikdzQNWyxI7yz8iwHeEU0GosSqZWAqBTHffQyJoUhzxsQpm
Qvc4e7NGmOPcPmOTWKsjHqTiJ+kXUG5Df/GGcx+47oLUGHbhed6h5pWr30PwKUoe
mssVpKcdd/8iiQgakr0pms2XSnY9Sbc9p0+V2P62tbypC3eKfqhojHeiTK8PIGo3
RxOKTCzR8dd/hiRxih7xvEKzPhH6IdrAN9vwypvZZDixWK8m5tGtdgqHfPWgmREW
pM++itGALZgR1q1/OJ0WMVHLox3ROG64MGgfXZ2qshj7BTCE+qFIou2AH9RyT7Ca
AfwlDRn5djr9n4TJs9knbSyZL1ZWj+Yn+sWIuPba9qokHDRD4sRIUPYVMNsCAwEA
AaOCASwwggEoMA4GA1UdDwEB/wQEAwIBBjAdBgNVHSUEFjAUBggrBgEFBQcDAgYI
KwYBBQUHAwEwDwYDVR0TAQH/BAUwAwEB/zAdBgNVHQ4EFgQUzpu1R/RFqx5ckGal
0Hn+NwQ92iowHwYDVR0jBBgwFoAU6Lb2dkvQO+VGpflU1H4Hs94NYD4wZAYIKwYB
BQUHAQEEWDBWMCkGCCsGAQUFBzABhh1odHRwOi8vY2Euc29tZWNhLWluYy5jb20v
b2NzcDApBggrBgEFBQcwAoYdaHR0cDovL2NhLnNvbWVjYS1pbmMuY29tL3Jvb3Qw
EQYDVR0gBAowCDAGBgQqAwQFMC0GA1UdHwQmMCQwIqAgoB6GHGh0dHA6Ly9jYS5z
b21lY2EtaW5jLmNvbS9jcmwwDQYJKoZIhvcNAQELBQADggIBAIe9i9hO+UpU2bM+
gk9ICFjR+v3yMW/E+zYvSw68zzVN9x6qWZytGDIUtRUN2FgmOOhfhCAT0Pqu+hoL
1E4mHykl+FP5Cny4TsYu5jMjKxYDEEfJC3UOhllB6KkAEfPVtA7koCFq/y7RqrJK
KjfpfAGwg3jCTf5jeHZpqc/x2vBrmnF4CJlu0ikz0oQnZfMZvQa+FfsD6k38fcou
tcujc4NYvQc8dicYqn1vYhvBPRrYBfjYechU1V3lrG59sHB2Hqcx2Zint/buPQI2
c1EtinxSIaueM9Di5OHqANvle/jPbAbpVpt8Pf18MKFGcp80mDKMGlWT3yxf98Qj
6nv4n1G/BLDmzd7noDo4I9yI9iSqMfb91CIMq9rmbDzfnbM11yUlyetIHRF0JnTE
vYHVmE08TEtJOnrFQPs3+v7bHGTOQ2IObV0KJcXy4Kso2GHHhs7KLc+B+a4xX4xj
AcGnA6lYyjtO3ytTWOAM/KYhdrEsQG2cyUkgcbjvTAnnxOEQKltl7b6RbFRL/UrH
Xv2rHc1cY939EnctwImDuyT6NzRhNBPLAZFXoDlttKdcS161EF5al66L2mjL58Ph
RVYYPw1busi2VOBvCHfZFQOKIcsepjm4lhNT2F74cGoANkjgE4DAnxcObdgF+aBO
qPUaqSPADru2fQAC9mH3TLHrTdXg
-----END CERTIFICATE-----
