Certificate:
    Data:
        Version: 3 (0x2)
        Serial Number:
            72:84:e1:a7:fe:18:ff:12:c2:1e:fd:fe:b4:e7:81:fe
        Signature Algorithm: sha256WithRSAEncryption
        Issuer: C = XX, O = Some CA, CN = Fake Root CA for zlint testing
        Validity
            Not Before: Oct 13 08:42:09 2024 GMT
            Not After : Oct 12 08:42:09 2029 GMT
        Subject: C = XX, ST = Some State, L = Some Locality, O = Some CA, CN = Fake CA for zlint testing
        Subject Public Key Info:
            Public Key Algorithm: rsaEncryption
                RSA Public-Key: (4096 bit)
                Modulus:
                    00:bd:f5:40:94:02:eb:da:39:d2:f9:e3:ec:6a:33:
                    13:df:60:93:bd:7d:16:07:f6:8f:c4:73:b0:fa:f6:
                    42:3e:06:d5:29:fc:11:51:61:02:75:96:c5:8c:da:
                    02:68:47:cc:d5:05:83:4b:00:6b:27:e7:69:47:48:
                    d6:d3:c0:f3:ba:c6:83:0f:b6:e4:f7:d0:83:fa:ff:
                    01:3b:df:dc:e4:55:5f:96:82:58:bd:95:89:09:fb:
                    32:14:d5:02:63:3d:2e:dd:a8:8e:af:9e:f7:0b:2d:
                    19:b2:aa:73:15:c3:ff:a7:ba:dd:c6:97:0d:d7:bc:
                    29:e4:cf:51:15:2c:db:6c:fb:70:78:f1:ea:22:7f:
                    d0:cf:21:09:9e:da:96:fd:ba:38:e4:4c:34:05:c8:
                    d4:11:c2:2b:77:bc:b4:e1:46:c8:e9:5f:cb:13:01:
                    c2:fe:fd:7b:e1:89:8b:5e:f8:67:e3:3c:93:8e:2a:
                    80:1c:06:4b:c7:49:ed:2f:a0:01:a1:35:af:2a:90:
                    57:2b:b7:15:d6:8c:30:41:d9:d2:4e:95:eb:4c:12:
                    c9:3a:9f:a2:0f:3e:70:af:71:23:ea:c2:38:de:d8:
                    4c:6b:cd:e2:c1:5b:b3:c8:71:f0:97:5a:5d:90:5d:
                    29:a8:45:e1:a7:04:0f:2d:6c:24:fd:c9:1a:06:12:
                    62:e8:e6:6e:53:f3:54:5b:e8:8d:94:49:84:97:9b:
                    43:a6:50:b9:8c:ac:65:31:9f:5e:7c:f1:53:fc:e3:
                    f8:30:e0:75:ae:81:51:4c:f0:87:fc:b6:b9:fd:05:
                    5e:2c:51:3e:68:e7:af:b6:b2:ee:0a:19:ac:19:17:
                    39:62:71:fd:e8:e0:af:e5:d3:fa:a1:25:aa:49:60:
                    64:b0:e0:74:c5:8c:bf:a4:1e:b8:3e:33:8a:a5:f6:
                    e8:8f:53:59:05:46:04:b8:d7:ab:92:ae:92:4d:2a:
                    4d:0e:7e:ab:dd:ec:57:ba:5e:a5:73:75:16:6a:fd:
                    91:87:dd:c7:98:fe:f6:71:b8:0b:0f:d5:ad:4d:9b:
                    c0:ab:5d:89:f6:7a:b2:9f:7c:78:7c:e0:ad:fb:99:
                    99:d1:08:90:02:6f:67:38:4b:8a:1c:1e:ec:cd:ea:
                    19:2f:e1:c8:c7:da:4d:ae:13:5b:44:1d:78:0a:8a:
                    cb:1e:cb:bf:61:8a:50:d9:a9:01:b6:9b:30:34:4c:
                    ca:1e:99:91:f1:be:14:c9:ea:7a:9c:15:e8:f1:99:
                    ce:f0:e9:89:6f:a3:f5:d8:7e:80:07:34:98:6d:77:
                    f4:59:f5:e7:d3:63:f8:12:d5:68:c1:cd:ed:44:3c:
                    01:bb:d7:45:22:12:f1:f4:ff:cf:24:fa:55:c9:5a:
                    83:58:9d
                Exponent: 65537 (0x10001)
        X509v3 extensions:
            X509v3 Key Usage: critical
                Certificate Sign, CRL Sign
            X509v3 Extended Key Usage: 
                TLS Web Client Authentication, TLS Web Server Authentication
            X509v3 Basic Constraints: critical
                CA:TRUE
            X509v3 Subject Key Identifier: 
                3C:B4:B4:3B:9F:6F:7B:F9:8F:73:A2:E7:46:1E:CC:D0:86:7E:E7:61
            X509v3 Authority Key Identifier: 
                keyid:E8:B6:F6:76:4B:D0:3B:E5:46:A5:F9:54:D4:7E:07:B3:DE:0D:60:3E

            Authority Information Access: 
                OCSP - URI:http://ca.someca-inc.com/ocsp
                CA Issuers - URI:http://ca.someca-inc.com/root

            X509v3 Certificate Policies: 
                Policy: X509v3 Any Policy

            X509v3 CRL Distribution Points: 

                Full Name:
                  URI:http://ca.someca-inc.com/crl

    Signature Algorithm: sha256WithRSAEncryption
         b4:aa:60:21:ea:f2:86:53:d3:be:7b:8b:9f:4f:bb:97:cc:02:
         a9:30:fb:44:23:a2:e8:ba:02:7a:1e:8f:df:49:c6:ff:1b:74:
         76:2e:ec:cd:b7:47:c6:85:80:91:19:b0:1a:0f:da:35:03:3c:
         e0:55:10:1e:20:41:00:c6:fc:df:d8:70:39:34:d0:86:ee:4c:
         3c:a5:27:50:a6:b6:c0:93:0a:a2:75:bf:e9:31:07:9f:58:36:
         02:2b:30:56:93:9c:c8:37:12:27:0b:f0:ad:65:d7:a6:6c:44:
         ee:7d:13:a9:15:fa:ab:fa:79:9c:d9:39:07:d4:a4:0f:8b:27:
         c4:6f:cf:02:e3:3a:30:8f:16:4b:c7:4e:6d:94:b7:e0:a4:9f:
         97:02:34:cd:9e:17:84:bc:ab:18:ed:22:31:75:ef:19:17:99:
         7e:ea:80:78:67:3c:b8:d6:2d:fa:bd:70:1d:bd:9e:5d:4e:dd:
         0b:44:d1:dc:9a:95:03:e3:a0:07:06:58:03:e7:1b:fe:06:c1:
         a6:31:78:03:cb:1e:72:68:33:ce:c1:42:75:9a:0d:e0:18:42:
         0d:81:47:52:c7:15:d4:5b:ab:0d:c0:98:ee:02:fc:6e:c6:24:
         91:e3:ee:d4:b3:3f:d0:b9:56:85:9d:9a:d6:42:99:7d:af:73:
         4a:3e:c0:93:90:1e:e0:2a:c7:52:e5:a6:bd:ef:2f:af:45:3a:
         7f:4b:86:5d:e5:5a:9c:b2:e6:83:fc:70:00:7d:56:31:93:16:
         94:32:20:91:3a:fd:44:dd:32:fd:09:f1:5d:fc:cb:1f:0d:ee:
         8b:dd:14:09:7a:17:3f:8a:69:cf:e4:1d:75:10:c1:8e:a5:78:
         13:53:7e:b4:79:f4:d3:b8:eb:72:aa:ae:d5:81:93:e3:95:8d:
         d3:be:8d:2c:e4:e2:c8:07:ca:08:28:9f:6e:50:3c:77:d1:47:
         67:93:f9:bb:8b:4e:e3:ae:83:ff:d9:05:af:19:f5:40:02:db:
         89:97:b6:87:44:31:fb:11:ef:fe:45:c3:1a:bf:f2:e1:66:59:
         55:7c:bb:64:ee:db:3b:ae:62:80:62:d6:2f:61:cf:23:38:94:
         f6:d9:29:d3:54:a4:15:1e:e5:f5:01:43:51:e2:7d:1a:40:f8:
         ec:52:33:e8:6b:db:d5:d0:72:17:ef:27:0c:96:e8:6b:d8:4f:
         50:64:3b:b0:87:9e:cb:2a:4e:0a:a5:2f:4b:9b:a1:e4:a9:65:
         64:9c:66:7e:24:98:99:ab:d2:22:39:30:2c:51:57:2b:15:34:
         0e:41:d3:b5:64:c1:40:4b:9e:6b:ea:6e:77:c6:68:f2:98:23:
         f0:f9:8a:fb:ac:38:5e:b0
-----BEGIN CERTIFICATE-----
MIIGcDCCBFigAwIBAgIQcoThp/4Y/xLCHv3+tOeB/jANBgkqhkiG9w0BAQsFADBI
MQswCQYDVQQGEwJYWDEQMA4GA1UEChMHU29tZSBDQTEnMCUGA1UEAxMeRmFrZSBS
b290IENBIGZvciB6bGludCB0ZXN0aW5nMB4XDTI0MTAxMzA4NDIwOVoXDTI5MTAx
MjA4NDIwOVowcDELMAkGA1UEBhMCWFgxEzARBgNVBAgTClNvbWUgU3RhdGUxFjAU
BgNVBAcTDVNvbWUgTG9jYWxpdHkxEDAOBgNVBAoTB1NvbWUgQ0ExIjAgBgNVBAMT
GUZha2UgQ0EgZm9yIHpsaW50IHRlc3RpbmcwggIiMA0GCSqGSIb3DQEBAQUAA4IC
DwAwggIKAoICAQC99UCUAuvaOdL54+xqMxPfYJO9fRYH9o/Ec7D69kI+BtUp/BFR
YQJ1lsWM2gJoR8zVBYNLAGsn52lHSNbTwPO6xoMPtuT30IP6/wE739zkVV+Wgli9
lYkJ+zIU1QJjPS7dqI6vnvcLLRmyqnMVw/+nut3Glw3XvCnkz1EVLNts+3B48eoi
f9DPIQme2pb9ujjkTDQFyNQRwit3vLThRsjpX8sTAcL+/XvhiYte+GfjPJOOKoAc
BkvHSe0voAGhNa8qkFcrtxXWjDBB2dJOletMEsk6n6IPPnCvcSPqwjje2ExrzeLB
W7PIcfCXWl2QXSmoReGnBA8tbCT9yRoGEmLo5m5T81Rb6I2USYSXm0OmULmMrGUx
n1588VP84/gw4HWugVFM8If8trn9BV4sUT5o56+2su4KGawZFzlicf3o4K/l0/qh
JapJYGSw4HTFjL+kHrg+M4ql9uiPU1kFRgS416uSrpJNKk0Ofqvd7Fe6XqVzdRZq
/ZGH3ceY/vZxuAsP1a1Nm8CrXYn2erKffHh84K37mZnRCJACb2c4S4ocHuzN6hkv
4cjH2k2uE1tEHXgKissey79hilDZqQG2mzA0TMoemZHxvhTJ6nqcFejxmc7w6Ylv
o/XYfoAHNJhtd/RZ9efTY/gS1WjBze1EPAG710UiEvH0/88k+lXJWoNYnQIDAQAB
o4IBLDCCASgwDgYDVR0PAQH/BAQDAgEGMB0GA1UdJQQWMBQGCCsGAQUFBwMCBggr
BgEFBQcDATAPBgNVHRMBAf8EBTADAQH/MB0GA1UdDgQWBBQ8tLQ7n297+Y9zoudG
HszQhn7nYTAfBgNVHSMEGDAWgBTotvZ2S9A75Ual+VTUfgez3g1gPjBkBggrBgEF
BQcBAQRYMFYwKQYIKwYBBQUHMAGGHWh0dHA6Ly9jYS5zb21lY2EtaW5jLmNvbS9v
Y3NwMCkGCCsGAQUFBzAChh1odHRwOi8vY2Euc29tZWNhLWluYy5jb20vcm9vdDAR
BgNVHSAECjAIMAYGBFUdIAAwLQYDVR0fBCYwJDAioCCgHoYcaHR0cDovL2NhLnNv
bWVjYS1pbmMuY29tL2NybDANBgkqhkiG9w0BAQsFAAOCAgEAtKpgIeryhlPTvnuL
n0+7l8wCqTD7RCOi6LoCeh6P30nG/xt0di7szbdHxoWAkRmwGg/aNQM84FUQHiBB
AMb839hwOTTQhu5MPKUnUKa2wJMKonW/6TEHn1g2AiswVpOcyDcSJwvwrWXXpmxE
7n0TqRX6q/p5nNk5B9SkD4snxG/PAuM6MI8WS8dObZS34KSflwI0zZ4XhLyrGO0i
MXXvGReZfuqAeGc8uNYt+r1wHb2eXU7dC0TR3JqVA+OgBwZYA+cb/gbBpjF4A8se
cmgzzsFCdZoN4BhCDYFHUscV1FurDcCY7gL8bsYkkePu1LM/0LlWhZ2a1kKZfa9z
Sj7Ak5Ae4CrHUuWmve8vr0U6f0uGXeVanLLmg/xwAH1WMZMWlDIgkTr9RN0y/Qnx
XfzLHw3ui90UCXoXP4ppz+QddRDBjqV4E1N+tHn007jrcqqu1YGT45WN076NLOTi
yAfKCCifblA8d9FHZ5P5u4tO466D/9kFrxn1QALbiZe2h0Qx+xHv/kXDGr/y4WZZ
VXy7ZO7bO65igGLWL2HPIziU9tkp01SkFR7l9QFDUeJ9GkD47FIz6Gvb1dByF+8n
DJboa9hPUGQ7sIeeyypOCqUvS5uh5KllZJxmfiSYmavSIjkwLFFXKxU0DkHTtWTB
QEuea+pud8Zo8pgj8PmK+6w4XrA=
-----END CERTIFICATE-----
