Certificate:
    Data:
        Version: 3 (0x2)
        Serial Number:
            b7:fb:1e:7b:22:e2:3c:32:2a:8d:3a:e5:0c:f4:93:3e
        Signature Algorithm: sha256WithRSAEncryption
        Issuer: C = XX, O = Some CA, CN = Fake Root CA for zlint testing
        Validity
            Not Before: Oct  4 03:58:26 2024 GMT
            Not After : Oct  3 03:58:26 2029 GMT
        Subject: C = XX, ST = Some State, L = Some Locality, O = Some CA, CN = Fake CA for zlint testing
        Subject Public Key Info:
            Public Key Algorithm: rsaEncryption
                RSA Public-Key: (4096 bit)
                Modulus:
                    00:d2:5a:d9:f1:1f:a1:38:f9:e3:a7:18:a3:85:05:
                    85:ec:f5:53:31:76:71:c1:97:22:8d:11:28:06:e4:
                    a0:c2:36:d9:2d:9c:96:e4:cc:f9:b1:cd:1f:1b:dd:
                    01:83:f2:8f:d1:0b:85:64:5f:ec:2a:fb:32:0e:56:
                    d7:fc:29:82:1d:c8:3f:dd:40:5f:7f:8d:15:18:dd:
                    a7:18:be:17:de:c1:82:a4:0c:dc:e1:a1:ba:1d:4b:
                    54:59:ed:1c:05:92:35:da:bc:b5:42:f8:d0:3e:ce:
                    1a:50:79:b7:1b:b0:51:d1:27:26:94:6b:a9:a0:84:
                    09:e1:96:82:09:e9:0f:bb:e4:ba:a5:c2:71:05:9c:
                    e1:fc:52:6b:79:fd:37:6b:ce:d6:df:4a:60:28:d0:
                    d7:92:05:06:2d:bd:d7:b5:18:c0:ad:3b:c4:a3:7b:
                    96:70:23:29:9a:91:20:61:66:be:b1:66:ac:b3:93:
                    a3:8d:4a:2e:ac:89:4b:3a:2a:b0:6e:d4:9f:95:81:
                    f6:09:a9:2c:58:60:f8:76:03:34:1d:7c:96:43:28:
                    4f:46:ff:90:83:10:e7:ed:66:30:75:e3:24:60:9a:
                    e3:42:aa:67:68:83:9b:fa:c6:ed:47:6d:c8:ee:b6:
                    29:f6:7b:8a:9c:cd:8e:67:9f:cd:dd:32:96:78:11:
                    91:49:37:57:2e:10:0c:fc:64:8c:b5:37:59:dc:b8:
                    79:f4:9a:e9:44:5a:bd:34:92:2b:fb:e6:0a:c3:bc:
                    b6:e5:c3:ff:23:2a:cf:27:0c:5a:a1:14:af:ba:1e:
                    41:53:3e:2e:77:40:58:60:89:31:6a:c2:45:1c:c8:
                    7f:9b:1b:8a:8e:1c:64:44:55:03:74:51:75:45:7f:
                    c8:f1:ad:f0:b1:44:7a:ad:b6:26:bc:39:1a:0e:2f:
                    1c:d6:e2:ae:41:eb:88:46:90:2d:52:e3:0f:18:7f:
                    69:7a:f4:24:ff:9e:c2:5a:ac:78:40:27:29:30:0f:
                    9f:5d:d9:00:2d:95:85:c3:bf:6d:24:a7:ef:88:65:
                    bc:8f:8c:44:0f:86:a6:ef:2a:20:62:d0:ce:96:fc:
                    11:f0:8b:ff:22:b5:88:47:16:1b:b4:b0:2b:fa:b0:
                    b8:12:d7:2e:a7:27:c8:b5:34:91:65:d1:76:0d:01:
                    83:17:02:86:de:46:4f:3f:c6:c6:cb:c4:89:39:56:
                    fc:ca:6a:47:4f:c8:67:3e:2e:d2:b3:82:b2:9e:b1:
                    74:79:84:fa:b0:62:85:5d:51:51:6f:1a:30:51:86:
                    1f:4b:12:10:9f:af:83:7f:1c:35:f9:53:4b:e3:14:
                    ce:3a:f5:ff:22:c8:27:fa:6c:8c:87:0a:5a:b5:e1:
                    d4:5c:45
                Exponent: 65537 (0x10001)
        X509v3 extensions:
            X509v3 Key Usage: critical
                Certificate Sign, CRL Sign
            X509v3 Extended Key Usage: 
                TLS Web Client Authentication, TLS Web Server Authentication
            X509v3 Basic Constraints: critical
                CA:TRUE
            X509v3 Subject Key Identifier: 
                76:88:80:DD:78:C1:68:BE:DF:5D:25:52:92:54:45:68:8D:D3:A8:B7
            X509v3 Authority Key Identifier: 
                keyid:E8:B6:F6:76:4B:D0:3B:E5:46:A5:F9:54:D4:7E:07:B3:DE:0D:60:3E

            Authority Information Access: 
                OCSP - URI:http://ca.someca-inc.com/ocsp
                CA Issuers - URI:http://ca.someca-inc.com/root

            X509v3 Certificate Policies: 
                Policy: 2.23.140.1.2.2

            X509v3 CRL Distribution Points: 

                Full Name:
                  URI:http://ca.someca-inc.com/crl

    Signature Algorithm: sha256WithRSAEncryption
         92:08:59:96:db:d3:6e:d9:0d:8a:19:d7:fb:b6:d0:ec:b8:97:
         10:f5:55:79:dc:13:b9:87:7c:d5:b0:6d:7a:da:c3:72:52:1d:
         54:e2:89:49:f3:13:81:c4:b3:92:cf:ba:c9:be:f9:cf:69:88:
         91:9c:58:75:82:40:95:6c:73:49:46:f1:ef:e6:3f:fc:70:d4:
         9f:5c:1c:f8:d5:d1:50:19:09:c0:cd:29:b4:1c:fc:db:89:02:
         25:8c:19:f3:4c:8f:f3:84:72:dd:0b:1e:bb:b2:fb:37:71:fc:
         b4:03:4e:f0:6c:ff:a8:39:7f:0e:64:82:2c:1c:c4:ce:93:87:
         a9:82:73:7e:41:c0:a7:f0:ea:ff:5f:7f:7c:61:fd:bf:53:e7:
         96:04:cd:ce:30:82:b1:56:1d:8e:42:88:c3:f1:05:98:33:11:
         b9:58:66:7a:71:e5:1b:f2:f1:18:b4:cb:e9:63:a3:23:81:82:
         b1:7e:9d:c5:1c:1e:fe:fa:46:86:25:b6:25:42:2d:d4:ed:02:
         3b:62:48:7d:5d:41:a6:63:06:b0:a1:f3:d5:92:cd:28:21:51:
         fc:ff:cd:18:1f:b3:78:33:d5:ce:03:9b:28:36:b5:1a:89:0a:
         04:ed:77:b7:b5:72:13:18:be:93:33:24:4b:d1:1d:01:75:38:
         b3:b3:f0:87:39:7e:f2:d6:25:2a:56:d8:4d:5b:26:06:54:06:
         dc:0a:44:0c:1f:f1:ed:6a:2e:58:6d:ae:de:63:1d:0e:32:57:
         6d:7a:5d:fe:54:d7:98:ad:15:02:b3:2c:30:27:b5:54:c5:57:
         82:3b:f6:d3:4e:08:22:7c:b6:7f:51:d6:15:7b:77:e9:5c:8b:
         fb:75:0d:2a:ee:31:79:92:60:2a:2f:2c:ed:ec:c3:88:58:42:
         80:bb:f3:64:80:37:4e:ce:80:8d:b7:0c:65:32:cf:c6:e8:0f:
         cf:66:14:08:5a:d9:2d:b8:8d:c9:c6:34:ce:77:83:39:ed:55:
         3a:51:fc:a8:c6:c3:89:db:2e:03:2c:74:9b:42:1d:e7:63:32:
         8d:9e:9c:06:91:16:09:de:99:c8:08:85:68:17:55:b0:97:4d:
         e8:a4:71:4b:ab:db:88:3c:1f:dd:dd:ec:64:e5:54:b7:2c:ed:
         c0:ea:d2:1f:71:e4:48:54:04:c7:ad:18:06:80:9a:e7:c3:f6:
         1d:bc:0d:f0:52:d8:75:60:bb:03:ec:cd:2c:08:29:13:d4:41:
         9b:15:36:e6:88:1c:2c:d4:70:6a:5e:82:e2:85:34:3e:ee:90:
         a8:1d:ea:f5:f2:94:9e:22:26:71:da:ab:58:c2:da:41:9b:c0:
         2b:2f:3c:e3:c4:26:9b:19
-----BEGIN CERTIFICATE-----
MIIGczCCBFugAwIBAgIRALf7Hnsi4jwyKo065Qz0kz4wDQYJKoZIhvcNAQELBQAw
SDELMAkGA1UEBhMCWFgxEDAOBgNVBAoTB1NvbWUgQ0ExJzAlBgNVBAMTHkZha2Ug
Um9vdCBDQSBmb3IgemxpbnQgdGVzdGluZzAeFw0yNDEwMDQwMzU4MjZaFw0yOTEw
MDMwMzU4MjZaMHAxCzAJBgNVBAYTAlhYMRMwEQYDVQQIEwpTb21lIFN0YXRlMRYw
FAYDVQQHEw1Tb21lIExvY2FsaXR5MRAwDgYDVQQKEwdTb21lIENBMSIwIAYDVQQD
ExlGYWtlIENBIGZvciB6bGludCB0ZXN0aW5nMIICIjANBgkqhkiG9w0BAQEFAAOC
Ag8AMIICCgKCAgEA0lrZ8R+hOPnjpxijhQWF7PVTMXZxwZcijREoBuSgwjbZLZyW
5Mz5sc0fG90Bg/KP0QuFZF/sKvsyDlbX/CmCHcg/3UBff40VGN2nGL4X3sGCpAzc
4aG6HUtUWe0cBZI12ry1QvjQPs4aUHm3G7BR0ScmlGupoIQJ4ZaCCekPu+S6pcJx
BZzh/FJref03a87W30pgKNDXkgUGLb3XtRjArTvEo3uWcCMpmpEgYWa+sWass5Oj
jUourIlLOiqwbtSflYH2CaksWGD4dgM0HXyWQyhPRv+QgxDn7WYwdeMkYJrjQqpn
aIOb+sbtR23I7rYp9nuKnM2OZ5/N3TKWeBGRSTdXLhAM/GSMtTdZ3Lh59JrpRFq9
NJIr++YKw7y25cP/IyrPJwxaoRSvuh5BUz4ud0BYYIkxasJFHMh/mxuKjhxkRFUD
dFF1RX/I8a3wsUR6rbYmvDkaDi8c1uKuQeuIRpAtUuMPGH9pevQk/57CWqx4QCcp
MA+fXdkALZWFw79tJKfviGW8j4xED4am7yogYtDOlvwR8Iv/IrWIRxYbtLAr+rC4
EtcupyfItTSRZdF2DQGDFwKG3kZPP8bGy8SJOVb8ympHT8hnPi7Ss4KynrF0eYT6
sGKFXVFRbxowUYYfSxIQn6+Dfxw1+VNL4xTOOvX/Isgn+myMhwpateHUXEUCAwEA
AaOCAS4wggEqMA4GA1UdDwEB/wQEAwIBBjAdBgNVHSUEFjAUBggrBgEFBQcDAgYI
KwYBBQUHAwEwDwYDVR0TAQH/BAUwAwEB/zAdBgNVHQ4EFgQUdoiA3XjBaL7fXSVS
klRFaI3TqLcwHwYDVR0jBBgwFoAU6Lb2dkvQO+VGpflU1H4Hs94NYD4wZAYIKwYB
BQUHAQEEWDBWMCkGCCsGAQUFBzABhh1odHRwOi8vY2Euc29tZWNhLWluYy5jb20v
b2NzcDApBggrBgEFBQcwAoYdaHR0cDovL2NhLnNvbWVjYS1pbmMuY29tL3Jvb3Qw
EwYDVR0gBAwwCjAIBgZngQwBAgIwLQYDVR0fBCYwJDAioCCgHoYcaHR0cDovL2Nh
LnNvbWVjYS1pbmMuY29tL2NybDANBgkqhkiG9w0BAQsFAAOCAgEAkghZltvTbtkN
ihnX+7bQ7LiXEPVVedwTuYd81bBtetrDclIdVOKJSfMTgcSzks+6yb75z2mIkZxY
dYJAlWxzSUbx7+Y//HDUn1wc+NXRUBkJwM0ptBz824kCJYwZ80yP84Ry3Qseu7L7
N3H8tANO8Gz/qDl/DmSCLBzEzpOHqYJzfkHAp/Dq/19/fGH9v1PnlgTNzjCCsVYd
jkKIw/EFmDMRuVhmenHlG/LxGLTL6WOjI4GCsX6dxRwe/vpGhiW2JUIt1O0CO2JI
fV1BpmMGsKHz1ZLNKCFR/P/NGB+zeDPVzgObKDa1GokKBO13t7VyExi+kzMkS9Ed
AXU4s7Pwhzl+8tYlKlbYTVsmBlQG3ApEDB/x7WouWG2u3mMdDjJXbXpd/lTXmK0V
ArMsMCe1VMVXgjv2004IIny2f1HWFXt36VyL+3UNKu4xeZJgKi8s7ezDiFhCgLvz
ZIA3Ts6AjbcMZTLPxugPz2YUCFrZLbiNycY0zneDOe1VOlH8qMbDidsuAyx0m0Id
52MyjZ6cBpEWCd6ZyAiFaBdVsJdN6KRxS6vbiDwf3d3sZOVUtyztwOrSH3HkSFQE
x60YBoCa58P2HbwN8FLYdWC7A+zNLAgpE9RBmxU25ogcLNRwal6C4oU0Pu6QqB3q
9fKUniImcdqrWMLaQZvAKy8848Qmmxk=
-----END CERTIFICATE-----
