Certificate:
    Data:
        Version: 3 (0x2)
        Serial Number:
            9e:a6:38:c0:1a:41:85:e4:89:20:79:e3:dc:f7:3d:38
        Signature Algorithm: sha256WithRSAEncryption
        Issuer: C = XX, ST = Some State, L = Some Locality, O = Some Organization, CN = Fake Root CA for zlint testing
        Validity
            Not Before: Sep 30 13:27:41 2024 GMT
            Not After : Sep 29 13:27:41 2029 GMT
        Subject: C = XX, ST = Some State, L = Some Locality, O = Some Organization, CN = Fake Root CA for zlint testing
        Subject Public Key Info:
            Public Key Algorithm: rsaEncryption
                RSA Public-Key: (4096 bit)
                Modulus:
                    00:ce:0d:54:05:87:4b:a8:c4:af:4c:f6:a8:7b:ba:
                    41:2e:8f:25:55:84:f9:a5:7a:ad:ee:72:74:20:36:
                    30:21:a0:08:1e:07:fc:9c:b7:ca:50:00:2a:b7:b0:
                    0c:a3:98:45:5a:a0:0f:b1:0b:99:d1:62:7d:0f:b5:
                    38:b8:9f:5e:9c:8f:35:a9:bc:c8:04:0b:ab:b9:12:
                    7d:ea:b9:7d:3f:09:e6:a9:1e:d8:9f:ff:0e:92:39:
                    dc:94:51:07:2c:cc:8c:e4:7a:e9:cb:c8:3d:86:15:
                    fe:e3:1b:66:c5:48:8a:06:9b:e6:aa:7d:ff:30:26:
                    05:97:f1:28:26:63:da:31:7e:c3:4f:c4:6f:6c:66:
                    0d:ac:5b:93:59:1c:53:b1:8a:29:47:a9:9f:e5:e9:
                    a4:e2:f7:2d:e7:38:18:6e:8a:ae:77:1b:29:50:31:
                    58:e6:09:42:ba:3c:f1:66:7a:ef:33:1b:94:22:8f:
                    17:ea:1b:b1:c6:5f:e3:4b:e0:19:76:6a:dd:82:a8:
                    a7:91:a1:96:54:fa:2a:13:95:f5:7c:3e:91:37:03:
                    4d:16:1e:bc:b9:ab:f2:3d:c0:66:be:fe:34:57:dd:
                    69:78:e9:38:de:d3:b3:56:7b:e8:c2:49:f9:ef:3f:
                    7c:19:3a:43:cc:3a:f5:2c:ca:d3:a7:f4:3d:55:09:
                    90:81:43:0f:9a:e5:72:53:6f:5c:70:08:db:39:d5:
                    29:f2:27:1e:6f:36:94:e3:72:b6:1d:25:7b:1c:04:
                    45:79:9e:c8:68:50:3d:eb:a8:3f:6b:9b:94:2c:db:
                    ff:6a:2f:6e:75:a4:b0:14:a2:cd:1f:f4:44:bc:9c:
                    2b:a2:6f:91:5f:90:6d:64:87:eb:ee:c4:f1:4c:c9:
                    bd:40:d2:05:ca:66:71:2e:84:11:5e:f1:ea:7f:d0:
                    08:91:e8:36:2b:1c:e1:e6:41:3b:95:2f:b5:a1:4b:
                    71:aa:2d:c7:0e:bd:05:a4:2b:9a:ec:ea:7f:59:69:
                    81:01:96:6d:f1:25:44:41:21:f9:a1:b5:14:82:55:
                    92:7a:43:bc:a7:09:a6:44:7e:12:c5:00:99:9f:a3:
                    0f:b4:f6:32:dc:73:be:82:37:4f:ec:42:69:7d:84:
                    3c:86:51:cb:7f:2d:59:f5:d8:9b:01:12:c1:da:e1:
                    91:5a:95:dd:d9:71:85:07:12:87:b7:b9:7e:e0:23:
                    23:e4:6f:73:ed:7e:d4:97:47:2a:34:69:3e:1a:1d:
                    bd:63:4b:e4:18:c4:b7:67:fa:8a:34:98:27:71:ef:
                    ab:01:5b:29:b3:df:fc:65:7c:98:19:25:cf:db:0b:
                    01:da:40:f9:e7:d8:9a:ee:1f:65:ef:3a:87:21:e1:
                    5f:8e:07
                Exponent: 65537 (0x10001)
        X509v3 extensions:
            X509v3 Key Usage: critical
                Certificate Sign, CRL Sign
            X509v3 Basic Constraints: critical
                CA:TRUE
            X509v3 Subject Key Identifier: 
                EA:C5:45:12:04:D7:BC:70:A8:DF:66:16:D3:E4:B3:06:5F:22:7C:43
    Signature Algorithm: sha256WithRSAEncryption
         c4:7e:e7:3b:4d:74:46:ba:4d:68:e9:e3:ef:06:b1:b1:31:5b:
         0e:9d:7f:ea:8c:1e:ab:52:73:b6:75:32:6d:28:ff:ca:15:41:
         08:92:3f:42:2d:00:7c:9a:c4:ab:22:1f:a5:5d:bf:d6:a5:c6:
         07:13:5b:2e:ca:a6:e1:e9:d1:8b:67:e0:36:0e:ea:69:af:a2:
         6c:8c:6e:63:4d:bd:39:a1:87:68:5c:64:a2:fb:ae:4e:e1:cc:
         89:dc:74:f2:11:63:57:03:15:ce:f9:33:c0:17:e3:74:f9:6b:
         58:5a:82:df:17:e4:f9:6b:14:47:5d:1c:ce:65:79:7b:2c:43:
         74:4e:f4:72:85:70:40:9f:d3:14:58:1e:ed:bc:3e:3c:e1:8b:
         a2:d3:86:2a:e8:c1:eb:27:10:49:a4:8c:15:47:78:1c:d2:68:
         7d:74:b6:1e:11:22:da:79:e5:49:ae:eb:2d:49:ca:32:54:26:
         9b:9f:8f:d1:d1:eb:de:05:c5:56:81:36:f3:e8:5e:e1:cd:52:
         89:91:9f:2c:3e:fe:f2:88:bf:bf:b3:81:10:db:dc:81:86:90:
         3b:65:93:77:e7:f9:ac:44:4e:1f:8f:d1:fe:96:a0:f7:56:87:
         5a:c2:1b:13:86:41:03:b3:41:5c:94:34:69:20:6e:85:cd:3a:
         a2:e3:3e:e5:07:77:11:76:fe:52:e8:c3:48:6d:6e:b9:0d:56:
         28:07:ae:56:80:5b:d5:49:d2:8a:ae:ec:da:6f:7b:c7:cb:80:
         e5:0e:7b:3a:ae:f9:e5:2d:b9:71:e0:ef:b6:39:7f:02:90:7c:
         39:7f:ca:df:89:04:d0:03:c1:9f:66:93:90:58:1f:83:37:7e:
         ef:1a:14:04:3e:5f:c8:f3:aa:5d:e6:2a:d4:41:b9:c9:dd:db:
         b5:0c:bb:00:05:10:9e:33:1a:95:76:79:d4:e1:9c:a8:37:8f:
         f7:77:29:da:ce:54:97:96:b0:6f:7a:5f:86:5a:ea:98:3c:72:
         27:89:56:ff:36:b2:77:44:0e:76:8f:92:13:c0:65:81:7e:72:
         1e:fe:a3:c7:2e:5c:57:cc:2f:8e:57:54:5b:83:30:86:c3:dd:
         62:3f:7b:fe:e2:40:76:6f:eb:44:84:40:38:85:3b:11:a2:9b:
         bf:0a:ee:9d:ba:a3:4c:c8:c2:03:55:c9:08:75:32:68:a0:c6:
         64:70:69:2c:2f:f6:c3:e1:83:ec:83:a3:eb:1a:b2:59:57:82:
         9d:5d:e4:a5:36:9c:da:6b:b2:cf:27:00:42:a6:55:f1:3d:0f:
         92:93:4d:e4:99:dc:37:05:18:0f:37:2f:8d:d3:b2:47:53:90:
         d0:dd:8a:53:bb:62:a2:3f
-----BEGIN CERTIFICATE-----
MIIFyzCCA7OgAwIBAgIRAJ6mOMAaQYXkiSB549z3PTgwDQYJKoZIhvcNAQELBQAw
fzELMAkGA1UEBhMCWFgxEzARBgNVBAgTClNvbWUgU3RhdGUxFjAUBgNVBAcTDVNv
bWUgTG9jYWxpdHkxGjAYBgNVBAoTEVNvbWUgT3JnYW5pemF0aW9uMScwJQYDVQQD
Ex5GYWtlIFJvb3QgQ0EgZm9yIHpsaW50IHRlc3RpbmcwHhcNMjQwOTMwMTMyNzQx
WhcNMjkwOTI5MTMyNzQxWjB/MQswCQYDVQQGEwJYWDETMBEGA1UECBMKU29tZSBT
dGF0ZTEWMBQGA1UEBxMNU29tZSBMb2NhbGl0eTEaMBgGA1UEChMRU29tZSBPcmdh
bml6YXRpb24xJzAlBgNVBAMTHkZha2UgUm9vdCBDQSBmb3IgemxpbnQgdGVzdGlu
ZzCCAiIwDQYJKoZIhvcNAQEBBQADggIPADCCAgoCggIBAM4NVAWHS6jEr0z2qHu6
QS6PJVWE+aV6re5ydCA2MCGgCB4H/Jy3ylAAKrewDKOYRVqgD7ELmdFifQ+1OLif
XpyPNam8yAQLq7kSfeq5fT8J5qke2J//DpI53JRRByzMjOR66cvIPYYV/uMbZsVI
igab5qp9/zAmBZfxKCZj2jF+w0/Eb2xmDaxbk1kcU7GKKUepn+XppOL3Lec4GG6K
rncbKVAxWOYJQro88WZ67zMblCKPF+obscZf40vgGXZq3YKop5GhllT6KhOV9Xw+
kTcDTRYevLmr8j3AZr7+NFfdaXjpON7Ts1Z76MJJ+e8/fBk6Q8w69SzK06f0PVUJ
kIFDD5rlclNvXHAI2znVKfInHm82lONyth0lexwERXmeyGhQPeuoP2ublCzb/2ov
bnWksBSizR/0RLycK6JvkV+QbWSH6+7E8UzJvUDSBcpmcS6EEV7x6n/QCJHoNisc
4eZBO5UvtaFLcaotxw69BaQrmuzqf1lpgQGWbfElREEh+aG1FIJVknpDvKcJpkR+
EsUAmZ+jD7T2MtxzvoI3T+xCaX2EPIZRy38tWfXYmwESwdrhkVqV3dlxhQcSh7e5
fuAjI+Rvc+1+1JdHKjRpPhodvWNL5BjEt2f6ijSYJ3HvqwFbKbPf/GV8mBklz9sL
AdpA+efYmu4fZe86hyHhX44HAgMBAAGjQjBAMA4GA1UdDwEB/wQEAwIBBjAPBgNV
HRMBAf8EBTADAQH/MB0GA1UdDgQWBBTqxUUSBNe8cKjfZhbT5LMGXyJ8QzANBgkq
hkiG9w0BAQsFAAOCAgEAxH7nO010RrpNaOnj7waxsTFbDp1/6oweq1JztnUybSj/
yhVBCJI/Qi0AfJrEqyIfpV2/1qXGBxNbLsqm4enRi2fgNg7qaa+ibIxuY029OaGH
aFxkovuuTuHMidx08hFjVwMVzvkzwBfjdPlrWFqC3xfk+WsUR10czmV5eyxDdE70
coVwQJ/TFFge7bw+POGLotOGKujB6ycQSaSMFUd4HNJofXS2HhEi2nnlSa7rLUnK
MlQmm5+P0dHr3gXFVoE28+he4c1SiZGfLD7+8oi/v7OBENvcgYaQO2WTd+f5rERO
H4/R/pag91aHWsIbE4ZBA7NBXJQ0aSBuhc06ouM+5Qd3EXb+UujDSG1uuQ1WKAeu
VoBb1UnSiq7s2m97x8uA5Q57Oq755S25ceDvtjl/ApB8OX/K34kE0APBn2aTkFgf
gzd+7xoUBD5fyPOqXeYq1EG5yd3btQy7AAUQnjMalXZ51OGcqDeP93cp2s5Ul5aw
b3pfhlrqmDxyJ4lW/zayd0QOdo+SE8BlgX5yHv6jxy5cV8wvjldUW4MwhsPdYj97
/uJAdm/rRIRAOIU7EaKbvwrunbqjTMjCA1XJCHUyaKDGZHBpLC/2w+GD7IOj6xqy
WVeCnV3kpTac2muyzycAQqZV8T0PkpNN5JncNwUYDzcvjdOyR1OQ0N2KU7tioj8=
-----END CERTIFICATE-----
