Certificate:
    Data:
        Version: 3 (0x2)
        Serial Number:
            38:17:a3:f9:44:08:20:83:01:93:08:c7:32:58:2f:c3
        Signature Algorithm: sha256WithRSAEncryption
        Issuer: C = XX, O = Some CA, CN = Fake Root CA for zlint testing
        Validity
            Not Before: Sep 30 13:37:15 2024 GMT
            Not After : Sep 29 13:37:15 2029 GMT
        Subject: C = XX, ST = Some State, L = Some Locality, O = Some CA, CN = Fake CA for zlint testing
        Subject Public Key Info:
            Public Key Algorithm: rsaEncryption
                RSA Public-Key: (4096 bit)
                Modulus:
                    00:95:76:96:65:af:e9:2e:e2:b6:c9:11:4b:43:72:
                    04:c5:4d:75:40:d9:05:3e:67:9e:a2:31:b5:b9:91:
                    82:e4:f8:d5:dd:e8:af:e6:45:c4:af:57:54:2c:bb:
                    28:1e:c8:df:9f:86:da:2b:80:79:12:99:3c:41:cf:
                    6d:85:73:fa:71:9c:77:8f:1d:93:b4:2b:40:60:60:
                    e4:90:61:bc:6b:9f:01:1e:53:4b:eb:a9:c0:cd:91:
                    a8:12:c4:e9:41:21:3c:18:d9:df:49:0d:ca:ee:49:
                    f0:11:1e:eb:87:7e:e7:ac:dc:8e:ee:aa:a8:a8:4d:
                    a1:6d:48:02:11:d3:7f:17:59:4c:4f:d8:7d:b9:be:
                    9c:5e:3d:ec:c7:85:fd:c7:41:e5:c4:91:db:fc:23:
                    b4:79:7b:41:68:f2:ab:04:f9:13:19:e5:e7:f3:cc:
                    20:c8:99:39:24:8b:ed:b8:12:42:3f:7e:1c:41:c1:
                    8f:21:f2:81:90:4b:b2:58:6c:a9:ad:1f:cc:87:f3:
                    eb:b4:a5:ca:53:a2:a9:1a:e6:03:b3:e3:47:8b:e8:
                    1f:9e:4b:30:64:79:21:7f:0e:b2:74:93:b2:ca:83:
                    13:4f:03:f3:c8:e7:a1:6e:ea:90:30:e7:57:18:aa:
                    ea:8f:9e:b9:0d:32:2b:2c:54:6b:a1:fd:ad:21:49:
                    2a:49:26:aa:54:f3:48:50:5c:c7:47:c0:57:1a:cb:
                    af:12:34:19:58:dc:cf:3a:77:01:bd:44:a7:a0:04:
                    0f:dc:05:8e:0e:b1:5c:8c:91:cf:0d:04:37:e7:e8:
                    aa:7b:c0:c8:96:16:91:a0:ed:cc:cf:0e:92:4e:74:
                    1b:32:ab:63:ba:2a:6d:e8:a8:27:87:ea:36:59:a6:
                    80:15:d8:83:d5:0d:14:3a:01:8f:a7:4f:0d:0a:fd:
                    28:77:c9:b8:96:c0:e4:8d:a2:31:70:a5:31:23:f3:
                    6e:d0:78:5d:30:8d:4f:7d:34:7f:99:49:1b:7b:b5:
                    1e:86:b4:b9:d7:3b:c9:69:2f:7d:e7:8e:f5:d9:3c:
                    c2:56:a7:38:90:0e:f9:16:ec:d6:29:1e:1a:16:52:
                    51:13:ff:b3:09:51:6a:d0:37:c7:40:bc:7a:e0:67:
                    a1:4f:4e:a2:56:a2:d1:a5:b0:99:ad:9c:b7:c1:b9:
                    87:e4:4e:2e:f5:da:d5:88:f7:de:f5:01:a7:22:d0:
                    50:b9:87:98:4f:87:f7:c2:02:75:80:a7:23:96:2b:
                    6e:4d:25:ba:d7:f1:ed:c4:71:57:31:f5:8d:c7:5b:
                    48:47:df:f4:f1:f6:ad:ec:5c:8a:fc:9b:7f:ec:7d:
                    05:46:13:e7:30:f1:a8:71:95:be:70:bc:90:eb:22:
                    a8:9b:eb
                Exponent: 65537 (0x10001)
        X509v3 extensions:
            X509v3 Key Usage: critical
                Certificate Sign, CRL Sign
            X509v3 Extended Key Usage: 
                TLS Web Client Authentication, TLS Web Server Authentication
            X509v3 Basic Constraints: critical
                CA:TRUE
            X509v3 Subject Key Identifier: 
                51:FA:67:76:4F:C8:4C:0A:F9:A7:14:A4:98:27:01:AC:23:39:16:87
            X509v3 Authority Key Identifier: 
                keyid:E8:B6:F6:76:4B:D0:3B:E5:46:A5:F9:54:D4:7E:07:B3:DE:0D:60:3E

            Authority Information Access: 
                OCSP - URI:http://ca.someca-inc.com/ocsp
                CA Issuers - URI:http://ca.someca-inc.com/root

            X509v3 Certificate Policies: 
                Policy: 1.2.3.4.5

            X509v3 CRL Distribution Points: 

                Full Name:
                  URI:http://ca.someca-inc.com/crl

    Signature Algorithm: sha256WithRSAEncryption
         4c:02:45:b9:f3:82:aa:12:eb:56:ab:34:d3:4b:02:9f:ef:67:
         07:d7:8a:5d:7d:2b:21:4d:13:e3:cc:70:99:2a:2d:62:b3:94:
         cc:68:a7:94:ca:9e:fe:85:14:48:5a:68:70:7a:31:a4:e1:1a:
         7c:45:4a:8a:48:4f:77:08:e3:a7:e1:3e:92:95:e6:60:ad:bf:
         6d:f0:40:d1:bb:40:72:90:f9:0a:54:d3:cc:cc:a8:72:ff:6b:
         54:6f:d4:d5:f5:bf:f7:65:f4:7c:27:1f:18:5f:83:e0:f3:5e:
         f0:0e:6a:28:2c:84:c0:a2:0f:3f:d2:a7:d9:1f:90:1a:ee:3e:
         db:5e:61:14:01:a4:00:b9:15:7f:a2:cb:41:ed:29:57:d5:02:
         7d:2c:a3:a8:35:a7:08:39:95:97:27:72:6d:bc:a8:05:b1:73:
         98:37:3a:86:ab:65:ce:39:56:5b:ae:b9:c6:1f:74:2f:71:6c:
         91:b2:46:18:5c:e7:75:fc:70:9b:ee:6b:b1:18:b5:61:65:39:
         75:7a:61:a9:8c:6c:47:7c:01:53:3d:21:91:9e:27:a2:ce:74:
         ca:05:28:da:7b:13:c9:c0:6e:06:91:5a:48:2c:3f:ef:f9:68:
         9b:63:df:77:31:c9:44:ed:9a:b1:48:c4:d7:23:19:48:21:4a:
         a8:0d:d1:9d:ff:00:9b:e7:9b:cb:5c:bc:85:ad:66:67:ee:21:
         ed:81:83:89:cb:6e:14:cf:0e:61:8c:9a:a7:32:3c:94:ff:ec:
         b3:b7:f5:b1:49:ab:8c:20:5e:39:21:d3:31:c9:cf:b7:d5:ac:
         87:b2:6b:83:84:29:70:50:9b:cc:a3:60:a1:f5:81:b3:37:4a:
         dd:12:2b:01:e5:79:8a:d3:c4:dd:b9:67:1f:cd:b7:f0:8e:d5:
         f8:e3:ef:51:00:1c:c2:ff:15:f5:d9:d8:2d:b5:f0:59:a1:7c:
         59:7e:a4:da:3f:4a:48:d9:5e:e2:48:34:e0:e0:e2:30:74:60:
         28:03:ad:d2:92:ac:0f:a1:c7:69:75:00:44:a1:00:ae:f0:e5:
         f5:3c:c2:18:05:16:18:c6:ad:cf:9e:c9:47:f9:c9:97:f1:c2:
         e7:98:19:33:db:4c:bb:2e:cd:86:d1:e9:7a:4a:9d:8d:fc:27:
         14:25:b9:57:02:59:0c:62:3c:5e:f5:ff:00:ae:05:da:00:d6:
         de:57:d4:7b:77:47:44:6b:74:6e:c5:32:fd:db:fe:76:46:49:
         2b:53:e9:12:7b:c9:b9:9a:3c:4f:b7:f7:2b:13:12:04:50:ae:
         3d:14:6e:94:ca:54:3b:bb:06:e5:4a:db:c1:ab:29:54:aa:10:
         55:90:c7:3a:c9:ef:7e:c0
-----BEGIN CERTIFICATE-----
MIIGcDCCBFigAwIBAgIQOBej+UQIIIMBkwjHMlgvwzANBgkqhkiG9w0BAQsFADBI
MQswCQYDVQQGEwJYWDEQMA4GA1UEChMHU29tZSBDQTEnMCUGA1UEAxMeRmFrZSBS
b290IENBIGZvciB6bGludCB0ZXN0aW5nMB4XDTI0MDkzMDEzMzcxNVoXDTI5MDky
OTEzMzcxNVowcDELMAkGA1UEBhMCWFgxEzARBgNVBAgTClNvbWUgU3RhdGUxFjAU
BgNVBAcTDVNvbWUgTG9jYWxpdHkxEDAOBgNVBAoTB1NvbWUgQ0ExIjAgBgNVBAMT
GUZha2UgQ0EgZm9yIHpsaW50IHRlc3RpbmcwggIiMA0GCSqGSIb3DQEBAQUAA4IC
DwAwggIKAoICAQCVdpZlr+ku4rbJEUtDcgTFTXVA2QU+Z56iMbW5kYLk+NXd6K/m
RcSvV1QsuygeyN+fhtorgHkSmTxBz22Fc/pxnHePHZO0K0BgYOSQYbxrnwEeU0vr
qcDNkagSxOlBITwY2d9JDcruSfARHuuHfues3I7uqqioTaFtSAIR038XWUxP2H25
vpxePezHhf3HQeXEkdv8I7R5e0Fo8qsE+RMZ5efzzCDImTkki+24EkI/fhxBwY8h
8oGQS7JYbKmtH8yH8+u0pcpToqka5gOz40eL6B+eSzBkeSF/DrJ0k7LKgxNPA/PI
56Fu6pAw51cYquqPnrkNMissVGuh/a0hSSpJJqpU80hQXMdHwFcay68SNBlY3M86
dwG9RKegBA/cBY4OsVyMkc8NBDfn6Kp7wMiWFpGg7czPDpJOdBsyq2O6Km3oqCeH
6jZZpoAV2IPVDRQ6AY+nTw0K/Sh3ybiWwOSNojFwpTEj827QeF0wjU99NH+ZSRt7
tR6GtLnXO8lpL33njvXZPMJWpziQDvkW7NYpHhoWUlET/7MJUWrQN8dAvHrgZ6FP
TqJWotGlsJmtnLfBuYfkTi712tWI9971Aaci0FC5h5hPh/fCAnWApyOWK25NJbrX
8e3EcVcx9Y3HW0hH3/Tx9q3sXIr8m3/sfQVGE+cw8ahxlb5wvJDrIqib6wIDAQAB
o4IBLDCCASgwDgYDVR0PAQH/BAQDAgEGMB0GA1UdJQQWMBQGCCsGAQUFBwMCBggr
BgEFBQcDATAPBgNVHRMBAf8EBTADAQH/MB0GA1UdDgQWBBRR+md2T8hMCvmnFKSY
JwGsIzkWhzAfBgNVHSMEGDAWgBTotvZ2S9A75Ual+VTUfgez3g1gPjBkBggrBgEF
BQcBAQRYMFYwKQYIKwYBBQUHMAGGHWh0dHA6Ly9jYS5zb21lY2EtaW5jLmNvbS9v
Y3NwMCkGCCsGAQUFBzAChh1odHRwOi8vY2Euc29tZWNhLWluYy5jb20vcm9vdDAR
BgNVHSAECjAIMAYGBCoDBAUwLQYDVR0fBCYwJDAioCCgHoYcaHR0cDovL2NhLnNv
bWVjYS1pbmMuY29tL2NybDANBgkqhkiG9w0BAQsFAAOCAgEATAJFufOCqhLrVqs0
00sCn+9nB9eKXX0rIU0T48xwmSotYrOUzGinlMqe/oUUSFpocHoxpOEafEVKikhP
dwjjp+E+kpXmYK2/bfBA0btAcpD5ClTTzMyocv9rVG/U1fW/92X0fCcfGF+D4PNe
8A5qKCyEwKIPP9Kn2R+QGu4+215hFAGkALkVf6LLQe0pV9UCfSyjqDWnCDmVlydy
bbyoBbFzmDc6hqtlzjlWW665xh90L3FskbJGGFzndfxwm+5rsRi1YWU5dXphqYxs
R3wBUz0hkZ4nos50ygUo2nsTycBuBpFaSCw/7/lom2PfdzHJRO2asUjE1yMZSCFK
qA3Rnf8Am+eby1y8ha1mZ+4h7YGDictuFM8OYYyapzI8lP/ss7f1sUmrjCBeOSHT
McnPt9Wsh7Jrg4QpcFCbzKNgofWBszdK3RIrAeV5itPE3blnH8238I7V+OPvUQAc
wv8V9dnYLbXwWaF8WX6k2j9KSNle4kg04ODiMHRgKAOt0pKsD6HHaXUARKEArvDl
9TzCGAUWGMatz57JR/nJl/HC55gZM9tMuy7NhtHpekqdjfwnFCW5VwJZDGI8XvX/
AK4F2gDW3lfUe3dHRGt0bsUy/dv+dkZJK1PpEnvJuZo8T7f3KxMSBFCuPRRulMpU
O7sG5UrbwaspVKoQVZDHOsnvfsA=
-----END CERTIFICATE-----
