Certificate:
    Data:
        Version: 3 (0x2)
        Serial Number:
            15:33:e7:dc:c8:45:b7:20:c1:2d:6a:51:c4:42:28:b6:b3:3b:cd:03
        Signature Algorithm: ecdsa-with-SHA256
        Issuer: C = FOO, ST = Utah, L = Alta, O = UnitTest Co., CN = UnitTest Old Root
        Validity
            Not Before: Jun 30 23:59:59 2012 GMT
            Not After : Mar  6 04:40:14 2014 GMT
        Subject: C = FOO, ST = Utah, L = Alta, O = UnitTest Co., CN = UnitTest Old Root
        Subject Public Key Info:
            Public Key Algorithm: id-ecPublicKey
                Public-Key: (256 bit)
                pub:
                    04:fb:19:42:08:37:39:a2:a2:47:ca:c4:e6:82:fe:
                    35:c1:a5:dc:14:cf:80:37:f5:0f:be:fa:11:6d:41:
                    67:34:81:a1:45:b5:6d:3a:57:47:3f:30:42:21:9f:
                    d6:76:33:25:9b:c7:8a:e0:93:97:c6:a0:dd:15:9f:
                    e9:e7:a8:91:f2
                ASN1 OID: prime256v1
                NIST CURVE: P-256
        X509v3 extensions:
            X509v3 Subject Key Identifier: 
                EE:8B:E0:25:6F:98:5A:11:3F:14:41:38:8C:44:C8:04:DB:F1:F8:E8
            X509v3 Authority Key Identifier: 
                EE:8B:E0:25:6F:98:5A:11:3F:14:41:38:8C:44:C8:04:DB:F1:F8:E8
            X509v3 Basic Constraints: critical
                CA:TRUE
            X509v3 Key Usage: critical
                Certificate Sign, CRL Sign
    Signature Algorithm: ecdsa-with-SHA256
    Signature Value:
        30:44:02:20:40:b8:05:c5:bb:de:65:cd:45:25:6f:2c:14:8d:
        92:6f:75:92:70:65:78:da:b3:5f:d4:73:92:af:b4:e6:a8:f1:
        02:20:4d:5f:29:d2:91:ab:57:7a:92:19:fd:7d:cd:74:eb:db:
        5e:2c:4c:c2:f9:de:76:66:b3:e3:98:6e:d3:36:5c:77
-----BEGIN CERTIFICATE-----
MIICIjCCAcmgAwIBAgIUFTPn3MhFtyDBLWpRxEIotrM7zQMwCgYIKoZIzj0EAwIw
XzEMMAoGA1UEBhMDRk9PMQ0wCwYDVQQIDARVdGFoMQ0wCwYDVQQHDARBbHRhMRUw
EwYDVQQKDAxVbml0VGVzdCBDby4xGjAYBgNVBAMMEVVuaXRUZXN0IE9sZCBSb290
MB4XDTEyMDYzMDIzNTk1OVoXDTE0MDMwNjA0NDAxNFowXzEMMAoGA1UEBhMDRk9P
MQ0wCwYDVQQIDARVdGFoMQ0wCwYDVQQHDARBbHRhMRUwEwYDVQQKDAxVbml0VGVz
dCBDby4xGjAYBgNVBAMMEVVuaXRUZXN0IE9sZCBSb290MFkwEwYHKoZIzj0CAQYI
KoZIzj0DAQcDQgAE+xlCCDc5oqJHysTmgv41waXcFM+AN/UPvvoRbUFnNIGhRbVt
OldHPzBCIZ/WdjMlm8eK4JOXxqDdFZ/p56iR8qNjMGEwHQYDVR0OBBYEFO6L4CVv
mFoRPxRBOIxEyATb8fjoMB8GA1UdIwQYMBaAFO6L4CVvmFoRPxRBOIxEyATb8fjo
MA8GA1UdEwEB/wQFMAMBAf8wDgYDVR0PAQH/BAQDAgEGMAoGCCqGSM49BAMCA0cA
MEQCIEC4BcW73mXNRSVvLBSNkm91knBleNqzX9Rzkq+05qjxAiBNXynSkatXepIZ
/X3NdOvbXixMwvnedmaz45hu0zZcdw==
-----END CERTIFICATE-----
