Certificate:
    Data:
        Version: 3 (0x2)
        Serial Number: 14615016 (0xdf01e8)
    Signature Algorithm: sha256WithRSAEncryption
        Issuer: C = US, O = Mother Nature, OU = Everything, CN = Mother Nature
        Validity
            Not Before: Aug  5 15:16:04 2016 GMT
            Not After : Oct 17 15:16:04 2016 GMT
        Subject: C = US, ST = FL, L = Tallahassee, street = 3210 Holly Mill Run, postalCode = 30062, O = Extreme Discord, OU = Chaos, CN = gov.us
        Subject Public Key Info:
            Public Key Algorithm: rsaEncryption
                Public-Key: (2048 bit)
                Modulus:
                    00:c5:43:80:82:fe:2c:82:25:19:9c:c5:4f:5d:45:
                    63:5c:ab:f7:5d:fe:a9:88:ec:66:69:ac:c7:9a:b1:
                    ed:7d:72:1d:c9:03:74:7d:bf:5d:e8:f3:7c:97:ce:
                    02:bc:b2:e4:2c:d2:25:1d:03:d4:14:b2:c2:1b:45:
                    05:f9:db:5b:7f:ed:bc:98:c2:89:48:e6:50:57:8f:
                    43:af:f3:ee:96:fa:68:e9:67:74:ec:0e:26:5a:96:
                    a6:fa:73:ad:c8:ba:79:9b:ed:6c:36:8f:96:4b:65:
                    cb:93:de:0a:cb:c5:a5:ac:0d:f2:08:aa:56:08:30:
                    1d:15:bb:fe:24:ea:78:de:cc:7f:4a:69:2d:b7:88:
                    9d:fa:e3:d1:5c:e5:36:99:78:28:bb:fb:76:cf:f7:
                    a1:3f:7b:83:eb:2f:ba:fd:9d:fa:35:7d:64:4a:a4:
                    5c:d2:92:7a:48:f0:9d:8d:8d:20:ca:03:c5:a1:ad:
                    51:d5:30:79:f4:0f:1d:1d:aa:a0:a7:95:79:e7:59:
                    99:67:11:b4:cd:4d:f3:e8:29:88:27:e7:d0:27:ea:
                    59:6c:18:84:f0:bd:9a:45:f1:9f:c5:b5:6a:89:62:
                    62:b6:84:b3:a2:cc:21:32:85:ca:29:29:2f:5b:22:
                    dd:2e:19:36:a5:f8:4b:08:b7:3d:2a:28:2a:0c:31:
                    1c:c7
                Exponent: 65537 (0x10001)
        X509v3 extensions:
            X509v3 Basic Constraints: critical
                CA:FALSE
            X509v3 Authority Key Identifier: 
                keyid:01:02:03

            Authority Information Access: 
                OCSP - URI:http://theca.net/ocsp

            X509v3 CRL Distribution Points: 

                Full Name:
                  URI:ldap://theca.net/crlpoint

            X509v3 Subject Key Identifier: 
                04:03:02:01
            X509v3 Subject Alternative Name: 
                DNS:*.gov.us, DNS:gov.us
            X509v3 Key Usage: 
                Data Encipherment, Key Agreement
            X509v3 Extended Key Usage: 
                TLS Web Server Authentication, 1.2.840.113635.100.4.3, Signing KDC Response, Any Extended Key Usage
            X509v3 Certificate Policies: 
                Policy: 2.16.840.1.114414.1.7.23.1
                  CPS: http://certificates.starfieldtech.com/repository/

    Signature Algorithm: sha256WithRSAEncryption
         ab:e2:c2:b6:ff:16:4c:6c:8c:52:04:49:8b:a1:e7:42:06:d0:
         76:50:23:6b:76:bd:b9:3e:8d:72:36:87:11:3a:db:0a:b1:2e:
         89:23:db:3c:82:31:2a:f9:00:bb:f5:85:96:f6:eb:1f:a4:ec:
         5c:0f:d7:77:33:b9:61:4f:c8:1f:a7:4c:3b:2f:85:0a:23:1d:
         2a:1a:6f:e8:89:da:8c:f8:c3:1c:d9:34:10:62:34:6d:d0:ee:
         f8:0c:ed:f3:6b:68:b9:32:e9:f4:6a:18:7a:2b:2d:9d:ef:5c:
         f5:bc:50:58:e2:dc:f6:75:f6:f9:e8:79:50:a1:03:9e:92:97:
         ea:28:fc:4b:67:57:87:85:70:b9:ed:6d:44:ea:b9:27:b4:7c:
         37:74:8e:35:bd:77:a1:d7:28:67:60:83:7a:fd:16:80:b9:79:
         a0:d2:ca:8c:20:d0:f2:0c:16:54:29:8f:38:9a:40:90:c0:47:
         e3:24:67:13:e2:50:c9:cb:b1:1d:5d:b9:c4:ff:7d:8c:66:d1:
         f6:7e:76:13:9d:f8:3b:4f:b8:1b:ca:af:af:50:d0:0b:de:37:
         18:68:4b:e5:7f:fb:3b:94:27:e9:c0:e9:0d:63:ac:30:6e:4d:
         e0:2c:1c:e9:43:96:61:27:4b:df:a6:8b:f7:dd:a0:fc:41:f8:
         3e:e0:4f:1d
-----BEGIN CERTIFICATE-----
MIIEsDCCA5igAwIBAgIEAN8B6DANBgkqhkiG9w0BAQsFADBSMQswCQYDVQQGEwJV
UzEWMBQGA1UEChMNTW90aGVyIE5hdHVyZTETMBEGA1UECxMKRXZlcnl0aGluZzEW
MBQGA1UEAxMNTW90aGVyIE5hdHVyZTAeFw0xNjA4MDUxNTE2MDRaFw0xNjEwMTcx
NTE2MDRaMIGZMQswCQYDVQQGEwJVUzELMAkGA1UECBMCRkwxFDASBgNVBAcTC1Rh
bGxhaGFzc2VlMRwwGgYDVQQJExMzMjEwIEhvbGx5IE1pbGwgUnVuMQ4wDAYDVQQR
EwUzMDA2MjEYMBYGA1UEChMPRXh0cmVtZSBEaXNjb3JkMQ4wDAYDVQQLEwVDaGFv
czEPMA0GA1UEAxMGZ292LnVzMIIBIjANBgkqhkiG9w0BAQEFAAOCAQ8AMIIBCgKC
AQEAxUOAgv4sgiUZnMVPXUVjXKv3Xf6piOxmaazHmrHtfXIdyQN0fb9d6PN8l84C
vLLkLNIlHQPUFLLCG0UF+dtbf+28mMKJSOZQV49Dr/Pulvpo6Wd07A4mWpam+nOt
yLp5m+1sNo+WS2XLk94Ky8WlrA3yCKpWCDAdFbv+JOp43sx/Smktt4id+uPRXOU2
mXgou/t2z/ehP3uD6y+6/Z36NX1kSqRc0pJ6SPCdjY0gygPFoa1R1TB59A8dHaqg
p5V551mZZxG0zU3z6CmIJ+fQJ+pZbBiE8L2aRfGfxbVqiWJitoSzoswhMoXKKSkv
WyLdLhk2pfhLCLc9KigqDDEcxwIDAQABo4IBRDCCAUAwDAYDVR0TAQH/BAIwADAO
BgNVHSMEBzAFgAMBAgMwMQYIKwYBBQUHAQEEJTAjMCEGCCsGAQUFBzABhhVodHRw
Oi8vdGhlY2EubmV0L29jc3AwKgYDVR0fBCMwITAfoB2gG4YZbGRhcDovL3RoZWNh
Lm5ldC9jcmxwb2ludDANBgNVHQ4EBgQEBAMCATAbBgNVHREEFDASgggqLmdvdi51
c4IGZ292LnVzMAsGA1UdDwQEAwIBGDAtBgNVHSUEJjAkBggrBgEFBQcDAQYJKoZI
hvdjZAQDBgcrBgEFAgMFBgRVHSUAMFkGA1UdIARSMFAwTgYLYIZIAYb9bgEHFwEw
PzA9BggrBgEFBQcCARYxaHR0cDovL2NlcnRpZmljYXRlcy5zdGFyZmllbGR0ZWNo
LmNvbS9yZXBvc2l0b3J5LzANBgkqhkiG9w0BAQsFAAOCAQEAq+LCtv8WTGyMUgRJ
i6HnQgbQdlAja3a9uT6NcjaHETrbCrEuiSPbPIIxKvkAu/WFlvbrH6TsXA/XdzO5
YU/IH6dMOy+FCiMdKhpv6InajPjDHNk0EGI0bdDu+Azt82touTLp9GoYeistne9c
9bxQWOLc9nX2+eh5UKEDnpKX6ij8S2dXh4Vwue1tROq5J7R8N3SONb13odcoZ2CD
ev0WgLl5oNLKjCDQ8gwWVCmPOJpAkMBH4yRnE+JQycuxHV25xP99jGbR9n52E534
O0+4G8qvr1DQC943GGhL5X/7O5Qn6cDpDWOsMG5N4Cwc6UOWYSdL36aL992g/EH4
PuBPHQ==
-----END CERTIFICATE-----
