Certificate:
    Data:
        Version: 3 (0x2)
        Serial Number:
            13:56:60:02:5e:20:5f:9a:c0:22:cc:c6:49:8b:5c:17:e9:26:7b:91
        Signature Algorithm: ecdsa-with-SHA256
        Issuer: C = US, C = FOO, C = MX, ST = Utah, L = Alta, O = UnitTest Co., CN = UnitTest Root 1
        Validity
            Not Before: Mar  1 04:25:23 2026 GMT
            Not After : Mar  6 04:25:23 2026 GMT
        Subject: C = US, C = FOO, C = MX, ST = Utah, L = Alta, O = UnitTest Co., CN = UnitTest Root 1
        Subject Public Key Info:
            Public Key Algorithm: id-ecPublicKey
                Public-Key: (256 bit)
                pub:
                    04:3a:f6:4b:a6:f3:9f:6f:52:ce:3a:93:51:8a:a4:
                    7d:a9:41:93:74:71:00:45:19:46:2e:42:c6:b3:00:
                    f4:6b:fc:4a:88:6f:42:ad:14:bd:e3:f3:ea:2b:56:
                    9f:4a:ae:13:d8:9c:ad:05:22:e1:08:13:55:20:38:
                    d8:34:26:ab:0f
                ASN1 OID: prime256v1
                NIST CURVE: P-256
        X509v3 extensions:
            X509v3 Subject Key Identifier: 
                8B:0F:0E:55:BA:D3:FF:49:98:31:E3:0C:E3:E0:61:74:25:18:BE:23
            X509v3 Authority Key Identifier: 
                8B:0F:0E:55:BA:D3:FF:49:98:31:E3:0C:E3:E0:61:74:25:18:BE:23
            X509v3 Basic Constraints: critical
                CA:TRUE
            X509v3 Key Usage: critical
                Certificate Sign, CRL Sign
    Signature Algorithm: ecdsa-with-SHA256
    Signature Value:
        30:45:02:21:00:fd:ad:38:97:eb:3d:6b:ed:ec:2b:57:00:77:
        0a:c9:e9:f1:ce:c3:83:89:7f:ba:4d:31:16:f8:ca:e1:4c:c3:
        45:02:20:4b:33:de:09:dc:0c:cb:df:27:70:8a:76:18:73:da:
        02:00:d1:6c:83:00:dc:ff:9f:68:01:77:35:c9:02:87:f1
-----BEGIN CERTIFICATE-----
MIICUzCCAfmgAwIBAgIUE1ZgAl4gX5rAIszGSYtcF+kme5EwCgYIKoZIzj0EAwIw
dzELMAkGA1UEBhMCVVMxDDAKBgNVBAYTA0ZPTzELMAkGA1UEBhMCTVgxDTALBgNV
BAgMBFV0YWgxDTALBgNVBAcMBEFsdGExFTATBgNVBAoMDFVuaXRUZXN0IENvLjEY
MBYGA1UEAwwPVW5pdFRlc3QgUm9vdCAxMB4XDTI2MDMwMTA0MjUyM1oXDTI2MDMw
NjA0MjUyM1owdzELMAkGA1UEBhMCVVMxDDAKBgNVBAYTA0ZPTzELMAkGA1UEBhMC
TVgxDTALBgNVBAgMBFV0YWgxDTALBgNVBAcMBEFsdGExFTATBgNVBAoMDFVuaXRU
ZXN0IENvLjEYMBYGA1UEAwwPVW5pdFRlc3QgUm9vdCAxMFkwEwYHKoZIzj0CAQYI
KoZIzj0DAQcDQgAEOvZLpvOfb1LOOpNRiqR9qUGTdHEARRlGLkLGswD0a/xKiG9C
rRS94/PqK1afSq4T2JytBSLhCBNVIDjYNCarD6NjMGEwHQYDVR0OBBYEFIsPDlW6
0/9JmDHjDOPgYXQlGL4jMB8GA1UdIwQYMBaAFIsPDlW60/9JmDHjDOPgYXQlGL4j
MA8GA1UdEwEB/wQFMAMBAf8wDgYDVR0PAQH/BAQDAgEGMAoGCCqGSM49BAMCA0gA
MEUCIQD9rTiX6z1r7ewrVwB3Csnp8c7Dg4l/uk0xFvjK4UzDRQIgSzPeCdwMy98n
cIp2GHPaAgDRbIMA3P+faAF3NckCh/E=
-----END CERTIFICATE-----
