Certificate:
    Data:
        Version: 3 (0x2)
        Serial Number:
            3f:9e:61:4f:ec:21:03:21:ff:86:54:72:a3:ca:9c:46
        Signature Algorithm: sha256WithRSAEncryption
        Issuer: C=XX, O=Some CA, CN=Fake CA for Zlint testing
        Validity
            Not Before: Jun 15 00:00:00 2023 GMT
            Not After : Jun 14 00:00:00 2024 GMT
        Subject: C=US, L=Nowhere, O=Some Company Ltd., CN=Leon Mandrake
        Subject Public Key Info:
            Public Key Algorithm: rsaEncryption
                Public-Key: (2048 bit)
                Modulus:
                    00:b9:cf:3b:77:ca:b1:25:23:08:f5:c4:a4:72:1e:
                    2d:09:e5:a6:a8:10:2f:fa:7d:4e:66:f7:37:09:72:
                    2d:f8:90:6a:b3:3c:cf:1e:eb:a9:c7:08:01:14:34:
                    c2:d3:dd:e5:f9:1c:a7:00:56:66:e5:fb:ec:93:16:
                    80:c1:e2:9a:81:b6:db:60:dc:98:54:2e:dd:02:c2:
                    33:b0:5e:5e:31:73:c5:64:4b:4b:93:32:77:63:8e:
                    31:b8:66:43:f5:3f:c6:1f:9b:66:f1:ca:af:79:14:
                    a8:23:8b:34:af:49:31:29:19:82:9e:44:f6:bc:dd:
                    62:0d:ad:83:a7:ac:ef:c2:4e:1a:5e:3b:ed:d8:ad:
                    25:5e:38:93:c0:d6:00:e1:e6:39:2b:aa:bb:19:6b:
                    92:41:b9:9e:63:00:35:d1:65:e8:08:78:46:84:dd:
                    c8:0e:75:11:cc:61:a3:11:df:15:49:e4:e2:14:4d:
                    b7:a7:18:ed:dc:b4:f6:85:d0:08:de:bc:8e:a6:f2:
                    e9:dc:b9:9b:cd:be:7e:f1:b8:ff:3f:25:6d:33:b3:
                    c1:4a:59:01:c9:c9:81:c3:23:12:64:00:62:32:27:
                    a3:c0:c9:8a:d0:19:e5:28:22:ad:94:9c:11:63:51:
                    42:aa:3e:b2:ea:d7:ed:15:5f:c3:f3:1c:c0:0c:34:
                    95:61
                Exponent: 65537 (0x10001)
        X509v3 extensions:
            X509v3 Key Usage: critical
                Digital Signature, Key Encipherment
            X509v3 Extended Key Usage: 
                TLS Web Client Authentication, E-mail Protection
            X509v3 Subject Key Identifier: 
                6A:96:C8:BF:B2:9A:39:EB:EC:B2:9F:3B:8D:E3:F5:DC:3C:13:1E:83
            X509v3 Authority Key Identifier: 
                E8:B6:F6:76:4B:D0:3B:E5:46:A5:F9:54:D4:7E:07:B3:DE:0D:60:3E
            Authority Information Access: 
                OCSP - URI:http://ca.someca-inc.com/ocsp
                CA Issuers - URI:http://ca.someca-inc.com/root
            X509v3 Subject Alternative Name: 
                email:Leon.Mandrake@example.com
            X509v3 CRL Distribution Points: 
                Full Name:
                  URI:http://ca.someca-inc.com/crl

    Signature Algorithm: sha256WithRSAEncryption
    Signature Value:
        9d:ab:96:19:e9:0e:dd:5d:c6:f0:a9:ec:6b:45:c1:f1:15:55:
        4a:7b:ef:f9:c8:e6:40:a0:da:9a:0e:21:d4:a0:b9:83:1c:51:
        26:da:0f:eb:2c:b4:85:e1:73:6c:fc:e5:0b:38:3e:5f:11:c1:
        e2:b4:b1:2f:09:7e:c6:37:c4:ae:3c:2b:98:42:c2:b6:d9:54:
        c1:79:a5:51:f4:ba:c8:e3:02:82:2d:85:89:18:04:44:65:7d:
        01:21:4b:0e:84:32:a6:7f:8b:8b:69:e3:df:fb:9d:25:1a:69:
        13:83:99:61:6c:29:4d:1a:13:7d:23:67:e9:d7:d0:bd:83:80:
        d8:83:54:c5:1f:9e:89:d9:58:b3:ae:41:d6:b9:f7:24:41:91:
        88:e2:87:87:e6:a9:b8:07:38:e9:09:66:99:18:ea:c1:3d:1a:
        4a:44:33:c3:16:36:62:f2:30:51:a4:07:58:bc:07:05:f4:a3:
        0d:5c:0c:1a:59:96:1b:d1:09:d8:ab:4a:71:3c:fc:04:ea:53:
        1b:8b:ad:87:e4:1f:30:3d:3a:d6:07:9b:36:d4:c1:92:02:5b:
        c9:55:b9:a3:ef:31:13:7e:12:02:24:c7:a5:89:68:05:10:42:
        a7:9f:b2:c6:8d:c2:7b:35:8b:af:d8:58:7f:44:01:72:6b:0f:
        e5:48:aa:93:c4:e1:71:01:bf:8b:02:f9:86:41:67:5f:bd:db:
        fe:4a:0d:bc:c5:bd:92:01:4e:06:2b:f4:d5:f6:1f:b7:bb:11:
        bb:d7:5f:64:02:f2:35:b6:78:66:cc:13:f2:4f:93:98:98:8b:
        b8:91:99:4e:fd:30:5e:be:d1:4d:3b:cf:c0:ef:eb:34:3d:a1:
        2f:f4:e4:71:91:87:a6:5d:22:e9:06:e3:1d:cc:13:5f:97:65:
        c0:5d:51:02:23:a4:e1:cb:03:4e:e9:2b:b1:7c:73:07:19:be:
        8e:3d:56:a4:50:60:c0:d3:78:72:d0:5c:b9:05:05:4a:d3:70:
        35:6e:33:55:2d:6e:e3:b2:99:59:3f:91:9a:3f:75:05:4c:fb:
        b5:3d:31:14:2d:16:d4:61:30:e5:7c:49:f3:3d:23:3d:89:e3:
        35:4d:1b:3c:d4:0c:2d:11:55:bd:30:2f:8d:ae:57:1b:66:01:
        80:29:7b:6e:c4:99:bb:1e:10:91:0e:43:8b:e3:93:84:4c:f7:
        97:bf:3a:bc:07:a8:f1:e0:b4:df:f0:07:38:a8:b8:40:23:80:
        5c:8f:c2:3c:49:00:f4:00:47:1d:00:ad:76:00:07:df:d6:7e:
        63:51:56:e7:25:fc:2e:60:a6:10:b8:5f:c1:f3:54:9f:9c:b2:
        68:01:7e:73:11:41:be:1b
-----BEGIN CERTIFICATE-----
MIIFUDCCAzigAwIBAgIQP55hT+whAyH/hlRyo8qcRjANBgkqhkiG9w0BAQsFADBD
MQswCQYDVQQGEwJYWDEQMA4GA1UEChMHU29tZSBDQTEiMCAGA1UEAxMZRmFrZSBD
QSBmb3IgWmxpbnQgdGVzdGluZzAeFw0yMzA2MTUwMDAwMDBaFw0yNDA2MTQwMDAw
MDBaMFMxCzAJBgNVBAYTAlVTMRAwDgYDVQQHEwdOb3doZXJlMRowGAYDVQQKExFT
b21lIENvbXBhbnkgTHRkLjEWMBQGA1UEAxMNTGVvbiBNYW5kcmFrZTCCASIwDQYJ
KoZIhvcNAQEBBQADggEPADCCAQoCggEBALnPO3fKsSUjCPXEpHIeLQnlpqgQL/p9
Tmb3NwlyLfiQarM8zx7rqccIARQ0wtPd5fkcpwBWZuX77JMWgMHimoG222DcmFQu
3QLCM7BeXjFzxWRLS5Myd2OOMbhmQ/U/xh+bZvHKr3kUqCOLNK9JMSkZgp5E9rzd
Yg2tg6es78JOGl477ditJV44k8DWAOHmOSuquxlrkkG5nmMANdFl6Ah4RoTdyA51
EcxhoxHfFUnk4hRNt6cY7dy09oXQCN68jqby6dy5m82+fvG4/z8lbTOzwUpZAcnJ
gcMjEmQAYjIno8DJitAZ5SgirZScEWNRQqo+surX7RVfw/McwAw0lWECAwEAAaOC
AS4wggEqMA4GA1UdDwEB/wQEAwIFoDAdBgNVHSUEFjAUBggrBgEFBQcDAgYIKwYB
BQUHAwQwHQYDVR0OBBYEFGqWyL+ymjnr7LKfO43j9dw8Ex6DMB8GA1UdIwQYMBaA
FOi29nZL0DvlRqX5VNR+B7PeDWA+MGQGCCsGAQUFBwEBBFgwVjApBggrBgEFBQcw
AYYdaHR0cDovL2NhLnNvbWVjYS1pbmMuY29tL29jc3AwKQYIKwYBBQUHMAKGHWh0
dHA6Ly9jYS5zb21lY2EtaW5jLmNvbS9yb290MCQGA1UdEQQdMBuBGUxlb24uTWFu
ZHJha2VAZXhhbXBsZS5jb20wLQYDVR0fBCYwJDAioCCgHoYcaHR0cDovL2NhLnNv
bWVjYS1pbmMuY29tL2NybDANBgkqhkiG9w0BAQsFAAOCAgEAnauWGekO3V3G8Kns
a0XB8RVVSnvv+cjmQKDamg4h1KC5gxxRJtoP6yy0heFzbPzlCzg+XxHB4rSxLwl+
xjfErjwrmELCttlUwXmlUfS6yOMCgi2FiRgERGV9ASFLDoQypn+Li2nj3/udJRpp
E4OZYWwpTRoTfSNn6dfQvYOA2INUxR+eidlYs65B1rn3JEGRiOKHh+apuAc46Qlm
mRjqwT0aSkQzwxY2YvIwUaQHWLwHBfSjDVwMGlmWG9EJ2KtKcTz8BOpTG4uth+Qf
MD061gebNtTBkgJbyVW5o+8xE34SAiTHpYloBRBCp5+yxo3CezWLr9hYf0QBcmsP
5Uiqk8ThcQG/iwL5hkFnX73b/koNvMW9kgFOBiv01fYft7sRu9dfZALyNbZ4ZswT
8k+TmJiLuJGZTv0wXr7RTTvPwO/rND2hL/TkcZGHpl0i6QbjHcwTX5dlwF1RAiOk
4csDTukrsXxzBxm+jj1WpFBgwNN4ctBcuQUFStNwNW4zVS1u47KZWT+Rmj91BUz7
tT0xFC0W1GEw5XxJ8z0jPYnjNU0bPNQMLRFVvTAvja5XG2YBgCl7bsSZux4QkQ5D
i+OThEz3l786vAeo8eC03/AHOKi4QCOAXI/CPEkA9ABHHQCtdgAH39Z+Y1FW5yX8
LmCmELhfwfNUn5yyaAF+cxFBvhs=
-----END CERTIFICATE-----
