Certificate:
    Data:
        Version: 3 (0x2)
        Serial Number:
            ae:1b:dd:14:29:e0:43:91:17:51:8c:79:68:3f:a8:5c
        Signature Algorithm: sha256WithRSAEncryption
        Issuer: C=XX, O=Some CA, CN=Fake CA for zlint testing
        Validity
            Not Before: Mar 23 00:00:00 2027 GMT
            Not After : Jun 30 00:00:00 2027 GMT
        Subject: C=SE, ST=Götaland, L=Göteborg, O=Some Company AB, CN=example.org
        Subject Public Key Info:
            Public Key Algorithm: rsaEncryption
                Public-Key: (2048 bit)
                Modulus:
                    00:db:da:fa:9f:f4:3a:4f:f0:04:c9:f6:ae:49:30:
                    19:e0:ae:f3:50:43:d0:f4:66:38:d6:bb:50:b1:97:
                    77:89:00:cf:5a:09:b5:bd:8f:09:a9:e9:e8:38:be:
                    95:b4:84:db:e9:4e:80:91:b9:52:66:c9:ab:58:ca:
                    1a:68:e0:e2:5b:f0:a9:94:92:67:61:8d:93:bd:02:
                    f4:41:6a:70:12:0a:1d:52:a3:72:21:80:26:42:f2:
                    47:1c:a2:8d:e8:1a:7b:ea:d6:57:7c:a8:4c:aa:a0:
                    31:58:c0:ab:ee:07:a1:8b:e0:8f:6e:93:ad:45:dd:
                    71:ee:ae:34:9f:71:50:d4:f7:fd:40:6a:4f:94:f0:
                    5e:b1:bd:42:b9:2a:67:e4:b8:f6:05:a3:2b:02:de:
                    c8:fe:77:db:30:bc:12:9c:4f:50:d8:c3:7e:ac:03:
                    58:3a:75:06:8a:62:12:35:f9:7a:6a:7e:6a:14:a1:
                    e0:0a:54:f3:53:4e:67:ae:c9:80:e2:31:37:49:4b:
                    db:1e:c1:4f:4c:fd:a3:c4:fd:3f:cc:ff:ca:b8:ed:
                    90:31:00:f6:00:ca:21:54:a0:60:bc:af:3f:9f:8c:
                    c4:eb:40:5b:00:b5:e3:8e:55:5b:0c:c7:99:a5:79:
                    ca:a7:10:78:9f:d4:99:1e:e6:b3:1c:e3:0e:f1:29:
                    fe:7b
                Exponent: 65537 (0x10001)
        X509v3 extensions:
            X509v3 Extended Key Usage: 
                TLS Web Server Authentication
            X509v3 Authority Key Identifier: 
                E8:B6:F6:76:4B:D0:3B:E5:46:A5:F9:54:D4:7E:07:B3:DE:0D:60:3E
            Authority Information Access: 
                OCSP - URI:http://ca.someca-inc.com/ocsp
                CA Issuers - URI:http://ca.someca-inc.com/root cert
            X509v3 Subject Alternative Name: 
                DNS:example.org
            X509v3 Certificate Policies: 
                Policy: 2.23.140.1.2.2
            X509v3 CRL Distribution Points: 
                Full Name:
                  URI:http://ca.someca-inc.com/crl

    Signature Algorithm: sha256WithRSAEncryption
    Signature Value:
        02:fe:c4:54:f7:9b:79:28:34:c6:1e:7e:ee:da:be:89:df:b0:
        04:a1:42:e2:f7:f4:50:a9:ac:3c:13:1e:e0:d5:6b:69:74:0f:
        28:10:6a:2d:17:11:e1:4a:91:cb:92:d5:79:c4:fb:72:28:6f:
        d8:ac:11:29:03:8e:f0:bd:c9:1b:3c:0a:06:2e:94:96:19:a2:
        fe:72:12:2b:af:f1:05:3c:37:82:ba:f9:7d:18:41:5d:6b:fa:
        1e:17:f2:33:5c:ea:f1:e9:1d:d3:d0:9f:a9:28:f9:d9:ab:45:
        e0:5f:15:8f:11:01:21:90:bf:bb:03:d6:82:1a:2c:bd:2a:b9:
        53:56:cc:1f:12:45:20:5a:cf:24:8d:6d:16:54:df:d3:2d:91:
        76:2b:01:21:e3:ed:c4:f8:75:c3:2f:07:c3:98:5c:8a:cc:ea:
        06:19:a6:8c:20:53:97:c2:f6:7f:2f:0d:ca:0e:ab:d4:53:8f:
        e9:b4:81:8e:6f:11:1b:94:d6:01:01:22:d5:f5:61:92:bd:41:
        a3:bd:a4:9b:5b:9c:9e:6d:01:dd:89:a2:c2:15:97:2f:3b:02:
        18:ae:1e:2e:8f:7e:e8:9d:f9:35:3c:23:b3:14:d8:ee:1d:55:
        40:2d:2e:7d:4a:bc:ef:a9:5c:0b:d7:6c:af:66:c7:d7:b8:55:
        6c:cb:18:f8
-----BEGIN CERTIFICATE-----
MIIENTCCAx2gAwIBAgIRAK4b3RQp4EORF1GMeWg/qFwwDQYJKoZIhvcNAQELBQAw
QzELMAkGA1UEBhMCWFgxEDAOBgNVBAoTB1NvbWUgQ0ExIjAgBgNVBAMTGUZha2Ug
Q0EgZm9yIHpsaW50IHRlc3RpbmcwHhcNMjcwMzIzMDAwMDAwWhcNMjcwNjMwMDAw
MDAwWjBlMQswCQYDVQQGEwJTRTESMBAGA1UECAwJR8O2dGFsYW5kMRIwEAYDVQQH
DAlHw7Z0ZWJvcmcxGDAWBgNVBAoTD1NvbWUgQ29tcGFueSBBQjEUMBIGA1UEAxML
ZXhhbXBsZS5vcmcwggEiMA0GCSqGSIb3DQEBAQUAA4IBDwAwggEKAoIBAQDb2vqf
9DpP8ATJ9q5JMBngrvNQQ9D0ZjjWu1Cxl3eJAM9aCbW9jwmp6eg4vpW0hNvpToCR
uVJmyatYyhpo4OJb8KmUkmdhjZO9AvRBanASCh1So3IhgCZC8kccoo3oGnvq1ld8
qEyqoDFYwKvuB6GL4I9uk61F3XHurjSfcVDU9/1Aak+U8F6xvUK5KmfkuPYFoysC
3sj+d9swvBKcT1DYw36sA1g6dQaKYhI1+XpqfmoUoeAKVPNTTmeuyYDiMTdJS9se
wU9M/aPE/T/M/8q47ZAxAPYAyiFUoGC8rz+fjMTrQFsAteOOVVsMx5mlecqnEHif
1Jke5rMc4w7xKf57AgMBAAGjggEAMIH9MBMGA1UdJQQMMAoGCCsGAQUFBwMBMB8G
A1UdIwQYMBaAFOi29nZL0DvlRqX5VNR+B7PeDWA+MGkGCCsGAQUFBwEBBF0wWzAp
BggrBgEFBQcwAYYdaHR0cDovL2NhLnNvbWVjYS1pbmMuY29tL29jc3AwLgYIKwYB
BQUHMAKGImh0dHA6Ly9jYS5zb21lY2EtaW5jLmNvbS9yb290IGNlcnQwFgYDVR0R
BA8wDYILZXhhbXBsZS5vcmcwEwYDVR0gBAwwCjAIBgZngQwBAgIwLQYDVR0fBCYw
JDAioCCgHoYcaHR0cDovL2NhLnNvbWVjYS1pbmMuY29tL2NybDANBgkqhkiG9w0B
AQsFAAOCAQEAAv7EVPebeSg0xh5+7tq+id+wBKFC4vf0UKmsPBMe4NVraXQPKBBq
LRcR4UqRy5LVecT7cihv2KwRKQOO8L3JGzwKBi6Ulhmi/nISK6/xBTw3grr5fRhB
XWv6HhfyM1zq8ekd09CfqSj52atF4F8VjxEBIZC/uwPWghosvSq5U1bMHxJFIFrP
JI1tFlTf0y2RdisBIePtxPh1wy8Hw5hciszqBhmmjCBTl8L2fy8Nyg6r1FOP6bSB
jm8RG5TWAQEi1fVhkr1Bo72km1ucnm0B3YmiwhWXLzsCGK4eLo9+6J35NTwjsxTY
7h1VQC0ufUq876lcC9dsr2bH17hVbMsY+A==
-----END CERTIFICATE-----
