Certificate:
    Data:
        Version: 3 (0x2)
        Serial Number:
            04:a7:c1:cf:f4:37:d1:82:89:8e:c1:f8:77:05:f6:b7
        Signature Algorithm: sha256WithRSAEncryption
        Issuer: C=XX, O=Some CA, CN=Fake Root CA for zlint testing
        Validity
            Not Before: Mar 26 09:54:09 2026 GMT
            Not After : Mar 25 09:54:09 2031 GMT
        Subject: C=XX, ST=Some State, L=Some Locality, O=Some CA, CN=Fake CA for zlint testing
        Subject Public Key Info:
            Public Key Algorithm: rsaEncryption
                Public-Key: (4096 bit)
                Modulus:
                    00:e2:9e:40:66:d8:6f:d3:75:cf:c9:de:16:ca:6d:
                    01:48:2a:d1:6c:44:08:3b:15:64:07:d8:f5:d4:54:
                    f7:38:71:bd:19:e7:57:58:bf:0c:c2:fa:47:9a:b4:
                    22:39:9b:ac:be:7c:00:4c:3a:84:ea:bb:6b:9f:ee:
                    2c:a9:51:0f:0e:7d:44:22:7b:6c:57:17:80:f7:ad:
                    39:f2:00:af:ea:80:bb:70:3b:b2:c8:53:c8:86:f3:
                    c9:63:5e:1d:10:1d:ac:7f:03:73:85:d8:11:e4:01:
                    48:fd:71:a2:68:85:51:b6:34:cd:4d:e8:5d:22:c2:
                    21:9d:b3:b3:f3:20:6e:e3:98:f3:45:b4:ae:7f:18:
                    ff:19:37:81:8a:01:a1:74:95:a2:29:1b:12:f6:bf:
                    35:c2:56:52:bc:4b:43:ab:e0:a2:3a:80:8e:6a:6d:
                    7b:72:62:6e:b2:7d:35:fc:76:bc:8b:bd:fa:cf:20:
                    10:24:09:67:9a:0b:08:e5:5e:42:26:e2:f3:eb:1e:
                    9f:bc:ea:6c:8f:64:8b:a5:b7:79:c9:38:fa:db:68:
                    d9:b5:e7:8e:2a:2d:7c:fe:09:94:1e:cc:fd:8a:08:
                    a5:14:f3:bc:51:07:a1:08:b2:9b:95:b6:fd:aa:e9:
                    d2:ea:38:4d:34:c7:d7:ba:fd:a1:1e:25:34:ed:f2:
                    74:2b:67:ef:cf:15:94:79:1e:a2:a0:91:7e:02:41:
                    ec:e8:24:59:c0:2d:1e:a0:1d:47:7b:d7:ce:aa:65:
                    00:e9:b7:71:a3:5e:e3:34:86:60:60:2c:cc:93:d4:
                    05:48:a9:14:d3:5a:92:41:59:17:29:a5:ed:b0:99:
                    e9:95:44:0d:ae:3e:13:2c:de:33:fc:00:b2:0c:aa:
                    96:6d:21:04:df:9a:80:86:22:78:fa:1f:dc:cf:9f:
                    2a:6a:cb:54:5e:9b:ad:15:f4:79:84:6e:e9:f1:be:
                    f4:ed:bc:4d:07:e0:52:bc:74:6b:61:0e:15:73:5f:
                    88:1f:9a:ff:c3:03:1e:9e:ca:08:da:98:7c:5d:23:
                    ab:05:fc:b5:fb:33:bc:9c:6c:a8:b3:92:6c:67:8f:
                    e4:d1:9d:3d:9f:57:14:46:a3:85:3a:e8:24:ad:02:
                    a3:a7:8d:b2:2f:e5:7d:fc:01:39:a7:cd:29:95:df:
                    ff:29:cf:42:e5:5d:05:b4:98:da:fa:2e:c7:9d:83:
                    72:c8:de:9e:9f:d1:c6:9b:9f:46:f5:d7:5e:dd:5b:
                    be:fd:8d:20:42:4b:3d:8a:1e:c9:a8:ba:51:37:b1:
                    68:aa:f3:df:f4:91:0a:0e:2c:5d:50:62:13:41:96:
                    4c:6f:7a:7b:97:d2:2f:a3:86:47:26:ad:63:73:a0:
                    d4:61:43
                Exponent: 65537 (0x10001)
        X509v3 extensions:
            X509v3 Key Usage: critical
                Certificate Sign, CRL Sign
            X509v3 Extended Key Usage: 
                TLS Web Client Authentication, TLS Web Server Authentication
            X509v3 Basic Constraints: critical
                CA:TRUE
            X509v3 Subject Key Identifier: 
                1C:34:A4:79:16:6B:FC:58:90:FD:8E:C0:7D:AF:9A:D6:5D:8B:8A:5C
            X509v3 Authority Key Identifier: 
                E8:B6:F6:76:4B:D0:3B:E5:46:A5:F9:54:D4:7E:07:B3:DE:0D:60:3E
            Authority Information Access: 
                OCSP - URI:http://ca.someca-inc.com/ocsp
                CA Issuers - URI:http://ca.someca-inc.com/root
            X509v3 Certificate Policies: 
                Policy: X509v3 Any Policy
            X509v3 CRL Distribution Points: 
                Full Name:
                  URI:http://ca.someca-inc.com/crl

    Signature Algorithm: sha256WithRSAEncryption
    Signature Value:
        1e:c6:17:b6:ac:63:32:4d:33:11:b4:4f:64:91:cc:81:5b:c9:
        cb:7f:a2:92:8c:c8:68:2a:39:02:53:a3:8e:00:e5:d0:60:a7:
        27:82:b4:a7:f4:d5:22:2d:ad:b4:55:8b:b9:60:c0:13:a3:62:
        1b:d7:68:f3:c1:26:45:18:27:a2:9f:db:8c:c4:06:43:1e:88:
        d7:84:8f:8a:57:cb:42:c9:27:fa:a4:e3:f7:15:7a:96:fb:3d:
        5a:1a:8f:c1:ee:fc:8f:74:60:b7:c4:a8:6f:07:d9:cd:03:17:
        fc:37:11:1b:5b:d0:51:3d:30:76:c2:03:d9:e2:13:67:40:02:
        de:eb:1f:26:b7:55:00:16:b6:0d:ac:34:1f:38:be:67:04:ca:
        1f:0f:1b:82:6a:74:d4:c3:4c:51:bf:fa:7f:df:de:5d:03:77:
        5e:ba:ed:1b:2d:98:ae:4d:b2:8a:c9:b0:71:92:1d:43:56:de:
        17:3c:36:71:28:31:0c:f9:6a:f9:48:ce:e3:57:ba:1c:88:24:
        65:ea:58:93:06:13:0d:6f:84:fb:bd:24:dd:a5:a5:5b:1e:de:
        40:51:6a:04:48:39:72:95:ee:90:d1:9b:bb:9c:7e:20:5f:a2:
        65:c6:52:4e:b3:a7:fd:ba:86:ed:29:4b:cc:c9:0b:01:a3:9f:
        b8:e5:ca:e1:71:cf:8b:a2:32:78:29:d9:8c:4e:61:32:7c:b6:
        ba:9a:b5:ab:1f:cf:ac:71:8b:1b:65:b8:d1:87:97:e0:7e:0a:
        ef:3c:4a:c5:ef:57:48:8d:64:11:4f:9f:60:71:c6:be:dd:fb:
        22:f4:65:51:b3:ee:32:bd:46:5e:e8:94:1b:d7:05:4a:3a:e5:
        8f:d2:d6:86:bd:fa:2b:92:87:a3:28:51:dd:e5:d5:d5:b0:16:
        41:f4:0b:c0:7f:90:2a:13:ef:3c:97:a5:87:be:90:69:b2:30:
        b5:36:d8:bb:2d:62:79:4f:20:8d:a2:2d:93:ec:d5:c6:ed:7c:
        2f:ba:20:f7:f7:04:3d:09:a1:cb:2f:ac:4f:7c:e2:c8:f5:74:
        77:5a:3f:bc:16:24:8c:5b:9e:2e:08:07:ca:d6:35:5e:31:43:
        fc:ff:22:1c:32:9d:ed:0e:30:5a:89:27:91:b0:64:b9:38:32:
        3a:10:3e:56:55:93:a7:b2:df:54:3c:04:86:01:5a:65:8b:9c:
        9a:45:3e:8c:c5:85:7b:95:36:68:81:a4:8e:79:5a:fe:56:fa:
        e6:90:ed:c1:99:7f:7e:0f:f6:d8:6e:7e:1b:3b:f6:e9:83:32:
        d8:f2:1e:62:53:a2:25:6e:b0:51:63:5b:0e:d0:8d:0a:1f:5c:
        0c:dd:c6:29:18:40:81:4e
-----BEGIN CERTIFICATE-----
MIIGcDCCBFigAwIBAgIQBKfBz/Q30YKJjsH4dwX2tzANBgkqhkiG9w0BAQsFADBI
MQswCQYDVQQGEwJYWDEQMA4GA1UEChMHU29tZSBDQTEnMCUGA1UEAxMeRmFrZSBS
b290IENBIGZvciB6bGludCB0ZXN0aW5nMB4XDTI2MDMyNjA5NTQwOVoXDTMxMDMy
NTA5NTQwOVowcDELMAkGA1UEBhMCWFgxEzARBgNVBAgTClNvbWUgU3RhdGUxFjAU
BgNVBAcTDVNvbWUgTG9jYWxpdHkxEDAOBgNVBAoTB1NvbWUgQ0ExIjAgBgNVBAMT
GUZha2UgQ0EgZm9yIHpsaW50IHRlc3RpbmcwggIiMA0GCSqGSIb3DQEBAQUAA4IC
DwAwggIKAoICAQDinkBm2G/Tdc/J3hbKbQFIKtFsRAg7FWQH2PXUVPc4cb0Z51dY
vwzC+keatCI5m6y+fABMOoTqu2uf7iypUQ8OfUQie2xXF4D3rTnyAK/qgLtwO7LI
U8iG88ljXh0QHax/A3OF2BHkAUj9caJohVG2NM1N6F0iwiGds7PzIG7jmPNFtK5/
GP8ZN4GKAaF0laIpGxL2vzXCVlK8S0Or4KI6gI5qbXtyYm6yfTX8dryLvfrPIBAk
CWeaCwjlXkIm4vPrHp+86myPZIult3nJOPrbaNm1544qLXz+CZQezP2KCKUU87xR
B6EIspuVtv2q6dLqOE00x9e6/aEeJTTt8nQrZ+/PFZR5HqKgkX4CQezoJFnALR6g
HUd7186qZQDpt3GjXuM0hmBgLMyT1AVIqRTTWpJBWRcppe2wmemVRA2uPhMs3jP8
ALIMqpZtIQTfmoCGInj6H9zPnypqy1Rem60V9HmEbunxvvTtvE0H4FK8dGthDhVz
X4gfmv/DAx6eygjamHxdI6sF/LX7M7ycbKizkmxnj+TRnT2fVxRGo4U66CStAqOn
jbIv5X38ATmnzSmV3/8pz0LlXQW0mNr6Lsedg3LI3p6f0cabn0b1117dW779jSBC
Sz2KHsmoulE3sWiq89/0kQoOLF1QYhNBlkxvenuX0i+jhkcmrWNzoNRhQwIDAQAB
o4IBLDCCASgwDgYDVR0PAQH/BAQDAgEGMB0GA1UdJQQWMBQGCCsGAQUFBwMCBggr
BgEFBQcDATAPBgNVHRMBAf8EBTADAQH/MB0GA1UdDgQWBBQcNKR5Fmv8WJD9jsB9
r5rWXYuKXDAfBgNVHSMEGDAWgBTotvZ2S9A75Ual+VTUfgez3g1gPjBkBggrBgEF
BQcBAQRYMFYwKQYIKwYBBQUHMAGGHWh0dHA6Ly9jYS5zb21lY2EtaW5jLmNvbS9v
Y3NwMCkGCCsGAQUFBzAChh1odHRwOi8vY2Euc29tZWNhLWluYy5jb20vcm9vdDAR
BgNVHSAECjAIMAYGBFUdIAAwLQYDVR0fBCYwJDAioCCgHoYcaHR0cDovL2NhLnNv
bWVjYS1pbmMuY29tL2NybDANBgkqhkiG9w0BAQsFAAOCAgEAHsYXtqxjMk0zEbRP
ZJHMgVvJy3+ikozIaCo5AlOjjgDl0GCnJ4K0p/TVIi2ttFWLuWDAE6NiG9do88Em
RRgnop/bjMQGQx6I14SPilfLQskn+qTj9xV6lvs9WhqPwe78j3Rgt8SobwfZzQMX
/DcRG1vQUT0wdsID2eITZ0AC3usfJrdVABa2Daw0Hzi+ZwTKHw8bgmp01MNMUb/6
f9/eXQN3XrrtGy2Yrk2yismwcZIdQ1beFzw2cSgxDPlq+UjO41e6HIgkZepYkwYT
DW+E+70k3aWlWx7eQFFqBEg5cpXukNGbu5x+IF+iZcZSTrOn/bqG7SlLzMkLAaOf
uOXK4XHPi6IyeCnZjE5hMny2upq1qx/PrHGLG2W40YeX4H4K7zxKxe9XSI1kEU+f
YHHGvt37IvRlUbPuMr1GXuiUG9cFSjrlj9LWhr36K5KHoyhR3eXV1bAWQfQLwH+Q
KhPvPJelh76QabIwtTbYuy1ieU8gjaItk+zVxu18L7og9/cEPQmhyy+sT3ziyPV0
d1o/vBYkjFueLggHytY1XjFD/P8iHDKd7Q4wWoknkbBkuTgyOhA+VlWTp7LfVDwE
hgFaZYucmkU+jMWFe5U2aIGkjnla/lb65pDtwZl/fg/22G5+Gzv26YMy2PIeYlOi
JW6wUWNbDtCNCh9cDN3GKRhAgU4=
-----END CERTIFICATE-----
