Certificate:
    Data:
        Version: 3 (0x2)
        Serial Number:
            2b:cc:79:75:e9:ed:1e:a3:07:fe:0b:7b:e8:75:e1:73
        Signature Algorithm: sha256WithRSAEncryption
        Issuer: C=XX, O=Some CA, CN=Fake CA for zlint testing
        Validity
            Not Before: Mar 23 00:00:00 2027 GMT
            Not After : Jun 30 00:00:00 2027 GMT
        Subject: C=SE, ST=Götaland, L=Göteborg, O=Some Company AB, CN=example.org
        Subject Public Key Info:
            Public Key Algorithm: rsaEncryption
                Public-Key: (2048 bit)
                Modulus:
                    00:c3:5e:61:cd:ed:f0:8d:3e:a4:b6:e9:4b:4f:54:
                    2f:e8:a1:a3:dd:4f:12:69:eb:ea:b2:e3:23:0a:ec:
                    86:e0:fa:8c:17:44:07:18:fc:31:e7:dc:4b:ca:0c:
                    84:78:62:96:8c:75:18:59:28:99:93:29:d6:b1:c1:
                    a1:f5:8c:18:70:7a:66:af:41:e3:fd:f8:c4:d4:ff:
                    ea:55:16:49:a2:5a:dd:38:c1:7d:41:da:0a:a0:eb:
                    88:12:e1:36:69:78:db:05:1a:f7:48:75:b2:20:23:
                    d9:a8:bf:9a:2f:31:25:9f:dc:93:88:11:62:22:c2:
                    cc:04:ea:6c:e4:fa:92:4f:a6:70:2c:d9:9d:3a:6f:
                    83:88:2e:31:1b:d2:b2:fc:0d:24:73:36:a1:1a:f1:
                    f7:98:32:3a:2a:27:09:4e:01:4a:b5:03:9d:f9:1b:
                    5e:d4:b9:25:da:ed:e7:c0:67:8a:35:0e:69:cd:00:
                    f9:d6:63:dd:24:5a:42:af:59:42:49:2c:20:13:81:
                    11:cd:ed:b0:50:c6:ac:ee:1f:79:28:76:8f:9f:97:
                    01:76:ba:d7:ca:a9:2c:1d:a8:5c:4e:c2:ba:ec:a2:
                    a0:ae:36:18:a7:c0:9b:a2:b8:ba:1d:89:09:d2:84:
                    54:8d:f8:fd:d4:b2:7f:3e:cc:9c:f8:39:02:3c:ca:
                    d2:99
                Exponent: 65537 (0x10001)
        X509v3 extensions:
            X509v3 Key Usage: critical
                Digital Signature, Key Encipherment
            X509v3 Extended Key Usage: 
                TLS Web Client Authentication, TLS Web Server Authentication
            X509v3 Authority Key Identifier: 
                E8:B6:F6:76:4B:D0:3B:E5:46:A5:F9:54:D4:7E:07:B3:DE:0D:60:3E
            Authority Information Access: 
                OCSP - URI:http://ca.someca-inc.com/ocsp
                CA Issuers - URI:http://ca.someca-inc.com/root cert
            X509v3 Subject Alternative Name: 
                DNS:example.org
            X509v3 Certificate Policies: 
                Policy: 2.23.140.1.2.2
            X509v3 CRL Distribution Points: 
                Full Name:
                  URI:http://ca.someca-inc.com/crl

    Signature Algorithm: sha256WithRSAEncryption
    Signature Value:
        a1:c2:ef:e4:7e:d5:68:a5:62:69:d0:03:d8:9e:69:05:73:11:
        75:ee:31:00:16:e9:93:53:51:70:94:01:f0:e0:27:cf:34:cc:
        ff:55:be:9f:f9:83:16:76:6f:bd:18:7a:3f:54:f3:72:f5:75:
        e4:2a:1a:8d:ae:11:cf:99:7a:3e:1c:05:04:35:3d:6d:0e:67:
        38:e1:dd:d0:64:22:29:0d:46:00:f3:6f:c3:7a:ad:f5:80:ba:
        6f:49:d5:1d:fe:47:6f:7b:7b:18:c1:86:ff:7f:cc:35:1b:53:
        2a:24:24:25:dd:7c:a4:98:b9:55:5f:bf:54:f9:f0:a6:67:3d:
        bc:36:b7:84:36:ad:aa:94:f6:6f:fe:8b:7d:4f:cc:05:27:4b:
        3a:66:af:e0:de:c6:8f:16:e7:fd:d3:38:1b:ae:8d:4c:eb:e0:
        f5:ac:ae:c3:5f:59:b3:ac:3d:a1:3e:41:c8:82:3b:42:78:1a:
        75:5f:89:61:41:08:d8:f3:27:88:d0:4e:e4:a7:52:72:01:28:
        63:bf:73:f9:00:6d:ff:cb:94:91:ea:54:2d:6a:7a:3d:d6:42:
        13:3e:36:60:c9:b2:fc:da:fc:15:a3:84:b0:87:59:5c:a7:64:
        31:cd:1b:13:a0:9a:ba:b9:28:e1:74:44:00:3e:a5:1d:58:f6:
        46:f9:6d:25
-----BEGIN CERTIFICATE-----
MIIETzCCAzegAwIBAgIQK8x5dentHqMH/gt76HXhczANBgkqhkiG9w0BAQsFADBD
MQswCQYDVQQGEwJYWDEQMA4GA1UEChMHU29tZSBDQTEiMCAGA1UEAxMZRmFrZSBD
QSBmb3IgemxpbnQgdGVzdGluZzAeFw0yNzAzMjMwMDAwMDBaFw0yNzA2MzAwMDAw
MDBaMGUxCzAJBgNVBAYTAlNFMRIwEAYDVQQIDAlHw7Z0YWxhbmQxEjAQBgNVBAcM
CUfDtnRlYm9yZzEYMBYGA1UEChMPU29tZSBDb21wYW55IEFCMRQwEgYDVQQDEwtl
eGFtcGxlLm9yZzCCASIwDQYJKoZIhvcNAQEBBQADggEPADCCAQoCggEBAMNeYc3t
8I0+pLbpS09UL+iho91PEmnr6rLjIwrshuD6jBdEBxj8MefcS8oMhHhilox1GFko
mZMp1rHBofWMGHB6Zq9B4/34xNT/6lUWSaJa3TjBfUHaCqDriBLhNml42wUa90h1
siAj2ai/mi8xJZ/ck4gRYiLCzATqbOT6kk+mcCzZnTpvg4guMRvSsvwNJHM2oRrx
95gyOionCU4BSrUDnfkbXtS5Jdrt58BnijUOac0A+dZj3SRaQq9ZQkksIBOBEc3t
sFDGrO4feSh2j5+XAXa618qpLB2oXE7CuuyioK42GKfAm6K4uh2JCdKEVI34/dSy
fz7MnPg5AjzK0pkCAwEAAaOCARswggEXMA4GA1UdDwEB/wQEAwIFoDAdBgNVHSUE
FjAUBggrBgEFBQcDAgYIKwYBBQUHAwEwHwYDVR0jBBgwFoAU6Lb2dkvQO+VGpflU
1H4Hs94NYD4waQYIKwYBBQUHAQEEXTBbMCkGCCsGAQUFBzABhh1odHRwOi8vY2Eu
c29tZWNhLWluYy5jb20vb2NzcDAuBggrBgEFBQcwAoYiaHR0cDovL2NhLnNvbWVj
YS1pbmMuY29tL3Jvb3QgY2VydDAWBgNVHREEDzANggtleGFtcGxlLm9yZzATBgNV
HSAEDDAKMAgGBmeBDAECAjAtBgNVHR8EJjAkMCKgIKAehhxodHRwOi8vY2Euc29t
ZWNhLWluYy5jb20vY3JsMA0GCSqGSIb3DQEBCwUAA4IBAQChwu/kftVopWJp0APY
nmkFcxF17jEAFumTU1FwlAHw4CfPNMz/Vb6f+YMWdm+9GHo/VPNy9XXkKhqNrhHP
mXo+HAUENT1tDmc44d3QZCIpDUYA82/Deq31gLpvSdUd/kdve3sYwYb/f8w1G1Mq
JCQl3XykmLlVX79U+fCmZz28NreENq2qlPZv/ot9T8wFJ0s6Zq/g3saPFuf90zgb
ro1M6+D1rK7DX1mzrD2hPkHIgjtCeBp1X4lhQQjY8yeI0E7kp1JyAShjv3P5AG3/
y5SR6lQtano91kITPjZgybL82vwVo4Swh1lcp2QxzRsToJq6uSjhdEQAPqUdWPZG
+W0l
-----END CERTIFICATE-----
