Certificate:
    Data:
        Version: 3 (0x2)
        Serial Number:
            a7:71:f1:8d:6b:8c:d3:be:66:c6:7c:45:94:9b:30:32
        Signature Algorithm: sha256WithRSAEncryption
        Issuer: C=XX, O=Some CA, CN=Fake CA for zlint testing
        Validity
            Not Before: Mar 26 10:00:48 2026 GMT
            Not After : Jul  4 09:00:48 2026 GMT
        Subject: C=SE, ST=Götaland, L=Göteborg, O=Some Company AB
        Subject Public Key Info:
            Public Key Algorithm: rsaEncryption
                Public-Key: (2048 bit)
                Modulus:
                    00:f4:b9:ab:87:c0:1a:6b:19:87:dd:f7:42:be:31:
                    2a:3a:c2:6f:cf:c8:72:00:77:b3:3e:9d:d8:d1:e1:
                    ee:fc:3a:f7:58:76:90:df:01:9b:87:2a:26:08:9a:
                    91:04:84:c8:43:7f:dd:c8:84:ae:07:1b:e1:e6:2e:
                    cf:f7:cf:1b:93:0e:0e:91:39:0f:03:d9:a5:33:94:
                    01:a4:b7:40:0e:29:81:7e:91:ef:cf:2f:ec:28:49:
                    ed:ec:81:af:ea:94:5a:ca:4d:da:8b:00:ab:ce:f0:
                    c5:da:e1:68:21:81:07:ab:23:2e:f6:50:4e:ea:72:
                    58:b6:c9:f6:d5:fd:86:c5:be:fe:4f:4c:74:71:e8:
                    83:ad:33:56:3a:8f:f1:80:fe:26:38:ca:04:62:db:
                    36:ca:fc:b1:fb:2f:2a:c9:40:dd:d9:43:a3:f5:69:
                    2f:43:d7:18:c7:2c:fa:a7:7f:e7:d0:5d:cf:1f:69:
                    77:97:5a:6f:5f:c2:ab:1c:1f:d0:63:74:bf:61:90:
                    b4:ee:e3:d4:a1:3c:14:1d:1d:99:58:97:07:ac:0f:
                    c8:3f:a3:b5:5f:87:26:b8:08:15:e5:3f:56:5f:b1:
                    d1:be:74:9c:28:1e:c7:1d:ca:4f:c7:9b:b1:ef:3d:
                    28:4d:60:65:99:e9:ee:56:58:bd:67:c2:e7:d3:45:
                    e1:c5
                Exponent: 65537 (0x10001)
        X509v3 extensions:
            X509v3 Key Usage: critical
                Digital Signature, Key Encipherment
            X509v3 Extended Key Usage: 
                TLS Web Client Authentication, TLS Web Server Authentication
            X509v3 Authority Key Identifier: 
                E8:B6:F6:76:4B:D0:3B:E5:46:A5:F9:54:D4:7E:07:B3:DE:0D:60:3E
            Authority Information Access: 
                OCSP - URI:http://ca.someca-inc.com/ocsp
                CA Issuers - URI:http://ca.someca-inc.com/root cert
            X509v3 Subject Alternative Name: 
                DNS:example.org
            X509v3 Certificate Policies: 
                Policy: 2.23.140.1.2.2
            X509v3 CRL Distribution Points: 
                Full Name:
                  URI:http://ca.someca-inc.com/crl

    Signature Algorithm: sha256WithRSAEncryption
    Signature Value:
        b2:5d:eb:94:41:bd:e2:0b:ea:b2:64:5a:c8:ee:83:32:14:c7:
        5a:a3:85:79:e1:42:ff:8b:f8:3e:85:a0:33:9c:75:2a:70:18:
        72:4c:ac:77:34:ec:32:2b:44:32:7f:76:59:b3:40:05:5d:2a:
        e9:76:bf:96:68:8a:35:6b:bf:af:77:84:e7:5d:4b:00:b4:08:
        ed:40:f8:6e:40:d5:7a:03:ba:ae:cc:b5:d4:e0:d0:cb:79:79:
        24:5a:88:e8:03:cf:b8:73:99:e5:12:c3:91:65:de:c4:9f:85:
        0e:59:e4:65:44:8c:65:b4:d7:bd:3c:5f:84:07:57:ec:81:c2:
        80:2a:9d:d6:3a:21:9e:6f:b0:af:57:ad:b7:56:46:5c:94:20:
        f6:6e:2a:be:e4:4e:d8:01:8b:4c:28:3f:e3:88:3f:8d:94:8a:
        34:4e:e6:85:ab:d1:31:c9:29:73:cc:50:8d:83:98:52:b7:00:
        2b:5f:b1:b8:3a:e4:39:b3:53:4c:c5:d6:5f:cd:93:82:f8:ab:
        0c:a0:cf:d3:66:7f:5f:11:e6:6b:cb:05:f5:fe:f9:d1:32:8e:
        c3:33:c7:bc:0e:74:d0:8b:52:80:bc:ca:32:fb:52:55:cc:15:
        ea:6b:9d:0d:b6:4e:21:6f:8a:4c:53:26:cd:de:9e:a6:99:61:
        43:84:a4:9b
-----BEGIN CERTIFICATE-----
MIIEOjCCAyKgAwIBAgIRAKdx8Y1rjNO+ZsZ8RZSbMDIwDQYJKoZIhvcNAQELBQAw
QzELMAkGA1UEBhMCWFgxEDAOBgNVBAoTB1NvbWUgQ0ExIjAgBgNVBAMTGUZha2Ug
Q0EgZm9yIHpsaW50IHRlc3RpbmcwHhcNMjYwMzI2MTAwMDQ4WhcNMjYwNzA0MDkw
MDQ4WjBPMQswCQYDVQQGEwJTRTESMBAGA1UECAwJR8O2dGFsYW5kMRIwEAYDVQQH
DAlHw7Z0ZWJvcmcxGDAWBgNVBAoTD1NvbWUgQ29tcGFueSBBQjCCASIwDQYJKoZI
hvcNAQEBBQADggEPADCCAQoCggEBAPS5q4fAGmsZh933Qr4xKjrCb8/IcgB3sz6d
2NHh7vw691h2kN8Bm4cqJgiakQSEyEN/3ciErgcb4eYuz/fPG5MODpE5DwPZpTOU
AaS3QA4pgX6R788v7ChJ7eyBr+qUWspN2osAq87wxdrhaCGBB6sjLvZQTupyWLbJ
9tX9hsW+/k9MdHHog60zVjqP8YD+JjjKBGLbNsr8sfsvKslA3dlDo/VpL0PXGMcs
+qd/59Bdzx9pd5dab1/Cqxwf0GN0v2GQtO7j1KE8FB0dmViXB6wPyD+jtV+HJrgI
FeU/Vl+x0b50nCgexx3KT8ebse89KE1gZZnp7lZYvWfC59NF4cUCAwEAAaOCARsw
ggEXMA4GA1UdDwEB/wQEAwIFoDAdBgNVHSUEFjAUBggrBgEFBQcDAgYIKwYBBQUH
AwEwHwYDVR0jBBgwFoAU6Lb2dkvQO+VGpflU1H4Hs94NYD4waQYIKwYBBQUHAQEE
XTBbMCkGCCsGAQUFBzABhh1odHRwOi8vY2Euc29tZWNhLWluYy5jb20vb2NzcDAu
BggrBgEFBQcwAoYiaHR0cDovL2NhLnNvbWVjYS1pbmMuY29tL3Jvb3QgY2VydDAW
BgNVHREEDzANggtleGFtcGxlLm9yZzATBgNVHSAEDDAKMAgGBmeBDAECAjAtBgNV
HR8EJjAkMCKgIKAehhxodHRwOi8vY2Euc29tZWNhLWluYy5jb20vY3JsMA0GCSqG
SIb3DQEBCwUAA4IBAQCyXeuUQb3iC+qyZFrI7oMyFMdao4V54UL/i/g+haAznHUq
cBhyTKx3NOwyK0Qyf3ZZs0AFXSrpdr+WaIo1a7+vd4TnXUsAtAjtQPhuQNV6A7qu
zLXU4NDLeXkkWojoA8+4c5nlEsORZd7En4UOWeRlRIxltNe9PF+EB1fsgcKAKp3W
OiGeb7CvV623VkZclCD2biq+5E7YAYtMKD/jiD+NlIo0TuaFq9ExySlzzFCNg5hS
twArX7G4OuQ5s1NMxdZfzZOC+KsMoM/TZn9fEeZrywX1/vnRMo7DM8e8DnTQi1KA
vMoy+1JVzBXqa50Ntk4hb4pMUybN3p6mmWFDhKSb
-----END CERTIFICATE-----
