Certificate:
    Data:
        Version: 3 (0x2)
        Serial Number: 2 (0x2)
        Signature Algorithm: sha256WithRSAEncryption
        Issuer: CN = Lint Root CA, OU = Test, O = MTG, C = DE
        Validity
            Not Before: May 27 06:16:04 2022 GMT
            Not After : May 27 05:16:04 2032 GMT
        Subject: CN = Lint Sub CA, OU = Test, O = MTG, C = DE
        Subject Public Key Info:
            Public Key Algorithm: rsaEncryption
                RSA Public-Key: (2048 bit)
                Modulus:
                    00:a3:db:df:b4:7e:07:79:f3:59:bc:c7:72:26:38:
                    b5:04:d6:94:59:81:3d:9a:a4:ab:f9:13:ae:f5:0c:
                    54:18:ba:50:64:4b:6b:67:f1:f3:55:e7:d0:b9:d4:
                    31:53:ea:ad:a5:a6:15:0c:fa:f5:5f:0b:db:bf:1d:
                    16:0a:31:ba:36:79:89:2a:e1:39:17:34:bc:91:1d:
                    ef:68:41:bf:27:28:5f:21:ed:46:59:f0:07:16:f2:
                    2f:be:31:88:4e:92:f4:3a:af:2b:12:33:58:25:4d:
                    ef:12:a0:86:d0:b8:87:e9:b7:7f:72:6f:ec:4c:76:
                    af:f2:61:cb:ce:23:2c:af:97:c7:f1:60:3c:ae:90:
                    ae:af:ca:7c:80:0d:32:14:23:c9:86:71:f2:0e:53:
                    c9:1b:51:82:d8:31:f9:c4:eb:08:32:65:5d:df:71:
                    3c:ce:6e:8b:d2:55:90:99:36:76:20:fd:73:27:4c:
                    21:f7:0d:b8:54:eb:1a:70:65:9f:b7:5b:6c:ea:e6:
                    ab:e3:a9:7f:c2:37:c9:76:2e:72:f0:20:6b:d5:73:
                    56:a4:80:fd:2f:3c:68:b6:e3:35:70:47:8b:0a:53:
                    36:70:83:6a:d3:ff:3b:7c:d9:81:d9:a6:f7:15:ea:
                    06:0c:12:e2:06:a2:f2:14:a8:2e:c4:74:b2:2a:94:
                    98:f5
                Exponent: 65537 (0x10001)
        X509v3 extensions:
            X509v3 Authority Key Identifier: 
                keyid:B8:D8:25:D2:9E:70:5A:2A:3A:C9:33:1A:8E:7A:FB:4A:76:F7:F1:EE

            X509v3 Subject Key Identifier: 
                19:D3:FA:B4:F4:96:6C:6A:5E:AC:72:43:43:82:E6:8B:84:BF:D3:18
            X509v3 Key Usage: critical
                Key Agreement, Certificate Sign
            X509v3 Basic Constraints: critical
                CA:TRUE
    Signature Algorithm: sha256WithRSAEncryption
         5f:e3:5f:b4:5b:88:ed:fa:c2:e7:b2:00:a0:b2:bc:34:15:f0:
         6f:90:98:96:29:2b:41:3f:44:53:40:c5:cd:c9:24:5d:be:aa:
         af:36:e7:72:e2:af:2b:cb:1e:59:2b:3c:6c:67:68:8b:cc:90:
         20:0a:96:8c:5d:f8:3b:01:2f:79:5b:cb:a8:d5:ec:1e:45:22:
         10:02:ea:bc:37:f0:20:c6:39:97:65:3e:0a:c3:53:89:59:4b:
         49:52:b4:45:a6:cc:52:e1:b1:bf:ad:ba:3b:d1:8f:47:38:dc:
         5f:af:ac:fa:a9:18:87:fa:27:99:21:a1:c9:c7:57:0d:44:58:
         eb:f5:d1:5c:a5:bf:00:a8:38:ae:ce:36:e1:c2:11:5d:77:cd:
         ce:4d:ff:d8:bd:06:d3:f9:ad:d1:2e:92:40:5e:d2:cc:a1:41:
         0c:63:3a:a5:fa:6b:b7:50:0b:cb:63:2e:70:71:be:62:96:30:
         92:92:02:8a:29:07:8d:fe:2e:51:1f:ae:91:68:8e:f6:1c:89:
         9c:d2:e6:bd:4c:b4:38:fb:a9:53:bd:44:55:14:a9:2c:40:f1:
         e4:8d:bd:76:a8:6a:60:07:09:0a:6f:21:92:c6:2d:ff:d8:3c:
         43:61:2a:e6:2d:6e:d5:e2:5d:84:f5:74:24:ae:f7:39:c3:6c:
         f7:0e:37:97
-----BEGIN CERTIFICATE-----
MIIDXzCCAkegAwIBAgIBAjANBgkqhkiG9w0BAQsFADBBMRUwEwYDVQQDDAxMaW50
IFJvb3QgQ0ExDTALBgNVBAsMBFRlc3QxDDAKBgNVBAoMA01URzELMAkGA1UEBhMC
REUwHhcNMjIwNTI3MDYxNjA0WhcNMzIwNTI3MDUxNjA0WjBAMRQwEgYDVQQDDAtM
aW50IFN1YiBDQTENMAsGA1UECwwEVGVzdDEMMAoGA1UECgwDTVRHMQswCQYDVQQG
EwJERTCCASIwDQYJKoZIhvcNAQEBBQADggEPADCCAQoCggEBAKPb37R+B3nzWbzH
ciY4tQTWlFmBPZqkq/kTrvUMVBi6UGRLa2fx81Xn0LnUMVPqraWmFQz69V8L278d
FgoxujZ5iSrhORc0vJEd72hBvycoXyHtRlnwBxbyL74xiE6S9DqvKxIzWCVN7xKg
htC4h+m3f3Jv7Ex2r/Jhy84jLK+Xx/FgPK6Qrq/KfIANMhQjyYZx8g5TyRtRgtgx
+cTrCDJlXd9xPM5ui9JVkJk2diD9cydMIfcNuFTrGnBln7dbbOrmq+Opf8I3yXYu
cvAga9VzVqSA/S88aLbjNXBHiwpTNnCDatP/O3zZgdmm9xXqBgwS4gai8hSoLsR0
siqUmPUCAwEAAaNjMGEwHwYDVR0jBBgwFoAUuNgl0p5wWio6yTMajnr7Snb38e4w
HQYDVR0OBBYEFBnT+rT0lmxqXqxyQ0OC5ouEv9MYMA4GA1UdDwEB/wQEAwICDDAP
BgNVHRMBAf8EBTADAQH/MA0GCSqGSIb3DQEBCwUAA4IBAQBf41+0W4jt+sLnsgCg
srw0FfBvkJiWKStBP0RTQMXNySRdvqqvNudy4q8ryx5ZKzxsZ2iLzJAgCpaMXfg7
AS95W8uo1eweRSIQAuq8N/AgxjmXZT4Kw1OJWUtJUrRFpsxS4bG/rbo70Y9HONxf
r6z6qRiH+ieZIaHJx1cNRFjr9dFcpb8AqDiuzjbhwhFdd83OTf/YvQbT+a3RLpJA
XtLMoUEMYzql+mu3UAvLYy5wcb5iljCSkgKKKQeN/i5RH66RaI72HImc0ua9TLQ4
+6lTvURVFKksQPHkjb12qGpgBwkKbyGSxi3/2DxDYSrmLW7V4l2E9XQkrvc5w2z3
DjeX
-----END CERTIFICATE-----
