Certificate:
    Data:
        Version: 3 (0x2)
        Serial Number: 2 (0x2)
        Signature Algorithm: sha256WithRSAEncryption
        Issuer: CN = Lint Root CA, OU = Test, O = MTG, C = DE
        Validity
            Not Before: May 27 05:12:08 1997 GMT
            Not After : May 27 05:12:08 2032 GMT
        Subject: CN = Lint Sub CA, OU = Test, O = MTG, C = DE
        Subject Public Key Info:
            Public Key Algorithm: rsaEncryption
                RSA Public-Key: (2048 bit)
                Modulus:
                    00:a4:00:35:62:35:ba:a4:64:4a:25:95:40:13:77:
                    38:3f:3d:a8:34:89:f9:6e:75:01:e9:57:a0:50:07:
                    42:9c:72:91:4b:cf:2a:62:ed:25:60:72:33:3f:e3:
                    70:25:a9:ed:6b:2d:a7:24:5c:14:76:f1:27:8f:05:
                    1f:e8:bb:f7:36:ec:20:d8:3c:8b:d3:77:dc:bc:12:
                    65:95:72:ec:16:8d:e2:0f:6f:f7:84:fe:e3:75:ee:
                    37:0f:3c:95:c2:c4:ad:55:6d:71:c3:f5:60:e4:49:
                    e3:29:29:34:5a:da:95:e2:c1:b9:f1:63:af:6f:18:
                    1b:f0:83:0d:6e:5d:9b:b9:a0:1f:f0:7d:62:1e:04:
                    49:d2:02:07:fd:b1:e3:4d:f4:fc:39:e2:6d:ad:d3:
                    3c:44:9d:7f:cf:db:a8:68:bc:17:58:bd:92:24:9b:
                    2f:5c:e2:18:7a:68:93:3c:d7:15:a1:54:7b:d0:3f:
                    00:73:fa:31:31:73:79:44:06:81:dd:5b:ba:95:0d:
                    e0:f0:46:e2:56:e0:be:2f:b4:db:65:4c:3e:7c:78:
                    14:d6:9a:62:a1:d7:19:bd:37:94:99:fe:b7:3f:39:
                    1d:a1:c5:48:89:7b:70:87:e2:be:56:86:1a:d4:5b:
                    8d:67:c8:44:d9:9e:1d:7f:2b:62:1a:e3:44:ab:ef:
                    0e:db
                Exponent: 65537 (0x10001)
        X509v3 extensions:
            X509v3 Authority Key Identifier: 
                keyid:D7:25:6E:EB:3A:C1:5D:13:45:14:DB:5B:EC:23:5D:2A:EE:17:09:E5

            X509v3 Subject Key Identifier: 
                BB:85:93:CC:79:5F:62:03:74:6C:63:4D:6D:6F:5B:A2:BA:F4:02:AA
            X509v3 Key Usage: critical
                Certificate Sign
            X509v3 Basic Constraints: critical
                CA:TRUE
    Signature Algorithm: sha256WithRSAEncryption
         44:74:94:7e:65:07:08:53:b8:77:ab:a0:1b:03:91:04:44:ec:
         aa:af:c4:59:89:e1:cc:3c:6c:24:fb:f2:1a:34:c4:5c:23:c5:
         f7:2c:71:d3:33:2e:2d:e9:b0:b5:2c:93:9e:09:6d:4d:62:4b:
         69:06:46:df:83:bb:b3:93:92:fd:bf:75:ec:62:ae:48:27:ee:
         62:b9:14:69:b2:4b:a6:dc:5b:a7:da:97:77:fc:74:b9:32:76:
         62:de:68:74:16:ef:6c:6a:b5:45:16:cf:02:59:de:79:9f:84:
         a6:06:d0:37:7e:5d:46:85:e2:73:db:22:ed:88:fd:8f:68:a1:
         8e:04:8b:a6:99:1d:5d:fc:1d:ff:a7:05:78:41:e2:a2:2b:19:
         5d:e2:bc:1a:d6:ca:74:d6:02:d1:c2:2e:c4:88:07:05:bc:81:
         b3:b9:c2:ec:ad:cf:5b:38:c7:50:43:05:7a:1f:7e:46:dc:1a:
         9b:fb:34:23:12:4f:80:f1:e6:39:3c:52:a3:d8:32:4d:ca:bc:
         9c:fc:e6:d0:6b:32:f2:ae:e5:af:f5:d6:2e:16:7c:3a:74:4c:
         2f:f0:85:11:16:15:9e:39:16:d5:9d:1f:f1:77:49:ee:dc:95:
         63:e5:fd:d5:73:9f:65:91:a6:91:58:fd:97:06:98:b7:8e:ef:
         c4:93:f6:4b
-----BEGIN CERTIFICATE-----
MIIDXzCCAkegAwIBAgIBAjANBgkqhkiG9w0BAQsFADBBMRUwEwYDVQQDDAxMaW50
IFJvb3QgQ0ExDTALBgNVBAsMBFRlc3QxDDAKBgNVBAoMA01URzELMAkGA1UEBhMC
REUwHhcNOTcwNTI3MDUxMjA4WhcNMzIwNTI3MDUxMjA4WjBAMRQwEgYDVQQDDAtM
aW50IFN1YiBDQTENMAsGA1UECwwEVGVzdDEMMAoGA1UECgwDTVRHMQswCQYDVQQG
EwJERTCCASIwDQYJKoZIhvcNAQEBBQADggEPADCCAQoCggEBAKQANWI1uqRkSiWV
QBN3OD89qDSJ+W51AelXoFAHQpxykUvPKmLtJWByMz/jcCWp7WstpyRcFHbxJ48F
H+i79zbsINg8i9N33LwSZZVy7BaN4g9v94T+43XuNw88lcLErVVtccP1YORJ4ykp
NFraleLBufFjr28YG/CDDW5dm7mgH/B9Yh4ESdICB/2x4030/Dniba3TPESdf8/b
qGi8F1i9kiSbL1ziGHpokzzXFaFUe9A/AHP6MTFzeUQGgd1bupUN4PBG4lbgvi+0
22VMPnx4FNaaYqHXGb03lJn+tz85HaHFSIl7cIfivlaGGtRbjWfIRNmeHX8rYhrj
RKvvDtsCAwEAAaNjMGEwHwYDVR0jBBgwFoAU1yVu6zrBXRNFFNtb7CNdKu4XCeUw
HQYDVR0OBBYEFLuFk8x5X2IDdGxjTW1vW6K69AKqMA4GA1UdDwEB/wQEAwICBDAP
BgNVHRMBAf8EBTADAQH/MA0GCSqGSIb3DQEBCwUAA4IBAQBEdJR+ZQcIU7h3q6Ab
A5EEROyqr8RZieHMPGwk+/IaNMRcI8X3LHHTMy4t6bC1LJOeCW1NYktpBkbfg7uz
k5L9v3XsYq5IJ+5iuRRpskum3Fun2pd3/HS5MnZi3mh0Fu9sarVFFs8CWd55n4Sm
BtA3fl1GheJz2yLtiP2PaKGOBIummR1d/B3/pwV4QeKiKxld4rwa1sp01gLRwi7E
iAcFvIGzucLsrc9bOMdQQwV6H35G3Bqb+zQjEk+A8eY5PFKj2DJNyryc/ObQazLy
ruWv9dYuFnw6dEwv8IURFhWeORbVnR/xd0nu3JVj5f3Vc59lkaaRWP2XBpi3ju/E
k/ZL
-----END CERTIFICATE-----
