Certificate:
    Data:
        Version: 3 (0x2)
        Serial Number: 2 (0x2)
        Signature Algorithm: sha256WithRSAEncryption
        Issuer: CN = Lint Root CA, OU = Test, O = MTG, C = DE
        Validity
            Not Before: May 27 06:20:05 2022 GMT
            Not After : May 27 05:20:05 2032 GMT
        Subject: CN = Lint Sub CA, OU = Test, O = MTG, C = DE
        Subject Public Key Info:
            Public Key Algorithm: rsaEncryption
                RSA Public-Key: (2048 bit)
                Modulus:
                    00:d1:18:17:d2:88:a5:06:69:0a:57:68:d7:5f:c6:
                    5b:bb:d4:5a:8a:ce:d8:a7:3b:73:39:11:3d:56:67:
                    cb:fe:aa:25:23:b1:9b:6e:f6:4b:88:c3:e8:11:37:
                    0c:bb:af:60:71:61:4a:a4:79:44:09:7f:73:c3:8f:
                    51:3d:9b:ff:f4:17:c5:4a:e9:06:f8:63:6f:13:0a:
                    8d:b8:5c:24:66:e1:6a:c2:81:41:fe:23:24:a4:eb:
                    1f:92:94:17:9e:29:3d:69:85:a9:9f:24:c6:20:57:
                    1b:d4:87:24:40:e3:2e:bc:a9:72:1c:ef:8b:8f:a2:
                    4c:fa:a3:fa:a4:0b:0b:21:b5:6b:e4:d3:3b:52:a7:
                    b1:0b:f3:7f:ee:bc:82:a1:8a:ab:b4:fd:35:d6:a2:
                    e3:f9:b6:01:1a:74:29:80:ee:28:c8:8c:3b:56:d4:
                    19:cb:d5:91:23:18:44:b1:a0:f9:0f:6b:51:67:6c:
                    50:34:fb:80:9d:f0:a8:9f:73:f9:0b:36:28:60:83:
                    4a:39:2a:d0:56:b4:c8:5b:90:3f:de:f6:0a:9b:66:
                    b2:8d:8c:6a:05:0d:00:9a:dd:55:05:00:9b:ea:26:
                    e9:3c:7d:72:e2:d2:ca:41:b5:15:03:b0:d1:d3:34:
                    f8:a6:50:ba:8d:17:92:73:fd:6b:8c:e4:f6:c1:12:
                    f3:1d
                Exponent: 65537 (0x10001)
        X509v3 extensions:
            X509v3 Authority Key Identifier: 
                keyid:19:4D:76:C9:C6:A3:62:CE:E7:50:D5:18:C5:05:A6:6C:00:C5:72:14

            X509v3 Subject Key Identifier: 
                5B:70:9A:12:F3:4F:10:BE:06:1C:46:C5:16:66:2B:7F:50:07:27:E6
            X509v3 Key Usage: critical
                Key Encipherment, Certificate Sign
            X509v3 Basic Constraints: critical
                CA:TRUE
    Signature Algorithm: sha256WithRSAEncryption
         68:9e:fa:e6:33:db:ff:a5:09:36:bc:39:65:68:1c:12:90:7d:
         35:e1:d1:da:e6:72:01:a0:4d:6a:71:93:9f:07:7d:04:65:59:
         51:11:f8:3f:b7:d6:52:6c:84:93:f6:fc:4b:c4:14:e5:c1:f2:
         65:f3:d4:7f:ae:4c:2c:af:90:71:40:07:6f:9e:66:37:1c:e4:
         5a:fa:14:63:5a:b5:1c:77:aa:21:fe:ba:1e:69:59:6f:2f:0c:
         8a:1a:b5:d3:77:55:35:d4:cc:e5:3e:5a:82:49:f2:45:91:34:
         c3:8b:b7:88:3d:09:16:e1:74:ff:c7:2a:b8:39:78:8d:00:45:
         5b:de:6a:22:e4:d5:bb:ed:54:42:66:e7:ec:55:e8:1c:ef:96:
         b6:13:cb:a7:53:79:34:29:5a:cc:46:f8:68:f3:9a:cc:f8:20:
         8c:f9:d9:86:d4:26:a7:36:41:fb:5d:fd:bd:76:84:47:f5:20:
         c4:f1:51:68:98:30:1c:ed:88:4f:57:7a:41:50:0f:3c:5b:86:
         60:61:3d:78:e8:99:10:78:7a:dd:f9:5c:23:8b:28:84:28:b0:
         84:15:37:f9:20:a4:9b:d5:fe:b9:e2:c6:b2:4b:5c:a9:a0:3a:
         80:37:1a:49:50:03:a2:0e:90:e8:5c:1d:64:a3:d3:23:ad:17:
         a7:1a:40:38
-----BEGIN CERTIFICATE-----
MIIDXzCCAkegAwIBAgIBAjANBgkqhkiG9w0BAQsFADBBMRUwEwYDVQQDDAxMaW50
IFJvb3QgQ0ExDTALBgNVBAsMBFRlc3QxDDAKBgNVBAoMA01URzELMAkGA1UEBhMC
REUwHhcNMjIwNTI3MDYyMDA1WhcNMzIwNTI3MDUyMDA1WjBAMRQwEgYDVQQDDAtM
aW50IFN1YiBDQTENMAsGA1UECwwEVGVzdDEMMAoGA1UECgwDTVRHMQswCQYDVQQG
EwJERTCCASIwDQYJKoZIhvcNAQEBBQADggEPADCCAQoCggEBANEYF9KIpQZpCldo
11/GW7vUWorO2Kc7czkRPVZny/6qJSOxm272S4jD6BE3DLuvYHFhSqR5RAl/c8OP
UT2b//QXxUrpBvhjbxMKjbhcJGbhasKBQf4jJKTrH5KUF54pPWmFqZ8kxiBXG9SH
JEDjLrypchzvi4+iTPqj+qQLCyG1a+TTO1KnsQvzf+68gqGKq7T9Ndai4/m2ARp0
KYDuKMiMO1bUGcvVkSMYRLGg+Q9rUWdsUDT7gJ3wqJ9z+Qs2KGCDSjkq0Fa0yFuQ
P972Cptmso2MagUNAJrdVQUAm+om6Tx9cuLSykG1FQOw0dM0+KZQuo0XknP9a4zk
9sES8x0CAwEAAaNjMGEwHwYDVR0jBBgwFoAUGU12ycajYs7nUNUYxQWmbADFchQw
HQYDVR0OBBYEFFtwmhLzTxC+BhxGxRZmK39QByfmMA4GA1UdDwEB/wQEAwICJDAP
BgNVHRMBAf8EBTADAQH/MA0GCSqGSIb3DQEBCwUAA4IBAQBonvrmM9v/pQk2vDll
aBwSkH014dHa5nIBoE1qcZOfB30EZVlREfg/t9ZSbIST9vxLxBTlwfJl89R/rkws
r5BxQAdvnmY3HORa+hRjWrUcd6oh/roeaVlvLwyKGrXTd1U11MzlPlqCSfJFkTTD
i7eIPQkW4XT/xyq4OXiNAEVb3moi5NW77VRCZufsVegc75a2E8unU3k0KVrMRvho
85rM+CCM+dmG1CanNkH7Xf29doRH9SDE8VFomDAc7YhPV3pBUA88W4ZgYT146JkQ
eHrd+VwjiyiEKLCEFTf5IKSb1f654sayS1ypoDqANxpJUAOiDpDoXB1ko9MjrRen
GkA4
-----END CERTIFICATE-----
