Certificate:
    Data:
        Version: 3 (0x2)
        Serial Number:
            81:66:2c:d3:24:f1:38:10:4c:08:e3:70:d5:ff:fb:e3
        Signature Algorithm: sha256WithRSAEncryption
        Issuer: C = XX, O = Some CA, CN = Fake CA for zlint testing
        Validity
            Not Before: Jul 11 13:33:25 2024 GMT
            Not After : Jul 11 13:33:25 2025 GMT
        Subject: C = IT, ST = Some State or Province, L = Somewhere, O = Some Company Ltd., CN = example.org, serialNumber = 1234567890
        Subject Public Key Info:
            Public Key Algorithm: rsaEncryption
                RSA Public-Key: (2048 bit)
                Modulus:
                    00:ac:53:25:59:60:58:6e:d6:11:52:73:65:81:28:
                    2e:bf:ae:ae:7f:f9:73:9c:21:f1:21:2e:be:23:c0:
                    62:66:b1:4a:51:e8:19:0a:ac:05:93:64:e0:be:f1:
                    b1:84:f7:ac:09:85:27:8c:df:78:1f:7a:01:6f:20:
                    7d:10:36:ce:c8:86:c0:c9:f4:42:89:21:6d:f6:df:
                    dc:e5:b5:e8:03:6a:a6:ed:9e:75:8b:bc:9d:1d:28:
                    3c:9b:10:d9:65:3a:3f:98:0f:3d:71:fd:7d:98:e9:
                    9f:ce:69:64:a6:1a:43:0a:8f:af:0a:18:6a:92:9d:
                    0b:dd:d3:79:59:c2:e5:a0:de:dc:cc:69:8e:9e:73:
                    53:39:c6:d3:46:43:36:1f:aa:c1:91:31:b5:09:24:
                    cb:a5:25:ee:5a:da:b7:bb:c3:0c:e6:7e:bd:cf:d6:
                    19:bc:70:af:d6:af:d8:43:0e:57:08:f6:25:88:87:
                    be:fe:a8:db:4b:4c:09:2c:cd:12:d9:0d:e5:3a:5c:
                    31:7b:ca:a3:80:c3:af:01:26:80:9f:88:68:5f:24:
                    13:b5:f5:7a:5c:cd:9e:42:cd:f0:f6:ce:94:52:b6:
                    ee:42:fd:3c:58:5e:8b:36:c6:70:d6:4e:e8:70:56:
                    6d:15:6a:04:dc:92:ca:71:87:28:65:a6:3e:de:62:
                    b9:11
                Exponent: 65537 (0x10001)
        X509v3 extensions:
            X509v3 Key Usage: critical
                Digital Signature, Key Encipherment
            X509v3 Extended Key Usage: 
                TLS Web Client Authentication, TLS Web Server Authentication
            X509v3 Subject Key Identifier: 
                B4:22:6E:14:41:B2:11:20:DD:43:23:BE:4C:F5:34:CB:56:A6:C7:AD
            X509v3 Authority Key Identifier: 
                keyid:E8:B6:F6:76:4B:D0:3B:E5:46:A5:F9:54:D4:7E:07:B3:DE:0D:60:3E

            Authority Information Access: 
                OCSP - URI:http://ca.someca-inc.com/ocsp
                CA Issuers - URI:http://ca.someca-inc.com/root

            X509v3 Subject Alternative Name: 
                DNS:example.org
            X509v3 Certificate Policies: 
                Policy: 2.23.140.1.2.2

            X509v3 CRL Distribution Points: 

                Full Name:
                  URI:ldap://ca.someca-inc.com/crl

    Signature Algorithm: sha256WithRSAEncryption
         72:85:85:c5:cf:03:ea:95:07:cd:a4:c2:d4:a3:f2:04:0f:8e:
         d2:6c:61:34:b5:6f:bc:c1:72:df:30:d3:5e:d3:db:a8:d3:3c:
         dd:ce:0e:f8:6b:39:40:f3:b3:b1:e6:e4:5f:b5:79:7b:ae:a6:
         db:43:c1:52:8a:1e:34:1f:c5:e5:00:9f:fc:54:98:81:01:8a:
         e1:cd:52:09:d5:51:ae:75:c1:95:53:fe:93:23:8c:43:93:08:
         34:bc:de:68:26:1a:48:7e:26:18:d7:d4:8f:db:6a:52:47:ea:
         80:60:8b:a7:97:92:0e:f6:f8:31:63:31:2b:14:bd:93:f4:f6:
         83:cd:e7:19:e5:9f:c4:3c:5f:dd:f3:42:a0:03:93:88:49:3b:
         d9:1d:c1:51:a3:d5:91:d6:fc:3a:c1:d9:2f:dc:1c:dc:a1:20:
         9e:67:c2:80:50:a5:ad:c7:10:95:97:3b:cb:d7:14:ad:20:a0:
         8a:d6:3e:ad:4e:ed:39:dd:db:3d:d6:42:59:d5:5b:c4:2e:fb:
         ac:dd:65:5c:89:ab:93:2c:c4:65:02:2f:e6:2b:46:93:55:35:
         36:e7:ae:cc:bc:eb:96:3f:69:d7:f8:23:ed:8d:62:e3:d5:2c:
         6b:39:e7:0f:f1:36:1c:d0:56:13:09:21:8d:81:1f:bf:d7:0d:
         10:45:c2:67
-----BEGIN CERTIFICATE-----
MIIEjzCCA3egAwIBAgIRAIFmLNMk8TgQTAjjcNX/++MwDQYJKoZIhvcNAQELBQAw
QzELMAkGA1UEBhMCWFgxEDAOBgNVBAoTB1NvbWUgQ0ExIjAgBgNVBAMTGUZha2Ug
Q0EgZm9yIHpsaW50IHRlc3RpbmcwHhcNMjQwNzExMTMzMzI1WhcNMjUwNzExMTMz
MzI1WjCBiTELMAkGA1UEBhMCSVQxHzAdBgNVBAgTFlNvbWUgU3RhdGUgb3IgUHJv
dmluY2UxEjAQBgNVBAcTCVNvbWV3aGVyZTEaMBgGA1UEChMRU29tZSBDb21wYW55
IEx0ZC4xFDASBgNVBAMTC2V4YW1wbGUub3JnMRMwEQYDVQQFEwoxMjM0NTY3ODkw
MIIBIjANBgkqhkiG9w0BAQEFAAOCAQ8AMIIBCgKCAQEArFMlWWBYbtYRUnNlgSgu
v66uf/lznCHxIS6+I8BiZrFKUegZCqwFk2TgvvGxhPesCYUnjN94H3oBbyB9EDbO
yIbAyfRCiSFt9t/c5bXoA2qm7Z51i7ydHSg8mxDZZTo/mA89cf19mOmfzmlkphpD
Co+vChhqkp0L3dN5WcLloN7czGmOnnNTOcbTRkM2H6rBkTG1CSTLpSXuWtq3u8MM
5n69z9YZvHCv1q/YQw5XCPYliIe+/qjbS0wJLM0S2Q3lOlwxe8qjgMOvASaAn4ho
XyQTtfV6XM2eQs3w9s6UUrbuQv08WF6LNsZw1k7ocFZtFWoE3JLKcYcoZaY+3mK5
EQIDAQABo4IBNTCCATEwDgYDVR0PAQH/BAQDAgWgMB0GA1UdJQQWMBQGCCsGAQUF
BwMCBggrBgEFBQcDATAdBgNVHQ4EFgQUtCJuFEGyESDdQyO+TPU0y1amx60wHwYD
VR0jBBgwFoAU6Lb2dkvQO+VGpflU1H4Hs94NYD4wZAYIKwYBBQUHAQEEWDBWMCkG
CCsGAQUFBzABhh1odHRwOi8vY2Euc29tZWNhLWluYy5jb20vb2NzcDApBggrBgEF
BQcwAoYdaHR0cDovL2NhLnNvbWVjYS1pbmMuY29tL3Jvb3QwFgYDVR0RBA8wDYIL
ZXhhbXBsZS5vcmcwEwYDVR0gBAwwCjAIBgZngQwBAgIwLQYDVR0fBCYwJDAioCCg
HoYcbGRhcDovL2NhLnNvbWVjYS1pbmMuY29tL2NybDANBgkqhkiG9w0BAQsFAAOC
AQEAcoWFxc8D6pUHzaTC1KPyBA+O0mxhNLVvvMFy3zDTXtPbqNM83c4O+Gs5QPOz
sebkX7V5e66m20PBUooeNB/F5QCf/FSYgQGK4c1SCdVRrnXBlVP+kyOMQ5MINLze
aCYaSH4mGNfUj9tqUkfqgGCLp5eSDvb4MWMxKxS9k/T2g83nGeWfxDxf3fNCoAOT
iEk72R3BUaPVkdb8OsHZL9wc3KEgnmfCgFClrccQlZc7y9cUrSCgitY+rU7tOd3b
PdZCWdVbxC77rN1lXImrkyzEZQIv5itGk1U1NueuzLzrlj9p1/gj7Y1i49Usaznn
D/E2HNBWEwkhjYEfv9cNEEXCZw==
-----END CERTIFICATE-----
