Certificate:
    Data:
        Version: 3 (0x2)
        Serial Number:
            3a:96:d9:e0:2c:f8:b2:6c:34:63:7f:25:70:38:21:2d
        Signature Algorithm: sha256WithRSAEncryption
        Issuer: C = XX, O = Some CA, CN = Fake CA for zlint testing
        Validity
            Not Before: Jul 11 13:34:51 2024 GMT
            Not After : Jul 11 13:34:51 2025 GMT
        Subject: C = IT, ST = Some State or Province, L = Somewhere, O = Some Company Ltd., CN = example.org, serialNumber = 1234567890
        Subject Public Key Info:
            Public Key Algorithm: rsaEncryption
                RSA Public-Key: (2048 bit)
                Modulus:
                    00:da:ab:37:0e:79:e1:60:15:b5:18:d1:44:b9:75:
                    69:26:1b:75:c7:84:7e:86:39:26:56:1d:6e:42:5f:
                    9b:6b:97:a8:3b:e0:9f:b4:34:94:f8:af:f3:f2:54:
                    76:8e:74:69:da:31:59:51:76:23:26:3f:af:4c:f3:
                    03:d8:50:14:86:a8:68:96:0f:87:09:bb:0b:67:43:
                    dc:ce:ab:a3:b9:6a:49:2d:f8:72:06:92:14:5c:b3:
                    06:db:c0:70:67:0c:76:2e:71:65:e2:f7:5e:1d:6a:
                    34:fb:6e:0a:c3:7b:8b:45:91:8e:65:5b:e7:6e:10:
                    85:e4:cd:a0:ab:dd:28:16:94:fc:8c:7d:60:d6:e9:
                    0a:c5:3d:86:ce:a7:bb:61:3e:3b:a2:fd:92:ce:73:
                    a5:46:7f:d5:6f:e6:63:eb:67:de:7e:b6:85:a8:ea:
                    29:a8:e2:4f:be:0b:b5:e9:8b:6f:ed:11:fe:5f:cc:
                    ab:b9:3c:02:58:54:62:e2:12:41:85:0a:f3:c8:50:
                    09:72:85:49:b3:a1:2d:ff:c0:8a:c3:2f:47:1b:75:
                    25:8f:50:4f:5b:31:b6:db:b2:ad:3d:9d:f0:3e:ec:
                    ec:76:d1:3c:5e:fe:7c:d5:6a:4b:6c:c8:50:71:91:
                    8a:1d:5c:c8:fe:a6:71:7e:1a:0a:d4:e3:96:fd:bb:
                    bc:a3
                Exponent: 65537 (0x10001)
        X509v3 extensions:
            X509v3 Key Usage: critical
                Digital Signature, Key Encipherment
            X509v3 Extended Key Usage: 
                TLS Web Client Authentication, TLS Web Server Authentication
            X509v3 Subject Key Identifier: 
                2B:E8:34:84:6A:38:96:53:0C:3C:EB:47:63:56:D2:4A:EA:22:9B:D3
            X509v3 Authority Key Identifier: 
                keyid:E8:B6:F6:76:4B:D0:3B:E5:46:A5:F9:54:D4:7E:07:B3:DE:0D:60:3E

            Authority Information Access: 
                OCSP - URI:http://ca.someca-inc.com/ocsp
                CA Issuers - URI:http://ca.someca-inc.com/root

            X509v3 Subject Alternative Name: 
                DNS:example.org
            X509v3 Certificate Policies: 
                Policy: 2.23.140.1.2.2

            X509v3 CRL Distribution Points: 

                Full Name:
                  URI:http://ca.someca-inc.com/crl

                Full Name:
                  URI:ldap://ca.someca-inc.com/crl

    Signature Algorithm: sha256WithRSAEncryption
         4f:c9:94:f3:15:84:e2:f3:a9:fc:17:e1:7b:eb:bc:00:49:c3:
         e8:d7:73:a4:74:c3:16:ef:12:15:cd:4a:2d:45:d0:cd:44:b7:
         48:5f:47:4b:73:5b:d9:9f:5b:aa:b4:2e:d4:de:e4:d1:94:1a:
         a2:51:cd:7d:d1:30:2e:1b:16:ba:4a:bd:56:d6:ac:e5:af:bd:
         e8:ea:3f:b7:8f:56:94:e3:8b:ab:5a:93:43:0f:59:a7:d9:f1:
         4e:a8:09:68:c3:bc:3d:3b:71:7c:6c:78:09:64:80:2d:53:59:
         44:19:80:49:27:85:d2:0f:fa:a7:c8:1f:91:ef:e2:58:bd:ab:
         33:76:aa:6c:d9:da:f4:0e:af:cd:88:fc:b2:98:f0:97:18:c6:
         14:3f:93:8c:4f:0c:94:8c:20:bd:73:a0:4c:1d:4a:9e:34:56:
         ff:0d:12:e4:fc:a6:af:5d:67:07:7a:b3:bc:39:a6:e0:d2:b8:
         70:86:8e:b6:d1:cc:2a:b8:a8:46:b1:60:de:ae:46:f7:67:94:
         0d:4f:fb:d8:a7:90:66:8c:0b:56:65:90:94:5b:ae:ca:43:82:
         25:4c:df:ad:f8:fe:ac:a0:72:e3:2c:ab:f5:50:c1:83:ec:20:
         48:28:6a:6c:04:74:1c:04:ac:f0:fe:d1:28:77:aa:85:01:d4:
         c0:f9:68:1b
-----BEGIN CERTIFICATE-----
MIIEsjCCA5qgAwIBAgIQOpbZ4Cz4smw0Y38lcDghLTANBgkqhkiG9w0BAQsFADBD
MQswCQYDVQQGEwJYWDEQMA4GA1UEChMHU29tZSBDQTEiMCAGA1UEAxMZRmFrZSBD
QSBmb3IgemxpbnQgdGVzdGluZzAeFw0yNDA3MTExMzM0NTFaFw0yNTA3MTExMzM0
NTFaMIGJMQswCQYDVQQGEwJJVDEfMB0GA1UECBMWU29tZSBTdGF0ZSBvciBQcm92
aW5jZTESMBAGA1UEBxMJU29tZXdoZXJlMRowGAYDVQQKExFTb21lIENvbXBhbnkg
THRkLjEUMBIGA1UEAxMLZXhhbXBsZS5vcmcxEzARBgNVBAUTCjEyMzQ1Njc4OTAw
ggEiMA0GCSqGSIb3DQEBAQUAA4IBDwAwggEKAoIBAQDaqzcOeeFgFbUY0US5dWkm
G3XHhH6GOSZWHW5CX5trl6g74J+0NJT4r/PyVHaOdGnaMVlRdiMmP69M8wPYUBSG
qGiWD4cJuwtnQ9zOq6O5akkt+HIGkhRcswbbwHBnDHYucWXi914dajT7bgrDe4tF
kY5lW+duEIXkzaCr3SgWlPyMfWDW6QrFPYbOp7thPjui/ZLOc6VGf9Vv5mPrZ95+
toWo6imo4k++C7Xpi2/tEf5fzKu5PAJYVGLiEkGFCvPIUAlyhUmzoS3/wIrDL0cb
dSWPUE9bMbbbsq09nfA+7Ox20Txe/nzVaktsyFBxkYodXMj+pnF+GgrU45b9u7yj
AgMBAAGjggFZMIIBVTAOBgNVHQ8BAf8EBAMCBaAwHQYDVR0lBBYwFAYIKwYBBQUH
AwIGCCsGAQUFBwMBMB0GA1UdDgQWBBQr6DSEajiWUww860djVtJK6iKb0zAfBgNV
HSMEGDAWgBTotvZ2S9A75Ual+VTUfgez3g1gPjBkBggrBgEFBQcBAQRYMFYwKQYI
KwYBBQUHMAGGHWh0dHA6Ly9jYS5zb21lY2EtaW5jLmNvbS9vY3NwMCkGCCsGAQUF
BzAChh1odHRwOi8vY2Euc29tZWNhLWluYy5jb20vcm9vdDAWBgNVHREEDzANggtl
eGFtcGxlLm9yZzATBgNVHSAEDDAKMAgGBmeBDAECAjBRBgNVHR8ESjBIMCKgIKAe
hhxodHRwOi8vY2Euc29tZWNhLWluYy5jb20vY3JsMCKgIKAehhxsZGFwOi8vY2Eu
c29tZWNhLWluYy5jb20vY3JsMA0GCSqGSIb3DQEBCwUAA4IBAQBPyZTzFYTi86n8
F+F767wAScPo13OkdMMW7xIVzUotRdDNRLdIX0dLc1vZn1uqtC7U3uTRlBqiUc19
0TAuGxa6Sr1W1qzlr73o6j+3j1aU44urWpNDD1mn2fFOqAlow7w9O3F8bHgJZIAt
U1lEGYBJJ4XSD/qnyB+R7+JYvaszdqps2dr0Dq/NiPyymPCXGMYUP5OMTwyUjCC9
c6BMHUqeNFb/DRLk/KavXWcHerO8Oabg0rhwho620cwquKhGsWDerkb3Z5QNT/vY
p5BmjAtWZZCUW67KQ4IlTN+t+P6soHLjLKv1UMGD7CBIKGpsBHQcBKzw/tEod6qF
AdTA+Wgb
-----END CERTIFICATE-----
