Certificate:
    Data:
        Version: 3 (0x2)
        Serial Number:
            f0:09:45:e9:eb:48:25:60:c6:a3:11:e3:94:e8:b4:44
        Signature Algorithm: sha256WithRSAEncryption
        Issuer: C = XX, O = Some CA, CN = Fake CA for zlint testing
        Validity
            Not Before: Jul 11 13:21:58 2024 GMT
            Not After : Jul 11 13:21:58 2025 GMT
        Subject: C = IT, ST = Some State or Province, L = Somewhere, O = Some Company Ltd., CN = example.org, serialNumber = 1234567890
        Subject Public Key Info:
            Public Key Algorithm: rsaEncryption
                RSA Public-Key: (2048 bit)
                Modulus:
                    00:b8:27:0f:e2:0c:71:e8:3d:ef:b4:40:95:2c:18:
                    4b:fd:ea:bf:b1:24:27:b9:2d:31:e3:d7:f1:46:4f:
                    99:ab:8a:7d:12:43:a4:69:cc:f2:a2:19:44:03:64:
                    fa:7a:88:36:d8:61:0f:05:5e:10:13:76:12:ae:de:
                    93:eb:75:ed:fd:57:59:f8:ad:7a:1e:ec:7a:5e:7b:
                    ea:91:07:fa:a6:61:57:af:5d:a6:63:fb:a4:15:8f:
                    ca:1d:be:6d:b1:6c:3f:ae:25:27:bd:63:da:90:8e:
                    7e:12:41:a4:90:24:f3:28:ce:05:dc:5c:95:24:de:
                    11:48:39:70:f5:6b:15:b7:1b:6f:fe:cf:00:d7:81:
                    41:cc:06:8b:c7:05:09:a4:ae:76:07:88:b6:e4:8d:
                    a6:1b:bc:61:f8:ea:3a:1f:73:be:2c:04:ae:90:27:
                    22:9b:49:0f:d8:55:a7:e0:e0:f9:36:e4:83:53:00:
                    36:c2:8d:20:5d:62:2e:e6:f8:1b:e5:a6:21:5f:af:
                    31:c1:7a:06:46:66:8f:b1:e0:c4:ba:1b:e6:50:cc:
                    4e:ea:b9:b4:53:80:56:1f:53:82:8b:a6:e2:2d:84:
                    d2:54:c0:ba:aa:0b:fb:c2:63:2c:8a:cd:35:5a:30:
                    46:b9:2d:76:ce:c6:38:90:f7:ec:bb:e9:15:03:8d:
                    fe:59
                Exponent: 65537 (0x10001)
        X509v3 extensions:
            X509v3 Key Usage: critical
                Digital Signature, Key Encipherment
            X509v3 Extended Key Usage: 
                TLS Web Client Authentication, TLS Web Server Authentication
            X509v3 Subject Key Identifier: 
                50:C5:80:03:52:ED:BC:3B:2C:BC:C5:2D:D4:6E:73:87:C3:FF:7D:E8
            X509v3 Authority Key Identifier: 
                keyid:E8:B6:F6:76:4B:D0:3B:E5:46:A5:F9:54:D4:7E:07:B3:DE:0D:60:3E

            Authority Information Access: 
                OCSP - URI:http://ca.someca-inc.com/ocsp
                CA Issuers - URI:http://ca.someca-inc.com/root

            X509v3 Subject Alternative Name: 
                DNS:example.org
            X509v3 Certificate Policies: 
                Policy: 2.23.140.1.2.2

    Signature Algorithm: sha256WithRSAEncryption
         71:2c:80:c0:e3:6a:5e:a7:fc:18:5e:86:f8:50:62:33:3b:87:
         96:be:bf:ee:f1:75:a8:18:e2:5a:52:97:b8:66:35:0a:40:63:
         96:17:7c:77:47:ad:33:97:95:2f:6e:91:a1:7f:8f:d0:c4:d3:
         21:f9:b9:24:39:47:39:53:82:2b:e2:a8:ea:58:63:7e:ca:cb:
         9c:7b:d5:2d:3a:50:d3:56:60:4f:67:ae:a4:a0:21:f3:84:e6:
         32:10:26:a6:5b:83:75:52:e0:b1:a5:29:1e:43:ba:66:aa:91:
         57:29:a8:94:1f:6f:33:ee:ea:07:38:77:05:81:4a:64:c3:80:
         47:68:f4:4c:49:a5:26:e8:b4:dc:34:69:55:bb:b9:ec:a3:21:
         4f:96:60:d2:40:ae:fb:77:32:d3:2a:b4:39:75:bb:98:5d:a2:
         a2:19:a9:64:c6:23:fb:38:67:f3:39:85:9d:0e:5b:78:c9:14:
         55:70:c5:85:c7:08:9a:c4:45:d5:f2:7b:9a:39:b5:ac:5a:8b:
         2c:55:a2:2a:88:99:b5:8c:d2:6f:de:f8:0e:8d:51:28:35:c1:
         0b:de:ea:35:e0:a2:3e:5f:b3:82:f1:ea:1d:f4:4d:66:62:2e:
         65:80:ba:d5:eb:58:6a:2e:d4:33:44:59:e2:8d:fa:08:ce:50:
         7b:1a:d3:b7
-----BEGIN CERTIFICATE-----
MIIEYDCCA0igAwIBAgIRAPAJRenrSCVgxqMR45TotEQwDQYJKoZIhvcNAQELBQAw
QzELMAkGA1UEBhMCWFgxEDAOBgNVBAoTB1NvbWUgQ0ExIjAgBgNVBAMTGUZha2Ug
Q0EgZm9yIHpsaW50IHRlc3RpbmcwHhcNMjQwNzExMTMyMTU4WhcNMjUwNzExMTMy
MTU4WjCBiTELMAkGA1UEBhMCSVQxHzAdBgNVBAgTFlNvbWUgU3RhdGUgb3IgUHJv
dmluY2UxEjAQBgNVBAcTCVNvbWV3aGVyZTEaMBgGA1UEChMRU29tZSBDb21wYW55
IEx0ZC4xFDASBgNVBAMTC2V4YW1wbGUub3JnMRMwEQYDVQQFEwoxMjM0NTY3ODkw
MIIBIjANBgkqhkiG9w0BAQEFAAOCAQ8AMIIBCgKCAQEAuCcP4gxx6D3vtECVLBhL
/eq/sSQnuS0x49fxRk+Zq4p9EkOkaczyohlEA2T6eog22GEPBV4QE3YSrt6T63Xt
/VdZ+K16Hux6XnvqkQf6pmFXr12mY/ukFY/KHb5tsWw/riUnvWPakI5+EkGkkCTz
KM4F3FyVJN4RSDlw9WsVtxtv/s8A14FBzAaLxwUJpK52B4i25I2mG7xh+Oo6H3O+
LASukCcim0kP2FWn4OD5NuSDUwA2wo0gXWIu5vgb5aYhX68xwXoGRmaPseDEuhvm
UMxO6rm0U4BWH1OCi6biLYTSVMC6qgv7wmMsis01WjBGuS12zsY4kPfsu+kVA43+
WQIDAQABo4IBBjCCAQIwDgYDVR0PAQH/BAQDAgWgMB0GA1UdJQQWMBQGCCsGAQUF
BwMCBggrBgEFBQcDATAdBgNVHQ4EFgQUUMWAA1LtvDssvMUt1G5zh8P/fegwHwYD
VR0jBBgwFoAU6Lb2dkvQO+VGpflU1H4Hs94NYD4wZAYIKwYBBQUHAQEEWDBWMCkG
CCsGAQUFBzABhh1odHRwOi8vY2Euc29tZWNhLWluYy5jb20vb2NzcDApBggrBgEF
BQcwAoYdaHR0cDovL2NhLnNvbWVjYS1pbmMuY29tL3Jvb3QwFgYDVR0RBA8wDYIL
ZXhhbXBsZS5vcmcwEwYDVR0gBAwwCjAIBgZngQwBAgIwDQYJKoZIhvcNAQELBQAD
ggEBAHEsgMDjal6n/BhehvhQYjM7h5a+v+7xdagY4lpSl7hmNQpAY5YXfHdHrTOX
lS9ukaF/j9DE0yH5uSQ5RzlTgiviqOpYY37Ky5x71S06UNNWYE9nrqSgIfOE5jIQ
JqZbg3VS4LGlKR5DumaqkVcpqJQfbzPu6gc4dwWBSmTDgEdo9ExJpSbotNw0aVW7
ueyjIU+WYNJArvt3MtMqtDl1u5hdoqIZqWTGI/s4Z/M5hZ0OW3jJFFVwxYXHCJrE
RdXye5o5taxaiyxVoiqImbWM0m/e+A6NUSg1wQve6jXgoj5fs4Lx6h30TWZiLmWA
utXrWGou1DNEWeKN+gjOUHsa07c=
-----END CERTIFICATE-----
