Certificate:
    Data:
        Version: 3 (0x2)
        Serial Number:
            91:e8:07:6c:3f:5a:b9:bc:e5:4c:0f:07:4f:30:fe:45
        Signature Algorithm: sha256WithRSAEncryption
        Issuer: C = XX, O = Some CA, CN = Fake CA for zlint testing
        Validity
            Not Before: Sep 13 00:00:00 2023 GMT
            Not After : Sep 12 00:00:00 2024 GMT
        Subject: C = IT, ST = Some State or Province, L = Somewhere, O = Some Company Ltd., CN = example.org, serialNumber = 1234567890
        Subject Public Key Info:
            Public Key Algorithm: rsaEncryption
                RSA Public-Key: (2048 bit)
                Modulus:
                    00:ce:b7:51:e0:9a:6b:a7:56:0e:42:64:2b:48:42:
                    26:99:d9:62:8b:5e:7e:74:9a:8c:0e:ac:99:21:78:
                    91:c4:20:3a:86:79:cb:6f:dc:03:06:67:c9:a3:33:
                    6b:b5:48:21:ff:73:e3:fc:d2:98:c1:dc:e3:a3:af:
                    70:9f:cb:c4:7d:a9:50:03:13:2f:6a:2d:13:ee:a0:
                    c6:71:14:80:89:ea:d6:3c:6b:29:55:95:e2:04:50:
                    06:a2:a2:60:12:96:cb:10:db:ce:1e:1b:7c:2b:14:
                    dc:d1:f1:fe:65:c2:b1:4c:94:61:43:7a:f0:d6:12:
                    76:eb:8d:e5:22:3c:2d:d0:de:7d:7f:6e:41:2b:a5:
                    7b:16:58:ee:5d:7e:27:65:81:4b:cb:c2:a4:72:80:
                    ad:a9:92:99:1b:81:f6:32:b7:aa:de:af:90:53:1d:
                    68:55:1b:c4:b9:78:ff:29:3c:fb:ef:03:85:9f:dd:
                    0a:51:53:a8:d3:78:5a:e9:32:a9:30:c4:a8:4c:38:
                    ff:67:d5:81:7d:ed:09:ec:0d:da:63:b8:f8:79:28:
                    5e:6e:f6:44:67:d0:be:06:65:09:aa:aa:60:76:8e:
                    7d:b5:32:c1:d2:b0:4d:1d:11:d7:aa:13:c4:a1:85:
                    41:a6:45:43:92:b3:d5:38:07:2f:ae:b4:a6:08:28:
                    27:f3
                Exponent: 65537 (0x10001)
        X509v3 extensions:
            X509v3 Key Usage: critical
                Digital Signature, Key Encipherment
            X509v3 Extended Key Usage: 
                TLS Web Client Authentication, TLS Web Server Authentication
            X509v3 Subject Key Identifier: 
                E2:2D:B2:D2:41:BC:66:7C:6F:E8:32:5F:02:43:F8:FE:51:6C:EE:11
            X509v3 Authority Key Identifier: 
                keyid:E8:B6:F6:76:4B:D0:3B:E5:46:A5:F9:54:D4:7E:07:B3:DE:0D:60:3E

            Authority Information Access: 
                OCSP - URI:http://ca.someca-inc.com/ocsp
                CA Issuers - URI:http://ca.someca-inc.com/root

            X509v3 Subject Alternative Name: 
                DNS:example.org
            X509v3 Certificate Policies: 
                Policy: 2.23.140.1.2.2

            X509v3 CRL Distribution Points: 

                Full Name:
                  URI:ldap://ca.someca-inc.com/crl

    Signature Algorithm: sha256WithRSAEncryption
         4a:c5:18:fb:c0:42:c2:43:f6:b8:55:eb:81:92:13:ff:64:31:
         49:eb:4e:c1:bf:66:d1:f4:c9:ae:e9:bf:05:a3:0b:a6:6d:d1:
         27:5d:7d:17:5c:16:0e:52:27:b6:12:da:e7:96:99:db:21:35:
         e6:b0:fd:85:aa:22:5c:b0:17:4f:b1:eb:55:73:46:77:63:c7:
         e4:ae:53:e6:61:29:07:a8:c6:28:00:ca:53:45:3d:f9:48:35:
         f8:f1:02:6e:7e:b6:bb:31:ed:8a:ce:b4:f9:49:4f:f1:98:d8:
         17:e8:79:d0:25:f8:18:00:bd:5f:d7:34:c4:bd:4e:aa:7b:38:
         ca:fd:cc:6c:56:1b:c8:6f:85:ba:f6:30:37:6d:5c:12:80:97:
         06:20:eb:9f:a7:30:64:13:d1:e9:38:e5:6a:8a:28:88:c1:c0:
         04:cb:63:22:0c:31:71:2a:a0:72:bf:1b:c6:56:49:c2:61:2f:
         81:e5:83:c1:24:67:88:3b:68:56:00:40:db:45:f7:19:0a:13:
         15:3d:3a:c7:95:61:de:92:c1:a9:24:17:da:6b:c3:41:b9:b2:
         31:8a:bc:b5:af:05:7c:81:f4:fe:cb:26:5d:3b:e4:65:ff:35:
         9a:41:0f:8d:62:b1:c6:bd:67:4d:c1:70:88:75:b1:a4:ae:8d:
         41:5a:e4:b0
-----BEGIN CERTIFICATE-----
MIIEjzCCA3egAwIBAgIRAJHoB2w/Wrm85UwPB08w/kUwDQYJKoZIhvcNAQELBQAw
QzELMAkGA1UEBhMCWFgxEDAOBgNVBAoTB1NvbWUgQ0ExIjAgBgNVBAMTGUZha2Ug
Q0EgZm9yIHpsaW50IHRlc3RpbmcwHhcNMjMwOTEzMDAwMDAwWhcNMjQwOTEyMDAw
MDAwWjCBiTELMAkGA1UEBhMCSVQxHzAdBgNVBAgTFlNvbWUgU3RhdGUgb3IgUHJv
dmluY2UxEjAQBgNVBAcTCVNvbWV3aGVyZTEaMBgGA1UEChMRU29tZSBDb21wYW55
IEx0ZC4xFDASBgNVBAMTC2V4YW1wbGUub3JnMRMwEQYDVQQFEwoxMjM0NTY3ODkw
MIIBIjANBgkqhkiG9w0BAQEFAAOCAQ8AMIIBCgKCAQEAzrdR4Jprp1YOQmQrSEIm
mdlii15+dJqMDqyZIXiRxCA6hnnLb9wDBmfJozNrtUgh/3Pj/NKYwdzjo69wn8vE
falQAxMvai0T7qDGcRSAierWPGspVZXiBFAGoqJgEpbLENvOHht8KxTc0fH+ZcKx
TJRhQ3rw1hJ2643lIjwt0N59f25BK6V7FljuXX4nZYFLy8KkcoCtqZKZG4H2Mreq
3q+QUx1oVRvEuXj/KTz77wOFn90KUVOo03ha6TKpMMSoTDj/Z9WBfe0J7A3aY7j4
eShebvZEZ9C+BmUJqqpgdo59tTLB0rBNHRHXqhPEoYVBpkVDkrPVOAcvrrSmCCgn
8wIDAQABo4IBNTCCATEwDgYDVR0PAQH/BAQDAgWgMB0GA1UdJQQWMBQGCCsGAQUF
BwMCBggrBgEFBQcDATAdBgNVHQ4EFgQU4i2y0kG8Znxv6DJfAkP4/lFs7hEwHwYD
VR0jBBgwFoAU6Lb2dkvQO+VGpflU1H4Hs94NYD4wZAYIKwYBBQUHAQEEWDBWMCkG
CCsGAQUFBzABhh1odHRwOi8vY2Euc29tZWNhLWluYy5jb20vb2NzcDApBggrBgEF
BQcwAoYdaHR0cDovL2NhLnNvbWVjYS1pbmMuY29tL3Jvb3QwFgYDVR0RBA8wDYIL
ZXhhbXBsZS5vcmcwEwYDVR0gBAwwCjAIBgZngQwBAgIwLQYDVR0fBCYwJDAioCCg
HoYcbGRhcDovL2NhLnNvbWVjYS1pbmMuY29tL2NybDANBgkqhkiG9w0BAQsFAAOC
AQEASsUY+8BCwkP2uFXrgZIT/2QxSetOwb9m0fTJrum/BaMLpm3RJ119F1wWDlIn
thLa55aZ2yE15rD9haoiXLAXT7HrVXNGd2PH5K5T5mEpB6jGKADKU0U9+Ug1+PEC
bn62uzHtis60+UlP8ZjYF+h50CX4GAC9X9c0xL1Oqns4yv3MbFYbyG+FuvYwN21c
EoCXBiDrn6cwZBPR6TjlaoooiMHABMtjIgwxcSqgcr8bxlZJwmEvgeWDwSRniDto
VgBA20X3GQoTFT06x5Vh3pLBqSQX2mvDQbmyMYq8ta8FfIH0/ssmXTvkZf81mkEP
jWKxxr1nTcFwiHWxpK6NQVrksA==
-----END CERTIFICATE-----
