Certificate:
    Data:
        Version: 3 (0x2)
        Serial Number: 18008675309 (0x4316693ed)
    Signature Algorithm: sha256WithRSAEncryption
        Issuer: C = US, O = Mother Nature, OU = Everything, CN = Mother Nature
        Validity
            Not Before: Jun 30 20:11:56 2016 GMT
            Not After : Sep 11 20:11:56 2016 GMT
        Subject: C = US, ST = FL, L = Tallahassee, street = 3210 Holly Mill Run, postalCode = 30062, O = Extreme Discord, OU = Chaos, CN = gov.us
        Subject Public Key Info:
            Public Key Algorithm: rsaEncryption
                Public-Key: (2048 bit)
                Modulus:
                    00:bf:24:ab:72:ae:33:97:0a:80:3b:20:55:94:d1:
                    fe:b8:90:1b:34:90:83:31:5c:70:3f:bb:0d:0e:37:
                    a7:a1:aa:d5:3e:95:b4:b0:a1:6a:16:91:cf:23:68:
                    7c:d6:c5:a7:47:ef:4b:78:3b:f1:f6:3d:f1:cc:68:
                    d2:75:5d:98:0e:3b:2d:21:07:28:14:e1:70:b6:a9:
                    cf:1e:cb:52:41:32:90:d5:6d:21:8e:37:69:f6:fa:
                    f3:b8:27:66:d4:8d:e2:e5:b6:3a:0d:fb:d8:75:2c:
                    91:75:47:4d:c9:71:40:08:ea:04:7c:25:5e:b7:74:
                    5a:1a:55:7d:89:8b:c9:08:4d:b0:6a:1b:bf:5a:0d:
                    08:52:99:eb:8f:89:9a:c8:e1:a6:9f:65:49:14:65:
                    45:73:35:28:49:9e:6f:99:52:eb:13:31:9f:88:45:
                    3e:31:14:d4:3d:1c:80:c9:a1:14:65:cd:fc:06:bb:
                    9a:b6:c4:03:4f:b2:67:63:b7:91:f7:26:85:88:91:
                    54:73:5a:36:df:47:b9:42:17:72:d4:a6:09:02:ab:
                    94:f7:c5:21:24:6e:b9:eb:08:78:54:8c:1c:26:27:
                    11:f7:ec:cf:e5:d3:c2:3f:8a:54:44:85:9c:cf:aa:
                    50:32:b4:55:c8:82:a8:0d:b4:85:4c:08:b8:61:25:
                    d8:49
                Exponent: 65537 (0x10001)
        X509v3 extensions:
            X509v3 Key Usage: critical
                Digital Signature, Key Encipherment
            X509v3 Extended Key Usage: 
                TLS Web Client Authentication, TLS Web Server Authentication
            X509v3 Basic Constraints: critical
                CA:FALSE
            X509v3 Authority Key Identifier: 
                keyid:01:02:03

            Authority Information Access: 
                OCSP - URI:http://theca.net/ocsp
                CA Issuers - URI:http://theca.net/totallythecert.crt

            X509v3 Certificate Policies: 
                Policy: 1.3.6.1.5.5.7.13.1
                Policy: 2.23.140.1.2.2

            X509v3 Subject Key Identifier: 
                04:03:02:01
            X509v3 Subject Alternative Name: 
                DNS:*.gov.us, DNS:gov.us
            X509v3 Issuer Alternative Name: 
                DNS:allthethings.net, DNS:theca.net
    Signature Algorithm: sha256WithRSAEncryption
         cf:1a:41:27:37:e5:35:bb:8f:56:da:08:5f:4f:82:c3:bc:d2:
         84:b8:e5:1b:9a:fc:c8:90:bc:9e:75:3b:73:42:12:c2:0f:4d:
         fb:13:71:8c:c3:b2:e8:34:2c:1c:7b:64:34:75:d8:2a:ca:d4:
         ad:69:6f:60:33:bb:51:cc:5a:e1:f0:1f:73:b9:eb:03:4f:92:
         14:af:b2:3a:bf:69:36:04:39:ee:84:79:87:1b:cf:d6:be:e2:
         6e:14:d3:b0:7c:9f:c6:3f:be:1a:f3:7e:a0:05:7e:8c:05:45:
         49:03:27:93:93:86:5f:2d:8e:5e:a9:44:bd:ff:33:94:12:02:
         59:49:ec:79:6f:00:73:a9:5d:a3:88:d6:12:73:15:8b:db:ec:
         37:a5:05:c9:bb:1b:27:0a:81:a8:2c:f2:bf:38:37:d4:2d:c0:
         cd:08:eb:48:5b:4a:6d:07:88:e9:7d:6f:e4:a3:5f:0d:ae:b6:
         d4:df:dd:48:1c:70:78:6c:11:57:47:17:fc:54:fe:40:d7:35:
         21:c1:92:4a:d3:21:5f:5d:2e:19:ad:5d:23:ff:1f:b9:e9:a0:
         35:11:88:77:38:27:3b:cf:60:84:80:aa:1f:9e:fe:40:13:f7:
         11:16:05:6c:48:19:d8:76:40:a2:64:d9:fd:2c:95:1c:b2:40:
         c5:e3:05:ed
-----BEGIN CERTIFICATE-----
MIIElzCCA3+gAwIBAgIFBDFmk+0wDQYJKoZIhvcNAQELBQAwUjELMAkGA1UEBhMC
VVMxFjAUBgNVBAoTDU1vdGhlciBOYXR1cmUxEzARBgNVBAsTCkV2ZXJ5dGhpbmcx
FjAUBgNVBAMTDU1vdGhlciBOYXR1cmUwHhcNMTYwNjMwMjAxMTU2WhcNMTYwOTEx
MjAxMTU2WjCBmTELMAkGA1UEBhMCVVMxCzAJBgNVBAgTAkZMMRQwEgYDVQQHEwtU
YWxsYWhhc3NlZTEcMBoGA1UECRMTMzIxMCBIb2xseSBNaWxsIFJ1bjEOMAwGA1UE
ERMFMzAwNjIxGDAWBgNVBAoTD0V4dHJlbWUgRGlzY29yZDEOMAwGA1UECxMFQ2hh
b3MxDzANBgNVBAMTBmdvdi51czCCASIwDQYJKoZIhvcNAQEBBQADggEPADCCAQoC
ggEBAL8kq3KuM5cKgDsgVZTR/riQGzSQgzFccD+7DQ43p6Gq1T6VtLChahaRzyNo
fNbFp0fvS3g78fY98cxo0nVdmA47LSEHKBThcLapzx7LUkEykNVtIY43afb687gn
ZtSN4uW2Og372HUskXVHTclxQAjqBHwlXrd0WhpVfYmLyQhNsGobv1oNCFKZ64+J
msjhpp9lSRRlRXM1KEmeb5lS6xMxn4hFPjEU1D0cgMmhFGXN/Aa7mrbEA0+yZ2O3
kfcmhYiRVHNaNt9HuUIXctSmCQKrlPfFISRuuesIeFSMHCYnEffsz+XTwj+KVESF
nM+qUDK0VciCqA20hUwIuGEl2EkCAwEAAaOCASowggEmMA4GA1UdDwEB/wQEAwIF
oDAdBgNVHSUEFjAUBggrBgEFBQcDAgYIKwYBBQUHAwEwDAYDVR0TAQH/BAIwADAO
BgNVHSMEBzAFgAMBAgMwYgYIKwYBBQUHAQEEVjBUMCEGCCsGAQUFBzABhhVodHRw
Oi8vdGhlY2EubmV0L29jc3AwLwYIKwYBBQUHMAKGI2h0dHA6Ly90aGVjYS5uZXQv
dG90YWxseXRoZWNlcnQuY3J0MB8GA1UdIAQYMBYwCgYIKwYBBQUHDQEwCAYGZ4EM
AQICMA0GA1UdDgQGBAQEAwIBMBsGA1UdEQQUMBKCCCouZ292LnVzggZnb3YudXMw
JgYDVR0SBB8wHYIQYWxsdGhldGhpbmdzLm5ldIIJdGhlY2EubmV0MA0GCSqGSIb3
DQEBCwUAA4IBAQDPGkEnN+U1u49W2ghfT4LDvNKEuOUbmvzIkLyedTtzQhLCD037
E3GMw7LoNCwce2Q0ddgqytStaW9gM7tRzFrh8B9zuesDT5IUr7I6v2k2BDnuhHmH
G8/WvuJuFNOwfJ/GP74a836gBX6MBUVJAyeTk4ZfLY5eqUS9/zOUEgJZSex5bwBz
qV2jiNYScxWL2+w3pQXJuxsnCoGoLPK/ODfULcDNCOtIW0ptB4jpfW/ko18NrrbU
391IHHB4bBFXRxf8VP5A1zUhwZJK0yFfXS4ZrV0j/x+56aA1EYh3OCc7z2CEgKof
nv5AE/cRFgVsSBnYdkCiZNn9LJUcskDF4wXt
-----END CERTIFICATE-----
