Certificate:
    Data:
        Version: 3 (0x2)
        Serial Number:
            7b:7f:53:2d:75:09:15:8d:0a:81:17:0f:c6:79:d4:5d
        Signature Algorithm: sha256WithRSAEncryption
        Issuer: C = XX, O = Some CA, CN = Fake CA for zlint testing
        Validity
            Not Before: May  1 11:20:27 2024 GMT
            Not After : May  1 11:20:27 2025 GMT
        Subject: C = IT, ST = Some State or Province, L = Somewhere, O = Some Company Ltd., CN = example.org
        Subject Public Key Info:
            Public Key Algorithm: rsaEncryption
                RSA Public-Key: (2048 bit)
                Modulus:
                    00:ae:c4:6d:71:3d:45:0a:2f:39:d5:dc:9d:0b:11:
                    9f:6e:c2:0b:26:6b:e9:1d:9e:a0:8d:51:48:7f:0f:
                    08:63:fc:fb:01:75:68:a1:dd:fc:a5:7b:3c:c5:c2:
                    b2:f2:15:7a:24:cd:c0:f3:d5:6b:5b:d8:97:9d:ab:
                    01:80:05:06:07:bc:0d:89:30:2d:f7:4f:75:33:12:
                    23:f5:35:9a:ac:bd:c4:80:1f:ba:e2:17:e8:3a:22:
                    99:0f:14:f8:68:08:3a:fc:99:eb:67:8a:63:57:fb:
                    de:1f:64:15:bb:25:91:ee:c2:0e:36:7a:c8:88:f5:
                    35:09:b5:a8:83:c4:8e:32:f7:9a:c8:05:40:bb:81:
                    6f:1f:c9:a3:b7:19:12:f4:b7:44:bb:8b:4a:51:de:
                    05:ca:54:37:f4:7a:f2:c0:67:0f:92:0f:85:f4:b9:
                    f3:d3:33:d1:54:f5:9f:5f:77:f6:ee:48:1b:57:d9:
                    fa:ac:5a:28:3d:fe:32:a3:37:1f:3e:29:10:f1:72:
                    24:90:19:84:cf:70:30:21:3b:bf:5b:cf:a3:f0:e1:
                    0a:13:cd:0d:6b:b0:42:a7:e4:1a:67:71:b2:49:64:
                    46:81:1f:d3:2e:a9:5b:f9:46:b6:7e:01:af:a7:cb:
                    79:de:9a:f9:0c:f8:c1:a5:47:1e:a7:d7:7b:0a:82:
                    75:91
                Exponent: 65537 (0x10001)
        X509v3 extensions:
            X509v3 Key Usage: critical
                Digital Signature, Key Encipherment
            X509v3 Extended Key Usage: 
                TLS Web Client Authentication, TLS Web Server Authentication
            X509v3 Subject Key Identifier: 
                CD:88:D5:FB:92:31:3B:17:A1:6F:DA:1F:55:D5:A1:FE:56:FE:0E:21
            X509v3 Authority Key Identifier: 
                keyid:E8:B6:F6:76:4B:D0:3B:E5:46:A5:F9:54:D4:7E:07:B3:DE:0D:60:3E

            Authority Information Access: 
                OCSP - URI:http://ca.someca-inc.com/ocsp
                CA Issuers - URI:http://ca.someca-inc.com/root

            X509v3 Certificate Policies: 
                Policy: 2.23.140.1.2.2

            X509v3 CRL Distribution Points: 

                Full Name:
                  URI:http://ca.someca-inc.com/crl

            X509v3 Subject Alternative Name: 
                DNS:example.org
    Signature Algorithm: sha256WithRSAEncryption
         59:19:cf:67:22:d4:c7:d3:9f:57:bd:7c:d2:49:d0:6a:31:84:
         fe:3c:31:09:5a:36:5c:e7:63:0c:0c:68:e0:ef:18:f9:c6:24:
         4f:c0:55:d0:b9:c6:6a:63:5c:fc:1d:27:23:15:b1:59:2f:0c:
         73:d1:d1:18:98:46:06:c1:05:ca:38:15:2d:26:7e:77:32:5e:
         b6:83:72:ba:dc:33:15:54:6b:58:db:c1:a1:60:46:ec:de:8e:
         d9:3b:00:de:6f:90:fa:c3:52:50:6d:1c:dd:46:ed:30:77:a8:
         af:d1:b9:42:e7:2a:ff:46:9d:ca:b1:5a:b9:d3:81:13:37:4a:
         47:7b:97:ea:15:f6:ca:9a:0b:24:31:e4:a7:6c:74:db:e5:8a:
         7b:cf:7f:00:b6:9e:22:90:06:7f:78:f9:79:ed:71:ee:f0:f2:
         47:18:98:6e:d7:1c:d8:74:a3:c0:84:13:3d:7e:4d:af:9d:21:
         4f:ce:7d:a8:70:88:f6:b3:76:ca:72:ea:ff:7a:32:e0:4c:4a:
         3a:46:4d:fe:6b:94:4e:32:28:d6:c0:c3:37:6b:20:b1:79:cd:
         e0:ee:cc:1e:ac:e2:a9:48:ad:7a:24:14:e2:a9:16:9a:93:a0:
         da:a6:47:81:c7:dc:7c:d4:30:e9:6a:78:ab:ee:ce:77:98:57:
         71:1b:ed:51
-----BEGIN CERTIFICATE-----
MIIEezCCA2OgAwIBAgIQe39TLXUJFY0KgRcPxnnUXTANBgkqhkiG9w0BAQsFADBD
MQswCQYDVQQGEwJYWDEQMA4GA1UEChMHU29tZSBDQTEiMCAGA1UEAxMZRmFrZSBD
QSBmb3IgemxpbnQgdGVzdGluZzAeFw0yNDA1MDExMTIwMjdaFw0yNTA1MDExMTIw
MjdaMHQxCzAJBgNVBAYTAklUMR8wHQYDVQQIExZTb21lIFN0YXRlIG9yIFByb3Zp
bmNlMRIwEAYDVQQHEwlTb21ld2hlcmUxGjAYBgNVBAoTEVNvbWUgQ29tcGFueSBM
dGQuMRQwEgYDVQQDEwtleGFtcGxlLm9yZzCCASIwDQYJKoZIhvcNAQEBBQADggEP
ADCCAQoCggEBAK7EbXE9RQovOdXcnQsRn27CCyZr6R2eoI1RSH8PCGP8+wF1aKHd
/KV7PMXCsvIVeiTNwPPVa1vYl52rAYAFBge8DYkwLfdPdTMSI/U1mqy9xIAfuuIX
6DoimQ8U+GgIOvyZ62eKY1f73h9kFbslke7CDjZ6yIj1NQm1qIPEjjL3msgFQLuB
bx/Jo7cZEvS3RLuLSlHeBcpUN/R68sBnD5IPhfS589Mz0VT1n1939u5IG1fZ+qxa
KD3+MqM3Hz4pEPFyJJAZhM9wMCE7v1vPo/DhChPNDWuwQqfkGmdxsklkRoEf0y6p
W/lGtn4Br6fLed6a+Qz4waVHHqfXewqCdZECAwEAAaOCATgwggE0MA4GA1UdDwEB
/wQEAwIFoDAdBgNVHSUEFjAUBggrBgEFBQcDAgYIKwYBBQUHAwEwHQYDVR0OBBYE
FM2I1fuSMTsXoW/aH1XVof5W/g4hMB8GA1UdIwQYMBaAFOi29nZL0DvlRqX5VNR+
B7PeDWA+MGQGCCsGAQUFBwEBBFgwVjApBggrBgEFBQcwAYYdaHR0cDovL2NhLnNv
bWVjYS1pbmMuY29tL29jc3AwKQYIKwYBBQUHMAKGHWh0dHA6Ly9jYS5zb21lY2Et
aW5jLmNvbS9yb290MBMGA1UdIAQMMAowCAYGZ4EMAQICMC0GA1UdHwQmMCQwIqAg
oB6GHGh0dHA6Ly9jYS5zb21lY2EtaW5jLmNvbS9jcmwwGQYDVR0RAQEABA8wDYIL
ZXhhbXBsZS5vcmcwDQYJKoZIhvcNAQELBQADggEBAFkZz2ci1MfTn1e9fNJJ0Gox
hP48MQlaNlznYwwMaODvGPnGJE/AVdC5xmpjXPwdJyMVsVkvDHPR0RiYRgbBBco4
FS0mfncyXraDcrrcMxVUa1jbwaFgRuzejtk7AN5vkPrDUlBtHN1G7TB3qK/RuULn
Kv9GncqxWrnTgRM3Skd7l+oV9sqaCyQx5KdsdNvlinvPfwC2niKQBn94+Xntce7w
8kcYmG7XHNh0o8CEEz1+Ta+dIU/OfahwiPazdspy6v96MuBMSjpGTf5rlE4yKNbA
wzdrILF5zeDuzB6s4qlIrXokFOKpFpqToNqmR4HH3HzUMOlqeKvuzneYV3Eb7VE=
-----END CERTIFICATE-----
