Certificate:
    Data:
        Version: 3 (0x2)
        Serial Number: 3 (0x3)
        Signature Algorithm: ecdsa-with-SHA256
        Issuer: 
        Validity
            Not Before: Sep  1 00:00:00 2021 GMT
            Not After : Nov 30 00:00:00 9998 GMT
        Subject: CN = 
        Subject Public Key Info:
            Public Key Algorithm: id-ecPublicKey
                Public-Key: (256 bit)
                pub:
                    04:34:95:e1:45:91:13:c1:f9:12:b3:e4:15:49:59:
                    4c:f2:f9:8c:83:07:a9:61:bf:5b:08:d0:0d:08:65:
                    b7:7c:bd:a6:00:d1:60:c7:9a:97:8e:bb:8e:2d:41:
                    56:6c:a4:0f:63:b7:d9:8a:a9:2a:bb:85:e9:f2:1c:
                    9e:ac:81:c2:89
                ASN1 OID: prime256v1
                NIST CURVE: P-256
        X509v3 extensions:
            X509v3 Subject Alternative Name: 
                DNS:example.com, DNS:other.example.com, DNS:third.example.com
    Signature Algorithm: ecdsa-with-SHA256
         30:44:02:20:7a:b5:41:4e:9a:a6:3b:fe:74:2c:c8:de:62:bc:
         a9:44:82:70:12:c2:8c:1c:3c:48:cc:22:cd:1f:2c:43:b6:13:
         02:20:54:83:3a:f4:ef:4f:8e:b0:91:0c:c3:fc:80:8d:36:34:
         f3:12:b2:2e:57:05:c1:b8:ec:5e:bc:ae:b7:3d:29:c5
-----BEGIN CERTIFICATE-----
MIIBOjCB4qADAgECAgEDMAoGCCqGSM49BAMCMAAwIBcNMjEwOTAxMDAwMDAwWhgP
OTk5ODExMzAwMDAwMDBaMAsxCTAHBgNVBAMTADBZMBMGByqGSM49AgEGCCqGSM49
AwEHA0IABDSV4UWRE8H5ErPkFUlZTPL5jIMHqWG/WwjQDQhlt3y9pgDRYMeal467
ji1BVmykD2O32YqpKruF6fIcnqyBwomjQDA+MDwGA1UdEQQ1MDOCC2V4YW1wbGUu
Y29tghFvdGhlci5leGFtcGxlLmNvbYIRdGhpcmQuZXhhbXBsZS5jb20wCgYIKoZI
zj0EAwIDRwAwRAIgerVBTpqmO/50LMjeYrypRIJwEsKMHDxIzCLNHyxDthMCIFSD
OvTvT46wkQzD/ICNNjTzErIuVwXBuOxevK63PSnF
-----END CERTIFICATE-----