Certificate:
    Data:
        Version: 3 (0x2)
        Serial Number: 3 (0x3)
        Signature Algorithm: ecdsa-with-SHA256
        Issuer: 
        Validity
            Not Before: Sep  1 00:00:00 2021 GMT
            Not After : Nov 30 00:00:00 9998 GMT
        Subject: CN = www.example.com
        Subject Public Key Info:
            Public Key Algorithm: id-ecPublicKey
                Public-Key: (256 bit)
                pub:
                    04:17:ac:a2:45:1c:13:01:c6:3a:46:41:64:a9:2a:
                    34:7b:00:21:48:9b:6a:40:d5:dc:0f:03:fa:d0:f2:
                    c0:d4:c7:19:4e:4a:7f:72:62:7d:bc:a1:63:5b:61:
                    13:19:81:50:3d:11:98:b7:06:fb:e5:c9:0f:db:79:
                    c2:db:6a:27:06
                ASN1 OID: prime256v1
                NIST CURVE: P-256
    Signature Algorithm: ecdsa-with-SHA256
         30:46:02:21:00:83:5b:ea:7f:ed:26:98:ee:4c:f6:8a:f4:48:
         c0:0c:bb:51:5f:de:29:cc:47:58:50:86:2a:de:bc:ac:5e:ef:
         3f:02:21:00:8b:9b:b4:6b:7e:08:8d:2b:6c:44:bb:76:3d:03:
         4f:5f:c9:eb:0e:e4:df:49:2d:b2:04:e4:22:35:a9:35:fb:08
-----BEGIN CERTIFICATE-----
MIIBDTCBs6ADAgECAgEDMAoGCCqGSM49BAMCMAAwIBcNMjEwOTAxMDAwMDAwWhgP
OTk5ODExMzAwMDAwMDBaMBoxGDAWBgNVBAMTD3d3dy5leGFtcGxlLmNvbTBZMBMG
ByqGSM49AgEGCCqGSM49AwEHA0IABBesokUcEwHGOkZBZKkqNHsAIUibakDV3A8D
+tDywNTHGU5Kf3JifbyhY1thExmBUD0RmLcG++XJD9t5wttqJwajAjAAMAoGCCqG
SM49BAMCA0kAMEYCIQCDW+p/7SaY7kz2ivRIwAy7UV/eKcxHWFCGKt68rF7vPwIh
AIubtGt+CI0rbES7dj0DT1/J6w7k30ktsgTkIjWpNfsI
-----END CERTIFICATE-----