Certificate:
    Data:
        Version: 3 (0x2)
        Serial Number: 3 (0x3)
        Signature Algorithm: ecdsa-with-SHA256
        Issuer: CN = Intermediate
        Validity
            Not Before: Sep 30 00:00:00 2023 GMT
            Not After : Nov 30 00:00:00 9998 GMT
        Subject: 
        Subject Public Key Info:
            Public Key Algorithm: id-ecPublicKey
                Public-Key: (256 bit)
                pub:
                    04:bf:62:3c:0c:7c:c9:3f:73:ee:5c:e5:80:08:dd:
                    90:10:4e:e3:01:ce:1d:55:ca:3e:95:a5:5d:96:24:
                    f4:14:08:0e:14:8a:4d:9c:62:38:2c:82:1b:df:66:
                    2a:d1:34:de:04:c5:df:50:a6:8a:91:3b:01:b4:3c:
                    32:ed:15:f3:9f
                ASN1 OID: prime256v1
                NIST CURVE: P-256
    Signature Algorithm: ecdsa-with-SHA256
    Signature Value:
        30:46:02:21:00:92:f0:ec:d3:99:21:92:98:06:a9:9c:66:6b:
        e6:7b:6d:ee:e0:fa:d4:36:2a:ed:75:cc:6e:e5:b0:d9:45:4c:
        64:02:21:00:f7:45:a7:d1:db:66:ac:f3:af:c4:a8:fa:07:a3:
        97:8c:f6:2c:02:0a:fa:14:36:16:42:d2:91:91:f4:7b:97:d9
-----BEGIN CERTIFICATE-----
MIIBCjCBsKADAgECAgEDMAoGCCqGSM49BAMCMBcxFTATBgNVBAMTDEludGVybWVk
aWF0ZTAgFw0yMzA5MzAwMDAwMDBaGA85OTk4MTEzMDAwMDAwMFowADBZMBMGByqG
SM49AgEGCCqGSM49AwEHA0IABL9iPAx8yT9z7lzlgAjdkBBO4wHOHVXKPpWlXZYk
9BQIDhSKTZxiOCyCG99mKtE03gTF31CmipE7AbQ8Mu0V85+jAjAAMAoGCCqGSM49
BAMCA0kAMEYCIQCS8OzTmSGSmAapnGZr5ntt7uD61DYq7XXMbuWw2UVMZAIhAPdF
p9HbZqzzr8So+gejl4z2LAIK+hQ2FkLSkZH0e5fZ
-----END CERTIFICATE-----
