Certificate:
    Data:
        Version: 3 (0x2)
        Serial Number: 18008675309 (0x4316693ed)
    Signature Algorithm: sha256WithRSAEncryption
        Issuer: C = US, O = Mother Nature, OU = Everything, CN = Mother Nature
        Validity
            Not Before: Aug 10 16:04:31 2016
            Not After : Dec  1 06:07:08 2017 GMT
        Subject: C = US, O = Extreme Discord, OU = Chaos, L = Tallahassee, ST = FL, street = 3210 Holly Mill Run, postalCode = 30062, CN = gov.us
        Subject Public Key Info:
            Public Key Algorithm: rsaEncryption
                Public-Key: (512 bit)
                Modulus:
                    00:fa:62:a0:76:79:1f:f4:5a:93:e6:18:88:95:3c:
                    cd:ea:60:2d:b5:0a:92:78:85:21:64:65:8f:5a:ec:
                    c9:3d:27:4c:b3:b9:7e:ea:b3:c6:b5:1e:9d:63:f1:
                    d6:f0:77:69:5e:74:7f:c4:4e:f9:c5:dc:54:c4:0c:
                    bd:57:6c:78:55
                Exponent: 65537 (0x10001)
        X509v3 extensions:
            X509v3 Key Usage: critical
                Digital Signature, Key Encipherment, Certificate Sign
            X509v3 Extended Key Usage: 
                TLS Web Client Authentication, TLS Web Server Authentication
            X509v3 Basic Constraints: critical
                CA:FALSE
            X509v3 Authority Key Identifier: 
                keyid:01:02:03

            Authority Information Access: 
                OCSP - URI:http://theca.net/ocsp
                CA Issuers - URI:http://theca.net/totallythecert.crt

            X509v3 Certificate Policies: 
                Policy: 2.23.140.1.2.2

            X509v3 Name Constraints: 
                Permitted:
                  IP:192.168.1.1/1.2.3.4

            X509v3 Subject Key Identifier: 
                04:03:02:01
            X509v3 Subject Alternative Name: 
                DNS:gov.us, DNS:ˬ
            X509v3 Inhibit Any Policy: 
                ..
            Subject Information Access: 
                ..
    Signature Algorithm: sha256WithRSAEncryption
         55:d4:a3:f5:3d:a5:65:98:62:14:d1:e6:dc:92:ef:4d:d5:24:
         f8:76:4a:dd:75:cc:45:0a:f5:b8:0d:01:e8:66:c1:35:fd:43:
         0d:91:ca:05:68:f9:8e:99:f1:de:41:a3:c7:39:cf:47:4c:e2:
         4f:f9:8e:5d:2d:ee:50:a6:64:e7
-----BEGIN CERTIFICATE-----
MIIDCzCCAregAwIBAgIFBDFmk+0wCwYJKoZIhvcNAQELMFQxCzAJBgNVBAYTAlVT
MRYwFAYDVQQKEw1Nb3RoZXIgTmF0dXJlMRMwEQYDVQQLEwpFdmVyeXRoaW5nMRYw
FAYDVQQDEw1Nb3RoZXIgTmF0dXJlMQAwIhcRMTYwODEwMTYwNDMxLTA1MDAXDTE3
MTIwMTA2MDcwOFowgZsxCzAJBgNVBAYTAlVTMRgwFgYDVQQKEw9FeHRyZW1lIERp
c2NvcmQxDjAMBgNVBAsTBUNoYW9zMRQwEgYDVQQHEwtUYWxsYWhhc3NlZTELMAkG
A1UECBMCRkwxHDAaBgNVBAkTEzMyMTAgSG9sbHkgTWlsbCBSdW4xDjAMBgNVBBET
BTMwMDYyMQ8wDQYDVQQDEwZnb3YudXMxADBcMA0GCSqGSIb3DQEBAQUAA0sAMEgC
QQD6YqB2eR/0WpPmGIiVPM3qYC21CpJ4hSFkZY9a7Mk9J0yzuX7qs8a1Hp1j8dbw
d2ledH/ETvnF3FTEDL1XbHhVAgMBAAGjggEkMIIBIDAOBgNVHQ8BAf8EBAMCAKQw
HQYDVR0lBBYwFAYIKwYBBQUHAwIGCCsGAQUFBwMBMAwGA1UdEwEB/wQCMAAwDgYD
VR0jBAcwBYADAQIDMGIGCCsGAQUFBwEBBFYwVDAhBggrBgEFBQcwAYYVaHR0cDov
L3RoZWNhLm5ldC9vY3NwMC8GCCsGAQUFBzAChiNodHRwOi8vdGhlY2EubmV0L3Rv
dGFsbHl0aGVjZXJ0LmNydDATBgNVHSAEDDAKMAgGBmeBDAECAjAXBgNVHR4EEDAO
oAwwCocIwKgBAQECAwQwDQYDVR0OBAYEBAQDAgEwFQYDVR0RBA4wDIIGZ292LnVz
ggLAqDAJBgNVHTYEAgIBMA4GCCsGAQUFBwELBAICATALBgkqhkiG9w0BAQsDQQBV
1KP1PaVlmGIU0ebcku9N1ST4dkrddcxFCvW4DQHoZsE1/UMNkcoFaPmOmfHeQaPH
Oc9HTOJP+Y5dLe5QpmTn
-----END CERTIFICATE-----
