Certificate:
    Data:
        Version: 3 (0x2)
        Serial Number: 4800 (0x12c0)
        Signature Algorithm: sha256WithRSAEncryption
        Issuer: C=DE, ST=Bayern, L=N\xC3\x83\xC2\xBCrnberg, O=Siemens AG, OU=Trustcenter, CN=OliverCA/emailAddress=oliver.stiller@siemens.com
        Validity
            Not Before: Nov 27 16:12:18 2020 GMT
            Not After : Nov 27 16:12:18 2021 GMT
        Subject: O=testconstraints03, CN=testconstraints03
        Subject Public Key Info:
            Public Key Algorithm: rsaEncryption
                RSA Public-Key: (2048 bit)
                Modulus:
                    00:d3:15:17:16:58:95:e7:2e:75:eb:82:ed:b9:3c:
                    f9:ea:0b:d5:aa:a3:c7:3b:c4:44:a7:c9:0a:93:bc:
                    e5:4b:04:d8:be:7a:33:05:95:f4:f8:2b:37:8a:cb:
                    56:75:2b:d9:70:fc:6d:99:cf:1c:32:df:64:75:d6:
                    a4:a7:ca:f7:6b:69:10:b4:2b:61:9f:71:3e:70:6d:
                    3e:56:23:f1:5a:2f:36:68:ab:10:33:6f:6f:18:2d:
                    b4:8e:49:be:d4:e0:51:91:79:b9:8b:73:c6:de:98:
                    d6:46:b5:65:17:1b:ac:18:2a:63:65:24:7b:86:49:
                    bc:1e:f3:37:e4:39:c1:23:e6:f2:5a:34:5a:46:27:
                    70:67:63:e9:3c:b7:89:05:45:45:9e:44:b2:f3:6e:
                    04:1f:da:78:b1:85:31:ff:a0:09:11:8c:cc:70:35:
                    87:c4:06:f1:79:8b:0c:f7:02:52:46:4f:12:30:c7:
                    0d:fc:33:0b:e8:ca:f8:0d:e8:6b:45:1a:b6:49:a7:
                    a8:9f:ba:71:d6:b3:87:6d:f7:22:9f:25:7a:63:57:
                    69:4b:94:06:6a:6a:80:04:4c:e6:5d:0f:8c:6e:63:
                    29:29:f0:9b:ad:eb:4d:2e:a2:0f:7a:4e:ad:1a:6f:
                    81:71:63:0b:48:31:32:d5:46:31:a2:07:9a:80:46:
                    94:d7
                Exponent: 65537 (0x10001)
        X509v3 extensions:
            X509v3 Extended Key Usage: 
                Any Extended Key Usage, TLS Web Server Authentication
            X509v3 Key Usage: 
                Digital Signature, Key Encipherment
            X509v3 Name Constraints: 
                Permitted:
                  URI:http://www.example.com/foo/bar.html

    Signature Algorithm: sha256WithRSAEncryption
         65:b1:da:5e:e4:76:6d:94:a9:a9:59:59:4d:26:38:94:14:66:
         ed:83:e9:9f:34:3c:07:94:90:05:0e:7d:6a:e8:35:6f:8a:70:
         d9:b2:2c:9f:84:e1:f6:e0:61:02:75:6c:2a:5b:10:34:ca:9f:
         00:62:ca:6e:fc:4f:5a:bb:62:41:b4:25:34:95:6d:d2:3b:45:
         f6:d4:c0:34:00:38:57:74:83:60:6d:0a:ab:25:32:72:e6:00:
         a0:54:ab:0d:cd:25:d3:a2:81:b9:a6:25:2a:68:d0:7e:81:f9:
         3f:54:76:88:a6:e0:30:9c:78:e9:bf:29:92:4d:98:da:28:c2:
         8f:bb:81:68:5d:cc:de:22:35:86:47:f6:1a:b1:b4:19:4f:24:
         53:bc:d3:bb:3c:4c:a9:c1:83:d4:8e:8f:ca:33:e8:5e:d8:a1:
         27:fd:5d:7c:82:29:47:49:c1:05:98:cc:b4:92:14:3b:81:a4:
         0b:a9:27:95:db:87:c6:67:3f:2c:c7:ec:5b:bd:2c:9c:cb:60:
         af:e3:a8:fa:45:eb:ae:28:99:ec:72:53:d2:e6:1e:62:06:7a:
         e2:7d:64:c5:8c:79:be:f2:ae:3d:31:35:42:08:cb:2f:5f:6f:
         73:3a:8b:08:f4:a3:89:49:ed:4d:dc:ba:f2:34:c8:d8:fd:fb:
         b3:ee:ba:b7:60:ae:25:ac:a3:d2:fe:52:bf:b5:c2:5c:1b:db:
         14:6c:95:6e:24:3a:cd:67:5c:b1:31:4a:f0:6e:9e:3e:db:9e:
         ea:11:a9:ce:b9:4a:95:5d:20:46:28:59:f2:e0:b5:7d:aa:e7:
         1d:7e:4b:d3:a4:e0:4e:18:88:ad:19:85:34:83:3c:6e:d3:84:
         61:5b:71:25:32:f2:27:0b:d9:8e:c2:c5:69:25:eb:df:2a:25:
         94:00:e8:02:be:b5:82:49:46:23:18:e6:1d:5a:fb:ee:50:96:
         99:9d:68:86:cc:ca:b4:39:30:14:b5:ce:89:89:3b:85:d2:d7:
         26:2e:21:96:31:ca:06:e9:d7:7f:10:dd:9b:77:8c:49:17:65:
         6f:09:c7:ef:09:b3:84:f9:48:dc:1b:51:1a:9b:a9:a1:70:2a:
         c0:50:1b:13:8a:03:af:5d:8b:da:ae:ee:f0:3b:86:4b:75:27:
         2c:b6:c7:00:b9:2c:88:2a:a8:ef:17:d3:17:43:8d:3c:5c:a3:
         b0:37:4a:20:76:b8:11:67:f1:14:4e:0e:97:d5:d6:0f:2d:1b:
         66:d1:b2:8f:28:53:51:c5:aa:ad:79:41:99:09:60:25:84:fd:
         61:c9:49:9a:3a:2a:01:db:4d:a7:28:54:e6:a7:4e:49:c1:21:
         bb:01:10:56:82:93:4d:e2
-----BEGIN CERTIFICATE-----
MIIEsDCCApigAwIBAgICEsAwDQYJKoZIhvcNAQELBQAwgZ0xCzAJBgNVBAYTAkRF
MQ8wDQYDVQQIDAZCYXllcm4xFDASBgNVBAcMC07Dg8K8cm5iZXJnMRMwEQYDVQQK
DApTaWVtZW5zIEFHMRQwEgYDVQQLDAtUcnVzdGNlbnRlcjERMA8GA1UEAwwIT2xp
dmVyQ0ExKTAnBgkqhkiG9w0BCQEWGm9saXZlci5zdGlsbGVyQHNpZW1lbnMuY29t
MB4XDTIwMTEyNzE2MTIxOFoXDTIxMTEyNzE2MTIxOFowODEaMBgGA1UECgwRdGVz
dGNvbnN0cmFpbnRzMDMxGjAYBgNVBAMMEXRlc3Rjb25zdHJhaW50czAzMIIBIjAN
BgkqhkiG9w0BAQEFAAOCAQ8AMIIBCgKCAQEA0xUXFliV5y5164LtuTz56gvVqqPH
O8REp8kKk7zlSwTYvnozBZX0+Cs3istWdSvZcPxtmc8cMt9kddakp8r3a2kQtCth
n3E+cG0+ViPxWi82aKsQM29vGC20jkm+1OBRkXm5i3PG3pjWRrVlFxusGCpjZSR7
hkm8HvM35DnBI+byWjRaRidwZ2PpPLeJBUVFnkSy824EH9p4sYUx/6AJEYzMcDWH
xAbxeYsM9wJSRk8SMMcN/DML6Mr4DehrRRq2Saeon7px1rOHbfcinyV6Y1dpS5QG
amqABEzmXQ+MbmMpKfCbretNLqIPek6tGm+BcWMLSDEy1UYxogeagEaU1wIDAQAB
o14wXDAZBgNVHSUEEjAQBgRVHSUABggrBgEFBQcDATALBgNVHQ8EBAMCBaAwMgYD
VR0eBCswKaAnMCWGI2h0dHA6Ly93d3cuZXhhbXBsZS5jb20vZm9vL2Jhci5odG1s
MA0GCSqGSIb3DQEBCwUAA4ICAQBlsdpe5HZtlKmpWVlNJjiUFGbtg+mfNDwHlJAF
Dn1q6DVvinDZsiyfhOH24GECdWwqWxA0yp8AYspu/E9au2JBtCU0lW3SO0X21MA0
ADhXdINgbQqrJTJy5gCgVKsNzSXTooG5piUqaNB+gfk/VHaIpuAwnHjpvymSTZja
KMKPu4FoXczeIjWGR/YasbQZTyRTvNO7PEypwYPUjo/KM+he2KEn/V18gilHScEF
mMy0khQ7gaQLqSeV24fGZz8sx+xbvSycy2Cv46j6ReuuKJnsclPS5h5iBnrifWTF
jHm+8q49MTVCCMsvX29zOosI9KOJSe1N3LryNMjY/fuz7rq3YK4lrKPS/lK/tcJc
G9sUbJVuJDrNZ1yxMUrwbp4+257qEanOuUqVXSBGKFny4LV9qucdfkvTpOBOGIit
GYU0gzxu04RhW3ElMvInC9mOwsVpJevfKiWUAOgCvrWCSUYjGOYdWvvuUJaZnWiG
zMq0OTAUtc6JiTuF0tcmLiGWMcoG6dd/EN2bd4xJF2VvCcfvCbOE+UjcG1Eam6mh
cCrAUBsTigOvXYvaru7wO4ZLdScstscAuSyIKqjvF9MXQ408XKOwN0ogdrgRZ/EU
Tg6X1dYPLRtm0bKPKFNRxaqteUGZCWAlhP1hyUmaOioB202nKFTmp05JwSG7ARBW
gpNN4g==
-----END CERTIFICATE-----
