Certificate:
    Data:
        Version: 3 (0x2)
        Serial Number:
            39:af:b0:30:0c:15:a0:5e:c7:bd:ae:a5:9b:5b:ca:ea
        Signature Algorithm: sha256WithRSAEncryption
        Issuer: C = XX, O = Some CA, CN = Fake CA for zlint testing
        Validity
            Not Before: Jun 17 12:51:02 2024 GMT
            Not After : Jun 17 12:51:02 2025 GMT
        Subject: C = IT, ST = Some State or Province, L = Somewhere, O = Some Company Ltd., CN = example.org
        Subject Public Key Info:
            Public Key Algorithm: rsaEncryption
                RSA Public-Key: (2048 bit)
                Modulus:
                    00:e2:56:bb:2f:46:b0:0d:b2:04:c8:50:88:da:11:
                    08:2e:2f:ea:f0:0a:77:9c:32:29:5f:12:72:65:69:
                    a7:10:8d:de:45:91:9d:0a:14:7e:88:ed:61:32:0b:
                    01:c9:90:f2:53:57:61:85:76:24:f7:f1:ba:e9:d0:
                    f5:7f:16:0b:01:64:44:5d:b8:4d:7c:e5:c0:8b:e7:
                    f5:d0:71:d3:38:42:b8:39:ae:72:a3:2d:20:7e:5b:
                    38:5c:4d:a2:bf:ee:86:4c:e2:69:ae:82:36:b6:f1:
                    17:e5:bf:ca:c8:a5:ad:ef:1b:d6:1e:8f:20:84:61:
                    34:17:81:02:06:67:aa:09:11:2e:c5:21:18:93:1b:
                    8b:c5:23:24:f7:ec:98:9b:47:1b:51:52:2d:4a:b3:
                    ce:d3:13:3c:1a:dc:1f:b4:bc:3a:b8:a7:3b:0f:38:
                    88:f7:95:4f:fd:42:0a:ee:aa:36:06:64:84:98:cf:
                    1e:d7:26:b3:ad:93:8c:a5:8a:bf:48:24:a5:15:e4:
                    42:03:5e:5f:ff:c5:38:0d:12:36:87:a7:72:68:13:
                    82:27:19:7a:0a:f0:90:c4:7c:9c:03:f3:e2:a7:9f:
                    a9:f3:26:12:25:69:7c:f0:f2:cf:75:1c:3a:d9:a4:
                    cd:12:8b:0c:d5:69:8b:7b:e9:54:a8:57:00:ce:18:
                    1d:5d
                Exponent: 65537 (0x10001)
        X509v3 extensions:
            X509v3 Key Usage: critical
                Digital Signature, Key Encipherment
            X509v3 Extended Key Usage: 
                TLS Web Client Authentication, TLS Web Server Authentication
            X509v3 Subject Key Identifier: 
                EA:38:82:0F:72:B7:A1:71:EE:4E:09:9C:67:A8:8D:F7:B0:FD:69:D7
            X509v3 Authority Key Identifier: 
                keyid:E8:B6:F6:76:4B:D0:3B:E5:46:A5:F9:54:D4:7E:07:B3:DE:0D:60:3E

            Authority Information Access: 
                OCSP - URI:http://ca.someca-inc.com/ocsp
                CA Issuers - URI:http://ca.someca-inc.com/root

            X509v3 Subject Alternative Name: 
                DNS:example.org
            X509v3 Certificate Policies: 
                Policy: 2.23.140.1.2.2

            X509v3 CRL Distribution Points: 

                Full Name:
                  URI:http://ca.someca-inc.com/crl

    Signature Algorithm: sha256WithRSAEncryption
         df:64:c2:68:c0:18:5e:3b:b5:8d:4c:b3:45:88:6c:1f:24:7c:
         ea:1a:22:b7:a9:ae:c0:2b:5c:e7:9d:cc:92:73:1e:82:69:ef:
         a8:38:b9:85:fe:c2:b5:a3:8b:46:85:b1:71:d1:e9:4a:13:8e:
         7b:8a:86:79:76:79:ab:2f:5f:8f:1d:96:fd:a2:81:27:b6:26:
         d5:f5:4f:80:33:15:6f:9d:3a:5f:bd:15:09:96:07:d4:e5:cb:
         bb:86:d8:40:a6:d2:54:e2:a7:1e:80:be:67:ef:0f:18:6b:00:
         91:31:d8:f1:06:2e:ec:0f:ec:35:ec:6a:80:a3:9a:a9:4b:db:
         71:86:f7:5e:3f:5e:32:dd:9f:da:30:3c:80:fc:91:db:08:81:
         78:c7:f7:e0:76:c8:a8:10:92:5c:45:14:13:68:97:99:b0:fa:
         f3:5f:87:ed:95:75:dd:3c:5f:c7:08:d7:50:64:e0:3b:72:c2:
         64:6e:5a:10:5c:c2:c9:55:dc:0c:8e:15:9a:8b:76:1f:bf:bc:
         82:dc:2e:0c:8c:87:ec:93:12:9a:4d:06:c0:aa:52:e8:c4:5c:
         1b:3e:80:f2:b3:00:33:a8:9b:6b:e9:39:80:6a:9e:1e:c5:72:
         7f:6f:9c:19:d3:c9:5a:00:4f:8a:bc:80:ae:86:f1:4a:b6:6d:
         0b:21:c8:8e
-----BEGIN CERTIFICATE-----
MIIEeDCCA2CgAwIBAgIQOa+wMAwVoF7Hva6lm1vK6jANBgkqhkiG9w0BAQsFADBD
MQswCQYDVQQGEwJYWDEQMA4GA1UEChMHU29tZSBDQTEiMCAGA1UEAxMZRmFrZSBD
QSBmb3IgemxpbnQgdGVzdGluZzAeFw0yNDA2MTcxMjUxMDJaFw0yNTA2MTcxMjUx
MDJaMHQxCzAJBgNVBAYTAklUMR8wHQYDVQQIExZTb21lIFN0YXRlIG9yIFByb3Zp
bmNlMRIwEAYDVQQHEwlTb21ld2hlcmUxGjAYBgNVBAoTEVNvbWUgQ29tcGFueSBM
dGQuMRQwEgYDVQQDEwtleGFtcGxlLm9yZzCCASIwDQYJKoZIhvcNAQEBBQADggEP
ADCCAQoCggEBAOJWuy9GsA2yBMhQiNoRCC4v6vAKd5wyKV8ScmVppxCN3kWRnQoU
fojtYTILAcmQ8lNXYYV2JPfxuunQ9X8WCwFkRF24TXzlwIvn9dBx0zhCuDmucqMt
IH5bOFxNor/uhkziaa6CNrbxF+W/ysilre8b1h6PIIRhNBeBAgZnqgkRLsUhGJMb
i8UjJPfsmJtHG1FSLUqzztMTPBrcH7S8OrinOw84iPeVT/1CCu6qNgZkhJjPHtcm
s62TjKWKv0gkpRXkQgNeX//FOA0SNoencmgTgicZegrwkMR8nAPz4qefqfMmEiVp
fPDyz3UcOtmkzRKLDNVpi3vpVKhXAM4YHV0CAwEAAaOCATUwggExMA4GA1UdDwEB
/wQEAwIFoDAdBgNVHSUEFjAUBggrBgEFBQcDAgYIKwYBBQUHAwEwHQYDVR0OBBYE
FOo4gg9yt6Fx7k4JnGeojfew/WnXMB8GA1UdIwQYMBaAFOi29nZL0DvlRqX5VNR+
B7PeDWA+MGQGCCsGAQUFBwEBBFgwVjApBggrBgEFBQcwAYYdaHR0cDovL2NhLnNv
bWVjYS1pbmMuY29tL29jc3AwKQYIKwYBBQUHMAKGHWh0dHA6Ly9jYS5zb21lY2Et
aW5jLmNvbS9yb290MBYGA1UdEQQPMA2CC2V4YW1wbGUub3JnMBMGA1UdIAQMMAow
CAYGZ4EMAQICMC0GA1UdHwQmMCQwIqAgoB6GHGh0dHA6Ly9jYS5zb21lY2EtaW5j
LmNvbS9jcmwwDQYJKoZIhvcNAQELBQADggEBAN9kwmjAGF47tY1Ms0WIbB8kfOoa
IreprsArXOedzJJzHoJp76g4uYX+wrWji0aFsXHR6UoTjnuKhnl2easvX48dlv2i
gSe2JtX1T4AzFW+dOl+9FQmWB9Tly7uG2ECm0lTipx6AvmfvDxhrAJEx2PEGLuwP
7DXsaoCjmqlL23GG914/XjLdn9owPID8kdsIgXjH9+B2yKgQklxFFBNol5mw+vNf
h+2Vdd08X8cI11Bk4DtywmRuWhBcwslV3AyOFZqLdh+/vILcLgyMh+yTEppNBsCq
UujEXBs+gPKzADOom2vpOYBqnh7Fcn9vnBnTyVoAT4q8gK6G8Uq2bQshyI4=
-----END CERTIFICATE-----
