Certificate:
    Data:
        Version: 3 (0x2)
        Serial Number:
            ff:3b:e5:b4:87:c4:99:76:ec:d5:a6:83:eb:10:78:02
        Signature Algorithm: sha256WithRSAEncryption
        Issuer: C = XX, O = Some CA, CN = Fake CA for zlint testing
        Validity
            Not Before: Jun 17 12:58:42 2024 GMT
            Not After : Jun 17 12:58:42 2025 GMT
        Subject: C = Es, ST = Some State or Province, L = Somewhere, O = Some Company Ltd., CN = example.org
        Subject Public Key Info:
            Public Key Algorithm: rsaEncryption
                RSA Public-Key: (2048 bit)
                Modulus:
                    00:a9:a4:f9:fb:b5:ae:9f:61:c5:7c:af:67:b3:ae:
                    06:7d:0f:1e:49:f8:c8:1c:fa:52:8b:57:5d:b7:a8:
                    a8:bc:39:f9:89:0b:fa:e4:f1:8a:45:bc:25:e6:b7:
                    9b:c6:e4:95:9e:a3:59:01:1b:d7:f6:f3:b2:3f:14:
                    e0:2a:88:68:00:5a:29:00:9f:6a:5a:f8:b6:14:56:
                    9b:5b:f6:2f:2a:ac:04:d3:e2:b7:1e:b0:92:b3:56:
                    ce:34:75:19:76:50:fd:4e:51:53:d5:83:76:09:d5:
                    24:54:de:7c:20:3e:60:2c:c8:4f:8d:6e:a7:50:71:
                    ca:15:27:5e:fe:f2:f0:ca:a0:6a:c1:9e:03:f3:05:
                    16:69:37:cf:84:60:8c:2b:10:53:af:bc:c9:0b:d3:
                    78:c6:e6:3e:2e:48:a6:95:11:6e:78:ba:c3:61:3e:
                    f3:40:09:6d:b4:f0:9f:f0:f4:02:8f:84:fc:5d:cf:
                    c3:80:0b:22:0f:95:8a:7b:3e:d1:a1:b5:56:b6:9f:
                    05:e0:99:1c:6d:a6:c9:9f:f8:82:aa:3e:27:02:bc:
                    38:66:0f:20:07:cd:95:13:fe:d1:5a:99:e9:ff:b5:
                    9a:d4:b4:d3:66:a1:ee:16:dd:f2:18:ae:d2:dc:0a:
                    f4:54:b7:30:69:39:8b:c7:c3:77:9b:b3:1a:69:96:
                    78:a5
                Exponent: 65537 (0x10001)
        X509v3 extensions:
            X509v3 Key Usage: critical
                Digital Signature, Key Encipherment
            X509v3 Extended Key Usage: 
                TLS Web Client Authentication, TLS Web Server Authentication
            X509v3 Subject Key Identifier: 
                B4:94:A3:B1:62:87:63:D7:7A:77:35:EA:52:FF:FA:49:2F:F3:76:71
            X509v3 Authority Key Identifier: 
                keyid:E8:B6:F6:76:4B:D0:3B:E5:46:A5:F9:54:D4:7E:07:B3:DE:0D:60:3E

            Authority Information Access: 
                OCSP - URI:http://ca.someca-inc.com/ocsp
                CA Issuers - URI:http://ca.someca-inc.com/root

            X509v3 Subject Alternative Name: 
                DNS:example.org
            X509v3 Certificate Policies: 
                Policy: 2.23.140.1.2.2

            X509v3 CRL Distribution Points: 

                Full Name:
                  URI:http://ca.someca-inc.com/crl

    Signature Algorithm: sha256WithRSAEncryption
         26:f1:47:a3:cc:f9:cf:c2:b6:83:c4:f5:1e:74:f5:46:f5:d8:
         4a:75:e5:20:cd:f2:b1:3b:f7:b7:f7:39:ff:78:09:d4:bc:c8:
         4a:2b:45:8a:08:95:67:b7:9c:ca:61:65:f6:22:62:78:bd:1b:
         3d:6c:2a:2f:09:4d:f1:61:6a:d2:64:a1:59:87:c2:24:74:7f:
         6c:ad:f1:da:53:a7:3c:6a:2c:88:78:00:88:aa:33:51:d1:08:
         19:a4:7e:37:ee:85:a6:77:7d:15:83:a1:f8:b4:2f:26:fd:b4:
         f4:d0:9b:7b:15:c0:ec:7a:20:ea:fb:49:ec:7c:32:86:38:51:
         c6:6b:91:9a:c8:3a:a3:15:bc:0d:b2:ac:f7:b5:f6:9b:37:94:
         4d:71:2b:5a:b8:63:98:87:de:3e:a3:9a:8a:a3:12:d2:8a:f0:
         30:95:d1:33:09:99:67:e9:ec:a4:4f:19:ca:7f:f1:03:42:79:
         3c:52:19:b1:41:ab:b6:72:5b:2a:66:50:2c:13:dc:49:c3:26:
         39:7a:36:f0:1c:d2:3e:c1:43:da:bc:52:cc:4d:c6:bd:13:01:
         7e:f9:bf:d1:e5:0e:04:c8:0a:68:93:cb:f5:41:26:d3:f3:a0:
         c4:65:9f:8a:e7:28:b6:11:b8:2e:b3:6c:0f:41:81:5c:26:c4:
         d8:0f:fc:91
-----BEGIN CERTIFICATE-----
MIIEeTCCA2GgAwIBAgIRAP875bSHxJl27NWmg+sQeAIwDQYJKoZIhvcNAQELBQAw
QzELMAkGA1UEBhMCWFgxEDAOBgNVBAoTB1NvbWUgQ0ExIjAgBgNVBAMTGUZha2Ug
Q0EgZm9yIHpsaW50IHRlc3RpbmcwHhcNMjQwNjE3MTI1ODQyWhcNMjUwNjE3MTI1
ODQyWjB0MQswCQYDVQQGEwJFczEfMB0GA1UECBMWU29tZSBTdGF0ZSBvciBQcm92
aW5jZTESMBAGA1UEBxMJU29tZXdoZXJlMRowGAYDVQQKExFTb21lIENvbXBhbnkg
THRkLjEUMBIGA1UEAxMLZXhhbXBsZS5vcmcwggEiMA0GCSqGSIb3DQEBAQUAA4IB
DwAwggEKAoIBAQCppPn7ta6fYcV8r2ezrgZ9Dx5J+Mgc+lKLV123qKi8OfmJC/rk
8YpFvCXmt5vG5JWeo1kBG9f287I/FOAqiGgAWikAn2pa+LYUVptb9i8qrATT4rce
sJKzVs40dRl2UP1OUVPVg3YJ1SRU3nwgPmAsyE+NbqdQccoVJ17+8vDKoGrBngPz
BRZpN8+EYIwrEFOvvMkL03jG5j4uSKaVEW54usNhPvNACW208J/w9AKPhPxdz8OA
CyIPlYp7PtGhtVa2nwXgmRxtpsmf+IKqPicCvDhmDyAHzZUT/tFamen/tZrUtNNm
oe4W3fIYrtLcCvRUtzBpOYvHw3ebsxpplnilAgMBAAGjggE1MIIBMTAOBgNVHQ8B
Af8EBAMCBaAwHQYDVR0lBBYwFAYIKwYBBQUHAwIGCCsGAQUFBwMBMB0GA1UdDgQW
BBS0lKOxYodj13p3NepS//pJL/N2cTAfBgNVHSMEGDAWgBTotvZ2S9A75Ual+VTU
fgez3g1gPjBkBggrBgEFBQcBAQRYMFYwKQYIKwYBBQUHMAGGHWh0dHA6Ly9jYS5z
b21lY2EtaW5jLmNvbS9vY3NwMCkGCCsGAQUFBzAChh1odHRwOi8vY2Euc29tZWNh
LWluYy5jb20vcm9vdDAWBgNVHREEDzANggtleGFtcGxlLm9yZzATBgNVHSAEDDAK
MAgGBmeBDAECAjAtBgNVHR8EJjAkMCKgIKAehhxodHRwOi8vY2Euc29tZWNhLWlu
Yy5jb20vY3JsMA0GCSqGSIb3DQEBCwUAA4IBAQAm8UejzPnPwraDxPUedPVG9dhK
deUgzfKxO/e39zn/eAnUvMhKK0WKCJVnt5zKYWX2ImJ4vRs9bCovCU3xYWrSZKFZ
h8IkdH9srfHaU6c8aiyIeACIqjNR0QgZpH437oWmd30Vg6H4tC8m/bT00Jt7FcDs
eiDq+0nsfDKGOFHGa5GayDqjFbwNsqz3tfabN5RNcStauGOYh94+o5qKoxLSivAw
ldEzCZln6eykTxnKf/EDQnk8UhmxQau2clsqZlAsE9xJwyY5ejbwHNI+wUPavFLM
Tca9EwF++b/R5Q4EyApok8v1QSbT86DEZZ+K5yi2Ebgus2wPQYFcJsTYD/yR
-----END CERTIFICATE-----
