Certificate:
    Data:
        Version: 3 (0x2)
        Serial Number:
            9e:87:87:03:f4:da:fc:d1:1b:7a:87:12:31:89:5a:7a
        Signature Algorithm: sha256WithRSAEncryption
        Issuer: C = XX, O = Some CA, CN = Fake CA for zlint testing
        Validity
            Not Before: Jun 17 12:54:36 2024 GMT
            Not After : Jun 17 12:54:36 2025 GMT
        Subject: C = de, ST = Some State or Province, L = Somewhere, O = Some Company Ltd., CN = example.org
        Subject Public Key Info:
            Public Key Algorithm: rsaEncryption
                RSA Public-Key: (2048 bit)
                Modulus:
                    00:d2:85:c1:2c:56:53:86:a8:67:fa:1b:79:0d:b0:
                    21:ec:a5:d7:cf:34:ab:f8:eb:bb:e9:a6:b7:5c:3b:
                    36:6a:ed:9f:1f:b2:75:f1:70:03:fb:ca:01:dc:fb:
                    52:aa:8d:47:65:6b:f7:b2:76:a7:0b:2b:5e:70:82:
                    f7:3e:58:1e:38:6e:f4:c5:e2:9b:b8:5d:9f:ad:b0:
                    25:13:0f:e4:19:ac:08:12:cb:bd:1d:85:f6:11:d6:
                    59:f8:db:a3:28:63:71:00:1d:19:38:d2:77:61:21:
                    14:91:45:bc:a2:f9:e5:60:64:c8:4e:9a:f8:65:2c:
                    09:86:77:20:ab:27:ee:b9:70:b0:35:0b:75:9b:7e:
                    d5:4f:a1:d9:46:ce:56:88:a3:02:2e:45:c3:84:09:
                    5b:b7:60:5c:83:ae:b3:d7:a7:78:b8:db:dd:e8:44:
                    83:70:b8:11:c8:a7:b0:75:3d:0d:f7:f6:f6:47:77:
                    1e:df:05:5f:fc:c7:9d:0c:cb:71:4e:e2:ad:1f:b1:
                    ee:aa:36:87:5a:66:5b:c0:18:c6:8a:1d:95:11:66:
                    10:dd:a2:12:96:7d:a8:6b:ae:06:7e:9e:2b:0e:d4:
                    0c:ba:63:d7:06:c8:c5:57:38:7c:c8:8a:ac:1c:b3:
                    a7:dc:a3:a7:4d:24:45:2a:03:98:9e:40:b7:cd:00:
                    e1:79
                Exponent: 65537 (0x10001)
        X509v3 extensions:
            X509v3 Key Usage: critical
                Digital Signature, Key Encipherment
            X509v3 Extended Key Usage: 
                TLS Web Client Authentication, TLS Web Server Authentication
            X509v3 Subject Key Identifier: 
                14:9E:EF:23:D5:A1:C8:38:E9:DA:B8:A9:24:8A:DE:FA:A9:D9:1D:F6
            X509v3 Authority Key Identifier: 
                keyid:E8:B6:F6:76:4B:D0:3B:E5:46:A5:F9:54:D4:7E:07:B3:DE:0D:60:3E

            Authority Information Access: 
                OCSP - URI:http://ca.someca-inc.com/ocsp
                CA Issuers - URI:http://ca.someca-inc.com/root

            X509v3 Subject Alternative Name: 
                DNS:example.org
            X509v3 Certificate Policies: 
                Policy: 2.23.140.1.2.2

            X509v3 CRL Distribution Points: 

                Full Name:
                  URI:http://ca.someca-inc.com/crl

    Signature Algorithm: sha256WithRSAEncryption
         a6:ef:ce:3a:34:72:d7:cb:55:26:fa:8f:34:3b:59:a7:c3:c5:
         9d:85:be:b5:05:9e:09:e4:54:66:0e:57:4f:e8:1c:5c:c0:19:
         f9:8c:f5:d4:b8:84:cc:eb:59:49:c3:db:e8:a5:e5:47:c5:35:
         57:13:8e:0b:00:f2:05:c5:a3:0e:b3:87:f5:13:7f:26:79:90:
         8a:46:65:57:c0:8d:3e:ab:65:cc:71:d0:b1:b4:6d:d1:63:51:
         4a:ef:7b:d7:34:0c:67:52:93:c3:c7:e5:46:af:03:09:67:d3:
         24:23:df:ee:cd:29:3f:a8:13:5e:8f:93:dc:8a:7d:78:39:94:
         63:d9:bc:71:7b:08:1e:0f:22:61:50:9b:ad:4d:6e:26:33:6e:
         83:eb:43:6d:e8:85:b7:2b:d5:40:9e:ed:36:3d:7a:f6:94:e1:
         b0:c1:92:e8:e7:7f:80:2d:1a:d0:93:3c:0d:e8:39:64:ae:25:
         9a:92:d7:44:06:cb:9f:4b:dd:80:fe:b6:d3:7a:ba:72:69:46:
         92:4f:07:ed:4f:eb:d1:f8:b1:3e:01:26:26:a2:ba:4f:f7:11:
         dd:b9:eb:36:6e:b5:02:3c:50:1e:1c:b1:c3:0d:39:5b:f7:af:
         98:36:aa:02:0c:dc:c6:40:c5:6c:d8:ef:0d:87:ce:2f:9f:41:
         33:2d:9d:5d
-----BEGIN CERTIFICATE-----
MIIEeTCCA2GgAwIBAgIRAJ6HhwP02vzRG3qHEjGJWnowDQYJKoZIhvcNAQELBQAw
QzELMAkGA1UEBhMCWFgxEDAOBgNVBAoTB1NvbWUgQ0ExIjAgBgNVBAMTGUZha2Ug
Q0EgZm9yIHpsaW50IHRlc3RpbmcwHhcNMjQwNjE3MTI1NDM2WhcNMjUwNjE3MTI1
NDM2WjB0MQswCQYDVQQGEwJkZTEfMB0GA1UECBMWU29tZSBTdGF0ZSBvciBQcm92
aW5jZTESMBAGA1UEBxMJU29tZXdoZXJlMRowGAYDVQQKExFTb21lIENvbXBhbnkg
THRkLjEUMBIGA1UEAxMLZXhhbXBsZS5vcmcwggEiMA0GCSqGSIb3DQEBAQUAA4IB
DwAwggEKAoIBAQDShcEsVlOGqGf6G3kNsCHspdfPNKv467vpprdcOzZq7Z8fsnXx
cAP7ygHc+1KqjUdla/eydqcLK15wgvc+WB44bvTF4pu4XZ+tsCUTD+QZrAgSy70d
hfYR1ln426MoY3EAHRk40ndhIRSRRbyi+eVgZMhOmvhlLAmGdyCrJ+65cLA1C3Wb
ftVPodlGzlaIowIuRcOECVu3YFyDrrPXp3i4293oRINwuBHIp7B1PQ339vZHdx7f
BV/8x50My3FO4q0fse6qNodaZlvAGMaKHZURZhDdohKWfahrrgZ+nisO1Ay6Y9cG
yMVXOHzIiqwcs6fco6dNJEUqA5ieQLfNAOF5AgMBAAGjggE1MIIBMTAOBgNVHQ8B
Af8EBAMCBaAwHQYDVR0lBBYwFAYIKwYBBQUHAwIGCCsGAQUFBwMBMB0GA1UdDgQW
BBQUnu8j1aHIOOnauKkkit76qdkd9jAfBgNVHSMEGDAWgBTotvZ2S9A75Ual+VTU
fgez3g1gPjBkBggrBgEFBQcBAQRYMFYwKQYIKwYBBQUHMAGGHWh0dHA6Ly9jYS5z
b21lY2EtaW5jLmNvbS9vY3NwMCkGCCsGAQUFBzAChh1odHRwOi8vY2Euc29tZWNh
LWluYy5jb20vcm9vdDAWBgNVHREEDzANggtleGFtcGxlLm9yZzATBgNVHSAEDDAK
MAgGBmeBDAECAjAtBgNVHR8EJjAkMCKgIKAehhxodHRwOi8vY2Euc29tZWNhLWlu
Yy5jb20vY3JsMA0GCSqGSIb3DQEBCwUAA4IBAQCm7846NHLXy1Um+o80O1mnw8Wd
hb61BZ4J5FRmDldP6BxcwBn5jPXUuITM61lJw9vopeVHxTVXE44LAPIFxaMOs4f1
E38meZCKRmVXwI0+q2XMcdCxtG3RY1FK73vXNAxnUpPDx+VGrwMJZ9MkI9/uzSk/
qBNej5Pcin14OZRj2bxxewgeDyJhUJutTW4mM26D60Nt6IW3K9VAnu02PXr2lOGw
wZLo53+ALRrQkzwN6DlkriWaktdEBsufS92A/rbTerpyaUaSTwftT+vR+LE+ASYm
orpP9xHdues2brUCPFAeHLHDDTlb96+YNqoCDNzGQMVs2O8Nh84vn0EzLZ1d
-----END CERTIFICATE-----
