Certificate Revocation List (CRL):
        Version 2 (0x1)
        Signature Algorithm: sha256WithRSAEncryption
        Issuer: C = XX, O = Fake CA for Zlint testing
        Last Update: Feb  9 10:13:01 2025 GMT
        Next Update: Feb 20 10:13:01 2025 GMT
        CRL extensions:
            X509v3 Authority Key Identifier: 
                keyid:DD:58:3F:61:BD:D8:5E:2B:49:E8:51:05:88:BE:FD:77:F0:29:24:DF

            X509v3 CRL Number: 
                123
Revoked Certificates:
    Serial Number: BC3A0DC310B62A745AF0C705D39FB89D
        Revocation Date: Apr 22 01:49:46 2022 GMT
        CRL entry extensions:
            X509v3 CRL Reason Code: 
                Cessation Of Operation
    Serial Number: 9C2CC243610DAD1C678F908FC0009066
        Revocation Date: Jul 24 06:22:30 2024 GMT
        CRL entry extensions:
            X509v3 CRL Reason Code: 
                Affiliation Changed
    Serial Number: FC331075FFF84DC79F88C240097E97E3
        Revocation Date: Mar 17 11:20:56 2022 GMT
    Serial Number: 559AC6F7961185B2A6DF9D24B56FC517
        Revocation Date: Nov 20 21:02:15 2024 GMT
        CRL entry extensions:
            X509v3 CRL Reason Code: 
                Affiliation Changed
    Serial Number: 2FC010EACA40B72B9290AE73768AF21B
        Revocation Date: Jun 14 18:02:55 2022 GMT
        CRL entry extensions:
            X509v3 CRL Reason Code: 
                Privilege Withdrawn
    Serial Number: 93E615007C224E5A3AECB18FFF0C80C4
        Revocation Date: Oct 21 05:03:24 2024 GMT
        CRL entry extensions:
            X509v3 CRL Reason Code: 
                Superseded
    Serial Number: AFDAD8555811F482F419A91A96E51654
        Revocation Date: May  7 08:40:20 2024 GMT
        CRL entry extensions:
            X509v3 CRL Reason Code: 
                Key Compromise
    Serial Number: 1A4AC0D27C742C2E67FDDB4C40A64264
        Revocation Date: Jan 20 01:20:41 2024 GMT
        CRL entry extensions:
            X509v3 CRL Reason Code: 
                Affiliation Changed
    Serial Number: 107BEEB188C2307FA1DA51F7F9A9F22B
        Revocation Date: Oct 29 10:51:32 2023 GMT
    Serial Number: 03CBD8E55D9043DAAAA128A0B85C7E97
        Revocation Date: Sep 22 17:30:25 2022 GMT
        CRL entry extensions:
            X509v3 CRL Reason Code: 
                Affiliation Changed
    Signature Algorithm: sha256WithRSAEncryption
         ce:28:4e:0d:ab:e4:9e:05:64:66:a7:25:09:12:2b:24:0f:48:
         af:0d:de:f9:7c:b4:6e:05:f6:e9:d7:9b:6f:ff:2f:53:38:f6:
         73:78:91:fd:71:31:6b:9b:d8:a4:a1:59:48:f3:61:f5:c4:23:
         3d:e8:5e:57:40:16:f2:4f:87:aa:15:96:ad:f2:b7:92:22:56:
         01:1c:66:5a:76:24:9f:fc:c3:1b:5e:7c:6b:6b:e8:76:a2:ee:
         fb:e8:1c:e5:2b:09:c7:13:67:ea:5b:ad:e6:a0:4e:36:60:38:
         e7:0b:a5:9b:af:19:e6:79:6e:ec:33:c3:18:49:ca:c6:80:9c:
         2b:ec:e2:09:db:55:71:1b:e6:10:42:0a:f0:7a:13:31:a9:19:
         5d:54:02:70:08:ca:80:b7:ed:48:e4:fd:01:6d:59:47:b4:c5:
         03:d4:1e:43:14:57:67:6b:59:5d:6c:3e:46:a4:f1:0a:0f:dc:
         e2:1e:c7:79:ae:2b:40:03:46:17:5a:8b:22:a8:62:73:c7:e9:
         bd:67:3b:3b:9b:33:b8:c5:21:1d:22:e4:60:4c:15:c2:44:4f:
         62:f5:35:7b:04:f1:e2:27:19:32:13:50:29:03:53:5f:be:35:
         38:69:83:31:58:88:7e:9a:00:3e:8f:2c:3a:49:9c:9c:1c:66:
         46:e2:c5:92
-----BEGIN X509 CRL-----
MIIDgzCCAmsCAQEwDQYJKoZIhvcNAQELBQAwMTELMAkGA1UEBhMCWFgxIjAgBgNV
BAoTGUZha2UgQ0EgZm9yIFpsaW50IHRlc3RpbmcXDTI1MDIwOTEwMTMwMVoXDTI1
MDIyMDEwMTMwMVowggHTMDACEQC8Og3DELYqdFrwxwXTn7idFw0yMjA0MjIwMTQ5
NDZaMAwwCgYDVR0VBAMKAQUwMAIRAJwswkNhDa0cZ4+Qj8AAkGYXDTI0MDcyNDA2
MjIzMFowDDAKBgNVHRUEAwoBAzAiAhEA/DMQdf/4TcefiMJACX6X4xcNMjIwMzE3
MTEyMDU2WjAvAhBVmsb3lhGFsqbfnSS1b8UXFw0yNDExMjAyMTAyMTVaMAwwCgYD
VR0VBAMKAQMwLwIQL8AQ6spAtyuSkK5zdoryGxcNMjIwNjE0MTgwMjU1WjAMMAoG
A1UdFQQDCgEJMDACEQCT5hUAfCJOWjrssY//DIDEFw0yNDEwMjEwNTAzMjRaMAww
CgYDVR0VBAMKAQQwMAIRAK/a2FVYEfSC9BmpGpblFlQXDTI0MDUwNzA4NDAyMFow
DDAKBgNVHRUEAwoBATAvAhAaSsDSfHQsLmf920xApkJkFw0yNDAxMjAwMTIwNDFa
MAwwCgYDVR0VBAMKAQMwIQIQEHvusYjCMH+h2lH3+anyKxcNMjMxMDI5MTA1MTMy
WjAvAhADy9jlXZBD2qqhKKC4XH6XFw0yMjA5MjIxNzMwMjVaMAwwCgYDVR0VBAMK
AQOgLzAtMB8GA1UdIwQYMBaAFN1YP2G92F4rSehRBYi+/XfwKSTfMAoGA1UdFAQD
AgF7MA0GCSqGSIb3DQEBCwUAA4IBAQDOKE4Nq+SeBWRmpyUJEiskD0ivDd75fLRu
Bfbp15tv/y9TOPZzeJH9cTFrm9ikoVlI82H1xCM96F5XQBbyT4eqFZat8reSIlYB
HGZadiSf/MMbXnxra+h2ou776BzlKwnHE2fqW63moE42YDjnC6WbrxnmeW7sM8MY
ScrGgJwr7OIJ21VxG+YQQgrwehMxqRldVAJwCMqAt+1I5P0BbVlHtMUD1B5DFFdn
a1ldbD5GpPEKD9ziHsd5ritAA0YXWosiqGJzx+m9Zzs7mzO4xSEdIuRgTBXCRE9i
9TV7BPHiJxkyE1ApA1NfvjU4aYMxWIh+mgA+jyw6SZycHGZG4sWS
-----END X509 CRL-----
