Certificate Revocation List (CRL):
        Version 2 (0x1)
        Signature Algorithm: sha256WithRSAEncryption
        Issuer: C = XX, O = Fake CA for Zlint testing
        Last Update: Feb  9 12:59:52 2025 GMT
        Next Update: Feb  9 12:59:52 2026 GMT
        CRL extensions:
            X509v3 Authority Key Identifier: 
                keyid:6F:4D:D7:14:D0:D8:C1:AC:5E:47:1F:DF:AF:F6:CB:21:87:8F:94:DC

            X509v3 CRL Number: 
                123
Revoked Certificates:
    Serial Number: D3A370CADD803DEB0FD5674EAB690363
        Revocation Date: Jun 21 22:06:01 2024 GMT
        CRL entry extensions:
            X509v3 CRL Reason Code: 
                Affiliation Changed
    Serial Number: F313BCF528BE5AE4F2213EB4102F5D2E
        Revocation Date: May 18 15:00:19 2022 GMT
        CRL entry extensions:
            X509v3 CRL Reason Code: 
                Cessation Of Operation
    Serial Number: EC4DACE756549CF21AD04275DA958C49
        Revocation Date: Aug 21 12:37:55 2023 GMT
        CRL entry extensions:
            X509v3 CRL Reason Code: 
                Key Compromise
    Serial Number: E37173A746352768528629EA9562D43E
        Revocation Date: Apr 21 04:59:14 2023 GMT
        CRL entry extensions:
            X509v3 CRL Reason Code: 
                Privilege Withdrawn
    Serial Number: 3D1F99D5F82CC7DC5062E992A3E7D25B
        Revocation Date: Nov  2 23:25:28 2023 GMT
        CRL entry extensions:
            X509v3 CRL Reason Code: 
                Key Compromise
    Serial Number: DE759D6DE5DC123E1E40FFCE5F4F954B
        Revocation Date: May  9 18:18:05 2023 GMT
    Serial Number: B582BABFAA5035FC5F4E700B0EC0FEAF
        Revocation Date: Jul 21 23:35:51 2023 GMT
        CRL entry extensions:
            X509v3 CRL Reason Code: 
                Superseded
    Serial Number: 3D4DC168AF89D487C7820AF098EC60E2
        Revocation Date: Aug  2 12:30:22 2023 GMT
        CRL entry extensions:
            X509v3 CRL Reason Code: 
                Superseded
    Serial Number: A1888767297F4FFE15F4F7D9C00A1CF1
        Revocation Date: Jul  4 02:42:22 2024 GMT
        CRL entry extensions:
            X509v3 CRL Reason Code: 
                Cessation Of Operation
    Serial Number: 4E89BFD7A4193A90D5DA1E91A51CAF7B
        Revocation Date: Aug 31 08:23:30 2023 GMT
        CRL entry extensions:
            X509v3 CRL Reason Code: 
                Cessation Of Operation
    Signature Algorithm: sha256WithRSAEncryption
         c7:ac:06:8f:59:e9:2a:61:3b:a4:11:65:db:a0:3c:20:e6:46:
         d9:22:a5:8a:e0:2b:5e:66:33:05:4b:3d:e0:7a:4a:05:f7:99:
         bf:62:0e:dd:e3:fb:d0:50:6c:7e:e2:ab:fd:6e:33:15:ea:39:
         14:ae:b8:aa:6a:da:54:02:b0:a3:f5:7f:88:b7:ee:cd:fb:7e:
         ca:b6:2b:6b:25:1f:2f:dc:76:ca:3a:44:16:31:b7:9a:20:57:
         5c:98:25:ac:16:00:f9:4f:0f:02:59:3f:8a:8b:89:21:3f:df:
         9b:46:b4:c3:60:13:73:9f:ef:b9:fd:39:e2:6d:18:a5:09:a1:
         81:c2:e6:5a:45:5d:0f:e7:d8:43:54:82:69:b7:a5:35:bc:4c:
         83:86:b6:81:b4:bb:d1:ec:2b:16:58:fd:b0:c3:f2:b1:57:47:
         40:ea:28:c3:71:43:6c:75:1e:e1:20:9d:ae:48:c0:df:ce:bc:
         8e:ed:c9:0c:d2:86:41:b3:ee:b8:c4:7d:a0:15:c1:af:b1:4b:
         0f:1c:dd:37:33:2a:aa:a0:98:d7:8b:a9:76:7e:e6:ca:04:54:
         6d:0b:40:fb:5c:fd:68:0b:7d:12:be:ed:82:62:d0:71:4b:f7:
         c0:aa:45:e5:91:4f:68:03:94:4f:9a:5f:4b:cf:e3:8b:b2:7e:
         a5:94:16:01
-----BEGIN X509 CRL-----
MIIDkzCCAnsCAQEwDQYJKoZIhvcNAQELBQAwMTELMAkGA1UEBhMCWFgxIjAgBgNV
BAoTGUZha2UgQ0EgZm9yIFpsaW50IHRlc3RpbmcXDTI1MDIwOTEyNTk1MloXDTI2
MDIwOTEyNTk1MlowggHjMDACEQDTo3DK3YA96w/VZ06raQNjFw0yNDA2MjEyMjA2
MDFaMAwwCgYDVR0VBAMKAQMwMAIRAPMTvPUovlrk8iE+tBAvXS4XDTIyMDUxODE1
MDAxOVowDDAKBgNVHRUEAwoBBTAwAhEA7E2s51ZUnPIa0EJ12pWMSRcNMjMwODIx
MTIzNzU1WjAMMAoGA1UdFQQDCgEBMDACEQDjcXOnRjUnaFKGKeqVYtQ+Fw0yMzA0
MjEwNDU5MTRaMAwwCgYDVR0VBAMKAQkwLwIQPR+Z1fgsx9xQYumSo+fSWxcNMjMx
MTAyMjMyNTI4WjAMMAoGA1UdFQQDCgEBMCICEQDedZ1t5dwSPh5A/85fT5VLFw0y
MzA1MDkxODE4MDVaMDACEQC1grq/qlA1/F9OcAsOwP6vFw0yMzA3MjEyMzM1NTFa
MAwwCgYDVR0VBAMKAQQwLwIQPU3BaK+J1IfHggrwmOxg4hcNMjMwODAyMTIzMDIy
WjAMMAoGA1UdFQQDCgEEMDACEQChiIdnKX9P/hX099nAChzxFw0yNDA3MDQwMjQy
MjJaMAwwCgYDVR0VBAMKAQUwLwIQTom/16QZOpDV2h6RpRyvexcNMjMwODMxMDgy
MzMwWjAMMAoGA1UdFQQDCgEFoC8wLTAfBgNVHSMEGDAWgBRvTdcU0NjBrF5HH9+v
9sshh4+U3DAKBgNVHRQEAwIBezANBgkqhkiG9w0BAQsFAAOCAQEAx6wGj1npKmE7
pBFl26A8IOZG2SKliuArXmYzBUs94HpKBfeZv2IO3eP70FBsfuKr/W4zFeo5FK64
qmraVAKwo/V/iLfuzft+yrYrayUfL9x2yjpEFjG3miBXXJglrBYA+U8PAlk/iouJ
IT/fm0a0w2ATc5/vuf054m0YpQmhgcLmWkVdD+fYQ1SCabelNbxMg4a2gbS70ewr
Flj9sMPysVdHQOoow3FDbHUe4SCdrkjA3868ju3JDNKGQbPuuMR9oBXBr7FLDxzd
NzMqqqCY14updn7mygRUbQtA+1z9aAt9Er7tgmLQcUv3wKpF5ZFPaAOUT5pfS8/j
i7J+pZQWAQ==
-----END X509 CRL-----
