Certificate Revocation List (CRL):
        Version 2 (0x1)
        Signature Algorithm: sha256WithRSAEncryption
        Issuer: C = EU, O = Some CA, CN = Fake CA for zlint testing
        Last Update: Apr 12 07:28:45 2024 GMT
        Next Update: Apr 13 07:28:45 2024 GMT
        CRL extensions:
            X509v3 Authority Key Identifier: 
                keyid:01:02:03:04:05

            X509v3 CRL Number: 
                291
No Revoked Certificates.
    Signature Algorithm: sha256WithRSAEncryption
         2d:fa:47:c8:5c:90:57:7f:24:87:2f:bc:a6:85:bb:6d:fd:5f:
         05:77:c1:0d:57:ff:98:22:1e:9f:a2:59:67:ab:47:5b:0e:0f:
         56:c9:8c:78:fc:4d:7d:77:b0:52:41:91:5a:d3:6b:c7:38:fb:
         f9:2a:14:7c:05:95:48:fb:84:e2:21:29:1d:ae:3e:9f:0d:2f:
         f5:39:4d:8f:f5:05:24:71:bb:fb:d5:7a:8f:39:ed:cc:e4:5e:
         2a:7b:b5:b5:c5:e6:c6:9b:07:0d:72:09:f7:35:61:dd:3c:02:
         c5:5b:45:37:9f:ea:00:70:6a:1b:87:76:29:21:57:4b:3d:7d:
         75:af:18:b7:d4:52:ad:25:ce:9e:02:0f:2c:03:82:1a:af:fd:
         c3:76:55:6e:5b:20:57:de:45:f1:ae:c5:08:c5:ad:a7:1f:88:
         ba:f8:b0:2b:4b:45:16:fc:5e:ce:d7:be:b5:37:b7:2d:4f:83:
         60:3b:76:44:c2:93:9a:b1:88:32:7c:ab:fe:37:87:45:8e:ef:
         38:81:f0:0d:78:fa:85:13:d7:3c:be:4a:da:c7:f0:a3:ab:b3:
         a3:b0:54:3e:68:d0:23:d8:87:0d:7a:7c:34:2d:8d:2b:8f:e0:
         58:06:06:65:26:e6:82:5f:33:a8:8c:c2:e8:18:4f:21:5c:35:
         95:a6:61:37
-----BEGIN X509 CRL-----
MIIBrzCBmAIBATANBgkqhkiG9w0BAQsFADBDMQswCQYDVQQGEwJFVTEQMA4GA1UE
ChMHU29tZSBDQTEiMCAGA1UEAxMZRmFrZSBDQSBmb3IgemxpbnQgdGVzdGluZxcN
MjQwNDEyMDcyODQ1WhcNMjQwNDEzMDcyODQ1WqAhMB8wEAYDVR0jBAkwB4AFAQID
BAUwCwYDVR0UBAQCAgEjMA0GCSqGSIb3DQEBCwUAA4IBAQAt+kfIXJBXfySHL7ym
hbtt/V8Fd8ENV/+YIh6follnq0dbDg9WyYx4/E19d7BSQZFa02vHOPv5KhR8BZVI
+4TiISkdrj6fDS/1OU2P9QUkcbv71XqPOe3M5F4qe7W1xebGmwcNcgn3NWHdPALF
W0U3n+oAcGobh3YpIVdLPX11rxi31FKtJc6eAg8sA4Iar/3DdlVuWyBX3kXxrsUI
xa2nH4i6+LArS0UW/F7O1761N7ctT4NgO3ZEwpOasYgyfKv+N4dFju84gfANePqF
E9c8vkrax/Cjq7OjsFQ+aNAj2IcNenw0LY0rj+BYBgZlJuaCXzOojMLoGE8hXDWV
pmE3
-----END X509 CRL-----
