Certificate Revocation List (CRL):
        Version 2 (0x1)
        Signature Algorithm: sha384WithRSAEncryption
        Issuer: C=XX, O=Fake CA for Zlint testing
        Last Update: Apr 21 13:22:17 2026 GMT
        Next Update: Apr 22 13:22:17 2026 GMT
        CRL extensions:
            X509v3 Authority Key Identifier: 
                FC:73:CA:F2:88:84:80:55:A6:FA:EF:D0:E4:C5:B7:99:CA:FA:C0:93
            X509v3 CRL Number: 
                123
Revoked Certificates:
    Serial Number: 0F20DAF6AB2121EFAC29002F8513DB61
        Revocation Date: Sep 26 19:59:50 2024 GMT
        CRL entry extensions:
            X509v3 CRL Reason Code: 
                Affiliation Changed
    Serial Number: A32DA356411015EC2D2A28DE0B80EE64
        Revocation Date: Feb 26 09:28:34 2025 GMT
        CRL entry extensions:
            X509v3 CRL Reason Code: 
                Superseded
    Serial Number: D3B66E68F711101270F54A0E192AD6E8
        Revocation Date: Mar 18 03:35:01 2026 GMT
        CRL entry extensions:
            X509v3 CRL Reason Code: 
                Affiliation Changed
    Serial Number: 7AAA474757C06BDCAC1C9308AFB5F2B7
        Revocation Date: Feb  8 20:45:45 2024 GMT
        CRL entry extensions:
            X509v3 CRL Reason Code: 
                Privilege Withdrawn
    Serial Number: CA83800AE1BBD98F5531CE8400448A50
        Revocation Date: Apr 25 16:25:14 2025 GMT
    Serial Number: 39AAD9A22280704E58144F63F1446758
        Revocation Date: Jan  5 07:29:14 2026 GMT
        CRL entry extensions:
            X509v3 CRL Reason Code: 
                Affiliation Changed
    Serial Number: 88AB1B24F938CAA274AA94D418E700D9
        Revocation Date: Jul 25 22:04:47 2024 GMT
        CRL entry extensions:
            X509v3 CRL Reason Code: 
                Key Compromise
    Serial Number: E42915CE1614B1103D2256E86906B5B4
        Revocation Date: Aug  9 16:56:22 2023 GMT
        CRL entry extensions:
            X509v3 CRL Reason Code: 
                Superseded
    Serial Number: 2AEB997D4CDCCE0CEC469DFB97531F56
        Revocation Date: Jan 14 13:00:08 2024 GMT
    Serial Number: B9C3626D7E6ABB403879DF5A0F335DF3
        Revocation Date: Nov 22 23:54:52 2024 GMT
    Signature Algorithm: sha384WithRSAEncryption
    Signature Value:
        33:6a:43:31:61:93:b2:28:c4:bc:3b:67:4c:6a:db:3a:e1:ea:
        bf:74:b5:7a:90:a3:48:a1:89:a2:db:22:44:98:29:43:f0:30:
        9b:4e:ff:c8:7d:bb:7b:63:e6:ab:2b:b0:7e:b7:69:d0:1e:a2:
        57:12:a8:e2:3e:39:7f:01:a6:35:8f:23:06:5a:1b:71:2d:4f:
        de:03:02:63:ae:97:26:e3:fc:d5:ba:8b:6d:a1:6a:a9:a5:57:
        bc:8c:33:fd:61:4b:0f:7e:b7:47:eb:2e:49:42:4b:13:e1:57:
        4c:0d:1f:72:4a:b2:79:8c:29:b3:cd:c7:44:2a:8e:39:ce:38:
        20:50:6d:2d:15:3a:c7:14:4d:7e:a6:88:ab:03:83:54:1e:5e:
        80:42:c2:83:64:ee:d3:f4:05:b8:6c:f1:bd:db:2b:48:da:dd:
        56:91:48:e3:03:0c:a0:1f:dd:cb:e7:48:8f:02:68:85:28:7c:
        c7:4a:86:91:57:41:13:1c:7e:91:56:7c:fb:ba:ff:55:78:49:
        2f:98:e6:84:ae:92:52:ad:86:d4:64:5c:16:4a:d4:ee:e2:0d:
        6b:45:ff:bc:61:3a:82:0e:06:47:3e:3d:d1:e1:8a:d7:9a:58:
        20:d4:40:11:6d:8a:54:ef:8f:75:75:c2:91:2e:e5:a2:17:5e:
        b4:95:14:a5
-----BEGIN X509 CRL-----
MIIDdjCCAl4CAQEwDQYJKoZIhvcNAQEMBQAwMTELMAkGA1UEBhMCWFgxIjAgBgNV
BAoTGUZha2UgQ0EgZm9yIFpsaW50IHRlc3RpbmcXDTI2MDQyMTEzMjIxN1oXDTI2
MDQyMjEzMjIxN1owggHGMC8CEA8g2varISHvrCkAL4UT22EXDTI0MDkyNjE5NTk1
MFowDDAKBgNVHRUEAwoBAzAwAhEAoy2jVkEQFewtKijeC4DuZBcNMjUwMjI2MDky
ODM0WjAMMAoGA1UdFQQDCgEEMDACEQDTtm5o9xEQEnD1Sg4ZKtboFw0yNjAzMTgw
MzM1MDFaMAwwCgYDVR0VBAMKAQMwLwIQeqpHR1fAa9ysHJMIr7XytxcNMjQwMjA4
MjA0NTQ1WjAMMAoGA1UdFQQDCgEJMCICEQDKg4AK4bvZj1UxzoQARIpQFw0yNTA0
MjUxNjI1MTRaMC8CEDmq2aIigHBOWBRPY/FEZ1gXDTI2MDEwNTA3MjkxNFowDDAK
BgNVHRUEAwoBAzAwAhEAiKsbJPk4yqJ0qpTUGOcA2RcNMjQwNzI1MjIwNDQ3WjAM
MAoGA1UdFQQDCgEBMDACEQDkKRXOFhSxED0iVuhpBrW0Fw0yMzA4MDkxNjU2MjJa
MAwwCgYDVR0VBAMKAQQwIQIQKuuZfUzczgzsRp37l1MfVhcNMjQwMTE0MTMwMDA4
WjAiAhEAucNibX5qu0A4ed9aDzNd8xcNMjQxMTIyMjM1NDUyWqAvMC0wHwYDVR0j
BBgwFoAU/HPK8oiEgFWm+u/Q5MW3mcr6wJMwCgYDVR0UBAMCAXswDQYJKoZIhvcN
AQEMBQADggEBADNqQzFhk7IoxLw7Z0xq2zrh6r90tXqQo0ihiaLbIkSYKUPwMJtO
/8h9u3tj5qsrsH63adAeolcSqOI+OX8BpjWPIwZaG3EtT94DAmOulybj/NW6i22h
aqmlV7yMM/1hSw9+t0frLklCSxPhV0wNH3JKsnmMKbPNx0QqjjnOOCBQbS0VOscU
TX6miKsDg1QeXoBCwoNk7tP0Bbhs8b3bK0ja3VaRSOMDDKAf3cvnSI8CaIUofMdK
hpFXQRMcfpFWfPu6/1V4SS+Y5oSuklKthtRkXBZK1O7iDWtF/7xhOoIOBkc+PdHh
iteaWCDUQBFtilTvj3V1wpEu5aIXXrSVFKU=
-----END X509 CRL-----
