Certificate Revocation List (CRL):
        Version 2 (0x1)
        Signature Algorithm: sha256WithRSAEncryption
        Issuer: C=XX, O=Fake CA for Zlint testing
        Last Update: Apr  1 12:34:56 2008 GMT
        Next Update: Apr  2 12:34:56 2008 GMT
        CRL extensions:
            X509v3 Authority Key Identifier: 
                E5:F3:2A:57:6A:40:9E:82:E7:F9:64:9D:20:78:ED:6C:88:52:22:54
            X509v3 CRL Number: 
                123
Revoked Certificates:
    Serial Number: 4ECE3EE875778059B5796C21B7ADCE30
        Revocation Date: Sep 12 09:40:06 2024 GMT
        CRL entry extensions:
            X509v3 CRL Reason Code: 
                Superseded
    Serial Number: 6F8394F71F7FCC98C6ABDB305833B937
        Revocation Date: Dec 14 19:22:08 2023 GMT
        CRL entry extensions:
            X509v3 CRL Reason Code: 
                Privilege Withdrawn
    Serial Number: 46269BE6F7A3063531BE815673AC0B2F
        Revocation Date: Apr 15 16:33:03 2026 GMT
        CRL entry extensions:
            X509v3 CRL Reason Code: 
                Superseded
    Serial Number: 5167A8025A5649C86EE0FFCFBFB77F5F
        Revocation Date: Apr 16 05:13:27 2024 GMT
        CRL entry extensions:
            X509v3 CRL Reason Code: 
                Privilege Withdrawn
    Serial Number: 21C1CC1CB5563271CD903A237D6181F0
        Revocation Date: Aug 12 15:59:10 2025 GMT
        CRL entry extensions:
            X509v3 CRL Reason Code: 
                Affiliation Changed
    Serial Number: 121A8B7522008D6979E589A5AA6F291D
        Revocation Date: Sep 28 03:52:12 2024 GMT
        CRL entry extensions:
            X509v3 CRL Reason Code: 
                Privilege Withdrawn
    Serial Number: A6B25E38E7A387B930B37B3702651276
        Revocation Date: Jan  1 18:21:21 2025 GMT
        CRL entry extensions:
            X509v3 CRL Reason Code: 
                Superseded
    Serial Number: 2B913F9E8B5247A205BA6794929676B3
        Revocation Date: Aug 11 00:13:38 2023 GMT
        CRL entry extensions:
            X509v3 CRL Reason Code: 
                Privilege Withdrawn
    Serial Number: 45A0294761A276A1F7A06A525D61767F
        Revocation Date: Feb  1 04:39:43 2024 GMT
        CRL entry extensions:
            X509v3 CRL Reason Code: 
                Key Compromise
    Serial Number: 254F5C2A3EF2B8A928C8D1617694A8B5
        Revocation Date: May  6 16:46:04 2023 GMT
        CRL entry extensions:
            X509v3 CRL Reason Code: 
                Key Compromise
    Signature Algorithm: sha256WithRSAEncryption
    Signature Value:
        53:00:ce:43:7d:fc:da:f5:6a:72:f9:d0:03:67:5c:a0:1d:c7:
        5d:53:c7:c1:1c:fe:c8:88:1c:b3:0e:b0:28:04:88:51:e5:eb:
        fe:94:5d:0f:f2:60:4e:52:bd:2e:c0:27:da:f7:cd:c3:e2:a4:
        4d:b8:f3:a2:c3:28:d8:3e:d0:8e:7a:10:6c:23:6a:69:bd:c3:
        7d:48:17:03:18:e2:97:d8:5a:a8:c1:b5:53:fe:46:d4:8a:f7:
        93:2c:6a:33:2e:23:cf:34:c8:d5:0b:bd:40:cc:4f:45:de:01:
        c7:ea:51:4a:c8:de:bb:b9:b6:ac:03:2b:a2:ac:45:21:c9:58:
        1e:ac:eb:fc:17:e4:62:ce:3d:25:1a:ae:b9:89:21:e2:b5:6e:
        72:6a:c0:75:4b:82:7e:25:31:78:57:00:9f:17:b1:41:18:77:
        f9:68:f0:c4:a9:a3:bc:9b:ef:75:61:08:d2:81:7f:0e:87:ff:
        4d:51:c2:cc:c2:9e:36:9a:47:ac:64:9b:9f:81:ca:eb:8e:71:
        aa:7a:4a:6e:44:05:c4:b2:37:2a:07:85:db:96:3a:32:22:00:
        b3:5d:a4:21:bb:b1:19:61:a2:ce:6d:4e:f1:62:08:17:44:76:
        3d:01:85:a4:f2:56:69:20:fb:58:77:28:b7:1d:b4:56:98:8e:
        cb:1f:ec:5b
-----BEGIN X509 CRL-----
MIIDlzCCAoECAQEwCwYJKoZIhvcNAQELMDExCzAJBgNVBAYTAlhYMSIwIAYDVQQK
ExlGYWtlIENBIGZvciBabGludCB0ZXN0aW5nFw0wODA0MDExMjM0NTZaFw0wODA0
MDIxMjM0NTZaMIIB6zAvAhBOzj7odXeAWbV5bCG3rc4wFw0yNDA5MTIwOTQwMDZa
MAwwCgYDVR0VBAMKAQQwLwIQb4OU9x9/zJjGq9swWDO5NxcNMjMxMjE0MTkyMjA4
WjAMMAoGA1UdFQQDCgEJMC8CEEYmm+b3owY1Mb6BVnOsCy8XDTI2MDQxNTE2MzMw
M1owDDAKBgNVHRUEAwoBBDAvAhBRZ6gCWlZJyG7g/8+/t39fFw0yNDA0MTYwNTEz
MjdaMAwwCgYDVR0VBAMKAQkwLwIQIcHMHLVWMnHNkDojfWGB8BcNMjUwODEyMTU1
OTEwWjAMMAoGA1UdFQQDCgEDMC8CEBIai3UiAI1peeWJpapvKR0XDTI0MDkyODAz
NTIxMlowDDAKBgNVHRUEAwoBCTAwAhEAprJeOOejh7kws3s3AmUSdhcNMjUwMTAx
MTgyMTIxWjAMMAoGA1UdFQQDCgEEMC8CECuRP56LUkeiBbpnlJKWdrMXDTIzMDgx
MTAwMTMzOFowDDAKBgNVHRUEAwoBCTAvAhBFoClHYaJ2ofegalJdYXZ/Fw0yNDAy
MDEwNDM5NDNaMAwwCgYDVR0VBAMKAQEwLwIQJU9cKj7yuKkoyNFhdpSotRcNMjMw
NTA2MTY0NjA0WjAMMAoGA1UdFQQDCgEBoC8wLTAfBgNVHSMEGDAWgBTl8ypXakCe
guf5ZJ0geO1siFIiVDAKBgNVHRQEAwIBezALBgkqhkiG9w0BAQsDggEBAFMAzkN9
/Nr1anL50ANnXKAdx11Tx8Ec/siIHLMOsCgEiFHl6/6UXQ/yYE5SvS7AJ9r3zcPi
pE2486LDKNg+0I56EGwjamm9w31IFwMY4pfYWqjBtVP+RtSK95MsajMuI880yNUL
vUDMT0XeAcfqUUrI3ru5tqwDK6KsRSHJWB6s6/wX5GLOPSUarrmJIeK1bnJqwHVL
gn4lMXhXAJ8XsUEYd/lo8MSpo7yb73VhCNKBfw6H/01RwszCnjaaR6xkm5+ByuuO
cap6Sm5EBcSyNyoHhduWOjIiALNdpCG7sRlhos5tTvFiCBdEdj0BhaTyVmkg+1h3
KLcdtFaYjssf7Fs=
-----END X509 CRL-----
