Certificate Revocation List (CRL):
        Version 2 (0x1)
        Signature Algorithm: sha512WithRSAEncryption
        Issuer: C=XX, O=Fake CA for Zlint testing
        Last Update: Apr 21 13:28:13 2026 GMT
        Next Update: Apr 22 13:28:13 2026 GMT
        CRL extensions:
            X509v3 Authority Key Identifier: 
                89:D4:4F:79:9C:EB:E2:70:96:73:71:86:AC:A5:34:2F:BB:15:91:19
            X509v3 CRL Number: 
                123
Revoked Certificates:
    Serial Number: EBD2DC21DCB8581D2F2A5B118D0582A5
        Revocation Date: Jun 15 00:19:43 2024 GMT
    Serial Number: A22DE3B0B951BCE49172E7A99AAA3FC9
        Revocation Date: Nov 17 09:22:19 2025 GMT
        CRL entry extensions:
            X509v3 CRL Reason Code: 
                Superseded
    Serial Number: 0B2818630CC895D3367608B4B9E3DBFA
        Revocation Date: Apr 22 22:25:11 2024 GMT
        CRL entry extensions:
            X509v3 CRL Reason Code: 
                Affiliation Changed
    Serial Number: 8D735694E7745866FBFAE128DEB11CBA
        Revocation Date: Oct 22 16:02:04 2024 GMT
        CRL entry extensions:
            X509v3 CRL Reason Code: 
                Superseded
    Serial Number: 285202DAE0DCDDB1C48FAD866DC620DA
        Revocation Date: Apr 18 12:56:52 2026 GMT
    Serial Number: 29D89938C6D93BC335079C43FB4EFD86
        Revocation Date: Oct 29 14:36:13 2024 GMT
        CRL entry extensions:
            X509v3 CRL Reason Code: 
                Privilege Withdrawn
    Serial Number: B16D196C14D550E4BE75B4718219D9BF
        Revocation Date: Feb 19 16:06:19 2024 GMT
        CRL entry extensions:
            X509v3 CRL Reason Code: 
                Affiliation Changed
    Serial Number: A1AB0D871FD01C6649C0784889CE863F
        Revocation Date: May 12 02:35:47 2025 GMT
        CRL entry extensions:
            X509v3 CRL Reason Code: 
                Superseded
    Serial Number: CA4C0630E28843BC6284408480B568CD
        Revocation Date: Sep  5 00:29:33 2023 GMT
        CRL entry extensions:
            X509v3 CRL Reason Code: 
                Key Compromise
    Serial Number: 209A759E5C306D9A5824357F023055AD
        Revocation Date: Nov  7 22:52:34 2025 GMT
        CRL entry extensions:
            X509v3 CRL Reason Code: 
                Key Compromise
    Signature Algorithm: sha512WithRSAEncryption
    Signature Value:
        cb:fe:a7:b6:08:14:cb:c9:f9:25:26:0b:f1:06:d9:ea:13:73:
        af:f3:86:b6:98:16:62:0f:14:39:6c:09:66:ec:bf:b2:94:ab:
        b5:4a:4f:9c:19:b2:17:3f:fd:20:15:bc:b6:bc:53:74:e0:8a:
        ff:ee:a0:c5:29:f5:84:29:10:88:06:cd:0c:56:d9:8d:d6:cb:
        dc:2f:85:74:ae:85:bc:88:a5:56:47:d4:d3:b4:a4:36:89:1a:
        3e:bf:2f:eb:eb:85:ce:92:31:3e:c5:5e:69:4c:80:a5:89:63:
        fd:ef:eb:ed:63:06:ce:94:0c:93:62:93:ad:71:ad:82:60:d3:
        2d:31:12:13:ba:f5:df:b3:04:e0:ad:f0:db:82:c2:91:20:0a:
        b9:bd:71:f5:f7:8f:1f:68:f3:c6:94:b1:db:91:54:49:f4:8a:
        d8:f5:47:b4:9f:db:ed:1a:fd:1b:0b:6d:10:38:94:4d:fe:42:
        66:18:43:42:77:61:a1:2a:ac:15:23:be:8c:06:d6:e9:79:ac:
        89:e4:b8:62:4c:f1:fd:5b:fb:e6:8f:1c:de:65:d4:56:b1:01:
        57:7f:ee:71:aa:99:c3:1a:4c:10:b7:8f:1e:e6:67:14:7c:dd:
        5e:dc:ea:f6:f0:05:a3:d8:09:d8:58:3e:8f:ea:b3:21:08:64:
        37:f7:ed:e2
-----BEGIN X509 CRL-----
MIIDgDCCAmoCAQEwCwYJKoZIhvcNAQENMDExCzAJBgNVBAYTAlhYMSIwIAYDVQQK
ExlGYWtlIENBIGZvciBabGludCB0ZXN0aW5nFw0yNjA0MjExMzI4MTNaFw0yNjA0
MjIxMzI4MTNaMIIB1DAiAhEA69LcIdy4WB0vKlsRjQWCpRcNMjQwNjE1MDAxOTQz
WjAwAhEAoi3jsLlRvOSRcuepmqo/yRcNMjUxMTE3MDkyMjE5WjAMMAoGA1UdFQQD
CgEEMC8CEAsoGGMMyJXTNnYItLnj2/oXDTI0MDQyMjIyMjUxMVowDDAKBgNVHRUE
AwoBAzAwAhEAjXNWlOd0WGb7+uEo3rEcuhcNMjQxMDIyMTYwMjA0WjAMMAoGA1Ud
FQQDCgEEMCECEChSAtrg3N2xxI+thm3GINoXDTI2MDQxODEyNTY1MlowLwIQKdiZ
OMbZO8M1B5xD+079hhcNMjQxMDI5MTQzNjEzWjAMMAoGA1UdFQQDCgEJMDACEQCx
bRlsFNVQ5L51tHGCGdm/Fw0yNDAyMTkxNjA2MTlaMAwwCgYDVR0VBAMKAQMwMAIR
AKGrDYcf0BxmScB4SInOhj8XDTI1MDUxMjAyMzU0N1owDDAKBgNVHRUEAwoBBDAw
AhEAykwGMOKIQ7xihECEgLVozRcNMjMwOTA1MDAyOTMzWjAMMAoGA1UdFQQDCgEB
MC8CECCadZ5cMG2aWCQ1fwIwVa0XDTI1MTEwNzIyNTIzNFowDDAKBgNVHRUEAwoB
AaAvMC0wHwYDVR0jBBgwFoAUidRPeZzr4nCWc3GGrKU0L7sVkRkwCgYDVR0UBAMC
AXswCwYJKoZIhvcNAQENA4IBAQDL/qe2CBTLyfklJgvxBtnqE3Ov84a2mBZiDxQ5
bAlm7L+ylKu1Sk+cGbIXP/0gFby2vFN04Ir/7qDFKfWEKRCIBs0MVtmN1svcL4V0
roW8iKVWR9TTtKQ2iRo+vy/r64XOkjE+xV5pTICliWP97+vtYwbOlAyTYpOtca2C
YNMtMRITuvXfswTgrfDbgsKRIAq5vXH1948faPPGlLHbkVRJ9IrY9Ue0n9vtGv0b
C20QOJRN/kJmGENCd2GhKqwVI76MBtbpeayJ5LhiTPH9W/vmjxzeZdRWsQFXf+5x
qpnDGkwQt48e5mcUfN1e3Or28AWj2AnYWD6P6rMhCGQ39+3i
-----END X509 CRL-----
