Certificate Revocation List (CRL):
        Version 2 (0x1)
        Signature Algorithm: sha256WithRSAEncryption
        Issuer: C=XX, O=Fake CA for Zlint testing
        Last Update: Apr 21 12:25:21 2026 GMT
        Next Update: Apr 22 12:25:21 2026 GMT
        CRL extensions:
            X509v3 Authority Key Identifier: 
                D6:F2:E2:ED:47:95:10:3E:5A:3B:8A:FF:EE:93:BB:A6:F4:32:DF:F7
            X509v3 CRL Number: 
                123
Revoked Certificates:
    Serial Number: DCD79E3C9C9130CC1EF1B2E6C6478ED9
        Revocation Date: May 10 01:54:34 2024 GMT
        CRL entry extensions:
            X509v3 CRL Reason Code: 
                Affiliation Changed
    Serial Number: DD3AB3FCD8C2F07AD29AE2825B93BF0A
        Revocation Date: Apr  9 01:31:50 2026 GMT
        CRL entry extensions:
            X509v3 CRL Reason Code: 
                Key Compromise
    Serial Number: CBF771A5BC67B49C63FEDFB3F310A9FD
        Revocation Date: Aug 17 20:47:02 2024 GMT
    Serial Number: 61530DC99C26D9044CC65A4A6AB5DA74
        Revocation Date: Jun  5 12:52:27 2023 GMT
        CRL entry extensions:
            X509v3 CRL Reason Code: 
                Key Compromise
    Serial Number: 92C8D26869B9423C3E87C6B4C58A1663
        Revocation Date: Feb 11 13:17:54 2024 GMT
        CRL entry extensions:
            X509v3 CRL Reason Code: 
                Key Compromise
    Serial Number: B0365D26B27196DCE0C967CA67E1F098
        Revocation Date: Sep 24 01:26:23 2023 GMT
        CRL entry extensions:
            X509v3 CRL Reason Code: 
                Cessation Of Operation
    Serial Number: 1CD2C86580DF92B71E01893F73CC15C2
        Revocation Date: Jun 15 08:43:28 2023 GMT
        CRL entry extensions:
            X509v3 CRL Reason Code: 
                Cessation Of Operation
    Serial Number: C4DB077594EA8EED5AF9EBCB6A6A3A0F
        Revocation Date: May 25 01:14:50 2023 GMT
    Serial Number: F807D6716E026A953DD88035E1B4E1B9
        Revocation Date: Aug 15 22:30:35 2025 GMT
        CRL entry extensions:
            X509v3 CRL Reason Code: 
                Superseded
    Serial Number: A9CFC9A4B470631F3BF9F4DCDDA188B7
        Revocation Date: Mar  2 07:53:41 2026 GMT
        CRL entry extensions:
            X509v3 CRL Reason Code: 
                Affiliation Changed
    Signature Algorithm: sha256WithRSAEncryption
    Signature Value:
        89:a0:b4:89:d3:61:9d:51:6f:ae:ca:54:31:f8:b1:e0:bd:8d:
        b1:70:1b:8a:d6:67:1e:09:9a:b4:6a:c9:f1:70:c0:c0:06:9e:
        df:44:42:85:87:73:62:87:78:43:58:0c:41:7b:db:53:74:ee:
        7f:4a:36:b1:e6:58:c7:29:cb:dd:8f:7c:4b:a1:58:c2:d5:d9:
        5e:1e:ec:60:0a:12:46:8c:5c:5c:51:f8:bd:27:f5:97:1e:ef:
        36:7d:3e:a2:bc:2c:85:85:9c:97:6e:2d:0e:ab:18:e6:07:aa:
        a8:96:6f:fe:4b:2b:a6:1f:81:66:c3:42:d0:95:7b:28:14:2a:
        9e:5b:41:02:86:52:65:9e:5c:c2:bd:1e:2e:b9:8c:33:54:5f:
        01:3b:8e:38:d8:63:35:1d:ef:ae:4e:17:5d:16:ac:d8:26:a1:
        0e:fd:b9:a2:fe:3a:74:35:95:11:13:d7:89:77:58:c0:e9:43:
        97:24:5b:53:fc:71:c7:b3:7e:3c:98:77:4d:2d:60:a8:d0:99:
        ac:48:ac:51:47:61:fa:b8:48:d8:c9:a1:07:0c:73:54:00:b4:
        c0:fa:95:40:55:80:d6:c9:f6:80:9f:0b:f1:ea:db:94:94:02:
        36:ac:79:81:1b:d1:db:0e:e2:c3:20:c6:dc:ac:5a:0e:fa:44:
        ea:ad:1d:08
-----BEGIN X509 CRL-----
MIIDgjCCAmwCAQEwCwYJKoZIhvcNAQELMDExCzAJBgNVBAYTAlhYMSIwIAYDVQQK
ExlGYWtlIENBIGZvciBabGludCB0ZXN0aW5nFw0yNjA0MjExMjI1MjFaFw0yNjA0
MjIxMjI1MjFaMIIB1jAwAhEA3NeePJyRMMwe8bLmxkeO2RcNMjQwNTEwMDE1NDM0
WjAMMAoGA1UdFQQDCgEDMDACEQDdOrP82MLwetKa4oJbk78KFw0yNjA0MDkwMTMx
NTBaMAwwCgYDVR0VBAMKAQEwIgIRAMv3caW8Z7ScY/7fs/MQqf0XDTI0MDgxNzIw
NDcwMlowLwIQYVMNyZwm2QRMxlpKarXadBcNMjMwNjA1MTI1MjI3WjAMMAoGA1Ud
FQQDCgEBMDACEQCSyNJoablCPD6HxrTFihZjFw0yNDAyMTExMzE3NTRaMAwwCgYD
VR0VBAMKAQEwMAIRALA2XSaycZbc4Mlnymfh8JgXDTIzMDkyNDAxMjYyM1owDDAK
BgNVHRUEAwoBBTAvAhAc0shlgN+Stx4BiT9zzBXCFw0yMzA2MTUwODQzMjhaMAww
CgYDVR0VBAMKAQUwIgIRAMTbB3WU6o7tWvnry2pqOg8XDTIzMDUyNTAxMTQ1MFow
MAIRAPgH1nFuAmqVPdiANeG04bkXDTI1MDgxNTIyMzAzNVowDDAKBgNVHRUEAwoB
BDAwAhEAqc/JpLRwYx87+fTc3aGItxcNMjYwMzAyMDc1MzQxWjAMMAoGA1UdFQQD
CgEDoC8wLTAfBgNVHSMEGDAWgBTW8uLtR5UQPlo7iv/uk7um9DLf9zAKBgNVHRQE
AwIBezALBgkqhkiG9w0BAQsDggEBAImgtInTYZ1Rb67KVDH4seC9jbFwG4rWZx4J
mrRqyfFwwMAGnt9EQoWHc2KHeENYDEF721N07n9KNrHmWMcpy92PfEuhWMLV2V4e
7GAKEkaMXFxR+L0n9Zce7zZ9PqK8LIWFnJduLQ6rGOYHqqiWb/5LK6YfgWbDQtCV
eygUKp5bQQKGUmWeXMK9Hi65jDNUXwE7jjjYYzUd765OF10WrNgmoQ79uaL+OnQ1
lRET14l3WMDpQ5ckW1P8ccezfjyYd00tYKjQmaxIrFFHYfq4SNjJoQcMc1QAtMD6
lUBVgNbJ9oCfC/Hq25SUAjaseYEb0dsO4sMgxtysWg76ROqtHQg=
-----END X509 CRL-----
