Certificate Revocation List (CRL):
        Version 2 (0x1)
        Signature Algorithm: sha224WithRSAEncryption
        Issuer: C=XX, O=Fake CA for Zlint testing
        Last Update: Apr 21 13:31:56 2026 GMT
        Next Update: Apr 22 13:31:56 2026 GMT
        CRL extensions:
            X509v3 Authority Key Identifier: 
                91:6D:6B:EB:7F:F7:6D:27:FD:76:68:BE:AD:FF:F2:F5:D8:C9:8B:2E
            X509v3 CRL Number: 
                123
Revoked Certificates:
    Serial Number: 3D9AFA71B111914CED3F25CEB8EAD804
        Revocation Date: Oct 30 23:02:20 2023 GMT
        CRL entry extensions:
            X509v3 CRL Reason Code: 
                Superseded
    Serial Number: C99194FFB56B560311398BAC73690B32
        Revocation Date: Apr 17 08:53:05 2024 GMT
    Serial Number: 2E81010881DA91C7305165882B626B23
        Revocation Date: Jul  3 00:23:49 2025 GMT
        CRL entry extensions:
            X509v3 CRL Reason Code: 
                Cessation Of Operation
    Serial Number: 5CA4224E7E2EC64015B2C67BE15985EE
        Revocation Date: Nov  2 18:38:15 2024 GMT
        CRL entry extensions:
            X509v3 CRL Reason Code: 
                Cessation Of Operation
    Serial Number: AD8EED86EE21DDB1146202008A7379E3
        Revocation Date: Apr 20 21:19:46 2026 GMT
        CRL entry extensions:
            X509v3 CRL Reason Code: 
                Cessation Of Operation
    Serial Number: 843295AE3C6F29917E6D4230AFB6A030
        Revocation Date: May 14 12:55:35 2024 GMT
        CRL entry extensions:
            X509v3 CRL Reason Code: 
                Cessation Of Operation
    Serial Number: 84A4700A6B47F71680C9FDE6BB0C6D2E
        Revocation Date: Jan 11 00:57:24 2024 GMT
        CRL entry extensions:
            X509v3 CRL Reason Code: 
                Cessation Of Operation
    Serial Number: E5F4A611E17A29C29EE84BCCE4052AF2
        Revocation Date: Nov 12 05:04:24 2023 GMT
        CRL entry extensions:
            X509v3 CRL Reason Code: 
                Cessation Of Operation
    Serial Number: 84F35973FA4DB0E38959DDE1FE653E18
        Revocation Date: Feb 13 21:51:18 2024 GMT
        CRL entry extensions:
            X509v3 CRL Reason Code: 
                Cessation Of Operation
    Serial Number: 1D79FB110301B7B55601F3D90F36C933
        Revocation Date: Aug  4 02:09:16 2025 GMT
        CRL entry extensions:
            X509v3 CRL Reason Code: 
                Affiliation Changed
    Signature Algorithm: sha224WithRSAEncryption
    Signature Value:
        00:f7:7c:ab:f7:ff:e1:8c:ac:86:c6:f5:77:3c:47:a8:c5:3c:
        a4:ac:a2:ba:58:67:e4:92:7d:85:2d:b1:40:fe:a7:88:20:8e:
        66:99:bd:c5:87:d5:d9:ca:25:d4:b3:3e:e6:c7:36:30:30:2e:
        35:d4:4f:dd:af:60:5f:f5:b3:36:b4:a1:66:49:61:0c:48:72:
        86:78:eb:05:60:68:68:88:f4:9a:f5:34:45:93:c6:e0:3f:0c:
        c7:4c:4e:38:3d:8e:19:f8:54:58:72:a7:b4:9c:14:15:3a:24:
        4a:9c:6c:7e:1d:84:e5:85:f1:42:9d:e7:9a:9d:c2:ef:59:9e:
        8e:07:2c:41:ca:03:d4:a3:73:62:cb:1f:4c:e8:d1:4d:03:32:
        23:9e:c8:a4:70:ee:34:56:6b:ff:f6:34:9a:81:e7:f2:fa:73:
        7d:d8:89:26:0f:85:4b:42:c1:e2:ec:d4:d7:c7:07:08:8e:db:
        38:89:06:ac:94:45:d6:3c:76:da:e0:6d:74:1a:8c:de:a7:87:
        eb:6d:9d:cb:f2:ce:d6:b8:bb:15:65:ac:7b:1e:b3:22:71:c5:
        de:71:07:5a:c5:9d:3c:1f:2a:37:8e:19:88:66:d4:6a:d5:be:
        80:50:98:3d:e2:b8:1c:7f:f6:3a:e8:0f:ae:c7:eb:e0:61:01:
        fd:57:43:42
-----BEGIN X509 CRL-----
MIIDkjCCAnoCAQEwDQYJKoZIhvcNAQEOBQAwMTELMAkGA1UEBhMCWFgxIjAgBgNV
BAoTGUZha2UgQ0EgZm9yIFpsaW50IHRlc3RpbmcXDTI2MDQyMTEzMzE1NloXDTI2
MDQyMjEzMzE1NlowggHiMC8CED2a+nGxEZFM7T8lzrjq2AQXDTIzMTAzMDIzMDIy
MFowDDAKBgNVHRUEAwoBBDAiAhEAyZGU/7VrVgMROYusc2kLMhcNMjQwNDE3MDg1
MzA1WjAvAhAugQEIgdqRxzBRZYgrYmsjFw0yNTA3MDMwMDIzNDlaMAwwCgYDVR0V
BAMKAQUwLwIQXKQiTn4uxkAVssZ74VmF7hcNMjQxMTAyMTgzODE1WjAMMAoGA1Ud
FQQDCgEFMDACEQCtju2G7iHdsRRiAgCKc3njFw0yNjA0MjAyMTE5NDZaMAwwCgYD
VR0VBAMKAQUwMAIRAIQyla48bymRfm1CMK+2oDAXDTI0MDUxNDEyNTUzNVowDDAK
BgNVHRUEAwoBBTAwAhEAhKRwCmtH9xaAyf3muwxtLhcNMjQwMTExMDA1NzI0WjAM
MAoGA1UdFQQDCgEFMDACEQDl9KYR4Xopwp7oS8zkBSryFw0yMzExMTIwNTA0MjRa
MAwwCgYDVR0VBAMKAQUwMAIRAITzWXP6TbDjiVnd4f5lPhgXDTI0MDIxMzIxNTEx
OFowDDAKBgNVHRUEAwoBBTAvAhAdefsRAwG3tVYB89kPNskzFw0yNTA4MDQwMjA5
MTZaMAwwCgYDVR0VBAMKAQOgLzAtMB8GA1UdIwQYMBaAFJFta+t/920n/XZovq3/
8vXYyYsuMAoGA1UdFAQDAgF7MA0GCSqGSIb3DQEBDgUAA4IBAQAA93yr9//hjKyG
xvV3PEeoxTykrKK6WGfkkn2FLbFA/qeIII5mmb3Fh9XZyiXUsz7mxzYwMC411E/d
r2Bf9bM2tKFmSWEMSHKGeOsFYGhoiPSa9TRFk8bgPwzHTE44PY4Z+FRYcqe0nBQV
OiRKnGx+HYTlhfFCneeancLvWZ6OByxBygPUo3Niyx9M6NFNAzIjnsikcO40Vmv/
9jSagefy+nN92IkmD4VLQsHi7NTXxwcIjts4iQaslEXWPHba4G10Gozep4frbZ3L
8s7WuLsVZax7HrMiccXecQdaxZ08Hyo3jhmIZtRq1b6AUJg94rgcf/Y66A+ux+vg
YQH9V0NC
-----END X509 CRL-----
