Certificate Revocation List (CRL):
        Version 2 (0x1)
        Signature Algorithm: sha256WithRSAEncryption
        Issuer: C = XX, O = Fake CA for Zlint testing
        Last Update: Mar 12 10:20:55 2023 GMT
        Next Update: Mar 23 10:20:55 2023 GMT
        CRL extensions:
            X509v3 Authority Key Identifier: 
                keyid:84:B8:6C:B6:19:BC:0A:98:7E:4C:55:47:27:8E:A6:82:0D:F7:0D:F1

            X509v3 CRL Number: 
                123
Revoked Certificates:
    Serial Number: DDAC73F0541FAB67B594F299F967DB9A
        Revocation Date: Oct 20 03:02:42 2022 GMT
        CRL entry extensions:
            X509v3 CRL Reason Code: 
                Superseded
    Serial Number: 4FE524809886A86F6514FABF271D9FA4
        Revocation Date: Mar  5 10:02:59 2022 GMT
        CRL entry extensions:
            X509v3 CRL Reason Code: 
                Affiliation Changed
    Serial Number: 1559279E1FC798C62B5C90F339AAE60C
        Revocation Date: Dec  6 10:18:19 2022 GMT
        CRL entry extensions:
            X509v3 CRL Reason Code: 
                Key Compromise
    Serial Number: FCBBC24377F7F17B5695EBA6065B10FF
        Revocation Date: Feb 13 22:29:26 2024 GMT
    Serial Number: CD8F7D2F8540B16B477E8D0D4A64C44E
        Revocation Date: Feb 24 23:28:02 2024 GMT
        CRL entry extensions:
            X509v3 CRL Reason Code: 
                Superseded
    Serial Number: 57CCCA9FD62F3A83B0CE9FD78C258EF8
        Revocation Date: May  7 02:21:18 2022 GMT
        CRL entry extensions:
            X509v3 CRL Reason Code: 
                Privilege Withdrawn
    Serial Number: C0EA252FB8C11079C84F3B85146ABC69
        Revocation Date: Aug 19 12:15:14 2023 GMT
        CRL entry extensions:
            X509v3 CRL Reason Code: 
                Affiliation Changed
    Serial Number: DA58F73649526D9CDEB3A0A12BCC9F14
        Revocation Date: Mar 29 17:54:50 2022 GMT
        CRL entry extensions:
            X509v3 CRL Reason Code: 
                Affiliation Changed
    Serial Number: 3AF5A4730D617838F407E5B509FEA890
        Revocation Date: Apr 23 11:57:42 2022 GMT
        CRL entry extensions:
            X509v3 CRL Reason Code: 
                Affiliation Changed
    Serial Number: 45E4B152F5FF17CDFA9C0B3831526E28
        Revocation Date: Apr 25 00:21:08 2023 GMT
        CRL entry extensions:
            X509v3 CRL Reason Code: 
                Superseded
    Signature Algorithm: sha256WithRSAEncryption
         5b:69:77:9b:7f:96:41:c9:ed:9f:f7:df:a5:3b:8c:ac:03:f1:
         34:1d:28:71:1a:15:f8:f9:bd:de:d0:9c:22:4b:e4:40:2e:ad:
         83:5f:ab:35:1b:4c:77:7d:4d:f3:f6:76:b6:02:f9:f1:3a:ae:
         87:17:da:83:2f:24:c7:28:7a:8f:0d:25:8b:22:25:e8:3d:35:
         a2:b7:ef:fa:8a:b2:0d:11:05:20:9b:b5:c3:b9:1a:cd:fb:34:
         34:79:6f:14:e5:5e:9a:ff:24:6e:e7:ae:79:bf:17:6d:a8:08:
         80:2f:b8:9c:51:09:28:42:8e:06:1f:8e:e2:e9:f5:4d:f0:d1:
         0e:6a:55:cd:f2:a0:9e:d7:54:c0:d7:6b:aa:5d:d5:f2:e4:17:
         5d:2e:f4:05:c6:06:8f:22:fe:8c:eb:45:7d:a3:e2:66:8d:eb:
         e9:a3:23:6d:85:2f:3b:9c:51:f7:33:8d:d5:23:4f:52:7d:5f:
         d6:c3:02:f3:9e:70:66:39:9d:82:32:7f:e8:7c:aa:2a:88:b1:
         54:12:83:16:cc:1a:bd:fb:9e:5a:49:29:49:67:e6:29:d2:fd:
         99:ba:41:b3:71:8c:3e:f0:a5:02:20:0b:6a:78:99:4d:01:5b:
         3c:c9:0a:a2:4c:53:5e:97:14:4b:a5:ac:a4:47:7c:d0:f8:f7:
         db:a4:09:a4
-----BEGIN X509 CRL-----
MIIDkTCCAnkCAQEwDQYJKoZIhvcNAQELBQAwMTELMAkGA1UEBhMCWFgxIjAgBgNV
BAoTGUZha2UgQ0EgZm9yIFpsaW50IHRlc3RpbmcXDTIzMDMxMjEwMjA1NVoXDTIz
MDMyMzEwMjA1NVowggHhMDACEQDdrHPwVB+rZ7WU8pn5Z9uaFw0yMjEwMjAwMzAy
NDJaMAwwCgYDVR0VBAMKAQQwLwIQT+UkgJiGqG9lFPq/Jx2fpBcNMjIwMzA1MTAw
MjU5WjAMMAoGA1UdFQQDCgEDMC8CEBVZJ54fx5jGK1yQ8zmq5gwXDTIyMTIwNjEw
MTgxOVowDDAKBgNVHRUEAwoBATAiAhEA/LvCQ3f38XtWleumBlsQ/xcNMjQwMjEz
MjIyOTI2WjAwAhEAzY99L4VAsWtHfo0NSmTEThcNMjQwMjI0MjMyODAyWjAMMAoG
A1UdFQQDCgEEMC8CEFfMyp/WLzqDsM6f14wljvgXDTIyMDUwNzAyMjExOFowDDAK
BgNVHRUEAwoBCTAwAhEAwOolL7jBEHnITzuFFGq8aRcNMjMwODE5MTIxNTE0WjAM
MAoGA1UdFQQDCgEDMDACEQDaWPc2SVJtnN6zoKErzJ8UFw0yMjAzMjkxNzU0NTBa
MAwwCgYDVR0VBAMKAQMwLwIQOvWkcw1heDj0B+W1Cf6okBcNMjIwNDIzMTE1NzQy
WjAMMAoGA1UdFQQDCgEDMC8CEEXksVL1/xfN+pwLODFSbigXDTIzMDQyNTAwMjEw
OFowDDAKBgNVHRUEAwoBBKAvMC0wHwYDVR0jBBgwFoAUhLhsthm8Cph+TFVHJ46m
gg33DfEwCgYDVR0UBAMCAXswDQYJKoZIhvcNAQELBQADggEBAFtpd5t/lkHJ7Z/3
36U7jKwD8TQdKHEaFfj5vd7QnCJL5EAurYNfqzUbTHd9TfP2drYC+fE6rocX2oMv
JMcoeo8NJYsiJeg9NaK37/qKsg0RBSCbtcO5Gs37NDR5bxTlXpr/JG7nrnm/F22o
CIAvuJxRCShCjgYfjuLp9U3w0Q5qVc3yoJ7XVMDXa6pd1fLkF10u9AXGBo8i/ozr
RX2j4maN6+mjI22FLzucUfczjdUjT1J9X9bDAvOecGY5nYIyf+h8qiqIsVQSgxbM
Gr37nlpJKUln5inS/Zm6QbNxjD7wpQIgC2p4mU0BWzzJCqJMU16XFEulrKRHfND4
99ukCaQ=
-----END X509 CRL-----
