Certificate Revocation List (CRL):
        Version 2 (0x1)
        Signature Algorithm: sha256WithRSAEncryption
        Issuer: C = XX, O = Fake CA for Zlint testing
        Last Update: Feb  9 10:10:38 2025 GMT
        Next Update: Feb 10 10:10:38 2025 GMT
        CRL extensions:
            X509v3 Authority Key Identifier: 
                keyid:7F:18:7E:B6:CB:7D:73:4B:A6:4E:5B:72:EC:96:F2:81:B9:B7:EA:83

            X509v3 CRL Number: 
                123
Revoked Certificates:
    Serial Number: A7B254EF67DC62A6C9B6A3FE649E06AD
        Revocation Date: Apr 20 09:15:08 2023 GMT
        CRL entry extensions:
            X509v3 CRL Reason Code: 
                Key Compromise
    Serial Number: C614A7FDBAAAD84D9C6C8A0621EFD8C0
        Revocation Date: Mar  4 10:30:29 2023 GMT
        CRL entry extensions:
            X509v3 CRL Reason Code: 
                Privilege Withdrawn
    Serial Number: 46CF4D7CC174E8C5CC72A1EA33AC70C2
        Revocation Date: Jul 27 22:10:16 2023 GMT
    Serial Number: 6FDF95B1E5F4090C20ACF39BA4E5B627
        Revocation Date: Jun 15 10:13:11 2024 GMT
        CRL entry extensions:
            X509v3 CRL Reason Code: 
                Key Compromise
    Serial Number: 06BADD25E99DFAA0C90DEA8FFA14C8F6
        Revocation Date: Jul 29 20:57:54 2024 GMT
        CRL entry extensions:
            X509v3 CRL Reason Code: 
                Key Compromise
    Serial Number: 502C435111022358C439130BB0CB7AD0
        Revocation Date: Jan 20 02:56:31 2024 GMT
    Serial Number: 23B13920FB2F81B02270D0DAB0A68DAB
        Revocation Date: Jun  2 05:05:59 2023 GMT
        CRL entry extensions:
            X509v3 CRL Reason Code: 
                Cessation Of Operation
    Serial Number: FC276DAF562F74C2EB8FC05426295B30
        Revocation Date: Jan 27 21:44:02 2025 GMT
        CRL entry extensions:
            X509v3 CRL Reason Code: 
                Cessation Of Operation
    Serial Number: B882B753F193CB2FB3C0FB52068CC3E0
        Revocation Date: Nov  2 18:12:08 2023 GMT
        CRL entry extensions:
            X509v3 CRL Reason Code: 
                Cessation Of Operation
    Serial Number: 09B0031C5C1BB35423C454132AABF6DC
        Revocation Date: Aug 21 03:39:12 2023 GMT
        CRL entry extensions:
            X509v3 CRL Reason Code: 
                Affiliation Changed
    Signature Algorithm: sha256WithRSAEncryption
         e9:39:e1:a8:cb:40:2a:1e:29:69:57:5e:82:94:ec:ae:a3:2a:
         60:a6:d0:e4:1b:01:ee:a2:33:38:ab:8a:5a:0c:4e:9a:81:0d:
         1f:33:6d:68:15:80:cb:33:34:6f:ff:2b:9a:28:5b:e4:48:1d:
         d5:89:7b:dd:d9:5f:be:47:9a:c1:c5:4e:62:7b:c6:3a:40:c7:
         dd:2a:87:41:9e:bb:e6:b8:6d:ae:b8:3d:da:c5:e3:2d:30:d4:
         3d:99:f3:ca:bd:dd:5d:b7:83:bf:fc:4e:41:87:e7:71:49:4b:
         e7:c4:96:c3:b6:23:b7:9f:88:4d:f6:d1:be:73:d4:63:fb:84:
         87:ef:77:ea:8e:5f:ec:01:a4:b8:37:9c:d7:ef:6a:48:35:6f:
         88:8c:01:1e:d0:f8:1a:61:cb:61:0d:6c:c9:0a:5a:68:61:97:
         d2:5f:52:8b:69:4b:32:5e:73:a3:f7:6f:c6:f8:d9:69:a9:7a:
         04:d0:66:70:2e:89:26:68:fe:8e:9a:93:e9:46:e9:d5:74:36:
         dc:a8:93:ee:4a:22:69:33:8c:74:eb:3d:28:87:44:dc:e5:01:
         72:1a:28:07:92:19:63:83:be:70:53:89:60:f8:4d:6d:2e:79:
         cb:0a:97:eb:46:85:df:bd:e0:12:56:17:29:c6:bb:b0:39:8a:
         17:b3:2c:e3
-----BEGIN X509 CRL-----
MIIDgjCCAmoCAQEwDQYJKoZIhvcNAQELBQAwMTELMAkGA1UEBhMCWFgxIjAgBgNV
BAoTGUZha2UgQ0EgZm9yIFpsaW50IHRlc3RpbmcXDTI1MDIwOTEwMTAzOFoXDTI1
MDIxMDEwMTAzOFowggHSMDACEQCnslTvZ9xipsm2o/5kngatFw0yMzA0MjAwOTE1
MDhaMAwwCgYDVR0VBAMKAQEwMAIRAMYUp/26qthNnGyKBiHv2MAXDTIzMDMwNDEw
MzAyOVowDDAKBgNVHRUEAwoBCTAhAhBGz018wXToxcxyoeozrHDCFw0yMzA3Mjcy
MjEwMTZaMC8CEG/flbHl9AkMIKzzm6TlticXDTI0MDYxNTEwMTMxMVowDDAKBgNV
HRUEAwoBATAvAhAGut0l6Z36oMkN6o/6FMj2Fw0yNDA3MjkyMDU3NTRaMAwwCgYD
VR0VBAMKAQEwIQIQUCxDURECI1jEORMLsMt60BcNMjQwMTIwMDI1NjMxWjAvAhAj
sTkg+y+BsCJw0Nqwpo2rFw0yMzA2MDIwNTA1NTlaMAwwCgYDVR0VBAMKAQUwMAIR
APwnba9WL3TC64/AVCYpWzAXDTI1MDEyNzIxNDQwMlowDDAKBgNVHRUEAwoBBTAw
AhEAuIK3U/GTyy+zwPtSBozD4BcNMjMxMTAyMTgxMjA4WjAMMAoGA1UdFQQDCgEF
MC8CEAmwAxxcG7NUI8RUEyqr9twXDTIzMDgyMTAzMzkxMlowDDAKBgNVHRUEAwoB
A6AvMC0wHwYDVR0jBBgwFoAUfxh+tst9c0umTlty7Jbygbm36oMwCgYDVR0UBAMC
AXswDQYJKoZIhvcNAQELBQADggEBAOk54ajLQCoeKWlXXoKU7K6jKmCm0OQbAe6i
MziriloMTpqBDR8zbWgVgMszNG//K5ooW+RIHdWJe93ZX75HmsHFTmJ7xjpAx90q
h0Geu+a4ba64PdrF4y0w1D2Z88q93V23g7/8TkGH53FJS+fElsO2I7efiE320b5z
1GP7hIfvd+qOX+wBpLg3nNfvakg1b4iMAR7Q+Bphy2ENbMkKWmhhl9JfUotpSzJe
c6P3b8b42WmpegTQZnAuiSZo/o6ak+lG6dV0Ntyok+5KImkzjHTrPSiHRNzlAXIa
KAeSGWODvnBTiWD4TW0uecsKl+tGhd+94BJWFynGu7A5ihezLOM=
-----END X509 CRL-----
