Certificate Revocation List (CRL):
        Version 2 (0x1)
        Signature Algorithm: sha256WithRSAEncryption
        Issuer: C = EU, O = Some CA, CN = Fake CA for zlint testing
        Last Update: Apr 12 07:36:43 2024 GMT
        Next Update: Apr 13 07:36:43 2024 GMT
        CRL extensions:
            X509v3 Authority Key Identifier: 
                keyid:01:02:03:04:05

            X509v3 CRL Number: 
                291
No Revoked Certificates.
    Signature Algorithm: sha256WithRSAEncryption
         13:45:39:87:ce:01:31:60:72:a0:f2:53:10:cd:81:aa:81:80:
         c1:d2:bf:56:b9:ef:7c:94:f4:a7:35:4b:48:0c:2b:bc:90:5d:
         43:ef:f1:bb:4b:3a:33:43:07:0b:a8:29:64:31:fb:05:e4:22:
         f8:cb:cd:dc:b5:ce:59:64:c8:32:d8:b8:50:bc:2a:67:9b:5b:
         d6:31:5c:09:9f:e8:95:b4:41:15:cc:b0:6e:01:a6:48:fc:5d:
         88:64:a6:0d:43:3f:dd:98:22:d7:ce:5d:56:d5:4f:fc:cb:a9:
         92:8f:7c:09:65:bc:41:a3:2a:20:54:25:e5:3c:94:6c:44:fd:
         39:12:02:9c:8c:a8:4a:f6:4b:18:de:c9:c4:83:b9:62:0e:18:
         ae:22:01:d2:37:97:38:f2:d7:1b:2c:74:52:8b:bc:20:63:51:
         94:2a:07:a2:74:bf:02:d2:7e:e8:d0:2e:e3:e7:ac:a9:0b:82:
         47:1f:8b:7d:34:08:75:1b:73:2a:e2:60:d5:dd:58:e6:6e:0a:
         86:1f:b1:31:af:3d:9f:a7:b5:63:7f:3b:30:a9:77:54:f2:ab:
         92:97:03:6a:8a:b0:79:d6:17:5b:94:a2:bb:70:72:fe:06:14:
         ab:c5:ba:a9:9f:2f:2b:71:d1:8b:5c:5b:6d:01:0a:36:41:82:
         a0:94:36:30
-----BEGIN X509 CRL-----
MIIBsTCBmgIBATANBgkqhkiG9w0BAQsFADBDMQswCQYDVQQGEwJFVTEQMA4GA1UE
ChMHU29tZSBDQTEiMCAGA1UEAxMZRmFrZSBDQSBmb3IgemxpbnQgdGVzdGluZxcN
MjQwNDEyMDczNjQzWhcNMjQwNDEzMDczNjQzWjAAoCEwHzAQBgNVHSMECTAHgAUB
AgMEBTALBgNVHRQEBAICASMwDQYJKoZIhvcNAQELBQADggEBABNFOYfOATFgcqDy
UxDNgaqBgMHSv1a573yU9Kc1S0gMK7yQXUPv8btLOjNDBwuoKWQx+wXkIvjLzdy1
zllkyDLYuFC8KmebW9YxXAmf6JW0QRXMsG4Bpkj8XYhkpg1DP92YItfOXVbVT/zL
qZKPfAllvEGjKiBUJeU8lGxE/TkSApyMqEr2SxjeycSDuWIOGK4iAdI3lzjy1xss
dFKLvCBjUZQqB6J0vwLSfujQLuPnrKkLgkcfi300CHUbcyriYNXdWOZuCoYfsTGv
PZ+ntWN/OzCpd1Tyq5KXA2qKsHnWF1uUortwcv4GFKvFuqmfLytx0YtcW20BCjZB
gqCUNjA=
-----END X509 CRL-----
