Certificate Revocation List (CRL):
        Version 2 (0x1)
        Signature Algorithm: sha256WithRSAEncryption
        Issuer: C = XX, O = Fake CA for Zlint testing
        Last Update: Feb  9 10:00:37 2025 GMT
        Next Update: NONE
        CRL extensions:
            X509v3 Authority Key Identifier: 
                keyid:3A:6A:4B:37:E7:A5:63:EC:6E:25:03:1E:2B:C4:90:ED:7A:CF:20:DC

            X509v3 CRL Number: 
                123
Revoked Certificates:
    Serial Number: AAACA4E3B70CA07559132AAAC9E8CD34
        Revocation Date: Jul 14 21:33:13 2023 GMT
        CRL entry extensions:
            X509v3 CRL Reason Code: 
                Cessation Of Operation
    Serial Number: 26CB67D2A7A1E59E1712A3160BD8945F
        Revocation Date: May 29 12:49:06 2024 GMT
        CRL entry extensions:
            X509v3 CRL Reason Code: 
                Superseded
    Serial Number: 8043ADA9AEA72B1B415B23A59BA73C07
        Revocation Date: Jul  3 23:11:49 2023 GMT
        CRL entry extensions:
            X509v3 CRL Reason Code: 
                Cessation Of Operation
    Serial Number: 84EE7095A007D03205FDA2FA3781A390
        Revocation Date: Jul 10 14:01:05 2022 GMT
    Serial Number: 2A1262F7AFC354A0760E803A4657606E
        Revocation Date: Oct 22 01:10:27 2023 GMT
        CRL entry extensions:
            X509v3 CRL Reason Code: 
                Key Compromise
    Serial Number: 2513129BD96615F5A5B01FD4C0EBE66B
        Revocation Date: Nov 14 15:56:35 2024 GMT
        CRL entry extensions:
            X509v3 CRL Reason Code: 
                Key Compromise
    Serial Number: BF81544DF1EED0533324E76FDACDE6E4
        Revocation Date: Oct 22 00:06:29 2023 GMT
    Serial Number: 2286FBC51E3B8D8B60D2FA2484BC7904
        Revocation Date: Jan 16 14:57:27 2025 GMT
        CRL entry extensions:
            X509v3 CRL Reason Code: 
                Privilege Withdrawn
    Serial Number: DA5A908576B6530163B73028739FE4E6
        Revocation Date: May 14 02:47:52 2024 GMT
        CRL entry extensions:
            X509v3 CRL Reason Code: 
                Superseded
    Serial Number: 0439E92661FA5A5D0318C96262E8309E
        Revocation Date: Aug 17 03:32:56 2023 GMT
        CRL entry extensions:
            X509v3 CRL Reason Code: 
                Cessation Of Operation
    Signature Algorithm: sha256WithRSAEncryption
         8e:5d:2e:99:13:a4:f5:83:d9:89:4c:57:b9:86:a1:05:0f:65:
         42:4a:09:56:42:92:33:8d:cc:4e:59:c0:77:0f:4a:80:9c:43:
         39:f5:16:90:c9:36:1d:c1:ab:b5:f7:6f:97:75:df:28:21:4d:
         3a:db:db:86:ee:00:fd:1a:f5:30:82:cf:05:2c:c9:83:ad:ad:
         39:46:e8:f9:30:64:e2:14:38:84:5d:07:ea:d8:32:9c:d4:df:
         24:cd:03:3e:01:46:49:2f:79:2f:3a:95:6a:41:a2:6c:ce:f9:
         f0:7e:17:bf:7b:08:71:af:fb:29:5f:d1:d9:e7:72:4c:b0:6d:
         09:85:a4:42:a0:22:86:28:09:86:e5:5a:9c:10:f0:7c:b2:5e:
         00:3b:75:ba:30:b1:e6:05:c8:23:e6:e4:c5:77:28:36:95:df:
         42:d8:f6:09:a5:3d:23:de:ac:51:2d:2b:fe:97:df:20:ee:f2:
         93:7b:fd:c2:14:d0:21:2c:34:04:c0:f5:ec:f0:a9:c8:30:3c:
         b1:a3:56:15:fd:d6:ba:ab:52:92:10:1f:37:e3:f9:1a:62:65:
         34:44:86:f8:9d:da:3c:61:d2:47:d2:7d:93:d1:78:22:84:87:
         db:11:0c:2c:c6:95:c8:19:56:b8:52:65:ec:17:e5:6e:97:92:
         e6:b0:90:da
-----BEGIN X509 CRL-----
MIIDdDCCAlwCAQEwDQYJKoZIhvcNAQELBQAwMTELMAkGA1UEBhMCWFgxIjAgBgNV
BAoTGUZha2UgQ0EgZm9yIFpsaW50IHRlc3RpbmcXDTI1MDIwOTEwMDAzN1owggHT
MDACEQCqrKTjtwygdVkTKqrJ6M00Fw0yMzA3MTQyMTMzMTNaMAwwCgYDVR0VBAMK
AQUwLwIQJstn0qeh5Z4XEqMWC9iUXxcNMjQwNTI5MTI0OTA2WjAMMAoGA1UdFQQD
CgEEMDACEQCAQ62prqcrG0FbI6WbpzwHFw0yMzA3MDMyMzExNDlaMAwwCgYDVR0V
BAMKAQUwIgIRAITucJWgB9AyBf2i+jeBo5AXDTIyMDcxMDE0MDEwNVowLwIQKhJi
96/DVKB2DoA6RldgbhcNMjMxMDIyMDExMDI3WjAMMAoGA1UdFQQDCgEBMC8CECUT
EpvZZhX1pbAf1MDr5msXDTI0MTExNDE1NTYzNVowDDAKBgNVHRUEAwoBATAiAhEA
v4FUTfHu0FMzJOdv2s3m5BcNMjMxMDIyMDAwNjI5WjAvAhAihvvFHjuNi2DS+iSE
vHkEFw0yNTAxMTYxNDU3MjdaMAwwCgYDVR0VBAMKAQkwMAIRANpakIV2tlMBY7cw
KHOf5OYXDTI0MDUxNDAyNDc1MlowDDAKBgNVHRUEAwoBBDAvAhAEOekmYfpaXQMY
yWJi6DCeFw0yMzA4MTcwMzMyNTZaMAwwCgYDVR0VBAMKAQWgLzAtMB8GA1UdIwQY
MBaAFDpqSzfnpWPsbiUDHivEkO16zyDcMAoGA1UdFAQDAgF7MA0GCSqGSIb3DQEB
CwUAA4IBAQCOXS6ZE6T1g9mJTFe5hqEFD2VCSglWQpIzjcxOWcB3D0qAnEM59RaQ
yTYdwau192+Xdd8oIU0629uG7gD9GvUwgs8FLMmDra05Ruj5MGTiFDiEXQfq2DKc
1N8kzQM+AUZJL3kvOpVqQaJszvnwfhe/ewhxr/spX9HZ53JMsG0JhaRCoCKGKAmG
5VqcEPB8sl4AO3W6MLHmBcgj5uTFdyg2ld9C2PYJpT0j3qxRLSv+l98g7vKTe/3C
FNAhLDQEwPXs8KnIMDyxo1YV/da6q1KSEB834/kaYmU0RIb4ndo8YdJH0n2T0Xgi
hIfbEQwsxpXIGVa4UmXsF+Vul5LmsJDa
-----END X509 CRL-----
