Certificate Revocation List (CRL):
        Version 2 (0x1)
        Signature Algorithm: sha256WithRSAEncryption
        Issuer: C = XX, O = Fake CA for Zlint testing
        Last Update: Dec  2 13:04:28 2022 GMT
        Next Update: Dec 12 13:04:28 2023 GMT
        CRL extensions:
            X509v3 Authority Key Identifier: 
                keyid:2A:66:00:4C:89:BE:E3:3F:1F:9E:4C:D8:50:1B:F7:1C:64:18:5D:75

            X509v3 CRL Number: 
                123
Revoked Certificates:
    Serial Number: DDD6BECD1B8D37E6A90882BA257D9F9F
        Revocation Date: Sep 18 00:14:23 2023 GMT
        CRL entry extensions:
            X509v3 CRL Reason Code: 
                Key Compromise
    Serial Number: 4138B326F912B8BC4F1F2DFD5C0B8BD4
        Revocation Date: Apr 30 17:49:46 2022 GMT
        CRL entry extensions:
            X509v3 CRL Reason Code: 
                Privilege Withdrawn
    Serial Number: D23B1305B1ED5BE1D477276016D2CDB3
        Revocation Date: Apr 26 08:59:31 2022 GMT
        CRL entry extensions:
            X509v3 CRL Reason Code: 
                Affiliation Changed
    Serial Number: 4714B4A644CA8BCDDC2281FA2176BC06
        Revocation Date: Nov 16 00:53:44 2024 GMT
    Serial Number: FB9ADE6F8B5CF66070ECFDD1C2EFB903
        Revocation Date: Jun  8 14:10:37 2023 GMT
        CRL entry extensions:
            X509v3 CRL Reason Code: 
                Superseded
    Serial Number: D1D8B00FF0AE38872F567CA613D6DD6F
        Revocation Date: Sep  5 17:49:01 2024 GMT
    Serial Number: F2281CE1A4F21DEAAAAAF198B39D6BB7
        Revocation Date: Mar 25 05:05:52 2024 GMT
    Serial Number: 19AEFB7F23F3BC5946290562079659AF
        Revocation Date: Apr 21 23:59:15 2022 GMT
        CRL entry extensions:
            X509v3 CRL Reason Code: 
                Affiliation Changed
    Serial Number: D6297CB4D61AD10D7BCB92BE5E4DF72C
        Revocation Date: Dec 17 11:44:06 2024 GMT
        CRL entry extensions:
            X509v3 CRL Reason Code: 
                Superseded
    Serial Number: ACE84501C2753DE2E114C0A3E948CFFF
        Revocation Date: Jan 10 13:58:46 2024 GMT
    Signature Algorithm: sha256WithRSAEncryption
         60:dc:a0:1c:32:64:7a:29:0a:e7:13:e0:c7:fe:94:8c:3d:cf:
         9a:9d:e9:91:14:ed:b0:e4:40:81:8e:07:51:90:7d:21:dd:8a:
         07:50:bf:51:62:93:1c:a0:fd:3b:b4:fa:d1:04:d5:a8:dc:d7:
         ba:7c:f3:da:84:ce:22:6b:93:87:20:15:64:8c:e8:89:58:21:
         b2:4f:7a:5c:cd:99:32:cc:82:6a:a2:a8:96:86:b7:a2:a7:bc:
         44:55:4b:a0:cf:cc:8c:47:37:5c:8c:94:75:c7:5b:0b:3b:5f:
         49:a3:9f:66:38:c1:cf:73:cb:3d:94:24:15:e4:87:ab:f9:20:
         5e:3d:a5:f3:bb:4f:b3:e6:98:44:0a:19:e9:26:ae:78:43:36:
         fb:22:c9:13:e3:34:cd:5c:5f:68:23:67:2d:e2:93:fd:4e:4e:
         7d:61:22:24:d7:64:73:88:88:49:82:e8:03:94:6a:c0:2c:9e:
         07:2e:1c:f6:af:7f:74:72:f1:43:2c:2b:86:77:25:64:25:7e:
         df:f9:68:95:7b:78:d5:1c:68:1c:51:31:78:5e:52:76:cd:6a:
         2d:b3:f9:d8:b6:62:c0:31:40:c7:d1:cf:c4:a5:9f:9a:1e:e6:
         eb:21:44:d7:91:32:f4:15:8e:55:ec:54:8a:62:04:c7:43:70:
         0a:c3:9d:53
-----BEGIN X509 CRL-----
MIIDaTCCAlECAQEwDQYJKoZIhvcNAQELBQAwMTELMAkGA1UEBhMCWFgxIjAgBgNV
BAoTGUZha2UgQ0EgZm9yIFpsaW50IHRlc3RpbmcXDTIyMTIwMjEzMDQyOFoXDTIz
MTIxMjEzMDQyOFowggG5MDACEQDd1r7NG4035qkIgrolfZ+fFw0yMzA5MTgwMDE0
MjNaMAwwCgYDVR0VBAMKAQEwLwIQQTizJvkSuLxPHy39XAuL1BcNMjIwNDMwMTc0
OTQ2WjAMMAoGA1UdFQQDCgEJMDACEQDSOxMFse1b4dR3J2AW0s2zFw0yMjA0MjYw
ODU5MzFaMAwwCgYDVR0VBAMKAQMwIQIQRxS0pkTKi83cIoH6IXa8BhcNMjQxMTE2
MDA1MzQ0WjAwAhEA+5reb4tc9mBw7P3Rwu+5AxcNMjMwNjA4MTQxMDM3WjAMMAoG
A1UdFQQDCgEEMCICEQDR2LAP8K44hy9WfKYT1t1vFw0yNDA5MDUxNzQ5MDFaMCIC
EQDyKBzhpPId6qqq8ZiznWu3Fw0yNDAzMjUwNTA1NTJaMC8CEBmu+38j87xZRikF
YgeWWa8XDTIyMDQyMTIzNTkxNVowDDAKBgNVHRUEAwoBAzAwAhEA1il8tNYa0Q17
y5K+Xk33LBcNMjQxMjE3MTE0NDA2WjAMMAoGA1UdFQQDCgEEMCICEQCs6EUBwnU9
4uEUwKPpSM//Fw0yNDAxMTAxMzU4NDZaoC8wLTAfBgNVHSMEGDAWgBQqZgBMib7j
Px+eTNhQG/ccZBhddTAKBgNVHRQEAwIBezANBgkqhkiG9w0BAQsFAAOCAQEAYNyg
HDJkeikK5xPgx/6UjD3Pmp3pkRTtsORAgY4HUZB9Id2KB1C/UWKTHKD9O7T60QTV
qNzXunzz2oTOImuThyAVZIzoiVghsk96XM2ZMsyCaqKoloa3oqe8RFVLoM/MjEc3
XIyUdcdbCztfSaOfZjjBz3PLPZQkFeSHq/kgXj2l87tPs+aYRAoZ6SaueEM2+yLJ
E+M0zVxfaCNnLeKT/U5OfWEiJNdkc4iISYLoA5RqwCyeBy4c9q9/dHLxQywrhncl
ZCV+3/lolXt41RxoHFExeF5Sds1qLbP52LZiwDFAx9HPxKWfmh7m6yFE15Ey9BWO
VexUimIEx0NwCsOdUw==
-----END X509 CRL-----
