Certificate Revocation List (CRL):
        Version 2 (0x1)
        Signature Algorithm: ecdsa-with-SHA384
        Issuer: C=XX, O=Fake CA for Zlint testing
        Last Update: Apr 21 15:52:05 2026 GMT
        Next Update: Apr 22 15:52:05 2026 GMT
        CRL extensions:
            X509v3 Authority Key Identifier: 
                6F:21:B1:AF:1A:FD:74:39:F2:FF:DB:AF:E1:E3:5C:F1:88:B9:B3:9C
            X509v3 CRL Number: 
                123
Revoked Certificates:
    Serial Number: 19E59D4A303D357EF2BEBA9D80DF2E5A
        Revocation Date: Nov 14 02:46:22 2024 GMT
        CRL entry extensions:
            X509v3 CRL Reason Code: 
                Affiliation Changed
    Serial Number: 7228FC4A69536E00F35D03BC7A019EDA
        Revocation Date: Jul 28 02:59:29 2023 GMT
    Serial Number: 74E513362055BAA393FE02659E3EB6D0
        Revocation Date: Oct 16 13:25:42 2023 GMT
        CRL entry extensions:
            X509v3 CRL Reason Code: 
                Cessation Of Operation
    Serial Number: 43E2CCCF0E46E3FB3D005F4BB142355F
        Revocation Date: Oct 13 05:31:33 2025 GMT
        CRL entry extensions:
            X509v3 CRL Reason Code: 
                Superseded
    Serial Number: 7FA6FD72E0BBCE6F7DBEAC8CB516A700
        Revocation Date: Nov  5 08:03:43 2025 GMT
        CRL entry extensions:
            X509v3 CRL Reason Code: 
                Privilege Withdrawn
    Serial Number: 4BCFF78694E52F0E54B0F5F3488A94F3
        Revocation Date: Feb 27 14:25:28 2025 GMT
        CRL entry extensions:
            X509v3 CRL Reason Code: 
                Superseded
    Serial Number: A17E9F477DC3A49DE6BBE689104FFB90
        Revocation Date: Dec 20 07:31:27 2024 GMT
        CRL entry extensions:
            X509v3 CRL Reason Code: 
                Affiliation Changed
    Serial Number: 502D3F7DE41A314C4D9D171E684454C8
        Revocation Date: Mar  6 20:42:08 2025 GMT
        CRL entry extensions:
            X509v3 CRL Reason Code: 
                Affiliation Changed
    Serial Number: EEC7F5C5012D0379B355246F7EB23744
        Revocation Date: Oct  4 16:29:33 2025 GMT
        CRL entry extensions:
            X509v3 CRL Reason Code: 
                Privilege Withdrawn
    Serial Number: C68A95DFBA9B25E82E1EB5C902567441
        Revocation Date: Aug 18 20:16:12 2025 GMT
        CRL entry extensions:
            X509v3 CRL Reason Code: 
                Privilege Withdrawn
    Signature Algorithm: ecdsa-with-SHA384
    Signature Value:
        94:de:ae:d0:a9:a9:68:96:46:8c:84:c3:ae:09:c0:3c:37:04:
        1d:d3:07:1c:a1:ce:a0:93:e5:bd:ec:0f:f1:c5:a0:bf:07:2e:
        c0:b5:2e:87:a1:20:80:cd:ff:66:db:33:99:9b:7b:cb:77:4a:
        40:6f:e0:0b:7e:b8:ce:8f:fa:a1:70:4e:61:fc:a0:70:90:81:
        56:f1:8d:d8:04:cd:fc:28:6f:99:11:81:81:5f:96:e5:57:27:
        40:06:52:0f:d5:26:05:76:21:e1:01:59:0a:91:15:60:51:7f:
        15:41:b2:0e:56:ab:d1:b3:8a:e9:10:13:24:33:bf:26:c8:69:
        f5:c6:de:85:df:10:06:79:1e:e1:cc:fb:ae:2e:bc:77:fb:c4:
        26:2f:8e:ed:2c:02:35:7b:f2:aa:6f:8c:11:50:40:52:e3:63:
        2e:7f:98:6c:84:1c:85:0c:43:82:51:73:4f:52:0f:a1:59:ca:
        3a:0f:07:4c:1e:17:ef:00:52:23:9a:b9:b8:79:7f:20:78:21:
        42:ac:b2:9a:3b:cb:b5:76:b1:2d:1e:52:5a:c3:c3:9c:4d:19:
        a8:38:9a:aa:a1:c2:63:7d:24:b7:ec:8c:1e:78:1e:a5:63:ed:
        6f:58:7d:43:df:a2:63:02:9e:d8:f8:bf:4d:cc:00:5e:0a:af:
        a6:2f:e9:4c
-----BEGIN X509 CRL-----
MIIDjTCCAnYCAQEwDAYIKoZIzj0EAwMFADAxMQswCQYDVQQGEwJYWDEiMCAGA1UE
ChMZRmFrZSBDQSBmb3IgWmxpbnQgdGVzdGluZxcNMjYwNDIxMTU1MjA1WhcNMjYw
NDIyMTU1MjA1WjCCAd8wLwIQGeWdSjA9NX7yvrqdgN8uWhcNMjQxMTE0MDI0NjIy
WjAMMAoGA1UdFQQDCgEDMCECEHIo/EppU24A810DvHoBntoXDTIzMDcyODAyNTky
OVowLwIQdOUTNiBVuqOT/gJlnj620BcNMjMxMDE2MTMyNTQyWjAMMAoGA1UdFQQD
CgEFMC8CEEPizM8ORuP7PQBfS7FCNV8XDTI1MTAxMzA1MzEzM1owDDAKBgNVHRUE
AwoBBDAvAhB/pv1y4LvOb32+rIy1FqcAFw0yNTExMDUwODAzNDNaMAwwCgYDVR0V
BAMKAQkwLwIQS8/3hpTlLw5UsPXzSIqU8xcNMjUwMjI3MTQyNTI4WjAMMAoGA1Ud
FQQDCgEEMDACEQChfp9HfcOknea75okQT/uQFw0yNDEyMjAwNzMxMjdaMAwwCgYD
VR0VBAMKAQMwLwIQUC0/feQaMUxNnRceaERUyBcNMjUwMzA2MjA0MjA4WjAMMAoG
A1UdFQQDCgEDMDACEQDux/XFAS0DebNVJG9+sjdEFw0yNTEwMDQxNjI5MzNaMAww
CgYDVR0VBAMKAQkwMAIRAMaKld+6myXoLh61yQJWdEEXDTI1MDgxODIwMTYxMlow
DDAKBgNVHRUEAwoBCaAvMC0wHwYDVR0jBBgwFoAUbyGxrxr9dDny/9uv4eNc8Yi5
s5wwCgYDVR0UBAMCAXswDAYIKoZIzj0EAwMFAAOCAQEAlN6u0KmpaJZGjITDrgnA
PDcEHdMHHKHOoJPlvewP8cWgvwcuwLUuh6EggM3/ZtszmZt7y3dKQG/gC364zo/6
oXBOYfygcJCBVvGN2ATN/ChvmRGBgV+W5VcnQAZSD9UmBXYh4QFZCpEVYFF/FUGy
Dlar0bOK6RATJDO/Jshp9cbehd8QBnke4cz7ri68d/vEJi+O7SwCNXvyqm+MEVBA
UuNjLn+YbIQchQxDglFzT1IPoVnKOg8HTB4X7wBSI5q5uHl/IHghQqyymjvLtXax
LR5SWsPDnE0ZqDiaqqHCY30kt+yMHngepWPtb1h9Q9+iYwKe2Pi/TcwAXgqvpi/p
TA==
-----END X509 CRL-----
