Certificate Revocation List (CRL):
        Version 2 (0x1)
        Signature Algorithm: sha256WithRSAEncryption
        Issuer: C = XX, O = Fake CA for Zlint testing
        Last Update: Feb  9 13:01:47 2025 GMT
        Next Update: Feb 19 13:01:47 2026 GMT
        CRL extensions:
            X509v3 Authority Key Identifier: 
                keyid:0A:08:76:5A:02:B5:9B:4F:A4:06:A4:41:07:0F:42:A4:BE:7A:A1:09

            X509v3 CRL Number: 
                123
Revoked Certificates:
    Serial Number: D1152320E2866A63A315E8A38E36F2E8
        Revocation Date: Dec  1 06:07:30 2022 GMT
        CRL entry extensions:
            X509v3 CRL Reason Code: 
                Cessation Of Operation
    Serial Number: 77478240695C17CFB4AF70F0B5102C24
        Revocation Date: Mar  8 21:35:27 2022 GMT
    Serial Number: C69ADD999BBC7AA2C080248803E98CE7
        Revocation Date: Nov 16 21:59:29 2022 GMT
        CRL entry extensions:
            X509v3 CRL Reason Code: 
                Privilege Withdrawn
    Serial Number: 938126109DA3DB5595789F363CC451DC
        Revocation Date: Mar  1 07:51:15 2022 GMT
        CRL entry extensions:
            X509v3 CRL Reason Code: 
                Affiliation Changed
    Serial Number: 0D373E11B3BE77940D8C097F4723513B
        Revocation Date: Sep 29 17:12:18 2022 GMT
        CRL entry extensions:
            X509v3 CRL Reason Code: 
                Affiliation Changed
    Serial Number: AE7260124D9E978FD2EE361D15D00E19
        Revocation Date: Jul 14 06:17:21 2023 GMT
        CRL entry extensions:
            X509v3 CRL Reason Code: 
                Affiliation Changed
    Serial Number: BD05E66565FC1FD7454427E8D4BB050C
        Revocation Date: Dec  6 23:17:57 2022 GMT
        CRL entry extensions:
            X509v3 CRL Reason Code: 
                Affiliation Changed
    Serial Number: A69BBDF81A4FB1B2F85131D1237170AC
        Revocation Date: Dec  6 04:30:33 2023 GMT
    Serial Number: B52361A19DDB77B5EAB304B2BA569F0E
        Revocation Date: Dec  1 03:14:24 2024 GMT
        CRL entry extensions:
            X509v3 CRL Reason Code: 
                Privilege Withdrawn
    Serial Number: EF0E5F3C368D65DDF40A8BB265B0B29E
        Revocation Date: Oct 20 23:31:12 2024 GMT
        CRL entry extensions:
            X509v3 CRL Reason Code: 
                Cessation Of Operation
    Signature Algorithm: sha256WithRSAEncryption
         44:01:c7:e7:81:1a:09:ec:5d:f9:3c:b0:3d:32:49:d4:d0:3c:
         81:17:e8:7f:bb:3c:2e:20:df:e0:e3:8b:24:d8:31:1c:e2:86:
         2c:1d:88:d5:d4:95:f9:87:31:e1:b2:1e:94:f8:71:80:b4:fd:
         e0:f4:cb:f3:a8:3f:94:52:86:d6:c6:56:21:4c:0f:e7:c6:51:
         76:3e:8c:b0:28:00:76:0c:92:48:1a:a5:f7:da:99:08:8f:c6:
         6d:23:34:3e:1a:97:a4:20:b2:6f:67:b0:e5:98:de:48:dd:95:
         48:e6:be:0c:3e:92:1c:91:f6:02:2b:56:95:8c:1a:53:8b:f4:
         8d:80:a1:07:b0:2e:a5:9b:b1:a0:66:f2:fd:13:40:36:de:cc:
         29:a0:02:b9:60:a2:4d:01:53:18:85:13:f6:32:9e:08:92:ad:
         01:30:1f:6d:bf:aa:53:32:94:2b:6c:de:64:4e:b7:30:fd:da:
         9e:42:83:4e:dd:0f:c0:6e:96:ff:f6:46:a5:ac:48:5c:27:09:
         f6:c7:49:09:78:ad:50:11:5d:74:f4:c8:e7:56:05:79:0e:63:
         f0:5e:8b:00:ab:76:6e:e0:c8:d1:95:3c:5e:a5:ce:64:dd:06:
         94:9e:90:e9:11:6e:f4:ca:9c:37:92:cb:2d:30:80:8f:c9:94:
         99:f7:df:bd
-----BEGIN X509 CRL-----
MIIDhjCCAm4CAQEwDQYJKoZIhvcNAQELBQAwMTELMAkGA1UEBhMCWFgxIjAgBgNV
BAoTGUZha2UgQ0EgZm9yIFpsaW50IHRlc3RpbmcXDTI1MDIwOTEzMDE0N1oXDTI2
MDIxOTEzMDE0N1owggHWMDACEQDRFSMg4oZqY6MV6KOONvLoFw0yMjEyMDEwNjA3
MzBaMAwwCgYDVR0VBAMKAQUwIQIQd0eCQGlcF8+0r3DwtRAsJBcNMjIwMzA4MjEz
NTI3WjAwAhEAxprdmZu8eqLAgCSIA+mM5xcNMjIxMTE2MjE1OTI5WjAMMAoGA1Ud
FQQDCgEJMDACEQCTgSYQnaPbVZV4nzY8xFHcFw0yMjAzMDEwNzUxMTVaMAwwCgYD
VR0VBAMKAQMwLwIQDTc+EbO+d5QNjAl/RyNROxcNMjIwOTI5MTcxMjE4WjAMMAoG
A1UdFQQDCgEDMDACEQCucmASTZ6Xj9LuNh0V0A4ZFw0yMzA3MTQwNjE3MjFaMAww
CgYDVR0VBAMKAQMwMAIRAL0F5mVl/B/XRUQn6NS7BQwXDTIyMTIwNjIzMTc1N1ow
DDAKBgNVHRUEAwoBAzAiAhEAppu9+BpPsbL4UTHRI3FwrBcNMjMxMjA2MDQzMDMz
WjAwAhEAtSNhoZ3bd7XqswSyulafDhcNMjQxMjAxMDMxNDI0WjAMMAoGA1UdFQQD
CgEJMDACEQDvDl88No1l3fQKi7JlsLKeFw0yNDEwMjAyMzMxMTJaMAwwCgYDVR0V
BAMKAQWgLzAtMB8GA1UdIwQYMBaAFAoIdloCtZtPpAakQQcPQqS+eqEJMAoGA1Ud
FAQDAgF7MA0GCSqGSIb3DQEBCwUAA4IBAQBEAcfngRoJ7F35PLA9MknU0DyBF+h/
uzwuIN/g44sk2DEc4oYsHYjV1JX5hzHhsh6U+HGAtP3g9MvzqD+UUobWxlYhTA/n
xlF2PoywKAB2DJJIGqX32pkIj8ZtIzQ+GpekILJvZ7DlmN5I3ZVI5r4MPpIckfYC
K1aVjBpTi/SNgKEHsC6lm7GgZvL9E0A23swpoAK5YKJNAVMYhRP2Mp4Ikq0BMB9t
v6pTMpQrbN5kTrcw/dqeQoNO3Q/Abpb/9kalrEhcJwn2x0kJeK1QEV109MjnVgV5
DmPwXosAq3Zu4MjRlTxepc5k3QaUnpDpEW70ypw3ksstMICPyZSZ99+9
-----END X509 CRL-----
