Certificate:
    Data:
        Version: 3 (0x2)
        Serial Number: 14615016 (0xdf01e8)
    Signature Algorithm: sha256WithRSAEncryption
        Issuer: C = US, O = Mother Nature, OU = Everything, CN = Mother Nature
        Validity
            Not Before: Aug  4 19:41:35 2016 GMT
            Not After : Oct 16 19:41:35 2016 GMT
        Subject: C = US, ST = FL, L = Tallahassee, street = 3210 Holly Mill Run, postalCode = 30062, O = Extreme Discord, OU = Chaos, CN = gov.us
        Subject Public Key Info:
            Public Key Algorithm: rsaEncryption
                Public-Key: (2048 bit)
                Modulus:
                    00:c1:6f:b4:ad:e2:96:56:dd:0f:44:15:b6:51:6e:
                    b7:1c:d8:99:48:e5:32:19:7f:64:49:bc:9a:70:27:
                    e5:20:ef:05:fa:2d:38:cb:c7:47:89:33:40:dc:a5:
                    00:49:c6:e9:7f:e4:76:f3:43:e5:de:79:a9:27:47:
                    d7:41:24:49:f4:77:55:49:cd:dc:83:fa:a6:0c:79:
                    e0:86:42:7d:7f:87:d4:dd:a0:ee:b7:85:19:1c:0c:
                    57:82:91:59:f2:0a:aa:33:02:6c:6a:ec:fb:73:55:
                    41:e0:4d:f3:7a:21:39:fe:f0:4d:f7:cd:fb:ca:78:
                    3b:bc:8f:b1:ff:a1:66:c3:a8:ed:41:5a:05:e1:44:
                    10:1a:18:35:72:1b:98:15:6c:86:7d:08:1d:c4:a1:
                    a6:ca:5b:33:bf:7a:7f:37:7f:0f:4a:a8:37:9e:05:
                    47:b1:76:88:be:db:11:bc:00:51:e2:d3:35:32:b3:
                    22:69:e7:66:d2:73:00:25:e6:2c:0b:ed:ef:fc:bb:
                    07:e7:ce:cf:3b:f7:d5:14:68:12:45:5d:00:f7:ab:
                    dd:a8:ee:d2:65:85:50:82:c6:ae:5e:74:41:70:cd:
                    dc:78:b5:de:5e:43:78:f3:9f:8d:32:97:64:fb:a0:
                    69:e9:fb:d4:57:e9:19:23:10:9f:e6:4e:9a:1f:16:
                    00:bd
                Exponent: 65537 (0x10001)
        X509v3 extensions:
            X509v3 Basic Constraints: critical
                CA:FALSE
            X509v3 Authority Key Identifier: 
                keyid:01:02:03

            X509v3 CRL Distribution Points: 

                Full Name:
                  URI:ldap://theca.net/crlpoint

            X509v3 Subject Key Identifier: 
                04:03:02:01
            X509v3 Subject Alternative Name: 
                DNS:*.gov.us, DNS:gov.us
            X509v3 Key Usage: 
                Data Encipherment, Key Agreement
            X509v3 Extended Key Usage: 
                TLS Web Server Authentication, 1.2.840.113635.100.4.3, Signing KDC Response, Any Extended Key Usage
            X509v3 Certificate Policies: 
                Policy: 2.16.840.1.114414.1.7.23.1
                  CPS: http://certificates.starfieldtech.com/repository/

    Signature Algorithm: sha256WithRSAEncryption
         1c:92:22:07:cc:73:6d:6d:60:0b:8f:e8:ca:5a:76:4f:dc:10:
         28:04:50:6f:0a:4c:6a:7c:7e:a0:2d:8f:9d:b6:4f:c1:ef:aa:
         bd:7f:06:48:f3:92:83:3b:97:01:55:bf:1a:31:fd:85:e6:f5:
         95:20:64:f4:6d:a7:fb:47:21:c5:c9:f0:ad:d0:59:12:e5:f3:
         49:9a:68:5b:e7:61:96:6d:b1:bf:c3:35:2a:ce:bb:aa:48:76:
         5f:b5:b0:f6:07:08:8f:fc:45:45:14:ff:ad:4e:ef:67:b9:2b:
         00:a6:bd:fe:78:f1:85:78:94:26:87:82:a1:f0:28:79:29:98:
         60:d5:97:0d:05:90:08:af:99:3e:e9:f1:f4:75:e3:fb:4b:cc:
         b0:2b:23:cd:40:8b:eb:6a:3b:dd:b9:ed:65:0d:1c:56:56:bd:
         26:f4:ce:0c:f4:82:1c:57:4f:1e:82:12:03:3f:ed:59:67:5f:
         d8:00:62:ac:fe:29:08:03:2f:55:3f:7e:08:57:3b:5e:58:c6:
         39:f9:4b:03:eb:79:ee:fc:10:23:37:0c:de:88:16:13:3e:e0:
         4d:bd:fc:e5:ff:b1:76:51:c7:40:6b:07:f7:ec:22:0f:af:82:
         ea:ce:c9:98:39:fa:48:23:ba:16:90:f5:5c:20:f2:e0:ec:ba:
         f7:b5:b1:e6
-----BEGIN CERTIFICATE-----
MIIEfTCCA2WgAwIBAgIEAN8B6DANBgkqhkiG9w0BAQsFADBSMQswCQYDVQQGEwJV
UzEWMBQGA1UEChMNTW90aGVyIE5hdHVyZTETMBEGA1UECxMKRXZlcnl0aGluZzEW
MBQGA1UEAxMNTW90aGVyIE5hdHVyZTAeFw0xNjA4MDQxOTQxMzVaFw0xNjEwMTYx
OTQxMzVaMIGZMQswCQYDVQQGEwJVUzELMAkGA1UECBMCRkwxFDASBgNVBAcTC1Rh
bGxhaGFzc2VlMRwwGgYDVQQJExMzMjEwIEhvbGx5IE1pbGwgUnVuMQ4wDAYDVQQR
EwUzMDA2MjEYMBYGA1UEChMPRXh0cmVtZSBEaXNjb3JkMQ4wDAYDVQQLEwVDaGFv
czEPMA0GA1UEAxMGZ292LnVzMIIBIjANBgkqhkiG9w0BAQEFAAOCAQ8AMIIBCgKC
AQEAwW+0reKWVt0PRBW2UW63HNiZSOUyGX9kSbyacCflIO8F+i04y8dHiTNA3KUA
Scbpf+R280Pl3nmpJ0fXQSRJ9HdVSc3cg/qmDHnghkJ9f4fU3aDut4UZHAxXgpFZ
8gqqMwJsauz7c1VB4E3zeiE5/vBN9837yng7vI+x/6Fmw6jtQVoF4UQQGhg1chuY
FWyGfQgdxKGmylszv3p/N38PSqg3ngVHsXaIvtsRvABR4tM1MrMiaedm0nMAJeYs
C+3v/LsH587PO/fVFGgSRV0A96vdqO7SZYVQgsauXnRBcM3ceLXeXkN485+NMpdk
+6Bp6fvUV+kZIxCf5k6aHxYAvQIDAQABo4IBETCCAQ0wDAYDVR0TAQH/BAIwADAO
BgNVHSMEBzAFgAMBAgMwKgYDVR0fBCMwITAfoB2gG4YZbGRhcDovL3RoZWNhLm5l
dC9jcmxwb2ludDANBgNVHQ4EBgQEBAMCATAbBgNVHREEFDASgggqLmdvdi51c4IG
Z292LnVzMAsGA1UdDwQEAwIBGDAtBgNVHSUEJjAkBggrBgEFBQcDAQYJKoZIhvdj
ZAQDBgcrBgEFAgMFBgRVHSUAMFkGA1UdIARSMFAwTgYLYIZIAYb9bgEHFwEwPzA9
BggrBgEFBQcCARYxaHR0cDovL2NlcnRpZmljYXRlcy5zdGFyZmllbGR0ZWNoLmNv
bS9yZXBvc2l0b3J5LzANBgkqhkiG9w0BAQsFAAOCAQEAHJIiB8xzbW1gC4/oylp2
T9wQKARQbwpManx+oC2PnbZPwe+qvX8GSPOSgzuXAVW/GjH9heb1lSBk9G2n+0ch
xcnwrdBZEuXzSZpoW+dhlm2xv8M1Ks67qkh2X7Ww9gcIj/xFRRT/rU7vZ7krAKa9
/njxhXiUJoeCofAoeSmYYNWXDQWQCK+ZPunx9HXj+0vMsCsjzUCL62o73bntZQ0c
Vla9JvTODPSCHFdPHoISAz/tWWdf2ABirP4pCAMvVT9+CFc7XljGOflLA+t57vwQ
IzcM3ogWEz7gTb385f+xdlHHQGsH9+wiD6+C6s7JmDn6SCO6FpD1XCDy4Oy697Wx
5g==
-----END CERTIFICATE-----
