Certificate:
    Data:
        Version: 3 (0x2)
        Serial Number: 14615016 (0xdf01e8)
    Signature Algorithm: sha256WithRSAEncryption
        Issuer: C = US, O = Mother Nature, OU = Everything, CN = Mother Nature
        Validity
            Not Before: Aug  4 19:40:41 2016 GMT
            Not After : Oct 16 19:40:41 2016 GMT
        Subject: C = US, ST = FL, L = Tallahassee, street = 3210 Holly Mill Run, postalCode = 30062, O = Extreme Discord, OU = Chaos, CN = gov.us
        Subject Public Key Info:
            Public Key Algorithm: rsaEncryption
                Public-Key: (2048 bit)
                Modulus:
                    00:e4:02:4e:fe:04:cd:5f:40:de:4b:28:28:14:8a:
                    4c:7d:2d:6c:d7:76:e6:95:96:57:06:e0:96:a2:3a:
                    e9:79:84:5b:6d:af:39:ef:44:74:5b:56:48:60:6e:
                    96:e7:a9:6d:f8:0f:9e:70:43:03:a7:37:25:3f:8a:
                    92:68:db:9d:18:dc:a0:27:cc:27:61:5e:ef:0c:52:
                    47:d1:91:27:2d:f2:e7:3e:02:89:74:d4:7d:df:6e:
                    ea:50:7d:1d:5a:f3:08:0f:cd:27:a4:04:d0:e0:5b:
                    5d:25:22:86:ee:a9:d5:e4:aa:99:08:39:6d:4e:05:
                    f4:15:5f:09:86:b7:60:a7:6e:1f:0c:ae:07:a9:99:
                    3b:88:b1:50:85:55:60:10:fb:87:a0:fa:2b:ee:24:
                    9d:bd:df:37:c2:39:86:b2:30:39:67:c9:33:95:5e:
                    06:63:be:46:2b:b2:cc:80:77:af:fa:6e:f4:ad:1f:
                    5e:a7:75:01:78:d0:38:41:9f:75:e0:09:cf:ab:4e:
                    95:ab:31:fc:42:84:06:23:b2:b2:c4:e6:52:dd:5d:
                    79:6f:e9:89:47:70:0f:25:f1:7f:8c:e2:a6:a4:10:
                    0c:9c:76:fa:fb:a5:a5:f6:d8:fc:e4:d2:28:be:26:
                    9a:0f:67:db:25:82:55:e2:3e:21:ab:dc:ad:69:54:
                    e5:8b
                Exponent: 65537 (0x10001)
        X509v3 extensions:
            X509v3 Basic Constraints: critical
                CA:FALSE
            X509v3 Authority Key Identifier: 
                keyid:01:02:03

            X509v3 CRL Distribution Points: 

                Full Name:
                  URI:theca.net/crlpoint

            X509v3 Subject Key Identifier: 
                04:03:02:01
            X509v3 Subject Alternative Name: 
                DNS:*.gov.us, DNS:gov.us
            X509v3 Key Usage: 
                Data Encipherment, Key Agreement
            X509v3 Extended Key Usage: 
                TLS Web Server Authentication, 1.2.840.113635.100.4.3, Signing KDC Response, Any Extended Key Usage
            X509v3 Certificate Policies: 
                Policy: 2.16.840.1.114414.1.7.23.1
                  CPS: http://certificates.starfieldtech.com/repository/

    Signature Algorithm: sha256WithRSAEncryption
         74:d3:e2:da:b3:e2:80:fd:5a:7a:55:9d:83:cd:b8:44:95:7b:
         ec:6e:62:5b:9c:92:22:29:83:85:65:de:09:f3:9b:fd:50:d0:
         5b:5a:86:a4:0d:9c:0d:09:ef:b7:e5:18:b0:dd:09:1a:89:9c:
         3b:a9:0d:a5:f2:b7:49:1a:21:53:8b:c1:2b:6d:79:7d:09:bf:
         de:18:f9:ff:88:d0:47:fb:9d:93:1f:26:53:3d:43:3a:ef:10:
         ab:a6:da:89:c8:39:b6:c8:9e:cd:a3:8c:9d:49:e5:e8:82:14:
         ab:29:e2:21:1a:a1:28:20:57:39:f4:e0:fc:76:b0:c0:9d:a8:
         29:87:19:9b:75:25:dc:9e:0a:f8:d6:e2:37:4e:23:58:61:a9:
         87:68:8a:ad:05:33:fa:7d:ad:3f:ad:3d:59:e1:cb:c2:9b:a5:
         65:25:64:4e:2c:04:03:05:ca:74:27:68:41:9b:3f:9d:8e:c2:
         65:b5:a7:bc:70:e5:e0:c0:68:14:5e:c6:3f:9f:e2:6d:a7:8a:
         b1:de:11:dc:e4:12:c3:60:eb:09:f5:eb:12:7b:8d:a7:b2:b6:
         1a:21:00:67:28:40:ed:3a:64:dc:df:67:9b:db:7d:7d:3d:fa:
         f8:34:c6:9a:13:b7:ad:b2:d3:01:60:df:8d:31:2d:e6:71:c8:
         4d:ad:78:68
-----BEGIN CERTIFICATE-----
MIIEdjCCA16gAwIBAgIEAN8B6DANBgkqhkiG9w0BAQsFADBSMQswCQYDVQQGEwJV
UzEWMBQGA1UEChMNTW90aGVyIE5hdHVyZTETMBEGA1UECxMKRXZlcnl0aGluZzEW
MBQGA1UEAxMNTW90aGVyIE5hdHVyZTAeFw0xNjA4MDQxOTQwNDFaFw0xNjEwMTYx
OTQwNDFaMIGZMQswCQYDVQQGEwJVUzELMAkGA1UECBMCRkwxFDASBgNVBAcTC1Rh
bGxhaGFzc2VlMRwwGgYDVQQJExMzMjEwIEhvbGx5IE1pbGwgUnVuMQ4wDAYDVQQR
EwUzMDA2MjEYMBYGA1UEChMPRXh0cmVtZSBEaXNjb3JkMQ4wDAYDVQQLEwVDaGFv
czEPMA0GA1UEAxMGZ292LnVzMIIBIjANBgkqhkiG9w0BAQEFAAOCAQ8AMIIBCgKC
AQEA5AJO/gTNX0DeSygoFIpMfS1s13bmlZZXBuCWojrpeYRbba8570R0W1ZIYG6W
56lt+A+ecEMDpzclP4qSaNudGNygJ8wnYV7vDFJH0ZEnLfLnPgKJdNR9327qUH0d
WvMID80npATQ4FtdJSKG7qnV5KqZCDltTgX0FV8Jhrdgp24fDK4HqZk7iLFQhVVg
EPuHoPor7iSdvd83wjmGsjA5Z8kzlV4GY75GK7LMgHev+m70rR9ep3UBeNA4QZ91
4AnPq06VqzH8QoQGI7KyxOZS3V15b+mJR3APJfF/jOKmpBAMnHb6+6Wl9tj85NIo
viaaD2fbJYJV4j4hq9ytaVTliwIDAQABo4IBCjCCAQYwDAYDVR0TAQH/BAIwADAO
BgNVHSMEBzAFgAMBAgMwIwYDVR0fBBwwGjAYoBagFIYSdGhlY2EubmV0L2NybHBv
aW50MA0GA1UdDgQGBAQEAwIBMBsGA1UdEQQUMBKCCCouZ292LnVzggZnb3YudXMw
CwYDVR0PBAQDAgEYMC0GA1UdJQQmMCQGCCsGAQUFBwMBBgkqhkiG92NkBAMGBysG
AQUCAwUGBFUdJQAwWQYDVR0gBFIwUDBOBgtghkgBhv1uAQcXATA/MD0GCCsGAQUF
BwIBFjFodHRwOi8vY2VydGlmaWNhdGVzLnN0YXJmaWVsZHRlY2guY29tL3JlcG9z
aXRvcnkvMA0GCSqGSIb3DQEBCwUAA4IBAQB00+Las+KA/Vp6VZ2DzbhElXvsbmJb
nJIiKYOFZd4J85v9UNBbWoakDZwNCe+35Riw3QkaiZw7qQ2l8rdJGiFTi8ErbXl9
Cb/eGPn/iNBH+52THyZTPUM67xCrptqJyDm2yJ7No4ydSeXoghSrKeIhGqEoIFc5
9OD8drDAnagphxmbdSXcngr41uI3TiNYYamHaIqtBTP6fa0/rT1Z4cvCm6VlJWRO
LAQDBcp0J2hBmz+djsJltae8cOXgwGgUXsY/n+Jtp4qx3hHc5BLDYOsJ9esSe42n
srYaIQBnKEDtOmTc32eb2319Pfr4NMaaE7etstMBYN+NMS3mcchNrXho
-----END CERTIFICATE-----
