Certificate:
    Data:
        Version: 3 (0x2)
        Serial Number:
            16:e3:9f:2c:68:44:05:d6:2f:4a:8a:9e:2c:d7:d2:f7:40:00:00:00:00
    Signature Algorithm: sha256WithRSAEncryption
        Issuer: C = US, O = Mother Nature, OU = Everything, CN = Mother Nature
        Validity
            Not Before: Jul  7 22:15:19 2016 GMT
            Not After : Sep 19 22:15:19 2016 GMT
        Subject: C = US, ST = FL, L = Tallahassee, street = 3210 Holly Mill Run, postalCode = 30062, O = Extreme Discord, OU = Chaos, CN = gov.us
        Subject Public Key Info:
            Public Key Algorithm: rsaEncryption
                Public-Key: (2048 bit)
                Modulus:
                    00:9b:15:61:7d:39:ea:a4:ac:f5:fd:97:28:c7:93:
                    d6:7d:3e:6e:c5:f7:33:c6:1c:6d:1c:03:c3:16:db:
                    35:50:8b:82:24:37:26:a3:f9:64:18:a7:63:5e:75:
                    ba:19:37:dd:52:55:09:3e:12:59:ea:16:52:5c:be:
                    9c:b7:38:cf:e3:07:f1:a4:00:31:66:39:ed:65:cc:
                    cd:27:c9:30:27:9f:66:e0:f6:b1:c9:8e:0f:12:be:
                    32:74:65:93:4f:3f:93:6d:49:fd:00:8a:77:1f:35:
                    73:14:6b:14:19:6c:08:e3:d8:75:55:ba:cd:c4:ee:
                    92:8d:09:47:15:49:14:fc:5f:56:81:bc:de:8a:f3:
                    ab:88:81:20:39:d3:b6:bd:ad:ca:ce:7a:b2:f6:06:
                    a3:26:25:27:c6:20:e8:50:8a:eb:d1:7c:6d:42:52:
                    de:33:fd:af:5c:21:7c:28:d1:f2:17:22:72:53:1e:
                    96:39:b0:0e:ae:65:32:07:f3:19:1a:ba:0f:5a:ac:
                    cb:19:6f:19:ee:d8:ee:9c:9d:07:df:48:fb:1f:9e:
                    ac:f9:8e:49:36:3f:99:32:f3:74:c2:45:da:8f:92:
                    9c:8a:1b:8f:38:cf:f0:d2:f7:94:b8:5a:2d:c4:73:
                    95:26:eb:d2:6d:43:5c:6e:d3:f1:61:68:54:2a:0c:
                    7f:f1
                Exponent: 65537 (0x10001)
        X509v3 extensions:
            X509v3 Basic Constraints: critical
                CA:FALSE
            X509v3 Authority Key Identifier: 
                keyid:01:02:03

            X509v3 Subject Key Identifier: 
                04:03:02:01
            X509v3 Subject Alternative Name: 
                DNS:*.gov.us, DNS:gov.us
            X509v3 Key Usage: 
                Digital Signature, Certificate Sign, CRL Sign
            X509v3 Extended Key Usage: critical
                TLS Web Server Authentication, TLS Web Client Authentication
            X509v3 CRL Distribution Points: critical

                Full Name:
                  URI:http://crl.starfieldtech.com/sfig2s1-17.crl

    Signature Algorithm: sha256WithRSAEncryption
         06:b7:24:95:1c:51:28:ef:aa:33:1d:eb:69:a6:20:1a:6e:65:
         1c:07:c9:56:81:e9:39:25:d5:c8:bd:c4:ed:e4:3c:93:ce:e2:
         6e:1f:fa:a2:c7:7d:77:86:b9:92:ac:24:41:a8:12:5a:af:31:
         8b:3a:7b:25:81:f2:c9:00:f7:82:03:a3:dd:fd:39:64:f7:05:
         d0:49:dc:eb:00:01:7b:e4:c3:d8:a6:0e:fc:71:7c:33:ed:d7:
         f0:59:c8:1b:c3:ce:e5:13:12:ef:65:ad:cb:19:22:a2:8a:f6:
         78:07:1f:6d:1d:ea:fd:f5:a9:6f:45:5d:28:07:ed:d2:b7:44:
         eb:65:1a:0a:1e:16:81:c9:4e:2d:fb:f8:7c:5b:02:56:27:f0:
         5e:3a:71:7d:46:cf:08:f6:96:2d:2a:b0:a4:f9:7d:91:c5:f1:
         0e:02:be:fa:d9:10:cd:ce:05:04:a7:ba:fd:ff:f0:aa:5e:59:
         8d:9f:e9:11:62:6f:e3:82:67:76:f2:80:e1:bc:ed:6c:75:65:
         25:ae:32:d5:ea:02:28:e1:2e:4c:c1:1c:65:e6:96:bc:f9:a2:
         6a:c7:07:8e:52:59:84:67:ec:73:04:d0:69:60:aa:76:5e:4c:
         59:62:87:75:3f:42:24:21:0b:89:15:5a:89:1b:f8:7d:92:4e:
         6b:04:b0:08
-----BEGIN CERTIFICATE-----
MIIEOTCCAyGgAwIBAgIVFuOfLGhEBdYvSoqeLNfS90AAAAAAMA0GCSqGSIb3DQEB
CwUAMFIxCzAJBgNVBAYTAlVTMRYwFAYDVQQKEw1Nb3RoZXIgTmF0dXJlMRMwEQYD
VQQLEwpFdmVyeXRoaW5nMRYwFAYDVQQDEw1Nb3RoZXIgTmF0dXJlMB4XDTE2MDcw
NzIyMTUxOVoXDTE2MDkxOTIyMTUxOVowgZkxCzAJBgNVBAYTAlVTMQswCQYDVQQI
EwJGTDEUMBIGA1UEBxMLVGFsbGFoYXNzZWUxHDAaBgNVBAkTEzMyMTAgSG9sbHkg
TWlsbCBSdW4xDjAMBgNVBBETBTMwMDYyMRgwFgYDVQQKEw9FeHRyZW1lIERpc2Nv
cmQxDjAMBgNVBAsTBUNoYW9zMQ8wDQYDVQQDEwZnb3YudXMwggEiMA0GCSqGSIb3
DQEBAQUAA4IBDwAwggEKAoIBAQCbFWF9OeqkrPX9lyjHk9Z9Pm7F9zPGHG0cA8MW
2zVQi4IkNyaj+WQYp2NedboZN91SVQk+ElnqFlJcvpy3OM/jB/GkADFmOe1lzM0n
yTAnn2bg9rHJjg8SvjJ0ZZNPP5NtSf0AincfNXMUaxQZbAjj2HVVus3E7pKNCUcV
SRT8X1aBvN6K86uIgSA507a9rcrOerL2BqMmJSfGIOhQiuvRfG1CUt4z/a9cIXwo
0fIXInJTHpY5sA6uZTIH8xkaug9arMsZbxnu2O6cnQffSPsfnqz5jkk2P5ky83TC
RdqPkpyKG484z/DS95S4Wi3Ec5Um69JtQ1xu0/FhaFQqDH/xAgMBAAGjgb0wgbow
DAYDVR0TAQH/BAIwADAOBgNVHSMEBzAFgAMBAgMwDQYDVR0OBAYEBAQDAgEwGwYD
VR0RBBQwEoIIKi5nb3YudXOCBmdvdi51czALBgNVHQ8EBAMCAYYwIAYDVR0lAQH/
BBYwFAYIKwYBBQUHAwEGCCsGAQUFBwMCMD8GA1UdHwEB/wQ1MDMwMaAvoC2GK2h0
dHA6Ly9jcmwuc3RhcmZpZWxkdGVjaC5jb20vc2ZpZzJzMS0xNy5jcmwwDQYJKoZI
hvcNAQELBQADggEBAAa3JJUcUSjvqjMd62mmIBpuZRwHyVaB6Tkl1ci9xO3kPJPO
4m4f+qLHfXeGuZKsJEGoElqvMYs6eyWB8skA94IDo939OWT3BdBJ3OsAAXvkw9im
DvxxfDPt1/BZyBvDzuUTEu9lrcsZIqKK9ngHH20d6v31qW9FXSgH7dK3ROtlGgoe
FoHJTi37+HxbAlYn8F46cX1Gzwj2li0qsKT5fZHF8Q4CvvrZEM3OBQSnuv3/8Kpe
WY2f6RFib+OCZ3bygOG87Wx1ZSWuMtXqAijhLkzBHGXmlrz5omrHB45SWYRn7HME
0GlgqnZeTFlih3U/QiQhC4kVWokb+H2STmsEsAg=
-----END CERTIFICATE-----
