Certificate:
    Data:
        Version: 3 (0x2)
        Serial Number: 1710164964 (0x65ef0be4)
        Signature Algorithm: sha256WithRSAEncryption
        Issuer: CN=example.com
        Validity
            Not Before: Mar 11 13:49:24 2024 GMT
            Not After : Mar 11 13:49:24 2025 GMT
        Subject: CN=example.com
        Subject Public Key Info:
            Public Key Algorithm: rsaEncryption
                Public-Key: (2048 bit)
                Modulus:
                    00:ee:46:ac:c4:de:6d:24:57:69:3d:fb:2b:3b:fa:
                    8a:b3:48:62:ac:6f:4d:7b:74:e7:98:87:01:cd:b0:
                    30:64:a0:d3:8a:8d:c3:50:13:98:d2:78:12:20:f2:
                    bb:ed:7f:b9:c9:a2:35:7a:9f:d2:a9:92:9b:3b:e7:
                    4f:48:10:8f:62:7d:0f:c1:c6:ce:92:8f:3b:1e:d8:
                    a7:b9:26:8c:0c:f8:11:c5:52:51:33:6d:c2:45:f8:
                    32:e0:e5:b9:f7:bb:69:68:ae:94:92:97:9e:cf:d6:
                    0b:5b:44:a7:b8:52:ad:6a:94:25:a5:03:86:e6:1b:
                    0e:69:47:c2:b7:bc:b5:35:da:87:13:12:48:c1:7f:
                    5e:27:62:14:70:12:6f:9d:20:6e:8d:5c:7c:13:0c:
                    df:d9:07:56:ac:ee:dd:64:34:08:c0:29:b2:e4:50:
                    ac:e7:56:03:17:1d:e8:87:b2:49:cb:da:f1:38:fd:
                    f6:77:69:de:11:fc:c2:c0:a2:15:9d:22:cb:7e:73:
                    43:c5:c5:fe:ba:ef:f0:ab:db:7d:02:30:09:c5:57:
                    48:25:06:99:f1:5f:25:c4:14:29:90:5d:18:0e:63:
                    c5:69:95:47:75:da:42:7a:98:09:11:44:83:6c:17:
                    64:d5:4a:07:49:5b:2a:3f:d2:65:e7:f5:f5:98:43:
                    2d:3b
                Exponent: 65537 (0x10001)
        X509v3 extensions:
            X509v3 Key Usage: critical
                Digital Signature, Key Encipherment
            X509v3 Subject Alternative Name: 
                DNS:example.com
            X509v3 CRL Distribution Points: 
                Full Name:
                  URI:http://example.com/valid.crl                CRL Issuer:
                  DirName:CN = example.com CRL
            X509v3 Authority Key Identifier: 
                1A:F7:81:52:5D:45:97:62:87:CA:0B:11:4C:FA:02:70:6F:4F:23:61
            X509v3 Subject Key Identifier: 
                1A:F7:81:52:5D:45:97:62:87:CA:0B:11:4C:FA:02:70:6F:4F:23:61
            X509v3 Extended Key Usage: 
                TLS Web Server Authentication
    Signature Algorithm: sha256WithRSAEncryption
    Signature Value:
        06:d6:d6:45:58:b5:08:62:6d:fd:f4:9e:d8:ee:02:41:ba:82:
        63:37:1f:1c:6f:4e:24:fb:ec:b6:b3:a1:41:3d:c9:06:7d:f8:
        18:38:ab:04:e7:27:21:25:ee:30:5d:6a:7a:20:70:11:fe:74:
        bc:85:6a:7b:64:d8:ff:89:f4:87:eb:6d:46:ac:6a:21:6f:dc:
        96:95:4d:fa:6b:79:1a:c8:3e:2f:16:dd:4e:40:fa:ef:d8:53:
        1e:64:3a:13:f3:b7:4a:66:bb:d7:90:01:f7:11:8a:03:a2:e4:
        b6:eb:a4:25:1c:8b:03:4a:91:8d:0a:02:f0:35:05:0d:35:70:
        44:0d:b4:af:6f:19:35:57:83:9c:8a:7b:79:49:1a:1d:ea:25:
        91:f7:9b:52:09:21:96:01:75:f8:e5:c0:40:d1:b2:37:68:17:
        a3:63:ed:02:af:a3:e7:a3:e7:94:1d:dc:e6:62:8a:71:f5:2c:
        6c:f2:79:99:25:4b:f1:21:1e:66:f8:1d:17:f0:96:c7:47:0a:
        01:25:f9:37:1a:49:16:91:83:69:6d:51:5f:a3:74:80:a7:e8:
        4d:f5:5b:c1:b7:31:89:4d:17:ea:1e:31:3a:49:5a:38:3c:4b:
        3b:0e:90:d9:64:ee:ff:37:d5:ad:11:6f:01:93:49:5e:70:6e:
        7e:0e:05:17
-----BEGIN CERTIFICATE-----
MIIDejCCAmKgAwIBAgIEZe8L5DANBgkqhkiG9w0BAQsFADAWMRQwEgYDVQQDDAtl
eGFtcGxlLmNvbTAeFw0yNDAzMTExMzQ5MjRaFw0yNTAzMTExMzQ5MjRaMBYxFDAS
BgNVBAMMC2V4YW1wbGUuY29tMIIBIjANBgkqhkiG9w0BAQEFAAOCAQ8AMIIBCgKC
AQEA7kasxN5tJFdpPfsrO/qKs0hirG9Ne3TnmIcBzbAwZKDTio3DUBOY0ngSIPK7
7X+5yaI1ep/SqZKbO+dPSBCPYn0PwcbOko87HtinuSaMDPgRxVJRM23CRfgy4OW5
97tpaK6Ukpeez9YLW0SnuFKtapQlpQOG5hsOaUfCt7y1NdqHExJIwX9eJ2IUcBJv
nSBujVx8Ewzf2QdWrO7dZDQIwCmy5FCs51YDFx3oh7JJy9rxOP32d2neEfzCwKIV
nSLLfnNDxcX+uu/wq9t9AjAJxVdIJQaZ8V8lxBQpkF0YDmPFaZVHddpCepgJEUSD
bBdk1UoHSVsqP9Jl5/X1mEMtOwIDAQABo4HPMIHMMA4GA1UdDwEB/wQEAwIFoDAW
BgNVHREEDzANggtleGFtcGxlLmNvbTBNBgNVHR8ERjBEMEKgIKAehhxodHRwOi8v
ZXhhbXBsZS5jb20vdmFsaWQuY3Jsoh6kHDAaMRgwFgYDVQQDDA9leGFtcGxlLmNv
bSBDUkwwHwYDVR0jBBgwFoAUGveBUl1Fl2KHygsRTPoCcG9PI2EwHQYDVR0OBBYE
FBr3gVJdRZdih8oLEUz6AnBvTyNhMBMGA1UdJQQMMAoGCCsGAQUFBwMBMA0GCSqG
SIb3DQEBCwUAA4IBAQAG1tZFWLUIYm399J7Y7gJBuoJjNx8cb04k++y2s6FBPckG
ffgYOKsE5ychJe4wXWp6IHAR/nS8hWp7ZNj/ifSH621GrGohb9yWlU36a3kayD4v
Ft1OQPrv2FMeZDoT87dKZrvXkAH3EYoDouS266QlHIsDSpGNCgLwNQUNNXBEDbSv
bxk1V4Ocint5SRod6iWR95tSCSGWAXX45cBA0bI3aBejY+0Cr6Pno+eUHdzmYopx
9Sxs8nmZJUvxIR5m+B0X8JbHRwoBJfk3GkkWkYNpbVFfo3SAp+hN9VvBtzGJTRfq
HjE6SVo4PEs7DpDZZO7/N9WtEW8Bk0lecG5+DgUX
-----END CERTIFICATE-----
