Certificate:
    Data:
        Version: 3 (0x2)
        Serial Number: 1710164777 (0x65ef0b29)
        Signature Algorithm: sha256WithRSAEncryption
        Issuer: CN=example.com
        Validity
            Not Before: Mar 11 13:46:17 2024 GMT
            Not After : Mar 11 13:46:17 2025 GMT
        Subject: CN=example.com
        Subject Public Key Info:
            Public Key Algorithm: rsaEncryption
                Public-Key: (2048 bit)
                Modulus:
                    00:b1:b2:ba:bf:6f:31:ab:5a:bc:d7:5c:c7:8c:ff:
                    c8:d8:8e:ee:67:f0:64:ab:e0:95:49:27:a7:1e:0d:
                    3e:83:69:86:6a:02:6e:96:2a:54:93:a3:8e:b9:85:
                    0f:2e:01:9c:d7:22:a7:bc:f8:55:67:01:58:6b:5d:
                    e0:49:84:86:97:ee:74:45:37:c6:c6:5f:34:bc:fc:
                    a2:cc:16:71:35:26:52:ab:c5:93:4e:54:9c:b7:4d:
                    f0:5e:39:cf:a1:a9:b9:e8:ec:00:01:1f:69:cd:71:
                    2e:34:9a:1b:70:40:f1:11:55:04:fa:3e:29:5e:24:
                    25:33:b6:4b:4e:20:13:d4:19:8e:64:53:d7:0c:f8:
                    15:bb:ac:03:04:da:76:be:66:e9:c6:18:0b:40:5b:
                    02:33:c4:c5:ab:6f:e4:e2:45:76:60:95:91:f4:e0:
                    8b:3a:67:e9:1d:0f:c2:9b:64:5f:83:db:75:8f:50:
                    8a:d7:ab:d5:f9:aa:43:08:95:b1:36:ce:4f:e1:a9:
                    b1:89:13:63:0a:a4:bd:2b:3e:34:cf:17:be:b1:77:
                    6f:bd:6b:fe:ea:1a:5b:88:50:82:24:3c:d2:fb:e3:
                    ed:3b:8f:c1:d0:24:01:fd:54:0c:6f:a6:3e:65:42:
                    78:4a:0d:c9:e1:0d:bc:72:ca:6f:65:90:9e:fe:ac:
                    d4:5b
                Exponent: 65537 (0x10001)
        X509v3 extensions:
            X509v3 Key Usage: critical
                Digital Signature, Key Encipherment
            X509v3 Subject Alternative Name: 
                DNS:example.com
            X509v3 Authority Key Identifier: 
                55:1B:B4:56:7E:7E:1B:0F:B4:61:29:33:6F:99:E8:C8:A2:B4:77:F4
            X509v3 Subject Key Identifier: 
                55:1B:B4:56:7E:7E:1B:0F:B4:61:29:33:6F:99:E8:C8:A2:B4:77:F4
            X509v3 Extended Key Usage: 
                TLS Web Server Authentication
    Signature Algorithm: sha256WithRSAEncryption
    Signature Value:
        a4:dc:3f:11:b7:06:86:ce:7b:54:84:f7:65:7c:05:5b:bb:2c:
        f8:e1:2d:fc:5c:73:a6:6a:bb:e2:70:20:7f:c6:96:c3:d8:36:
        d6:4a:1b:bd:b7:97:a3:b0:6e:94:0e:b4:28:aa:ec:e8:35:ce:
        3a:e7:33:1b:4b:a9:21:ea:53:ca:e9:c5:5b:3e:f1:92:20:e5:
        a2:ca:2b:85:1e:e9:db:4a:04:fb:59:76:bd:7e:ea:45:98:dd:
        10:c1:e3:fc:e4:4d:9f:85:f8:5d:6c:96:6f:72:6b:87:37:ba:
        cc:f4:b0:10:92:d2:01:b8:ae:18:2a:33:9a:60:ef:4b:03:2d:
        28:d9:3b:fd:4b:48:d7:38:e0:09:d5:87:88:c7:45:25:44:ab:
        e0:d9:f7:8c:24:d5:b2:81:08:da:5d:a0:64:9e:b1:0c:b3:27:
        36:b7:68:64:bd:66:30:a4:fe:10:9c:4c:12:dd:2e:f3:ec:7e:
        d3:0a:f7:a0:44:31:f0:71:25:56:52:cc:17:fd:11:94:d1:62:
        2d:5b:12:25:8c:86:4e:8c:92:37:cc:29:b3:34:d8:2b:c6:62:
        0c:22:05:84:f4:49:ad:d9:cc:e3:99:e8:f8:af:7b:9e:36:db:
        01:b8:17:50:fb:00:19:8b:38:02:b7:12:12:46:14:5f:96:69:
        5a:07:7d:b3
-----BEGIN CERTIFICATE-----
MIIDKTCCAhGgAwIBAgIEZe8LKTANBgkqhkiG9w0BAQsFADAWMRQwEgYDVQQDDAtl
eGFtcGxlLmNvbTAeFw0yNDAzMTExMzQ2MTdaFw0yNTAzMTExMzQ2MTdaMBYxFDAS
BgNVBAMMC2V4YW1wbGUuY29tMIIBIjANBgkqhkiG9w0BAQEFAAOCAQ8AMIIBCgKC
AQEAsbK6v28xq1q811zHjP/I2I7uZ/Bkq+CVSSenHg0+g2mGagJulipUk6OOuYUP
LgGc1yKnvPhVZwFYa13gSYSGl+50RTfGxl80vPyizBZxNSZSq8WTTlSct03wXjnP
oam56OwAAR9pzXEuNJobcEDxEVUE+j4pXiQlM7ZLTiAT1BmOZFPXDPgVu6wDBNp2
vmbpxhgLQFsCM8TFq2/k4kV2YJWR9OCLOmfpHQ/Cm2Rfg9t1j1CK16vV+apDCJWx
Ns5P4amxiRNjCqS9Kz40zxe+sXdvvWv+6hpbiFCCJDzS++PtO4/B0CQB/VQMb6Y+
ZUJ4Sg3J4Q28cspvZZCe/qzUWwIDAQABo38wfTAOBgNVHQ8BAf8EBAMCBaAwFgYD
VR0RBA8wDYILZXhhbXBsZS5jb20wHwYDVR0jBBgwFoAUVRu0Vn5+Gw+0YSkzb5no
yKK0d/QwHQYDVR0OBBYEFFUbtFZ+fhsPtGEpM2+Z6MiitHf0MBMGA1UdJQQMMAoG
CCsGAQUFBwMBMA0GCSqGSIb3DQEBCwUAA4IBAQCk3D8RtwaGzntUhPdlfAVbuyz4
4S38XHOmarvicCB/xpbD2DbWShu9t5ejsG6UDrQoquzoNc465zMbS6kh6lPK6cVb
PvGSIOWiyiuFHunbSgT7WXa9fupFmN0QweP85E2fhfhdbJZvcmuHN7rM9LAQktIB
uK4YKjOaYO9LAy0o2Tv9S0jXOOAJ1YeIx0UlRKvg2feMJNWygQjaXaBknrEMsyc2
t2hkvWYwpP4QnEwS3S7z7H7TCvegRDHwcSVWUswX/RGU0WItWxIljIZOjJI3zCmz
NNgrxmIMIgWE9Emt2czjmej4r3ueNtsBuBdQ+wAZizgCtxISRhRflmlaB32z
-----END CERTIFICATE-----
