Certificate:
    Data:
        Version: 3 (0x2)
        Serial Number: 1710164847 (0x65ef0b6f)
        Signature Algorithm: sha256WithRSAEncryption
        Issuer: CN=example.com
        Validity
            Not Before: Mar 11 13:47:27 2024 GMT
            Not After : Mar 11 13:47:27 2025 GMT
        Subject: CN=example.com
        Subject Public Key Info:
            Public Key Algorithm: rsaEncryption
                Public-Key: (2048 bit)
                Modulus:
                    00:8b:bf:a6:f9:8d:c3:ee:53:9e:fa:39:b0:11:9e:
                    a5:dc:1f:81:3d:78:40:33:2a:02:a6:0b:31:60:0c:
                    55:60:0e:24:5a:ee:ad:cc:a4:78:43:a6:5d:6c:34:
                    23:97:05:e1:d6:96:22:e9:a4:2a:e2:e1:cf:e6:8e:
                    cb:b3:e0:f3:23:01:df:87:59:6a:a4:dc:28:84:76:
                    45:c5:4d:77:dc:b0:95:cf:bd:03:f9:a5:7f:0f:83:
                    02:06:19:f6:85:2d:aa:51:63:63:fc:52:a2:f9:ab:
                    53:be:5f:d0:65:67:4d:7f:51:f4:8c:ee:17:90:78:
                    20:d3:a2:0c:97:fa:e4:14:2f:58:7d:af:a2:91:1b:
                    04:d4:67:1f:72:bd:c5:7b:bd:10:c4:2a:18:8b:71:
                    59:09:2d:0f:04:89:f2:93:74:89:98:84:4c:5a:c5:
                    a0:16:5c:3a:f3:a7:bf:a4:3a:3d:d7:aa:aa:83:39:
                    f5:2d:de:5f:6c:80:ac:1c:37:de:d4:44:ed:23:8f:
                    a2:cc:3a:27:ba:fa:89:45:0a:9e:46:38:e2:65:34:
                    53:46:27:55:93:4e:69:ae:0a:ed:cb:c5:25:49:32:
                    9f:08:c0:b6:a4:d0:a1:0f:11:78:68:11:4f:7d:5c:
                    e9:a1:11:0b:58:ec:ad:4e:c9:e3:80:20:ae:a7:f8:
                    36:c3
                Exponent: 65537 (0x10001)
        X509v3 extensions:
            X509v3 Key Usage: critical
                Digital Signature, Key Encipherment
            X509v3 Subject Alternative Name: 
                DNS:example.com
            X509v3 CRL Distribution Points: 
                Full Name:
                  URI:http://example.com/validcrl.crl
            X509v3 Authority Key Identifier: 
                ED:39:16:91:2E:01:B4:17:F3:33:62:53:D9:20:C4:63:25:C4:02:7D
            X509v3 Subject Key Identifier: 
                ED:39:16:91:2E:01:B4:17:F3:33:62:53:D9:20:C4:63:25:C4:02:7D
            X509v3 Extended Key Usage: 
                TLS Web Server Authentication
    Signature Algorithm: sha256WithRSAEncryption
    Signature Value:
        20:47:3f:fc:c2:68:8a:f7:de:a2:35:1b:4e:be:c6:e0:23:05:
        91:2e:cd:b1:fb:7b:08:cc:d8:00:ad:a9:9e:73:6f:5d:a9:d1:
        5e:d6:ca:af:d6:47:7b:a2:0f:66:e0:9e:ab:39:75:cc:ac:67:
        3c:07:ea:c1:e9:be:b4:76:28:c1:66:33:1d:34:f3:af:0c:45:
        5a:06:84:8d:22:ab:a4:a2:27:9e:61:e3:51:a0:df:fd:0b:1f:
        9d:5b:81:f6:2c:c3:a0:cd:7f:77:20:d8:8d:73:f5:5b:10:bf:
        ed:f4:81:ba:7b:8b:9b:51:bc:7d:ec:09:ef:83:04:cd:d6:a4:
        3e:49:dc:e6:f4:76:01:5e:69:76:c5:1e:a6:29:b4:96:90:56:
        66:25:6d:0d:81:ff:c2:2e:54:87:30:7e:d8:f8:a3:b8:01:a3:
        4d:d1:38:7c:45:ac:78:22:25:5d:89:cf:b2:c8:b8:f2:d0:db:
        60:26:3f:41:79:67:27:d1:43:14:e0:b7:0c:11:92:8d:4d:60:
        13:f8:65:63:14:93:4a:75:bf:70:cd:da:51:d4:b4:46:ff:3c:
        14:54:7a:45:11:ba:09:d9:35:67:13:f5:6b:08:ca:67:b0:8b:
        73:98:da:49:ca:ea:ae:2c:ec:3a:1a:5a:68:90:35:97:67:96:
        27:4f:c5:cc
-----BEGIN CERTIFICATE-----
MIIDXTCCAkWgAwIBAgIEZe8LbzANBgkqhkiG9w0BAQsFADAWMRQwEgYDVQQDDAtl
eGFtcGxlLmNvbTAeFw0yNDAzMTExMzQ3MjdaFw0yNTAzMTExMzQ3MjdaMBYxFDAS
BgNVBAMMC2V4YW1wbGUuY29tMIIBIjANBgkqhkiG9w0BAQEFAAOCAQ8AMIIBCgKC
AQEAi7+m+Y3D7lOe+jmwEZ6l3B+BPXhAMyoCpgsxYAxVYA4kWu6tzKR4Q6ZdbDQj
lwXh1pYi6aQq4uHP5o7Ls+DzIwHfh1lqpNwohHZFxU133LCVz70D+aV/D4MCBhn2
hS2qUWNj/FKi+atTvl/QZWdNf1H0jO4XkHgg06IMl/rkFC9Yfa+ikRsE1Gcfcr3F
e70QxCoYi3FZCS0PBInyk3SJmIRMWsWgFlw686e/pDo916qqgzn1Ld5fbICsHDfe
1ETtI4+izDonuvqJRQqeRjjiZTRTRidVk05prgrty8UlSTKfCMC2pNChDxF4aBFP
fVzpoRELWOytTsnjgCCup/g2wwIDAQABo4GyMIGvMA4GA1UdDwEB/wQEAwIFoDAW
BgNVHREEDzANggtleGFtcGxlLmNvbTAwBgNVHR8EKTAnMCWgI6Ahhh9odHRwOi8v
ZXhhbXBsZS5jb20vdmFsaWRjcmwuY3JsMB8GA1UdIwQYMBaAFO05FpEuAbQX8zNi
U9kgxGMlxAJ9MB0GA1UdDgQWBBTtORaRLgG0F/MzYlPZIMRjJcQCfTATBgNVHSUE
DDAKBggrBgEFBQcDATANBgkqhkiG9w0BAQsFAAOCAQEAIEc//MJoivfeojUbTr7G
4CMFkS7Nsft7CMzYAK2pnnNvXanRXtbKr9ZHe6IPZuCeqzl1zKxnPAfqwem+tHYo
wWYzHTTzrwxFWgaEjSKrpKInnmHjUaDf/QsfnVuB9izDoM1/dyDYjXP1WxC/7fSB
unuLm1G8fewJ74MEzdakPknc5vR2AV5pdsUepim0lpBWZiVtDYH/wi5UhzB+2Pij
uAGjTdE4fEWseCIlXYnPssi48tDbYCY/QXlnJ9FDFOC3DBGSjU1gE/hlYxSTSnW/
cM3aUdS0Rv88FFR6RRG6Cdk1ZxP1awjKZ7CLc5jaScrqrizsOhpaaJA1l2eWJ0/F
zA==
-----END CERTIFICATE-----
