Certificate:
    Data:
        Version: 3 (0x2)
        Serial Number: 2504317466764564129 (0x22c11f77b34ed6a1)
        Signature Algorithm: sha256WithRSAEncryption
        Issuer: CN = lint_ct_sct_policy_count_unsatisified_test CA
        Validity
            Not Before: Apr  6 16:37:24 2019 GMT
            Not After : Oct  6 16:37:24 2020 GMT
        Subject: CN = zmap.io
        Subject Public Key Info:
            Public Key Algorithm: rsaEncryption
                RSA Public-Key: (512 bit)
                Modulus:
                    00:b3:1c:79:c5:0c:f1:39:ab:73:e2:b6:73:c3:0f:
                    3f:3c:0c:d0:55:b0:62:7a:fe:f0:5d:41:f0:6d:8f:
                    80:4e:62:a3:be:54:a8:8e:71:7e:f4:de:09:6e:32:
                    b9:28:f0:e6:28:b9:e3:5b:93:5f:c1:88:b5:83:c1:
                    13:d5:20:c8:ab
                Exponent: 65537 (0x10001)
        X509v3 extensions:
            X509v3 Key Usage: critical
                Digital Signature, Key Encipherment
            X509v3 Extended Key Usage: 
                TLS Web Server Authentication, TLS Web Client Authentication
            X509v3 Basic Constraints: critical
                CA:FALSE
            X509v3 Subject Alternative Name: 
                DNS:zmap.io
            CT Precertificate SCTs: 
                Signed Certificate Timestamp:
                    Version   : v1 (0x0)
                    Log ID    : B0:F7:5E:C5:4A:CD:04:C3:BD:7F:D5:F2:25:DD:EE:E2:
                                37:40:D2:58:0E:C2:25:CA:28:0C:5B:A9:12:BA:B8:D1
                    Timestamp : Apr  6 16:37:24.264 2019 GMT
                    Extensions: none
                    Signature : ecdsa-with-SHA256
                                F3:86:8F:1F:A2:02:B2:3B:82:0D:82:CD:7A:39:24:97:
                                EB:2A:E0:DA:0E:97:79:85:66:8A:AF:F9:D2:37:7B:A7
                Signed Certificate Timestamp:
                    Version   : v1 (0x0)
                    Log ID    : B0:FD:62:36:8A:2C:C8:F5:45:90:5D:7A:7A:9E:34:ED:
                                B8:F6:86:9C:B3:FE:8C:1B:07:B4:FD:3E:A8:7F:88:1C
                    Timestamp : Apr  6 16:37:24.264 2019 GMT
                    Extensions: none
                    Signature : ecdsa-with-SHA256
                                F3:86:8F:1F:A2:02:B2:3B:82:0D:82:CD:7A:39:24:97:
                                EB:2A:E0:DA:0E:97:79:85:66:8A:AF:F9:D2:37:7B:A7
                Signed Certificate Timestamp:
                    Version   : v1 (0x0)
                    Log ID    : 38:73:45:D5:C8:B8:56:76:82:F2:AA:21:18:AB:36:9A:
                                98:C0:EA:3F:45:3E:AD:35:28:0A:29:2A:EE:96:7B:E8
                    Timestamp : Apr  6 16:37:24.264 2019 GMT
                    Extensions: none
                    Signature : ecdsa-with-SHA256
                                F3:86:8F:1F:A2:02:B2:3B:82:0D:82:CD:7A:39:24:97:
                                EB:2A:E0:DA:0E:97:79:85:66:8A:AF:F9:D2:37:7B:A7
    Signature Algorithm: sha256WithRSAEncryption
         93:09:20:54:97:eb:90:7e:40:1a:93:ce:29:0e:35:ef:c1:89:
         45:d0:c9:0e:94:d0:a2:77:96:e5:f2:9e:16:81:33:fb:89:8f:
         64:b2:f5:f4:e5:fc:c8:37:7f:39:14:c4:fd:54:5c:98:c7:79:
         6e:40:6a:3d:84:bc:66:ca:77:ad
-----BEGIN CERTIFICATE-----
MIICpDCCAk6gAwIBAgIIIsEfd7NO1qEwDQYJKoZIhvcNAQELBQAwODE2MDQGA1UE
AwwtbGludF9jdF9zY3RfcG9saWN5X2NvdW50X3Vuc2F0aXNpZmllZF90ZXN0IENB
MB4XDTE5MDQwNjE2MzcyNFoXDTIwMTAwNjE2MzcyNFowEjEQMA4GA1UEAxMHem1h
cC5pbzBcMA0GCSqGSIb3DQEBAQUAA0sAMEgCQQCzHHnFDPE5q3PitnPDDz88DNBV
sGJ6/vBdQfBtj4BOYqO+VKiOcX703gluMrko8OYoueNbk1/BiLWDwRPVIMirAgMB
AAGjggFgMIIBXDAOBgNVHQ8BAf8EBAMCBaAwHQYDVR0lBBYwFAYIKwYBBQUHAwEG
CCsGAQUFBwMCMAwGA1UdEwEB/wQCMAAwEgYDVR0RBAswCYIHem1hcC5pbzCCAQcG
CisGAQQB1nkCBAIEgfgEgfUA8wBPALD3XsVKzQTDvX/V8iXd7uI3QNJYDsIlyigM
W6kSurjRAAABafODBqgAAAQDACDzho8fogKyO4INgs16OSSX6yrg2g6XeYVmiq/5
0jd7pwBPALD9YjaKLMj1RZBdenqeNO249oacs/6MGwe0/T6of4gcAAABafODBqgA
AAQDACDzho8fogKyO4INgs16OSSX6yrg2g6XeYVmiq/50jd7pwBPADhzRdXIuFZ2
gvKqIRirNpqYwOo/RT6tNSgKKSrulnvoAAABafODBqgAAAQDACDzho8fogKyO4IN
gs16OSSX6yrg2g6XeYVmiq/50jd7pzANBgkqhkiG9w0BAQsFAANBAJMJIFSX65B+
QBqTzikONe/BiUXQyQ6U0KJ3luXynhaBM/uJj2Sy9fTl/Mg3fzkUxP1UXJjHeW5A
aj2EvGbKd60=
-----END CERTIFICATE-----
