Certificate:
    Data:
        Version: 3 (0x2)
        Serial Number: 68826212176208159 (0xf4851347ffa11f)
        Signature Algorithm: sha256WithRSAEncryption
        Issuer: CN = lint_ct_sct_policy_count_unsatisified_test CA
        Validity
            Not Before: Apr  6 16:39:07 2019 GMT
            Not After : Jun  6 16:39:07 2022 GMT
        Subject: CN = zmap.io
        Subject Public Key Info:
            Public Key Algorithm: rsaEncryption
                RSA Public-Key: (512 bit)
                Modulus:
                    00:ab:61:01:e2:bf:b5:76:15:7f:4a:25:5b:4b:08:
                    3a:60:19:79:25:b4:35:a8:08:20:5e:f8:a9:ee:a1:
                    1b:99:6b:5d:ff:bf:3c:7a:9e:fe:5d:f6:fd:9e:8c:
                    36:11:f7:b4:f6:50:f7:29:59:42:ec:07:34:60:fa:
                    7b:4e:9f:0f:cf
                Exponent: 65537 (0x10001)
        X509v3 extensions:
            X509v3 Key Usage: critical
                Digital Signature, Key Encipherment
            X509v3 Extended Key Usage: 
                TLS Web Server Authentication, TLS Web Client Authentication
            X509v3 Basic Constraints: critical
                CA:FALSE
            X509v3 Subject Alternative Name: 
                DNS:zmap.io
            CT Precertificate SCTs: 
                Signed Certificate Timestamp:
                    Version   : v1 (0x0)
                    Log ID    : B0:F7:5E:C5:4A:CD:04:C3:BD:7F:D5:F2:25:DD:EE:E2:
                                37:40:D2:58:0E:C2:25:CA:28:0C:5B:A9:12:BA:B8:D1
                    Timestamp : Apr  6 16:39:07.763 2019 GMT
                    Extensions: none
                    Signature : ecdsa-with-SHA256
                                F3:86:8F:1F:A2:02:B2:3B:82:0D:82:CD:7A:39:24:97:
                                EB:2A:E0:DA:0E:97:79:85:66:8A:AF:F9:D2:37:7B:A7
                Signed Certificate Timestamp:
                    Version   : v1 (0x0)
                    Log ID    : B0:FD:62:36:8A:2C:C8:F5:45:90:5D:7A:7A:9E:34:ED:
                                B8:F6:86:9C:B3:FE:8C:1B:07:B4:FD:3E:A8:7F:88:1C
                    Timestamp : Apr  6 16:39:07.763 2019 GMT
                    Extensions: none
                    Signature : ecdsa-with-SHA256
                                F3:86:8F:1F:A2:02:B2:3B:82:0D:82:CD:7A:39:24:97:
                                EB:2A:E0:DA:0E:97:79:85:66:8A:AF:F9:D2:37:7B:A7
                Signed Certificate Timestamp:
                    Version   : v1 (0x0)
                    Log ID    : 38:73:45:D5:C8:B8:56:76:82:F2:AA:21:18:AB:36:9A:
                                98:C0:EA:3F:45:3E:AD:35:28:0A:29:2A:EE:96:7B:E8
                    Timestamp : Apr  6 16:39:07.763 2019 GMT
                    Extensions: none
                    Signature : ecdsa-with-SHA256
                                F3:86:8F:1F:A2:02:B2:3B:82:0D:82:CD:7A:39:24:97:
                                EB:2A:E0:DA:0E:97:79:85:66:8A:AF:F9:D2:37:7B:A7
                Signed Certificate Timestamp:
                    Version   : v1 (0x0)
                    Log ID    : 6F:38:2E:1E:1B:FA:35:39:36:3C:2A:F5:17:EC:60:2C:
                                1B:B0:43:47:92:8C:19:AD:E7:A4:79:FB:7D:88:08:E0
                    Timestamp : Apr  6 16:39:07.763 2019 GMT
                    Extensions: none
                    Signature : ecdsa-with-SHA256
                                F3:86:8F:1F:A2:02:B2:3B:82:0D:82:CD:7A:39:24:97:
                                EB:2A:E0:DA:0E:97:79:85:66:8A:AF:F9:D2:37:7B:A7
    Signature Algorithm: sha256WithRSAEncryption
         5c:28:fd:27:6b:8e:a6:bb:42:a9:8d:db:bf:62:cb:c8:95:9a:
         41:63:ae:38:38:ee:9d:6c:54:6b:31:23:a7:1f:01:98:d2:04:
         59:a1:65:d8:94:c5:9b:3d:cd:8b:91:12:42:7f:41:f8:2e:ca:
         0d:da:ef:f5:c7:22:6a:1e:0c:ce
-----BEGIN CERTIFICATE-----
MIIC9zCCAqGgAwIBAgIIAPSFE0f/oR8wDQYJKoZIhvcNAQELBQAwODE2MDQGA1UE
AwwtbGludF9jdF9zY3RfcG9saWN5X2NvdW50X3Vuc2F0aXNpZmllZF90ZXN0IENB
MB4XDTE5MDQwNjE2MzkwN1oXDTIyMDYwNjE2MzkwN1owEjEQMA4GA1UEAxMHem1h
cC5pbzBcMA0GCSqGSIb3DQEBAQUAA0sAMEgCQQCrYQHiv7V2FX9KJVtLCDpgGXkl
tDWoCCBe+KnuoRuZa13/vzx6nv5d9v2ejDYR97T2UPcpWULsBzRg+ntOnw/PAgMB
AAGjggGzMIIBrzAOBgNVHQ8BAf8EBAMCBaAwHQYDVR0lBBYwFAYIKwYBBQUHAwEG
CCsGAQUFBwMCMAwGA1UdEwEB/wQCMAAwEgYDVR0RBAswCYIHem1hcC5pbzCCAVoG
CisGAQQB1nkCBAIEggFKBIIBRgFEAE8AsPdexUrNBMO9f9XyJd3u4jdA0lgOwiXK
KAxbqRK6uNEAAAFp84Sa8wAABAMAIPOGjx+iArI7gg2CzXo5JJfrKuDaDpd5hWaK
r/nSN3unAE8AsP1iNoosyPVFkF16ep407bj2hpyz/owbB7T9Pqh/iBwAAAFp84Sa
8wAABAMAIPOGjx+iArI7gg2CzXo5JJfrKuDaDpd5hWaKr/nSN3unAE8AOHNF1ci4
VnaC8qohGKs2mpjA6j9FPq01KAopKu6We+gAAAFp84Sa8wAABAMAIPOGjx+iArI7
gg2CzXo5JJfrKuDaDpd5hWaKr/nSN3unAE8AbzguHhv6NTk2PCr1F+xgLBuwQ0eS
jBmt56R5+32ICOAAAAFp84Sa8wAABAMAIPOGjx+iArI7gg2CzXo5JJfrKuDaDpd5
hWaKr/nSN3unMA0GCSqGSIb3DQEBCwUAA0EAXCj9J2uOprtCqY3bv2LLyJWaQWOu
ODjunWxUazEjpx8BmNIEWaFl2JTFmz3Ni5ESQn9B+C7KDdrv9cciah4Mzg==
-----END CERTIFICATE-----
