Certificate:
    Data:
        Version: 3 (0x2)
        Serial Number: 4052089272115185075 (0x383be9b95e98c5b3)
        Signature Algorithm: sha256WithRSAEncryption
        Issuer: CN = lint_ct_sct_policy_count_unsatisified_test CA
        Validity
            Not Before: Apr  6 16:53:35 2019 GMT
            Not After : Jul  6 16:53:35 2019 GMT
        Subject: CN = zmap.io
        Subject Public Key Info:
            Public Key Algorithm: rsaEncryption
                RSA Public-Key: (512 bit)
                Modulus:
                    00:d9:1b:d0:e2:a5:4a:17:f0:03:32:03:ae:d5:55:
                    69:8b:f7:b8:d3:c0:71:a2:39:06:d8:cd:b7:09:6e:
                    d9:f5:60:db:be:64:4b:97:25:83:b6:8f:e7:f0:97:
                    ab:a0:16:86:87:1d:9e:c6:56:fe:4c:69:32:64:89:
                    70:a5:f8:2a:ef
                Exponent: 65537 (0x10001)
        X509v3 extensions:
            X509v3 Key Usage: critical
                Digital Signature, Key Encipherment
            X509v3 Extended Key Usage: 
                TLS Web Server Authentication, TLS Web Client Authentication
            X509v3 Basic Constraints: critical
                CA:FALSE
            X509v3 Subject Alternative Name: 
                DNS:zmap.io
            CT Precertificate SCTs: 
                Signed Certificate Timestamp:
                    Version   : v1 (0x0)
                    Log ID    : B0:F7:5E:C5:4A:CD:04:C3:BD:7F:D5:F2:25:DD:EE:E2:
                                37:40:D2:58:0E:C2:25:CA:28:0C:5B:A9:12:BA:B8:D1
                    Timestamp : Apr  6 16:53:35.778 2019 GMT
                    Extensions: none
                    Signature : ecdsa-with-SHA256
                                F3:86:8F:1F:A2:02:B2:3B:82:0D:82:CD:7A:39:24:97:
                                EB:2A:E0:DA:0E:97:79:85:66:8A:AF:F9:D2:37:7B:A7
                Signed Certificate Timestamp:
                    Version   : v1 (0x0)
                    Log ID    : B0:F7:5E:C5:4A:CD:04:C3:BD:7F:D5:F2:25:DD:EE:E2:
                                37:40:D2:58:0E:C2:25:CA:28:0C:5B:A9:12:BA:B8:D1
                    Timestamp : Apr  6 16:53:35.778 2019 GMT
                    Extensions: none
                    Signature : ecdsa-with-SHA256
                                F3:86:8F:1F:A2:02:B2:3B:82:0D:82:CD:7A:39:24:97:
                                EB:2A:E0:DA:0E:97:79:85:66:8A:AF:F9:D2:37:7B:A7
    Signature Algorithm: sha256WithRSAEncryption
         1b:b3:b1:73:ef:13:f7:c9:7c:cc:1c:7f:79:e5:78:1b:fe:4c:
         0a:6a:58:c1:89:7e:fe:86:8f:84:ff:df:f0:6c:34:69:ce:df:
         a1:16:ed:2b:c3:78:25:26:70:02:de:88:e6:9d:7e:b5:21:4d:
         16:59:e4:b9:46:2e:71:f2:35:9d
-----BEGIN CERTIFICATE-----
MIICUjCCAfygAwIBAgIIODvpuV6YxbMwDQYJKoZIhvcNAQELBQAwODE2MDQGA1UE
AwwtbGludF9jdF9zY3RfcG9saWN5X2NvdW50X3Vuc2F0aXNpZmllZF90ZXN0IENB
MB4XDTE5MDQwNjE2NTMzNVoXDTE5MDcwNjE2NTMzNVowEjEQMA4GA1UEAxMHem1h
cC5pbzBcMA0GCSqGSIb3DQEBAQUAA0sAMEgCQQDZG9DipUoX8AMyA67VVWmL97jT
wHGiOQbYzbcJbtn1YNu+ZEuXJYO2j+fwl6ugFoaHHZ7GVv5MaTJkiXCl+CrvAgMB
AAGjggEOMIIBCjAOBgNVHQ8BAf8EBAMCBaAwHQYDVR0lBBYwFAYIKwYBBQUHAwEG
CCsGAQUFBwMCMAwGA1UdEwEB/wQCMAAwEgYDVR0RBAswCYIHem1hcC5pbzCBtgYK
KwYBBAHWeQIEAgSBpwSBpACiAE8AsPdexUrNBMO9f9XyJd3u4jdA0lgOwiXKKAxb
qRK6uNEAAAFp85HZogAABAMAIPOGjx+iArI7gg2CzXo5JJfrKuDaDpd5hWaKr/nS
N3unAE8AsPdexUrNBMO9f9XyJd3u4jdA0lgOwiXKKAxbqRK6uNEAAAFp85HZogAA
BAMAIPOGjx+iArI7gg2CzXo5JJfrKuDaDpd5hWaKr/nSN3unMA0GCSqGSIb3DQEB
CwUAA0EAG7Oxc+8T98l8zBx/eeV4G/5MCmpYwYl+/oaPhP/f8Gw0ac7foRbtK8N4
JSZwAt6I5p1+tSFNFlnkuUYucfI1nQ==
-----END CERTIFICATE-----
