Certificate:
    Data:
        Version: 3 (0x2)
        Serial Number: 8421146558524395128 (0x74ddec2d86598e78)
        Signature Algorithm: sha256WithRSAEncryption
        Issuer: CN = lint_ct_sct_policy_count_unsatisified_test CA
        Validity
            Not Before: Apr  6 16:40:07 2019 GMT
            Not After : Oct  6 17:40:07 2074 GMT
        Subject: CN = zmap.io
        Subject Public Key Info:
            Public Key Algorithm: rsaEncryption
                RSA Public-Key: (512 bit)
                Modulus:
                    00:f0:65:71:6e:0e:5d:2c:06:0f:4f:2b:8c:f0:42:
                    3f:db:9b:e7:59:0a:4d:d6:f7:b8:ed:42:a9:9c:5a:
                    b6:f1:8a:7d:69:98:4d:b0:e7:5e:1e:d5:29:8e:cd:
                    21:7b:70:97:68:55:af:e1:ac:37:22:ef:3c:67:58:
                    60:f0:57:4b:47
                Exponent: 65537 (0x10001)
        X509v3 extensions:
            X509v3 Key Usage: critical
                Digital Signature, Key Encipherment
            X509v3 Extended Key Usage: 
                TLS Web Server Authentication, TLS Web Client Authentication
            X509v3 Basic Constraints: critical
                CA:FALSE
            X509v3 Subject Alternative Name: 
                DNS:zmap.io
            CT Precertificate SCTs: 
                Signed Certificate Timestamp:
                    Version   : v1 (0x0)
                    Log ID    : B0:F7:5E:C5:4A:CD:04:C3:BD:7F:D5:F2:25:DD:EE:E2:
                                37:40:D2:58:0E:C2:25:CA:28:0C:5B:A9:12:BA:B8:D1
                    Timestamp : Apr  6 16:40:07.531 2019 GMT
                    Extensions: none
                    Signature : ecdsa-with-SHA256
                                F3:86:8F:1F:A2:02:B2:3B:82:0D:82:CD:7A:39:24:97:
                                EB:2A:E0:DA:0E:97:79:85:66:8A:AF:F9:D2:37:7B:A7
                Signed Certificate Timestamp:
                    Version   : v1 (0x0)
                    Log ID    : B0:FD:62:36:8A:2C:C8:F5:45:90:5D:7A:7A:9E:34:ED:
                                B8:F6:86:9C:B3:FE:8C:1B:07:B4:FD:3E:A8:7F:88:1C
                    Timestamp : Apr  6 16:40:07.531 2019 GMT
                    Extensions: none
                    Signature : ecdsa-with-SHA256
                                F3:86:8F:1F:A2:02:B2:3B:82:0D:82:CD:7A:39:24:97:
                                EB:2A:E0:DA:0E:97:79:85:66:8A:AF:F9:D2:37:7B:A7
                Signed Certificate Timestamp:
                    Version   : v1 (0x0)
                    Log ID    : 38:73:45:D5:C8:B8:56:76:82:F2:AA:21:18:AB:36:9A:
                                98:C0:EA:3F:45:3E:AD:35:28:0A:29:2A:EE:96:7B:E8
                    Timestamp : Apr  6 16:40:07.531 2019 GMT
                    Extensions: none
                    Signature : ecdsa-with-SHA256
                                F3:86:8F:1F:A2:02:B2:3B:82:0D:82:CD:7A:39:24:97:
                                EB:2A:E0:DA:0E:97:79:85:66:8A:AF:F9:D2:37:7B:A7
                Signed Certificate Timestamp:
                    Version   : v1 (0x0)
                    Log ID    : 6F:38:2E:1E:1B:FA:35:39:36:3C:2A:F5:17:EC:60:2C:
                                1B:B0:43:47:92:8C:19:AD:E7:A4:79:FB:7D:88:08:E0
                    Timestamp : Apr  6 16:40:07.531 2019 GMT
                    Extensions: none
                    Signature : ecdsa-with-SHA256
                                F3:86:8F:1F:A2:02:B2:3B:82:0D:82:CD:7A:39:24:97:
                                EB:2A:E0:DA:0E:97:79:85:66:8A:AF:F9:D2:37:7B:A7
    Signature Algorithm: sha256WithRSAEncryption
         95:09:65:57:55:aa:d5:f6:01:e7:e6:1d:07:f5:c5:b5:a3:c2:
         6a:42:41:e5:6b:a8:75:e6:e7:7e:c2:02:45:c7:68:df:74:b6:
         54:d2:a0:10:cc:39:5e:5b:95:a6:ab:2a:04:b7:cf:a2:18:4c:
         bb:16:6e:bf:5e:c3:64:31:83:0e
-----BEGIN CERTIFICATE-----
MIIC+TCCAqOgAwIBAgIIdN3sLYZZjngwDQYJKoZIhvcNAQELBQAwODE2MDQGA1UE
AwwtbGludF9jdF9zY3RfcG9saWN5X2NvdW50X3Vuc2F0aXNpZmllZF90ZXN0IENB
MCAXDTE5MDQwNjE2NDAwN1oYDzIwNzQxMDA2MTc0MDA3WjASMRAwDgYDVQQDEwd6
bWFwLmlvMFwwDQYJKoZIhvcNAQEBBQADSwAwSAJBAPBlcW4OXSwGD08rjPBCP9ub
51kKTdb3uO1CqZxatvGKfWmYTbDnXh7VKY7NIXtwl2hVr+GsNyLvPGdYYPBXS0cC
AwEAAaOCAbMwggGvMA4GA1UdDwEB/wQEAwIFoDAdBgNVHSUEFjAUBggrBgEFBQcD
AQYIKwYBBQUHAwIwDAYDVR0TAQH/BAIwADASBgNVHREECzAJggd6bWFwLmlvMIIB
WgYKKwYBBAHWeQIEAgSCAUoEggFGAUQATwCw917FSs0Ew71/1fIl3e7iN0DSWA7C
JcooDFupErq40QAAAWnzhYRrAAAEAwAg84aPH6ICsjuCDYLNejkkl+sq4NoOl3mF
Zoqv+dI3e6cATwCw/WI2iizI9UWQXXp6njTtuPaGnLP+jBsHtP0+qH+IHAAAAWnz
hYRrAAAEAwAg84aPH6ICsjuCDYLNejkkl+sq4NoOl3mFZoqv+dI3e6cATwA4c0XV
yLhWdoLyqiEYqzaamMDqP0U+rTUoCikq7pZ76AAAAWnzhYRrAAAEAwAg84aPH6IC
sjuCDYLNejkkl+sq4NoOl3mFZoqv+dI3e6cATwBvOC4eG/o1OTY8KvUX7GAsG7BD
R5KMGa3npHn7fYgI4AAAAWnzhYRrAAAEAwAg84aPH6ICsjuCDYLNejkkl+sq4NoO
l3mFZoqv+dI3e6cwDQYJKoZIhvcNAQELBQADQQCVCWVXVarV9gHn5h0H9cW1o8Jq
QkHla6h15ud+wgJFx2jfdLZU0qAQzDleW5WmqyoEt8+iGEy7Fm6/XsNkMYMO
-----END CERTIFICATE-----
