Certificate:
    Data:
        Version: 3 (0x2)
        Serial Number: 3 (0x3)
        Signature Algorithm: ecdsa-with-SHA256
        Issuer: 
        Validity
            Not Before: Dec 11 00:00:00 2018 GMT
            Not After : Jan 11 00:00:00 2019 GMT
        Subject: 
        Subject Public Key Info:
            Public Key Algorithm: id-ecPublicKey
                Public-Key: (256 bit)
                pub:
                    04:9d:46:d8:ce:3d:5f:ff:e2:70:6c:30:04:3f:0e:
                    aa:b0:7c:50:8c:48:89:6e:ee:19:e6:e4:e4:31:3a:
                    d0:41:e9:2d:b8:de:ef:99:fc:5e:26:fd:ef:b9:e0:
                    1a:6a:ab:c5:15:8a:b8:b5:2c:7a:ac:7e:b8:70:61:
                    58:88:2c:52:38
                ASN1 OID: prime256v1
                NIST CURVE: P-256
        X509v3 extensions:
            X509v3 Subject Alternative Name: 
                DNS:no.underscore.com
    Signature Algorithm: ecdsa-with-SHA256
         30:45:02:21:00:b3:76:a9:18:1a:5a:bd:70:9b:6c:52:b3:b8:
         84:61:cc:e7:a5:98:b0:8a:fb:fc:86:ee:d5:9c:5b:19:47:16:
         4d:02:20:57:6e:7c:7f:a9:fa:4d:71:df:30:f6:21:69:20:78:
         99:a4:51:7a:06:56:4d:05:17:ed:43:45:07:6e:72:52:cd
-----BEGIN CERTIFICATE-----
MIIBDjCBtaADAgECAgEDMAoGCCqGSM49BAMCMAAwHhcNMTgxMjExMDAwMDAwWhcN
MTkwMTExMDAwMDAwWjAAMFkwEwYHKoZIzj0CAQYIKoZIzj0DAQcDQgAEnUbYzj1f
/+JwbDAEPw6qsHxQjEiJbu4Z5uTkMTrQQektuN7vmfxeJv3vueAaaqvFFYq4tSx6
rH64cGFYiCxSOKMgMB4wHAYDVR0RBBUwE4IRbm8udW5kZXJzY29yZS5jb20wCgYI
KoZIzj0EAwIDSAAwRQIhALN2qRgaWr1wm2xSs7iEYcznpZiwivv8hu7VnFsZRxZN
AiBXbnx/qfpNcd8w9iFpIHiZpFF6BlZNBRftQ0UHbnJSzQ==
-----END CERTIFICATE-----
