Certificate:
    Data:
        Version: 3 (0x2)
        Serial Number: 9222122447971639347 (0x7ffb8f816a816033)
        Signature Algorithm: sha256WithRSAEncryption
        Issuer: CN = zlint test 78dd88
        Validity
            Not Before: Sep  1 00:00:00 2017 GMT
            Not After : Sep  1 00:00:00 2018 GMT
        Subject: CN = zlint.mcdonalds
        Subject Public Key Info:
            Public Key Algorithm: rsaEncryption
                RSA Public-Key: (2048 bit)
                Modulus:
                    00:c1:c8:31:f7:28:e1:a6:53:9f:bf:f4:09:66:62:
                    0d:e0:1e:6b:9e:c1:89:7b:d2:87:2d:f2:99:6e:48:
                    64:a5:14:bb:be:0c:e3:4e:aa:1c:a2:57:4d:24:cb:
                    14:09:36:ac:3e:e8:b5:e4:35:2d:30:a9:54:b9:04:
                    4c:fc:72:d4:8e:30:fa:b3:5b:8e:cc:11:42:73:da:
                    82:16:f7:7e:29:22:4f:0e:c8:2e:74:d9:f8:46:7a:
                    69:47:40:3d:78:1d:fd:b2:37:1a:d1:31:f9:c6:37:
                    7a:de:4c:ae:ab:7e:6a:d2:c6:74:12:9a:b2:94:c8:
                    c6:c1:b2:cf:08:6f:df:75:7a:80:ea:b9:6e:c6:70:
                    17:44:58:88:d6:7b:19:99:e3:a3:58:3f:79:9f:ff:
                    e0:89:3d:d1:2b:ea:b8:a6:8a:87:1b:81:a7:98:0b:
                    83:18:69:f6:ef:b9:85:64:c3:b8:6a:1a:d8:01:ed:
                    27:63:fc:1e:17:f8:98:2a:22:d7:9f:d4:f2:53:2e:
                    fc:36:42:70:52:1b:54:89:15:5f:21:01:91:46:a0:
                    25:ee:b7:13:c4:ab:80:d8:3d:ba:6d:0d:49:0b:1b:
                    bd:35:de:83:11:0a:fb:65:26:34:c7:65:2f:30:8e:
                    6a:68:75:7e:7a:cd:25:ba:c7:96:a7:14:ec:48:54:
                    59:45
                Exponent: 65537 (0x10001)
        X509v3 extensions:
            X509v3 Key Usage: critical
                Digital Signature, Key Encipherment
            X509v3 Extended Key Usage: 
                TLS Web Server Authentication, TLS Web Client Authentication
            X509v3 Basic Constraints: critical
                CA:FALSE
            X509v3 Subject Alternative Name: 
                DNS:zlint.mcdonalds
    Signature Algorithm: sha256WithRSAEncryption
         11:f0:e5:eb:17:33:1c:b1:72:97:a4:0d:0d:2c:dc:f4:ad:f5:
         5a:fb:7b:4c:15:3e:03:e1:76:15:40:a5:13:5c:3e:f0:6c:05:
         84:97:c9:1b:e3:9f:a2:48:ee:0e:92:e8:c3:e7:ad:e5:61:81:
         d4:23:af:e2:89:ac:94:76:d0:3c:1f:07:41:d0:d7:d4:01:40:
         23:f5:03:e4:fd:5b:71:21:e9:70:9a:e8:6f:86:5a:08:98:e2:
         0f:0d:9c:88:63:5a:b1:72:dd:2f:5e:c3:f1:54:15:9a:db:17:
         9a:44:75:b6:88:a1:46:55:c7:42:4c:5d:2d:f5:3d:04:ba:3b:
         66:b0:1a:2e:c3:01:ef:1b:c9:a0:88:84:ad:38:56:31:80:d3:
         fe:b5:0e:be:76:7a:bb:17:dd:88:e8:5d:16:5e:2f:99:c9:ea:
         b8:b1:b2:8a:ba:29:92:56:64:3a:3a:2b:01:c5:c3:44:ea:b0:
         04:0c:41:ab:91:25:0a:f3:35:a7:1f:a7:60:ae:43:ec:8a:c3:
         25:59:9d:32:f8:a5:8c:4e:4a:42:f5:ed:77:4c:f4:b3:4b:b0:
         57:75:02:5c:1f:25:b1:67:d8:14:a6:cf:b0:74:96:82:12:82:
         e1:ee:9c:ae:d3:75:b0:5f:bf:cf:35:42:c3:fa:fd:64:d8:9e:
         8a:51:b0:45
-----BEGIN CERTIFICATE-----
MIIDEzCCAfugAwIBAgIIf/uPgWqBYDMwDQYJKoZIhvcNAQELBQAwHDEaMBgGA1UE
AxMRemxpbnQgdGVzdCA3OGRkODgwHhcNMTcwOTAxMDAwMDAwWhcNMTgwOTAxMDAw
MDAwWjAaMRgwFgYDVQQDEw96bGludC5tY2RvbmFsZHMwggEiMA0GCSqGSIb3DQEB
AQUAA4IBDwAwggEKAoIBAQDByDH3KOGmU5+/9AlmYg3gHmuewYl70oct8pluSGSl
FLu+DONOqhyiV00kyxQJNqw+6LXkNS0wqVS5BEz8ctSOMPqzW47MEUJz2oIW934p
Ik8OyC502fhGemlHQD14Hf2yNxrRMfnGN3reTK6rfmrSxnQSmrKUyMbBss8Ib991
eoDquW7GcBdEWIjWexmZ46NYP3mf/+CJPdEr6rimiocbgaeYC4MYafbvuYVkw7hq
GtgB7Sdj/B4X+JgqItef1PJTLvw2QnBSG1SJFV8hAZFGoCXutxPEq4DYPbptDUkL
G7013oMRCvtlJjTHZS8wjmpodX56zSW6x5anFOxIVFlFAgMBAAGjWzBZMA4GA1Ud
DwEB/wQEAwIFoDAdBgNVHSUEFjAUBggrBgEFBQcDAQYIKwYBBQUHAwIwDAYDVR0T
AQH/BAIwADAaBgNVHREEEzARgg96bGludC5tY2RvbmFsZHMwDQYJKoZIhvcNAQEL
BQADggEBABHw5esXMxyxcpekDQ0s3PSt9Vr7e0wVPgPhdhVApRNcPvBsBYSXyRvj
n6JI7g6S6MPnreVhgdQjr+KJrJR20DwfB0HQ19QBQCP1A+T9W3Eh6XCa6G+GWgiY
4g8NnIhjWrFy3S9ew/FUFZrbF5pEdbaIoUZVx0JMXS31PQS6O2awGi7DAe8byaCI
hK04VjGA0/61Dr52ersX3YjoXRZeL5nJ6rixsoq6KZJWZDo6KwHFw0TqsAQMQauR
JQrzNacfp2CuQ+yKwyVZnTL4pYxOSkL17XdM9LNLsFd1AlwfJbFn2BSmz7B0loIS
guHunK7TdbBfv881QsP6/WTYnopRsEU=
-----END CERTIFICATE-----

