Certificate:
    Data:
        Version: 3 (0x2)
        Serial Number:
            67:75:a1:f5:6b:ae:6a:ee:62:53:56:6c:26:7e:cd:e9
    Signature Algorithm: sha256WithRSAEncryption
        Issuer: C=US, O=Symantec Corporation, OU=Symantec Trust Network, CN=Symantec Class 3 Secure Server CA - G4
        Validity
            Not Before: Sep 29 00:00:00 2016 GMT
            Not After : Sep 30 23:59:59 2017 GMT
        Subject: C=US, ST=New York, L=New York, O=JPMorgan Chase, OU=Retail Financial Services, CN=?.jpmchase.net
        Subject Public Key Info:
            Public Key Algorithm: rsaEncryption
                Public-Key: (2048 bit)
                Modulus:
                    00:aa:01:92:0d:8b:b9:ae:33:0c:01:fc:6c:2e:11:
                    85:0a:98:20:06:f4:5e:e2:5b:90:f1:f3:d7:39:bc:
                    6c:e6:64:d4:60:43:50:3d:33:e9:25:38:0c:69:fd:
                    d6:98:2c:91:05:c0:2a:f7:cd:21:53:09:bc:59:6d:
                    90:7f:8d:df:88:17:e9:ea:cc:99:af:1c:1a:af:7e:
                    b1:81:37:18:e7:d7:f4:d0:30:07:05:95:71:47:4a:
                    fb:92:9d:fd:c2:1b:f7:17:f5:6d:a1:4d:10:5c:f6:
                    1f:42:ae:0a:4a:6b:a0:fc:93:59:e7:20:90:57:ce:
                    a1:6a:44:90:38:e3:4b:cc:60:5a:1a:8a:b0:45:8d:
                    4a:9b:d5:d2:3d:9d:27:1e:35:d9:b6:71:5f:ae:e1:
                    52:68:5f:5f:3b:91:b1:23:18:86:0b:aa:bc:f6:c6:
                    f9:38:9a:11:dc:ca:97:67:db:3a:f9:b6:bd:1d:63:
                    4a:ba:02:3f:6f:8d:49:f3:4a:9f:10:9a:c4:1b:48:
                    57:30:7e:66:dc:f9:6a:f6:58:a3:fe:51:96:c1:26:
                    2f:c7:49:cf:5b:32:a1:07:7e:fb:6e:00:0a:13:ca:
                    e1:39:70:db:15:02:1e:55:1f:61:c0:d3:90:b0:b1:
                    5c:1a:4b:8f:2d:6d:02:53:6b:a6:1d:39:a1:3d:42:
                    58:f7
                Exponent: 65537 (0x10001)
        X509v3 extensions:
            X509v3 Subject Alternative Name: 
                DNS:?.jpmchase.net, DNS:?.jpmchase.net, DNS:?.jpmchase.net, DNS:?.jpmchase.net, DNS:?.?.?.jpmchase.net, DNS:?.?.?.jpmchase.net, DNS:?.?.?.jpmchase.net, DNS:?.?.?.jpmchase.net, DNS:?.?.?.jpmchase.net, DNS:?.?.?.jpmchase.net, DNS:?.?.?.jpmchase.net, DNS:?.?.?.jpmchase.net, DNS:?.?.?.jpmchase.net, DNS:?.?.?.jpmchase.net, DNS:?.?.?.jpmchase.net, DNS:?.?.?.jpmchase.net, DNS:?.?.?.jpmchase.net, DNS:?.jpmchase.net
            X509v3 Basic Constraints: 
                CA:FALSE
            X509v3 Key Usage: critical
                Digital Signature, Key Encipherment
            X509v3 Extended Key Usage: 
                TLS Web Server Authentication, TLS Web Client Authentication
            X509v3 Certificate Policies: 
                Policy: 2.23.140.1.2.2
                  CPS: https://d.symcb.com/cps
                  User Notice:
                    Explicit Text: https://d.symcb.com/rpa

            X509v3 Authority Key Identifier: 
                keyid:5F:60:CF:61:90:55:DF:84:43:14:8A:60:2A:B2:F5:7A:F4:43:18:EF

            X509v3 CRL Distribution Points: 

                Full Name:
                  URI:http://ss.symcb.com/ss.crl

            Authority Information Access: 
                OCSP - URI:http://ss.symcd.com
                CA Issuers - URI:http://ss.symcb.com/ss.crt

            CT Precertificate Poison: critical
                ..
    Signature Algorithm: sha256WithRSAEncryption
         20:87:ec:b0:ec:88:33:b1:78:7f:e0:52:ca:68:b7:64:39:85:
         93:f7:68:3f:fb:fe:4b:28:48:f6:20:46:a7:61:9b:56:ec:c8:
         ad:63:8a:74:7a:89:f2:f0:4d:3d:15:67:51:67:36:71:2b:06:
         53:47:fc:1a:25:7c:7f:f2:fb:c3:85:03:0b:cb:6a:16:ad:dc:
         41:86:85:cb:d9:9d:bb:aa:48:10:4c:e9:39:22:e9:c2:e8:87:
         c6:18:ec:4c:de:76:81:76:6d:02:de:b4:d6:aa:07:28:0e:40:
         7b:58:9d:52:21:4d:a9:82:24:b0:b6:68:a0:fb:85:35:ba:24:
         da:82:1b:fb:f2:30:1a:da:41:79:6c:b1:9b:d5:11:24:fd:d8:
         a5:b0:f8:04:14:a8:ab:06:bc:7d:a1:6c:f0:1a:27:2c:2a:15:
         1b:43:97:df:42:b8:dc:11:83:47:90:75:3e:35:33:d3:77:1d:
         54:d8:4a:da:19:d1:94:30:29:c1:3b:21:b8:8d:5e:31:ee:5c:
         1b:9f:95:e1:c4:93:7d:79:1b:40:a2:7e:c5:ff:f1:e1:d0:f8:
         26:ac:dd:90:21:a7:1f:bc:c7:45:4a:4a:56:c3:02:fd:cb:b3:
         bd:e6:b3:dc:77:7a:68:18:b3:c3:7e:a4:bd:08:c8:92:53:a6:
         f2:fd:6e:d9
-----BEGIN CERTIFICATE-----
MIIGVjCCBT6gAwIBAgIQZ3Wh9Wuuau5iU1ZsJn7N6TANBgkqhkiG9w0BAQsFADB+
MQswCQYDVQQGEwJVUzEdMBsGA1UEChMUU3ltYW50ZWMgQ29ycG9yYXRpb24xHzAd
BgNVBAsTFlN5bWFudGVjIFRydXN0IE5ldHdvcmsxLzAtBgNVBAMTJlN5bWFudGVj
IENsYXNzIDMgU2VjdXJlIFNlcnZlciBDQSAtIEc0MB4XDTE2MDkyOTAwMDAwMFoX
DTE3MDkzMDIzNTk1OVowgYkxCzAJBgNVBAYTAlVTMREwDwYDVQQIDAhOZXcgWW9y
azERMA8GA1UEBwwITmV3IFlvcmsxFzAVBgNVBAoMDkpQTW9yZ2FuIENoYXNlMSIw
IAYDVQQLDBlSZXRhaWwgRmluYW5jaWFsIFNlcnZpY2VzMRcwFQYDVQQDDA4/Lmpw
bWNoYXNlLm5ldDCCASIwDQYJKoZIhvcNAQEBBQADggEPADCCAQoCggEBAKoBkg2L
ua4zDAH8bC4RhQqYIAb0XuJbkPHz1zm8bOZk1GBDUD0z6SU4DGn91pgskQXAKvfN
IVMJvFltkH+N34gX6erMma8cGq9+sYE3GOfX9NAwBwWVcUdK+5Kd/cIb9xf1baFN
EFz2H0KuCkproPyTWecgkFfOoWpEkDjjS8xgWhqKsEWNSpvV0j2dJx412bZxX67h
UmhfXzuRsSMYhguqvPbG+TiaEdzKl2fbOvm2vR1jSroCP2+NSfNKnxCaxBtIVzB+
Ztz5avZYo/5RlsEmL8dJz1syoQd++24AChPK4Tlw2xUCHlUfYcDTkLCxXBpLjy1t
AlNrph05oT1CWPcCAwEAAaOCAsIwggK+MIIBYQYDVR0RBIIBWDCCAVSCDj8uanBt
Y2hhc2UubmV0gg4/LmpwbWNoYXNlLm5ldIIOPy5qcG1jaGFzZS5uZXSCDj8uanBt
Y2hhc2UubmV0ghI/Lj8uPy5qcG1jaGFzZS5uZXSCEj8uPy4/LmpwbWNoYXNlLm5l
dIISPy4/Lj8uanBtY2hhc2UubmV0ghI/Lj8uPy5qcG1jaGFzZS5uZXSCEj8uPy4/
LmpwbWNoYXNlLm5ldIISPy4/Lj8uanBtY2hhc2UubmV0ghI/Lj8uPy5qcG1jaGFz
ZS5uZXSCEj8uPy4/LmpwbWNoYXNlLm5ldIISPy4/Lj8uanBtY2hhc2UubmV0ghI/
Lj8uPy5qcG1jaGFzZS5uZXSCEj8uPy4/LmpwbWNoYXNlLm5ldIISPy4/Lj8uanBt
Y2hhc2UubmV0ghI/Lj8uPy5qcG1jaGFzZS5uZXSCDj8uanBtY2hhc2UubmV0MAkG
A1UdEwQCMAAwDgYDVR0PAQH/BAQDAgWgMB0GA1UdJQQWMBQGCCsGAQUFBwMBBggr
BgEFBQcDAjBhBgNVHSAEWjBYMFYGBmeBDAECAjBMMCMGCCsGAQUFBwIBFhdodHRw
czovL2Quc3ltY2IuY29tL2NwczAlBggrBgEFBQcCAjAZDBdodHRwczovL2Quc3lt
Y2IuY29tL3JwYTAfBgNVHSMEGDAWgBRfYM9hkFXfhEMUimAqsvV69EMY7zArBgNV
HR8EJDAiMCCgHqAchhpodHRwOi8vc3Muc3ltY2IuY29tL3NzLmNybDBXBggrBgEF
BQcBAQRLMEkwHwYIKwYBBQUHMAGGE2h0dHA6Ly9zcy5zeW1jZC5jb20wJgYIKwYB
BQUHMAKGGmh0dHA6Ly9zcy5zeW1jYi5jb20vc3MuY3J0MBMGCisGAQQB1nkCBAMB
Af8EAgUAMA0GCSqGSIb3DQEBCwUAA4IBAQAgh+yw7IgzsXh/4FLKaLdkOYWT92g/
+/5LKEj2IEanYZtW7MitY4p0eony8E09FWdRZzZxKwZTR/waJXx/8vvDhQMLy2oW
rdxBhoXL2Z27qkgQTOk5IunC6IfGGOxM3naBdm0C3rTWqgcoDkB7WJ1SIU2pgiSw
tmig+4U1uiTaghv78jAa2kF5bLGb1REk/dilsPgEFKirBrx9oWzwGicsKhUbQ5ff
QrjcEYNHkHU+NTPTdx1U2EraGdGUMCnBOyG4jV4x7lwbn5XhxJN9eRtAon7F//Hh
0PgmrN2QIacfvMdFSkpWwwL9y7O95rPcd3poGLPDfqS9CMiSU6by/W7Z
-----END CERTIFICATE-----
