Certificate:
    Data:
        Version: 3 (0x2)
        Serial Number: 3 (0x3)
        Signature Algorithm: ecdsa-with-SHA256
        Issuer: 
        Validity
            Not Before: Feb  6 19:32:40 2022 GMT
            Not After : Feb  6 19:32:40 2022 GMT
        Subject: 
        Subject Public Key Info:
            Public Key Algorithm: id-ecPublicKey
                Public-Key: (256 bit)
                pub:
                    04:e6:7f:6d:fc:df:12:ad:38:85:b9:f5:33:28:fd:
                    02:de:aa:98:8f:63:9f:cd:14:e0:78:c5:44:cd:42:
                    24:2a:ab:38:12:3a:cb:09:94:51:a3:b2:bb:18:d4:
                    fa:36:f2:38:0a:c2:c5:51:f1:e5:18:07:b5:f1:1a:
                    bc:9a:4e:71:27
                ASN1 OID: prime256v1
                NIST CURVE: P-256
        X509v3 extensions:
            X509v3 Subject Alternative Name: 
                DNS:no.underscore.com
    Signature Algorithm: ecdsa-with-SHA256
         30:44:02:20:56:86:22:e0:c1:31:2f:f3:d1:3e:a8:2e:b2:e4:
         ab:92:c5:47:2e:92:a3:bb:47:d2:7d:de:62:53:44:4e:d1:e0:
         02:20:7a:88:8a:d4:1b:f5:5f:e8:61:08:ef:c5:fa:99:64:d5:
         c2:a6:dd:70:5a:14:ea:98:63:1d:9f:58:2e:65:02:94
-----BEGIN CERTIFICATE-----
MIIBDTCBtaADAgECAgEDMAoGCCqGSM49BAMCMAAwHhcNMjIwMjA2MTkzMjQwWhcN
MjIwMjA2MTkzMjQwWjAAMFkwEwYHKoZIzj0CAQYIKoZIzj0DAQcDQgAE5n9t/N8S
rTiFufUzKP0C3qqYj2OfzRTgeMVEzUIkKqs4EjrLCZRRo7K7GNT6NvI4CsLFUfHl
GAe18Rq8mk5xJ6MgMB4wHAYDVR0RBBUwE4IRbm8udW5kZXJzY29yZS5jb20wCgYI
KoZIzj0EAwIDRwAwRAIgVoYi4MExL/PRPqgusuSrksVHLpKju0fSfd5iU0RO0eAC
IHqIitQb9V/oYQjvxfqZZNXCpt1wWhTqmGMdn1guZQKU
-----END CERTIFICATE-----
