Certificate:
    Data:
        Version: 3 (0x2)
        Serial Number: 3 (0x3)
        Signature Algorithm: ecdsa-with-SHA256
        Issuer: 
        Validity
            Not Before: Dec 11 00:00:00 2018 GMT
            Not After : Dec 15 00:00:00 2018 GMT
        Subject: 
        Subject Public Key Info:
            Public Key Algorithm: id-ecPublicKey
                Public-Key: (256 bit)
                pub:
                    04:59:3b:08:6c:19:9b:d8:b6:b5:e3:32:eb:58:7f:
                    3e:9b:a6:08:94:e5:07:24:1c:e8:05:10:3f:da:d3:
                    72:db:84:23:bb:f6:7a:63:e7:a4:42:54:27:5f:40:
                    f6:74:e7:71:fe:72:8e:31:5f:fc:74:c7:dd:aa:9a:
                    f2:4d:5b:7b:90
                ASN1 OID: prime256v1
                NIST CURVE: P-256
        X509v3 extensions:
            X509v3 Subject Alternative Name: 
                DNS:no.underscore.test
    Signature Algorithm: ecdsa-with-SHA256
         30:46:02:21:00:8f:4f:c8:2d:11:47:84:1b:90:4b:13:40:06:
         65:b6:1e:bc:94:0a:53:7e:37:0a:c2:6d:a4:cb:f0:5e:58:14:
         7f:02:21:00:d8:82:59:f8:08:e0:94:f8:1e:7b:96:e3:83:c6:
         d9:54:8b:a8:d4:96:10:b6:cd:f8:5f:4b:93:be:1d:54:89:62
-----BEGIN CERTIFICATE-----
MIIBEDCBtqADAgECAgEDMAoGCCqGSM49BAMCMAAwHhcNMTgxMjExMDAwMDAwWhcN
MTgxMjE1MDAwMDAwWjAAMFkwEwYHKoZIzj0CAQYIKoZIzj0DAQcDQgAEWTsIbBmb
2La14zLrWH8+m6YIlOUHJBzoBRA/2tNy24Qju/Z6Y+ekQlQnX0D2dOdx/nKOMV/8
dMfdqpryTVt7kKMhMB8wHQYDVR0RBBYwFIISbm8udW5kZXJzY29yZS50ZXN0MAoG
CCqGSM49BAMCA0kAMEYCIQCPT8gtEUeEG5BLE0AGZbYevJQKU343CsJtpMvwXlgU
fwIhANiCWfgI4JT4HnuW44PG2VSLqNSWELbN+F9Lk74dVIli
-----END CERTIFICATE-----
