Certificate:
    Data:
        Version: 3 (0x2)
        Serial Number: 3 (0x3)
        Signature Algorithm: ecdsa-with-SHA256
        Issuer: 
        Validity
            Not Before: Jan  1 00:00:00 1 GMT
            Not After : Nov 30 00:00:00 9998 GMT
        Subject:
        Subject Public Key Info:
            Public Key Algorithm: id-ecPublicKey
                Public-Key: (256 bit)
                pub:
                    04:24:09:c4:b7:ac:49:7b:24:e7:e7:0c:06:b0:5d:
                    3d:9f:ae:13:b3:79:68:47:5f:27:c6:47:bf:fe:7d:
                    fe:3b:3f:4e:1b:86:54:20:1b:e9:99:52:7d:60:95:
                    7e:97:cd:c3:05:90:71:e9:aa:92:c1:3e:91:ae:91:
                    df:e3:79:84:a9
                ASN1 OID: prime256v1
                NIST CURVE: P-256
        X509v3 extensions:
            X509v3 Subject Alternative Name:
                DNS:with.an_underscore.test
    Signature Algorithm: ecdsa-with-SHA256
         30:46:02:21:00:87:69:20:9a:7d:7c:77:a2:89:4b:66:82:b0:
         38:3b:53:63:50:10:6c:9c:32:96:05:52:76:b5:d5:35:de:ac:
         47:02:21:00:a5:8a:0a:b7:c8:33:01:0b:48:c8:5c:4c:ea:04:
         02:d9:0e:ec:eb:8e:8e:12:64:9f:83:1e:76:a4:19:6c:34:e5
-----BEGIN CERTIFICATE-----
MIIBGTCBv6ADAgECAgEDMAoGCCqGSM49BAMCMAAwIhgPMDAwMTAxMDEwMDAwMDBa
GA85OTk4MTEzMDAwMDAwMFowADBZMBMGByqGSM49AgEGCCqGSM49AwEHA0IABCQJ
xLesSXsk5+cMBrBdPZ+uE7N5aEdfJ8ZHv/59/js/ThuGVCAb6ZlSfWCVfpfNwwWQ
cemqksE+ka6R3+N5hKmjJjAkMCIGA1UdEQQbMBmCF3dpdGguYW5fdW5kZXJzY29y
ZS50ZXN0MAoGCCqGSM49BAMCA0kAMEYCIQCHaSCafXx3oolLZoKwODtTY1AQbJwy
lgVSdrXVNd6sRwIhAKWKCrfIMwELSMhcTOoEAtkO7OuOjhJkn4MedqQZbDTl
-----END CERTIFICATE-----
