Certificate:
    Data:
        Version: 3 (0x2)
        Serial Number:
            03:44:14:59:55:55:32:20:50:a6:98:61:26:21:d9:7d:61:3c:ef:63
        Signature Algorithm: sha256WithRSAEncryption
        Issuer: CN = Bar
        Validity
            Not Before: Oct  1 00:00:00 2021 GMT
            Not After : Oct  1 00:00:00 2022 GMT
        Subject: CN = Foo
        Subject Public Key Info:
            Public Key Algorithm: rsaEncryption
                RSA Public-Key: (512 bit)
                Modulus:
                    00:b3:fc:8c:9c:66:bd:cc:05:8d:74:91:6d:c3:07:
                    ec:f5:47:54:35:31:be:cf:36:0f:d7:22:92:5e:f8:
                    68:bd:64:73:7e:53:90:9a:81:8a:f2:fc:ba:f7:f5:
                    57:27:7d:70:58:64:c9:3f:4c:3e:11:00:0c:01:a2:
                    29:a4:69:16:83
                Exponent: 65537 (0x10001)
        X509v3 extensions:
            X509v3 Subject Alternative Name: 
                DNS:*.foo.com
    Signature Algorithm: sha256WithRSAEncryption
         18:0b:2c:b6:96:5d:68:e8:77:ce:ba:18:56:2b:52:26:54:9e:
         9f:6d:90:2a:4f:2d:15:08:63:e1:71:70:8a:91:1b:05:ee:2c:
         66:89:b3:2a:6c:df:a3:6d:fe:37:39:e7:a8:77:60:70:f6:5c:
         8d:23:d4:85:4c:cb:91:39:0b:99
-----BEGIN CERTIFICATE-----
MIIBNzCB4qADAgECAhQDRBRZVVUyIFCmmGEmIdl9YTzvYzANBgkqhkiG9w0BAQsF
ADAOMQwwCgYDVQQDDANCYXIwHhcNMjExMDAxMDAwMDAwWhcNMjIxMDAxMDAwMDAw
WjAOMQwwCgYDVQQDDANGb28wXDANBgkqhkiG9w0BAQEFAANLADBIAkEAs/yMnGa9
zAWNdJFtwwfs9UdUNTG+zzYP1yKSXvhovWRzflOQmoGK8vy69/VXJ31wWGTJP0w+
EQAMAaIppGkWgwIDAQABoxgwFjAUBgNVHREEDTALggkqLmZvby5jb20wDQYJKoZI
hvcNAQELBQADQQAYCyy2ll1o6HfOuhhWK1ImVJ6fbZAqTy0VCGPhcXCKkRsF7ixm
ibMqbN+jbf43Oeeod2Bw9lyNI9SFTMuROQuZ
-----END CERTIFICATE-----
