Certificate:
    Data:
        Version: 3 (0x2)
        Serial Number:
            6b:cb:65:70:26:e5:f6:09:0c:d7:a9:c8:e9:48:46:69:fd:74:1a:01
        Signature Algorithm: sha256WithRSAEncryption
        Issuer: CN = Bar
        Validity
            Not Before: Oct  1 00:00:00 2021 GMT
            Not After : Oct  1 00:00:00 2022 GMT
        Subject: CN = Foo
        Subject Public Key Info:
            Public Key Algorithm: rsaEncryption
                RSA Public-Key: (512 bit)
                Modulus:
                    00:b9:31:63:12:27:72:6a:07:63:76:6c:4f:34:66:
                    a5:52:38:43:ce:26:7d:7a:e8:f5:0a:64:76:fb:55:
                    48:bd:9a:b9:79:73:5a:3c:1e:ab:56:0d:b4:71:bb:
                    b9:8e:4a:da:b2:42:87:09:23:a2:53:9c:43:89:88:
                    85:df:b2:31:91
                Exponent: 65537 (0x10001)
        X509v3 extensions:
            X509v3 Subject Alternative Name: 
                DNS:aaaaaaaaaaaaaaaaaaaaaaaaaaaaaaaaaaaaaaaaaaaaaaaaaaaaaaaaaaaaaaa.com
    Signature Algorithm: sha256WithRSAEncryption
         64:ab:4a:09:71:fc:81:ff:5b:15:81:91:cc:fb:93:aa:80:75:
         b7:d1:45:6a:b9:47:f5:b3:1a:5d:55:87:1b:75:44:ac:36:23:
         23:bd:01:9e:fc:e4:a9:85:6f:c3:b7:72:67:18:0d:be:23:37:
         17:19:9b:1d:aa:36:d8:7a:c0:95
-----BEGIN CERTIFICATE-----
MIIBcjCCARygAwIBAgIUa8tlcCbl9gkM16nI6UhGaf10GgEwDQYJKoZIhvcNAQEL
BQAwDjEMMAoGA1UEAwwDQmFyMB4XDTIxMTAwMTAwMDAwMFoXDTIyMTAwMTAwMDAw
MFowDjEMMAoGA1UEAwwDRm9vMFwwDQYJKoZIhvcNAQEBBQADSwAwSAJBALkxYxIn
cmoHY3ZsTzRmpVI4Q84mfXro9QpkdvtVSL2auXlzWjweq1YNtHG7uY5K2rJChwkj
olOcQ4mIhd+yMZECAwEAAaNSMFAwTgYDVR0RBEcwRYJDYWFhYWFhYWFhYWFhYWFh
YWFhYWFhYWFhYWFhYWFhYWFhYWFhYWFhYWFhYWFhYWFhYWFhYWFhYWFhYWFhYWFh
LmNvbTANBgkqhkiG9w0BAQsFAANBAGSrSglx/IH/WxWBkcz7k6qAdbfRRWq5R/Wz
Gl1Vhxt1RKw2IyO9AZ785KmFb8O3cmcYDb4jNxcZmx2qNth6wJU=
-----END CERTIFICATE-----
