Certificate:
    Data:
        Version: 3 (0x2)
        Serial Number:
            03:1a:c1:48:f4:ec:d4:6b:bd:7e:5d:a7:b4:0e:72:e9:9c:ec:c2:3f
        Signature Algorithm: sha256WithRSAEncryption
        Issuer: CN = Bar
        Validity
            Not Before: Oct  1 00:00:00 2021 GMT
            Not After : Oct  1 00:00:00 2022 GMT
        Subject: CN = Foo
        Subject Public Key Info:
            Public Key Algorithm: rsaEncryption
                RSA Public-Key: (512 bit)
                Modulus:
                    00:a6:cc:90:af:c9:5f:16:aa:02:88:51:dd:db:f1:
                    50:d2:df:be:b6:e4:4a:a7:f1:2b:71:f5:49:35:8a:
                    a8:d8:c8:c3:1f:26:fc:ff:e8:8a:d4:51:a1:ff:c7:
                    4c:5c:d0:71:41:fc:83:ed:dd:a6:75:23:b1:0f:c2:
                    50:d0:e4:66:fb
                Exponent: 65537 (0x10001)
        X509v3 extensions:
            X509v3 Subject Alternative Name: 
                DNS:hell,o.com
    Signature Algorithm: sha256WithRSAEncryption
         79:6e:00:62:8e:6c:75:2b:b2:3e:4c:05:39:0e:2b:a4:42:c4:
         23:fb:6d:de:da:1e:4e:3f:00:c7:7b:c7:e7:37:22:77:20:c0:
         68:df:c3:ef:f6:1d:a7:a6:29:29:0c:ce:a7:6d:6c:91:73:54:
         b8:ed:08:3e:26:42:54:6a:11:12
-----BEGIN CERTIFICATE-----
MIIBODCB46ADAgECAhQDGsFI9OzUa71+Xae0DnLpnOzCPzANBgkqhkiG9w0BAQsF
ADAOMQwwCgYDVQQDDANCYXIwHhcNMjExMDAxMDAwMDAwWhcNMjIxMDAxMDAwMDAw
WjAOMQwwCgYDVQQDDANGb28wXDANBgkqhkiG9w0BAQEFAANLADBIAkEApsyQr8lf
FqoCiFHd2/FQ0t++tuRKp/ErcfVJNYqo2MjDHyb8/+iK1FGh/8dMXNBxQfyD7d2m
dSOxD8JQ0ORm+wIDAQABoxkwFzAVBgNVHREEDjAMggpoZWxsLG8uY29tMA0GCSqG
SIb3DQEBCwUAA0EAeW4AYo5sdSuyPkwFOQ4rpELEI/tt3toeTj8Ax3vH5zcidyDA
aN/D7/Ydp6YpKQzOp21skXNUuO0IPiZCVGoREg==
-----END CERTIFICATE-----
