Certificate:
    Data:
        Version: 3 (0x2)
        Serial Number: 3 (0x3)
        Signature Algorithm: ecdsa-with-SHA256
        Issuer: 
        Validity
            Not Before: Dec 10 00:00:00 2018 GMT
            Not After : Jan 10 00:00:00 2019 GMT
        Subject: 
        Subject Public Key Info:
            Public Key Algorithm: id-ecPublicKey
                Public-Key: (256 bit)
                pub:
                    04:18:1e:0d:96:53:3c:b4:d6:70:1f:b0:8b:e5:76:
                    bc:33:50:8f:7a:96:d4:81:af:ad:a1:8d:b3:29:a7:
                    02:da:48:c7:ce:e6:83:a0:41:96:38:31:25:8f:29:
                    b4:a5:a6:79:bc:c9:a1:be:6c:34:b5:4b:4f:04:89:
                    6c:41:d5:5d:b7
                ASN1 OID: prime256v1
                NIST CURVE: P-256
        X509v3 extensions:
            X509v3 Subject Alternative Name: 
                DNS:this.has.no.underscores.test
    Signature Algorithm: ecdsa-with-SHA256
         30:46:02:21:00:b0:d4:c1:7d:94:9c:ef:6e:b4:14:aa:62:f9:
         8d:f4:c1:02:1e:3c:5d:91:90:0d:a8:2b:cf:ea:7f:19:b3:8e:
         58:02:21:00:ed:6a:6e:42:28:0f:2c:34:17:39:87:82:8c:14:
         7b:c2:13:e5:c7:55:1c:b1:71:26:c5:e8:15:0a:92:a8:96:44
-----BEGIN CERTIFICATE-----
MIIBGjCBwKADAgECAgEDMAoGCCqGSM49BAMCMAAwHhcNMTgxMjEwMDAwMDAwWhcN
MTkwMTEwMDAwMDAwWjAAMFkwEwYHKoZIzj0CAQYIKoZIzj0DAQcDQgAEGB4NllM8
tNZwH7CL5Xa8M1CPepbUga+toY2zKacC2kjHzuaDoEGWODEljym0paZ5vMmhvmw0
tUtPBIlsQdVdt6MrMCkwJwYDVR0RBCAwHoIcdGhpcy5oYXMubm8udW5kZXJzY29y
ZXMudGVzdDAKBggqhkjOPQQDAgNJADBGAiEAsNTBfZSc7260FKpi+Y30wQIePF2R
kA2oK8/qfxmzjlgCIQDtam5CKA8sNBc5h4KMFHvCE+XHVRyxcSbF6BUKkqiWRA==
-----END CERTIFICATE-----
