Certificate:
    Data:
        Version: 3 (0x2)
        Serial Number: 3 (0x3)
        Signature Algorithm: ecdsa-with-SHA256
        Issuer: 
        Validity
            Not Before: Feb  6 19:33:10 2022 GMT
            Not After : Feb  6 19:33:10 2022 GMT
        Subject: 
        Subject Public Key Info:
            Public Key Algorithm: id-ecPublicKey
                Public-Key: (256 bit)
                pub:
                    04:28:9b:ad:f1:b1:c3:63:84:63:bc:ae:df:b7:63:
                    d1:30:09:4a:66:c8:62:a6:52:d5:e8:a5:b2:0d:d7:
                    29:80:06:09:4e:ba:40:95:c7:c5:d9:ca:91:5b:43:
                    60:29:aa:01:52:e5:be:9b:2b:58:e0:68:9b:de:79:
                    ae:5f:f4:bc:c6
                ASN1 OID: prime256v1
                NIST CURVE: P-256
        X509v3 extensions:
            X509v3 Subject Alternative Name: 
                DNS:with.under_score.com
    Signature Algorithm: ecdsa-with-SHA256
         30:45:02:20:37:09:7b:b7:e9:07:1d:0b:1a:af:4e:7e:0a:e1:
         66:90:25:80:de:35:0d:1f:d0:99:d3:0f:e2:ae:ee:88:03:1b:
         02:21:00:b4:64:bb:9d:7b:f5:0c:fa:b7:63:cf:e2:d7:42:e5:
         b0:48:50:2f:9d:25:cd:d0:f6:40:ad:1e:d0:6d:06:f5:33
-----BEGIN CERTIFICATE-----
MIIBETCBuKADAgECAgEDMAoGCCqGSM49BAMCMAAwHhcNMjIwMjA2MTkzMzEwWhcN
MjIwMjA2MTkzMzEwWjAAMFkwEwYHKoZIzj0CAQYIKoZIzj0DAQcDQgAEKJut8bHD
Y4RjvK7ft2PRMAlKZshiplLV6KWyDdcpgAYJTrpAlcfF2cqRW0NgKaoBUuW+mytY
4Gib3nmuX/S8xqMjMCEwHwYDVR0RBBgwFoIUd2l0aC51bmRlcl9zY29yZS5jb20w
CgYIKoZIzj0EAwIDSAAwRQIgNwl7t+kHHQsar05+CuFmkCWA3jUNH9CZ0w/iru6I
AxsCIQC0ZLude/UM+rdjz+LXQuWwSFAvnSXN0PZArR7QbQb1Mw==
-----END CERTIFICATE-----
