Certificate:
    Data:
        Version: 3 (0x2)
        Serial Number: 3 (0x3)
        Signature Algorithm: ecdsa-with-SHA256
        Issuer: 
        Validity
            Not Before: Dec 11 00:00:00 2018 GMT
            Not After : Dec 15 00:00:00 2018 GMT
        Subject: 
        Subject Public Key Info:
            Public Key Algorithm: id-ecPublicKey
                Public-Key: (256 bit)
                pub:
                    04:63:1b:66:ec:00:c2:08:2e:ff:46:75:89:ef:66:
                    a3:8f:a8:c2:fa:88:aa:12:d0:b3:6e:a5:e2:4c:ba:
                    c8:e0:1f:d5:f0:9f:02:33:8f:da:53:1d:51:f0:96:
                    f5:c5:72:ab:a2:99:87:81:9d:1d:4a:ba:0e:95:2e:
                    42:c6:a0:63:b4
                ASN1 OID: prime256v1
                NIST CURVE: P-256
        X509v3 extensions:
            X509v3 Subject Alternative Name: 
                DNS:with.under_score.com
    Signature Algorithm: ecdsa-with-SHA256
         30:45:02:20:7c:27:77:96:50:a4:9d:57:d6:26:f6:87:9b:af:
         2d:9c:31:4d:85:93:82:49:6b:13:79:47:6f:ac:08:0f:b8:55:
         02:21:00:ae:6b:16:47:6e:5e:1b:41:56:a4:e9:3e:48:89:40:
         77:ae:31:a7:9e:a3:4a:d5:1e:61:58:88:c1:06:89:6b:9a
-----BEGIN CERTIFICATE-----
MIIBETCBuKADAgECAgEDMAoGCCqGSM49BAMCMAAwHhcNMTgxMjExMDAwMDAwWhcN
MTgxMjE1MDAwMDAwWjAAMFkwEwYHKoZIzj0CAQYIKoZIzj0DAQcDQgAEYxtm7ADC
CC7/RnWJ72ajj6jC+oiqEtCzbqXiTLrI4B/V8J8CM4/aUx1R8Jb1xXKropmHgZ0d
SroOlS5CxqBjtKMjMCEwHwYDVR0RBBgwFoIUd2l0aC51bmRlcl9zY29yZS5jb20w
CgYIKoZIzj0EAwIDSAAwRQIgfCd3llCknVfWJvaHm68tnDFNhZOCSWsTeUdvrAgP
uFUCIQCuaxZHbl4bQVak6T5IiUB3rjGnnqNK1R5hWIjBBolrmg==
-----END CERTIFICATE-----
