Certificate:
    Data:
        Version: 3 (0x2)
        Serial Number: 3 (0x3)
        Signature Algorithm: ecdsa-with-SHA256
        Issuer: 
        Validity
            Not Before: Jan  1 00:00:00 1970 GMT
            Not After : Nov 30 00:00:00 9998 GMT
        Subject: 
        Subject Public Key Info:
            Public Key Algorithm: id-ecPublicKey
                Public-Key: (256 bit)
                pub:
                    04:38:65:7a:47:ba:c2:f2:54:40:22:57:43:ea:56:
                    33:2e:cb:2e:d5:f5:ac:70:50:0a:1f:b6:43:bc:a4:
                    17:fd:ff:59:28:40:7a:40:21:66:0b:25:cb:ec:f5:
                    3b:41:49:ac:44:2b:cb:6d:31:33:2a:40:c7:6c:ba:
                    d3:61:cb:c9:b5
                ASN1 OID: prime256v1
                NIST CURVE: P-256
        X509v3 extensions:
            X509v3 Subject Alternative Name: 
                DNS:with.an_underscore.com
    Signature Algorithm: ecdsa-with-SHA256
         30:45:02:21:00:eb:4b:f2:b8:7b:bd:11:42:e4:a5:b2:c4:5d:
         7d:94:ed:4a:3a:b6:8c:9c:1b:cc:02:bf:77:fd:f7:dd:4e:da:
         b0:02:20:0c:3e:94:28:be:b2:71:27:5d:9e:f9:cb:17:f1:d0:
         f3:9c:4f:3b:78:7c:98:1e:fc:fe:2f:b0:75:fb:7e:03:2c
-----BEGIN CERTIFICATE-----
MIIBFTCBvKADAgECAgEDMAoGCCqGSM49BAMCMAAwIBcNNzAwMTAxMDAwMDAwWhgP
OTk5ODExMzAwMDAwMDBaMAAwWTATBgcqhkjOPQIBBggqhkjOPQMBBwNCAAQ4ZXpH
usLyVEAiV0PqVjMuyy7V9axwUAoftkO8pBf9/1koQHpAIWYLJcvs9TtBSaxEK8tt
MTMqQMdsutNhy8m1oyUwIzAhBgNVHREEGjAYghZ3aXRoLmFuX3VuZGVyc2NvcmUu
Y29tMAoGCCqGSM49BAMCA0gAMEUCIQDrS/K4e70RQuSlssRdfZTtSjq2jJwbzAK/
d/333U7asAIgDD6UKL6ycSddnvnLF/HQ85xPO3h8mB78/i+wdft+Ayw=
-----END CERTIFICATE-----
