Certificate:
    Data:
        Version: 3 (0x2)
        Serial Number: 3 (0x3)
        Signature Algorithm: ecdsa-with-SHA256
        Issuer: 
        Validity
            Not Before: Dec 11 00:00:00 2018 GMT
            Not After : Dec 15 00:00:00 2018 GMT
        Subject: 
        Subject Public Key Info:
            Public Key Algorithm: id-ecPublicKey
                Public-Key: (256 bit)
                pub:
                    04:1e:f9:91:7c:70:4e:06:0d:de:a7:17:5c:52:dd:
                    18:79:d1:21:c7:bb:b0:b1:c2:3b:e6:8e:bc:37:67:
                    bf:e3:2a:7e:e1:57:91:ce:3b:a0:f4:49:2b:a3:db:
                    9a:7a:60:74:ff:b4:5a:ea:a2:15:9e:da:21:f9:48:
                    de:37:60:ce:fd
                ASN1 OID: prime256v1
                NIST CURVE: P-256
        X509v3 extensions:
            X509v3 Subject Alternative Name: 
                DNS:with.under_score.com
    Signature Algorithm: ecdsa-with-SHA256
         30:46:02:21:00:a1:04:f6:7c:02:b5:5e:38:c0:d0:11:68:09:
         f5:5a:70:28:c7:46:ab:09:a3:d2:53:e0:e2:f0:64:bf:38:c3:
         72:02:21:00:93:a3:5a:3f:70:b2:1f:bf:db:91:1e:0d:c0:af:
         0d:2c:1f:ea:b4:d6:11:b8:ec:fe:25:ed:60:a6:cf:c5:41:98
-----BEGIN CERTIFICATE-----
MIIBEjCBuKADAgECAgEDMAoGCCqGSM49BAMCMAAwHhcNMTgxMjExMDAwMDAwWhcN
MTgxMjE1MDAwMDAwWjAAMFkwEwYHKoZIzj0CAQYIKoZIzj0DAQcDQgAEHvmRfHBO
Bg3epxdcUt0YedEhx7uwscI75o68N2e/4yp+4VeRzjug9Ekro9uaemB0/7Ra6qIV
ntoh+UjeN2DO/aMjMCEwHwYDVR0RBBgwFoIUd2l0aC51bmRlcl9zY29yZS5jb20w
CgYIKoZIzj0EAwIDSQAwRgIhAKEE9nwCtV44wNARaAn1WnAox0arCaPSU+Di8GS/
OMNyAiEAk6NaP3CyH7/bkR4NwK8NLB/qtNYRuOz+Je1gps/FQZg=
-----END CERTIFICATE-----
