Certificate:
    Data:
        Version: 3 (0x2)
        Serial Number: 3 (0x3)
        Signature Algorithm: ecdsa-with-SHA256
        Issuer: 
        Validity
            Not Before: Jan  1 00:00:00 2018 GMT
            Not After : Jan  2 00:00:00 2018 GMT
        Subject: 
        Subject Public Key Info:
            Public Key Algorithm: id-ecPublicKey
                Public-Key: (256 bit)
                pub:
                    04:7d:f5:db:ee:17:8a:6b:d7:b6:2b:c8:f2:70:a9:
                    af:7c:15:43:d2:ca:56:9d:bc:3c:41:93:50:12:74:
                    ac:08:5a:cd:f8:4b:7d:26:ac:61:d5:ce:08:20:91:
                    10:e6:db:ff:05:92:c6:ea:31:88:ec:89:d6:9e:ba:
                    88:05:57:e1:3d
                ASN1 OID: prime256v1
                NIST CURVE: P-256
        X509v3 extensions:
            X509v3 Subject Alternative Name: 
                DNS:totally._fine.with.me
    Signature Algorithm: ecdsa-with-SHA256
         30:46:02:21:00:c5:03:bd:eb:17:ef:4f:9a:dc:57:60:7f:b4:
         a3:64:70:76:6b:cf:6e:b2:da:d1:3e:01:f2:c6:86:3c:ec:8e:
         97:02:21:00:bc:8c:af:56:0e:79:3e:20:af:80:33:a7:eb:45:
         36:f5:b3:da:74:3c:a2:90:63:25:23:01:3e:3f:ed:77:56:21
-----BEGIN CERTIFICATE-----
MIIBEzCBuaADAgECAgEDMAoGCCqGSM49BAMCMAAwHhcNMTgwMTAxMDAwMDAwWhcN
MTgwMTAyMDAwMDAwWjAAMFkwEwYHKoZIzj0CAQYIKoZIzj0DAQcDQgAEffXb7heK
a9e2K8jycKmvfBVD0spWnbw8QZNQEnSsCFrN+Et9Jqxh1c4IIJEQ5tv/BZLG6jGI
7InWnrqIBVfhPaMkMCIwIAYDVR0RBBkwF4IVdG90YWxseS5fZmluZS53aXRoLm1l
MAoGCCqGSM49BAMCA0kAMEYCIQDFA73rF+9PmtxXYH+0o2RwdmvPbrLa0T4B8saG
POyOlwIhALyMr1YOeT4gr4Azp+tFNvWz2nQ8opBjJSMBPj/td1Yh
-----END CERTIFICATE-----
