Certificate:
    Data:
        Version: 3 (0x2)
        Serial Number:
            3f:f0:68:f8:bf:11:b2:86:25:e5:70:ca:2d:83:e2:24
        Signature Algorithm: sha256WithRSAEncryption
        Issuer: C = DE, O = T-Systems International GmbH, OU = T-Systems Trust Center, CN = TeleSec Business CA 1
        Validity
            Not Before: May 14 10:37:18 2021 GMT
            Not After : May 14 23:59:59 2022 GMT
        Subject: C = DE, O = T-Systems International GmbH, OU = schnelltestportal.de, OU = 1key, CN = -wru.schnelltestportal.de, ST = Hessen, L = Frankfurt am Main, serialNumber = 1
        Subject Public Key Info:
            Public Key Algorithm: rsaEncryption
                RSA Public-Key: (4096 bit)
                Modulus:
                    00:be:17:31:4d:28:b6:d8:e4:5d:bd:ca:c4:d8:1c:
                    ac:7b:86:ee:a9:bc:a3:87:66:fa:ed:2a:b3:83:5d:
                    91:8a:ad:3d:18:9a:b5:63:1d:5f:95:1d:02:98:1a:
                    17:09:6c:11:a4:e6:81:1b:15:5c:d0:f2:e5:4e:bc:
                    93:cc:0c:75:35:3a:10:36:8f:87:9d:40:d3:a0:96:
                    ee:11:04:f4:b4:be:a9:03:1e:5a:4d:55:84:59:8a:
                    1f:13:ea:65:f1:c1:c5:d3:39:2c:c9:9e:2c:91:d1:
                    28:72:ae:e2:d1:1e:76:b1:4f:a1:ae:fb:f4:49:a6:
                    70:d4:7d:cb:e3:36:d3:a6:42:ff:1e:24:ea:79:5d:
                    e7:cc:06:52:09:c5:73:fd:16:a6:89:55:8c:66:12:
                    1c:3e:9b:aa:e9:1f:87:08:e7:b4:67:0a:2b:47:e9:
                    10:ee:92:4c:3a:a7:c0:a3:48:f0:45:96:0b:71:29:
                    69:30:c1:25:3b:55:e2:2c:61:08:21:ad:b5:38:0c:
                    9e:c6:fc:93:9d:5f:b4:00:00:d2:4d:0f:c5:a0:71:
                    93:e2:ef:26:b5:64:85:46:a8:f2:46:fc:b8:7d:48:
                    ba:4b:b6:70:08:a7:00:a9:ed:82:41:fd:a9:64:71:
                    06:52:7c:bb:d5:ca:2a:f2:1c:e4:95:26:38:67:a8:
                    6b:8a:bc:af:81:12:b9:43:c7:9d:4e:f3:1f:c4:ba:
                    3b:22:81:1c:ad:e3:0b:48:67:83:42:7c:61:ec:ab:
                    44:2d:1e:f4:48:6e:67:00:31:b4:54:f3:d6:20:26:
                    77:9c:b0:7f:ab:82:b0:f6:1d:25:ac:97:3d:7d:40:
                    ce:a4:57:ab:1b:33:80:38:b4:77:be:db:26:f9:44:
                    5b:cd:5b:74:0d:77:67:dc:6f:63:f0:6a:6a:50:b7:
                    62:5f:46:30:98:77:d0:79:a1:92:de:4c:30:e3:61:
                    8b:01:e6:d1:68:57:e9:47:ea:28:f4:8e:12:92:6f:
                    4a:ec:14:14:13:20:3d:20:eb:dd:32:51:a5:f1:ab:
                    58:41:ce:ec:25:b5:91:0d:fd:86:cf:e5:61:10:db:
                    36:2a:01:05:fd:30:af:a0:a1:73:ea:c5:c6:ba:0d:
                    ea:88:3a:a9:6a:08:73:e7:6b:4e:f3:95:68:f1:1d:
                    18:c5:54:0c:33:56:e1:ec:3c:ac:4f:87:80:56:13:
                    5e:a3:aa:1c:c2:b5:72:3b:34:f7:77:ab:36:5b:9f:
                    5b:80:67:a6:34:ce:31:e4:0a:29:03:5d:88:57:3c:
                    12:92:1c:3f:19:97:21:0a:2e:a3:32:d2:d8:bc:82:
                    e6:01:57:33:26:e1:5f:a4:1f:ba:3f:1b:16:8c:5a:
                    da:98:37
                Exponent: 65537 (0x10001)
        X509v3 extensions:
            X509v3 Authority Key Identifier: 
                keyid:86:88:93:1F:8B:EB:55:96:65:D5:47:01:BD:37:8C:7C:CD:A8:C7:A3

            X509v3 Subject Key Identifier: 
                72:EC:21:2A:15:C4:B0:7F:7E:8B:7D:34:C7:1A:86:CA:CF:FD:51:48
            X509v3 Key Usage: critical
                Digital Signature, Key Encipherment
            X509v3 Extended Key Usage: 
                TLS Web Client Authentication, TLS Web Server Authentication
            X509v3 Certificate Policies: 
                Policy: 1.3.6.1.4.1.7879.13.25
                  CPS: http://sbca.telesec.de/download/cps2.pdf
                Policy: 2.23.140.1.2.2
                Policy: 0.4.0.2042.1.7

            X509v3 Basic Constraints: 
                CA:FALSE
            X509v3 CRL Distribution Points: 

                Full Name:
                  URI:http://crl.sbca.telesec.de/rl/TeleSec_Business_CA_1.crl

                Full Name:
                  URI:ldap://ldap.sbca.telesec.de/CN=TeleSec%20Business%20CA%201,OU=T-Systems%20Trust%20Center,O=T-Systems%20International%20GmbH,C=DE?CertificateRevocationList

            Authority Information Access: 
                OCSP - URI:http://ocsp03.sbca.telesec.de/ocspr
                CA Issuers - URI:http://crt.sbca.telesec.de/crt/TeleSec_Business_CA_1.crt

            X509v3 Subject Alternative Name: 
                DNS:-wru.schnelltestportal.de
            CT Precertificate Poison: critical
                NULL
    Signature Algorithm: sha256WithRSAEncryption
         52:c0:5d:a0:0c:d8:3c:f0:2d:d7:a3:7e:0d:2c:d5:1b:a3:2d:
         7e:47:b1:d0:fa:d4:e0:32:fb:c8:72:14:80:14:92:7c:1c:1c:
         5c:12:75:16:ef:9a:cd:40:df:0a:6b:76:79:50:cc:83:84:8b:
         77:c3:e1:0a:5c:16:f8:09:9f:db:2e:66:b4:ed:38:7d:64:48:
         7a:e0:b1:e5:1e:84:27:de:ff:1a:69:a2:6a:9d:97:a4:5d:9a:
         49:d2:53:fa:94:35:0b:56:a8:af:70:ea:8c:0a:7d:20:83:02:
         31:02:9a:ae:31:23:d1:31:31:a8:75:2b:b6:20:47:44:db:ba:
         cb:e4:5d:21:e0:8f:b4:79:6d:d2:a1:90:88:5b:74:55:e8:f4:
         dc:d6:50:a5:a8:2b:61:c1:2d:e7:2a:4d:b5:33:9c:88:a2:2a:
         25:cb:86:3c:65:d5:01:a1:6d:61:63:89:98:79:26:90:4c:59:
         5a:68:21:b1:6e:9f:11:9b:9f:11:92:82:8a:46:e7:c2:c6:32:
         00:33:f4:23:2c:3d:6c:a0:0b:3e:7c:bc:81:e5:8f:70:68:6e:
         47:88:15:99:19:26:af:bd:93:32:9a:55:af:94:b5:6d:e5:bf:
         ea:0d:23:55:ec:5f:51:9b:e3:f8:7a:f9:dd:2c:5b:10:e6:d1:
         05:e4:f6:15
-----BEGIN CERTIFICATE-----
MIIHWTCCBkGgAwIBAgIQP/Bo+L8RsoYl5XDKLYPiJDANBgkqhkiG9w0BAQsFADB1
MQswCQYDVQQGEwJERTElMCMGA1UEChMcVC1TeXN0ZW1zIEludGVybmF0aW9uYWwg
R21iSDEfMB0GA1UECxMWVC1TeXN0ZW1zIFRydXN0IENlbnRlcjEeMBwGA1UEAxMV
VGVsZVNlYyBCdXNpbmVzcyBDQSAxMB4XDTIxMDUxNDEwMzcxOFoXDTIyMDUxNDIz
NTk1OVowgb8xCzAJBgNVBAYTAkRFMSUwIwYDVQQKExxULVN5c3RlbXMgSW50ZXJu
YXRpb25hbCBHbWJIMR0wGwYDVQQLExRzY2huZWxsdGVzdHBvcnRhbC5kZTENMAsG
A1UECxMEMWtleTEiMCAGA1UEAxMZLXdydS5zY2huZWxsdGVzdHBvcnRhbC5kZTEP
MA0GA1UECBMGSGVzc2VuMRowGAYDVQQHExFGcmFua2Z1cnQgYW0gTWFpbjEKMAgG
A1UEBRMBMTCCAiIwDQYJKoZIhvcNAQEBBQADggIPADCCAgoCggIBAL4XMU0ottjk
Xb3KxNgcrHuG7qm8o4dm+u0qs4NdkYqtPRiatWMdX5UdApgaFwlsEaTmgRsVXNDy
5U68k8wMdTU6EDaPh51A06CW7hEE9LS+qQMeWk1VhFmKHxPqZfHBxdM5LMmeLJHR
KHKu4tEedrFPoa779EmmcNR9y+M206ZC/x4k6nld58wGUgnFc/0WpolVjGYSHD6b
qukfhwjntGcKK0fpEO6STDqnwKNI8EWWC3EpaTDBJTtV4ixhCCGttTgMnsb8k51f
tAAA0k0PxaBxk+LvJrVkhUao8kb8uH1Iuku2cAinAKntgkH9qWRxBlJ8u9XKKvIc
5JUmOGeoa4q8r4ESuUPHnU7zH8S6OyKBHK3jC0hng0J8YeyrRC0e9EhuZwAxtFTz
1iAmd5ywf6uCsPYdJayXPX1AzqRXqxszgDi0d77bJvlEW81bdA13Z9xvY/BqalC3
Yl9GMJh30Hmhkt5MMONhiwHm0WhX6UfqKPSOEpJvSuwUFBMgPSDr3TJRpfGrWEHO
7CW1kQ39hs/lYRDbNioBBf0wr6Chc+rFxroN6og6qWoIc+drTvOVaPEdGMVUDDNW
4ew8rE+HgFYTXqOqHMK1cjs093erNlufW4BnpjTOMeQKKQNdiFc8EpIcPxmXIQou
ozLS2LyC5gFXMybhX6Qfuj8bFoxa2pg3AgMBAAGjggKYMIIClDAfBgNVHSMEGDAW
gBSGiJMfi+tVlmXVRwG9N4x8zajHozAdBgNVHQ4EFgQUcuwhKhXEsH9+i300xxqG
ys/9UUgwDgYDVR0PAQH/BAQDAgWgMB0GA1UdJQQWMBQGCCsGAQUFBwMCBggrBgEF
BQcDATBiBgNVHSAEWzBZMEMGCSsGAQQBvUcNGTA2MDQGCCsGAQUFBwIBFihodHRw
Oi8vc2JjYS50ZWxlc2VjLmRlL2Rvd25sb2FkL2NwczIucGRmMAgGBmeBDAECAjAI
BgYEAI96AQcwCQYDVR0TBAIwADCB8AYDVR0fBIHoMIHlMD2gO6A5hjdodHRwOi8v
Y3JsLnNiY2EudGVsZXNlYy5kZS9ybC9UZWxlU2VjX0J1c2luZXNzX0NBXzEuY3Js
MIGjoIGgoIGdhoGabGRhcDovL2xkYXAuc2JjYS50ZWxlc2VjLmRlL0NOPVRlbGVT
ZWMlMjBCdXNpbmVzcyUyMENBJTIwMSxPVT1ULVN5c3RlbXMlMjBUcnVzdCUyMENl
bnRlcixPPVQtU3lzdGVtcyUyMEludGVybmF0aW9uYWwlMjBHbWJILEM9REU/Q2Vy
dGlmaWNhdGVSZXZvY2F0aW9uTGlzdDCBhQYIKwYBBQUHAQEEeTB3MC8GCCsGAQUF
BzABhiNodHRwOi8vb2NzcDAzLnNiY2EudGVsZXNlYy5kZS9vY3NwcjBEBggrBgEF
BQcwAoY4aHR0cDovL2NydC5zYmNhLnRlbGVzZWMuZGUvY3J0L1RlbGVTZWNfQnVz
aW5lc3NfQ0FfMS5jcnQwJAYDVR0RBB0wG4IZLXdydS5zY2huZWxsdGVzdHBvcnRh
bC5kZTATBgorBgEEAdZ5AgQDAQH/BAIFADANBgkqhkiG9w0BAQsFAAOCAQEAUsBd
oAzYPPAt16N+DSzVG6Mtfkex0PrU4DL7yHIUgBSSfBwcXBJ1Fu+azUDfCmt2eVDM
g4SLd8PhClwW+Amf2y5mtO04fWRIeuCx5R6EJ97/Gmmiap2XpF2aSdJT+pQ1C1ao
r3DqjAp9IIMCMQKarjEj0TExqHUrtiBHRNu6y+RdIeCPtHlt0qGQiFt0Vej03NZQ
pagrYcEt5ypNtTOciKIqJcuGPGXVAaFtYWOJmHkmkExZWmghsW6fEZufEZKCikbn
wsYyADP0Iyw9bKALPny8geWPcGhuR4gVmRkmr72TMppVr5S1beW/6g0jVexfUZvj
+Hr53SxbEObRBeT2FQ==
-----END CERTIFICATE-----
