Certificate:
    Data:
        Version: 3 (0x2)
        Serial Number:
            5b:c9:9d:ea:2d:9e:5a:d3:ba:80:06:63:b6:56:c8:96:76:a4:9b:62
        Signature Algorithm: sha256WithRSAEncryption
        Issuer: CN = Bar
        Validity
            Not Before: Oct  1 00:00:00 2021 GMT
            Not After : Oct  1 00:00:00 2022 GMT
        Subject: CN = Foo
        Subject Public Key Info:
            Public Key Algorithm: rsaEncryption
                RSA Public-Key: (512 bit)
                Modulus:
                    00:dd:c8:7d:83:a5:9d:f2:1c:af:64:e6:8b:3a:87:
                    06:28:d8:2a:41:9f:76:6d:43:9e:81:76:4b:06:8c:
                    f3:7a:3d:fb:88:93:3d:ff:72:9f:19:8f:19:93:22:
                    61:ee:62:09:5e:3b:76:57:7b:c9:8d:a6:9d:b4:90:
                    0b:c4:65:ec:33
                Exponent: 65537 (0x10001)
        X509v3 extensions:
            X509v3 Subject Alternative Name: 
                DNS:xN--109-3veba6djs1bfxlfmx6c9g.xn--f1awi.xn--p1ai
    Signature Algorithm: sha256WithRSAEncryption
         2b:72:01:ff:0b:05:6a:f7:27:e7:28:24:9e:25:bc:0a:f0:b1:
         c5:8f:19:e1:c4:b9:e1:d6:38:3a:74:0e:f9:d6:52:93:41:43:
         49:80:25:d1:d1:d4:ad:e5:ba:34:9c:6b:cb:57:7c:79:6c:ee:
         f6:02:aa:67:62:97:da:1a:d6:5c
-----BEGIN CERTIFICATE-----
MIIBXzCCAQmgAwIBAgIUW8md6i2eWtO6gAZjtlbIlnakm2IwDQYJKoZIhvcNAQEL
BQAwDjEMMAoGA1UEAwwDQmFyMB4XDTIxMTAwMTAwMDAwMFoXDTIyMTAwMTAwMDAw
MFowDjEMMAoGA1UEAwwDRm9vMFwwDQYJKoZIhvcNAQEBBQADSwAwSAJBAN3IfYOl
nfIcr2TmizqHBijYKkGfdm1DnoF2SwaM83o9+4iTPf9ynxmPGZMiYe5iCV47dld7
yY2mnbSQC8Rl7DMCAwEAAaM/MD0wOwYDVR0RBDQwMoIweE4tLTEwOS0zdmViYTZk
anMxYmZ4bGZteDZjOWcueG4tLWYxYXdpLnhuLS1wMWFpMA0GCSqGSIb3DQEBCwUA
A0EAK3IB/wsFavcn5ygkniW8CvCxxY8Z4cS54dY4OnQO+dZSk0FDSYAl0dHUreW6
NJxry1d8eWzu9gKqZ2KX2hrWXA==
-----END CERTIFICATE-----
