Certificate:
    Data:
        Version: 3 (0x2)
        Serial Number: 3 (0x3)
        Signature Algorithm: ecdsa-with-SHA256
        Issuer: 
        Validity
            Not Before: Dec 11 00:00:00 2018 GMT
            Not After : Dec 15 00:00:00 2018 GMT
        Subject: 
        Subject Public Key Info:
            Public Key Algorithm: id-ecPublicKey
                Public-Key: (256 bit)
                pub:
                    04:f9:14:2e:ea:51:3b:9d:c6:fc:7d:4e:b5:9c:45:
                    16:6d:13:f1:92:b4:73:eb:1c:38:32:e6:69:57:67:
                    c0:2b:e3:b4:83:20:ef:ad:20:e9:62:3c:85:83:d3:
                    51:25:d2:d9:2d:4c:c8:55:95:a9:1f:68:3a:fb:1c:
                    5c:25:41:39:5c
                ASN1 OID: prime256v1
                NIST CURVE: P-256
        X509v3 extensions:
            X509v3 Subject Alternative Name: 
                DNS:with.under_score.test
    Signature Algorithm: ecdsa-with-SHA256
         30:45:02:20:34:e1:03:2f:21:27:6b:c1:1c:e3:52:3d:49:4d:
         1d:e5:41:b0:b1:6a:00:46:1d:27:ca:f2:10:0d:ee:50:09:c4:
         02:21:00:dc:34:a5:df:38:fa:e9:46:61:f0:a4:fc:4a:37:29:
         ed:c3:e7:d3:49:22:fa:7d:ae:45:05:bd:c9:d9:cd:a7:57
-----BEGIN CERTIFICATE-----
MIIBEjCBuaADAgECAgEDMAoGCCqGSM49BAMCMAAwHhcNMTgxMjExMDAwMDAwWhcN
MTgxMjE1MDAwMDAwWjAAMFkwEwYHKoZIzj0CAQYIKoZIzj0DAQcDQgAE+RQu6lE7
ncb8fU61nEUWbRPxkrRz6xw4MuZpV2fAK+O0gyDvrSDpYjyFg9NRJdLZLUzIVZWp
H2g6+xxcJUE5XKMkMCIwIAYDVR0RBBkwF4IVd2l0aC51bmRlcl9zY29yZS50ZXN0
MAoGCCqGSM49BAMCA0gAMEUCIDThAy8hJ2vBHONSPUlNHeVBsLFqAEYdJ8ryEA3u
UAnEAiEA3DSl3zj66UZh8KT8Sjcp7cPn00ki+n2uRQW9ydnNp1c=
-----END CERTIFICATE-----
