Certificate:
    Data:
        Version: 3 (0x2)
        Serial Number: 3 (0x3)
        Signature Algorithm: ecdsa-with-SHA256
        Issuer: 
        Validity
            Not Before: Dec 11 00:00:00 2018 GMT
            Not After : Nov 30 00:00:00 9998 GMT
        Subject: 
        Subject Public Key Info:
            Public Key Algorithm: id-ecPublicKey
                Public-Key: (256 bit)
                pub:
                    04:98:64:03:78:1b:b8:da:19:84:4e:0b:35:14:6c:
                    ad:94:64:96:99:cc:75:87:40:1f:f5:96:7c:39:56:
                    68:af:98:6e:e5:6e:b8:78:a4:63:e1:14:e2:79:cc:
                    07:c7:a5:be:97:9d:9e:e0:a5:d0:5c:be:89:a3:14:
                    43:24:52:32:08
                ASN1 OID: prime256v1
                NIST CURVE: P-256
        X509v3 extensions:
            X509v3 Subject Alternative Name: 
                DNS:with.an_underscore.com
    Signature Algorithm: ecdsa-with-SHA256
         30:45:02:21:00:f7:56:81:07:dd:94:5c:d2:8f:ca:f9:7c:d1:
         5c:12:a6:2c:97:67:1a:a2:3b:dc:2e:c4:a8:47:3a:a0:15:8f:
         e2:02:20:16:0a:d7:52:ab:db:3a:8f:b4:5f:93:1b:2d:2d:50:
         58:c0:f0:77:7d:9c:1f:39:70:3e:14:1b:42:3f:65:e4:b7
-----BEGIN CERTIFICATE-----
MIIBFTCBvKADAgECAgEDMAoGCCqGSM49BAMCMAAwIBcNMTgxMjExMDAwMDAwWhgP
OTk5ODExMzAwMDAwMDBaMAAwWTATBgcqhkjOPQIBBggqhkjOPQMBBwNCAASYZAN4
G7jaGYROCzUUbK2UZJaZzHWHQB/1lnw5VmivmG7lbrh4pGPhFOJ5zAfHpb6XnZ7g
pdBcvomjFEMkUjIIoyUwIzAhBgNVHREEGjAYghZ3aXRoLmFuX3VuZGVyc2NvcmUu
Y29tMAoGCCqGSM49BAMCA0gAMEUCIQD3VoEH3ZRc0o/K+XzRXBKmLJdnGqI73C7E
qEc6oBWP4gIgFgrXUqvbOo+0X5MbLS1QWMDwd32cHzlwPhQbQj9l5Lc=
-----END CERTIFICATE-----
