Certificate:
    Data:
        Version: 3 (0x2)
        Serial Number: 3 (0x3)
        Signature Algorithm: ecdsa-with-SHA256
        Issuer: 
        Validity
            Not Before: Jan  1 00:00:00 2018 GMT
            Not After : Feb  2 00:00:00 2018 GMT
        Subject: 
        Subject Public Key Info:
            Public Key Algorithm: id-ecPublicKey
                Public-Key: (256 bit)
                pub:
                    04:4c:e5:06:27:fa:16:7b:56:8d:98:9f:4a:df:d5:
                    2c:95:20:96:b4:70:8b:bd:b7:6e:70:04:80:88:4d:
                    03:40:0c:df:87:49:3c:a4:c2:aa:97:1d:7b:73:23:
                    67:df:66:67:9e:9e:c0:e9:1c:44:f2:73:9d:2c:32:
                    01:e0:2c:2e:60
                ASN1 OID: prime256v1
                NIST CURVE: P-256
        X509v3 extensions:
            X509v3 Subject Alternative Name: 
                DNS:totally.not_fine.with.me
    Signature Algorithm: ecdsa-with-SHA256
         30:45:02:21:00:bd:8d:e4:be:2c:c7:24:08:96:e3:2b:0d:fb:
         9e:98:dd:58:bf:5f:f4:1f:7d:f7:7e:e5:3f:19:1f:68:c4:69:
         f9:02:20:1f:ab:6a:d3:c9:d8:df:00:a9:2a:92:d9:a6:82:82:
         4b:63:cb:36:13:9f:00:1a:24:83:f2:4d:c1:b4:c9:97:f0
-----BEGIN CERTIFICATE-----
MIIBFTCBvKADAgECAgEDMAoGCCqGSM49BAMCMAAwHhcNMTgwMTAxMDAwMDAwWhcN
MTgwMjAyMDAwMDAwWjAAMFkwEwYHKoZIzj0CAQYIKoZIzj0DAQcDQgAETOUGJ/oW
e1aNmJ9K39UslSCWtHCLvbducASAiE0DQAzfh0k8pMKqlx17cyNn32Znnp7A6RxE
8nOdLDIB4CwuYKMnMCUwIwYDVR0RBBwwGoIYdG90YWxseS5ub3RfZmluZS53aXRo
Lm1lMAoGCCqGSM49BAMCA0gAMEUCIQC9jeS+LMckCJbjKw37npjdWL9f9B99937l
PxkfaMRp+QIgH6tq08nY3wCpKpLZpoKCS2PLNhOfABokg/JNwbTJl/A=
-----END CERTIFICATE-----
