Certificate:
    Data:
        Version: 3 (0x2)
        Serial Number: 3 (0x3)
        Signature Algorithm: ecdsa-with-SHA256
        Issuer: 
        Validity
            Not Before: Dec 11 00:00:00 2018 GMT
            Not After : Dec 15 00:00:00 2018 GMT
        Subject: 
        Subject Public Key Info:
            Public Key Algorithm: id-ecPublicKey
                Public-Key: (256 bit)
                pub:
                    04:49:3c:80:3e:33:dc:b3:e6:ec:32:c0:ff:c4:a9:
                    fc:1c:c8:58:b9:b1:27:0a:0c:1a:63:ba:a5:df:a5:
                    cc:44:a8:a8:9e:97:c2:78:b0:49:c4:ee:02:1c:26:
                    58:9a:52:77:dc:89:0a:a7:37:34:21:ea:ca:c9:5f:
                    b4:03:f7:75:31
                ASN1 OID: prime256v1
                NIST CURVE: P-256
        X509v3 extensions:
            X509v3 Subject Alternative Name: 
                DNS:no.underscore.com
    Signature Algorithm: ecdsa-with-SHA256
         30:44:02:20:2d:1e:08:f5:8d:0e:b1:fa:b5:61:a0:33:8b:d2:
         9c:ae:59:25:69:89:de:3f:68:1f:36:da:4a:e8:68:24:94:9c:
         02:20:76:19:71:4b:73:4a:91:ec:13:e5:c1:6a:19:6e:36:9e:
         40:43:fe:9e:84:da:53:38:fb:db:99:9f:c5:85:41:34
-----BEGIN CERTIFICATE-----
MIIBDTCBtaADAgECAgEDMAoGCCqGSM49BAMCMAAwHhcNMTgxMjExMDAwMDAwWhcN
MTgxMjE1MDAwMDAwWjAAMFkwEwYHKoZIzj0CAQYIKoZIzj0DAQcDQgAESTyAPjPc
s+bsMsD/xKn8HMhYubEnCgwaY7ql36XMRKionpfCeLBJxO4CHCZYmlJ33IkKpzc0
IerKyV+0A/d1MaMgMB4wHAYDVR0RBBUwE4IRbm8udW5kZXJzY29yZS5jb20wCgYI
KoZIzj0EAwIDRwAwRAIgLR4I9Y0Osfq1YaAzi9KcrlklaYneP2gfNtpK6GgklJwC
IHYZcUtzSpHsE+XBahluNp5AQ/6ehNpTOPvbmZ/FhUE0
-----END CERTIFICATE-----
