Certificate:
    Data:
        Version: 3 (0x2)
        Serial Number:
            5f:3d:5f:d4:f0:e1:e9:a0:ea:ad:1d:fc:82:16:7b:62:d8:30:d8:2e
        Signature Algorithm: sha256WithRSAEncryption
        Issuer: CN = Bar
        Validity
            Not Before: Oct  1 00:00:00 2021 GMT
            Not After : Oct  1 00:00:00 2022 GMT
        Subject: CN = Foo
        Subject Public Key Info:
            Public Key Algorithm: rsaEncryption
                RSA Public-Key: (512 bit)
                Modulus:
                    00:d1:e6:16:3c:ab:5c:36:4c:69:82:0b:9a:89:0c:
                    96:4d:fb:72:9b:40:e9:da:22:d8:2b:c7:cf:2b:4c:
                    02:10:75:55:98:f7:4e:86:24:ec:4f:3b:36:65:76:
                    96:ae:f6:ef:44:34:78:5b:58:47:10:66:13:c0:4e:
                    9e:8f:9f:2a:1b
                Exponent: 65537 (0x10001)
        X509v3 extensions:
            X509v3 Subject Alternative Name: 
                DNS:aaaaaaaaaaaaaaaaaaaaaaaaaaaaaaaaaaaaaaaaaaaaaaaaaaaaaaaaaaaaaaaa.com
    Signature Algorithm: sha256WithRSAEncryption
         9a:ef:35:9d:89:3a:05:5c:77:9d:75:d0:dd:53:b2:ad:fc:ff:
         87:32:75:9b:67:9c:9f:9b:3e:bb:51:06:fe:16:6f:b3:13:6b:
         95:fc:e2:a7:7c:61:b0:84:78:45:16:8b:cf:cf:3d:9f:ab:f9:
         ef:30:fe:6f:94:31:3b:40:57:b4
-----BEGIN CERTIFICATE-----
MIIBczCCAR2gAwIBAgIUXz1f1PDh6aDqrR38ghZ7Ytgw2C4wDQYJKoZIhvcNAQEL
BQAwDjEMMAoGA1UEAwwDQmFyMB4XDTIxMTAwMTAwMDAwMFoXDTIyMTAwMTAwMDAw
MFowDjEMMAoGA1UEAwwDRm9vMFwwDQYJKoZIhvcNAQEBBQADSwAwSAJBANHmFjyr
XDZMaYILmokMlk37cptA6doi2CvHzytMAhB1VZj3ToYk7E87NmV2lq7270Q0eFtY
RxBmE8BOno+fKhsCAwEAAaNTMFEwTwYDVR0RBEgwRoJEYWFhYWFhYWFhYWFhYWFh
YWFhYWFhYWFhYWFhYWFhYWFhYWFhYWFhYWFhYWFhYWFhYWFhYWFhYWFhYWFhYWFh
YS5jb20wDQYJKoZIhvcNAQELBQADQQCa7zWdiToFXHedddDdU7Kt/P+HMnWbZ5yf
mz67UQb+Fm+zE2uV/OKnfGGwhHhFFovPzz2fq/nvMP5vlDE7QFe0
-----END CERTIFICATE-----
