-----END CERTIFICATE-----
Certificate:
    Data:
        Version: 3 (0x2)
        Serial Number: 1 (0x1)
        Signature Algorithm: ecdsa-with-SHA256
        Issuer:
        Validity
            Not Before: Feb 13 20:33:55 2021 GMT
            Not After : Feb 13 20:33:55 2021 GMT
        Subject:
        Subject Public Key Info:
            Public Key Algorithm: id-ecPublicKey
                Public-Key: (256 bit)
                pub:
                    04:75:f7:1d:56:4c:0d:3f:b1:b4:96:3b:61:46:04:
                    ac:da:4d:fd:0c:f1:d2:2d:96:4e:2a:f8:7c:3a:f5:
                    65:08:dc:f0:44:4b:f1:f1:ec:d0:fe:c5:33:e3:3a:
                    4a:d2:46:26:4e:66:cf:e0:2b:dc:26:8e:e6:97:fe:
                    e2:fc:93:de:95
                ASN1 OID: prime256v1
                NIST CURVE: P-256
        X509v3 extensions:
            X509v3 Name Constraints:
                Excluded:
                  DNS:this.is.fine
                  DNS:.this.is.not

    Signature Algorithm: ecdsa-with-SHA256
         30:45:02:21:00:96:ff:7e:02:c2:44:6e:52:1d:23:48:bd:94:
         e7:43:16:79:27:91:9d:53:42:af:e9:b5:ab:e9:78:6f:4e:d5:
         1e:02:20:51:4c:d9:46:42:6d:dc:74:a9:5c:44:9e:f9:62:c2:
         24:c7:1f:63:ab:67:4e:1b:bb:93:ef:24:d9:fe:aa:d7:0d
-----BEGIN CERTIFICATE-----
MIIBHTCBxKADAgECAgEBMAoGCCqGSM49BAMCMAAwHhcNMjEwMjEzMjAzMzU1WhcN
MjEwMjEzMjAzMzU1WjAAMFkwEwYHKoZIzj0CAQYIKoZIzj0DAQcDQgAEdfcdVkwN
P7G0ljthRgSs2k39DPHSLZZOKvh8OvVlCNzwREvx8ezQ/sUz4zpK0kYmTmbP4Cvc
Jo7ml/7i/JPelaMvMC0wKwYDVR0eBCQwIqEgMA6CDHRoaXMuaXMuZmluZTAOggwu
dGhpcy5pcy5ub3QwCgYIKoZIzj0EAwIDSAAwRQIhAJb/fgLCRG5SHSNIvZTnQxZ5
J5GdU0Kv6bWr6XhvTtUeAiBRTNlGQm3cdKlcRJ75YsIkxx9jq2dOG7uT7yTZ/qrX
DQ==
-----END CERTIFICATE-----
