Certificate:
    Data:
        Version: 3 (0x2)
        Serial Number: 3 (0x3)
        Signature Algorithm: ecdsa-with-SHA256
        Issuer: 
        Validity
            Not Before: Dec 10 00:00:00 2018 GMT
            Not After : Jan 10 00:00:00 2019 GMT
        Subject: 
        Subject Public Key Info:
            Public Key Algorithm: id-ecPublicKey
                Public-Key: (256 bit)
                pub:
                    04:60:1e:5b:1d:9d:18:b4:6f:85:97:c8:02:18:7e:
                    4b:ba:f4:24:9f:e2:34:e4:85:1c:17:b2:e1:e5:be:
                    cc:56:b9:84:e7:f8:88:21:5d:e1:ba:59:7d:7e:6b:
                    0e:cb:ec:f7:0c:e7:73:cb:6c:27:79:71:2c:4b:ba:
                    1b:3e:a9:12:a5
                ASN1 OID: prime256v1
                NIST CURVE: P-256
        X509v3 extensions:
            X509v3 Subject Alternative Name: 
                DNS:with.an_underscore.test
    Signature Algorithm: ecdsa-with-SHA256
         30:45:02:20:32:84:d7:38:0d:28:2c:fe:9e:6e:40:64:27:05:
         42:64:e7:c8:de:ba:91:cc:ce:f9:9c:34:77:55:a5:58:4f:38:
         02:21:00:fd:a3:73:bb:b0:45:b3:b3:85:61:db:ad:85:af:6c:
         a1:69:ed:0c:9e:bb:ec:a8:41:14:db:c3:73:4c:1c:40:ef
-----BEGIN CERTIFICATE-----
MIIBFDCBu6ADAgECAgEDMAoGCCqGSM49BAMCMAAwHhcNMTgxMjEwMDAwMDAwWhcN
MTkwMTEwMDAwMDAwWjAAMFkwEwYHKoZIzj0CAQYIKoZIzj0DAQcDQgAEYB5bHZ0Y
tG+Fl8gCGH5LuvQkn+I05IUcF7Lh5b7MVrmE5/iIIV3hull9fmsOy+z3DOdzy2wn
eXEsS7obPqkSpaMmMCQwIgYDVR0RBBswGYIXd2l0aC5hbl91bmRlcnNjb3JlLnRl
c3QwCgYIKoZIzj0EAwIDSAAwRQIgMoTXOA0oLP6ebkBkJwVCZOfI3rqRzM75nDR3
VaVYTzgCIQD9o3O7sEWzs4Vh262Fr2yhae0MnrvsqEEU28NzTBxA7w==
-----END CERTIFICATE-----
