Certificate:
    Data:
        Version: 3 (0x2)
        Serial Number:
            78:a9:8c:5d:a5:fd:28:95:fa:61:28:08:69:87:76:f5:b1:9e:67:fd
        Signature Algorithm: sha256WithRSAEncryption
        Issuer: CN = Bar
        Validity
            Not Before: Oct  1 00:00:00 2021 GMT
            Not After : Oct  1 00:00:00 2022 GMT
        Subject: CN = Foo
        Subject Public Key Info:
            Public Key Algorithm: rsaEncryption
                RSA Public-Key: (512 bit)
                Modulus:
                    00:e8:a0:a2:22:4e:8d:a1:62:63:ca:d2:4e:c8:10:
                    97:97:d7:ad:c5:cc:27:f7:fd:5c:78:fc:dc:87:b1:
                    cf:b7:15:44:4a:1b:42:5b:7d:08:93:54:80:7a:bf:
                    af:d1:cd:4a:9a:9b:ad:f5:36:9e:5f:69:20:98:d1:
                    9a:7e:9c:67:73
                Exponent: 65537 (0x10001)
        X509v3 extensions:
            X509v3 Subject Alternative Name: 
                DNS:xr--rahrah
    Signature Algorithm: sha256WithRSAEncryption
         2c:e5:0b:6e:d7:51:ff:f2:07:6a:4f:91:0e:8d:8c:84:6f:ea:
         ba:11:85:b0:f2:1a:18:92:90:a0:93:d5:dd:70:3b:50:7a:47:
         9b:2e:d1:2c:4a:c3:34:63:fa:33:c7:f1:76:2c:95:23:91:5d:
         c4:45:ea:db:54:07:6e:0c:cb:18
-----BEGIN CERTIFICATE-----
MIIBODCB46ADAgECAhR4qYxdpf0olfphKAhph3b1sZ5n/TANBgkqhkiG9w0BAQsF
ADAOMQwwCgYDVQQDDANCYXIwHhcNMjExMDAxMDAwMDAwWhcNMjIxMDAxMDAwMDAw
WjAOMQwwCgYDVQQDDANGb28wXDANBgkqhkiG9w0BAQEFAANLADBIAkEA6KCiIk6N
oWJjytJOyBCXl9etxcwn9/1cePzch7HPtxVEShtCW30Ik1SAer+v0c1Kmput9Tae
X2kgmNGafpxncwIDAQABoxkwFzAVBgNVHREEDjAMggp4ci0tcmFocmFoMA0GCSqG
SIb3DQEBCwUAA0EALOULbtdR//IHak+RDo2MhG/quhGFsPIaGJKQoJPV3XA7UHpH
my7RLErDNGP6M8fxdiyVI5FdxEXq21QHbgzLGA==
-----END CERTIFICATE-----
