Certificate:
    Data:
        Version: 3 (0x2)
        Serial Number:
            7f:a1:69:63:e2:48:b9:47:27:93:d7:e0:93:4f:e6:4d:1b:13:27:ee
        Signature Algorithm: sha256WithRSAEncryption
        Issuer: C = US, O = HydrantID (Avalanche Cloud Corporation), CN = HydrantID EV SSL CA G2
        Validity
            Not Before: Oct 25 15:47:04 2021 GMT
            Not After : Oct 25 15:56:00 2022 GMT
        Subject: jurisdictionC = US, jurisdictionST = Delaware, businessCategory = Private Organization, serialNumber = 2122896, C = US, ST = California, L = San Jose, O = "Cadence Design Systems, Inc.", CN = it-support-wcc.cadence.com
        Subject Public Key Info:
            Public Key Algorithm: rsaEncryption
                RSA Public-Key: (2048 bit)
                Modulus:
                    00:e0:ec:d1:c1:91:2a:77:33:53:61:b3:15:e3:96:
                    01:3d:f7:50:e9:82:86:88:8b:e5:b3:07:75:ad:c6:
                    e4:1b:48:09:85:cc:56:9f:e3:31:09:a0:b3:2a:10:
                    27:e1:5a:1d:4c:45:94:81:31:c6:d1:e4:2c:8c:00:
                    90:1d:92:d4:8d:f2:fc:5c:d3:85:f6:a8:b4:2d:4f:
                    fd:73:1e:90:e6:b5:97:d7:28:27:49:c4:b5:08:9b:
                    2e:f3:5d:a3:95:0b:f1:0a:f2:01:94:f1:69:93:a1:
                    ca:72:ec:d7:e7:6c:7d:cb:1a:51:73:75:64:ad:f8:
                    84:32:fc:14:ca:96:27:d2:a7:58:91:fb:74:e5:33:
                    5c:eb:44:c0:a3:0d:ac:98:3f:50:22:94:a6:b6:b2:
                    c9:48:fc:d2:f9:14:64:06:dd:fa:2b:5e:1c:78:d7:
                    6c:3d:b2:01:25:88:d4:65:ce:41:41:ba:9d:bd:f3:
                    e3:9e:41:8e:de:8d:31:22:28:15:7b:24:b1:b4:f3:
                    51:89:37:0b:f2:27:8f:84:ca:a8:92:12:30:08:a3:
                    5e:a3:a5:18:31:1c:12:d8:d0:1b:b8:57:69:e0:4f:
                    f8:7c:90:df:fa:f7:f4:da:a6:87:77:5f:e5:8f:53:
                    31:5a:b0:91:8f:8f:88:50:af:0a:d8:bb:87:e0:d0:
                    4a:9b
                Exponent: 65537 (0x10001)
        X509v3 extensions:
            X509v3 Basic Constraints: critical
                CA:FALSE
            X509v3 Authority Key Identifier: 
                keyid:B6:85:85:5F:20:7C:0F:C1:52:71:A2:84:F5:AE:83:B0:15:E0:D0:42

            Authority Information Access: 
                CA Issuers - URI:http://trust.quovadisglobal.com/hydrantidevsslcag2.crt
                OCSP - URI:http://ocsp.quovadisglobal.com

            X509v3 Subject Alternative Name: 
                DNS:it-support-wcc.cadence.com, DNS:hr-support-wcc.cadence.com, DNS:wr-support-wcc.cadence.com, DNS:it-support-.cadence.com, DNS:hr-support-.cadence.com, DNS:wr-support-.cadence.com, DNS:wcjsdappprdl01.cadence.com, DNS:wcjsdappprdl02.cadence.com
            X509v3 Certificate Policies: 
                Policy: 1.3.6.1.4.1.8024.0.2.100.1.2
                Policy: 1.3.6.1.4.1.8024.0.3.900.0
                  CPS: http://www.hydrantid.com/support/repository
                Policy: 2.23.140.1.1

            X509v3 Extended Key Usage: 
                TLS Web Client Authentication, TLS Web Server Authentication
            X509v3 CRL Distribution Points: 

                Full Name:
                  URI:http://crl.quovadisglobal.com/hydrantidevsslcag2.crl

            X509v3 Subject Key Identifier: 
                E2:05:62:BE:69:A7:77:B5:A0:14:1F:9D:0E:E0:3C:4F:70:03:7C:E3
            X509v3 Key Usage: critical
                Digital Signature, Key Encipherment
            CT Precertificate Poison: critical
                NULL
    Signature Algorithm: sha256WithRSAEncryption
         50:81:38:1a:9f:85:b2:a1:85:e8:00:8b:85:49:c1:8c:89:c1:
         ff:41:60:60:4c:bd:1f:c6:89:92:61:38:f6:a7:aa:a6:07:ec:
         67:1a:71:67:04:67:ba:85:a1:a0:d8:23:c2:8c:af:77:04:81:
         aa:70:f6:e1:5e:0d:95:d1:5f:ce:7e:71:41:ab:a8:f7:d2:1b:
         5f:57:29:2e:06:4e:8e:4c:a5:60:47:98:a6:7f:50:6b:3e:3d:
         76:06:d2:7f:84:aa:e2:de:4f:92:f1:f5:ea:51:0d:7c:3a:71:
         9c:83:84:6e:9b:a3:da:9e:74:f8:da:3a:ff:7c:7a:56:bf:d6:
         15:0e:51:5c:ba:6f:09:6a:8b:a1:ea:9d:af:57:2a:4c:a2:e0:
         4d:29:a8:1b:5c:2f:03:e9:8e:d3:c6:65:0a:02:12:a2:49:a0:
         c3:7c:37:b4:7d:2b:ca:12:59:88:f4:00:38:40:8c:43:29:1a:
         23:a9:1b:c0:ca:66:e1:a5:f8:51:62:c8:0a:12:8b:8e:56:9d:
         83:10:b4:00:35:20:59:f7:31:a0:c7:ac:e4:79:4e:75:8c:e8:
         d2:64:cf:5b:cb:a5:4e:ba:98:50:76:54:d7:98:11:c8:b9:15:
         7b:7f:97:7f:b5:2b:cd:7a:1e:66:bc:6e:67:48:29:17:55:e4:
         9b:76:ec:28:7c:fb:c9:96:0b:19:c9:e2:e1:85:26:f3:dd:b4:
         35:2c:06:04:b4:44:40:8e:d8:a3:f9:3b:4e:12:3b:eb:95:43:
         20:d3:1c:b3:77:6b:7a:cb:fe:cb:06:0a:54:13:57:13:36:fb:
         d2:38:73:5f:e3:f2:d7:42:f9:99:bd:44:5b:8a:c0:87:9d:79:
         94:76:2e:3e:37:55:72:b6:91:b1:b5:15:02:d9:96:4a:1f:69:
         ff:a2:b7:a6:88:2e:a2:1f:5a:55:35:72:e9:85:6d:c5:9b:a8:
         0b:fb:41:67:3a:d5:95:4b:d8:e7:0f:21:70:8d:22:c1:82:63:
         db:11:ab:e7:da:b1:e3:c2:aa:28:7e:88:d6:97:6f:a7:f4:25:
         d6:a0:54:8a:47:d5:69:e1:b9:09:0e:ca:77:88:08:22:9c:a6:
         1d:cb:2b:ec:bc:09:c3:ff:ab:67:61:f3:67:a5:a4:18:35:a4:
         38:f2:58:85:c0:13:6c:2f:b1:1d:23:ea:14:61:e1:02:6f:f2:
         11:ae:fc:9b:d0:55:43:ae:07:7b:24:3e:d3:be:24:ae:cc:65:
         20:55:fe:cf:45:c9:00:4c:d7:7c:db:cb:b1:dc:8c:38:7a:76:
         46:11:2f:e4:eb:1c:3e:fb:da:da:1b:a9:05:aa:81:05:69:cc:
         13:8d:fa:ea:c6:50:c1:93
-----BEGIN CERTIFICATE-----
MIIHhDCCBWygAwIBAgIUf6FpY+JIuUcnk9fgk0/mTRsTJ+4wDQYJKoZIhvcNAQEL
BQAwYDELMAkGA1UEBhMCVVMxMDAuBgNVBAoMJ0h5ZHJhbnRJRCAoQXZhbGFuY2hl
IENsb3VkIENvcnBvcmF0aW9uKTEfMB0GA1UEAwwWSHlkcmFudElEIEVWIFNTTCBD
QSBHMjAeFw0yMTEwMjUxNTQ3MDRaFw0yMjEwMjUxNTU2MDBaMIHiMRMwEQYLKwYB
BAGCNzwCAQMTAlVTMRkwFwYLKwYBBAGCNzwCAQIMCERlbGF3YXJlMR0wGwYDVQQP
DBRQcml2YXRlIE9yZ2FuaXphdGlvbjEQMA4GA1UEBRMHMjEyMjg5NjELMAkGA1UE
BhMCVVMxEzARBgNVBAgMCkNhbGlmb3JuaWExETAPBgNVBAcMCFNhbiBKb3NlMSUw
IwYDVQQKDBxDYWRlbmNlIERlc2lnbiBTeXN0ZW1zLCBJbmMuMSMwIQYDVQQDDBpp
dC1zdXBwb3J0LXdjYy5jYWRlbmNlLmNvbTCCASIwDQYJKoZIhvcNAQEBBQADggEP
ADCCAQoCggEBAODs0cGRKnczU2GzFeOWAT33UOmChoiL5bMHda3G5BtICYXMVp/j
MQmgsyoQJ+FaHUxFlIExxtHkLIwAkB2S1I3y/FzThfaotC1P/XMekOa1l9coJ0nE
tQibLvNdo5UL8QryAZTxaZOhynLs1+dsfcsaUXN1ZK34hDL8FMqWJ9KnWJH7dOUz
XOtEwKMNrJg/UCKUprayyUj80vkUZAbd+iteHHjXbD2yASWI1GXOQUG6nb3z455B
jt6NMSIoFXsksbTzUYk3C/Inj4TKqJISMAijXqOlGDEcEtjQG7hXaeBP+HyQ3/r3
9Nqmh3df5Y9TMVqwkY+PiFCvCti7h+DQSpsCAwEAAaOCArEwggKtMAwGA1UdEwEB
/wQCMAAwHwYDVR0jBBgwFoAUtoWFXyB8D8FScaKE9a6DsBXg0EIwfgYIKwYBBQUH
AQEEcjBwMEIGCCsGAQUFBzAChjZodHRwOi8vdHJ1c3QucXVvdmFkaXNnbG9iYWwu
Y29tL2h5ZHJhbnRpZGV2c3NsY2FnMi5jcnQwKgYIKwYBBQUHMAGGHmh0dHA6Ly9v
Y3NwLnF1b3ZhZGlzZ2xvYmFsLmNvbTCB4gYDVR0RBIHaMIHXghppdC1zdXBwb3J0
LXdjYy5jYWRlbmNlLmNvbYIaaHItc3VwcG9ydC13Y2MuY2FkZW5jZS5jb22CGndy
LXN1cHBvcnQtd2NjLmNhZGVuY2UuY29tghdpdC1zdXBwb3J0LS5jYWRlbmNlLmNv
bYIXaHItc3VwcG9ydC0uY2FkZW5jZS5jb22CF3dyLXN1cHBvcnQtLmNhZGVuY2Uu
Y29tghp3Y2pzZGFwcHByZGwwMS5jYWRlbmNlLmNvbYIad2Nqc2RhcHBwcmRsMDIu
Y2FkZW5jZS5jb20wbQYDVR0gBGYwZDAOBgwrBgEEAb5YAAJkAQIwSQYMKwYBBAG+
WAADhwQAMDkwNwYIKwYBBQUHAgEWK2h0dHA6Ly93d3cuaHlkcmFudGlkLmNvbS9z
dXBwb3J0L3JlcG9zaXRvcnkwBwYFZ4EMAQEwHQYDVR0lBBYwFAYIKwYBBQUHAwIG
CCsGAQUFBwMBMEUGA1UdHwQ+MDwwOqA4oDaGNGh0dHA6Ly9jcmwucXVvdmFkaXNn
bG9iYWwuY29tL2h5ZHJhbnRpZGV2c3NsY2FnMi5jcmwwHQYDVR0OBBYEFOIFYr5p
p3e1oBQfnQ7gPE9wA3zjMA4GA1UdDwEB/wQEAwIFoDATBgorBgEEAdZ5AgQDAQH/
BAIFADANBgkqhkiG9w0BAQsFAAOCAgEAUIE4Gp+FsqGF6ACLhUnBjInB/0FgYEy9
H8aJkmE49qeqpgfsZxpxZwRnuoWhoNgjwoyvdwSBqnD24V4NldFfzn5xQauo99Ib
X1cpLgZOjkylYEeYpn9Qaz49dgbSf4Sq4t5PkvH16lENfDpxnIOEbpuj2p50+No6
/3x6Vr/WFQ5RXLpvCWqLoeqdr1cqTKLgTSmoG1wvA+mO08ZlCgISokmgw3w3tH0r
yhJZiPQAOECMQykaI6kbwMpm4aX4UWLIChKLjladgxC0ADUgWfcxoMes5HlOdYzo
0mTPW8ulTrqYUHZU15gRyLkVe3+Xf7UrzXoeZrxuZ0gpF1Xkm3bsKHz7yZYLGcni
4YUm8920NSwGBLREQI7Yo/k7ThI765VDINMcs3dresv+ywYKVBNXEzb70jhzX+Py
10L5mb1EW4rAh515lHYuPjdVcraRsbUVAtmWSh9p/6K3poguoh9aVTVy6YVtxZuo
C/tBZzrVlUvY5w8hcI0iwYJj2xGr59qx48KqKH6I1pdvp/Ql1qBUikfVaeG5CQ7K
d4gIIpymHcsr7LwJw/+rZ2HzZ6WkGDWkOPJYhcATbC+xHSPqFGHhAm/yEa78m9BV
Q64HeyQ+074krsxlIFX+z0XJAEzXfNvLsdyMOHp2RhEv5OscPvva2hupBaqBBWnM
E4366sZQwZM=
-----END CERTIFICATE-----
