Certificate:
    Data:
        Version: 3 (0x2)
        Serial Number: 1 (0x1)
        Signature Algorithm: ecdsa-with-SHA256
        Issuer:
        Validity
            Not Before: Feb 13 20:39:18 2021 GMT
            Not After : Feb 13 20:39:18 2021 GMT
        Subject:
        Subject Public Key Info:
            Public Key Algorithm: id-ecPublicKey
                Public-Key: (256 bit)
                pub:
                    04:7d:60:e9:92:be:7e:32:2a:af:69:5f:2b:d2:ce:
                    70:29:88:35:40:dd:ad:67:5e:bf:be:66:67:b2:f7:
                    14:eb:76:87:28:a6:5e:1b:7f:50:c9:a1:b2:6d:83:
                    05:ca:bf:47:4d:62:0f:1a:f6:39:5e:69:e2:9d:7e:
                    29:7c:64:6b:bb
                ASN1 OID: prime256v1
                NIST CURVE: P-256
        X509v3 extensions:
            X509v3 Name Constraints:
                Permitted:
                  DNS:good.job
                Excluded:
                  DNS:nice.work

    Signature Algorithm: ecdsa-with-SHA256
         30:44:02:20:71:63:bb:3c:1b:52:09:92:b1:f7:2e:ea:80:6c:
         6f:9a:8a:a3:18:a8:a4:8e:75:25:3a:07:6e:8b:31:04:89:af:
         02:20:6a:4a:d7:9e:10:52:61:d2:fb:2d:0f:c5:b0:63:a4:8f:
         d3:08:95:d3:98:71:9c:26:86:b7:fc:1f:9b:85:48:31
-----BEGIN CERTIFICATE-----
MIIBFzCBv6ADAgECAgEBMAoGCCqGSM49BAMCMAAwHhcNMjEwMjEzMjAzOTE4WhcN
MjEwMjEzMjAzOTE4WjAAMFkwEwYHKoZIzj0CAQYIKoZIzj0DAQcDQgAEfWDpkr5+
MiqvaV8r0s5wKYg1QN2tZ16/vmZnsvcU63aHKKZeG39QyaGybYMFyr9HTWIPGvY5
XmninX4pfGRru6MqMCgwJgYDVR0eBB8wHaAMMAqCCGdvb2Quam9ioQ0wC4IJbmlj
ZS53b3JrMAoGCCqGSM49BAMCA0cAMEQCIHFjuzwbUgmSsfcu6oBsb5qKoxiopI51
JToHbosxBImvAiBqSteeEFJh0vstD8WwY6SP0wiV05hxnCaGt/wfm4VIMQ==
-----END CERTIFICATE-----
