Certificate:
    Data:
        Version: 3 (0x2)
        Serial Number:
            01:1d:ea:90:ba:12:cd:e9:c8:fc:2a:e0:6d:39:69:6c
        Signature Algorithm: sha256WithRSAEncryption
        Issuer: C = US, O = DigiCert Inc, CN = DigiCert SHA2 Secure Server CA
        Validity
            Not Before: Feb 24 00:00:00 2021 GMT
            Not After : Feb 23 23:59:59 2022 GMT
        Subject: C = US, ST = Washington, L = Redmond, O = Microsoft Corporation, CN = cd1629a29afb.database.azure.com
        Subject Public Key Info:
            Public Key Algorithm: rsaEncryption
                RSA Public-Key: (2048 bit)
                Modulus:
                    00:c3:78:57:93:3a:eb:08:b8:74:8d:fa:d9:16:83:
                    09:09:a4:0b:04:0b:43:51:de:0d:96:75:7a:a6:a2:
                    fc:67:6b:6c:59:c1:01:28:a2:9a:ce:f0:47:51:94:
                    99:b6:15:d4:6a:b6:ac:8b:47:c0:9b:6c:f4:28:7c:
                    c9:1b:95:d4:1f:9d:de:c1:bf:38:68:a6:19:43:22:
                    50:17:c9:f6:ef:f8:43:7b:fe:7f:da:3e:16:aa:2b:
                    ac:2e:5a:e2:db:c7:2d:a8:c8:bd:06:cc:08:17:1c:
                    a5:34:01:bd:45:92:d5:bd:0f:c4:f5:31:b1:2b:c1:
                    ad:c4:12:41:ce:13:81:57:35:1f:99:16:e8:72:b7:
                    96:c2:52:9f:9f:a2:b1:db:26:61:25:a0:7a:4a:05:
                    74:32:79:a1:cb:a6:e3:08:f3:0e:b5:bb:88:e9:5b:
                    ea:82:b6:f3:24:b7:41:09:9f:4b:94:a5:10:d7:18:
                    0d:37:0a:ee:ed:68:3c:07:64:d6:51:88:a9:ed:31:
                    f3:8e:e6:6c:8d:a5:f1:77:16:95:bc:de:bc:a3:0a:
                    ae:de:85:19:f9:72:e1:fe:f8:26:af:5b:bb:68:1d:
                    5d:d9:de:df:7a:f5:1a:b7:15:6c:c8:dc:1c:61:11:
                    90:fd:54:da:51:d7:cb:17:30:10:8a:d3:46:15:ee:
                    39:19
                Exponent: 65537 (0x10001)
        X509v3 extensions:
            X509v3 Authority Key Identifier: 
                keyid:0F:80:61:1C:82:31:61:D5:2F:28:E7:8D:46:38:B4:2C:E1:C6:D9:E2

            X509v3 Subject Key Identifier: 
                39:3C:CF:A6:ED:D6:66:0D:09:43:43:F5:4C:2C:1D:C0:02:13:21:95
            X509v3 Subject Alternative Name: 
                DNS:cd1629a29afb.database.azure.com, DNS:azuredbclitest-pipe0224-postgresflexibleserverhighavailabilitym.postgres.database.azure.com
            X509v3 Key Usage: critical
                Digital Signature, Key Encipherment
            X509v3 Extended Key Usage: 
                TLS Web Server Authentication, TLS Web Client Authentication
            X509v3 CRL Distribution Points: 

                Full Name:
                  URI:http://crl3.digicert.com/DigiCertSHA2SecureServerCA.crl

                Full Name:
                  URI:http://crl4.digicert.com/DigiCertSHA2SecureServerCA.crl

            X509v3 Certificate Policies: 
                Policy: 2.23.140.1.2.2
                  CPS: http://www.digicert.com/CPS

            Authority Information Access: 
                OCSP - URI:http://ocsp.digicert.com
                CA Issuers - URI:http://cacerts.digicert.com/DigiCertSHA2SecureServerCA-2.crt

            X509v3 Basic Constraints: critical
                CA:FALSE
            CT Precertificate Poison: critical
                NULL
    Signature Algorithm: sha256WithRSAEncryption
         23:32:ac:d9:70:c4:dc:d4:6a:ee:77:9b:59:db:0b:a7:39:aa:
         93:a9:80:cc:3b:0a:c2:32:a4:1c:a1:9c:f2:a6:eb:27:da:03:
         0d:84:bf:73:95:d2:df:59:f3:5b:99:96:2a:9a:a8:d3:37:2f:
         cc:94:ce:a0:69:5a:32:f3:1d:5b:97:99:bf:c0:37:21:d5:3c:
         3e:4f:91:32:5f:35:a4:aa:d2:13:21:40:8a:89:5a:b7:a7:a5:
         12:c3:f2:4b:75:46:e8:27:f1:ae:cd:b2:d3:79:95:a1:2b:ac:
         68:3d:ee:f6:bb:4d:3b:65:22:f6:9c:6d:79:1b:2f:bc:34:51:
         6a:74:bb:50:ec:52:f0:ed:59:63:2e:c6:c7:7e:17:a0:f9:0e:
         13:27:02:85:94:b8:1b:6e:86:d3:3c:f4:de:2b:7e:c3:93:54:
         3c:fe:c5:fa:6b:f8:87:03:cb:51:21:e1:c8:14:4a:cb:f6:e6:
         eb:80:91:a6:d1:67:9b:48:cc:0f:91:81:4d:c1:eb:c1:89:56:
         36:57:00:98:4d:a9:83:d5:be:90:5c:4d:5d:01:f1:97:3c:6f:
         08:f2:8b:f4:a4:83:22:db:bc:0c:4f:84:b5:3f:61:11:d8:9d:
         7a:e7:2a:55:8d:ca:ee:82:57:2f:0e:ce:bf:6d:d3:cc:2a:26:
         46:5e:cc:e4
-----BEGIN CERTIFICATE-----
MIIFwzCCBKugAwIBAgIQAR3qkLoSzenI/CrgbTlpbDANBgkqhkiG9w0BAQsFADBN
MQswCQYDVQQGEwJVUzEVMBMGA1UEChMMRGlnaUNlcnQgSW5jMScwJQYDVQQDEx5E
aWdpQ2VydCBTSEEyIFNlY3VyZSBTZXJ2ZXIgQ0EwHhcNMjEwMjI0MDAwMDAwWhcN
MjIwMjIzMjM1OTU5WjB+MQswCQYDVQQGEwJVUzETMBEGA1UECBMKV2FzaGluZ3Rv
bjEQMA4GA1UEBxMHUmVkbW9uZDEeMBwGA1UEChMVTWljcm9zb2Z0IENvcnBvcmF0
aW9uMSgwJgYDVQQDEx9jZDE2MjlhMjlhZmIuZGF0YWJhc2UuYXp1cmUuY29tMIIB
IjANBgkqhkiG9w0BAQEFAAOCAQ8AMIIBCgKCAQEAw3hXkzrrCLh0jfrZFoMJCaQL
BAtDUd4NlnV6pqL8Z2tsWcEBKKKazvBHUZSZthXUarasi0fAm2z0KHzJG5XUH53e
wb84aKYZQyJQF8n27/hDe/5/2j4WqiusLlri28ctqMi9BswIFxylNAG9RZLVvQ/E
9TGxK8GtxBJBzhOBVzUfmRbocreWwlKfn6Kx2yZhJaB6SgV0Mnmhy6bjCPMOtbuI
6VvqgrbzJLdBCZ9LlKUQ1xgNNwru7Wg8B2TWUYip7THzjuZsjaXxdxaVvN68owqu
3oUZ+XLh/vgmr1u7aB1d2d7fevUatxVsyNwcYRGQ/VTaUdfLFzAQitNGFe45GQID
AQABo4ICbDCCAmgwHwYDVR0jBBgwFoAUD4BhHIIxYdUvKOeNRji0LOHG2eIwHQYD
VR0OBBYEFDk8z6bt1mYNCUND9UwsHcACEyGVMIGIBgNVHREEgYAwfoIfY2QxNjI5
YTI5YWZiLmRhdGFiYXNlLmF6dXJlLmNvbYJbYXp1cmVkYmNsaXRlc3QtcGlwZTAy
MjQtcG9zdGdyZXNmbGV4aWJsZXNlcnZlcmhpZ2hhdmFpbGFiaWxpdHltLnBvc3Rn
cmVzLmRhdGFiYXNlLmF6dXJlLmNvbTAOBgNVHQ8BAf8EBAMCBaAwHQYDVR0lBBYw
FAYIKwYBBQUHAwEGCCsGAQUFBwMCMIGIBgNVHR8EgYAwfjA9oDugOYY3aHR0cDov
L2NybDMuZGlnaWNlcnQuY29tL0RpZ2lDZXJ0U0hBMlNlY3VyZVNlcnZlckNBLmNy
bDA9oDugOYY3aHR0cDovL2NybDQuZGlnaWNlcnQuY29tL0RpZ2lDZXJ0U0hBMlNl
Y3VyZVNlcnZlckNBLmNybDA+BgNVHSAENzA1MDMGBmeBDAECAjApMCcGCCsGAQUF
BwIBFhtodHRwOi8vd3d3LmRpZ2ljZXJ0LmNvbS9DUFMwfgYIKwYBBQUHAQEEcjBw
MCQGCCsGAQUFBzABhhhodHRwOi8vb2NzcC5kaWdpY2VydC5jb20wSAYIKwYBBQUH
MAKGPGh0dHA6Ly9jYWNlcnRzLmRpZ2ljZXJ0LmNvbS9EaWdpQ2VydFNIQTJTZWN1
cmVTZXJ2ZXJDQS0yLmNydDAMBgNVHRMBAf8EAjAAMBMGCisGAQQB1nkCBAMBAf8E
AgUAMA0GCSqGSIb3DQEBCwUAA4IBAQAjMqzZcMTc1Grud5tZ2wunOaqTqYDMOwrC
MqQcoZzypusn2gMNhL9zldLfWfNbmZYqmqjTNy/MlM6gaVoy8x1bl5m/wDch1Tw+
T5EyXzWkqtITIUCKiVq3p6USw/JLdUboJ/GuzbLTeZWhK6xoPe72u007ZSL2nG15
Gy+8NFFqdLtQ7FLw7VljLsbHfheg+Q4TJwKFlLgbbobTPPTeK37Dk1Q8/sX6a/iH
A8tRIeHIFErL9ubrgJGm0WebSMwPkYFNwevBiVY2VwCYTamD1b6QXE1dAfGXPG8I
8ov0pIMi27wMT4S1P2ER2J165ypVjcruglcvDs6/bdPMKiZGXszk
-----END CERTIFICATE-----
