Certificate:
    Data:
        Version: 3 (0x2)
        Serial Number: 1 (0x1)
    Signature Algorithm: sha256WithRSAEncryption
        Issuer: CN=Mother Nature, OU=Everything, O=Mother Nature/postalCode=postalcode, C=US, GN=givenname, SN=surname
        Validity
            Not Before: Aug 28 16:00:14 2017 GMT
            Not After : Nov  9 17:00:14 2017 GMT
        Subject: CN=gov.us, OU=Chaos, O=org/street=3210 Holly Mill Run, ST=province/postalCode=30062, GN=hello, SN=surname
        Subject Public Key Info:
            Public Key Algorithm: rsaEncryption
                Public-Key: (2048 bit)
                Modulus:
                    00:f3:2d:bc:ff:1f:c8:10:dc:f9:99:12:b8:ee:6a:
                    eb:1a:19:d9:2b:2f:3d:61:8d:b2:cc:1a:da:88:18:
                    8a:aa:6b:1b:9c:0d:5a:6f:6b:94:38:57:8a:97:5a:
                    87:77:9a:62:f9:10:ed:9f:c1:b4:2b:62:b1:a8:5f:
                    d3:e2:58:e3:6f:fb:37:82:fe:8d:53:72:ca:87:85:
                    18:81:b4:6e:48:19:f4:28:b5:be:7e:f5:57:a1:3e:
                    60:63:21:25:38:f7:52:95:06:32:6d:9b:02:4f:3a:
                    f9:a2:e8:45:19:65:a8:59:cf:2a:71:be:b4:d0:f5:
                    3e:59:d5:cb:a7:9b:a2:c0:3a:27:ae:e3:b8:4e:52:
                    c0:e6:0b:2f:26:8f:ec:5a:ec:30:8d:4f:1f:10:d7:
                    5d:7f:65:51:c5:97:72:ae:2a:9c:db:16:62:a1:74:
                    62:aa:a9:8f:c5:a4:57:30:94:56:4b:f6:10:fd:a4:
                    e3:83:6f:f2:cd:38:72:41:6c:c5:b5:f0:33:89:1c:
                    ef:79:f9:1c:90:94:85:45:8e:a9:12:61:bb:2a:46:
                    54:7c:60:ae:61:99:e9:cc:2a:1c:53:cc:e2:b7:fb:
                    0e:5a:fe:38:57:3a:72:a4:c3:ab:bf:0d:e2:eb:02:
                    03:22:94:c0:7c:4e:bd:58:c9:28:2d:68:e0:ef:ba:
                    a9:33
                Exponent: 65537 (0x10001)
        X509v3 extensions:
            X509v3 Key Usage: critical
                Digital Signature, Key Encipherment
            X509v3 Extended Key Usage: 
                TLS Web Client Authentication, TLS Web Server Authentication
            X509v3 Basic Constraints: critical
                CA:FALSE
            X509v3 Authority Key Identifier: 
                keyid:01:02:03

            Authority Information Access: 
                OCSP - URI:http://theca.net/ocsp
                CA Issuers - URI:http://theca.net/totallythecert.crt

            X509v3 Subject Alternative Name: 
                DNS:.co.uk
            X509v3 Certificate Policies: 
                Policy: X509v3 Any Policy

    Signature Algorithm: sha256WithRSAEncryption
         11:b0:1e:f9:48:54:96:35:f1:5a:2a:6a:35:6a:a2:f0:b4:80:
         e8:c4:f2:65:a9:81:b3:8b:af:9b:97:f5:86:b9:15:dd:45:9f:
         5d:e6:77:a6:b9:2e:b1:82:e9:b8:24:cb:10:63:23:21:fb:4a:
         f5:f3:00:98:aa:47:fd:46:3b:72:40:37:8f:e0:0d:f7:57:48:
         34:04:9a:80:d8:0f:33:14:f9:de:52:ce:00:48:a1:7d:d7:9e:
         57:c2:53:75:54:fe:56:88:18:13:3f:97:55:67:bb:49:bf:79:
         29:32:5b:d7:21:a2:b8:52:33:b9:31:04:b1:c5:11:17:e5:f2:
         06:ce:94:58:4f:9b:0d:49:5d:73:3f:6f:15:8d:f7:60:ee:46:
         fb:f9:a2:6c:e1:46:d6:a1:72:c3:cb:d7:ce:bf:00:e5:55:55:
         63:19:1d:23:2e:78:d9:1b:a3:02:32:8c:57:06:f6:fa:91:e1:
         a9:1b:3a:9f:9d:96:63:d4:aa:7c:27:d6:dc:3b:74:d5:43:a8:
         56:43:7f:a9:99:77:cb:d0:5c:30:64:fa:89:51:f2:c9:b8:7e:
         b1:f9:f7:df:33:65:bb:e3:bc:d0:ae:e0:d3:2a:b6:17:c9:a2:
         de:b1:4c:70:3d:0f:44:1a:a7:4a:6e:c3:c7:45:ce:94:d4:14:
         9d:fd:8e:d6
-----BEGIN CERTIFICATE-----
MIIEdzCCA2GgAwIBAgIBATALBgkqhkiG9w0BAQswgY8xFjAUBgNVBAMTDU1vdGhl
ciBOYXR1cmUxEzARBgNVBAsTCkV2ZXJ5dGhpbmcxFjAUBgNVBAoTDU1vdGhlciBO
YXR1cmUxEzARBgNVBBETCnBvc3RhbGNvZGUxCzAJBgNVBAYTAlVTMRIwEAYDVQQq
EwlnaXZlbm5hbWUxEDAOBgNVBAQTB3N1cm5hbWUxADAeFw0xNzA4MjgxNjAwMTRa
Fw0xNzExMDkxNzAwMTRaMIGUMQ8wDQYDVQQDEwZnb3YudXMxDjAMBgNVBAsTBUNo
YW9zMQwwCgYDVQQKEwNvcmcxHDAaBgNVBAkTEzMyMTAgSG9sbHkgTWlsbCBSdW4x
ETAPBgNVBAgTCHByb3ZpbmNlMQ4wDAYDVQQREwUzMDA2MjEOMAwGA1UEKhMFaGVs
bG8xEDAOBgNVBAQTB3N1cm5hbWUxADCCASIwDQYJKoZIhvcNAQEBBQADggEPADCC
AQoCggEBAPMtvP8fyBDc+ZkSuO5q6xoZ2SsvPWGNsswa2ogYiqprG5wNWm9rlDhX
ipdah3eaYvkQ7Z/BtCtisahf0+JY42/7N4L+jVNyyoeFGIG0bkgZ9Ci1vn71V6E+
YGMhJTj3UpUGMm2bAk86+aLoRRllqFnPKnG+tND1PlnVy6ebosA6J67juE5SwOYL
LyaP7FrsMI1PHxDXXX9lUcWXcq4qnNsWYqF0Yqqpj8WkVzCUVkv2EP2k44Nv8s04
ckFsxbXwM4kc73n5HJCUhUWOqRJhuypGVHxgrmGZ6cwqHFPM4rf7Dlr+OFc6cqTD
q78N4usCAyKUwHxOvVjJKC1o4O+6qTMCAwEAAaOB2jCB1zAOBgNVHQ8BAf8EBAMC
AKAwHQYDVR0lBBYwFAYIKwYBBQUHAwIGCCsGAQUFBwMBMAwGA1UdEwEB/wQCMAAw
DgYDVR0jBAcwBYADAQIDMGIGCCsGAQUFBwEBBFYwVDAhBggrBgEFBQcwAYYVaHR0
cDovL3RoZWNhLm5ldC9vY3NwMC8GCCsGAQUFBzAChiNodHRwOi8vdGhlY2EubmV0
L3RvdGFsbHl0aGVjZXJ0LmNydDARBgNVHREECjAIggYuY28udWswEQYDVR0gBAow
CDAGBgRVHSAAMAsGCSqGSIb3DQEBCwOCAQEAEbAe+UhUljXxWipqNWqi8LSA6MTy
ZamBs4uvm5f1hrkV3UWfXeZ3prkusYLpuCTLEGMjIftK9fMAmKpH/UY7ckA3j+AN
91dINASagNgPMxT53lLOAEihfdeeV8JTdVT+VogYEz+XVWe7Sb95KTJb1yGiuFIz
uTEEscURF+XyBs6UWE+bDUldcz9vFY33YO5G+/mibOFG1qFyw8vXzr8A5VVVYxkd
Iy542RujAjKMVwb2+pHhqRs6n52WY9SqfCfW3Dt01UOoVkN/qZl3y9BcMGT6iVHy
ybh+sfn33zNlu+O80K7g0yq2F8mi3rFMcD0PRBqnSm7Dx0XOlNQUnf2O1g==
-----END CERTIFICATE-----
