Certificate:
    Data:
        Version: 3 (0x2)
        Serial Number:
            69:e2:af:b9:e3:8e:e4:33:85:95:a8:d1:b6:49:88:c1:ad:97:76:d7
        Signature Algorithm: sha256WithRSAEncryption
        Issuer: CN = Bar
        Validity
            Not Before: Oct  1 00:00:00 2021 GMT
            Not After : Oct  1 00:00:00 2022 GMT
        Subject: CN = Foo
        Subject Public Key Info:
            Public Key Algorithm: rsaEncryption
                RSA Public-Key: (512 bit)
                Modulus:
                    00:b7:c7:06:78:11:e4:a0:41:3d:fb:c4:31:de:a6:
                    86:68:32:2b:08:04:e8:de:66:98:c5:6b:7f:13:ec:
                    84:68:3d:55:40:7c:4f:42:c0:21:96:81:c6:9e:f2:
                    0f:37:99:d5:37:5f:ba:9a:24:93:b1:8f:bf:01:e3:
                    3e:f9:81:6f:51
                Exponent: 65537 (0x10001)
        X509v3 extensions:
            X509v3 Subject Alternative Name: 
                DNS:foo.-bar.com
    Signature Algorithm: sha256WithRSAEncryption
         67:cf:58:2d:2f:66:86:e4:39:d8:b8:9f:3c:e5:f9:c3:8e:5d:
         b9:20:0d:a6:72:63:1e:e9:f4:c6:bc:51:d5:15:8e:5f:c3:cf:
         25:63:c6:22:92:f9:19:d6:a6:37:ce:99:67:c2:a6:a5:86:5b:
         4e:db:7b:ad:fc:64:31:2c:b2:b4
-----BEGIN CERTIFICATE-----
MIIBOjCB5aADAgECAhRp4q+5447kM4WVqNG2SYjBrZd21zANBgkqhkiG9w0BAQsF
ADAOMQwwCgYDVQQDDANCYXIwHhcNMjExMDAxMDAwMDAwWhcNMjIxMDAxMDAwMDAw
WjAOMQwwCgYDVQQDDANGb28wXDANBgkqhkiG9w0BAQEFAANLADBIAkEAt8cGeBHk
oEE9+8Qx3qaGaDIrCATo3maYxWt/E+yEaD1VQHxPQsAhloHGnvIPN5nVN1+6miST
sY+/AeM++YFvUQIDAQABoxswGTAXBgNVHREEEDAOggxmb28uLWJhci5jb20wDQYJ
KoZIhvcNAQELBQADQQBnz1gtL2aG5DnYuJ885fnDjl25IA2mcmMe6fTGvFHVFY5f
w88lY8YikvkZ1qY3zplnwqalhltO23ut/GQxLLK0
-----END CERTIFICATE-----
