Certificate:
    Data:
        Version: 3 (0x2)
        Serial Number: 1 (0x1)
    Signature Algorithm: sha256WithRSAEncryption
        Issuer: CN=Mother Nature, OU=Everything, O=Mother Nature/postalCode=postalcode, C=US, GN=givenname, SN=surname
        Validity
            Not Before: Aug 25 23:46:04 2017 GMT
            Not After : Nov  7 00:46:04 2017 GMT
        Subject: CN=gov.us, OU=Chaos, O=org/street=3210 Holly Mill Run, ST=province/postalCode=30062, GN=hello, SN=surname
        Subject Public Key Info:
            Public Key Algorithm: rsaEncryption
                Public-Key: (2048 bit)
                Modulus:
                    00:ca:ae:66:62:2d:c9:36:0e:05:17:aa:c1:ee:18:
                    ae:4c:60:43:a1:bd:ff:ca:32:11:6c:71:47:0b:00:
                    47:79:73:c6:ab:b4:7b:a4:d4:d5:fe:5f:67:64:fd:
                    c4:48:96:16:ab:55:09:f0:d3:53:0d:53:63:e2:84:
                    dc:34:ed:bb:68:22:62:22:96:cc:2c:7a:6a:97:d7:
                    4e:0b:d7:7d:ab:a8:b1:e1:ea:2a:d2:ef:d4:07:9a:
                    64:d3:4a:df:f5:ad:0c:28:fe:1f:a4:08:63:ce:96:
                    7a:cf:c9:4e:21:f8:fe:13:76:35:a9:95:3e:83:ac:
                    fe:1c:a7:dc:e7:55:23:ca:ae:a1:10:ec:de:71:90:
                    91:a1:bd:a8:0d:38:a6:69:27:cb:c8:5b:8b:da:27:
                    7b:d2:95:41:c6:43:8e:2e:c1:92:ed:c6:fe:c3:25:
                    da:5f:46:c0:a9:14:55:d8:11:8b:e1:38:97:7e:c4:
                    86:88:96:d4:85:08:62:18:6c:fa:fd:de:f6:66:df:
                    34:56:36:1f:77:57:86:4d:af:4f:1f:72:a6:01:3c:
                    0c:27:95:1b:82:44:33:e8:e1:e6:b1:a7:50:c2:75:
                    34:7a:1a:d5:ed:b1:a3:c0:43:e4:a9:1d:a7:d9:df:
                    6d:56:e0:9f:36:e7:1e:0d:dc:73:a7:e8:bd:12:bc:
                    55:67
                Exponent: 65537 (0x10001)
        X509v3 extensions:
            X509v3 Key Usage: critical
                Digital Signature, Key Encipherment
            X509v3 Extended Key Usage: 
                TLS Web Client Authentication, TLS Web Server Authentication
            X509v3 Basic Constraints: critical
                CA:TRUE
            X509v3 Authority Key Identifier: 
                keyid:01:02:03

            Authority Information Access: 
                OCSP - URI:http://theca.net/ocsp
                CA Issuers - URI:http://theca.net/totallythecert.crt

            X509v3 Subject Alternative Name: 
                DNS:hello.*.co.uk
            X509v3 Certificate Policies: 
                Policy: X509v3 Any Policy

    Signature Algorithm: sha256WithRSAEncryption
         9d:75:f8:9d:ef:a6:3d:c1:4d:a1:d1:df:6b:d3:dd:92:66:f6:
         fc:24:8f:ec:4e:17:3a:4c:71:65:61:4b:0e:96:35:5c:31:92:
         b6:ac:56:17:8a:16:ec:eb:ad:a4:4d:b2:79:64:5a:a2:65:f2:
         65:8e:5b:1d:52:81:07:82:28:29:19:1f:1c:16:8d:c7:35:4c:
         0c:a2:d2:8b:f5:f7:33:50:9b:74:c2:2e:f8:15:eb:a9:f4:34:
         93:11:22:e5:b6:33:1f:ea:8c:7d:31:e7:2c:61:bb:08:64:21:
         af:af:4c:ba:88:93:de:2a:7b:da:00:9c:e0:74:5f:8a:cb:d3:
         e1:7b:93:34:76:0d:c0:c1:a7:a5:47:61:5f:66:6f:29:d9:c2:
         5c:ef:90:1d:b7:69:62:67:29:55:68:bb:12:0f:cb:3f:b2:6a:
         9d:e5:b8:6e:73:74:e3:d0:71:f3:dd:78:bd:6d:f3:e1:48:a0:
         e2:89:b2:be:88:0d:8d:f4:5e:79:63:94:f6:52:5e:9b:5f:84:
         d8:d9:af:66:1b:c6:9b:24:52:02:48:15:a3:1c:d0:68:c3:df:
         0f:3a:1a:4e:c6:0d:28:70:ea:b0:66:e4:0a:e4:91:69:e2:b6:
         c7:62:89:22:bb:e3:63:3e:9b:ee:be:c3:48:ab:d2:d9:64:98:
         4a:df:a1:ea
-----BEGIN CERTIFICATE-----
MIIEgTCCA2ugAwIBAgIBATALBgkqhkiG9w0BAQswgY8xFjAUBgNVBAMTDU1vdGhl
ciBOYXR1cmUxEzARBgNVBAsTCkV2ZXJ5dGhpbmcxFjAUBgNVBAoTDU1vdGhlciBO
YXR1cmUxEzARBgNVBBETCnBvc3RhbGNvZGUxCzAJBgNVBAYTAlVTMRIwEAYDVQQq
EwlnaXZlbm5hbWUxEDAOBgNVBAQTB3N1cm5hbWUxADAeFw0xNzA4MjUyMzQ2MDRa
Fw0xNzExMDcwMDQ2MDRaMIGUMQ8wDQYDVQQDEwZnb3YudXMxDjAMBgNVBAsTBUNo
YW9zMQwwCgYDVQQKEwNvcmcxHDAaBgNVBAkTEzMyMTAgSG9sbHkgTWlsbCBSdW4x
ETAPBgNVBAgTCHByb3ZpbmNlMQ4wDAYDVQQREwUzMDA2MjEOMAwGA1UEKhMFaGVs
bG8xEDAOBgNVBAQTB3N1cm5hbWUxADCCASIwDQYJKoZIhvcNAQEBBQADggEPADCC
AQoCggEBAMquZmItyTYOBReqwe4YrkxgQ6G9/8oyEWxxRwsAR3lzxqu0e6TU1f5f
Z2T9xEiWFqtVCfDTUw1TY+KE3DTtu2giYiKWzCx6apfXTgvXfauoseHqKtLv1Aea
ZNNK3/WtDCj+H6QIY86Wes/JTiH4/hN2NamVPoOs/hyn3OdVI8quoRDs3nGQkaG9
qA04pmkny8hbi9one9KVQcZDji7Bku3G/sMl2l9GwKkUVdgRi+E4l37EhoiW1IUI
Yhhs+v3e9mbfNFY2H3dXhk2vTx9ypgE8DCeVG4JEM+jh5rGnUMJ1NHoa1e2xo8BD
5Kkdp9nfbVbgnzbnHg3cc6fovRK8VWcCAwEAAaOB5DCB4TAOBgNVHQ8BAf8EBAMC
AKAwHQYDVR0lBBYwFAYIKwYBBQUHAwIGCCsGAQUFBwMBMA8GA1UdEwEB/wQFMAMB
Af8wDgYDVR0jBAcwBYADAQIDMGIGCCsGAQUFBwEBBFYwVDAhBggrBgEFBQcwAYYV
aHR0cDovL3RoZWNhLm5ldC9vY3NwMC8GCCsGAQUFBzAChiNodHRwOi8vdGhlY2Eu
bmV0L3RvdGFsbHl0aGVjZXJ0LmNydDAYBgNVHREEETAPgg1oZWxsby4qLmNvLnVr
MBEGA1UdIAQKMAgwBgYEVR0gADALBgkqhkiG9w0BAQsDggEBAJ11+J3vpj3BTaHR
32vT3ZJm9vwkj+xOFzpMcWVhSw6WNVwxkrasVheKFuzrraRNsnlkWqJl8mWOWx1S
gQeCKCkZHxwWjcc1TAyi0ov19zNQm3TCLvgV66n0NJMRIuW2Mx/qjH0x5yxhuwhk
Ia+vTLqIk94qe9oAnOB0X4rL0+F7kzR2DcDBp6VHYV9mbynZwlzvkB23aWJnKVVo
uxIPyz+yap3luG5zdOPQcfPdeL1t8+FIoOKJsr6IDY30XnljlPZSXptfhNjZr2Yb
xpskUgJIFaMc0GjD3w86Gk7GDShw6rBm5ArkkWnitsdiiSK742M+m+6+w0ir0tlk
mErfoeo=
-----END CERTIFICATE-----
