Certificate:
    Data:
        Version: 3 (0x2)
        Serial Number: 3 (0x3)
        Signature Algorithm: ecdsa-with-SHA256
        Issuer: 
        Validity
            Not Before: Jan  1 00:00:00 2018 GMT
            Not After : Jan  2 00:00:00 2018 GMT
        Subject: 
        Subject Public Key Info:
            Public Key Algorithm: id-ecPublicKey
                Public-Key: (256 bit)
                pub:
                    04:bc:0a:29:a0:6d:3d:e7:dc:e9:06:a0:f4:99:b1:
                    f8:05:f5:62:c6:ac:ca:8b:0a:28:82:5a:25:d6:aa:
                    04:a4:07:5a:ac:c4:e6:07:d0:4c:93:ef:30:57:34:
                    c8:4d:19:c9:0b:6b:c0:b4:3c:d7:7e:cd:f4:d6:7e:
                    71:a3:d6:8a:94
                ASN1 OID: prime256v1
                NIST CURVE: P-256
        X509v3 extensions:
            X509v3 Subject Alternative Name: 
                DNS:totally.fine.with.me
    Signature Algorithm: ecdsa-with-SHA256
         30:44:02:20:4c:18:8a:0b:97:84:00:d8:f6:0a:ce:ae:60:c3:
         a0:f9:9e:82:a8:31:eb:63:a6:49:81:41:49:cf:e8:5e:97:76:
         02:20:40:0e:89:66:66:2d:d7:6c:fe:77:38:21:1a:45:83:d2:
         df:a8:c1:2c:fa:7c:51:0e:0d:dc:f8:d3:3e:c2:04:84
-----BEGIN CERTIFICATE-----
MIIBEDCBuKADAgECAgEDMAoGCCqGSM49BAMCMAAwHhcNMTgwMTAxMDAwMDAwWhcN
MTgwMTAyMDAwMDAwWjAAMFkwEwYHKoZIzj0CAQYIKoZIzj0DAQcDQgAEvAopoG09
59zpBqD0mbH4BfVixqzKiwooglol1qoEpAdarMTmB9BMk+8wVzTITRnJC2vAtDzX
fs301n5xo9aKlKMjMCEwHwYDVR0RBBgwFoIUdG90YWxseS5maW5lLndpdGgubWUw
CgYIKoZIzj0EAwIDRwAwRAIgTBiKC5eEANj2Cs6uYMOg+Z6CqDHrY6ZJgUFJz+he
l3YCIEAOiWZmLdds/nc4IRpFg9LfqMEs+nxRDg3c+NM+wgSE
-----END CERTIFICATE-----
