Certificate:
    Data:
        Version: 3 (0x2)
        Serial Number:
            03:32:fe:96:42:5b:77:ba:fe:09:ef:63:c2:b0:b9:46:22:05
    Signature Algorithm: sha256WithRSAEncryption
        Issuer: C = US, O = Let's Encrypt, CN = Let's Encrypt Authority X3
        Validity
            Not Before: Sep  1 06:52:00 2017 GMT
            Not After : Nov 30 06:52:00 2017 GMT
        Subject: CN = tuxfamily.com
        Subject Public Key Info:
            Public Key Algorithm: rsaEncryption
                Public-Key: (2048 bit)
                Modulus:
                    00:ba:36:f7:4b:b7:0b:34:ff:44:95:0a:a3:85:7d:
                    f7:77:df:44:1a:de:38:94:ac:83:60:7a:b9:a9:7a:
                    8c:94:93:11:1b:e6:17:37:1a:3c:db:9e:7c:0b:b2:
                    ab:ce:8b:83:0d:1b:d6:00:49:d0:0e:22:82:37:aa:
                    b2:54:0b:0f:ff:c5:5d:7f:b2:4c:92:8b:db:b7:8e:
                    dc:b5:05:a4:da:00:d9:1e:d6:f2:11:2c:aa:df:b8:
                    3e:11:36:2b:7e:4a:f0:87:41:ec:53:72:f8:f7:db:
                    eb:b6:0b:22:78:ba:ff:a9:6a:e0:66:5e:b9:9b:bf:
                    62:25:e8:1f:0c:2e:72:89:5f:43:4c:d3:20:dc:bd:
                    74:37:0c:a0:9d:0c:3f:33:01:87:63:31:41:93:29:
                    19:53:35:23:0e:62:25:41:30:e6:e4:9a:89:c7:a4:
                    01:42:0c:69:26:39:71:0d:5e:4c:91:b1:66:36:29:
                    40:0f:5b:63:d0:79:bc:d5:ea:61:af:da:e4:65:80:
                    ee:20:3c:51:f5:61:28:78:e2:3d:68:9a:99:b4:3d:
                    02:cf:f6:f7:db:3a:54:e9:6c:e7:9c:00:97:38:1c:
                    e5:ab:ce:8e:21:5a:72:2c:06:cb:a8:bb:d4:31:0d:
                    08:37:cd:10:9d:a2:53:3c:90:32:10:18:df:c9:28:
                    84:81
                Exponent: 65537 (0x10001)
        X509v3 extensions:
            X509v3 Key Usage: critical
                Digital Signature, Key Encipherment
            X509v3 Extended Key Usage: 
                TLS Web Server Authentication, TLS Web Client Authentication
            X509v3 Basic Constraints: critical
                CA:FALSE
            X509v3 Subject Key Identifier: 
                54:C0:17:74:7F:87:C3:41:DD:03:23:6C:AA:92:E2:1B:5E:9A:5B:54
            X509v3 Authority Key Identifier: 
                keyid:A8:4A:6A:63:04:7D:DD:BA:E6:D1:39:B7:A6:45:65:EF:F3:A8:EC:A1

            Authority Information Access: 
                OCSP - URI:http://ocsp.int-x3.letsencrypt.org
                CA Issuers - URI:http://cert.int-x3.letsencrypt.org/

            X509v3 Subject Alternative Name: 
                DNS:tuxfamily.com, DNS:tuxfamily.info, DNS:tuxfamily.net, DNS:tuxfamily.org, DNS:www.tuxfamily.com, DNS:www.tuxfamily.info, DNS:www.tuxfamily.net, DNS:www.tuxfamily.org
            X509v3 Certificate Policies: 
                Policy: 2.23.140.1.2.1
                Policy: 1.3.6.1.4.1.44947.1.1.1
                  CPS: http://cps.letsencrypt.org
                  User Notice:
                    Explicit Text: This Certificate may only be relied upon by Relying Parties and only in accordance with the Certificate Policy found at https://letsencrypt.org/repository/

    Signature Algorithm: sha256WithRSAEncryption
         8f:ee:4b:8c:8a:6d:17:14:71:2d:93:24:2d:42:3a:99:3a:b7:
         e6:8d:cf:bb:a4:ce:37:60:b7:57:6b:56:34:34:8c:90:26:94:
         67:da:06:bd:70:50:81:8d:5b:23:80:1b:c5:8e:2f:c9:3c:f9:
         bf:14:19:cb:ae:17:1e:cc:7d:4c:0a:49:54:4b:4d:67:6f:08:
         cb:39:10:9e:c7:ce:3c:ab:fd:96:5f:94:cd:00:b5:f6:a8:cd:
         50:16:26:71:e8:76:24:0f:cd:ed:a9:34:f4:b6:a3:a5:95:de:
         ee:61:83:47:a1:98:88:30:56:a2:32:05:22:3d:7d:d2:05:dc:
         ea:c9:21:9a:5f:45:e4:b7:96:25:df:87:cb:79:21:29:d9:4a:
         46:c2:97:70:d9:d5:88:d0:8d:86:13:80:b8:cd:48:01:05:e4:
         82:37:de:c1:21:cd:d3:1b:14:4e:d5:40:90:04:75:54:54:c7:
         e4:d2:cd:d2:ba:ef:b1:f8:48:ff:38:2d:df:a3:54:0c:b7:0f:
         7e:d0:17:3e:e0:f5:f2:02:95:8b:28:83:4f:ea:e2:35:e8:2f:
         43:8a:d4:75:19:61:8e:8a:24:46:17:d5:bd:c2:49:6f:3b:02:
         f4:73:6c:bb:26:a3:51:86:72:e5:a0:cb:0f:f0:78:95:67:e1:
         48:c9:ad:d2
-----BEGIN CERTIFICATE-----
MIIFezCCBGOgAwIBAgISAzL+lkJbd7r+Ce9jwrC5RiIFMA0GCSqGSIb3DQEBCwUA
MEoxCzAJBgNVBAYTAlVTMRYwFAYDVQQKEw1MZXQncyBFbmNyeXB0MSMwIQYDVQQD
ExpMZXQncyBFbmNyeXB0IEF1dGhvcml0eSBYMzAeFw0xNzA5MDEwNjUyMDBaFw0x
NzExMzAwNjUyMDBaMBgxFjAUBgNVBAMTDXR1eGZhbWlseS5jb20wggEiMA0GCSqG
SIb3DQEBAQUAA4IBDwAwggEKAoIBAQC6NvdLtws0/0SVCqOFffd330Qa3jiUrINg
ermpeoyUkxEb5hc3GjzbnnwLsqvOi4MNG9YASdAOIoI3qrJUCw//xV1/skySi9u3
jty1BaTaANke1vIRLKrfuD4RNit+SvCHQexTcvj32+u2CyJ4uv+pauBmXrmbv2Il
6B8MLnKJX0NM0yDcvXQ3DKCdDD8zAYdjMUGTKRlTNSMOYiVBMObkmonHpAFCDGkm
OXENXkyRsWY2KUAPW2PQebzV6mGv2uRlgO4gPFH1YSh44j1ompm0PQLP9vfbOlTp
bOecAJc4HOWrzo4hWnIsBsuou9QxDQg3zRCdolM8kDIQGN/JKISBAgMBAAGjggKL
MIIChzAOBgNVHQ8BAf8EBAMCBaAwHQYDVR0lBBYwFAYIKwYBBQUHAwEGCCsGAQUF
BwMCMAwGA1UdEwEB/wQCMAAwHQYDVR0OBBYEFFTAF3R/h8NB3QMjbKqS4htemltU
MB8GA1UdIwQYMBaAFKhKamMEfd265tE5t6ZFZe/zqOyhMG8GCCsGAQUFBwEBBGMw
YTAuBggrBgEFBQcwAYYiaHR0cDovL29jc3AuaW50LXgzLmxldHNlbmNyeXB0Lm9y
ZzAvBggrBgEFBQcwAoYjaHR0cDovL2NlcnQuaW50LXgzLmxldHNlbmNyeXB0Lm9y
Zy8wgZUGA1UdEQSBjTCBioINdHV4ZmFtaWx5LmNvbYIOdHV4ZmFtaWx5LmluZm+C
DXR1eGZhbWlseS5uZXSCDXR1eGZhbWlseS5vcmeCEXd3dy50dXhmYW1pbHkuY29t
ghJ3d3cudHV4ZmFtaWx5LmluZm+CEXd3dy50dXhmYW1pbHkubmV0ghF3d3cudHV4
ZmFtaWx5Lm9yZzCB/gYDVR0gBIH2MIHzMAgGBmeBDAECATCB5gYLKwYBBAGC3xMB
AQEwgdYwJgYIKwYBBQUHAgEWGmh0dHA6Ly9jcHMubGV0c2VuY3J5cHQub3JnMIGr
BggrBgEFBQcCAjCBngyBm1RoaXMgQ2VydGlmaWNhdGUgbWF5IG9ubHkgYmUgcmVs
aWVkIHVwb24gYnkgUmVseWluZyBQYXJ0aWVzIGFuZCBvbmx5IGluIGFjY29yZGFu
Y2Ugd2l0aCB0aGUgQ2VydGlmaWNhdGUgUG9saWN5IGZvdW5kIGF0IGh0dHBzOi8v
bGV0c2VuY3J5cHQub3JnL3JlcG9zaXRvcnkvMA0GCSqGSIb3DQEBCwUAA4IBAQCP
7kuMim0XFHEtkyQtQjqZOrfmjc+7pM43YLdXa1Y0NIyQJpRn2ga9cFCBjVsjgBvF
ji/JPPm/FBnLrhcezH1MCklUS01nbwjLORCex848q/2WX5TNALX2qM1QFiZx6HYk
D83tqTT0tqOlld7uYYNHoZiIMFaiMgUiPX3SBdzqySGaX0Xkt5Yl34fLeSEp2UpG
wpdw2dWI0I2GE4C4zUgBBeSCN97BIc3TGxRO1UCQBHVUVMfk0s3Suu+x+Ej/OC3f
o1QMtw9+0Bc+4PXyApWLKINP6uI16C9DitR1GWGOiiRGF9W9wklvOwL0c2y7JqNR
hnLloMsP8HiVZ+FIya3S
-----END CERTIFICATE-----
