Certificate:
    Data:
        Version: 3 (0x2)
        Serial Number:
            72:97:35:23:08:57:73:30:eb:cf:f5:47:18:81:0b:4f:25:e2:6a:ef
        Signature Algorithm: sha256WithRSAEncryption
        Issuer: CN = Bar
        Validity
            Not Before: Oct  1 00:00:00 2021 GMT
            Not After : Oct  1 00:00:00 2022 GMT
        Subject: CN = Foo
        Subject Public Key Info:
            Public Key Algorithm: rsaEncryption
                RSA Public-Key: (512 bit)
                Modulus:
                    00:aa:71:4b:ae:d4:0c:ee:da:6c:b8:f0:1e:a0:e8:
                    dc:1e:98:91:7d:64:b3:26:0a:77:70:f7:6f:6f:e3:
                    f2:ed:05:7f:4a:0e:45:07:98:32:3b:66:0c:01:9f:
                    7d:6f:75:c1:ed:08:c0:dd:73:bf:a9:80:9b:31:1a:
                    e7:db:40:41:4b
                Exponent: 65537 (0x10001)
        X509v3 extensions:
            X509v3 Subject Alternative Name: 
                DNS:xN--foo
    Signature Algorithm: sha256WithRSAEncryption
         9f:14:e2:58:4e:28:a2:0e:bb:53:68:63:07:ba:ba:3c:ce:72:
         52:b2:22:66:2d:8a:e8:7e:fc:83:fd:83:8f:96:b7:96:81:9e:
         4b:e0:6f:c1:86:bf:99:de:c5:fd:b6:f1:dd:f6:86:2c:b9:3f:
         3f:93:31:a1:5c:20:a7:2d:46:08
-----BEGIN CERTIFICATE-----
MIIBNTCB4KADAgECAhRylzUjCFdzMOvP9UcYgQtPJeJq7zANBgkqhkiG9w0BAQsF
ADAOMQwwCgYDVQQDDANCYXIwHhcNMjExMDAxMDAwMDAwWhcNMjIxMDAxMDAwMDAw
WjAOMQwwCgYDVQQDDANGb28wXDANBgkqhkiG9w0BAQEFAANLADBIAkEAqnFLrtQM
7tpsuPAeoOjcHpiRfWSzJgp3cPdvb+Py7QV/Sg5FB5gyO2YMAZ99b3XB7QjA3XO/
qYCbMRrn20BBSwIDAQABoxYwFDASBgNVHREECzAJggd4Ti0tZm9vMA0GCSqGSIb3
DQEBCwUAA0EAnxTiWE4oog67U2hjB7q6PM5yUrIiZi2K6H78g/2Dj5a3loGeS+Bv
wYa/md7F/bbx3faGLLk/P5MxoVwgpy1GCA==
-----END CERTIFICATE-----
