Certificate:
    Data:
        Version: 3 (0x2)
        Serial Number:
            36:dc:36:f4:ac:5b:ae:2a:86:55:f6:8c:5c:29:b4:f3:d3:a6:52:76
        Signature Algorithm: sha256WithRSAEncryption
        Issuer: CN = Bar
        Validity
            Not Before: Oct  1 00:00:00 2021 GMT
            Not After : Oct  1 00:00:00 2022 GMT
        Subject: CN = Foo
        Subject Public Key Info:
            Public Key Algorithm: rsaEncryption
                RSA Public-Key: (512 bit)
                Modulus:
                    00:cd:08:60:77:5a:4a:0f:b8:b2:eb:93:8e:cc:3e:
                    fa:d9:b1:0d:e3:8b:ca:67:49:19:f8:89:85:27:5c:
                    6e:6b:cf:b8:08:0b:e6:c2:ab:e5:4b:9f:db:6e:8a:
                    24:b5:b4:b0:55:70:9e:48:b0:74:22:39:a4:c5:80:
                    d1:e4:05:7d:d5
                Exponent: 65537 (0x10001)
        X509v3 extensions:
            X509v3 Subject Alternative Name: 
                DNS:aaaaaaaaaaaaaaaaaaaaaaaaaaaaaaaaaaaaaaaaaaaaaaaaaaaaaaaaaaaaaaaa.com
    Signature Algorithm: sha256WithRSAEncryption
         1a:73:65:6d:77:ed:60:7f:d3:f6:f6:9b:e3:d1:ca:55:de:c9:
         98:7e:93:20:d2:42:37:32:c8:f7:eb:1f:95:fd:f2:79:5e:ee:
         bf:b8:25:19:15:31:c4:00:ae:36:3f:60:54:45:b2:36:ea:28:
         14:54:04:5e:a8:6f:46:0f:7e:f8
-----BEGIN CERTIFICATE-----
MIIBczCCAR2gAwIBAgIUNtw29KxbriqGVfaMXCm089OmUnYwDQYJKoZIhvcNAQEL
BQAwDjEMMAoGA1UEAwwDQmFyMB4XDTIxMTAwMTAwMDAwMFoXDTIyMTAwMTAwMDAw
MFowDjEMMAoGA1UEAwwDRm9vMFwwDQYJKoZIhvcNAQEBBQADSwAwSAJBAM0IYHda
Sg+4suuTjsw++tmxDeOLymdJGfiJhSdcbmvPuAgL5sKr5Uuf226KJLW0sFVwnkiw
dCI5pMWA0eQFfdUCAwEAAaNTMFEwTwYDVR0RBEgwRoJEYWFhYWFhYWFhYWFhYWFh
YWFhYWFhYWFhYWFhYWFhYWFhYWFhYWFhYWFhYWFhYWFhYWFhYWFhYWFhYWFhYWFh
YS5jb20wDQYJKoZIhvcNAQELBQADQQAac2Vtd+1gf9P29pvj0cpV3smYfpMg0kI3
Msj36x+V/fJ5Xu6/uCUZFTHEAK42P2BURbI26igUVAReqG9GD374
-----END CERTIFICATE-----
