Certificate:
    Data:
        Version: 3 (0x2)
        Serial Number: 3 (0x3)
        Signature Algorithm: ecdsa-with-SHA256
        Issuer: 
        Validity
            Not Before: May  1 00:00:00 2008 GMT
            Not After : Nov 30 00:00:00 9998 GMT
        Subject: 
        Subject Public Key Info:
            Public Key Algorithm: id-ecPublicKey
                Public-Key: (256 bit)
                pub:
                    04:5f:bb:4e:1a:d4:38:e2:9f:dd:6d:0e:75:bf:5c:
                    7f:0a:5b:3b:ad:dd:68:5f:af:38:ee:dd:3a:22:dd:
                    44:f3:27:65:55:1b:4c:bd:c8:b2:d4:16:78:d2:a2:
                    23:48:07:9d:8e:25:b3:ce:72:1d:6a:01:35:58:a4:
                    ae:48:b2:ee:f9
                ASN1 OID: prime256v1
                NIST CURVE: P-256
        X509v3 extensions:
            X509v3 Subject Alternative Name: 
                DNS:with.no.underscore.test
    Signature Algorithm: ecdsa-with-SHA256
         30:44:02:20:40:a1:f3:da:d3:09:c9:37:31:53:24:6f:08:ca:
         98:fd:90:86:fe:8f:68:01:c6:78:1c:c3:54:b1:e5:96:3a:fe:
         02:20:6a:03:a9:13:6b:37:53:4b:80:11:fb:fd:6b:cd:0f:6b:
         47:94:b9:95:fa:11:e2:81:ff:6c:ed:62:d3:49:93:96
-----BEGIN CERTIFICATE-----
MIIBFTCBvaADAgECAgEDMAoGCCqGSM49BAMCMAAwIBcNMDgwNTAxMDAwMDAwWhgP
OTk5ODExMzAwMDAwMDBaMAAwWTATBgcqhkjOPQIBBggqhkjOPQMBBwNCAARfu04a
1Djin91tDnW/XH8KWzut3Whfrzju3Toi3UTzJ2VVG0y9yLLUFnjSoiNIB52OJbPO
ch1qATVYpK5Isu75oyYwJDAiBgNVHREEGzAZghd3aXRoLm5vLnVuZGVyc2NvcmUu
dGVzdDAKBggqhkjOPQQDAgNHADBEAiBAofPa0wnJNzFTJG8Iypj9kIb+j2gBxngc
w1Sx5ZY6/gIgagOpE2s3U0uAEfv9a80Pa0eUuZX6EeKB/2ztYtNJk5Y=
-----END CERTIFICATE-----
