Certificate:
    Data:
        Version: 3 (0x2)
        Serial Number:
            f3:8b:c7:15:28:cb:80:8a
    Signature Algorithm: sha256WithRSAEncryption
        Issuer: C=US, ST=Arizona, L=Scottsdale, O=GoDaddy.com, Inc., OU=http://certificates-gd-pki.test.glbt1.gdg/repository, CN=TEST Go Daddy Secure Certification Authority - G2
        Validity
            Not Before: Jun 28 22:15:40 2018 GMT
            Not After : Jun 28 22:15:40 2019 GMT
        Subject: OU=Domain Control Validated, CN=xn--www-8fb.godaddy.com
        Subject Public Key Info:
            Public Key Algorithm: rsaEncryption
                Public-Key: (2048 bit)
                Modulus:
                    00:d6:b0:39:66:e1:21:23:8b:f3:71:79:aa:50:3a:
                    5c:37:a2:ce:ed:81:75:33:80:6b:7f:12:0b:07:53:
                    2f:85:01:f3:83:5c:15:ef:aa:a0:37:55:25:9a:ba:
                    24:ec:6d:44:a5:52:a2:0a:33:30:8e:e6:94:10:bf:
                    44:61:6d:67:58:2b:90:d2:71:df:83:fa:c3:2f:37:
                    52:bb:e2:7a:51:ac:67:e9:01:75:d0:1a:54:0a:4d:
                    63:eb:62:61:61:3a:b6:04:85:69:cf:cf:63:2d:35:
                    4b:64:f1:fd:2d:5f:89:59:68:fc:d8:07:6c:e1:b9:
                    71:b0:d5:2c:f8:6f:32:2e:50:a3:dc:aa:e6:cf:90:
                    66:c8:e5:44:3b:c7:15:8d:42:96:88:9c:90:40:b1:
                    39:89:1d:af:30:1b:79:d1:7f:a7:8f:4a:92:ff:e9:
                    d3:84:4f:e1:4f:9d:ad:f3:98:0b:73:43:05:11:3a:
                    5c:fb:64:5b:b2:4e:b4:5e:1b:56:1d:5c:ca:3d:cb:
                    4a:af:3f:52:25:e3:8d:90:4d:5d:12:0a:61:8f:79:
                    d4:ff:4b:b4:00:a3:af:da:82:bc:f5:f8:26:30:ca:
                    85:5c:ca:dc:dc:07:29:2e:af:8a:39:cf:51:e8:1e:
                    69:30:7c:46:a1:1b:ae:8e:21:ff:eb:03:72:42:51:
                    4a:b3
                Exponent: 65537 (0x10001)
        X509v3 extensions:
            X509v3 Basic Constraints: critical
                CA:FALSE
            X509v3 Extended Key Usage: 
                TLS Web Server Authentication, TLS Web Client Authentication
            X509v3 Key Usage: critical
                Digital Signature, Key Encipherment
            X509v3 CRL Distribution Points: 

                Full Name:
                  URI:http://certificates-gd-pki.test.glbt1.gdg/gdig2s1-4794.crl

            X509v3 Certificate Policies: 
                Policy: 2.16.840.1.114413.1.7.23.1
                  CPS: http://certs.test-godaddy.com/repository/
                Policy: 2.23.140.1.2.1

            Authority Information Access: 
                OCSP - URI:http://ocsp-gd-pki.test.glbt1.gdg/
                CA Issuers - URI:http://certs.test-godaddy.com/repository/gdig2.crt

            X509v3 Authority Key Identifier: 
                keyid:ED:B4:DC:04:23:23:CA:F4:4E:5D:BE:20:62:FD:DD:3F:25:AF:71:05

            X509v3 Subject Alternative Name: 
                DNS:xn--www-8fb.godaddy.com, DNS:www.xn--www-8fb.godaddy.com
            X509v3 Subject Key Identifier: 
                49:71:9E:79:FD:34:D9:78:E4:39:65:51:CD:57:0D:E3:58:86:25:7A
            CT Precertificate SCTs: 
                Signed Certificate Timestamp:
                    Version   : v1(0)
                    Log ID    : B0:CC:83:E5:A5:F9:7D:6B:AF:7C:09:CC:28:49:04:87:
                                2A:C7:E8:8B:13:2C:63:50:B7:C6:FD:26:E1:6C:6C:77
                    Timestamp : Jun 28 22:15:50.814 2018 GMT
                    Extensions: none
                    Signature : ecdsa-with-SHA256
                                30:45:02:21:00:C2:C4:AB:3A:69:4F:8C:66:AC:38:70:
                                AF:58:A6:54:53:47:4C:A8:64:76:81:7A:43:D8:AA:51:
                                DB:C0:80:87:C5:02:20:5B:43:AB:D8:46:F9:7D:7A:01:
                                18:77:9D:2D:F4:83:0D:6C:A4:96:F1:B9:7B:62:96:D4:
                                59:3E:8A:87:AC:42:00
    Signature Algorithm: sha256WithRSAEncryption
         b8:ec:24:39:d0:8e:a5:55:76:d1:45:f3:fe:56:c4:5f:5c:34:
         ec:fc:f2:0c:4c:b2:cc:ca:02:a4:e7:54:b6:8b:3d:ff:8e:89:
         c0:c5:00:ff:02:9f:ce:84:71:8e:b5:43:94:88:e6:2d:da:46:
         d7:fa:1e:9f:20:32:4f:db:b2:e3:31:fc:46:c6:82:e0:a7:c5:
         9c:40:d5:fe:8d:6f:a1:73:2f:4c:dd:5c:92:db:66:36:f9:2d:
         55:e8:4b:dc:03:02:ed:62:31:54:2e:8a:ee:7b:72:d1:f1:d8:
         f1:ca:02:67:63:b9:01:1e:b8:73:53:b2:08:25:f3:61:d0:d1:
         13:a2:c7:04:0b:65:dc:c7:96:ea:26:25:86:f6:4c:a6:79:36:
         6c:14:9a:d9:2e:3a:83:3c:f9:c6:86:6d:10:b8:31:fa:7e:92:
         66:43:d9:60:db:d7:34:ee:26:1c:a6:1f:c3:4d:d3:7e:8f:0f:
         1a:07:11:ae:c5:14:26:ed:1a:ac:dc:2e:06:6c:89:9b:2d:d0:
         44:aa:36:9f:0a:33:b6:37:af:01:b8:60:0d:3d:bf:2f:a2:3e:
         40:6f:7a:2a:1f:97:ae:d7:a7:40:25:f9:22:95:a8:39:db:2f:
         7f:b6:7e:df:15:f1:62:c2:b2:ce:62:d5:6a:37:78:7c:01:f1:
         a2:79:b1:16
-----BEGIN CERTIFICATE-----
MIIGDzCCBPegAwIBAgIJAPOLxxUoy4CKMA0GCSqGSIb3DQEBCwUAMIHLMQswCQYD
VQQGEwJVUzEQMA4GA1UECBMHQXJpem9uYTETMBEGA1UEBxMKU2NvdHRzZGFsZTEa
MBgGA1UEChMRR29EYWRkeS5jb20sIEluYy4xPTA7BgNVBAsTNGh0dHA6Ly9jZXJ0
aWZpY2F0ZXMtZ2QtcGtpLnRlc3QuZ2xidDEuZ2RnL3JlcG9zaXRvcnkxOjA4BgNV
BAMTMVRFU1QgR28gRGFkZHkgU2VjdXJlIENlcnRpZmljYXRpb24gQXV0aG9yaXR5
IC0gRzIwHhcNMTgwNjI4MjIxNTQwWhcNMTkwNjI4MjIxNTQwWjBFMSEwHwYDVQQL
ExhEb21haW4gQ29udHJvbCBWYWxpZGF0ZWQxIDAeBgNVBAMTF3huLS13d3ctOGZi
LmdvZGFkZHkuY29tMIIBIjANBgkqhkiG9w0BAQEFAAOCAQ8AMIIBCgKCAQEA1rA5
ZuEhI4vzcXmqUDpcN6LO7YF1M4BrfxILB1MvhQHzg1wV76qgN1Ulmrok7G1EpVKi
CjMwjuaUEL9EYW1nWCuQ0nHfg/rDLzdSu+J6Uaxn6QF10BpUCk1j62JhYTq2BIVp
z89jLTVLZPH9LV+JWWj82Ads4blxsNUs+G8yLlCj3Krmz5BmyOVEO8cVjUKWiJyQ
QLE5iR2vMBt50X+nj0qS/+nThE/hT52t85gLc0MFETpc+2Rbsk60XhtWHVzKPctK
rz9SJeONkE1dEgphj3nU/0u0AKOv2oK89fgmMMqFXMrc3AcpLq+KOc9R6B5pMHxG
oRuujiH/6wNyQlFKswIDAQABo4ICeTCCAnUwDAYDVR0TAQH/BAIwADAdBgNVHSUE
FjAUBggrBgEFBQcDAQYIKwYBBQUHAwIwDgYDVR0PAQH/BAQDAgWgMEsGA1UdHwRE
MEIwQKA+oDyGOmh0dHA6Ly9jZXJ0aWZpY2F0ZXMtZ2QtcGtpLnRlc3QuZ2xidDEu
Z2RnL2dkaWcyczEtNDc5NC5jcmwwWwYDVR0gBFQwUjBGBgtghkgBhv1tAQcXATA3
MDUGCCsGAQUFBwIBFilodHRwOi8vY2VydHMudGVzdC1nb2RhZGR5LmNvbS9yZXBv
c2l0b3J5LzAIBgZngQwBAgEwfgYIKwYBBQUHAQEEcjBwMC4GCCsGAQUFBzABhiJo
dHRwOi8vb2NzcC1nZC1wa2kudGVzdC5nbGJ0MS5nZGcvMD4GCCsGAQUFBzAChjJo
dHRwOi8vY2VydHMudGVzdC1nb2RhZGR5LmNvbS9yZXBvc2l0b3J5L2dkaWcyLmNy
dDAfBgNVHSMEGDAWgBTttNwEIyPK9E5dviBi/d0/Ja9xBTA/BgNVHREEODA2ghd4
bi0td3d3LThmYi5nb2RhZGR5LmNvbYIbd3d3LnhuLS13d3ctOGZiLmdvZGFkZHku
Y29tMB0GA1UdDgQWBBRJcZ55/TTZeOQ5ZVHNVw3jWIYlejCBigYKKwYBBAHWeQIE
AgR8BHoAeAB2ALDMg+Wl+X1rr3wJzChJBIcqx+iLEyxjULfG/SbhbGx3AAABZEh3
iR4AAAQDAEcwRQIhAMLEqzppT4xmrDhwr1imVFNHTKhkdoF6Q9iqUdvAgIfFAiBb
Q6vYRvl9egEYd50t9IMNbKSW8bl7YpbUWT6Kh6xCADANBgkqhkiG9w0BAQsFAAOC
AQEAuOwkOdCOpVV20UXz/lbEX1w07PzyDEyyzMoCpOdUtos9/46JwMUA/wKfzoRx
jrVDlIjmLdpG1/oenyAyT9uy4zH8RsaC4KfFnEDV/o1voXMvTN1ckttmNvktVehL
3AMC7WIxVC6K7nty0fHY8coCZ2O5AR64c1OyCCXzYdDRE6LHBAtl3MeW6iYlhvZM
pnk2bBSa2S46gzz5xoZtELgx+n6SZkPZYNvXNO4mHKYfw03Tfo8PGgcRrsUUJu0a
rNwuBmyJmy3QRKo2nwoztjevAbhgDT2/L6I+QG96Kh+XrtenQCX5IpWoOdsvf7Z+
3xXxYsKyzmLVajd4fAHxonmxFg==
-----END CERTIFICATE-----
