Certificate:
    Data:
        Version: 3 (0x2)
        Serial Number:
            6c:26:dd:73:80:0b:e9:56:6e:31:2f:26:f1:94:e1:ad:43:9e:d7:51
        Signature Algorithm: sha256WithRSAEncryption
        Issuer: CN = Bar
        Validity
            Not Before: Oct  1 00:00:00 2021 GMT
            Not After : Oct  1 00:00:00 2022 GMT
        Subject: CN = Foo
        Subject Public Key Info:
            Public Key Algorithm: rsaEncryption
                RSA Public-Key: (512 bit)
                Modulus:
                    00:c4:a6:5e:de:8b:82:ac:d2:d9:3c:dd:f7:1f:1c:
                    2d:fd:75:11:45:9d:75:f9:4d:53:29:30:ce:e1:7a:
                    be:24:47:ff:4d:9f:ad:b3:ae:50:a4:1b:f5:a0:1a:
                    75:30:66:a5:ce:73:cd:27:ea:02:46:f0:e6:e8:c3:
                    21:86:1c:c9:a1
                Exponent: 65537 (0x10001)
        X509v3 extensions:
            X509v3 Subject Alternative Name: 
                DNS:foo.bar-.com
    Signature Algorithm: sha256WithRSAEncryption
         83:2f:3d:e5:1b:a0:65:60:23:69:a9:24:cd:d6:33:1e:05:14:
         4b:e4:94:3e:25:c7:c3:71:eb:b5:73:7f:8e:66:21:33:8a:fb:
         0f:a9:67:9a:fc:bb:c7:25:80:f9:c8:40:8f:be:41:a3:18:2b:
         83:54:85:f4:1a:dc:eb:98:e2:03
-----BEGIN CERTIFICATE-----
MIIBOjCB5aADAgECAhRsJt1zgAvpVm4xLybxlOGtQ57XUTANBgkqhkiG9w0BAQsF
ADAOMQwwCgYDVQQDDANCYXIwHhcNMjExMDAxMDAwMDAwWhcNMjIxMDAxMDAwMDAw
WjAOMQwwCgYDVQQDDANGb28wXDANBgkqhkiG9w0BAQEFAANLADBIAkEAxKZe3ouC
rNLZPN33Hxwt/XURRZ11+U1TKTDO4Xq+JEf/TZ+ts65QpBv1oBp1MGalznPNJ+oC
RvDm6MMhhhzJoQIDAQABoxswGTAXBgNVHREEEDAOggxmb28uYmFyLS5jb20wDQYJ
KoZIhvcNAQELBQADQQCDLz3lG6BlYCNpqSTN1jMeBRRL5JQ+JcfDceu1c3+OZiEz
ivsPqWea/LvHJYD5yECPvkGjGCuDVIX0GtzrmOID
-----END CERTIFICATE-----
