Certificate:
    Data:
        Version: 3 (0x2)
        Serial Number: 3 (0x3)
        Signature Algorithm: ecdsa-with-SHA256
        Issuer: 
        Validity
            Not Before: Jan  1 00:00:00 1 GMT
            Not After : Nov 30 00:00:00 9998 GMT
        Subject:
        Subject Public Key Info:
            Public Key Algorithm: id-ecPublicKey
                Public-Key: (256 bit)
                pub:
                    04:1b:d4:0e:b6:6d:ab:be:83:78:2c:d7:a4:e1:f7:
                    2f:ed:10:d3:c3:6e:cd:3e:17:4f:fd:4c:cf:dc:74:
                    e1:21:e9:96:ed:23:3e:ac:f3:b2:be:ab:97:a9:49:
                    c5:8f:29:37:ba:9e:0c:30:76:cc:6f:1e:f3:be:6a:
                    56:4a:02:ff:3b
                ASN1 OID: prime256v1
                NIST CURVE: P-256
        X509v3 extensions:
            X509v3 Subject Alternative Name:
                DNS:no.underscores.test
    Signature Algorithm: ecdsa-with-SHA256
         30:45:02:20:0b:a4:c9:cc:29:66:14:50:c4:4c:97:98:5a:a4:
         1a:ea:ec:5f:b0:44:81:7c:ee:5d:3c:44:1b:58:e9:26:3b:6b:
         02:21:00:ac:1a:53:c8:b5:67:fe:09:1c:96:1e:e0:ca:f6:29:
         19:46:0b:91:cb:41:90:4a:ff:af:ee:44:d1:fc:e2:3d:61
-----BEGIN CERTIFICATE-----
MIIBFDCBu6ADAgECAgEDMAoGCCqGSM49BAMCMAAwIhgPMDAwMTAxMDEwMDAwMDBa
GA85OTk4MTEzMDAwMDAwMFowADBZMBMGByqGSM49AgEGCCqGSM49AwEHA0IABBvU
DrZtq76DeCzXpOH3L+0Q08NuzT4XT/1Mz9x04SHplu0jPqzzsr6rl6lJxY8pN7qe
DDB2zG8e875qVkoC/zujIjAgMB4GA1UdEQQXMBWCE25vLnVuZGVyc2NvcmVzLnRl
c3QwCgYIKoZIzj0EAwIDSAAwRQIgC6TJzClmFFDETJeYWqQa6uxfsESBfO5dPEQb
WOkmO2sCIQCsGlPItWf+CRyWHuDK9ikZRguRy0GQSv+v7kTR/OI9YQ==
-----END CERTIFICATE-----
