Certificate:
    Data:
        Version: 3 (0x2)
        Serial Number: 3 (0x3)
        Signature Algorithm: ecdsa-with-SHA256
        Issuer: 
        Validity
            Not Before: May  1 00:00:00 2008 GMT
            Not After : Nov 30 00:00:00 9998 GMT
        Subject: 
        Subject Public Key Info:
            Public Key Algorithm: id-ecPublicKey
                Public-Key: (256 bit)
                pub:
                    04:fc:0f:8a:b2:9a:78:34:61:6e:57:ce:e1:eb:26:
                    70:d6:8b:71:6b:1e:f4:11:71:45:de:e3:2b:19:f2:
                    3a:2b:28:f9:88:5f:0e:b3:1a:24:7a:5d:aa:23:cf:
                    4f:82:82:2a:99:73:66:7b:c4:fb:a2:f3:5f:15:61:
                    ff:0c:21:ac:39
                ASN1 OID: prime256v1
                NIST CURVE: P-256
        X509v3 extensions:
            X509v3 Subject Alternative Name: 
                DNS:with.with_underscore.test
    Signature Algorithm: ecdsa-with-SHA256
         30:46:02:21:00:93:a7:70:63:9c:09:fd:ab:4d:ef:e6:8f:b3:
         f6:67:50:11:d3:99:e3:49:d4:cb:dc:c9:a9:7c:3c:a7:35:a7:
         28:02:21:00:d6:4b:6f:26:58:06:85:77:28:46:ec:59:f0:9a:
         38:d2:e4:18:99:71:2d:9d:e4:fd:7f:da:6c:2f:aa:54:61:e2
-----BEGIN CERTIFICATE-----
MIIBGTCBv6ADAgECAgEDMAoGCCqGSM49BAMCMAAwIBcNMDgwNTAxMDAwMDAwWhgP
OTk5ODExMzAwMDAwMDBaMAAwWTATBgcqhkjOPQIBBggqhkjOPQMBBwNCAAT8D4qy
mng0YW5XzuHrJnDWi3FrHvQRcUXe4ysZ8jorKPmIXw6zGiR6Xaojz0+CgiqZc2Z7
xPui818VYf8MIaw5oygwJjAkBgNVHREEHTAbghl3aXRoLndpdGhfdW5kZXJzY29y
ZS50ZXN0MAoGCCqGSM49BAMCA0kAMEYCIQCTp3BjnAn9q03v5o+z9mdQEdOZ40nU
y9zJqXw8pzWnKAIhANZLbyZYBoV3KEbsWfCaONLkGJlxLZ3k/X/abC+qVGHi
-----END CERTIFICATE-----
