Certificate:
    Data:
        Version: 3 (0x2)
        Serial Number: 3 (0x3)
        Signature Algorithm: ecdsa-with-SHA256
        Issuer: 
        Validity
            Not Before: Jan  1 00:00:00 2018 GMT
            Not After : Jan  2 00:00:00 2018 GMT
        Subject: 
        Subject Public Key Info:
            Public Key Algorithm: id-ecPublicKey
                Public-Key: (256 bit)
                pub:
                    04:41:26:d0:cf:40:b6:fe:7b:7a:1d:10:eb:00:f2:
                    41:92:f3:d6:86:2c:a1:ce:a5:43:11:8b:3c:e6:b5:
                    31:ca:68:5d:f9:79:fb:08:62:bc:9f:48:2b:2c:82:
                    18:6d:e2:b6:d2:ed:e9:9a:c5:64:2e:09:84:b3:33:
                    d3:2f:30:19:2f
                ASN1 OID: prime256v1
                NIST CURVE: P-256
        X509v3 extensions:
            X509v3 Subject Alternative Name: 
                DNS:totally.not_fine.with.me
    Signature Algorithm: ecdsa-with-SHA256
         30:46:02:21:00:a8:a8:31:09:d9:fa:6c:c5:7f:bb:31:4e:a9:
         99:89:2b:a5:94:9e:9d:ab:56:35:1a:17:a6:a4:8a:d8:b7:7b:
         30:02:21:00:b5:2a:fd:0a:ab:1e:26:0a:ce:33:a7:c8:b4:59:
         ec:3d:f4:ae:fb:28:ad:21:e5:b1:a3:c1:f9:a8:e9:1f:7d:2e
-----BEGIN CERTIFICATE-----
MIIBFjCBvKADAgECAgEDMAoGCCqGSM49BAMCMAAwHhcNMTgwMTAxMDAwMDAwWhcN
MTgwMTAyMDAwMDAwWjAAMFkwEwYHKoZIzj0CAQYIKoZIzj0DAQcDQgAEQSbQz0C2
/nt6HRDrAPJBkvPWhiyhzqVDEYs85rUxymhd+Xn7CGK8n0grLIIYbeK20u3pmsVk
LgmEszPTLzAZL6MnMCUwIwYDVR0RBBwwGoIYdG90YWxseS5ub3RfZmluZS53aXRo
Lm1lMAoGCCqGSM49BAMCA0kAMEYCIQCoqDEJ2fpsxX+7MU6pmYkrpZSenatWNRoX
pqSK2Ld7MAIhALUq/QqrHiYKzjOnyLRZ7D30rvsorSHlsaPB+ajpH30u
-----END CERTIFICATE-----

