Certificate:
    Data:
        Version: 3 (0x2)
        Serial Number: 3 (0x3)
        Signature Algorithm: ecdsa-with-SHA256
        Issuer: 
        Validity
            Not Before: Nov 30 00:00:00 9997 GMT
            Not After : Nov 30 00:00:00 9998 GMT
        Subject: 
        Subject Public Key Info:
            Public Key Algorithm: id-ecPublicKey
                Public-Key: (256 bit)
                pub:
                    04:37:15:ef:e4:c6:87:1e:7f:5f:09:9e:34:db:76:
                    95:17:6c:37:bb:80:85:c0:9a:0f:a7:62:f8:e8:02:
                    7b:6c:7e:43:f4:35:6a:b8:c9:41:cf:99:33:b6:8d:
                    74:d2:24:80:8f:27:8e:0f:c2:36:12:0b:b4:91:20:
                    d9:10:f9:fe:c3
                ASN1 OID: prime256v1
                NIST CURVE: P-256
        X509v3 extensions:
            X509v3 Subject Alternative Name: 
                DNS:totally.not_fine.with.me
    Signature Algorithm: ecdsa-with-SHA256
         30:45:02:21:00:d5:39:bd:96:fd:3f:05:3e:05:48:af:45:80:
         47:2e:5c:b5:13:11:7c:8c:67:d3:9b:8b:cc:84:65:f9:80:0d:
         20:02:20:67:b0:a9:68:a8:b8:9a:61:38:b0:35:d6:2f:00:f9:
         31:bf:60:7f:64:01:4d:92:2c:32:aa:a5:ae:0a:e6:5a:fc
-----BEGIN CERTIFICATE-----
MIIBGTCBwKADAgECAgEDMAoGCCqGSM49BAMCMAAwIhgPOTk5NzExMzAwMDAwMDBa
GA85OTk4MTEzMDAwMDAwMFowADBZMBMGByqGSM49AgEGCCqGSM49AwEHA0IABDcV
7+TGhx5/XwmeNNt2lRdsN7uAhcCaD6di+OgCe2x+Q/Q1arjJQc+ZM7aNdNIkgI8n
jg/CNhILtJEg2RD5/sOjJzAlMCMGA1UdEQQcMBqCGHRvdGFsbHkubm90X2ZpbmUu
d2l0aC5tZTAKBggqhkjOPQQDAgNIADBFAiEA1Tm9lv0/BT4FSK9FgEcuXLUTEXyM
Z9Obi8yEZfmADSACIGewqWiouJphOLA11i8A+TG/YH9kAU2SLDKqpa4K5lr8
-----END CERTIFICATE-----
