Certificate:
    Data:
        Version: 3 (0x2)
        Serial Number: 3 (0x3)
        Signature Algorithm: ecdsa-with-SHA256
        Issuer: 
        Validity
            Not Before: Jan  1 00:00:00 1970 GMT
            Not After : Nov 30 00:00:00 9998 GMT
        Subject: 
        Subject Public Key Info:
            Public Key Algorithm: id-ecPublicKey
                Public-Key: (256 bit)
                pub:
                    04:89:6d:b1:15:7a:e5:f1:7f:6e:6c:46:d6:2e:0b:
                    32:9a:c1:72:a8:96:a8:b0:ed:20:1f:49:64:71:2c:
                    dc:00:f0:7d:90:47:c8:f1:f3:f4:c3:33:dd:f7:af:
                    98:17:69:73:b2:05:35:74:75:96:4d:66:8a:6f:1a:
                    58:b6:e0:a5:2c
                ASN1 OID: prime256v1
                NIST CURVE: P-256
        X509v3 extensions:
            X509v3 Subject Alternative Name: 
                DNS:no.underscores.com
    Signature Algorithm: ecdsa-with-SHA256
         30:45:02:21:00:a6:94:17:24:e4:8c:c4:9d:c0:16:b4:ac:5a:
         f4:f9:d3:20:85:33:c1:d5:13:ef:23:18:6e:a8:44:09:78:f6:
         cc:02:20:31:d1:71:c8:65:67:7e:06:e0:2a:8a:37:e0:cb:25:
         0a:3e:1a:3c:df:c9:34:5b:9f:4d:8b:89:de:b8:fa:11:f8
-----BEGIN CERTIFICATE-----
MIIBETCBuKADAgECAgEDMAoGCCqGSM49BAMCMAAwIBcNNzAwMTAxMDAwMDAwWhgP
OTk5ODExMzAwMDAwMDBaMAAwWTATBgcqhkjOPQIBBggqhkjOPQMBBwNCAASJbbEV
euXxf25sRtYuCzKawXKolqiw7SAfSWRxLNwA8H2QR8jx8/TDM933r5gXaXOyBTV0
dZZNZopvGli24KUsoyEwHzAdBgNVHREEFjAUghJuby51bmRlcnNjb3Jlcy5jb20w
CgYIKoZIzj0EAwIDSAAwRQIhAKaUFyTkjMSdwBa0rFr0+dMghTPB1RPvIxhuqEQJ
ePbMAiAx0XHIZWd+BuAqijfgyyUKPho838k0W59Ni4neuPoR+A==
-----END CERTIFICATE-----
