Certificate:
    Data:
        Version: 3 (0x2)
        Serial Number: 2232116547796066095 (0x1efa122c88a7df2f)
        Signature Algorithm: sha256WithRSAEncryption
        Issuer: CN = zlint test 1b4f23
        Validity
            Not Before: Aug  7 00:00:00 2016 GMT
            Not After : Aug  1 00:00:00 2017 GMT
        Subject: CN = zlint.mcdonalds
        Subject Public Key Info:
            Public Key Algorithm: rsaEncryption
                RSA Public-Key: (2048 bit)
                Modulus:
                    00:e9:16:74:5c:50:fd:ad:36:33:34:86:65:61:40:
                    bb:eb:da:34:be:64:07:3e:c9:fb:ff:28:7a:ba:0e:
                    a0:21:dd:86:51:e8:bc:25:0b:0e:df:8f:43:33:26:
                    b1:a6:dd:fc:e5:89:f2:35:f7:f0:18:df:bb:fb:54:
                    69:ed:34:d3:76:45:4e:ca:2f:49:9a:93:82:59:63:
                    ac:46:c2:25:e1:71:f9:f8:4f:4e:17:70:34:2c:ff:
                    14:d0:f3:0f:79:c6:2e:49:80:33:12:14:96:97:10:
                    66:3b:5e:89:96:b4:74:d6:92:ad:01:91:90:45:95:
                    61:4f:56:b6:f3:27:4a:06:8c:5c:d1:69:6f:94:92:
                    dc:61:cd:2f:4b:d4:69:d3:2e:21:83:cf:9e:d1:fa:
                    e8:1c:63:5c:92:07:8a:5d:03:b5:ed:5c:df:d1:73:
                    df:a6:9d:c8:20:68:60:57:c3:fe:7c:0d:64:7f:88:
                    17:74:e7:a0:8c:f4:eb:1f:58:c1:47:55:60:71:e4:
                    8b:0a:ba:6f:29:c5:71:59:fa:0f:d1:79:d5:f3:18:
                    d6:41:14:75:b1:f8:a9:da:a7:d5:ab:c8:0b:51:92:
                    92:9e:94:72:90:3d:ab:a1:df:d2:4b:a5:50:f9:f8:
                    8c:9c:29:4b:0f:fe:d1:6f:1b:76:43:6b:93:74:66:
                    c2:c9
                Exponent: 65537 (0x10001)
        X509v3 extensions:
            X509v3 Key Usage: critical
                Digital Signature, Key Encipherment
            X509v3 Extended Key Usage: 
                TLS Web Server Authentication, TLS Web Client Authentication
            X509v3 Basic Constraints: critical
                CA:FALSE
            X509v3 Subject Alternative Name: 
                DNS:zlint.mcdonalds
    Signature Algorithm: sha256WithRSAEncryption
         3f:f8:a7:1a:b6:0a:86:b8:02:01:15:de:37:f2:7c:5d:c9:df:
         0e:fe:b6:21:23:89:05:bc:7f:0e:a6:ca:d8:b0:d6:30:75:e0:
         cd:5f:41:2e:dc:e3:6f:51:c8:3c:ec:1c:a8:41:4d:c0:10:74:
         75:32:a5:93:75:b5:9d:39:72:ed:0e:4d:94:b4:c5:c3:a4:b9:
         1d:01:44:a0:7a:c4:be:46:6f:84:6a:51:ec:b4:cd:35:f7:4e:
         de:76:32:e8:86:59:06:11:db:2b:13:a2:60:de:2f:fd:d2:03:
         02:7f:f0:6b:0b:cd:90:b2:bc:c0:64:d4:d7:c3:3e:22:a7:89:
         f7:1e:51:9b:a4:56:56:2f:2c:4d:1f:b8:88:de:04:d3:ce:5c:
         9c:00:32:78:88:11:66:79:b7:26:e3:1b:2a:f5:10:fc:71:21:
         47:fd:b8:a4:49:83:64:3d:39:59:59:25:1d:78:76:0e:55:7b:
         b7:c4:dd:59:fb:54:c3:66:ed:5d:77:7c:50:a3:8c:da:19:16:
         55:da:51:65:5b:3e:00:c9:fc:19:83:35:b1:d5:80:6e:ec:33:
         28:0a:8d:4e:a7:87:25:10:b5:f3:62:83:35:52:3a:97:1e:dc:
         76:33:79:c5:5a:bc:cf:48:44:97:f9:62:fd:4d:d8:b0:ab:16:
         59:cd:cb:db
-----BEGIN CERTIFICATE-----
MIIDEzCCAfugAwIBAgIIHvoSLIin3y8wDQYJKoZIhvcNAQELBQAwHDEaMBgGA1UE
AxMRemxpbnQgdGVzdCAxYjRmMjMwHhcNMTYwODA3MDAwMDAwWhcNMTcwODAxMDAw
MDAwWjAaMRgwFgYDVQQDEw96bGludC5tY2RvbmFsZHMwggEiMA0GCSqGSIb3DQEB
AQUAA4IBDwAwggEKAoIBAQDpFnRcUP2tNjM0hmVhQLvr2jS+ZAc+yfv/KHq6DqAh
3YZR6LwlCw7fj0MzJrGm3fzlifI19/AY37v7VGntNNN2RU7KL0mak4JZY6xGwiXh
cfn4T04XcDQs/xTQ8w95xi5JgDMSFJaXEGY7XomWtHTWkq0BkZBFlWFPVrbzJ0oG
jFzRaW+UktxhzS9L1GnTLiGDz57R+ugcY1ySB4pdA7XtXN/Rc9+mncggaGBXw/58
DWR/iBd056CM9OsfWMFHVWBx5IsKum8pxXFZ+g/RedXzGNZBFHWx+Knap9WryAtR
kpKelHKQPauh39JLpVD5+IycKUsP/tFvG3ZDa5N0ZsLJAgMBAAGjWzBZMA4GA1Ud
DwEB/wQEAwIFoDAdBgNVHSUEFjAUBggrBgEFBQcDAQYIKwYBBQUHAwIwDAYDVR0T
AQH/BAIwADAaBgNVHREEEzARgg96bGludC5tY2RvbmFsZHMwDQYJKoZIhvcNAQEL
BQADggEBAD/4pxq2Coa4AgEV3jfyfF3J3w7+tiEjiQW8fw6mytiw1jB14M1fQS7c
429RyDzsHKhBTcAQdHUypZN1tZ05cu0OTZS0xcOkuR0BRKB6xL5Gb4RqUey0zTX3
Tt52MuiGWQYR2ysTomDeL/3SAwJ/8GsLzZCyvMBk1NfDPiKnifceUZukVlYvLE0f
uIjeBNPOXJwAMniIEWZ5tybjGyr1EPxxIUf9uKRJg2Q9OVlZJR14dg5Ve7fE3Vn7
VMNm7V13fFCjjNoZFlXaUWVbPgDJ/BmDNbHVgG7sMygKjU6nhyUQtfNigzVSOpce
3HYzecVavM9IRJf5Yv1N2LCrFlnNy9s=
-----END CERTIFICATE-----

