Certificate:
    Data:
        Version: 3 (0x2)
        Serial Number: 3 (0x3)
        Signature Algorithm: ecdsa-with-SHA256
        Issuer: 
        Validity
            Not Before: Nov 30 00:00:00 9997 GMT
            Not After : Nov 30 00:00:00 9998 GMT
        Subject: 
        Subject Public Key Info:
            Public Key Algorithm: id-ecPublicKey
                Public-Key: (256 bit)
                pub:
                    04:55:8f:1d:1a:73:7e:54:de:33:03:3a:77:b5:e9:
                    ad:17:e1:03:17:ea:d5:ed:86:2b:35:ba:ed:e3:ed:
                    64:77:47:a8:4a:5d:d4:68:43:42:9e:18:00:6e:e0:
                    a5:dd:ec:c4:d6:d3:e4:29:d0:d5:54:b4:11:e7:db:
                    d4:77:a1:23:a0
                ASN1 OID: prime256v1
                NIST CURVE: P-256
        X509v3 extensions:
            X509v3 Subject Alternative Name: 
                DNS:totally.fine.with.me
    Signature Algorithm: ecdsa-with-SHA256
         30:45:02:21:00:e8:06:1f:e1:27:63:30:5c:30:46:35:d4:f4:
         1c:72:29:d7:3e:0d:9c:f2:12:ea:45:60:f5:2b:87:d6:77:93:
         31:02:20:3f:6f:08:8c:8f:b2:e4:e8:9a:54:2f:dc:e1:4a:63:
         9f:a6:6e:db:06:c8:f8:fc:9e:92:d4:ae:5f:71:d2:07:b6
-----BEGIN CERTIFICATE-----
MIIBFTCBvKADAgECAgEDMAoGCCqGSM49BAMCMAAwIhgPOTk5NzExMzAwMDAwMDBa
GA85OTk4MTEzMDAwMDAwMFowADBZMBMGByqGSM49AgEGCCqGSM49AwEHA0IABFWP
HRpzflTeMwM6d7XprRfhAxfq1e2GKzW67ePtZHdHqEpd1GhDQp4YAG7gpd3sxNbT
5CnQ1VS0Eefb1HehI6CjIzAhMB8GA1UdEQQYMBaCFHRvdGFsbHkuZmluZS53aXRo
Lm1lMAoGCCqGSM49BAMCA0gAMEUCIQDoBh/hJ2MwXDBGNdT0HHIp1z4NnPIS6kVg
9SuH1neTMQIgP28IjI+y5OiaVC/c4Upjn6Zu2wbI+PyektSuX3HSB7Y=
-----END CERTIFICATE-----
