Certificate:
    Data:
        Version: 3 (0x2)
        Serial Number: 3 (0x3)
        Signature Algorithm: ecdsa-with-SHA256
        Issuer: 
        Validity
            Not Before: Dec 10 00:00:00 2018 GMT
            Not After : Jan 10 00:00:00 2019 GMT
        Subject: 
        Subject Public Key Info:
            Public Key Algorithm: id-ecPublicKey
                Public-Key: (256 bit)
                pub:
                    04:76:81:ad:a1:7c:e7:08:12:02:3d:82:3f:e6:5c:
                    7a:09:bb:88:70:3e:64:e3:51:ec:e1:c1:62:0c:71:
                    21:87:48:9c:8e:43:d5:75:42:82:58:02:19:0b:1e:
                    7d:cf:dc:f1:eb:62:5b:5d:e0:e7:77:63:ff:f5:97:
                    82:cc:ee:49:81
                ASN1 OID: prime256v1
                NIST CURVE: P-256
        X509v3 extensions:
            X509v3 Subject Alternative Name: 
                DNS:with._an_underscore.test
    Signature Algorithm: ecdsa-with-SHA256
         30:45:02:20:62:de:b0:2a:43:04:88:12:c9:22:de:fe:db:33:
         3a:77:01:cf:51:e1:e0:60:cb:5f:fb:c8:a6:44:b7:ab:91:45:
         02:21:00:e7:b4:95:a8:f6:dd:2b:4a:d1:6a:e7:f6:d0:21:90:
         6c:70:97:ce:2b:d5:07:b6:1a:63:49:34:64:88:90:25:13
-----BEGIN CERTIFICATE-----
MIIBFTCBvKADAgECAgEDMAoGCCqGSM49BAMCMAAwHhcNMTgxMjEwMDAwMDAwWhcN
MTkwMTEwMDAwMDAwWjAAMFkwEwYHKoZIzj0CAQYIKoZIzj0DAQcDQgAEdoGtoXzn
CBICPYI/5lx6CbuIcD5k41Hs4cFiDHEhh0icjkPVdUKCWAIZCx59z9zx62JbXeDn
d2P/9ZeCzO5JgaMnMCUwIwYDVR0RBBwwGoIYd2l0aC5fYW5fdW5kZXJzY29yZS50
ZXN0MAoGCCqGSM49BAMCA0gAMEUCIGLesCpDBIgSySLe/tszOncBz1Hh4GDLX/vI
pkS3q5FFAiEA57SVqPbdK0rRauf20CGQbHCXzivVB7YaY0k0ZIiQJRM=
-----END CERTIFICATE-----
