Certificate:
    Data:
        Version: 3 (0x2)
        Serial Number: 1 (0x1)
        Signature Algorithm: ecdsa-with-SHA256
        Issuer:
        Validity
            Not Before: Feb 13 20:47:58 2021 GMT
            Not After : Feb 13 20:47:58 2021 GMT
        Subject:
        Subject Public Key Info:
            Public Key Algorithm: id-ecPublicKey
                Public-Key: (256 bit)
                pub:
                    04:f1:92:93:86:4d:39:89:ea:7f:47:1e:ba:0d:93:
                    78:e9:f1:21:af:2f:24:ae:c6:d1:82:88:c9:b8:d5:
                    f2:2a:0d:05:96:c5:78:52:e3:62:91:58:94:ce:64:
                    fc:d7:1b:cb:15:fd:b5:b2:5f:6c:fe:e6:74:f1:4d:
                    32:92:23:ba:b2
                ASN1 OID: prime256v1
                NIST CURVE: P-256
        X509v3 extensions:
            X509v3 Name Constraints:
                Permitted:
                  DNS:.try.again
                  DNS:that.is.better
                Excluded:
                  DNS:this.is.fine
                  DNS:.this.is.not

    Signature Algorithm: ecdsa-with-SHA256
         30:45:02:21:00:f1:0c:bd:44:2b:ef:38:c1:b9:8d:91:da:7b:
         27:b2:07:33:b2:19:f1:ea:5e:30:b5:ee:ee:e9:6b:d0:c6:71:
         88:02:20:25:d9:68:21:b9:d6:1d:8f:1f:5b:19:87:00:d0:b1:
         bb:54:b4:9b:c3:b8:e1:3b:cb:4b:3f:5f:6b:c9:09:f0:fe
-----BEGIN CERTIFICATE-----
MIIBPzCB5qADAgECAgEBMAoGCCqGSM49BAMCMAAwHhcNMjEwMjEzMjA0NzU4WhcN
MjEwMjEzMjA0NzU4WjAAMFkwEwYHKoZIzj0CAQYIKoZIzj0DAQcDQgAE8ZKThk05
iep/Rx66DZN46fEhry8krsbRgojJuNXyKg0FlsV4UuNikViUzmT81xvLFf21sl9s
/uZ08U0ykiO6sqNRME8wTQYDVR0eBEYwRKAgMAyCCi50cnkuYWdhaW4wEIIOdGhh
dC5pcy5iZXR0ZXKhIDAOggx0aGlzLmlzLmZpbmUwDoIMLnRoaXMuaXMubm90MAoG
CCqGSM49BAMCA0gAMEUCIQDxDL1EK+84wbmNkdp7J7IHM7IZ8epeMLXu7ulr0MZx
iAIgJdloIbnWHY8fWxmHANCxu1S0m8O44TvLSz9fa8kJ8P4=
-----END CERTIFICATE-----
