Certificate:
    Data:
        Version: 3 (0x2)
        Serial Number:
            7e:e0:6a:57:82:68:21:c9:93:df:69:f4:27:de:54:85:9a:79:83:0f
        Signature Algorithm: sha256WithRSAEncryption
        Issuer: CN = Bar
        Validity
            Not Before: Oct  1 00:00:00 2021 GMT
            Not After : Oct  1 00:00:00 2022 GMT
        Subject: CN = Foo
        Subject Public Key Info:
            Public Key Algorithm: rsaEncryption
                RSA Public-Key: (512 bit)
                Modulus:
                    00:e7:50:b2:fe:25:9c:dc:57:f5:d6:76:2f:89:84:
                    d1:90:20:bc:8f:61:4e:0d:9d:26:a5:e6:22:36:78:
                    35:39:51:d1:dd:6b:98:f9:64:aa:85:43:71:3b:5d:
                    49:48:96:e3:00:fa:d8:0f:ed:91:48:6b:4f:1d:78:
                    ef:51:36:8a:2f
                Exponent: 65537 (0x10001)
        X509v3 extensions:
            X509v3 Subject Alternative Name: 
                DNS:.com
    Signature Algorithm: sha256WithRSAEncryption
         00:cd:f5:76:d9:a3:9b:5c:72:26:e4:d1:02:bb:b9:b8:51:aa:
         58:05:5e:18:87:26:9c:03:f6:4c:02:fd:86:c6:31:64:d1:1b:
         8c:97:75:81:ec:5b:95:13:d8:47:e1:ea:52:0b:4b:de:b6:df:
         70:7d:2b:9b:72:59:4c:2e:4e:3d
-----BEGIN CERTIFICATE-----
MIIBMjCB3aADAgECAhR+4GpXgmghyZPfafQn3lSFmnmDDzANBgkqhkiG9w0BAQsF
ADAOMQwwCgYDVQQDDANCYXIwHhcNMjExMDAxMDAwMDAwWhcNMjIxMDAxMDAwMDAw
WjAOMQwwCgYDVQQDDANGb28wXDANBgkqhkiG9w0BAQEFAANLADBIAkEA51Cy/iWc
3Ff11nYviYTRkCC8j2FODZ0mpeYiNng1OVHR3WuY+WSqhUNxO11JSJbjAPrYD+2R
SGtPHXjvUTaKLwIDAQABoxMwETAPBgNVHREECDAGggQuY29tMA0GCSqGSIb3DQEB
CwUAA0EAAM31dtmjm1xyJuTRAru5uFGqWAVeGIcmnAP2TAL9hsYxZNEbjJd1gexb
lRPYR+HqUgtL3rbfcH0rm3JZTC5OPQ==
-----END CERTIFICATE-----
