Certificate:
    Data:
        Version: 3 (0x2)
        Serial Number: 3 (0x3)
        Signature Algorithm: ecdsa-with-SHA256
        Issuer: 
        Validity
            Not Before: Jan  1 00:00:00 2018 GMT
            Not After : Jan  2 00:00:00 2018 GMT
        Subject: 
        Subject Public Key Info:
            Public Key Algorithm: id-ecPublicKey
                Public-Key: (256 bit)
                pub:
                    04:08:c3:ca:32:66:23:2f:4b:a7:16:41:29:32:11:
                    f3:ac:19:fa:ed:31:b1:2c:a2:6a:0e:11:de:db:05:
                    34:cb:45:c7:33:9d:7e:e6:9b:35:9a:3b:32:50:79:
                    59:e3:8c:b0:51:f9:d9:e6:dc:38:8f:76:3c:3d:e1:
                    17:a7:4d:d1:3e
                ASN1 OID: prime256v1
                NIST CURVE: P-256
        X509v3 extensions:
            X509v3 Subject Alternative Name: 
                DNS:totally_.not_fine.with.me
    Signature Algorithm: ecdsa-with-SHA256
         30:45:02:21:00:aa:d0:d9:7b:7a:13:4b:a4:0d:64:9c:7a:b8:
         c9:ef:9e:22:d8:a0:ae:c2:4a:f4:0a:6b:88:b1:00:b1:1e:e8:
         7c:02:20:5d:83:23:e9:1e:39:1a:5b:7b:3f:fa:9d:3b:3d:bf:
         ec:0d:20:11:ae:e9:27:74:66:e8:74:71:3d:ed:7e:98:10
-----BEGIN CERTIFICATE-----
MIIBFjCBvaADAgECAgEDMAoGCCqGSM49BAMCMAAwHhcNMTgwMTAxMDAwMDAwWhcN
MTgwMTAyMDAwMDAwWjAAMFkwEwYHKoZIzj0CAQYIKoZIzj0DAQcDQgAECMPKMmYj
L0unFkEpMhHzrBn67TGxLKJqDhHe2wU0y0XHM51+5ps1mjsyUHlZ44ywUfnZ5tw4
j3Y8PeEXp03RPqMoMCYwJAYDVR0RBB0wG4IZdG90YWxseV8ubm90X2ZpbmUud2l0
aC5tZTAKBggqhkjOPQQDAgNIADBFAiEAqtDZe3oTS6QNZJx6uMnvniLYoK7CSvQK
a4ixALEe6HwCIF2DI+keORpbez/6nTs9v+wNIBGu6Sd0Zuh0cT3tfpgQ
-----END CERTIFICATE-----
