Certificate:
    Data:
        Version: 3 (0x2)
        Serial Number: 3 (0x3)
        Signature Algorithm: ecdsa-with-SHA256
        Issuer: 
        Validity
            Not Before: May  1 00:00:00 2008 GMT
            Not After : Jan 10 00:00:00 2019 GMT
        Subject: 
        Subject Public Key Info:
            Public Key Algorithm: id-ecPublicKey
                Public-Key: (256 bit)
                pub:
                    04:10:59:6c:21:8d:c7:61:6d:07:e4:d0:31:28:67:
                    5b:da:36:96:a0:d6:92:75:0e:e6:9c:4d:6c:8b:e7:
                    ac:fd:87:4c:7b:fd:a0:fb:b6:ef:f9:ff:21:b3:9b:
                    bb:31:6b:0f:8e:41:b0:9d:1b:93:c1:78:8f:81:39:
                    51:42:97:c1:17
                ASN1 OID: prime256v1
                NIST CURVE: P-256
        X509v3 extensions:
            X509v3 Subject Alternative Name: 
                DNS:this.has_underscores.test
    Signature Algorithm: ecdsa-with-SHA256
         30:44:02:20:62:99:44:cb:f3:0c:6c:f9:62:26:5e:6c:4b:62:
         bb:38:fa:f7:f5:fc:93:ee:03:8e:99:5e:a0:7b:10:16:a2:8c:
         02:20:70:07:4d:5f:84:eb:4c:30:12:c4:31:b1:85:d1:6c:cb:
         52:ae:4d:a6:53:40:ff:8c:98:ba:96:ee:dc:66:9a:82
-----BEGIN CERTIFICATE-----
MIIBFTCBvaADAgECAgEDMAoGCCqGSM49BAMCMAAwHhcNMDgwNTAxMDAwMDAwWhcN
MTkwMTEwMDAwMDAwWjAAMFkwEwYHKoZIzj0CAQYIKoZIzj0DAQcDQgAEEFlsIY3H
YW0H5NAxKGdb2jaWoNaSdQ7mnE1si+es/YdMe/2g+7bv+f8hs5u7MWsPjkGwnRuT
wXiPgTlRQpfBF6MoMCYwJAYDVR0RBB0wG4IZdGhpcy5oYXNfdW5kZXJzY29yZXMu
dGVzdDAKBggqhkjOPQQDAgNHADBEAiBimUTL8wxs+WImXmxLYrs4+vf1/JPuA46Z
XqB7EBaijAIgcAdNX4TrTDASxDGxhdFsy1KuTaZTQP+MmLqW7txmmoI=
-----END CERTIFICATE-----
