Certificate:
    Data:
        Version: 3 (0x2)
        Serial Number: 3 (0x3)
        Signature Algorithm: ecdsa-with-SHA256
        Issuer: 
        Validity
            Not Before: Dec 11 00:00:00 2018 GMT
            Not After : Jan 11 00:00:00 2019 GMT
        Subject: 
        Subject Public Key Info:
            Public Key Algorithm: id-ecPublicKey
                Public-Key: (256 bit)
                pub:
                    04:8d:eb:c3:b3:a2:53:99:f6:ce:1a:19:ee:82:5a:
                    c7:f8:a7:4b:29:11:2c:19:da:b7:d3:85:7a:b0:d9:
                    41:0b:3d:71:9e:4d:30:c1:27:bf:8d:3f:79:db:c2:
                    c8:6d:e2:b8:41:c1:1c:72:7c:10:de:24:6e:f8:88:
                    08:11:64:be:75
                ASN1 OID: prime256v1
                NIST CURVE: P-256
        X509v3 extensions:
            X509v3 Subject Alternative Name: 
                DNS:with.an_underscore.com
    Signature Algorithm: ecdsa-with-SHA256
         30:44:02:20:2e:cc:49:27:0f:d6:01:0d:60:98:ce:f6:1b:b3:
         35:f6:66:ea:76:5f:e3:43:7e:17:f0:6f:55:38:c9:d5:76:d6:
         02:20:5a:10:02:7c:8e:45:33:72:5e:8a:9d:4e:e2:bc:68:4c:
         75:82:df:0a:a4:63:c0:8c:73:8a:b7:ac:71:d4:f8:07
-----BEGIN CERTIFICATE-----
MIIBEjCBuqADAgECAgEDMAoGCCqGSM49BAMCMAAwHhcNMTgxMjExMDAwMDAwWhcN
MTkwMTExMDAwMDAwWjAAMFkwEwYHKoZIzj0CAQYIKoZIzj0DAQcDQgAEjevDs6JT
mfbOGhnuglrH+KdLKREsGdq304V6sNlBCz1xnk0wwSe/jT9528LIbeK4QcEccnwQ
3iRu+IgIEWS+daMlMCMwIQYDVR0RBBowGIIWd2l0aC5hbl91bmRlcnNjb3JlLmNv
bTAKBggqhkjOPQQDAgNHADBEAiAuzEknD9YBDWCYzvYbszX2Zup2X+NDfhfwb1U4
ydV21gIgWhACfI5FM3Jeip1O4rxoTHWC3wqkY8CMc4q3rHHU+Ac=
-----END CERTIFICATE-----
