Certificate:
    Data:
        Version: 3 (0x2)
        Serial Number: 3 (0x3)
        Signature Algorithm: ecdsa-with-SHA256
        Issuer: 
        Validity
            Not Before: Feb  6 18:40:00 2022 GMT
            Not After : Feb  6 18:40:00 2022 GMT
        Subject: 
        Subject Public Key Info:
            Public Key Algorithm: id-ecPublicKey
                Public-Key: (256 bit)
                pub:
                    04:e0:4c:d9:e7:ca:e9:5c:4d:30:55:1d:1d:03:c9:
                    bb:87:fe:cc:a0:fe:f8:be:76:21:2c:7c:63:39:66:
                    f1:2b:fb:42:14:a3:52:32:8e:38:38:1b:bc:7c:09:
                    28:3d:20:05:c5:8c:80:68:c6:a2:d1:6b:99:95:74:
                    0c:e2:af:eb:a3
                ASN1 OID: prime256v1
                NIST CURVE: P-256
        X509v3 extensions:
            X509v3 Subject Alternative Name: 
                DNS:with.an_underscore.com
    Signature Algorithm: ecdsa-with-SHA256
         30:46:02:21:00:a4:d9:a5:37:51:3c:a7:93:4f:19:38:98:cf:
         b1:30:60:b8:7d:1e:fa:d2:21:2c:30:15:2e:29:96:f4:e6:c2:
         68:02:21:00:86:ea:41:1e:82:d7:d5:40:60:89:cd:75:6c:15:
         29:f1:1e:40:9b:17:71:48:ee:4e:e3:b7:c1:67:1e:5c:bf:90
-----BEGIN CERTIFICATE-----
MIIBFDCBuqADAgECAgEDMAoGCCqGSM49BAMCMAAwHhcNMjIwMjA2MTg0MDAwWhcN
MjIwMjA2MTg0MDAwWjAAMFkwEwYHKoZIzj0CAQYIKoZIzj0DAQcDQgAE4EzZ58rp
XE0wVR0dA8m7h/7MoP74vnYhLHxjOWbxK/tCFKNSMo44OBu8fAkoPSAFxYyAaMai
0WuZlXQM4q/ro6MlMCMwIQYDVR0RBBowGIIWd2l0aC5hbl91bmRlcnNjb3JlLmNv
bTAKBggqhkjOPQQDAgNJADBGAiEApNmlN1E8p5NPGTiYz7EwYLh9HvrSISwwFS4p
lvTmwmgCIQCG6kEegtfVQGCJzXVsFSnxHkCbF3FI7k7jt8FnHly/kA==
-----END CERTIFICATE-----
