Certificate:
    Data:
        Version: 3 (0x2)
        Serial Number: 3 (0x3)
        Signature Algorithm: ecdsa-with-SHA256
        Issuer: 
        Validity
            Not Before: Dec 11 00:00:00 2018 GMT
            Not After : Dec 12 00:00:00 2018 GMT
        Subject: 
        Subject Public Key Info:
            Public Key Algorithm: id-ecPublicKey
                Public-Key: (256 bit)
                pub:
                    04:1b:2c:2f:bf:60:24:c7:17:aa:eb:e9:d6:da:a0:
                    cb:b3:ea:68:01:9e:bb:5c:e0:26:a1:04:74:ee:8b:
                    a6:e4:33:b1:37:f9:1e:79:b3:c4:a6:f3:f6:74:9c:
                    4b:0e:5b:b7:64:36:3a:73:98:b5:9e:4d:aa:9c:40:
                    c5:29:01:b3:4a
                ASN1 OID: prime256v1
                NIST CURVE: P-256
        X509v3 extensions:
            X509v3 Subject Alternative Name: 
                DNS:with.an_underscore.com
    Signature Algorithm: ecdsa-with-SHA256
         30:45:02:20:0e:b7:14:8f:39:71:8b:95:0a:10:74:50:f6:d3:
         d9:72:8c:8a:7f:67:00:d5:cf:2f:c6:72:bd:14:fa:07:1d:aa:
         02:21:00:c3:27:e4:12:b1:8d:e4:6e:a2:70:61:bf:ef:23:db:
         6d:a4:10:ff:b5:3a:d2:80:d9:84:54:a9:18:a9:88:e7:74
-----BEGIN CERTIFICATE-----
MIIBEzCBuqADAgECAgEDMAoGCCqGSM49BAMCMAAwHhcNMTgxMjExMDAwMDAwWhcN
MTgxMjEyMDAwMDAwWjAAMFkwEwYHKoZIzj0CAQYIKoZIzj0DAQcDQgAEGywvv2Ak
xxeq6+nW2qDLs+poAZ67XOAmoQR07oum5DOxN/keebPEpvP2dJxLDlu3ZDY6c5i1
nk2qnEDFKQGzSqMlMCMwIQYDVR0RBBowGIIWd2l0aC5hbl91bmRlcnNjb3JlLmNv
bTAKBggqhkjOPQQDAgNIADBFAiAOtxSPOXGLlQoQdFD209lyjIp/ZwDVzy/Gcr0U
+gcdqgIhAMMn5BKxjeRuonBhv+8j222kEP+1OtKA2YRUqRipiOd0
-----END CERTIFICATE-----
