Certificate:
    Data:
        Version: 3 (0x2)
        Serial Number: 18008675309 (0x4316693ed)
    Signature Algorithm: sha256WithRSAEncryption
        Issuer: C = US, O = Mother Nature, OU = Everything, CN = Mother Nature
        Validity
            Not Before: Jun 28 23:01:43 2016 GMT
            Not After : Sep  9 23:01:43 2016 GMT
        Subject: C = US, ST = FL, CN = gov.us
        Subject Public Key Info:
            Public Key Algorithm: rsaEncryption
                Public-Key: (2048 bit)
                Modulus:
                    00:d8:53:ff:cd:27:04:b7:85:ea:b9:c8:9f:30:5c:
                    00:4b:ac:e7:40:22:de:03:b4:0a:bd:ee:b0:46:be:
                    22:2f:30:fe:b2:54:7a:b1:06:3b:6e:d3:c5:5d:16:
                    5f:4a:e8:dc:1c:f6:65:85:f7:31:13:6e:2a:69:6e:
                    2d:0d:b7:11:ff:83:6b:bc:ae:2e:90:d0:4c:ae:61:
                    4c:9a:42:6a:6f:8a:f3:e0:e4:f2:37:1c:5f:24:7d:
                    77:5d:18:35:84:53:5d:23:8e:41:ed:ee:c8:b0:a1:
                    39:0a:cd:94:a7:75:1b:1f:21:36:58:00:e7:6e:00:
                    6c:a0:7b:fe:2d:b5:86:16:f4:54:7c:a4:1f:10:37:
                    0a:64:53:0c:9a:8e:99:2a:5a:98:7c:f8:9d:ee:01:
                    28:31:a3:98:8e:8d:19:08:e4:e2:c2:32:94:66:19:
                    5e:4d:52:e4:e1:85:84:3a:73:18:4b:e7:8b:e7:aa:
                    1e:cf:40:88:7c:c7:97:d3:82:fc:68:c9:86:ba:19:
                    75:ad:09:d8:d9:ee:99:26:2c:1e:5a:45:b2:e4:51:
                    fe:02:77:3e:9e:b0:54:1e:da:94:04:94:0a:28:d3:
                    63:d8:61:ec:73:f0:8d:4c:16:d8:bf:10:ff:04:85:
                    f7:5e:84:c4:35:8b:15:c0:c3:50:07:d0:76:cb:c7:
                    de:5b
                Exponent: 65537 (0x10001)
        X509v3 extensions:
            X509v3 Key Usage: critical
                Digital Signature, Key Encipherment
            X509v3 Extended Key Usage: 
                TLS Web Client Authentication, TLS Web Server Authentication
            X509v3 Basic Constraints: critical
                CA:FALSE
            X509v3 Authority Key Identifier: 
                keyid:01:02:03

            Authority Information Access: 
                OCSP - URI:http://theca.net/ocsp
                CA Issuers - URI:http://theca.net/totallythecert.crt

            X509v3 Certificate Policies: 
                Policy: 2.23.140.1.2.1

            X509v3 Subject Key Identifier: 
                04:03:02:01
            X509v3 Subject Alternative Name: 
                DNS:*.gov.us, DNS:gov.us
    Signature Algorithm: sha256WithRSAEncryption
         c2:b0:34:27:f9:ac:db:1d:b3:28:a8:78:4e:33:6e:af:a7:a7:
         c4:ea:8c:a8:fe:bb:99:51:a0:d8:49:8b:fa:05:45:ce:3c:96:
         5e:42:ad:3c:05:fe:27:82:68:95:ad:36:80:97:6e:5a:3c:82:
         5a:1c:87:1c:cf:a1:85:42:d7:3c:ea:01:2a:16:98:6f:08:49:
         44:68:3e:f5:93:32:98:e5:fe:58:54:88:45:2e:05:76:3a:32:
         81:73:2b:0c:e0:72:95:61:96:a1:ef:93:11:d3:71:60:1e:ce:
         ba:ee:e9:f0:17:7c:e1:a9:da:fc:13:95:98:d0:f1:50:f5:82:
         49:74:14:89:cd:ec:77:a6:8a:b2:50:bb:42:b4:83:b5:9c:e6:
         b4:d9:19:76:02:1d:bb:de:2b:17:26:8c:89:2c:d3:14:76:b0:
         53:80:91:0e:14:53:f4:1f:2f:4c:54:99:90:13:9a:36:60:3c:
         1a:ef:a7:a0:a2:0d:ac:28:29:69:ad:09:86:49:ae:62:5c:e9:
         50:9b:c8:fc:ff:f7:eb:17:a2:71:f8:f9:cf:7e:4a:2b:3e:3d:
         d7:46:f7:e7:ea:a2:21:54:b0:c7:cb:55:8c:cc:b8:07:e0:28:
         e8:26:46:2b:f5:46:83:0f:6e:a9:68:fe:de:6b:55:04:6a:e7:
         70:cd:b9:ba
-----BEGIN CERTIFICATE-----
MIID8jCCAtqgAwIBAgIFBDFmk+0wDQYJKoZIhvcNAQELBQAwUjELMAkGA1UEBhMC
VVMxFjAUBgNVBAoTDU1vdGhlciBOYXR1cmUxEzARBgNVBAsTCkV2ZXJ5dGhpbmcx
FjAUBgNVBAMTDU1vdGhlciBOYXR1cmUwHhcNMTYwNjI4MjMwMTQzWhcNMTYwOTA5
MjMwMTQzWjArMQswCQYDVQQGEwJVUzELMAkGA1UECBMCRkwxDzANBgNVBAMTBmdv
di51czCCASIwDQYJKoZIhvcNAQEBBQADggEPADCCAQoCggEBANhT/80nBLeF6rnI
nzBcAEus50Ai3gO0Cr3usEa+Ii8w/rJUerEGO27TxV0WX0ro3Bz2ZYX3MRNuKmlu
LQ23Ef+Da7yuLpDQTK5hTJpCam+K8+Dk8jccXyR9d10YNYRTXSOOQe3uyLChOQrN
lKd1Gx8hNlgA524AbKB7/i21hhb0VHykHxA3CmRTDJqOmSpamHz4ne4BKDGjmI6N
GQjk4sIylGYZXk1S5OGFhDpzGEvni+eqHs9AiHzHl9OC/GjJhroZda0J2NnumSYs
HlpFsuRR/gJ3Pp6wVB7alASUCijTY9hh7HPwjUwW2L8Q/wSF916ExDWLFcDDUAfQ
dsvH3lsCAwEAAaOB9TCB8jAOBgNVHQ8BAf8EBAMCBaAwHQYDVR0lBBYwFAYIKwYB
BQUHAwIGCCsGAQUFBwMBMAwGA1UdEwEB/wQCMAAwDgYDVR0jBAcwBYADAQIDMGIG
CCsGAQUFBwEBBFYwVDAhBggrBgEFBQcwAYYVaHR0cDovL3RoZWNhLm5ldC9vY3Nw
MC8GCCsGAQUFBzAChiNodHRwOi8vdGhlY2EubmV0L3RvdGFsbHl0aGVjZXJ0LmNy
dDATBgNVHSAEDDAKMAgGBmeBDAECATANBgNVHQ4EBgQEBAMCATAbBgNVHREEFDAS
gggqLmdvdi51c4IGZ292LnVzMA0GCSqGSIb3DQEBCwUAA4IBAQDCsDQn+azbHbMo
qHhOM26vp6fE6oyo/ruZUaDYSYv6BUXOPJZeQq08Bf4ngmiVrTaAl25aPIJaHIcc
z6GFQtc86gEqFphvCElEaD71kzKY5f5YVIhFLgV2OjKBcysM4HKVYZah75MR03Fg
Hs667unwF3zhqdr8E5WY0PFQ9YJJdBSJzex3poqyULtCtIO1nOa02Rl2Ah273isX
JoyJLNMUdrBTgJEOFFP0Hy9MVJmQE5o2YDwa76egog2sKClprQmGSa5iXOlQm8j8
//frF6Jx+PnPfkorPj3XRvfn6qIhVLDHy1WMzLgH4CjoJkYr9UaDD26paP7ea1UE
audwzbm6
-----END CERTIFICATE-----
