Certificate:
    Data:
        Version: 3 (0x2)
        Serial Number: 3 (0x3)
        Signature Algorithm: ecdsa-with-SHA256
        Issuer: 
        Validity
            Not Before: Sep  2 00:00:00 2023 GMT
            Not After : Nov 30 00:00:00 9998 GMT
        Subject: CN = brains@tracyisland.com
        Subject Public Key Info:
            Public Key Algorithm: id-ecPublicKey
                Public-Key: (256 bit)
                pub:
                    04:0d:74:25:fa:6f:5f:3a:2f:ff:16:bf:a3:be:f1:
                    02:ac:59:ed:e9:22:4e:5e:31:11:31:89:d1:2e:7c:
                    c6:df:e0:43:65:8a:24:aa:67:83:ae:82:46:16:e8:
                    66:1a:ce:b2:e7:55:ef:63:7c:d7:13:ac:ca:27:dc:
                    c8:3e:cf:1f:bd
                ASN1 OID: prime256v1
                NIST CURVE: P-256
        X509v3 extensions:
            X509v3 Certificate Policies: 
                Policy: 2.23.140.1.2.1

    Signature Algorithm: ecdsa-with-SHA256
         30:44:02:20:66:73:1c:1f:93:6b:bb:2c:3a:80:49:42:3d:28:
         be:18:ab:87:71:8c:60:b5:17:c6:07:3d:e0:bc:0d:5c:d4:1c:
         02:20:71:11:4a:e7:31:97:c3:27:e6:ed:52:2e:60:cc:86:89:
         c1:1e:47:c0:9b:ac:cf:65:31:a8:f4:a4:15:6e:a6:32
-----BEGIN CERTIFICATE-----
MIIBJzCBz6ADAgECAgEDMAoGCCqGSM49BAMCMAAwIBcNMjMwOTAyMDAwMDAwWhgP
OTk5ODExMzAwMDAwMDBaMCExHzAdBgNVBAMMFmJyYWluc0B0cmFjeWlzbGFuZC5j
b20wWTATBgcqhkjOPQIBBggqhkjOPQMBBwNCAAQNdCX6b186L/8Wv6O+8QKsWe3p
Ik5eMRExidEufMbf4ENliiSqZ4OugkYW6GYazrLnVe9jfNcTrMon3Mg+zx+9oxcw
FTATBgNVHSAEDDAKMAgGBmeBDAECATAKBggqhkjOPQQDAgNHADBEAiBmcxwfk2u7
LDqASUI9KL4Yq4dxjGC1F8YHPeC8DVzUHAIgcRFK5zGXwyfm7VIuYMyGicEeR8Cb
rM9lMaj0pBVupjI=
-----END CERTIFICATE-----