Certificate:
    Data:
        Version: 3 (0x2)
        Serial Number: 18008675309 (0x4316693ed)
        Signature Algorithm: sha256WithRSAEncryption
        Issuer: C = US, O = Mother Nature, OU = Everything, CN = Mother Nature
        Validity
            Not Before: Sep 14 23:59:59 2023 GMT
            Not After : Dec  8 22:54:44 2023 GMT
        Subject: C = US, L = Tallahassee, CN = gov.us
        Subject Public Key Info:
            Public Key Algorithm: rsaEncryption
                Public-Key: (2048 bit)
                Modulus:
                    00:bd:a8:dd:8d:ce:32:61:a7:84:ef:8a:49:04:8f:
                    e7:16:74:fd:9d:fe:23:54:41:dc:7b:a9:68:fd:d2:
                    04:57:bc:66:1e:18:1e:32:c5:c6:87:01:be:6a:5d:
                    51:70:5a:f1:39:94:40:e5:e2:af:e2:2e:a1:20:c4:
                    d8:2c:ac:04:65:93:c3:49:d3:2e:ef:1e:a0:9e:cf:
                    f2:50:62:1b:4e:e4:35:9e:f3:de:c5:f2:9d:1c:8f:
                    2c:2e:6f:e4:c8:25:34:3c:30:50:8b:e6:27:e8:a4:
                    92:92:b9:8c:01:f5:47:a7:c1:90:8b:7b:2a:f5:2b:
                    83:85:30:f9:47:65:03:7a:d8:58:19:ff:dd:2d:ce:
                    c1:d6:35:a1:d1:bb:14:1b:e2:99:23:3e:90:3d:fa:
                    b1:6c:3e:75:c5:98:b3:a4:3d:63:c8:a6:af:1c:90:
                    af:22:86:c3:94:c8:eb:c6:24:a1:b6:ab:f8:29:cd:
                    00:1d:6e:46:5f:d9:60:83:5d:97:26:82:f2:a8:ea:
                    ab:4b:78:a3:50:58:0c:4b:6c:11:eb:bd:00:81:b7:
                    0a:b1:b7:1b:d4:3b:38:2d:e0:86:5c:8c:27:03:d0:
                    e5:a1:75:7d:d5:3b:0c:d6:2e:5c:d4:76:28:b0:ba:
                    4f:78:25:6d:1f:b2:73:5a:18:d3:12:ef:ae:5c:b4:
                    11:b1
                Exponent: 65537 (0x10001)
        X509v3 extensions:
            X509v3 Key Usage: critical
                Digital Signature, Key Encipherment
            X509v3 Extended Key Usage: 
                TLS Web Client Authentication, TLS Web Server Authentication
            X509v3 Basic Constraints: critical
                CA:FALSE
            X509v3 Authority Key Identifier: 
                01:02:03
            Authority Information Access: 
                OCSP - URI:http://theca.net/ocsp
                CA Issuers - URI:http://theca.net/totallythecert.crt
            X509v3 Certificate Policies: 
                Policy: 2.23.140.1.2.1
            X509v3 Subject Key Identifier: 
                04:03:02:01
            X509v3 Subject Alternative Name: 
                DNS:*.gov.us, DNS:gov.us
    Signature Algorithm: sha256WithRSAEncryption
    Signature Value:
        80:07:f7:35:16:6c:24:46:6c:df:f7:cc:17:89:35:90:2f:5a:
        48:55:77:1d:d5:19:03:d7:a5:a4:0b:d0:6f:0b:09:b2:4d:af:
        a9:f3:39:0d:66:92:6b:15:29:d3:76:fe:5b:16:48:f4:c3:b3:
        fc:f6:33:ae:98:44:9c:ff:cb:6a:74:69:13:38:14:73:5f:55:
        62:5e:d3:d5:2a:ae:f4:91:bf:14:52:dc:bb:be:bf:2f:ba:a5:
        e0:57:f0:aa:a2:7d:3e:3c:6c:8c:9b:c2:56:79:1a:6d:18:f7:
        77:89:aa:1e:a9:77:04:b9:3a:0f:63:f3:57:a2:88:5d:de:45:
        12:c0:fa:6a:99:cb:24:38:91:5d:cb:8f:c1:fc:0d:df:db:e6:
        dc:36:3c:91:60:37:32:d7:2c:95:12:a5:98:52:40:cb:99:46:
        17:fd:36:ca:f1:6e:1a:4c:af:60:7c:68:f4:1f:5a:7c:25:ee:
        2b:1e:7b:c5:4e:49:e1:d5:03:39:72:3f:a9:66:26:30:9d:27:
        0d:01:1f:18:64:d4:15:5e:a6:c8:fd:20:7a:36:77:b5:98:8b:
        7f:ae:ff:35:2d:75:94:e3:a6:91:32:4e:5b:e8:b3:36:fa:4b:
        1b:54:5f:c6:0d:9d:64:75:43:c6:be:7a:a6:e7:df:be:63:d4:
        c5:6e:e5:54
-----BEGIN CERTIFICATE-----
MIID+zCCAuOgAwIBAgIFBDFmk+0wDQYJKoZIhvcNAQELBQAwUjELMAkGA1UEBhMC
VVMxFjAUBgNVBAoTDU1vdGhlciBOYXR1cmUxEzARBgNVBAsTCkV2ZXJ5dGhpbmcx
FjAUBgNVBAMTDU1vdGhlciBOYXR1cmUwHhcNMjMwOTE0MjM1OTU5WhcNMjMxMjA4
MjI1NDQ0WjA0MQswCQYDVQQGEwJVUzEUMBIGA1UEBxMLVGFsbGFoYXNzZWUxDzAN
BgNVBAMTBmdvdi51czCCASIwDQYJKoZIhvcNAQEBBQADggEPADCCAQoCggEBAL2o
3Y3OMmGnhO+KSQSP5xZ0/Z3+I1RB3HupaP3SBFe8Zh4YHjLFxocBvmpdUXBa8TmU
QOXir+IuoSDE2CysBGWTw0nTLu8eoJ7P8lBiG07kNZ7z3sXynRyPLC5v5MglNDww
UIvmJ+ikkpK5jAH1R6fBkIt7KvUrg4Uw+UdlA3rYWBn/3S3OwdY1odG7FBvimSM+
kD36sWw+dcWYs6Q9Y8imrxyQryKGw5TI68Ykobar+CnNAB1uRl/ZYINdlyaC8qjq
q0t4o1BYDEtsEeu9AIG3CrG3G9Q7OC3ghlyMJwPQ5aF1fdU7DNYuXNR2KLC6T3gl
bR+yc1oY0xLvrly0EbECAwEAAaOB9TCB8jAOBgNVHQ8BAf8EBAMCBaAwHQYDVR0l
BBYwFAYIKwYBBQUHAwIGCCsGAQUFBwMBMAwGA1UdEwEB/wQCMAAwDgYDVR0jBAcw
BYADAQIDMGIGCCsGAQUFBwEBBFYwVDAhBggrBgEFBQcwAYYVaHR0cDovL3RoZWNh
Lm5ldC9vY3NwMC8GCCsGAQUFBzAChiNodHRwOi8vdGhlY2EubmV0L3RvdGFsbHl0
aGVjZXJ0LmNydDATBgNVHSAEDDAKMAgGBmeBDAECATANBgNVHQ4EBgQEBAMCATAb
BgNVHREEFDASgggqLmdvdi51c4IGZ292LnVzMA0GCSqGSIb3DQEBCwUAA4IBAQCA
B/c1FmwkRmzf98wXiTWQL1pIVXcd1RkD16WkC9BvCwmyTa+p8zkNZpJrFSnTdv5b
Fkj0w7P89jOumESc/8tqdGkTOBRzX1ViXtPVKq70kb8UUty7vr8vuqXgV/Cqon0+
PGyMm8JWeRptGPd3iaoeqXcEuToPY/NXoohd3kUSwPpqmcskOJFdy4/B/A3f2+bc
NjyRYDcy1yyVEqWYUkDLmUYX/TbK8W4aTK9gfGj0H1p8Je4rHnvFTknh1QM5cj+p
ZiYwnScNAR8YZNQVXqbI/SB6Nne1mIt/rv81LXWU46aRMk5b6LM2+ksbVF/GDZ1k
dUPGvnqm59++Y9TFbuVU
-----END CERTIFICATE-----
