Certificate:
    Data:
        Version: 3 (0x2)
        Serial Number: 18008675309 (0x4316693ed)
        Signature Algorithm: sha256WithRSAEncryption
        Issuer: C = US, O = Mother Nature, OU = Everything, CN = Mother Nature
        Validity
            Not Before: Sep 15 00:00:00 2023 GMT
            Not After : Dec  8 22:41:05 2023 GMT
        Subject: C = US, O = Extreme Discord, CN = gov.us
        Subject Public Key Info:
            Public Key Algorithm: rsaEncryption
                Public-Key: (2048 bit)
                Modulus:
                    00:e7:4d:6c:ec:b2:20:0c:96:8b:87:ff:fd:77:fd:
                    47:b5:48:b3:60:0a:9a:a9:f7:ce:06:55:4e:dd:d8:
                    d8:26:0e:6c:29:fe:41:8f:43:64:cf:93:2c:3a:ee:
                    e0:b4:83:02:43:26:4e:c8:4e:0b:10:cb:ba:06:1d:
                    46:b6:44:62:8f:5f:fb:14:ec:99:37:a0:71:e2:12:
                    b8:b9:dc:00:66:e0:3b:c0:25:59:b9:b1:85:82:0d:
                    d7:a4:93:08:cc:fe:b0:f3:e8:7b:97:bf:73:36:24:
                    b7:96:6a:39:93:8e:a4:05:cb:58:b2:a8:3b:cf:dd:
                    a4:1b:ae:e9:51:b7:2c:fb:49:22:3c:0d:fd:d0:bb:
                    f9:12:76:b8:94:cf:1e:7f:fb:c5:9c:7b:46:f5:cd:
                    07:dc:1f:19:aa:ec:e8:a2:6f:cb:94:ab:fd:6c:30:
                    af:fe:55:55:b0:35:48:b3:c7:52:7f:d5:65:31:08:
                    84:3c:b3:a2:1c:00:71:70:fc:02:ee:0f:60:5a:22:
                    f6:cb:b1:ee:0a:67:1d:93:0a:86:77:ba:63:bd:9e:
                    1d:1a:3b:12:37:42:77:2b:d3:a9:f8:b0:8a:d4:c9:
                    d9:9d:a3:bd:ea:3b:06:da:64:01:00:c4:c5:6b:df:
                    e0:ec:02:44:c0:70:bf:04:bb:30:aa:f3:0f:6b:9a:
                    d6:d5
                Exponent: 65537 (0x10001)
        X509v3 extensions:
            X509v3 Key Usage: critical
                Digital Signature, Key Encipherment
            X509v3 Extended Key Usage: 
                TLS Web Client Authentication, TLS Web Server Authentication
            X509v3 Basic Constraints: critical
                CA:FALSE
            X509v3 Authority Key Identifier: 
                01:02:03
            Authority Information Access: 
                OCSP - URI:http://theca.net/ocsp
                CA Issuers - URI:http://theca.net/totallythecert.crt
            X509v3 Certificate Policies: 
                Policy: 2.23.140.1.2.1
            X509v3 Subject Key Identifier: 
                04:03:02:01
            X509v3 Subject Alternative Name: 
                DNS:*.gov.us, DNS:gov.us
    Signature Algorithm: sha256WithRSAEncryption
    Signature Value:
        3a:2c:fc:a7:d8:42:36:f9:aa:06:4f:13:ae:1f:43:8f:2e:31:
        17:35:ff:58:46:4d:78:7e:d1:05:e5:1f:2e:8c:04:25:12:6d:
        8e:0c:df:ec:4d:7f:b6:a6:ef:06:31:7e:05:74:0c:37:f4:75:
        b5:d1:d1:78:61:f9:12:12:dd:53:fe:25:9c:94:6e:5f:49:00:
        94:39:11:a8:41:1e:17:ca:e2:0e:02:3f:62:14:83:ba:18:23:
        26:c0:cf:c6:52:da:1d:8b:db:4c:d7:49:9c:9f:9e:5f:10:a4:
        79:be:bb:b9:eb:39:0e:2e:2f:fb:c9:a6:7e:4b:30:84:46:80:
        6a:89:0f:1c:69:c3:e3:7f:cb:c4:41:39:8d:7e:92:c2:67:f8:
        a1:9c:b8:45:fd:cb:2b:ae:ab:c2:97:55:df:bd:57:4d:88:7d:
        b7:1d:55:45:ff:4d:cb:cd:1b:d8:83:65:5b:50:43:4e:77:f5:
        8b:bf:3d:fb:9e:a1:2b:9d:e0:d7:a0:88:e8:1d:3d:0e:16:15:
        ab:d6:f7:dd:11:5c:2a:2a:c1:bf:f0:f0:95:7f:9c:07:63:e0:
        03:23:30:d2:d2:12:75:ad:b6:bd:08:11:4a:62:b3:94:3e:d9:
        53:68:5d:d9:f8:8c:01:6e:37:d7:51:a3:f4:49:6a:45:38:8a:
        68:53:16:61
-----BEGIN CERTIFICATE-----
MIID/zCCAuegAwIBAgIFBDFmk+0wDQYJKoZIhvcNAQELBQAwUjELMAkGA1UEBhMC
VVMxFjAUBgNVBAoTDU1vdGhlciBOYXR1cmUxEzARBgNVBAsTCkV2ZXJ5dGhpbmcx
FjAUBgNVBAMTDU1vdGhlciBOYXR1cmUwHhcNMjMwOTE1MDAwMDAwWhcNMjMxMjA4
MjI0MTA1WjA4MQswCQYDVQQGEwJVUzEYMBYGA1UEChMPRXh0cmVtZSBEaXNjb3Jk
MQ8wDQYDVQQDEwZnb3YudXMwggEiMA0GCSqGSIb3DQEBAQUAA4IBDwAwggEKAoIB
AQDnTWzssiAMlouH//13/Ue1SLNgCpqp984GVU7d2NgmDmwp/kGPQ2TPkyw67uC0
gwJDJk7ITgsQy7oGHUa2RGKPX/sU7Jk3oHHiEri53ABm4DvAJVm5sYWCDdekkwjM
/rDz6HuXv3M2JLeWajmTjqQFy1iyqDvP3aQbrulRtyz7SSI8Df3Qu/kSdriUzx5/
+8Wce0b1zQfcHxmq7Oiib8uUq/1sMK/+VVWwNUizx1J/1WUxCIQ8s6IcAHFw/ALu
D2BaIvbLse4KZx2TCoZ3umO9nh0aOxI3Qncr06n4sIrUydmdo73qOwbaZAEAxMVr
3+DsAkTAcL8EuzCq8w9rmtbVAgMBAAGjgfUwgfIwDgYDVR0PAQH/BAQDAgWgMB0G
A1UdJQQWMBQGCCsGAQUFBwMCBggrBgEFBQcDATAMBgNVHRMBAf8EAjAAMA4GA1Ud
IwQHMAWAAwECAzBiBggrBgEFBQcBAQRWMFQwIQYIKwYBBQUHMAGGFWh0dHA6Ly90
aGVjYS5uZXQvb2NzcDAvBggrBgEFBQcwAoYjaHR0cDovL3RoZWNhLm5ldC90b3Rh
bGx5dGhlY2VydC5jcnQwEwYDVR0gBAwwCjAIBgZngQwBAgEwDQYDVR0OBAYEBAQD
AgEwGwYDVR0RBBQwEoIIKi5nb3YudXOCBmdvdi51czANBgkqhkiG9w0BAQsFAAOC
AQEAOiz8p9hCNvmqBk8Trh9Djy4xFzX/WEZNeH7RBeUfLowEJRJtjgzf7E1/tqbv
BjF+BXQMN/R1tdHReGH5EhLdU/4lnJRuX0kAlDkRqEEeF8riDgI/YhSDuhgjJsDP
xlLaHYvbTNdJnJ+eXxCkeb67ues5Di4v+8mmfkswhEaAaokPHGnD43/LxEE5jX6S
wmf4oZy4Rf3LK66rwpdV371XTYh9tx1VRf9Ny80b2INlW1BDTnf1i789+56hK53g
16CI6B09DhYVq9b33RFcKirBv/DwlX+cB2PgAyMw0tISda22vQgRSmKzlD7ZU2hd
2fiMAW4311Gj9ElqRTiKaFMWYQ==
-----END CERTIFICATE-----
