Certificate:
    Data:
        Version: 3 (0x2)
        Serial Number: 18008675309 (0x4316693ed)
        Signature Algorithm: sha256WithRSAEncryption
        Issuer: C = US, O = Mother Nature, OU = Everything, CN = Mother Nature
        Validity
            Not Before: Sep 14 23:59:59 2023 GMT
            Not After : Dec  8 22:53:17 2023 GMT
        Subject: C = US, postalCode = 30062, CN = gov.us
        Subject Public Key Info:
            Public Key Algorithm: rsaEncryption
                Public-Key: (2048 bit)
                Modulus:
                    00:b6:50:21:a6:87:fe:c2:b0:69:98:a0:eb:47:01:
                    77:e2:e3:1f:33:2d:dd:61:be:63:c5:b6:90:5e:85:
                    6c:67:a6:84:61:cc:58:0a:34:75:f6:81:c0:19:0f:
                    1b:cc:b8:a6:25:2c:ff:41:27:65:f5:19:c5:5a:12:
                    1e:73:55:68:61:36:8c:4f:f7:5d:a4:ba:9a:37:ea:
                    73:9e:6d:d9:3f:44:00:23:3c:31:ae:07:f5:0c:94:
                    fa:35:d3:f0:53:66:e5:b3:ab:3e:fa:8c:c8:32:5f:
                    97:3e:ec:bc:06:7c:89:12:87:38:6e:ba:b1:f3:6c:
                    97:56:98:be:05:9a:b8:0a:5b:c5:25:2d:d7:60:26:
                    04:d0:ce:21:2a:7b:25:6c:5c:9d:e2:a6:46:44:8e:
                    9e:4c:7b:2e:62:3b:f0:83:ad:df:82:fe:82:79:46:
                    f4:49:1f:d5:c2:cb:ef:18:88:2d:0e:99:1b:20:05:
                    41:eb:0b:b3:e7:3b:7e:6d:3b:90:07:40:0f:6c:55:
                    75:e1:19:e0:09:85:f8:ae:be:f2:b6:0f:c3:e1:9b:
                    8e:9b:97:88:7c:cf:46:a0:4d:ad:71:a4:40:df:0c:
                    34:6a:dd:37:cf:7e:0a:44:64:35:9d:3b:af:fa:00:
                    44:ce:11:4c:7f:c3:65:7f:f3:53:02:20:d1:a6:47:
                    ce:b5
                Exponent: 65537 (0x10001)
        X509v3 extensions:
            X509v3 Key Usage: critical
                Digital Signature, Key Encipherment
            X509v3 Extended Key Usage: 
                TLS Web Client Authentication, TLS Web Server Authentication
            X509v3 Basic Constraints: critical
                CA:FALSE
            X509v3 Authority Key Identifier: 
                01:02:03
            Authority Information Access: 
                OCSP - URI:http://theca.net/ocsp
                CA Issuers - URI:http://theca.net/totallythecert.crt
            X509v3 Certificate Policies: 
                Policy: 2.23.140.1.2.1
            X509v3 Subject Key Identifier: 
                04:03:02:01
            X509v3 Subject Alternative Name: 
                DNS:*.gov.us, DNS:gov.us
    Signature Algorithm: sha256WithRSAEncryption
    Signature Value:
        1b:67:cb:aa:ba:47:9e:f8:0c:e0:05:73:ff:9b:bf:02:61:08:
        24:31:dd:6f:69:b7:25:96:9b:c6:82:7e:1d:38:86:57:4d:68:
        39:b0:9b:e1:02:17:a7:69:ca:97:93:1c:d3:4b:9f:f1:2d:c1:
        83:0e:41:ce:02:28:f6:24:cd:8e:40:95:30:e1:c6:88:20:79:
        8e:99:ea:3b:4a:50:c2:a1:df:85:ec:d8:1b:9c:49:1b:01:66:
        e5:c2:a1:a7:01:1f:18:e8:17:7f:d7:83:70:b7:0d:6c:48:36:
        d2:8c:ed:cd:9e:3a:b3:76:a6:75:ea:a3:95:d7:11:c2:6a:3b:
        be:b6:9c:74:a9:96:f1:f5:79:58:9f:56:32:0e:28:92:c7:0f:
        37:a3:46:07:b5:bf:4e:75:02:9d:cc:da:4c:c7:da:49:49:55:
        87:47:59:33:7c:d5:2d:70:2e:3b:2c:df:63:8d:58:fc:c8:67:
        f5:3a:d2:e4:09:53:03:1c:17:3f:1f:27:af:d8:e3:ab:41:e1:
        5a:ef:31:7b:c9:05:4f:ce:cc:ba:c3:c4:89:2a:a2:4e:9a:22:
        d7:b3:22:d3:12:56:8c:75:d6:40:fd:02:bf:94:59:f7:c6:e7:
        fd:e3:3b:7d:72:f8:0c:d2:d5:ab:6c:dd:ca:8c:41:a3:e4:80:
        d8:59:6e:9c
-----BEGIN CERTIFICATE-----
MIID9TCCAt2gAwIBAgIFBDFmk+0wDQYJKoZIhvcNAQELBQAwUjELMAkGA1UEBhMC
VVMxFjAUBgNVBAoTDU1vdGhlciBOYXR1cmUxEzARBgNVBAsTCkV2ZXJ5dGhpbmcx
FjAUBgNVBAMTDU1vdGhlciBOYXR1cmUwHhcNMjMwOTE0MjM1OTU5WhcNMjMxMjA4
MjI1MzE3WjAuMQswCQYDVQQGEwJVUzEOMAwGA1UEERMFMzAwNjIxDzANBgNVBAMT
Bmdvdi51czCCASIwDQYJKoZIhvcNAQEBBQADggEPADCCAQoCggEBALZQIaaH/sKw
aZig60cBd+LjHzMt3WG+Y8W2kF6FbGemhGHMWAo0dfaBwBkPG8y4piUs/0EnZfUZ
xVoSHnNVaGE2jE/3XaS6mjfqc55t2T9EACM8Ma4H9QyU+jXT8FNm5bOrPvqMyDJf
lz7svAZ8iRKHOG66sfNsl1aYvgWauApbxSUt12AmBNDOISp7JWxcneKmRkSOnkx7
LmI78IOt34L+gnlG9Ekf1cLL7xiILQ6ZGyAFQesLs+c7fm07kAdAD2xVdeEZ4AmF
+K6+8rYPw+GbjpuXiHzPRqBNrXGkQN8MNGrdN89+CkRkNZ07r/oARM4RTH/DZX/z
UwIg0aZHzrUCAwEAAaOB9TCB8jAOBgNVHQ8BAf8EBAMCBaAwHQYDVR0lBBYwFAYI
KwYBBQUHAwIGCCsGAQUFBwMBMAwGA1UdEwEB/wQCMAAwDgYDVR0jBAcwBYADAQID
MGIGCCsGAQUFBwEBBFYwVDAhBggrBgEFBQcwAYYVaHR0cDovL3RoZWNhLm5ldC9v
Y3NwMC8GCCsGAQUFBzAChiNodHRwOi8vdGhlY2EubmV0L3RvdGFsbHl0aGVjZXJ0
LmNydDATBgNVHSAEDDAKMAgGBmeBDAECATANBgNVHQ4EBgQEBAMCATAbBgNVHREE
FDASgggqLmdvdi51c4IGZ292LnVzMA0GCSqGSIb3DQEBCwUAA4IBAQAbZ8uqukee
+AzgBXP/m78CYQgkMd1vabcllpvGgn4dOIZXTWg5sJvhAhenacqXkxzTS5/xLcGD
DkHOAij2JM2OQJUw4caIIHmOmeo7SlDCod+F7NgbnEkbAWblwqGnAR8Y6Bd/14Nw
tw1sSDbSjO3NnjqzdqZ16qOV1xHCaju+tpx0qZbx9XlYn1YyDiiSxw83o0YHtb9O
dQKdzNpMx9pJSVWHR1kzfNUtcC47LN9jjVj8yGf1OtLkCVMDHBc/Hyev2OOrQeFa
7zF7yQVPzsy6w8SJKqJOmiLXsyLTElaMddZA/QK/lFn3xuf94zt9cvgM0tWrbN3K
jEGj5IDYWW6c
-----END CERTIFICATE-----
