Certificate:
    Data:
        Version: 3 (0x2)
        Serial Number:
            38:b2:d1:9c:ba:f1:a8:78:c1:14:3d:70:2c:36:80:08:91:5d:c1:e9
        Signature Algorithm: dsa_with_SHA256
        Issuer: C = AU, ST = Some-State, O = Internet Widgits Pty Ltd
        Validity
            Not Before: Mar  1 09:21:21 2021 GMT
            Not After : Mar  1 09:21:21 2022 GMT
        Subject: C = AU, ST = Some-State, O = Internet Widgits Pty Ltd
        Subject Public Key Info:
            Public Key Algorithm: dsaEncryption
                pub: 
                    3f:05:98:ef:60:dd:27:5d:bd:95:fc:dd:17:60:07:
                    f3:49:5b:3f:18:e3:b1:2c:09:39:98:7e:41:c0:00:
                    14:8e:02:0c:e9:fd:00:1a:eb:62:f4:6c:25:39:af:
                    3f:55:82:5a:84:db:d2:cb:fe:7f:93:11:04:fe:62:
                    1e:59:88:5a:a8:d5:3d:18:8d:d3:f7:87:07:db:2b:
                    8b:99:c5:69:58:76:bc:bb:a4:ba:a4:5b:86:cb:77:
                    84:56:a8:6c:b8:6b:51:d5:9c:30:a2:64:d6:df:66:
                    89:84:28:b7:75:6c:54:2a:5a:54:98:16:4f:ee:e0:
                    db:60:03:ed:33:32:d5:d1
                P:   
                    00:93:1d:08:80:23:3a:ec:e9:e2:b8:16:fb:0e:2d:
                    ae:cc:2b:04:4e:61:31:f4:01:d7:84:26:6b:16:fd:
                    f1:29:92:bb:09:8f:19:f1:08:ce:43:95:f3:23:85:
                    9e:7d:fd:19:c8:8c:2e:75:c9:76:ca:76:c4:ec:61:
                    ec:39:ef:e7:45:12:46:83:b7:26:43:69:26:b7:9a:
                    36:ac:ac:5e:d9:a0:2c:d5:5b:ed:16:53:91:2e:10:
                    b5:42:28:23:cf:6d:6b:80:05:7c:88:fe:2d:a1:fb:
                    a5:21:64:21:42:30:3a:9f:76:c5:cf:cd:f6:d7:9d:
                    c4:da:1a:66:78:f7:d8:cd:e3
                Q:   
                    00:d1:3f:59:5a:85:e4:b5:5f:e6:f4:c4:b5:80:90:
                    a9:79:c0:3f:21:2d
                G:   
                    29:cc:97:23:23:24:68:27:7f:26:e5:14:83:24:66:
                    1b:0d:2f:54:09:9c:da:8b:bd:d4:55:f3:f6:fa:f3:
                    3e:72:b9:9e:d4:9b:04:35:8d:82:21:3d:6e:f4:c3:
                    a7:0e:d4:f6:04:d0:48:14:d6:0f:f6:9c:83:07:ed:
                    af:3d:49:c5:96:be:bb:01:98:79:74:69:d1:54:22:
                    ef:cd:b6:8a:02:8c:8a:ba:63:25:39:57:6e:9d:5d:
                    07:7b:d6:1b:4a:bb:64:96:cb:58:ea:18:e9:98:c5:
                    12:3e:55:1d:c7:8a:7c:1b:dd:06:4d:ec:12:ef:13:
                    8b:e6:3a:98:15:9f:a8:98
        X509v3 extensions:
            X509v3 Subject Key Identifier: 
                6A:40:8A:C4:C8:37:F3:7C:AF:CB:04:45:33:C0:11:90:1C:F7:B2:44
            X509v3 Authority Key Identifier: 
                keyid:6A:40:8A:C4:C8:37:F3:7C:AF:CB:04:45:33:C0:11:90:1C:F7:B2:44

            X509v3 Basic Constraints: critical
                CA:TRUE
    Signature Algorithm: dsa_with_SHA256
         r:   
             6d:95:22:aa:9e:7d:7c:8f:5e:6b:a5:d3:ca:94:69:
             96:7d:74:9b:d9
         s:   
             19:c2:b1:ff:b1:e9:7e:2f:6b:b0:2d:a5:0a:dc:81:
             d9:0b:77:a0:35
-----BEGIN CERTIFICATE-----
MIIDJzCCAuWgAwIBAgIUOLLRnLrxqHjBFD1wLDaACJFdwekwCwYJYIZIAWUDBAMC
MEUxCzAJBgNVBAYTAkFVMRMwEQYDVQQIDApTb21lLVN0YXRlMSEwHwYDVQQKDBhJ
bnRlcm5ldCBXaWRnaXRzIFB0eSBMdGQwHhcNMjEwMzAxMDkyMTIxWhcNMjIwMzAx
MDkyMTIxWjBFMQswCQYDVQQGEwJBVTETMBEGA1UECAwKU29tZS1TdGF0ZTEhMB8G
A1UECgwYSW50ZXJuZXQgV2lkZ2l0cyBQdHkgTHRkMIIBtjCCASsGByqGSM44BAEw
ggEeAoGBAJMdCIAjOuzp4rgW+w4trswrBE5hMfQB14Qmaxb98SmSuwmPGfEIzkOV
8yOFnn39GciMLnXJdsp2xOxh7Dnv50USRoO3JkNpJreaNqysXtmgLNVb7RZTkS4Q
tUIoI89ta4AFfIj+LaH7pSFkIUIwOp92xc/N9tedxNoaZnj32M3jAhUA0T9ZWoXk
tV/m9MS1gJCpecA/IS0CgYApzJcjIyRoJ38m5RSDJGYbDS9UCZzai73UVfP2+vM+
crme1JsENY2CIT1u9MOnDtT2BNBIFNYP9pyDB+2vPUnFlr67AZh5dGnRVCLvzbaK
AoyKumMlOVdunV0He9YbSrtklstY6hjpmMUSPlUdx4p8G90GTewS7xOL5jqYFZ+o
mAOBhAACgYA/BZjvYN0nXb2V/N0XYAfzSVs/GOOxLAk5mH5BwAAUjgIM6f0AGuti
9GwlOa8/VYJahNvSy/5/kxEE/mIeWYhaqNU9GI3T94cH2yuLmcVpWHa8u6S6pFuG
y3eEVqhsuGtR1ZwwomTW32aJhCi3dWxUKlpUmBZP7uDbYAPtMzLV0aNTMFEwHQYD
VR0OBBYEFGpAisTIN/N8r8sERTPAEZAc97JEMB8GA1UdIwQYMBaAFGpAisTIN/N8
r8sERTPAEZAc97JEMA8GA1UdEwEB/wQFMAMBAf8wCwYJYIZIAWUDBAMCAy8AMCwC
FG2VIqqefXyPXmul08qUaZZ9dJvZAhQZwrH/sel+L2uwLaUK3IHZC3egNQ==
-----END CERTIFICATE-----