Certificate:
    Data:
        Version: 3 (0x2)
        Serial Number:
            73:92:60:85:12:d5:e3:fe:d6:f9:88:69:e1:bc:82:11
        Signature Algorithm: sha256WithRSAEncryption
        Issuer: C = XX, O = Some CA, CN = Fake CA for zlint testing
        Validity
            Not Before: Jun  1 05:26:44 2024 GMT
            Not After : Jun  1 05:26:44 2025 GMT
        Subject: C = XX, ST = Some State or Province, L = Somewhere, CN = example.org, O = Some Company Ltd., O = Some Company GmbH
        Subject Public Key Info:
            Public Key Algorithm: rsaEncryption
                RSA Public-Key: (2048 bit)
                Modulus:
                    00:c2:f1:6a:14:30:23:7c:3c:c9:80:6a:52:90:0b:
                    4a:32:e8:08:50:3f:07:53:f7:bd:96:37:76:5d:95:
                    b5:3b:d6:2a:72:8c:c9:0b:1e:2a:41:e6:af:84:84:
                    7d:1f:8c:58:e5:d4:ed:b2:f2:f4:05:b0:68:be:43:
                    1e:fa:5d:b4:7b:87:75:50:ee:25:93:ff:b7:8a:47:
                    7b:a1:b7:47:20:be:97:cf:68:44:86:4d:ae:7a:f5:
                    e7:ac:e9:52:10:1f:ec:d1:97:0d:41:bf:e0:02:e9:
                    97:7f:07:92:ed:4d:6e:34:a3:a4:57:e9:7e:35:1c:
                    91:f1:50:2f:4b:00:80:78:04:33:4e:66:77:f7:b6:
                    e5:f5:64:7d:67:9e:da:68:d8:4d:80:59:7a:01:95:
                    ad:80:fc:95:b2:22:3d:5b:20:aa:0f:12:de:11:cb:
                    ea:9b:f3:66:ab:ca:87:56:a5:d1:35:e4:4c:1a:12:
                    02:8a:02:af:e1:e5:43:38:9b:f2:78:12:8e:59:95:
                    02:43:24:7c:9d:34:0e:fc:71:90:5b:f8:a0:e1:5d:
                    eb:05:50:77:ce:dd:15:0d:a0:d3:93:ba:8d:3a:1b:
                    09:95:72:02:a6:c9:5f:ea:a6:15:a9:cf:61:3c:20:
                    e4:28:3a:e2:62:86:20:e9:5d:d5:34:96:f2:84:42:
                    b7:03
                Exponent: 65537 (0x10001)
        X509v3 extensions:
            X509v3 Key Usage: critical
                Digital Signature, Key Encipherment
            X509v3 Extended Key Usage: 
                TLS Web Client Authentication, TLS Web Server Authentication
            X509v3 Subject Key Identifier: 
                C7:95:B8:5B:13:20:A0:1B:76:CC:B6:ED:5A:6A:0B:49:94:40:F8:50
            X509v3 Authority Key Identifier: 
                keyid:E8:B6:F6:76:4B:D0:3B:E5:46:A5:F9:54:D4:7E:07:B3:DE:0D:60:3E

            Authority Information Access: 
                OCSP - URI:http://ca.someca-inc.com/ocsp
                CA Issuers - URI:http://ca.someca-inc.com/root

            X509v3 Subject Alternative Name: 
                DNS:example.org
            X509v3 Certificate Policies: 
                Policy: 2.23.140.1.2.2

            X509v3 CRL Distribution Points: 

                Full Name:
                  URI:http://ca.someca-inc.com/crl

    Signature Algorithm: sha256WithRSAEncryption
         68:3c:24:4a:35:9f:3b:ca:45:d7:ca:f0:3b:33:02:b4:d9:b9:
         c6:5c:46:fa:95:7f:6c:4a:a9:73:33:7e:43:9c:70:70:e6:52:
         2a:5c:91:9a:67:58:46:b7:07:07:cc:51:b7:20:c4:37:4d:21:
         c4:c7:f3:ba:cc:e5:66:d9:72:79:c5:af:f5:99:ae:6c:80:2c:
         5a:ca:86:cb:f5:81:68:7d:be:0f:3e:bc:0f:0f:a5:d8:89:59:
         80:b6:94:15:f3:c1:2d:96:6c:23:94:f6:e9:21:d4:6f:1a:ef:
         b0:38:17:71:5c:44:7e:7a:2d:f0:1f:c8:ea:81:6a:4b:90:72:
         3f:df:51:90:1c:c6:60:43:71:01:ae:2a:da:d9:14:00:dd:9b:
         cf:cc:f5:6b:f3:ae:7c:7c:68:23:28:ee:c0:66:2b:6a:ac:51:
         ed:50:90:82:71:88:61:c9:0a:d7:d6:bb:30:e2:94:99:f0:47:
         de:fd:4f:83:ae:ca:59:95:81:2e:d3:9f:75:dc:e3:71:bc:0e:
         64:3e:ec:c7:d2:23:dd:64:b8:58:e9:24:66:45:56:19:45:1b:
         46:8f:25:c8:23:78:38:52:31:11:54:e3:7d:e6:be:e1:e1:47:
         be:d9:2a:3e:4a:e1:56:b7:1d:67:a4:d0:7b:37:19:ff:24:59:
         91:63:67:08
-----BEGIN CERTIFICATE-----
MIIElTCCA32gAwIBAgIQc5JghRLV4/7W+Yhp4byCETANBgkqhkiG9w0BAQsFADBD
MQswCQYDVQQGEwJYWDEQMA4GA1UEChMHU29tZSBDQTEiMCAGA1UEAxMZRmFrZSBD
QSBmb3IgemxpbnQgdGVzdGluZzAeFw0yNDA2MDEwNTI2NDRaFw0yNTA2MDEwNTI2
NDRaMIGQMQswCQYDVQQGEwJYWDEfMB0GA1UECBMWU29tZSBTdGF0ZSBvciBQcm92
aW5jZTESMBAGA1UEBxMJU29tZXdoZXJlMRQwEgYDVQQDEwtleGFtcGxlLm9yZzEa
MBgGA1UEChMRU29tZSBDb21wYW55IEx0ZC4xGjAYBgNVBAoTEVNvbWUgQ29tcGFu
eSBHbWJIMIIBIjANBgkqhkiG9w0BAQEFAAOCAQ8AMIIBCgKCAQEAwvFqFDAjfDzJ
gGpSkAtKMugIUD8HU/e9ljd2XZW1O9YqcozJCx4qQeavhIR9H4xY5dTtsvL0BbBo
vkMe+l20e4d1UO4lk/+3ikd7obdHIL6Xz2hEhk2uevXnrOlSEB/s0ZcNQb/gAumX
fweS7U1uNKOkV+l+NRyR8VAvSwCAeAQzTmZ397bl9WR9Z57aaNhNgFl6AZWtgPyV
siI9WyCqDxLeEcvqm/Nmq8qHVqXRNeRMGhICigKv4eVDOJvyeBKOWZUCQyR8nTQO
/HGQW/ig4V3rBVB3zt0VDaDTk7qNOhsJlXICpslf6qYVqc9hPCDkKDriYoYg6V3V
NJbyhEK3AwIDAQABo4IBNTCCATEwDgYDVR0PAQH/BAQDAgWgMB0GA1UdJQQWMBQG
CCsGAQUFBwMCBggrBgEFBQcDATAdBgNVHQ4EFgQUx5W4WxMgoBt2zLbtWmoLSZRA
+FAwHwYDVR0jBBgwFoAU6Lb2dkvQO+VGpflU1H4Hs94NYD4wZAYIKwYBBQUHAQEE
WDBWMCkGCCsGAQUFBzABhh1odHRwOi8vY2Euc29tZWNhLWluYy5jb20vb2NzcDAp
BggrBgEFBQcwAoYdaHR0cDovL2NhLnNvbWVjYS1pbmMuY29tL3Jvb3QwFgYDVR0R
BA8wDYILZXhhbXBsZS5vcmcwEwYDVR0gBAwwCjAIBgZngQwBAgIwLQYDVR0fBCYw
JDAioCCgHoYcaHR0cDovL2NhLnNvbWVjYS1pbmMuY29tL2NybDANBgkqhkiG9w0B
AQsFAAOCAQEAaDwkSjWfO8pF18rwOzMCtNm5xlxG+pV/bEqpczN+Q5xwcOZSKlyR
mmdYRrcHB8xRtyDEN00hxMfzuszlZtlyecWv9ZmubIAsWsqGy/WBaH2+Dz68Dw+l
2IlZgLaUFfPBLZZsI5T26SHUbxrvsDgXcVxEfnot8B/I6oFqS5ByP99RkBzGYENx
Aa4q2tkUAN2bz8z1a/OufHxoIyjuwGYraqxR7VCQgnGIYckK19a7MOKUmfBH3v1P
g67KWZWBLtOfddzjcbwOZD7sx9Ij3WS4WOkkZkVWGUUbRo8lyCN4OFIxEVTjfea+
4eFHvtkqPkrhVrcdZ6TQezcZ/yRZkWNnCA==
-----END CERTIFICATE-----
