Certificate:
    Data:
        Version: 3 (0x2)
        Serial Number:
            51:42:33:98:fc:13:24:17:9e:ab:c3:08:18:34:a2:86
        Signature Algorithm: sha256WithRSAEncryption
        Issuer: C = XX, O = Some CA, CN = Fake CA for zlint testing
        Validity
            Not Before: Nov 19 15:30:00 2022 GMT
            Not After : Nov 19 15:30:00 2023 GMT
        Subject: C = XX, ST = Some State or Province, L = Somewhere, CN = example.org, O = Some Company Ltd., O = Some Company GmbH
        Subject Public Key Info:
            Public Key Algorithm: rsaEncryption
                RSA Public-Key: (2048 bit)
                Modulus:
                    00:ba:65:b8:43:6b:63:15:67:15:59:be:0b:5a:63:
                    97:8f:3a:d3:55:01:4b:17:62:4d:be:4b:5c:8b:e3:
                    08:aa:48:06:3b:94:26:2e:bf:38:bf:b9:d1:c1:d3:
                    f1:55:68:d5:1f:b1:94:8e:cf:b2:59:f7:45:dd:b2:
                    2b:a1:76:63:c3:82:e7:a3:81:35:07:6e:77:d4:7b:
                    36:1a:88:15:dc:d6:9f:bd:53:f7:86:5d:68:b6:0b:
                    f3:13:11:10:c6:cc:90:df:73:ee:cd:5f:b0:16:a1:
                    0f:79:ec:52:af:6c:cd:b1:0e:1f:55:d9:88:eb:3b:
                    35:d6:2e:21:cd:8c:79:27:74:c5:14:dc:7f:11:95:
                    cd:e6:c5:87:42:de:dc:b2:74:88:67:c6:d1:2c:6f:
                    8e:22:e8:13:bf:4b:46:db:d2:0b:19:5b:c4:69:5f:
                    8e:03:03:55:13:89:7c:e6:a3:ff:74:5d:e5:5f:58:
                    77:5d:33:77:16:e1:7f:e9:9c:9c:1b:6a:b1:5e:5b:
                    e3:87:85:dc:50:cb:1b:15:c1:32:6a:ae:b7:52:56:
                    4d:0e:31:d6:c8:b0:38:b2:b4:93:32:c0:b5:0c:7f:
                    20:65:16:0c:54:e0:db:5d:5e:86:11:18:7b:55:a9:
                    07:ea:d4:fc:d9:52:4c:46:52:63:07:33:e4:6d:8f:
                    b5:07
                Exponent: 65537 (0x10001)
        X509v3 extensions:
            X509v3 Key Usage: critical
                Digital Signature, Key Encipherment
            X509v3 Extended Key Usage: 
                TLS Web Client Authentication, TLS Web Server Authentication
            X509v3 Subject Key Identifier: 
                F7:22:53:EF:82:AA:54:15:C8:B2:B6:4E:AA:FD:61:FC:16:5D:A3:08
            X509v3 Authority Key Identifier: 
                keyid:E8:B6:F6:76:4B:D0:3B:E5:46:A5:F9:54:D4:7E:07:B3:DE:0D:60:3E

            Authority Information Access: 
                OCSP - URI:http://ca.someca-inc.com/ocsp
                CA Issuers - URI:http://ca.someca-inc.com/root

            X509v3 Subject Alternative Name: 
                DNS:example.org
            X509v3 Certificate Policies: 
                Policy: 2.23.140.1.2.2

            X509v3 CRL Distribution Points: 

                Full Name:
                  URI:http://ca.someca-inc.com/crl

    Signature Algorithm: sha256WithRSAEncryption
         7a:08:65:8b:23:65:7d:2f:be:c6:cf:c0:52:ae:68:e4:3c:bb:
         d2:73:7c:61:c5:a5:d7:e4:85:f0:2b:66:73:4d:23:02:2b:af:
         bd:88:ac:c5:48:ae:9c:52:18:60:8d:54:a7:48:06:91:40:3e:
         a9:9d:e8:38:e1:29:21:68:9d:c5:c8:1d:2d:08:1e:18:26:1d:
         cc:f8:be:61:9a:20:f6:22:4a:9f:25:ef:33:b4:b7:83:e7:f2:
         82:75:8e:1c:50:95:67:a8:d7:4c:02:3c:32:bf:ad:9a:d7:d2:
         b2:b3:f1:ce:e6:5b:27:2d:c1:f0:17:a6:a3:9d:9a:b2:24:50:
         0f:99:cc:1d:2d:01:89:30:69:d2:db:6b:44:db:7b:26:2b:e7:
         60:d6:89:d6:9b:15:e1:9e:08:94:45:dc:c5:a9:69:fa:0f:b7:
         70:73:6f:ce:05:49:91:6d:4f:da:40:28:78:98:d0:ca:0c:f9:
         9b:62:c1:d1:6c:bf:c2:50:cf:58:29:dc:e3:6d:2c:8c:eb:75:
         a5:98:0a:b3:ab:57:d7:b3:0d:7a:ca:f2:ed:a1:e0:cc:d3:37:
         9f:14:04:8a:95:08:b9:af:a0:bd:5c:e2:ad:f7:2f:b8:f5:36:
         59:43:93:00:47:71:6c:68:c2:ec:d5:56:c3:10:0f:12:1c:10:
         a1:19:97:f4
-----BEGIN CERTIFICATE-----
MIIElTCCA32gAwIBAgIQUUIzmPwTJBeeq8MIGDSihjANBgkqhkiG9w0BAQsFADBD
MQswCQYDVQQGEwJYWDEQMA4GA1UEChMHU29tZSBDQTEiMCAGA1UEAxMZRmFrZSBD
QSBmb3IgemxpbnQgdGVzdGluZzAeFw0yMjExMTkxNTMwMDBaFw0yMzExMTkxNTMw
MDBaMIGQMQswCQYDVQQGEwJYWDEfMB0GA1UECBMWU29tZSBTdGF0ZSBvciBQcm92
aW5jZTESMBAGA1UEBxMJU29tZXdoZXJlMRQwEgYDVQQDEwtleGFtcGxlLm9yZzEa
MBgGA1UEChMRU29tZSBDb21wYW55IEx0ZC4xGjAYBgNVBAoTEVNvbWUgQ29tcGFu
eSBHbWJIMIIBIjANBgkqhkiG9w0BAQEFAAOCAQ8AMIIBCgKCAQEAumW4Q2tjFWcV
Wb4LWmOXjzrTVQFLF2JNvktci+MIqkgGO5QmLr84v7nRwdPxVWjVH7GUjs+yWfdF
3bIroXZjw4Lno4E1B2531Hs2GogV3NafvVP3hl1otgvzExEQxsyQ33PuzV+wFqEP
eexSr2zNsQ4fVdmI6zs11i4hzYx5J3TFFNx/EZXN5sWHQt7csnSIZ8bRLG+OIugT
v0tG29ILGVvEaV+OAwNVE4l85qP/dF3lX1h3XTN3FuF/6ZycG2qxXlvjh4XcUMsb
FcEyaq63UlZNDjHWyLA4srSTMsC1DH8gZRYMVODbXV6GERh7VakH6tT82VJMRlJj
BzPkbY+1BwIDAQABo4IBNTCCATEwDgYDVR0PAQH/BAQDAgWgMB0GA1UdJQQWMBQG
CCsGAQUFBwMCBggrBgEFBQcDATAdBgNVHQ4EFgQU9yJT74KqVBXIsrZOqv1h/BZd
owgwHwYDVR0jBBgwFoAU6Lb2dkvQO+VGpflU1H4Hs94NYD4wZAYIKwYBBQUHAQEE
WDBWMCkGCCsGAQUFBzABhh1odHRwOi8vY2Euc29tZWNhLWluYy5jb20vb2NzcDAp
BggrBgEFBQcwAoYdaHR0cDovL2NhLnNvbWVjYS1pbmMuY29tL3Jvb3QwFgYDVR0R
BA8wDYILZXhhbXBsZS5vcmcwEwYDVR0gBAwwCjAIBgZngQwBAgIwLQYDVR0fBCYw
JDAioCCgHoYcaHR0cDovL2NhLnNvbWVjYS1pbmMuY29tL2NybDANBgkqhkiG9w0B
AQsFAAOCAQEAeghliyNlfS++xs/AUq5o5Dy70nN8YcWl1+SF8Ctmc00jAiuvvYis
xUiunFIYYI1Up0gGkUA+qZ3oOOEpIWidxcgdLQgeGCYdzPi+YZog9iJKnyXvM7S3
g+fygnWOHFCVZ6jXTAI8Mr+tmtfSsrPxzuZbJy3B8Bemo52asiRQD5nMHS0BiTBp
0ttrRNt7JivnYNaJ1psV4Z4IlEXcxalp+g+3cHNvzgVJkW1P2kAoeJjQygz5m2LB
0Wy/wlDPWCnc420sjOt1pZgKs6tX17MNesry7aHgzNM3nxQEipUIua+gvVzirfcv
uPU2WUOTAEdxbGjC7NVWwxAPEhwQoRmX9A==
-----END CERTIFICATE-----
