Certificate:
    Data:
        Version: 3 (0x2)
        Serial Number:
            05:45:b9:32:e7:6b:ed:bc:2c:4f:25:ff:31:b1:23:cf
        Signature Algorithm: sha256WithRSAEncryption
        Issuer: C = EU, O = Some CA, CN = Fake CA for zlint testing
        Validity
            Not Before: Jun  1 08:21:28 2024 GMT
            Not After : Jun  1 08:21:28 2025 GMT
        Subject: C = US, L = Nowhere, O = Some Company Ltd., CN = Leon Mandrake
        Subject Public Key Info:
            Public Key Algorithm: rsaEncryption
                RSA Public-Key: (4096 bit)
                Modulus:
                    00:d1:55:9a:96:60:3c:4a:02:94:36:68:2e:3a:0f:
                    45:13:d8:4a:ea:83:59:c0:43:fd:4f:46:72:20:08:
                    5f:6d:40:df:8b:a8:14:9d:c3:b5:e0:9e:39:8a:30:
                    64:1f:53:2e:37:0f:1c:a7:92:7a:9b:0a:9a:f9:b3:
                    09:9d:f0:e1:0a:42:00:f6:45:f4:f8:1c:b3:27:f1:
                    dc:91:53:90:20:2d:56:38:2c:28:38:de:b4:1e:a4:
                    b6:ec:48:43:54:c1:97:ec:e9:32:c9:2b:df:72:37:
                    1d:5c:39:88:77:19:c5:95:ec:0f:5a:c6:95:0e:b5:
                    5d:52:56:fb:e7:95:ca:9a:88:b5:7a:1c:b8:01:1d:
                    99:66:7a:2a:e2:9e:a9:03:9f:a4:b2:a4:80:5a:d6:
                    01:0f:c1:ac:eb:a9:4d:1e:a6:2f:6b:92:ea:d1:e6:
                    a9:6b:3a:89:d9:99:8d:3c:ae:b8:9a:c8:33:48:89:
                    7d:c6:e8:29:ba:26:b4:a0:2e:7b:0d:2c:e6:9a:b2:
                    71:0b:75:3f:ae:18:38:b6:c4:e5:7f:3b:de:d2:63:
                    97:aa:cb:2f:92:d8:b1:dd:9b:b8:ef:bb:14:89:08:
                    e9:3c:dc:c4:5b:1c:30:cc:71:a5:6d:81:94:33:7e:
                    be:50:2e:98:e4:6b:25:2d:c2:91:38:c1:23:1a:ec:
                    3b:66:0c:bb:bf:a8:89:16:7f:c0:fd:6d:b7:bd:de:
                    f0:b1:8c:1a:fb:60:40:d7:fd:e3:9a:61:8f:d3:36:
                    89:e8:7f:4b:b9:e1:4d:2d:d4:f9:44:d9:c4:06:c8:
                    53:84:77:11:a7:22:ff:ce:b7:bc:81:f4:ae:18:8b:
                    b8:5e:a2:73:1d:3e:51:8d:db:5d:24:1d:d6:d2:39:
                    82:91:e7:a7:07:68:c9:7e:ce:04:25:73:52:fb:63:
                    f0:e9:58:ff:06:1a:91:f8:7f:37:80:56:3e:6a:96:
                    03:12:f2:04:08:80:0b:83:15:15:7e:22:e5:57:d3:
                    1a:3e:be:36:40:98:db:0f:f1:a4:55:b5:b9:17:00:
                    f1:81:40:87:81:98:6c:1e:ee:90:d6:ee:29:3e:a4:
                    02:f4:a0:d3:06:ed:36:2d:8d:a4:88:ed:41:8b:50:
                    6b:d5:4f:71:b0:ba:06:a0:c0:98:be:69:3f:12:88:
                    bc:7c:d7:25:34:ba:33:7c:d2:e8:ea:4b:6e:a3:56:
                    df:40:f8:a7:1c:e5:b2:94:5d:12:78:12:6a:22:ab:
                    cd:29:2e:c5:ac:70:35:04:52:eb:aa:ae:f4:35:00:
                    79:10:63:26:d0:80:34:73:5b:0b:15:10:68:4d:27:
                    b5:2e:eb:a0:7f:28:fd:ba:ff:b3:57:b8:a7:d6:c0:
                    91:b5:97
                Exponent: 65537 (0x10001)
        X509v3 extensions:
            X509v3 Key Usage: critical
                Digital Signature, Key Encipherment
            X509v3 Extended Key Usage: 
                TLS Web Client Authentication, E-mail Protection
            X509v3 Subject Key Identifier: 
                08:B5:85:1B:82:06:E9:84:63:36:23:6D:B5:03:9A:B4:AD:1B:E7:A5
            X509v3 Authority Key Identifier: 
                keyid:E8:B6:F6:76:4B:D0:3B:E5:46:A5:F9:54:D4:7E:07:B3:DE:0D:60:3E

            Authority Information Access: 
                OCSP - URI:http://ca.someca-inc.com/ocsp
                CA Issuers - URI:http://ca.someca-inc.com/root

            X509v3 Subject Alternative Name: 
                email:Leon.Mandrake@example.com
            X509v3 Certificate Policies: 
                Policy: 2.23.140.1.5.3.1

            X509v3 CRL Distribution Points: 

                Full Name:
                  URI:http://ca.someca-inc.com/crl

    Signature Algorithm: sha256WithRSAEncryption
         34:20:9e:3c:04:98:4a:73:19:e2:95:2c:04:95:f4:dc:46:ce:
         fd:c0:07:2d:e8:29:6d:e1:36:86:66:bd:b9:c7:a4:54:3a:cb:
         5c:a6:5c:60:fe:cc:b1:43:fb:f8:22:c7:28:bc:be:39:b3:e7:
         93:86:4c:ba:a9:6d:e1:b7:1f:66:68:b9:af:59:ec:84:51:2d:
         99:9a:14:15:b1:83:89:57:51:7e:bd:e6:c7:5d:04:a8:5c:22:
         cd:46:ad:0d:fb:83:f2:36:3f:41:04:16:5d:cc:20:5b:4c:1b:
         ed:05:8d:f4:85:2d:65:d5:5c:95:7d:e5:85:e6:85:8b:65:36:
         b3:eb:ec:67:bc:08:3a:62:8e:f6:94:86:4d:2c:31:dd:70:f4:
         35:f1:f4:19:00:74:3c:08:53:54:95:e0:70:d6:7c:95:00:39:
         ff:d2:3b:f0:57:b3:52:ee:ae:45:f4:e8:5c:c9:99:40:60:40:
         36:71:85:39:78:5d:f0:9f:02:77:8e:ff:18:dd:e9:e4:4d:e2:
         5f:d5:54:10:8a:9f:ee:f5:b7:37:8a:66:7f:1e:d4:9f:99:6c:
         d2:62:2c:10:70:bb:9f:bf:da:af:8d:48:4c:ec:19:e2:66:51:
         8e:7c:41:a3:92:fb:9d:11:c4:d4:2e:27:07:23:b8:12:cf:97:
         c2:18:0f:9a:33:b0:f6:0b:61:7d:02:3b:bd:c2:b9:f9:b7:f3:
         0d:56:ad:90:8f:8e:a4:fa:d4:9a:f7:6a:3a:0a:40:54:ef:be:
         2f:44:f9:d9:a6:2b:0e:d2:26:40:22:f5:65:8c:89:13:5e:10:
         e2:42:7b:bf:5e:7c:02:55:ff:ad:26:77:3b:dc:ee:95:4a:8d:
         7c:93:27:f9:60:f4:bf:97:f5:ad:bc:29:98:3a:b2:01:21:f6:
         23:a7:98:2d:f6:36:0b:90:2f:ef:86:b7:4c:b1:a0:36:10:92:
         4e:7a:8a:b2:dd:e8:14:b5:dc:d0:d0:f8:df:98:76:2a:24:f0:
         38:51:37:5b:d1:ea:77:c7:0d:62:90:41:61:86:68:16:16:8d:
         49:1c:30:a5:2e:71:0e:d7:6f:e8:69:b6:eb:2f:c3:ad:7f:82:
         84:9b:49:f6:fc:e9:28:02:c5:d1:68:bc:68:e9:7f:3a:22:9c:
         2f:40:fd:fe:6f:2e:83:9d:ce:55:6e:84:cd:d3:15:29:db:89:
         82:06:c0:49:af:2e:4a:af:bc:d3:fb:ff:92:d6:5c:29:b4:94:
         b3:dc:01:87:62:a5:5d:38:be:b9:24:ad:54:e2:5b:f8:43:6f:
         6e:b6:b3:3d:2c:f6:d3:ce:cb:bb:dd:a2:04:a3:e1:84:91:da:
         14:90:93:cb:38:06:d5:0a
-----BEGIN CERTIFICATE-----
MIIGZjCCBE6gAwIBAgIQBUW5Mudr7bwsTyX/MbEjzzANBgkqhkiG9w0BAQsFADBD
MQswCQYDVQQGEwJFVTEQMA4GA1UEChMHU29tZSBDQTEiMCAGA1UEAxMZRmFrZSBD
QSBmb3IgemxpbnQgdGVzdGluZzAeFw0yNDA2MDEwODIxMjhaFw0yNTA2MDEwODIx
MjhaMFMxCzAJBgNVBAYTAlVTMRAwDgYDVQQHEwdOb3doZXJlMRowGAYDVQQKExFT
b21lIENvbXBhbnkgTHRkLjEWMBQGA1UEAxMNTGVvbiBNYW5kcmFrZTCCAiIwDQYJ
KoZIhvcNAQEBBQADggIPADCCAgoCggIBANFVmpZgPEoClDZoLjoPRRPYSuqDWcBD
/U9GciAIX21A34uoFJ3DteCeOYowZB9TLjcPHKeSepsKmvmzCZ3w4QpCAPZF9Pgc
syfx3JFTkCAtVjgsKDjetB6ktuxIQ1TBl+zpMskr33I3HVw5iHcZxZXsD1rGlQ61
XVJW++eVypqItXocuAEdmWZ6KuKeqQOfpLKkgFrWAQ/BrOupTR6mL2uS6tHmqWs6
idmZjTyuuJrIM0iJfcboKbomtKAuew0s5pqycQt1P64YOLbE5X873tJjl6rLL5LY
sd2buO+7FIkI6TzcxFscMMxxpW2BlDN+vlAumORrJS3CkTjBIxrsO2YMu7+oiRZ/
wP1tt73e8LGMGvtgQNf945phj9M2ieh/S7nhTS3U+UTZxAbIU4R3Eaci/863vIH0
rhiLuF6icx0+UY3bXSQd1tI5gpHnpwdoyX7OBCVzUvtj8OlY/wYakfh/N4BWPmqW
AxLyBAiAC4MVFX4i5VfTGj6+NkCY2w/xpFW1uRcA8YFAh4GYbB7ukNbuKT6kAvSg
0wbtNi2NpIjtQYtQa9VPcbC6BqDAmL5pPxKIvHzXJTS6M3zS6OpLbqNW30D4pxzl
spRdEngSaiKrzSkuxaxwNQRS66qu9DUAeRBjJtCANHNbCxUQaE0ntS7roH8o/br/
s1e4p9bAkbWXAgMBAAGjggFEMIIBQDAOBgNVHQ8BAf8EBAMCBaAwHQYDVR0lBBYw
FAYIKwYBBQUHAwIGCCsGAQUFBwMEMB0GA1UdDgQWBBQItYUbggbphGM2I221A5q0
rRvnpTAfBgNVHSMEGDAWgBTotvZ2S9A75Ual+VTUfgez3g1gPjBkBggrBgEFBQcB
AQRYMFYwKQYIKwYBBQUHMAGGHWh0dHA6Ly9jYS5zb21lY2EtaW5jLmNvbS9vY3Nw
MCkGCCsGAQUFBzAChh1odHRwOi8vY2Euc29tZWNhLWluYy5jb20vcm9vdDAkBgNV
HREEHTAbgRlMZW9uLk1hbmRyYWtlQGV4YW1wbGUuY29tMBQGA1UdIAQNMAswCQYH
Z4EMAQUDATAtBgNVHR8EJjAkMCKgIKAehhxodHRwOi8vY2Euc29tZWNhLWluYy5j
b20vY3JsMA0GCSqGSIb3DQEBCwUAA4ICAQA0IJ48BJhKcxnilSwElfTcRs79wAct
6Clt4TaGZr25x6RUOstcplxg/syxQ/v4IscovL45s+eThky6qW3htx9maLmvWeyE
US2ZmhQVsYOJV1F+vebHXQSoXCLNRq0N+4PyNj9BBBZdzCBbTBvtBY30hS1l1VyV
feWF5oWLZTaz6+xnvAg6Yo72lIZNLDHdcPQ18fQZAHQ8CFNUleBw1nyVADn/0jvw
V7NS7q5F9OhcyZlAYEA2cYU5eF3wnwJ3jv8Y3enkTeJf1VQQip/u9bc3imZ/HtSf
mWzSYiwQcLufv9qvjUhM7BniZlGOfEGjkvudEcTULicHI7gSz5fCGA+aM7D2C2F9
Aju9wrn5t/MNVq2Qj46k+tSa92o6CkBU774vRPnZpisO0iZAIvVljIkTXhDiQnu/
XnwCVf+tJnc73O6VSo18kyf5YPS/l/WtvCmYOrIBIfYjp5gt9jYLkC/vhrdMsaA2
EJJOeoqy3egUtdzQ0PjfmHYqJPA4UTdb0ep3xw1ikEFhhmgWFo1JHDClLnEO12/o
abbrL8Otf4KEm0n2/OkoAsXRaLxo6X86IpwvQP3+by6Dnc5VboTN0xUp24mCBsBJ
ry5Kr7zT+/+S1lwptJSz3AGHYqVdOL65JK1U4lv4Q29utrM9LPbTzsu73aIEo+GE
kdoUkJPLOAbVCg==
-----END CERTIFICATE-----
