Certificate:
    Data:
        Version: 3 (0x2)
        Serial Number:
            8b:b5:81:9a:8e:91:c5:83:a4:bb:64:7c:43:97:b3:d1
        Signature Algorithm: sha256WithRSAEncryption
        Issuer: C = XX, O = Some CA, CN = Fake CA for zlint testing
        Validity
            Not Before: Jun  1 08:38:22 2024 GMT
            Not After : Jun  1 08:38:22 2025 GMT
        Subject: C = XX, ST = Some State or Province, O = Some Company Ltd., CN = example.org, L = Somewhere, L = Nearby
        Subject Public Key Info:
            Public Key Algorithm: rsaEncryption
                RSA Public-Key: (2048 bit)
                Modulus:
                    00:cb:b5:59:04:ea:b2:17:b1:67:03:e5:2d:b6:e7:
                    51:ee:f3:94:9e:47:c1:98:86:3d:b7:84:4f:6e:bb:
                    23:0c:07:65:2f:24:e9:e6:5b:63:9e:0a:34:2a:68:
                    1e:dc:80:53:fd:27:7b:2f:16:6c:86:96:c9:15:aa:
                    c3:25:02:4d:f4:bc:dd:a5:42:3d:d4:0c:22:fd:16:
                    e2:1f:07:ed:e0:fe:c2:42:d9:7e:17:81:7a:58:8f:
                    0b:08:ef:d6:05:eb:38:b5:94:2f:dd:02:cf:36:f3:
                    47:88:19:dc:8f:07:c7:a5:40:35:b2:df:97:b8:e6:
                    00:2e:ed:03:38:2c:1d:bf:35:7c:c2:c0:2c:6d:3c:
                    55:db:f7:ea:a3:27:fd:46:39:27:85:6c:6d:1f:21:
                    2c:ef:b6:8e:61:97:08:40:47:87:95:1c:c3:75:03:
                    05:69:91:fe:3c:07:59:ad:5c:80:7b:e9:a4:35:c3:
                    0a:04:20:57:27:76:a0:a7:a4:88:32:a2:8f:89:43:
                    62:9b:c9:78:6a:fd:7c:5d:3e:a7:60:cd:d3:27:d5:
                    71:b8:6a:9a:11:6f:2b:8e:0a:d2:91:18:89:47:8e:
                    97:3f:53:4f:0d:4f:f0:ce:53:bc:48:a8:97:4c:bd:
                    e0:d5:49:c7:18:fe:f1:01:ae:92:b6:79:6e:a2:d0:
                    31:af
                Exponent: 65537 (0x10001)
        X509v3 extensions:
            X509v3 Key Usage: critical
                Digital Signature, Key Encipherment
            X509v3 Extended Key Usage: 
                TLS Web Client Authentication, TLS Web Server Authentication
            X509v3 Subject Key Identifier: 
                E3:19:83:A4:3F:A7:21:26:18:82:CE:13:0E:8D:E6:EA:72:1C:DC:71
            X509v3 Authority Key Identifier: 
                keyid:E8:B6:F6:76:4B:D0:3B:E5:46:A5:F9:54:D4:7E:07:B3:DE:0D:60:3E

            Authority Information Access: 
                OCSP - URI:http://ca.someca-inc.com/ocsp
                CA Issuers - URI:http://ca.someca-inc.com/root

            X509v3 Subject Alternative Name: 
                DNS:example.org
            X509v3 Certificate Policies: 
                Policy: 2.23.140.1.2.2

            X509v3 CRL Distribution Points: 

                Full Name:
                  URI:http://ca.someca-inc.com/crl

    Signature Algorithm: sha256WithRSAEncryption
         9f:93:e7:77:14:6b:c6:10:db:c6:15:33:54:5f:8e:22:c2:b2:
         18:3c:68:d7:e9:4e:0e:1b:73:0f:dd:c2:18:9f:50:d3:b3:5a:
         82:72:5b:61:cb:65:e5:75:7e:81:eb:eb:d0:33:f9:98:a9:b4:
         f2:8c:e1:6c:09:f9:e1:de:28:9b:37:3b:5d:b3:a8:df:28:2e:
         18:24:79:27:62:12:8d:1b:15:e0:98:01:d8:d5:eb:7c:c0:a0:
         36:f9:7a:be:31:8e:37:d3:0b:e8:20:cb:47:ae:1f:d0:0b:f2:
         47:79:3e:ab:b6:8d:21:4e:5f:fa:18:e3:5b:b5:38:a7:02:ed:
         95:a0:ea:74:6b:e6:26:3a:d3:68:e4:b3:ad:23:e0:27:ec:66:
         dc:5b:49:21:ef:72:72:9d:4f:68:22:73:4e:a4:e1:dd:33:fb:
         79:19:a4:fb:30:65:a9:e8:71:ad:19:ba:2b:d0:ca:58:62:61:
         35:95:c3:ef:8d:79:58:dd:5e:28:55:e7:34:46:e9:dc:56:b9:
         7e:07:08:95:16:09:cb:c9:7b:32:83:4c:fd:de:f4:c5:0d:e7:
         d5:35:e1:a9:6b:3f:c6:cd:54:83:e7:ee:26:52:a0:ad:58:96:
         c2:e5:80:9f:cb:a4:fd:1f:92:7c:45:eb:13:06:b9:8d:88:af:
         f7:8a:3a:bb
-----BEGIN CERTIFICATE-----
MIIEizCCA3OgAwIBAgIRAIu1gZqOkcWDpLtkfEOXs9EwDQYJKoZIhvcNAQELBQAw
QzELMAkGA1UEBhMCWFgxEDAOBgNVBAoTB1NvbWUgQ0ExIjAgBgNVBAMTGUZha2Ug
Q0EgZm9yIHpsaW50IHRlc3RpbmcwHhcNMjQwNjAxMDgzODIyWhcNMjUwNjAxMDgz
ODIyWjCBhTELMAkGA1UEBhMCWFgxHzAdBgNVBAgTFlNvbWUgU3RhdGUgb3IgUHJv
dmluY2UxGjAYBgNVBAoTEVNvbWUgQ29tcGFueSBMdGQuMRQwEgYDVQQDEwtleGFt
cGxlLm9yZzESMBAGA1UEBxMJU29tZXdoZXJlMQ8wDQYDVQQHEwZOZWFyYnkwggEi
MA0GCSqGSIb3DQEBAQUAA4IBDwAwggEKAoIBAQDLtVkE6rIXsWcD5S2251Hu85Se
R8GYhj23hE9uuyMMB2UvJOnmW2OeCjQqaB7cgFP9J3svFmyGlskVqsMlAk30vN2l
Qj3UDCL9FuIfB+3g/sJC2X4XgXpYjwsI79YF6zi1lC/dAs8280eIGdyPB8elQDWy
35e45gAu7QM4LB2/NXzCwCxtPFXb9+qjJ/1GOSeFbG0fISzvto5hlwhAR4eVHMN1
AwVpkf48B1mtXIB76aQ1wwoEIFcndqCnpIgyoo+JQ2KbyXhq/XxdPqdgzdMn1XG4
apoRbyuOCtKRGIlHjpc/U08NT/DOU7xIqJdMveDVSccY/vEBrpK2eW6i0DGvAgMB
AAGjggE1MIIBMTAOBgNVHQ8BAf8EBAMCBaAwHQYDVR0lBBYwFAYIKwYBBQUHAwIG
CCsGAQUFBwMBMB0GA1UdDgQWBBTjGYOkP6chJhiCzhMOjebqchzccTAfBgNVHSME
GDAWgBTotvZ2S9A75Ual+VTUfgez3g1gPjBkBggrBgEFBQcBAQRYMFYwKQYIKwYB
BQUHMAGGHWh0dHA6Ly9jYS5zb21lY2EtaW5jLmNvbS9vY3NwMCkGCCsGAQUFBzAC
hh1odHRwOi8vY2Euc29tZWNhLWluYy5jb20vcm9vdDAWBgNVHREEDzANggtleGFt
cGxlLm9yZzATBgNVHSAEDDAKMAgGBmeBDAECAjAtBgNVHR8EJjAkMCKgIKAehhxo
dHRwOi8vY2Euc29tZWNhLWluYy5jb20vY3JsMA0GCSqGSIb3DQEBCwUAA4IBAQCf
k+d3FGvGENvGFTNUX44iwrIYPGjX6U4OG3MP3cIYn1DTs1qCclthy2XldX6B6+vQ
M/mYqbTyjOFsCfnh3iibNztds6jfKC4YJHknYhKNGxXgmAHY1et8wKA2+Xq+MY43
0wvoIMtHrh/QC/JHeT6rto0hTl/6GONbtTinAu2VoOp0a+YmOtNo5LOtI+An7Gbc
W0kh73JynU9oInNOpOHdM/t5GaT7MGWp6HGtGbor0MpYYmE1lcPvjXlY3V4oVec0
RuncVrl+BwiVFgnLyXsyg0z93vTFDefVNeGpaz/GzVSD5+4mUqCtWJbC5YCfy6T9
H5J8ResTBrmNiK/3ijq7
-----END CERTIFICATE-----
