Certificate:
    Data:
        Version: 3 (0x2)
        Serial Number:
            14:fe:31:78:ab:23:b1:0b:f4:7b:d1:02:1d:3a:31:0c
        Signature Algorithm: sha256WithRSAEncryption
        Issuer: C = XX, O = Some CA, CN = Fake CA for zlint testing
        Validity
            Not Before: Jun  1 08:18:02 2024 GMT
            Not After : Jun  1 08:18:02 2025 GMT
        Subject: C = IT, ST = Some State or Province, L = Somewhere, O = Some Company Ltd., CN = example.org
        Subject Public Key Info:
            Public Key Algorithm: rsaEncryption
                RSA Public-Key: (2048 bit)
                Modulus:
                    00:c2:67:32:e4:3c:a4:dd:d7:58:5c:56:cb:41:2d:
                    ba:0b:aa:df:0c:6d:78:6d:50:dc:d0:dc:4e:8b:c6:
                    1e:64:b6:02:4f:b7:56:dc:d7:8a:c2:10:89:0d:67:
                    d2:e1:f4:79:ec:f5:25:0e:6f:94:24:71:eb:22:9e:
                    00:cf:09:b0:20:1b:e0:38:b6:ad:7a:76:f9:a3:bb:
                    1f:de:b0:04:64:ad:62:76:fd:b3:3c:2b:bb:2b:8b:
                    72:b1:15:71:77:14:35:ff:51:77:3c:9a:85:d4:4f:
                    f1:7f:99:43:37:5c:f3:87:51:0b:eb:eb:8c:03:01:
                    0d:d1:c0:c8:bd:e5:9d:1f:11:be:25:58:df:77:89:
                    ec:36:5b:5b:30:f9:64:39:ab:36:90:b5:20:d4:8d:
                    f6:56:33:36:b0:60:e1:37:77:f7:91:03:3b:dd:f8:
                    cf:3f:05:fd:97:42:06:d8:b4:a4:13:db:cf:42:61:
                    fe:fa:00:eb:6f:39:11:6d:96:1a:53:8f:0e:6c:04:
                    a4:b3:22:1c:95:f7:c3:c7:60:dd:b2:99:c8:62:bc:
                    74:8e:cd:2b:f6:08:e6:64:f2:cb:f9:17:6a:bf:64:
                    c0:30:01:5a:50:48:9c:84:e1:ae:66:c6:a4:e0:53:
                    b9:0a:fc:a2:bb:4d:b1:f0:47:9a:d3:f6:09:da:3c:
                    10:d5
                Exponent: 65537 (0x10001)
        X509v3 extensions:
            X509v3 Key Usage: critical
                Digital Signature, Key Encipherment
            X509v3 Extended Key Usage: 
                TLS Web Client Authentication, TLS Web Server Authentication
            X509v3 Subject Key Identifier: 
                09:A8:07:13:BD:67:03:40:E3:C1:88:D1:1C:CD:AE:2F:C8:CC:FB:63
            X509v3 Authority Key Identifier: 
                keyid:E8:B6:F6:76:4B:D0:3B:E5:46:A5:F9:54:D4:7E:07:B3:DE:0D:60:3E

            Authority Information Access: 
                OCSP - URI:http://ca.someca-inc.com/ocsp
                CA Issuers - URI:http://ca.someca-inc.com/root

            X509v3 Subject Alternative Name: 
                DNS:example.org
            X509v3 Certificate Policies: 
                Policy: 2.23.140.1.2.2

            X509v3 CRL Distribution Points: 

                Full Name:
                  URI:http://ca.someca-inc.com/crl

    Signature Algorithm: sha256WithRSAEncryption
         8c:b5:9c:80:44:fc:6e:35:07:be:bb:ad:1d:0a:d4:a4:bd:f1:
         21:04:4a:5b:df:c2:ed:bd:8d:2f:9b:18:6b:37:05:a8:67:6e:
         71:5a:38:72:f2:b3:ec:8f:d9:6b:65:75:d4:57:a4:67:83:25:
         b5:05:a9:9d:7f:8f:21:91:b2:94:4c:dd:17:70:24:6b:dc:8f:
         35:da:14:49:a7:e7:18:db:56:f1:15:5c:4c:22:23:0a:4e:04:
         b7:39:8e:d5:29:b4:a7:54:95:ff:9e:aa:26:b4:0d:14:d0:e3:
         ea:e4:24:a4:04:e3:fb:78:b4:d7:35:bf:02:02:79:e5:88:e1:
         95:69:f5:c7:47:06:f3:ea:db:0e:f3:9f:db:cd:9d:23:c6:74:
         17:b7:e1:8e:c0:aa:2e:ce:89:94:7d:9b:ea:60:cb:ed:23:e2:
         e5:04:92:c6:6b:03:bb:b6:7f:29:46:c6:3d:aa:71:4f:ee:fa:
         19:84:2a:f0:3c:76:d5:86:2c:16:ff:27:f6:2d:2b:56:aa:68:
         9e:34:d8:3a:e6:23:24:f3:0a:07:41:9d:d8:8e:36:fe:cf:f2:
         f7:47:dd:99:f6:7a:64:80:ae:49:83:57:75:61:39:31:08:2e:
         bc:db:64:fd:c0:49:c2:93:8c:ab:2d:84:78:bf:4f:e7:44:84:
         3f:db:85:38
-----BEGIN CERTIFICATE-----
MIIEeDCCA2CgAwIBAgIQFP4xeKsjsQv0e9ECHToxDDANBgkqhkiG9w0BAQsFADBD
MQswCQYDVQQGEwJYWDEQMA4GA1UEChMHU29tZSBDQTEiMCAGA1UEAxMZRmFrZSBD
QSBmb3IgemxpbnQgdGVzdGluZzAeFw0yNDA2MDEwODE4MDJaFw0yNTA2MDEwODE4
MDJaMHQxCzAJBgNVBAYTAklUMR8wHQYDVQQIExZTb21lIFN0YXRlIG9yIFByb3Zp
bmNlMRIwEAYDVQQHEwlTb21ld2hlcmUxGjAYBgNVBAoTEVNvbWUgQ29tcGFueSBM
dGQuMRQwEgYDVQQDEwtleGFtcGxlLm9yZzCCASIwDQYJKoZIhvcNAQEBBQADggEP
ADCCAQoCggEBAMJnMuQ8pN3XWFxWy0Etuguq3wxteG1Q3NDcTovGHmS2Ak+3VtzX
isIQiQ1n0uH0eez1JQ5vlCRx6yKeAM8JsCAb4Di2rXp2+aO7H96wBGStYnb9szwr
uyuLcrEVcXcUNf9RdzyahdRP8X+ZQzdc84dRC+vrjAMBDdHAyL3lnR8RviVY33eJ
7DZbWzD5ZDmrNpC1INSN9lYzNrBg4Td395EDO934zz8F/ZdCBti0pBPbz0Jh/voA
6285EW2WGlOPDmwEpLMiHJX3w8dg3bKZyGK8dI7NK/YI5mTyy/kXar9kwDABWlBI
nIThrmbGpOBTuQr8ortNsfBHmtP2Cdo8ENUCAwEAAaOCATUwggExMA4GA1UdDwEB
/wQEAwIFoDAdBgNVHSUEFjAUBggrBgEFBQcDAgYIKwYBBQUHAwEwHQYDVR0OBBYE
FAmoBxO9ZwNA48GI0RzNri/IzPtjMB8GA1UdIwQYMBaAFOi29nZL0DvlRqX5VNR+
B7PeDWA+MGQGCCsGAQUFBwEBBFgwVjApBggrBgEFBQcwAYYdaHR0cDovL2NhLnNv
bWVjYS1pbmMuY29tL29jc3AwKQYIKwYBBQUHMAKGHWh0dHA6Ly9jYS5zb21lY2Et
aW5jLmNvbS9yb290MBYGA1UdEQQPMA2CC2V4YW1wbGUub3JnMBMGA1UdIAQMMAow
CAYGZ4EMAQICMC0GA1UdHwQmMCQwIqAgoB6GHGh0dHA6Ly9jYS5zb21lY2EtaW5j
LmNvbS9jcmwwDQYJKoZIhvcNAQELBQADggEBAIy1nIBE/G41B767rR0K1KS98SEE
Slvfwu29jS+bGGs3BahnbnFaOHLys+yP2WtlddRXpGeDJbUFqZ1/jyGRspRM3Rdw
JGvcjzXaFEmn5xjbVvEVXEwiIwpOBLc5jtUptKdUlf+eqia0DRTQ4+rkJKQE4/t4
tNc1vwICeeWI4ZVp9cdHBvPq2w7zn9vNnSPGdBe34Y7Aqi7OiZR9m+pgy+0j4uUE
ksZrA7u2fylGxj2qcU/u+hmEKvA8dtWGLBb/J/YtK1aqaJ402DrmIyTzCgdBndiO
Nv7P8vdH3Zn2emSArkmDV3VhOTEILrzbZP3AScKTjKsthHi/T+dEhD/bhTg=
-----END CERTIFICATE-----
