Certificate:
    Data:
        Version: 3 (0x2)
        Serial Number:
            47:bd:93:31:c3:50:f8:8d:c6:74:07:68
        Signature Algorithm: ecdsa-with-SHA256
        Issuer: CN = Lint CA, O = Lint, C = DE
        Validity
            Not Before: Sep 15 00:00:00 2023 GMT
            Not After : Sep 15 00:00:00 2024 GMT
        Subject: C = DE
        Subject Public Key Info:
            Public Key Algorithm: id-ecPublicKey
                Public-Key: (256 bit)
                pub:
                    04:54:ae:c0:80:e5:dd:5e:59:ea:85:0e:1d:db:88:
                    29:19:72:a3:41:e4:d9:1c:b9:d6:e9:8c:d1:a5:8f:
                    82:c0:fc:49:47:9c:c2:35:79:e6:cb:3e:5a:78:92:
                    39:b0:fd:94:ab:3a:5a:81:75:e0:45:15:df:01:d1:
                    99:36:40:1b:30
                ASN1 OID: prime256v1
                NIST CURVE: P-256
        X509v3 extensions:
            X509v3 Authority Key Identifier: 
                B3:8E:9C:AF:03:B9:83:6B:7D:F5:F4:DC:32:A5:73:88:48:58:4E:8E
            X509v3 Certificate Policies: 
                Policy: 2.23.140.1.2.1
    Signature Algorithm: ecdsa-with-SHA256
    Signature Value:
        30:45:02:20:22:d4:dd:cc:74:0c:e6:ca:fa:3c:8e:40:52:f4:
        8a:db:14:22:90:b8:08:48:71:9a:51:5b:20:73:ff:3b:00:d7:
        02:21:00:c1:ab:a2:6c:c7:77:d3:20:af:2a:f0:04:1d:64:14:
        7b:3b:40:c9:1c:44:3c:4d:75:9f:ab:fe:89:88:94:f6:41
-----BEGIN CERTIFICATE-----
MIIBbTCCAROgAwIBAgIMR72TMcNQ+I3GdAdoMAoGCCqGSM49BAMCMC4xEDAOBgNV
BAMMB0xpbnQgQ0ExDTALBgNVBAoMBExpbnQxCzAJBgNVBAYTAkRFMB4XDTIzMDkx
NTAwMDAwMFoXDTI0MDkxNTAwMDAwMFowDTELMAkGA1UEBhMCREUwWTATBgcqhkjO
PQIBBggqhkjOPQMBBwNCAARUrsCA5d1eWeqFDh3biCkZcqNB5NkcudbpjNGlj4LA
/ElHnMI1eebLPlp4kjmw/ZSrOlqBdeBFFd8B0Zk2QBswozgwNjAfBgNVHSMEGDAW
gBSzjpyvA7mDa3319NwypXOISFhOjjATBgNVHSAEDDAKMAgGBmeBDAECATAKBggq
hkjOPQQDAgNIADBFAiAi1N3MdAzmyvo8jkBS9IrbFCKQuAhIcZpRWyBz/zsA1wIh
AMGromzHd9MgryrwBB1kFHs7QMkcRDxNdZ+r/omIlPZB
-----END CERTIFICATE-----
