Certificate:
    Data:
        Version: 3 (0x2)
        Serial Number:
            32:eb:47:ff:01:13:5d:24:1e:bd:fe:88
        Signature Algorithm: ecdsa-with-SHA256
        Issuer: CN = Lint CA, O = Lint, C = DE
        Validity
            Not Before: Sep 15 00:00:00 2023 GMT
            Not After : Sep 15 00:00:00 2024 GMT
        Subject: 
        Subject Public Key Info:
            Public Key Algorithm: id-ecPublicKey
                Public-Key: (256 bit)
                pub:
                    04:b4:c0:74:a1:a4:7e:42:d3:b6:7c:40:5b:95:fd:
                    82:d5:ed:e8:19:62:a8:e7:16:be:54:e7:c0:bf:25:
                    41:46:7e:36:25:03:27:c0:3a:c6:52:e2:37:84:cc:
                    53:34:6d:ef:c2:93:bf:50:56:fb:9c:88:4f:53:75:
                    35:81:75:cc:c0
                ASN1 OID: prime256v1
                NIST CURVE: P-256
        X509v3 extensions:
            X509v3 Authority Key Identifier: 
                B3:8E:9C:AF:03:B9:83:6B:7D:F5:F4:DC:32:A5:73:88:48:58:4E:8E
            X509v3 Certificate Policies: 
                Policy: 2.23.140.1.2.1
    Signature Algorithm: ecdsa-with-SHA256
    Signature Value:
        30:46:02:21:00:b9:d1:1d:bd:e7:7f:b6:48:d0:72:08:42:58:
        5c:72:12:c8:92:5d:73:3d:32:67:84:dd:12:e1:2d:dc:65:03:
        4b:02:21:00:ed:82:a3:6c:09:64:60:e2:d8:37:32:8b:54:18:
        f3:f5:40:29:e8:70:53:67:79:16:88:52:02:44:9b:07:57:31
-----BEGIN CERTIFICATE-----
MIIBYTCCAQagAwIBAgIMMutH/wETXSQevf6IMAoGCCqGSM49BAMCMC4xEDAOBgNV
BAMMB0xpbnQgQ0ExDTALBgNVBAoMBExpbnQxCzAJBgNVBAYTAkRFMB4XDTIzMDkx
NTAwMDAwMFoXDTI0MDkxNTAwMDAwMFowADBZMBMGByqGSM49AgEGCCqGSM49AwEH
A0IABLTAdKGkfkLTtnxAW5X9gtXt6BliqOcWvlTnwL8lQUZ+NiUDJ8A6xlLiN4TM
UzRt78KTv1BW+5yIT1N1NYF1zMCjODA2MB8GA1UdIwQYMBaAFLOOnK8DuYNrffX0
3DKlc4hIWE6OMBMGA1UdIAQMMAowCAYGZ4EMAQIBMAoGCCqGSM49BAMCA0kAMEYC
IQC50R2953+2SNByCEJYXHISyJJdcz0yZ4TdEuEt3GUDSwIhAO2Co2wJZGDi2Dcy
i1QY8/VAKehwU2d5FohSAkSbB1cx
-----END CERTIFICATE-----
