Certificate:
    Data:
        Version: 3 (0x2)
        Serial Number:
            58:b0:55:e8:44:e1:07:ad:64:11:fa:59
        Signature Algorithm: ecdsa-with-SHA256
        Issuer: CN = Lint CA, O = Lint, C = DE
        Validity
            Not Before: Sep 15 00:00:00 2023 GMT
            Not After : Sep 15 00:00:00 2024 GMT
        Subject: CN = Lint, serialNumber = 1, C = DE
        Subject Public Key Info:
            Public Key Algorithm: id-ecPublicKey
                Public-Key: (256 bit)
                pub:
                    04:f7:ac:12:9d:7b:81:e1:01:c7:b3:1e:83:ab:74:
                    64:5a:af:02:c4:5e:30:74:63:2f:72:66:c5:ff:9b:
                    07:76:dd:04:eb:d7:37:d3:9e:41:4b:2a:85:2d:1d:
                    59:eb:68:35:b1:d7:63:bf:28:24:f4:f4:9e:0c:b3:
                    85:68:54:ab:bb
                ASN1 OID: prime256v1
                NIST CURVE: P-256
        X509v3 extensions:
            X509v3 Authority Key Identifier: 
                keyid:85:80:D7:8A:69:8E:22:61:06:49:28:4E:4E:2B:EB:1F:34:B9:0D:CB

            X509v3 Certificate Policies: 
                Policy: 2.23.140.1.2.1

    Signature Algorithm: ecdsa-with-SHA256
         30:45:02:21:00:8d:19:d0:33:85:80:98:95:80:7a:9d:7b:5d:
         92:cd:c0:83:a8:c7:e2:22:1a:f5:d3:2e:5b:d6:76:72:34:a7:
         dd:02:20:59:7a:69:47:7b:54:60:83:af:14:d7:47:5d:38:da:
         5d:b7:71:1f:e0:ab:91:22:34:da:c7:ef:1b:76:c5:15:6a
-----BEGIN CERTIFICATE-----
MIIBiDCCAS6gAwIBAgIMWLBV6EThB61kEfpZMAoGCCqGSM49BAMCMC4xEDAOBgNV
BAMMB0xpbnQgQ0ExDTALBgNVBAoMBExpbnQxCzAJBgNVBAYTAkRFMB4XDTIzMDkx
NTAwMDAwMFoXDTI0MDkxNTAwMDAwMFowKDENMAsGA1UEAwwETGludDEKMAgGA1UE
BRMBMTELMAkGA1UEBhMCREUwWTATBgcqhkjOPQIBBggqhkjOPQMBBwNCAAT3rBKd
e4HhAcezHoOrdGRarwLEXjB0Yy9yZsX/mwd23QTr1zfTnkFLKoUtHVnraDWx12O/
KCT09J4Ms4VoVKu7ozgwNjAfBgNVHSMEGDAWgBSFgNeKaY4iYQZJKE5OK+sfNLkN
yzATBgNVHSAEDDAKMAgGBmeBDAECATAKBggqhkjOPQQDAgNIADBFAiEAjRnQM4WA
mJWAep17XZLNwIOox+IiGvXTLlvWdnI0p90CIFl6aUd7VGCDrxTXR1042l23cR/g
q5EiNNrH7xt2xRVq
-----END CERTIFICATE-----
