Certificate:
    Data:
        Version: 3 (0x2)
        Serial Number:
            a2:1f:2f:e0:07:65:24:ee:ff:c3:39:bb
        Signature Algorithm: ecdsa-with-SHA256
        Issuer: CN = Lint CA, O = Lint, C = DE
        Validity
            Not Before: Sep 15 00:00:00 2023 GMT
            Not After : Sep 15 00:00:00 2024 GMT
        Subject: CN = Lint, O = ZLint, C = DE
        Subject Public Key Info:
            Public Key Algorithm: id-ecPublicKey
                Public-Key: (256 bit)
                pub:
                    04:a8:64:aa:4e:ee:84:e8:6d:f5:60:af:b6:59:c7:
                    29:20:8b:41:45:bc:1b:c8:ce:bc:83:4c:ec:56:ec:
                    29:73:d7:d8:c3:f5:db:3c:54:ad:f8:22:10:a2:97:
                    48:7a:b1:d7:2e:a7:aa:6b:ca:6f:dd:6e:27:4c:28:
                    51:d2:fb:87:89
                ASN1 OID: prime256v1
                NIST CURVE: P-256
        X509v3 extensions:
            X509v3 Authority Key Identifier: 
                keyid:85:80:D7:8A:69:8E:22:61:06:49:28:4E:4E:2B:EB:1F:34:B9:0D:CB

            X509v3 Certificate Policies: 
                Policy: 2.23.140.1.2.1

    Signature Algorithm: ecdsa-with-SHA256
         30:46:02:21:00:da:34:ad:88:35:50:f4:b7:07:5d:e5:09:f1:
         05:ae:31:ff:39:35:06:58:6e:f3:c1:dc:f5:74:92:4b:29:22:
         44:02:21:00:b4:ea:ed:19:b4:82:0a:64:a6:0d:d8:89:44:a9:
         e8:f2:b3:1c:64:17:b4:08:41:08:30:bc:9e:f7:3f:93:97:01
-----BEGIN CERTIFICATE-----
MIIBjjCCATOgAwIBAgINAKIfL+AHZSTu/8M5uzAKBggqhkjOPQQDAjAuMRAwDgYD
VQQDDAdMaW50IENBMQ0wCwYDVQQKDARMaW50MQswCQYDVQQGEwJERTAeFw0yMzA5
MTUwMDAwMDBaFw0yNDA5MTUwMDAwMDBaMCwxDTALBgNVBAMMBExpbnQxDjAMBgNV
BAoMBVpMaW50MQswCQYDVQQGEwJERTBZMBMGByqGSM49AgEGCCqGSM49AwEHA0IA
BKhkqk7uhOht9WCvtlnHKSCLQUW8G8jOvINM7FbsKXPX2MP12zxUrfgiEKKXSHqx
1y6nqmvKb91uJ0woUdL7h4mjODA2MB8GA1UdIwQYMBaAFIWA14ppjiJhBkkoTk4r
6x80uQ3LMBMGA1UdIAQMMAowCAYGZ4EMAQIBMAoGCCqGSM49BAMCA0kAMEYCIQDa
NK2INVD0twdd5QnxBa4x/zk1Blhu88Hc9XSSSykiRAIhALTq7Rm0ggpkpg3YiUSp
6PKzHGQXtAhBCDC8nvc/k5cB
-----END CERTIFICATE-----
