Certificate:
    Data:
        Version: 3 (0x2)
        Serial Number:
            81:bd:5a:5d:43:40:fe:61:d3:d8:ac:a3
        Signature Algorithm: ecdsa-with-SHA256
        Issuer: CN = Lint CA, O = Lint, C = DE
        Validity
            Not Before: Sep 15 00:00:00 2023 GMT
            Not After : Sep 15 00:00:00 2024 GMT
        Subject: CN = Lint, C = DE
        Subject Public Key Info:
            Public Key Algorithm: id-ecPublicKey
                Public-Key: (256 bit)
                pub:
                    04:9e:ad:b4:94:d7:d5:1e:ed:56:7d:31:7a:a9:fd:
                    44:ab:73:dd:30:bc:d1:6d:57:46:36:39:22:02:c9:
                    a1:45:f9:d1:0a:5b:43:37:35:bf:17:7b:ba:ed:e2:
                    ae:13:28:6f:e1:4a:31:f5:6c:29:dd:7f:f1:7d:2b:
                    5f:20:91:60:3f
                ASN1 OID: prime256v1
                NIST CURVE: P-256
        X509v3 extensions:
            X509v3 Authority Key Identifier: 
                keyid:85:80:D7:8A:69:8E:22:61:06:49:28:4E:4E:2B:EB:1F:34:B9:0D:CB

            X509v3 Certificate Policies: 
                Policy: 2.23.140.1.2.1

    Signature Algorithm: ecdsa-with-SHA256
         30:44:02:20:50:82:33:f9:c0:43:6c:88:57:29:af:94:88:dd:
         41:3a:64:c4:b0:82:77:24:92:d9:6d:6b:29:d8:68:df:97:e5:
         02:20:56:9b:a2:9d:e6:01:3d:c1:fc:0d:29:15:39:87:96:33:
         5c:19:68:31:94:06:74:f9:0f:84:4e:91:fe:41:07:d0
-----BEGIN CERTIFICATE-----
MIIBfDCCASOgAwIBAgINAIG9Wl1DQP5h09isozAKBggqhkjOPQQDAjAuMRAwDgYD
VQQDDAdMaW50IENBMQ0wCwYDVQQKDARMaW50MQswCQYDVQQGEwJERTAeFw0yMzA5
MTUwMDAwMDBaFw0yNDA5MTUwMDAwMDBaMBwxDTALBgNVBAMMBExpbnQxCzAJBgNV
BAYTAkRFMFkwEwYHKoZIzj0CAQYIKoZIzj0DAQcDQgAEnq20lNfVHu1WfTF6qf1E
q3PdMLzRbVdGNjkiAsmhRfnRCltDNzW/F3u67eKuEyhv4Uox9Wwp3X/xfStfIJFg
P6M4MDYwHwYDVR0jBBgwFoAUhYDXimmOImEGSShOTivrHzS5DcswEwYDVR0gBAww
CjAIBgZngQwBAgEwCgYIKoZIzj0EAwIDRwAwRAIgUIIz+cBDbIhXKa+UiN1BOmTE
sIJ3JJLZbWsp2Gjfl+UCIFabop3mAT3B/A0pFTmHljNcGWgxlAZ0+Q+ETpH+QQfQ
-----END CERTIFICATE-----
