Certificate:
    Data:
        Version: 3 (0x2)
        Serial Number:
            63:b9:7b:25:fb:cc:47:cf:53:55:a6:38:b3:b2:74:bd
        Signature Algorithm: ecdsa-with-SHA256
        Issuer: CN=Client Auth CA, OU=CA, O=Example Co, C=US
        Validity
            Not Before: May  3 02:32:59 2026 GMT
            Not After : Nov 17 03:32:59 2026 GMT
        Subject: C=US
        Subject Public Key Info:
            Public Key Algorithm: id-ecPublicKey
                Public-Key: (256 bit)
                pub:
                    04:eb:34:e2:dc:99:18:05:de:21:5b:18:09:81:46:
                    14:ed:79:8d:de:06:8c:1e:5d:df:18:e6:2e:3a:7e:
                    f0:fa:70:31:ec:12:65:ef:e7:41:15:af:43:ad:e4:
                    1a:aa:d5:4b:21:dd:1a:bc:e4:8a:79:19:8d:17:aa:
                    44:ae:4f:10:48
                ASN1 OID: prime256v1
                NIST CURVE: P-256
        X509v3 extensions:
            X509v3 Key Usage: critical
                Digital Signature, Non Repudiation
            X509v3 Extended Key Usage:
                TLS Web Server Authentication
            X509v3 Subject Key Identifier: 
                7C:22:8F:F2:63:7C:54:D0:AB:10:97:32:51:84:E4:C5:47:3E:4B:53
            X509v3 Authority Key Identifier: 
                82:ED:EB:FB:11:9A:0E:3E:3A:7A:D9:07:62:0D:C6:AF:5B:78:70:D8
            Authority Information Access: 
                OCSP - URI:http://ocsp.example.com
                CA Issuers - URI:http://example.com/ca1.crt
            X509v3 Subject Alternative Name: 
                DNS:dvserverauth.example.com
            X509v3 Certificate Policies: 
                Policy: 2.23.140.1.2.1
            X509v3 CRL Distribution Points: 
                Full Name:
                  URI:http://crl1.example.com/ca1.crl

                Full Name:
                  URI:http://crl2.example.com/ca1.crl

            CT Precertificate SCTs: 
                Signed Certificate Timestamp:
                    Version   : v1 (0x0)
                    Log ID    : C4:69:28:BC:87:DE:23:B9:A8:BD:23:5A:A1:FE:67:CC:
                                B1:54:2C:83:89:AD:3F:02:BF:4A:B5:CF:F5:06:E9:8F
                    Timestamp : Jan 15 06:56:07.890 1970 GMT
                    Extensions: none
                    Signature : ecdsa-with-SHA256
                                73:69:67:6E:61:74:75:72:65:31
                Signed Certificate Timestamp:
                    Version   : v1 (0x0)
                    Log ID    : 73:AA:A5:07:1D:9F:86:15:50:D5:14:69:CB:D8:9E:0A:
                                6E:53:71:48:6F:D9:4C:96:75:28:1D:1C:EF:BD:51:17
                    Timestamp : Jan 15 06:56:07.891 1970 GMT
                    Extensions: none
                    Signature : ecdsa-with-SHA256
                                73:69:67:6E:61:74:75:72:65:32
    Signature Algorithm: ecdsa-with-SHA256
    Signature Value:
        30:45:02:21:00:af:ce:c6:fb:e3:25:ac:7b:88:0d:a4:dd:0a:
        bd:86:76:4f:10:f9:dd:fb:14:0b:d5:82:6c:15:97:c1:4c:af:
        a3:02:20:7c:25:2f:cc:67:10:3a:d9:75:68:cc:8d:96:1d:4e:
        f4:68:1e:2e:b5:bc:ac:38:69:94:db:5e:9f:eb:dd:7e:ba
-----BEGIN CERTIFICATE-----
MIIDOTCCAt+gAwIBAgIQY7l7JfvMR89TVaY4s7J0vTAKBggqhkjOPQQDAjBIMRcw
FQYDVQQDEw5DbGllbnQgQXV0aCBDQTELMAkGA1UECxMCQ0ExEzARBgNVBAoTCkV4
YW1wbGUgQ28xCzAJBgNVBAYTAlVTMB4XDTI2MDUwMzAyMzI1OVoXDTI2MTExNzAz
MzI1OVowDTELMAkGA1UEBhMCVVMwWTATBgcqhkjOPQIBBggqhkjOPQMBBwNCAATr
NOLcmRgF3iFbGAmBRhTteY3eBoweXd8Y5i46fvD6cDHsEmXv50EVr0Ot5Bqq1Ush
3Rq85Ip5GY0XqkSuTxBIo4IB5DCCAeAwDgYDVR0PAQH/BAQDAgbAMBMGA1UdJQQM
MAoGCCsGAQUFBwMBMB0GA1UdDgQWBBR8Io/yY3xU0KsQlzJRhOTFRz5LUzAfBgNV
HSMEGDAWgBSC7ev7EZoOPjp62QdiDcavW3hw2DBbBggrBgEFBQcBAQRPME0wIwYI
KwYBBQUHMAGGF2h0dHA6Ly9vY3NwLmV4YW1wbGUuY29tMCYGCCsGAQUFBzAChhpo
dHRwOi8vZXhhbXBsZS5jb20vY2ExLmNydDAjBgNVHREEHDAaghhkdnNlcnZlcmF1
dGguZXhhbXBsZS5jb20wEwYDVR0gBAwwCjAIBgZngQwBAgEwVwYDVR0fBFAwTjAl
oCOgIYYfaHR0cDovL2NybDEuZXhhbXBsZS5jb20vY2ExLmNybDAloCOgIYYfaHR0
cDovL2NybDIuZXhhbXBsZS5jb20vY2ExLmNybDCBiAYKKwYBBAHWeQIEAgR6BHgA
dgA5AMRpKLyH3iO5qL0jWqH+Z8yxVCyDia0/Ar9Ktc/1BumPAAAAAEmWAtIAAAQD
AApzaWduYXR1cmUxADkAc6qlBx2fhhVQ1RRpy9ieCm5TcUhv2UyWdSgdHO+9URcA
AAAASZYC0wAABAMACnNpZ25hdHVyZTIwCgYIKoZIzj0EAwIDSAAwRQIhAK/Oxvvj
Jax7iA2k3Qq9hnZPEPnd+xQL1YJsFZfBTK+jAiB8JS/MZxA62XVozI2WHU70aB4u
tbysOGmU216f691+ug==
-----END CERTIFICATE-----
