Certificate:
    Data:
        Version: 3 (0x2)
        Serial Number:
            42:4c:45:1f:6b:55:99:14:7a:ff:fa:fd:52:ae:61:eb
        Signature Algorithm: ecdsa-with-SHA256
        Issuer: CN=Client Auth CA, OU=CA, O=Example Co, C=US
        Validity
            Not Before: May  2 20:43:00 2026 GMT
            Not After : Nov 16 21:43:00 2026 GMT
        Subject: C=US
        Subject Public Key Info:
            Public Key Algorithm: id-ecPublicKey
                Public-Key: (256 bit)
                pub:
                    04:15:2b:b6:df:76:6d:b4:d3:de:6c:a2:70:22:de:
                    78:1d:ee:ae:5e:1b:bb:b1:8f:e0:4d:b1:d6:c5:4b:
                    12:a5:34:98:58:12:01:30:eb:35:ce:82:18:14:4b:
                    ad:46:bd:fd:c1:80:43:70:d6:7c:15:e3:57:28:1b:
                    4a:66:0b:f0:74
                ASN1 OID: prime256v1
                NIST CURVE: P-256
        X509v3 extensions:
            X509v3 Key Usage: critical
                Key Agreement
            X509v3 Extended Key Usage: 
                TLS Web Server Authentication
            X509v3 Subject Key Identifier: 
                97:81:E2:2D:43:CB:58:29:0F:E8:7F:FA:E3:07:CC:1B:28:0B:70:30
            X509v3 Authority Key Identifier: 
                4B:18:7B:9B:6C:9A:E9:0E:14:D6:16:38:9F:75:B8:66:0D:0A:7B:3F
            Authority Information Access: 
                OCSP - URI:http://ocsp.example.com
                CA Issuers - URI:http://example.com/ca1.crt
            X509v3 Subject Alternative Name: 
                DNS:dvserverauth.example.com
            X509v3 Certificate Policies: 
                Policy: 2.23.140.1.2.1
            X509v3 CRL Distribution Points: 
                Full Name:
                  URI:http://crl1.example.com/ca1.crl

                Full Name:
                  URI:http://crl2.example.com/ca1.crl

            CT Precertificate SCTs: 
                Signed Certificate Timestamp:
                    Version   : v1 (0x0)
                    Log ID    : C4:69:28:BC:87:DE:23:B9:A8:BD:23:5A:A1:FE:67:CC:
                                B1:54:2C:83:89:AD:3F:02:BF:4A:B5:CF:F5:06:E9:8F
                    Timestamp : Jan 15 06:56:07.890 1970 GMT
                    Extensions: none
                    Signature : ecdsa-with-SHA256
                                73:69:67:6E:61:74:75:72:65:31
                Signed Certificate Timestamp:
                    Version   : v1 (0x0)
                    Log ID    : 73:AA:A5:07:1D:9F:86:15:50:D5:14:69:CB:D8:9E:0A:
                                6E:53:71:48:6F:D9:4C:96:75:28:1D:1C:EF:BD:51:17
                    Timestamp : Jan 15 06:56:07.891 1970 GMT
                    Extensions: none
                    Signature : ecdsa-with-SHA256
                                73:69:67:6E:61:74:75:72:65:32
    Signature Algorithm: ecdsa-with-SHA256
    Signature Value:
        30:44:02:20:1b:10:01:ed:8f:dd:88:75:49:8c:79:fc:6d:a9:
        04:c4:36:00:31:4c:75:39:3f:a4:97:76:d5:c1:e1:ff:15:b8:
        02:20:62:09:41:8a:85:f4:41:5f:c6:b1:4b:46:61:06:a3:d8:
        79:e9:7d:3c:b8:cc:42:10:6b:67:00:ed:e8:b6:6b:43
-----BEGIN CERTIFICATE-----
MIIDODCCAt+gAwIBAgIQQkxFH2tVmRR6//r9Uq5h6zAKBggqhkjOPQQDAjBIMRcw
FQYDVQQDEw5DbGllbnQgQXV0aCBDQTELMAkGA1UECxMCQ0ExEzARBgNVBAoTCkV4
YW1wbGUgQ28xCzAJBgNVBAYTAlVTMB4XDTI2MDUwMjIwNDMwMFoXDTI2MTExNjIx
NDMwMFowDTELMAkGA1UEBhMCVVMwWTATBgcqhkjOPQIBBggqhkjOPQMBBwNCAAQV
K7bfdm20095sonAi3ngd7q5eG7uxj+BNsdbFSxKlNJhYEgEw6zXOghgUS61Gvf3B
gENw1nwV41coG0pmC/B0o4IB5DCCAeAwDgYDVR0PAQH/BAQDAgMIMBMGA1UdJQQM
MAoGCCsGAQUFBwMBMB0GA1UdDgQWBBSXgeItQ8tYKQ/of/rjB8wbKAtwMDAfBgNV
HSMEGDAWgBRLGHubbJrpDhTWFjifdbhmDQp7PzBbBggrBgEFBQcBAQRPME0wIwYI
KwYBBQUHMAGGF2h0dHA6Ly9vY3NwLmV4YW1wbGUuY29tMCYGCCsGAQUFBzAChhpo
dHRwOi8vZXhhbXBsZS5jb20vY2ExLmNydDAjBgNVHREEHDAaghhkdnNlcnZlcmF1
dGguZXhhbXBsZS5jb20wEwYDVR0gBAwwCjAIBgZngQwBAgEwVwYDVR0fBFAwTjAl
oCOgIYYfaHR0cDovL2NybDEuZXhhbXBsZS5jb20vY2ExLmNybDAloCOgIYYfaHR0
cDovL2NybDIuZXhhbXBsZS5jb20vY2ExLmNybDCBiAYKKwYBBAHWeQIEAgR6BHgA
dgA5AMRpKLyH3iO5qL0jWqH+Z8yxVCyDia0/Ar9Ktc/1BumPAAAAAEmWAtIAAAQD
AApzaWduYXR1cmUxADkAc6qlBx2fhhVQ1RRpy9ieCm5TcUhv2UyWdSgdHO+9URcA
AAAASZYC0wAABAMACnNpZ25hdHVyZTIwCgYIKoZIzj0EAwIDRwAwRAIgGxAB7Y/d
iHVJjHn8bakExDYAMUx1OT+kl3bVweH/FbgCIGIJQYqF9EFfxrFLRmEGo9h56X08
uMxCEGtnAO3otmtD
-----END CERTIFICATE-----
