Certificate:
    Data:
        Version: 3 (0x2)
        Serial Number:
            56:6e:d3:85:4f:ed:01:4d:94:97:68:e1:59:60:09:48
        Signature Algorithm: ecdsa-with-SHA256
        Issuer: CN=Client Auth CA, OU=CA, O=Example Co, C=US
        Validity
            Not Before: May  2 20:48:57 2026 GMT
            Not After : Nov 16 21:48:57 2026 GMT
        Subject: C=US
        Subject Public Key Info:
            Public Key Algorithm: id-ecPublicKey
                Public-Key: (256 bit)
                pub:
                    04:81:fc:fc:62:e9:34:72:54:07:e4:b1:45:60:d5:
                    c8:8a:67:66:42:45:db:d6:a0:de:bf:7e:c1:38:07:
                    81:32:d0:db:f1:19:9c:51:3f:4c:05:5c:d8:b0:98:
                    7f:2a:e7:bd:79:7e:eb:e4:cc:a2:c9:77:e8:f1:67:
                    f4:b4:c7:04:97
                ASN1 OID: prime256v1
                NIST CURVE: P-256
        X509v3 extensions:
            X509v3 Key Usage: critical
                Digital Signature, Key Agreement
            X509v3 Extended Key Usage: 
                TLS Web Server Authentication
            X509v3 Subject Key Identifier: 
                E8:A9:F8:D8:54:C8:D6:51:FB:B3:7C:88:DB:2F:70:B2:F7:C6:64:46
            X509v3 Authority Key Identifier: 
                00:95:84:46:8D:3F:43:54:D8:A8:10:13:CE:9A:60:4A:5F:87:D5:6F
            Authority Information Access: 
                OCSP - URI:http://ocsp.example.com
                CA Issuers - URI:http://example.com/ca1.crt
            X509v3 Subject Alternative Name: 
                DNS:dvserverauth.example.com
            X509v3 Certificate Policies: 
                Policy: 2.23.140.1.2.1
            X509v3 CRL Distribution Points: 
                Full Name:
                  URI:http://crl1.example.com/ca1.crl

                Full Name:
                  URI:http://crl2.example.com/ca1.crl

            CT Precertificate SCTs: 
                Signed Certificate Timestamp:
                    Version   : v1 (0x0)
                    Log ID    : C4:69:28:BC:87:DE:23:B9:A8:BD:23:5A:A1:FE:67:CC:
                                B1:54:2C:83:89:AD:3F:02:BF:4A:B5:CF:F5:06:E9:8F
                    Timestamp : Jan 15 06:56:07.890 1970 GMT
                    Extensions: none
                    Signature : ecdsa-with-SHA256
                                73:69:67:6E:61:74:75:72:65:31
                Signed Certificate Timestamp:
                    Version   : v1 (0x0)
                    Log ID    : 73:AA:A5:07:1D:9F:86:15:50:D5:14:69:CB:D8:9E:0A:
                                6E:53:71:48:6F:D9:4C:96:75:28:1D:1C:EF:BD:51:17
                    Timestamp : Jan 15 06:56:07.891 1970 GMT
                    Extensions: none
                    Signature : ecdsa-with-SHA256
                                73:69:67:6E:61:74:75:72:65:32
    Signature Algorithm: ecdsa-with-SHA256
    Signature Value:
        30:46:02:21:00:b4:e1:bc:02:45:d2:bf:fb:55:7f:8f:fa:c0:
        6c:39:e0:bc:2f:c4:64:ed:80:a0:f3:7c:ac:c8:a7:c1:f3:5b:
        60:02:21:00:87:c9:0f:77:07:3e:cb:d9:40:4f:9f:40:64:ab:
        8f:bc:0f:cb:a0:58:cb:17:3b:0a:db:08:c0:82:31:bc:7d:db
-----BEGIN CERTIFICATE-----
MIIDOjCCAt+gAwIBAgIQVm7ThU/tAU2Ul2jhWWAJSDAKBggqhkjOPQQDAjBIMRcw
FQYDVQQDEw5DbGllbnQgQXV0aCBDQTELMAkGA1UECxMCQ0ExEzARBgNVBAoTCkV4
YW1wbGUgQ28xCzAJBgNVBAYTAlVTMB4XDTI2MDUwMjIwNDg1N1oXDTI2MTExNjIx
NDg1N1owDTELMAkGA1UEBhMCVVMwWTATBgcqhkjOPQIBBggqhkjOPQMBBwNCAASB
/Pxi6TRyVAfksUVg1ciKZ2ZCRdvWoN6/fsE4B4Ey0NvxGZxRP0wFXNiwmH8q5715
fuvkzKLJd+jxZ/S0xwSXo4IB5DCCAeAwDgYDVR0PAQH/BAQDAgOIMBMGA1UdJQQM
MAoGCCsGAQUFBwMBMB0GA1UdDgQWBBToqfjYVMjWUfuzfIjbL3Cy98ZkRjAfBgNV
HSMEGDAWgBQAlYRGjT9DVNioEBPOmmBKX4fVbzBbBggrBgEFBQcBAQRPME0wIwYI
KwYBBQUHMAGGF2h0dHA6Ly9vY3NwLmV4YW1wbGUuY29tMCYGCCsGAQUFBzAChhpo
dHRwOi8vZXhhbXBsZS5jb20vY2ExLmNydDAjBgNVHREEHDAaghhkdnNlcnZlcmF1
dGguZXhhbXBsZS5jb20wEwYDVR0gBAwwCjAIBgZngQwBAgEwVwYDVR0fBFAwTjAl
oCOgIYYfaHR0cDovL2NybDEuZXhhbXBsZS5jb20vY2ExLmNybDAloCOgIYYfaHR0
cDovL2NybDIuZXhhbXBsZS5jb20vY2ExLmNybDCBiAYKKwYBBAHWeQIEAgR6BHgA
dgA5AMRpKLyH3iO5qL0jWqH+Z8yxVCyDia0/Ar9Ktc/1BumPAAAAAEmWAtIAAAQD
AApzaWduYXR1cmUxADkAc6qlBx2fhhVQ1RRpy9ieCm5TcUhv2UyWdSgdHO+9URcA
AAAASZYC0wAABAMACnNpZ25hdHVyZTIwCgYIKoZIzj0EAwIDSQAwRgIhALThvAJF
0r/7VX+P+sBsOeC8L8Rk7YCg83ysyKfB81tgAiEAh8kPdwc+y9lAT59AZKuPvA/L
oFjLFzsK2wjAgjG8fds=
-----END CERTIFICATE-----
