Certificate:
    Data:
        Version: 3 (0x2)
        Serial Number: 256 (0x100)
        Signature Algorithm: ecdsa-with-SHA384
        Issuer: CN = Lint CA, OU = Test, O = MTG, C = DE
        Validity
            Not Before: Jan  2 09:00:00 2020 GMT
            Not After : Jan  2 09:00:00 2022 GMT
        Subject: CN = ECC Certificate, C = DE
        Subject Public Key Info:
            Public Key Algorithm: id-ecPublicKey
                Public-Key: (384 bit)
                pub:
                    04:77:ff:f0:30:2d:7b:ca:8d:88:c6:fa:8d:ce:50:
                    30:93:50:bf:50:96:7d:cb:d0:6d:60:99:07:5b:d8:
                    80:b3:8f:7f:5a:cc:fe:dd:52:d6:58:23:cc:a3:8e:
                    7a:24:2d:81:3e:c8:c3:e6:22:c7:dd:6a:27:14:ee:
                    1e:f2:72:28:3d:ce:68:b6:44:2d:2d:a0:a1:72:77:
                    e0:a1:08:d3:2d:3f:e9:53:10:1f:df:54:69:25:19:
                    b1:61:82:2a:fe:84:fe
                ASN1 OID: secp384r1
                NIST CURVE: P-384
    Signature Algorithm: ecdsa-with-SHA384
         30:66:02:31:00:fb:b9:a3:66:26:6d:c2:2f:78:fe:74:6a:18:
         f6:98:45:c5:1a:8d:11:48:9b:e7:4f:0e:a3:68:28:aa:85:ca:
         13:a9:8f:10:fb:f5:2d:f2:ae:09:f6:bc:a3:c8:c9:c3:af:02:
         31:00:c0:90:8a:ae:71:12:5f:e9:fb:47:97:c0:77:b3:98:db:
         93:10:87:66:91:d9:92:bd:d2:07:91:ed:3f:e0:a6:a2:c5:82:
         c8:4d:a9:fd:e4:28:9f:82:76:f0:0b:f0:99:97
-----BEGIN CERTIFICATE-----
MIIBjzCCARSgAwIBAgICAQAwCgYIKoZIzj0EAwMwPDEQMA4GA1UEAwwHTGludCBD
QTENMAsGA1UECwwEVGVzdDEMMAoGA1UECgwDTVRHMQswCQYDVQQGEwJERTAeFw0y
MDAxMDIwOTAwMDBaFw0yMjAxMDIwOTAwMDBaMCcxGDAWBgNVBAMMD0VDQyBDZXJ0
aWZpY2F0ZTELMAkGA1UEBhMCREUwdjAQBgcqhkjOPQIBBgUrgQQAIgNiAAR3//Aw
LXvKjYjG+o3OUDCTUL9Qln3L0G1gmQdb2ICzj39azP7dUtZYI8yjjnokLYE+yMPm
IsfdaicU7h7ycig9zmi2RC0toKFyd+ChCNMtP+lTEB/fVGklGbFhgir+hP4wCgYI
KoZIzj0EAwMDaQAwZgIxAPu5o2YmbcIveP50ahj2mEXFGo0RSJvnTw6jaCiqhcoT
qY8Q+/Ut8q4J9ryjyMnDrwIxAMCQiq5xEl/p+0eXwHezmNuTEIdmkdmSvdIHke0/
4KaixYLITan95CifgnbwC/CZlw==
-----END CERTIFICATE-----
