Certificate:
    Data:
        Version: 3 (0x2)
        Serial Number:
            4a:92:da:e2:31:80:48:fc:a2:be:d7:0d:d9:fc:44:80
        Signature Algorithm: ecdsa-with-SHA384
        Issuer: CN=Test CA 2, OU=CA, O=Example Co, C=US
        Validity
            Not Before: Mar 21 15:20:44 2027 GMT
            Not After : Jun 20 15:20:44 2027 GMT
        Subject: C=US, ST=California, L=Mountain View, O=Example Co, CN=ovserverauth.example.com
        Subject Public Key Info:
            Public Key Algorithm: id-ecPublicKey
                Public-Key: (384 bit)
                pub:
                    04:0f:43:86:37:bb:ee:93:95:a3:08:c8:08:4a:91:
                    52:c9:1b:57:9c:1f:da:d3:cf:b5:3e:a2:af:34:10:
                    81:13:d5:d3:6b:1e:d8:12:e5:5e:05:ef:83:84:1f:
                    59:32:a1:04:f1:b9:bf:91:de:9b:ee:40:a8:e1:0b:
                    c7:13:db:37:7f:19:ca:12:32:ab:25:b6:ff:f3:c7:
                    5f:0e:58:8e:7b:02:08:b0:f5:21:d0:5d:7e:61:d3:
                    5e:87:d3:b2:bd:61:fa
                ASN1 OID: secp384r1
                NIST CURVE: P-384
        X509v3 extensions:
            X509v3 Key Usage: critical
                Digital Signature, Key Encipherment
            X509v3 Extended Key Usage: 
                TLS Web Server Authentication, TLS Web Client Authentication
            X509v3 Subject Key Identifier: 
                01:02:03:04:05:06
            X509v3 Authority Key Identifier: 
                01:02:03:04:05:06
            Authority Information Access: 
                OCSP - URI:http://ocsp.example.com
                CA Issuers - URI:http://example.com/ca1.crt
            X509v3 Subject Alternative Name: 
                DNS:ovserverauth.example.com, IP Address:192.32.23.43
            X509v3 Certificate Policies: 
                Policy: 2.23.140.1.2.2
            X509v3 CRL Distribution Points: 
                Full Name:
                  URI:http://crl1.example.com/ca1.crl

                Full Name:
                  URI:http://crl2.example.com/ca1.crl

    Signature Algorithm: ecdsa-with-SHA384
    Signature Value:
        30:65:02:31:00:c1:df:88:12:20:78:0d:c7:35:96:0e:12:1d:
        1d:8d:0c:3c:74:89:7b:78:33:e7:7f:42:08:7a:4e:8f:1d:3b:
        d0:91:fe:04:e8:fb:2a:e2:58:4f:ce:4b:96:58:0b:3d:e1:02:
        30:69:fc:bc:08:23:60:15:4e:55:04:53:c1:4d:2b:61:b3:9f:
        d5:ba:1f:41:1c:66:bb:79:31:46:1c:47:c0:21:95:38:23:92:
        b5:84:c2:c6:da:22:09:15:8c:55:dd:5c:4f
-----BEGIN CERTIFICATE-----
MIIDPzCCAsWgAwIBAgIQSpLa4jGASPyivtcN2fxEgDAKBggqhkjOPQQDAzBDMRIw
EAYDVQQDEwlUZXN0IENBIDIxCzAJBgNVBAsTAkNBMRMwEQYDVQQKEwpFeGFtcGxl
IENvMQswCQYDVQQGEwJVUzAeFw0yNzAzMjExNTIwNDRaFw0yNzA2MjAxNTIwNDRa
MHIxCzAJBgNVBAYTAlVTMRMwEQYDVQQIEwpDYWxpZm9ybmlhMRYwFAYDVQQHEw1N
b3VudGFpbiBWaWV3MRMwEQYDVQQKEwpFeGFtcGxlIENvMSEwHwYDVQQDExhvdnNl
cnZlcmF1dGguZXhhbXBsZS5jb20wdjAQBgcqhkjOPQIBBgUrgQQAIgNiAAQPQ4Y3
u+6TlaMIyAhKkVLJG1ecH9rTz7U+oq80EIET1dNrHtgS5V4F74OEH1kyoQTxub+R
3pvuQKjhC8cT2zd/GcoSMqsltv/zx18OWI57Agiw9SHQXX5h016H07K9YfqjggFN
MIIBSTAOBgNVHQ8BAf8EBAMCBaAwHQYDVR0lBBYwFAYIKwYBBQUHAwEGCCsGAQUF
BwMCMA8GA1UdDgQIBAYBAgMEBQYwEQYDVR0jBAowCIAGAQIDBAUGMFsGCCsGAQUF
BwEBBE8wTTAjBggrBgEFBQcwAYYXaHR0cDovL29jc3AuZXhhbXBsZS5jb20wJgYI
KwYBBQUHMAKGGmh0dHA6Ly9leGFtcGxlLmNvbS9jYTEuY3J0MCkGA1UdEQQiMCCC
GG92c2VydmVyYXV0aC5leGFtcGxlLmNvbYcEwCAXKzATBgNVHSAEDDAKMAgGBmeB
DAECAjBXBgNVHR8EUDBOMCWgI6Ahhh9odHRwOi8vY3JsMS5leGFtcGxlLmNvbS9j
YTEuY3JsMCWgI6Ahhh9odHRwOi8vY3JsMi5leGFtcGxlLmNvbS9jYTEuY3JsMAoG
CCqGSM49BAMDA2gAMGUCMQDB34gSIHgNxzWWDhIdHY0MPHSJe3gz539CCHpOjx07
0JH+BOj7KuJYT85LllgLPeECMGn8vAgjYBVOVQRTwU0rYbOf1bofQRxmu3kxRhxH
wCGVOCOStYTCxtoiCRWMVd1cTw==
-----END CERTIFICATE-----
