Certificate:
    Data:
        Version: 3 (0x2)
        Serial Number:
            b0:ed:e1:4f:dc:cf:15:c5:a7:f4:02:51:39:24:7a:af
        Signature Algorithm: ecdsa-with-SHA256
        Issuer: CN=Test CA 2, OU=CA, O=Example Co, C=US
        Validity
            Not Before: Mar 21 15:17:25 2027 GMT
            Not After : Jun 20 15:17:25 2027 GMT
        Subject: C=US, ST=California, L=Mountain View, O=Example Co, CN=ovserverauth.example.com
        Subject Public Key Info:
            Public Key Algorithm: id-ecPublicKey
                Public-Key: (256 bit)
                pub:
                    04:28:03:bc:ff:c8:2b:83:52:8e:2c:c4:11:d3:35:
                    29:b5:ab:85:73:15:0b:5a:02:01:f4:99:60:17:00:
                    96:20:ac:87:a0:06:f7:11:08:19:d4:cb:a0:7d:9b:
                    21:04:ff:85:b3:45:22:2d:12:75:06:f2:61:1a:fe:
                    5a:d7:4c:30:1f
                ASN1 OID: prime256v1
                NIST CURVE: P-256
        X509v3 extensions:
            X509v3 Key Usage: critical
                Digital Signature, Key Encipherment
            X509v3 Extended Key Usage: 
                TLS Web Server Authentication, TLS Web Client Authentication
            X509v3 Subject Key Identifier: 
                01:02:03:04:05:06
            X509v3 Authority Key Identifier: 
                01:02:03:04:05:06
            Authority Information Access: 
                OCSP - URI:http://ocsp.example.com
                CA Issuers - URI:http://example.com/ca1.crt
            X509v3 Subject Alternative Name: 
                DNS:ovserverauth.example.com, IP Address:192.32.23.43
            X509v3 Certificate Policies: 
                Policy: 2.23.140.1.2.2
            X509v3 CRL Distribution Points: 
                Full Name:
                  URI:http://crl1.example.com/ca1.crl

                Full Name:
                  URI:http://crl2.example.com/ca1.crl

    Signature Algorithm: ecdsa-with-SHA256
    Signature Value:
        30:45:02:21:00:8d:a1:96:ff:ef:69:a9:ef:c1:f4:74:14:4c:
        d3:42:ae:06:b4:59:51:5a:12:b9:60:3c:99:35:11:f4:44:a9:
        5c:02:20:13:ec:66:1c:63:a2:9b:4d:d4:b1:40:fa:72:9e:8b:
        f0:f6:a7:d0:9b:a6:20:9f:be:cf:97:16:79:46:f4:ee:91
-----BEGIN CERTIFICATE-----
MIIDAzCCAqmgAwIBAgIRALDt4U/czxXFp/QCUTkkeq8wCgYIKoZIzj0EAwIwQzES
MBAGA1UEAxMJVGVzdCBDQSAyMQswCQYDVQQLEwJDQTETMBEGA1UEChMKRXhhbXBs
ZSBDbzELMAkGA1UEBhMCVVMwHhcNMjcwMzIxMTUxNzI1WhcNMjcwNjIwMTUxNzI1
WjByMQswCQYDVQQGEwJVUzETMBEGA1UECBMKQ2FsaWZvcm5pYTEWMBQGA1UEBxMN
TW91bnRhaW4gVmlldzETMBEGA1UEChMKRXhhbXBsZSBDbzEhMB8GA1UEAxMYb3Zz
ZXJ2ZXJhdXRoLmV4YW1wbGUuY29tMFkwEwYHKoZIzj0CAQYIKoZIzj0DAQcDQgAE
KAO8/8grg1KOLMQR0zUptauFcxULWgIB9JlgFwCWIKyHoAb3EQgZ1MugfZshBP+F
s0UiLRJ1BvJhGv5a10wwH6OCAU0wggFJMA4GA1UdDwEB/wQEAwIFoDAdBgNVHSUE
FjAUBggrBgEFBQcDAQYIKwYBBQUHAwIwDwYDVR0OBAgEBgECAwQFBjARBgNVHSME
CjAIgAYBAgMEBQYwWwYIKwYBBQUHAQEETzBNMCMGCCsGAQUFBzABhhdodHRwOi8v
b2NzcC5leGFtcGxlLmNvbTAmBggrBgEFBQcwAoYaaHR0cDovL2V4YW1wbGUuY29t
L2NhMS5jcnQwKQYDVR0RBCIwIIIYb3ZzZXJ2ZXJhdXRoLmV4YW1wbGUuY29thwTA
IBcrMBMGA1UdIAQMMAowCAYGZ4EMAQICMFcGA1UdHwRQME4wJaAjoCGGH2h0dHA6
Ly9jcmwxLmV4YW1wbGUuY29tL2NhMS5jcmwwJaAjoCGGH2h0dHA6Ly9jcmwyLmV4
YW1wbGUuY29tL2NhMS5jcmwwCgYIKoZIzj0EAwIDSAAwRQIhAI2hlv/vaanvwfR0
FEzTQq4GtFlRWhK5YDyZNRH0RKlcAiAT7GYcY6KbTdSxQPpynovw9qfQm6Ygn77P
lxZ5RvTukQ==
-----END CERTIFICATE-----
