Certificate:
    Data:
        Version: 3 (0x2)
        Serial Number:
            f8:16:77:c4:ce:5c:30:15:e8:2b:96:fb:44:79:e7:5a
        Signature Algorithm: ecdsa-with-SHA512
        Issuer: CN=Test CA 2, OU=CA, O=Example Co, C=US
        Validity
            Not Before: Mar 21 15:23:35 2027 GMT
            Not After : Jun 20 15:23:35 2027 GMT
        Subject: C=US, ST=California, L=Mountain View, O=Example Co, CN=ovserverauth.example.com
        Subject Public Key Info:
            Public Key Algorithm: id-ecPublicKey
                Public-Key: (521 bit)
                pub:
                    04:01:c9:25:b7:5b:16:40:1d:f6:d2:89:ab:38:a1:
                    df:cb:f8:14:61:d6:b8:66:63:fb:fe:d8:19:26:ca:
                    25:5c:ac:6c:0c:dc:64:38:8e:36:98:2a:49:8c:21:
                    97:c3:3b:9a:10:a9:52:59:49:06:3c:de:91:50:17:
                    df:7f:62:7e:a4:bd:66:00:29:83:29:e2:ad:a4:ea:
                    34:4a:dd:1c:84:60:cf:e8:73:c4:1d:bb:21:d8:95:
                    ad:8c:55:37:84:84:a8:ed:6e:8d:10:98:69:23:23:
                    52:44:4c:7d:9e:90:5d:1f:a0:f0:71:4e:02:9d:71:
                    cf:fe:9e:aa:ce:dc:9d:d6:2b:d9:84:c7:e8
                ASN1 OID: secp521r1
                NIST CURVE: P-521
        X509v3 extensions:
            X509v3 Key Usage: critical
                Digital Signature, Key Encipherment
            X509v3 Extended Key Usage: 
                TLS Web Server Authentication, TLS Web Client Authentication
            X509v3 Subject Key Identifier: 
                01:02:03:04:05:06
            X509v3 Authority Key Identifier: 
                01:02:03:04:05:06
            Authority Information Access: 
                OCSP - URI:http://ocsp.example.com
                CA Issuers - URI:http://example.com/ca1.crt
            X509v3 Subject Alternative Name: 
                DNS:ovserverauth.example.com, IP Address:192.32.23.43
            X509v3 Certificate Policies: 
                Policy: 2.23.140.1.2.2
            X509v3 CRL Distribution Points: 
                Full Name:
                  URI:http://crl1.example.com/ca1.crl

                Full Name:
                  URI:http://crl2.example.com/ca1.crl

    Signature Algorithm: ecdsa-with-SHA512
    Signature Value:
        30:81:88:02:42:01:06:aa:8b:ba:f7:2c:6c:a5:c7:43:70:00:
        54:ba:8f:df:76:3b:d5:e9:6a:39:57:23:2e:15:72:44:26:0b:
        de:4c:b7:3a:bb:6c:01:ff:cc:fe:77:e6:87:11:fb:f7:c9:a8:
        89:d2:8e:f5:88:e8:49:fb:47:5a:d7:8a:8f:7a:c9:6e:75:02:
        42:00:ae:0e:93:90:e1:16:26:86:bb:bc:55:f9:56:d3:67:ce:
        5f:4c:07:78:22:1b:11:b8:e7:a4:ca:14:ce:80:1d:d5:95:98:
        06:08:aa:a6:1a:1b:63:64:f3:8d:4e:b5:54:6b:9f:51:55:d7:
        42:ab:0d:a4:8c:d8:5e:c7:ff:35:18:d2:f4
-----BEGIN CERTIFICATE-----
MIIDizCCAuygAwIBAgIRAPgWd8TOXDAV6CuW+0R551owCgYIKoZIzj0EAwQwQzES
MBAGA1UEAxMJVGVzdCBDQSAyMQswCQYDVQQLEwJDQTETMBEGA1UEChMKRXhhbXBs
ZSBDbzELMAkGA1UEBhMCVVMwHhcNMjcwMzIxMTUyMzM1WhcNMjcwNjIwMTUyMzM1
WjByMQswCQYDVQQGEwJVUzETMBEGA1UECBMKQ2FsaWZvcm5pYTEWMBQGA1UEBxMN
TW91bnRhaW4gVmlldzETMBEGA1UEChMKRXhhbXBsZSBDbzEhMB8GA1UEAxMYb3Zz
ZXJ2ZXJhdXRoLmV4YW1wbGUuY29tMIGbMBAGByqGSM49AgEGBSuBBAAjA4GGAAQB
ySW3WxZAHfbSias4od/L+BRh1rhmY/v+2BkmyiVcrGwM3GQ4jjaYKkmMIZfDO5oQ
qVJZSQY83pFQF99/Yn6kvWYAKYMp4q2k6jRK3RyEYM/oc8QduyHYla2MVTeEhKjt
bo0QmGkjI1JETH2ekF0foPBxTgKdcc/+nqrO3J3WK9mEx+ijggFNMIIBSTAOBgNV
HQ8BAf8EBAMCBaAwHQYDVR0lBBYwFAYIKwYBBQUHAwEGCCsGAQUFBwMCMA8GA1Ud
DgQIBAYBAgMEBQYwEQYDVR0jBAowCIAGAQIDBAUGMFsGCCsGAQUFBwEBBE8wTTAj
BggrBgEFBQcwAYYXaHR0cDovL29jc3AuZXhhbXBsZS5jb20wJgYIKwYBBQUHMAKG
Gmh0dHA6Ly9leGFtcGxlLmNvbS9jYTEuY3J0MCkGA1UdEQQiMCCCGG92c2VydmVy
YXV0aC5leGFtcGxlLmNvbYcEwCAXKzATBgNVHSAEDDAKMAgGBmeBDAECAjBXBgNV
HR8EUDBOMCWgI6Ahhh9odHRwOi8vY3JsMS5leGFtcGxlLmNvbS9jYTEuY3JsMCWg
I6Ahhh9odHRwOi8vY3JsMi5leGFtcGxlLmNvbS9jYTEuY3JsMAoGCCqGSM49BAME
A4GMADCBiAJCAQaqi7r3LGylx0NwAFS6j992O9XpajlXIy4VckQmC95Mtzq7bAH/
zP535ocR+/fJqInSjvWI6En7R1rXio96yW51AkIArg6TkOEWJoa7vFX5VtNnzl9M
B3giGxG456TKFM6AHdWVmAYIqqYaG2Nk841OtVRrn1FV10KrDaSM2F7H/zUY0vQ=
-----END CERTIFICATE-----