Certificate:
    Data:
        Version: 3 (0x2)
        Serial Number:
            34:22:2f:1b:19:16:55:10:87:69:72:b8:2e:2f:53:af
        Signature Algorithm: ecdsa-with-SHA256
        Issuer: CN=Test CA 2, OU=CA, O=Example Co, C=US
        Validity
            Not Before: Mar 21 15:30:55 2027 GMT
            Not After : Jun 20 15:30:55 2027 GMT
        Subject: C=US, ST=California, L=Mountain View, O=Example Co, CN=ovserverauth.example.com
        Subject Public Key Info:
            Public Key Algorithm: id-ecPublicKey
                Public-Key: (384 bit)
                pub:
                    04:20:f4:d9:88:f1:cf:33:c9:97:0a:09:0b:d7:22:
                    7b:87:67:85:a7:39:90:6c:63:63:dc:a8:9c:5b:4f:
                    46:33:f4:ca:07:5a:30:aa:16:83:cc:c7:51:36:a9:
                    a6:1c:cb:27:52:2b:8e:f1:cd:8d:41:8c:23:48:f1:
                    09:0e:49:c7:6f:7d:d5:96:53:f7:be:5a:cb:66:37:
                    4b:87:4c:7f:a0:ed:bd:cf:1b:f0:a1:6d:9d:20:7d:
                    9a:7c:d9:2c:5c:70:da
                ASN1 OID: secp384r1
                NIST CURVE: P-384
        X509v3 extensions:
            X509v3 Key Usage: critical
                Digital Signature, Key Encipherment
            X509v3 Extended Key Usage: 
                TLS Web Server Authentication, TLS Web Client Authentication
            X509v3 Subject Key Identifier: 
                01:02:03:04:05:06
            X509v3 Authority Key Identifier: 
                01:02:03:04:05:06
            Authority Information Access: 
                OCSP - URI:http://ocsp.example.com
                CA Issuers - URI:http://example.com/ca1.crt
            X509v3 Subject Alternative Name: 
                DNS:ovserverauth.example.com, IP Address:192.32.23.43
            X509v3 Certificate Policies: 
                Policy: 2.23.140.1.2.2
            X509v3 CRL Distribution Points: 
                Full Name:
                  URI:http://crl1.example.com/ca1.crl

                Full Name:
                  URI:http://crl2.example.com/ca1.crl

    Signature Algorithm: ecdsa-with-SHA256
    Signature Value:
        30:65:02:30:5d:76:91:bf:b1:43:7c:19:da:d3:c6:ac:a8:8a:
        f0:c4:8e:e0:04:35:7e:43:e5:ee:79:4f:04:73:f3:68:23:57:
        21:04:08:20:76:30:74:d9:7e:06:cb:34:68:d1:7f:39:02:31:
        00:8a:5c:60:69:c2:4d:72:01:75:b3:16:84:32:04:b6:b5:56:
        37:0d:54:01:dd:5f:a5:0b:1b:51:c4:f7:51:91:f3:e9:e8:29:
        32:89:ac:25:2c:09:52:35:f2:4d:48:42:8f
-----BEGIN CERTIFICATE-----
MIIDPzCCAsWgAwIBAgIQNCIvGxkWVRCHaXK4Li9TrzAKBggqhkjOPQQDAjBDMRIw
EAYDVQQDEwlUZXN0IENBIDIxCzAJBgNVBAsTAkNBMRMwEQYDVQQKEwpFeGFtcGxl
IENvMQswCQYDVQQGEwJVUzAeFw0yNzAzMjExNTMwNTVaFw0yNzA2MjAxNTMwNTVa
MHIxCzAJBgNVBAYTAlVTMRMwEQYDVQQIEwpDYWxpZm9ybmlhMRYwFAYDVQQHEw1N
b3VudGFpbiBWaWV3MRMwEQYDVQQKEwpFeGFtcGxlIENvMSEwHwYDVQQDExhvdnNl
cnZlcmF1dGguZXhhbXBsZS5jb20wdjAQBgcqhkjOPQIBBgUrgQQAIgNiAAQg9NmI
8c8zyZcKCQvXInuHZ4WnOZBsY2PcqJxbT0Yz9MoHWjCqFoPMx1E2qaYcyydSK47x
zY1BjCNI8QkOScdvfdWWU/e+WstmN0uHTH+g7b3PG/ChbZ0gfZp82SxccNqjggFN
MIIBSTAOBgNVHQ8BAf8EBAMCBaAwHQYDVR0lBBYwFAYIKwYBBQUHAwEGCCsGAQUF
BwMCMA8GA1UdDgQIBAYBAgMEBQYwEQYDVR0jBAowCIAGAQIDBAUGMFsGCCsGAQUF
BwEBBE8wTTAjBggrBgEFBQcwAYYXaHR0cDovL29jc3AuZXhhbXBsZS5jb20wJgYI
KwYBBQUHMAKGGmh0dHA6Ly9leGFtcGxlLmNvbS9jYTEuY3J0MCkGA1UdEQQiMCCC
GG92c2VydmVyYXV0aC5leGFtcGxlLmNvbYcEwCAXKzATBgNVHSAEDDAKMAgGBmeB
DAECAjBXBgNVHR8EUDBOMCWgI6Ahhh9odHRwOi8vY3JsMS5leGFtcGxlLmNvbS9j
YTEuY3JsMCWgI6Ahhh9odHRwOi8vY3JsMi5leGFtcGxlLmNvbS9jYTEuY3JsMAoG
CCqGSM49BAMCA2gAMGUCMF12kb+xQ3wZ2tPGrKiK8MSO4AQ1fkPl7nlPBHPzaCNX
IQQIIHYwdNl+Bss0aNF/OQIxAIpcYGnCTXIBdbMWhDIEtrVWNw1UAd1fpQsbUcT3
UZHz6egpMomsJSwJUjXyTUhCjw==
-----END CERTIFICATE-----
