Certificate:
    Data:
        Version: 3 (0x2)
        Serial Number:
            2c:bd:c1:d9:b9:ee:27:5c:0f:92:b3:c9:18:de:43:7a
        Signature Algorithm: ecdsa-with-SHA512
        Issuer: CN=Test CA 2, OU=CA, O=Example Co, C=US
        Validity
            Not Before: Mar 21 15:36:10 2027 GMT
            Not After : Jun 20 15:36:10 2027 GMT
        Subject: C=US, ST=California, L=Mountain View, O=Example Co, CN=ovserverauth.example.com
        Subject Public Key Info:
            Public Key Algorithm: id-ecPublicKey
                Public-Key: (256 bit)
                pub:
                    04:fc:93:6d:9d:63:5c:26:5f:cd:56:46:e5:c0:94:
                    ab:50:9e:50:cb:0b:0c:0e:b3:7f:a8:cf:13:36:73:
                    ae:57:0f:02:df:76:a0:ec:9a:f9:1a:3a:d8:0d:92:
                    75:25:a9:70:ed:8c:d9:57:3a:00:a7:de:ff:ba:2f:
                    16:ce:84:bd:32
                ASN1 OID: prime256v1
                NIST CURVE: P-256
        X509v3 extensions:
            X509v3 Key Usage: critical
                Digital Signature, Key Encipherment
            X509v3 Extended Key Usage: 
                TLS Web Server Authentication, TLS Web Client Authentication
            X509v3 Subject Key Identifier: 
                01:02:03:04:05:06
            X509v3 Authority Key Identifier: 
                01:02:03:04:05:06
            Authority Information Access: 
                OCSP - URI:http://ocsp.example.com
                CA Issuers - URI:http://example.com/ca1.crt
            X509v3 Subject Alternative Name: 
                DNS:ovserverauth.example.com, IP Address:192.32.23.43
            X509v3 Certificate Policies: 
                Policy: 2.23.140.1.2.2
            X509v3 CRL Distribution Points: 
                Full Name:
                  URI:http://crl1.example.com/ca1.crl

                Full Name:
                  URI:http://crl2.example.com/ca1.crl

    Signature Algorithm: ecdsa-with-SHA512
    Signature Value:
        30:45:02:21:00:ee:a1:23:1e:89:bd:aa:37:10:a1:92:17:16:
        68:84:ae:2a:d4:75:60:eb:a5:c3:ac:69:37:b5:5b:06:a6:30:
        d7:02:20:39:c7:18:6f:8e:ee:ea:23:1e:4a:98:0e:7b:8a:61:
        41:33:83:04:5d:eb:98:95:ff:3f:d7:1c:0b:83:58:1e:25
-----BEGIN CERTIFICATE-----
MIIDAjCCAqigAwIBAgIQLL3B2bnuJ1wPkrPJGN5DejAKBggqhkjOPQQDBDBDMRIw
EAYDVQQDEwlUZXN0IENBIDIxCzAJBgNVBAsTAkNBMRMwEQYDVQQKEwpFeGFtcGxl
IENvMQswCQYDVQQGEwJVUzAeFw0yNzAzMjExNTM2MTBaFw0yNzA2MjAxNTM2MTBa
MHIxCzAJBgNVBAYTAlVTMRMwEQYDVQQIEwpDYWxpZm9ybmlhMRYwFAYDVQQHEw1N
b3VudGFpbiBWaWV3MRMwEQYDVQQKEwpFeGFtcGxlIENvMSEwHwYDVQQDExhvdnNl
cnZlcmF1dGguZXhhbXBsZS5jb20wWTATBgcqhkjOPQIBBggqhkjOPQMBBwNCAAT8
k22dY1wmX81WRuXAlKtQnlDLCwwOs3+ozxM2c65XDwLfdqDsmvkaOtgNknUlqXDt
jNlXOgCn3v+6LxbOhL0yo4IBTTCCAUkwDgYDVR0PAQH/BAQDAgWgMB0GA1UdJQQW
MBQGCCsGAQUFBwMBBggrBgEFBQcDAjAPBgNVHQ4ECAQGAQIDBAUGMBEGA1UdIwQK
MAiABgECAwQFBjBbBggrBgEFBQcBAQRPME0wIwYIKwYBBQUHMAGGF2h0dHA6Ly9v
Y3NwLmV4YW1wbGUuY29tMCYGCCsGAQUFBzAChhpodHRwOi8vZXhhbXBsZS5jb20v
Y2ExLmNydDApBgNVHREEIjAgghhvdnNlcnZlcmF1dGguZXhhbXBsZS5jb22HBMAg
FyswEwYDVR0gBAwwCjAIBgZngQwBAgIwVwYDVR0fBFAwTjAloCOgIYYfaHR0cDov
L2NybDEuZXhhbXBsZS5jb20vY2ExLmNybDAloCOgIYYfaHR0cDovL2NybDIuZXhh
bXBsZS5jb20vY2ExLmNybDAKBggqhkjOPQQDBANIADBFAiEA7qEjHom9qjcQoZIX
FmiErirUdWDrpcOsaTe1WwamMNcCIDnHGG+O7uojHkqYDnuKYUEzgwRd65iV/z/X
HAuDWB4l
-----END CERTIFICATE-----
