Certificate:
    Data:
        Version: 3 (0x2)
        Serial Number: 256 (0x100)
        Signature Algorithm: ecdsa-with-SHA256
        Issuer: CN = Lint CA, OU = Test, O = MTG, C = DE
        Validity
            Not Before: Jan  2 09:00:00 2020 GMT
            Not After : Jan  2 09:00:00 2022 GMT
        Subject: CN = ECC Certificate, C = DE
        Subject Public Key Info:
            Public Key Algorithm: id-ecPublicKey
                Public-Key: (384 bit)
                pub:
                    04:f2:d6:1a:95:ab:c1:0e:a8:d6:83:be:05:cc:10:
                    74:e2:e8:c5:2e:21:71:a3:be:7b:77:06:6e:35:1c:
                    ad:f0:21:1e:1b:fe:40:5e:b2:ba:e8:53:1a:29:d5:
                    71:95:eb:23:ca:45:d6:7c:ed:75:cd:7b:75:e9:5b:
                    d6:54:4c:01:87:70:81:6a:68:c8:77:77:3a:49:9b:
                    a3:c8:17:93:fd:84:08:20:c8:df:5e:9b:0f:bb:e2:
                    34:73:6c:e4:d8:ba:02
                ASN1 OID: secp384r1
                NIST CURVE: P-384
    Signature Algorithm: ecdsa-with-SHA256
         30:65:02:31:00:a5:04:75:10:b8:e1:7a:01:56:9d:ea:f6:6c:
         09:f4:5c:7f:84:c5:3a:6c:c3:a0:49:6d:94:bb:e4:bc:60:10:
         41:29:05:5e:41:30:0f:ff:99:1d:a8:0a:7f:6e:bb:22:73:02:
         30:07:ac:40:7f:aa:06:e3:cd:ae:23:a3:5c:25:83:84:77:b7:
         f1:b3:62:29:23:43:80:18:14:50:16:e3:fc:ad:9d:92:7d:9f:
         fa:f4:c3:a7:96:05:e1:e0:10:a5:55:42:3f
-----BEGIN CERTIFICATE-----
MIIBjjCCARSgAwIBAgICAQAwCgYIKoZIzj0EAwIwPDEQMA4GA1UEAwwHTGludCBD
QTENMAsGA1UECwwEVGVzdDEMMAoGA1UECgwDTVRHMQswCQYDVQQGEwJERTAeFw0y
MDAxMDIwOTAwMDBaFw0yMjAxMDIwOTAwMDBaMCcxGDAWBgNVBAMMD0VDQyBDZXJ0
aWZpY2F0ZTELMAkGA1UEBhMCREUwdjAQBgcqhkjOPQIBBgUrgQQAIgNiAATy1hqV
q8EOqNaDvgXMEHTi6MUuIXGjvnt3Bm41HK3wIR4b/kBesrroUxop1XGV6yPKRdZ8
7XXNe3XpW9ZUTAGHcIFqaMh3dzpJm6PIF5P9hAggyN9emw+74jRzbOTYugIwCgYI
KoZIzj0EAwIDaAAwZQIxAKUEdRC44XoBVp3q9mwJ9Fx/hMU6bMOgSW2Uu+S8YBBB
KQVeQTAP/5kdqAp/brsicwIwB6xAf6oG482uI6NcJYOEd7fxs2IpI0OAGBRQFuP8
rZ2SfZ/69MOnlgXh4BClVUI/
-----END CERTIFICATE-----
