Certificate:
    Data:
        Version: 3 (0x2)
        Serial Number:
            01:24:b6:5d:0a:15:1b:8d:97:31:9c:55:c9
        Signature Algorithm: sha256WithRSAEncryption
        Issuer: CN = Lint Sub CA, OU = Test, O = MTG, C = DE
        Validity
            Not Before: May  7 04:13:00 2021 GMT
            Not After : May  7 04:13:00 2022 GMT
        Subject: CN = lint.mtg.de, OU = Lint, O = MTG, L = Darmstadt, ST = Hesse, C = DE
        Subject Public Key Info:
            Public Key Algorithm: id-ecPublicKey
                Public-Key: (256 bit)
                pub:
                    04:56:05:e1:84:5a:60:d4:1b:9d:3a:59:3f:5b:f2:
                    bf:55:8f:f9:29:0f:4a:5d:38:76:b8:d7:60:75:c6:
                    be:e0:53:18:c6:c1:d8:37:a6:c7:50:56:5b:e4:ea:
                    95:c2:be:8f:82:aa:b1:a3:c9:93:64:98:07:41:53:
                    7f:42:a6:82:27
                ASN1 OID: prime256v1
                NIST CURVE: P-256
        X509v3 extensions:
            X509v3 Authority Key Identifier: 
                keyid:C8:79:9D:73:00:F6:B8:C5:D0:C4:C8:A9:66:C8:C5:0A:3C:27:78:07

            X509v3 Subject Key Identifier: 
                20:38:01:F6:52:7E:EE:B2:3F:A1:D6:C9:7C:C0:1F:41:D9:13:92:51
            X509v3 Extended Key Usage: 
                TLS Web Server Authentication, TLS Web Client Authentication
    Signature Algorithm: sha256WithRSAEncryption
         14:47:0c:f3:8e:97:b1:ca:c2:c0:52:f8:83:e1:76:16:ad:11:
         14:0f:8b:da:2b:29:8a:d3:32:70:4e:f7:b0:ea:a5:db:44:1f:
         a0:8d:dc:8d:b3:55:21:7d:68:3e:1e:67:b0:44:9d:ed:1f:a7:
         76:1d:e5:18:6e:cc:00:d6:c5:4b:7a:1c:0a:8f:34:6f:b0:f5:
         82:82:76:a8:61:d0:69:c0:ce:28:49:00:07:89:52:1d:44:19:
         be:b7:9d:41:1a:83:9c:80:e8:62:ae:3a:29:96:98:22:c8:1b:
         fb:74:6c:c7:b1:fb:0c:d4:de:b3:46:a3:35:2e:2e:c7:72:51:
         8b:a5:e8:03:08:83:2c:ec:2e:7c:ae:59:44:f2:9f:ad:21:93:
         e1:93:fb:20:72:93:8b:b1:d1:9a:16:37:89:35:f2:a5:be:d3:
         21:a0:d4:09:29:94:21:4b:8b:e7:84:44:1a:eb:7d:16:48:88:
         93:6d:43:c5:da:6a:c0:5a:9a:2c:69:91:e7:a2:a5:6a:12:bf:
         41:d8:0d:ce:f2:b7:ca:04:96:f2:b0:31:fc:52:bb:3e:63:e9:
         81:da:aa:ec:b8:9f:40:f6:4c:41:33:c8:f5:be:6d:5e:a0:fc:
         17:d0:fb:17:ec:4d:d2:06:2b:a8:e0:55:1d:3b:5a:8c:ff:63:
         9b:6c:dc:01
-----BEGIN CERTIFICATE-----
MIICwTCCAamgAwIBAgINASS2XQoVG42XMZxVyTANBgkqhkiG9w0BAQsFADBAMRQw
EgYDVQQDDAtMaW50IFN1YiBDQTENMAsGA1UECwwEVGVzdDEMMAoGA1UECgwDTVRH
MQswCQYDVQQGEwJERTAeFw0yMTA1MDcwNDEzMDBaFw0yMjA1MDcwNDEzMDBaMGQx
FDASBgNVBAMMC2xpbnQubXRnLmRlMQ0wCwYDVQQLDARMaW50MQwwCgYDVQQKDANN
VEcxEjAQBgNVBAcMCURhcm1zdGFkdDEOMAwGA1UECAwFSGVzc2UxCzAJBgNVBAYT
AkRFMFkwEwYHKoZIzj0CAQYIKoZIzj0DAQcDQgAEVgXhhFpg1BudOlk/W/K/VY/5
KQ9KXTh2uNdgdca+4FMYxsHYN6bHUFZb5OqVwr6Pgqqxo8mTZJgHQVN/QqaCJ6Nh
MF8wHwYDVR0jBBgwFoAUyHmdcwD2uMXQxMipZsjFCjwneAcwHQYDVR0OBBYEFCA4
AfZSfu6yP6HWyXzAH0HZE5JRMB0GA1UdJQQWMBQGCCsGAQUFBwMBBggrBgEFBQcD
AjANBgkqhkiG9w0BAQsFAAOCAQEAFEcM846XscrCwFL4g+F2Fq0RFA+L2ispitMy
cE73sOql20QfoI3cjbNVIX1oPh5nsESd7R+ndh3lGG7MANbFS3ocCo80b7D1goJ2
qGHQacDOKEkAB4lSHUQZvredQRqDnIDoYq46KZaYIsgb+3Rsx7H7DNTes0ajNS4u
x3JRi6XoAwiDLOwufK5ZRPKfrSGT4ZP7IHKTi7HRmhY3iTXypb7TIaDUCSmUIUuL
54REGut9FkiIk21DxdpqwFqaLGmR56KlahK/QdgNzvK3ygSW8rAx/FK7PmPpgdqq
7LifQPZMQTPI9b5tXqD8F9D7F+xN0gYrqOBVHTtajP9jm2zcAQ==
-----END CERTIFICATE-----
