Certificate:
    Data:
        Version: 3 (0x2)
        Serial Number: 2675329675607315554 (0x2520ae2a5ba29462)
        Signature Algorithm: ecdsa-with-SHA384
        Issuer: C = JP, O = National Institute of Informatics, CN = NII Open Domain CA - G6
        Validity
            Not Before: Sep 13 07:37:09 2018 GMT
            Not After : Oct 14 07:37:09 2020 GMT
        Subject: C = JP, ST = Tokyo, O = National Institute of Informatics, OU = National Research Grid Initiative, CN = ca-perf.naregi.org
        Subject Public Key Info:
            Public Key Algorithm: id-ecPublicKey
                Public-Key: (384 bit)
                pub:
                    04:fd:20:ff:bf:be:9a:4e:af:e1:c8:03:a5:d9:2d:
                    8d:27:90:88:de:7b:1b:25:42:97:6c:e2:37:83:ba:
                    6f:48:17:ba:b0:b6:c1:dc:38:d2:cb:0b:68:51:d4:
                    1a:38:cc:c0:69:f0:69:f4:b4:5b:bb:0e:72:02:0c:
                    4a:f3:8f:62:87:0c:05:5d:c5:a3:f2:d4:21:33:1f:
                    29:41:00:38:0e:c5:57:11:e1:f1:45:6f:a8:c8:2f:
                    11:97:16:91:6c:38:f5
                ASN1 OID: secp384r1
                NIST CURVE: P-384
        X509v3 extensions:
            X509v3 Authority Key Identifier: 
                keyid:39:7B:EB:89:7B:E5:2E:D5:F7:1E:95:14:CA:EE:AE:DD:58:94:46:B0

            Authority Information Access: 
                OCSP - URI:http://niig6.ocsp.secomtrust.net

            X509v3 Subject Alternative Name: 
                DNS:ca-perf.naregi.org, DNS:xn--u8jta7e.naregi.org
            X509v3 Certificate Policies: 
                Policy: 1.3.6.1.4.1.32264.3.2.1.1
                  CPS: https://repo1.secomtrust.net/sppca/nii/odca3/
                Policy: 2.23.140.1.2.2

            X509v3 Extended Key Usage: 
                TLS Web Server Authentication, TLS Web Client Authentication
            X509v3 CRL Distribution Points: 

                Full Name:
                  URI:http://repo1.secomtrust.net/sppca/nii/odca3/fullcrlg6.crl

            X509v3 Subject Key Identifier: 
                B1:C4:C2:00:1A:51:88:D3:9C:2D:2B:33:67:9A:2A:41:38:79:5A:93
            X509v3 Key Usage: critical
                Digital Signature, Key Encipherment
            CT Precertificate Poison: critical
                NULL
    Signature Algorithm: ecdsa-with-SHA384
         30:65:02:31:00:d8:91:22:ef:e7:d3:12:a7:89:78:6a:50:05:
         8b:a0:aa:1b:c9:f2:f5:a8:a4:d4:af:03:f4:94:80:12:2a:7f:
         86:9f:00:0b:92:80:38:55:83:d6:fe:b6:0b:f7:23:83:2a:02:
         30:71:bc:0d:60:4d:46:d7:cd:a6:64:39:b5:e0:4d:6b:60:0d:
         39:42:bd:d8:84:2f:79:e7:90:11:8c:8c:17:ab:a9:e7:d6:e8:
         df:0a:ca:5c:7b:6c:ae:83:86:0f:b7:26:39
-----BEGIN CERTIFICATE-----
MIIDzjCCA1SgAwIBAgIIJSCuKluilGIwCgYIKoZIzj0EAwMwWzELMAkGA1UEBhMC
SlAxKjAoBgNVBAoTIU5hdGlvbmFsIEluc3RpdHV0ZSBvZiBJbmZvcm1hdGljczEg
MB4GA1UEAxMXTklJIE9wZW4gRG9tYWluIENBIC0gRzYwHhcNMTgwOTEzMDczNzA5
WhcNMjAxMDE0MDczNzA5WjCBkjELMAkGA1UEBhMCSlAxDjAMBgNVBAgTBVRva3lv
MSowKAYDVQQKEyFOYXRpb25hbCBJbnN0aXR1dGUgb2YgSW5mb3JtYXRpY3MxKjAo
BgNVBAsTIU5hdGlvbmFsIFJlc2VhcmNoIEdyaWQgSW5pdGlhdGl2ZTEbMBkGA1UE
AxMSY2EtcGVyZi5uYXJlZ2kub3JnMHYwEAYHKoZIzj0CAQYFK4EEACIDYgAE/SD/
v76aTq/hyAOl2S2NJ5CI3nsbJUKXbOI3g7pvSBe6sLbB3DjSywtoUdQaOMzAafBp
9LRbuw5yAgxK849ihwwFXcWj8tQhMx8pQQA4DsVXEeHxRW+oyC8RlxaRbDj1o4IB
qzCCAacwHwYDVR0jBBgwFoAUOXvriXvlLtX3HpUUyu6u3ViURrAwPAYIKwYBBQUH
AQEEMDAuMCwGCCsGAQUFBzABhiBodHRwOi8vbmlpZzYub2NzcC5zZWNvbXRydXN0
Lm5ldDA1BgNVHREELjAsghJjYS1wZXJmLm5hcmVnaS5vcmeCFnhuLS11OGp0YTdl
Lm5hcmVnaS5vcmcwYAYDVR0gBFkwVzBLBgwrBgEEAYH8CAMCAQEwOzA5BggrBgEF
BQcCARYtaHR0cHM6Ly9yZXBvMS5zZWNvbXRydXN0Lm5ldC9zcHBjYS9uaWkvb2Rj
YTMvMAgGBmeBDAECAjAdBgNVHSUEFjAUBggrBgEFBQcDAQYIKwYBBQUHAwIwSgYD
VR0fBEMwQTA/oD2gO4Y5aHR0cDovL3JlcG8xLnNlY29tdHJ1c3QubmV0L3NwcGNh
L25paS9vZGNhMy9mdWxsY3JsZzYuY3JsMB0GA1UdDgQWBBSxxMIAGlGI05wtKzNn
mipBOHlakzAOBgNVHQ8BAf8EBAMCBaAwEwYKKwYBBAHWeQIEAwEB/wQCBQAwCgYI
KoZIzj0EAwMDaAAwZQIxANiRIu/n0xKniXhqUAWLoKobyfL1qKTUrwP0lIASKn+G
nwALkoA4VYPW/rYL9yODKgIwcbwNYE1G182mZDm14E1rYA05Qr3YhC9555ARjIwX
q6nn1ujfCspce2yug4YPtyY5
-----END CERTIFICATE-----
