Certificate:
    Data:
        Version: 3 (0x2)
        Serial Number:
            08:fd:33:75:70:34:d4:44:b1:e9:e4:e3:7e:2b:73:7f
        Signature Algorithm: ecdsa-with-SHA256
        Issuer: C = US, ST = CA, L = San Francisco, O = "CloudFlare, Inc.", CN = CloudFlare Inc ECC CA-2
        Validity
            Not Before: May  3 00:00:00 2019 GMT
            Not After : May  3 12:00:00 2020 GMT
        Subject: C = US, ST = CA, L = San Francisco, O = "CloudFlare, Inc.", CN = scotthelme.co.uk
        Subject Public Key Info:
            Public Key Algorithm: id-ecPublicKey
                Public-Key: (256 bit)
                pub:
                    04:61:06:08:39:83:a4:03:44:8d:03:19:6b:b2:f4:
                    e7:af:b0:48:3a:83:66:51:a0:45:1b:6a:17:5f:22:
                    9f:a6:19:1c:ff:9c:17:5c:c5:35:13:3d:7e:a6:a8:
                    c5:1d:2c:1a:02:d0:a4:81:3c:d3:34:41:0e:c6:4b:
                    83:89:c2:4b:a8
                ASN1 OID: prime256v1
                NIST CURVE: P-256
        X509v3 extensions:
            X509v3 Authority Key Identifier: 
                keyid:3E:74:2D:1F:CF:45:75:04:7E:3F:C0:A2:87:3E:4C:43:83:51:13:C6

            X509v3 Subject Key Identifier: 
                A5:9B:64:CC:F3:79:A1:6D:6C:EA:2C:BD:92:65:19:9D:1D:B8:7F:58
            X509v3 Subject Alternative Name: 
                DNS:scotthelme.co.uk, DNS:*.scotthelme.co.uk
            X509v3 Key Usage: critical
                Digital Signature
            X509v3 Extended Key Usage: 
                TLS Web Server Authentication, TLS Web Client Authentication
            X509v3 CRL Distribution Points: 

                Full Name:
                  URI:http://crl3.digicert.com/CloudFlareIncECCCA2.crl

                Full Name:
                  URI:http://crl4.digicert.com/CloudFlareIncECCCA2.crl

            X509v3 Certificate Policies: 
                Policy: 2.16.840.1.114412.1.1
                  CPS: https://www.digicert.com/CPS
                Policy: 2.23.140.1.2.2

            Authority Information Access: 
                OCSP - URI:http://ocsp.digicert.com
                CA Issuers - URI:http://cacerts.digicert.com/CloudFlareIncECCCA-2.crt

            X509v3 Basic Constraints: critical
                CA:FALSE
            CT Precertificate SCTs: 
                Signed Certificate Timestamp:
                    Version   : v1 (0x0)
                    Log ID    : EE:4B:BD:B7:75:CE:60:BA:E1:42:69:1F:AB:E1:9E:66:
                                A3:0F:7E:5F:B0:72:D8:83:00:C4:7B:89:7A:A8:FD:CB
                    Timestamp : May  3 12:22:38.201 2019 GMT
                    Extensions: none
                    Signature : ecdsa-with-SHA256
                                30:44:02:20:1C:0F:67:21:F6:A0:32:B1:9C:65:20:5A:
                                AB:62:31:25:CA:FF:BA:7C:F6:F0:05:9F:82:15:28:09:
                                5B:B7:78:72:02:20:52:7A:4E:75:AB:81:CB:D3:97:21:
                                E4:1E:AD:8D:04:97:1A:A5:3C:31:68:D2:A4:F1:DF:83:
                                41:A0:F9:9F:C8:E6
                Signed Certificate Timestamp:
                    Version   : v1 (0x0)
                    Log ID    : 5E:A7:73:F9:DF:56:C0:E7:B5:36:48:7D:D0:49:E0:32:
                                7A:91:9A:0C:84:A1:12:12:84:18:75:96:81:71:45:58
                    Timestamp : May  3 12:22:38.096 2019 GMT
                    Extensions: none
                    Signature : ecdsa-with-SHA256
                                30:45:02:21:00:E5:0D:CA:41:93:05:76:DB:9B:68:A0:
                                68:83:99:65:F8:6F:0B:E9:92:8E:A7:99:79:D0:F1:10:
                                5E:4A:5B:54:18:02:20:5D:40:AC:90:0C:E7:2C:A3:DC:
                                A9:FE:DE:E7:97:84:8F:DC:70:6A:0A:36:F2:B2:59:9F:
                                2E:AC:B4:FF:4D:A9:A9
    Signature Algorithm: ecdsa-with-SHA256
         30:44:02:1f:55:71:11:9c:1d:54:90:aa:6a:ef:7c:6c:bf:41:
         f7:a3:44:82:fd:51:9d:ca:e2:22:cd:37:35:1c:77:8f:ea:02:
         21:00:a4:88:a7:8c:df:80:e2:cf:de:5e:3a:cb:6c:87:ce:2a:
         fd:3d:d7:82:73:e4:46:51:58:38:3f:82:20:00:03:6f
-----BEGIN CERTIFICATE-----
MIIE0DCCBHegAwIBAgIQCP0zdXA01ESx6eTjfitzfzAKBggqhkjOPQQDAjBvMQsw
CQYDVQQGEwJVUzELMAkGA1UECBMCQ0ExFjAUBgNVBAcTDVNhbiBGcmFuY2lzY28x
GTAXBgNVBAoTEENsb3VkRmxhcmUsIEluYy4xIDAeBgNVBAMTF0Nsb3VkRmxhcmUg
SW5jIEVDQyBDQS0yMB4XDTE5MDUwMzAwMDAwMFoXDTIwMDUwMzEyMDAwMFowaDEL
MAkGA1UEBhMCVVMxCzAJBgNVBAgTAkNBMRYwFAYDVQQHEw1TYW4gRnJhbmNpc2Nv
MRkwFwYDVQQKExBDbG91ZEZsYXJlLCBJbmMuMRkwFwYDVQQDExBzY290dGhlbG1l
LmNvLnVrMFkwEwYHKoZIzj0CAQYIKoZIzj0DAQcDQgAEYQYIOYOkA0SNAxlrsvTn
r7BIOoNmUaBFG2oXXyKfphkc/5wXXMU1Ez1+pqjFHSwaAtCkgTzTNEEOxkuDicJL
qKOCAvowggL2MB8GA1UdIwQYMBaAFD50LR/PRXUEfj/Aooc+TEODURPGMB0GA1Ud
DgQWBBSlm2TM83mhbWzqLL2SZRmdHbh/WDAvBgNVHREEKDAmghBzY290dGhlbG1l
LmNvLnVrghIqLnNjb3R0aGVsbWUuY28udWswDgYDVR0PAQH/BAQDAgeAMB0GA1Ud
JQQWMBQGCCsGAQUFBwMBBggrBgEFBQcDAjB5BgNVHR8EcjBwMDagNKAyhjBodHRw
Oi8vY3JsMy5kaWdpY2VydC5jb20vQ2xvdWRGbGFyZUluY0VDQ0NBMi5jcmwwNqA0
oDKGMGh0dHA6Ly9jcmw0LmRpZ2ljZXJ0LmNvbS9DbG91ZEZsYXJlSW5jRUNDQ0Ey
LmNybDBMBgNVHSAERTBDMDcGCWCGSAGG/WwBATAqMCgGCCsGAQUFBwIBFhxodHRw
czovL3d3dy5kaWdpY2VydC5jb20vQ1BTMAgGBmeBDAECAjB2BggrBgEFBQcBAQRq
MGgwJAYIKwYBBQUHMAGGGGh0dHA6Ly9vY3NwLmRpZ2ljZXJ0LmNvbTBABggrBgEF
BQcwAoY0aHR0cDovL2NhY2VydHMuZGlnaWNlcnQuY29tL0Nsb3VkRmxhcmVJbmNF
Q0NDQS0yLmNydDAMBgNVHRMBAf8EAjAAMIIBAwYKKwYBBAHWeQIEAgSB9ASB8QDv
AHUA7ku9t3XOYLrhQmkfq+GeZqMPfl+wctiDAMR7iXqo/csAAAFqfaV7eQAABAMA
RjBEAiAcD2ch9qAysZxlIFqrYjElyv+6fPbwBZ+CFSgJW7d4cgIgUnpOdauBy9OX
IeQerY0ElxqlPDFo0qTx34NBoPmfyOYAdgBep3P531bA57U2SH3QSeAyepGaDISh
EhKEGHWWgXFFWAAAAWp9pXsQAAAEAwBHMEUCIQDlDcpBkwV225tooGiDmWX4bwvp
ko6nmXnQ8RBeSltUGAIgXUCskAznLKPcqf7e55eEj9xwago28rJZny6stP9Nqakw
CgYIKoZIzj0EAwIDRwAwRAIfVXERnB1UkKpq73xsv0H3o0SC/VGdyuIizTc1HHeP
6gIhAKSIp4zfgOLP3l46y2yHzir9PdeCc+RGUVg4P4IgAANv
-----END CERTIFICATE-----
