Certificate:
    Data:
        Version: 3 (0x2)
        Serial Number:
            0f:24:f9:47:b3:d2:e8:74:c0:c2:94:f4:89
        Signature Algorithm: sha256WithRSAEncryption
        Issuer: CN = Lint Sub CA, OU = Test, O = MTG, C = DE
        Validity
            Not Before: Apr 29 04:13:11 2021 GMT
            Not After : Apr 29 04:13:11 2022 GMT
        Subject: CN = lint.mtg.de, OU = Lint, O = MTG, L = Darmstadt, ST = Hesse, C = DE
        Subject Public Key Info:
            Public Key Algorithm: id-ecPublicKey
                Public-Key: (256 bit)
                pub:
                    04:e4:24:93:dc:e2:fb:97:14:f1:15:63:de:66:94:
                    e6:ff:49:63:d6:44:b8:2f:6b:f8:69:e7:5d:29:cf:
                    0c:bd:45:07:18:0a:9b:0f:fd:b2:6d:fd:9d:7d:f1:
                    3b:c7:ab:0d:91:13:1d:08:ee:a1:ac:eb:a4:c7:53:
                    61:2a:f8:73:ba
                ASN1 OID: prime256v1
                NIST CURVE: P-256
        X509v3 extensions:
            X509v3 Authority Key Identifier: 
                keyid:8B:0A:83:81:9D:19:4C:F3:20:1C:E3:30:B1:35:DA:ED:FA:97:10:2F

            X509v3 Subject Key Identifier: 
                0E:CF:69:6A:7A:AB:24:7E:C1:DA:C6:32:FE:8D:48:8C:96:61:3C:94
            X509v3 Key Usage: critical
                Key Encipherment, Data Encipherment
            X509v3 Extended Key Usage: 
                TLS Web Server Authentication, TLS Web Client Authentication
    Signature Algorithm: sha256WithRSAEncryption
         9a:77:f6:47:57:27:7d:b8:92:ea:ad:05:3a:d8:6b:f4:75:0f:
         33:d5:39:72:3d:30:03:1b:41:45:e2:17:36:bc:03:1b:20:27:
         fc:0a:5e:01:48:3a:95:d7:c1:98:03:01:40:54:7b:c4:0a:1a:
         5c:bf:9c:a6:d4:e7:cd:fe:bc:72:74:f5:d3:9d:8d:c3:a8:e7:
         dc:f6:3f:cf:7a:e2:ed:8c:95:c7:48:3b:cb:0a:8f:a7:57:6f:
         a1:e2:d2:89:19:b5:3f:ef:aa:66:d4:2d:2a:52:f3:85:a0:f8:
         a3:d2:42:8e:cc:3c:d1:61:f1:2e:79:5b:63:51:9a:00:2a:ad:
         cd:f7:ac:0e:e9:47:8d:c1:79:27:74:3b:e6:1c:84:65:b4:ba:
         3b:8d:30:97:5d:98:dd:9e:a0:2a:f6:29:f1:70:38:3f:88:75:
         a4:a3:43:75:7c:18:aa:f2:d4:07:2f:9b:93:e9:9b:ef:dc:9f:
         5b:5e:2f:5a:16:4e:60:53:45:2a:8d:33:31:41:be:f8:58:ec:
         80:5c:52:85:a2:41:b9:77:1e:d5:2d:58:69:20:f4:16:60:22:
         62:c4:03:82:02:3b:13:3f:86:18:f2:23:9a:a9:f6:ed:d9:a9:
         4a:8b:aa:5c:8b:42:f6:a2:63:cc:bc:6d:72:e3:b5:b0:c9:07:
         dd:82:b8:bb
-----BEGIN CERTIFICATE-----
MIIC0TCCAbmgAwIBAgINDyT5R7PS6HTAwpT0iTANBgkqhkiG9w0BAQsFADBAMRQw
EgYDVQQDDAtMaW50IFN1YiBDQTENMAsGA1UECwwEVGVzdDEMMAoGA1UECgwDTVRH
MQswCQYDVQQGEwJERTAeFw0yMTA0MjkwNDEzMTFaFw0yMjA0MjkwNDEzMTFaMGQx
FDASBgNVBAMMC2xpbnQubXRnLmRlMQ0wCwYDVQQLDARMaW50MQwwCgYDVQQKDANN
VEcxEjAQBgNVBAcMCURhcm1zdGFkdDEOMAwGA1UECAwFSGVzc2UxCzAJBgNVBAYT
AkRFMFkwEwYHKoZIzj0CAQYIKoZIzj0DAQcDQgAE5CST3OL7lxTxFWPeZpTm/0lj
1kS4L2v4aeddKc8MvUUHGAqbD/2ybf2dffE7x6sNkRMdCO6hrOukx1NhKvhzuqNx
MG8wHwYDVR0jBBgwFoAUiwqDgZ0ZTPMgHOMwsTXa7fqXEC8wHQYDVR0OBBYEFA7P
aWp6qyR+wdrGMv6NSIyWYTyUMA4GA1UdDwEB/wQEAwIEMDAdBgNVHSUEFjAUBggr
BgEFBQcDAQYIKwYBBQUHAwIwDQYJKoZIhvcNAQELBQADggEBAJp39kdXJ324kuqt
BTrYa/R1DzPVOXI9MAMbQUXiFza8AxsgJ/wKXgFIOpXXwZgDAUBUe8QKGly/nKbU
583+vHJ09dOdjcOo59z2P8964u2MlcdIO8sKj6dXb6Hi0okZtT/vqmbULSpS84Wg
+KPSQo7MPNFh8S55W2NRmgAqrc33rA7pR43BeSd0O+YchGW0ujuNMJddmN2eoCr2
KfFwOD+IdaSjQ3V8GKry1Acvm5Ppm+/cn1teL1oWTmBTRSqNMzFBvvhY7IBcUoWi
Qbl3HtUtWGkg9BZgImLEA4ICOxM/hhjyI5qp9u3ZqUqLqlyLQvaiY8y8bXLjtbDJ
B92CuLs=
-----END CERTIFICATE-----
