Certificate:
    Data:
        Version: 3 (0x2)
        Serial Number:
            0b:72:bf:9e:a5:9a:97:4e:15:d3:45:95:f2
        Signature Algorithm: sha256WithRSAEncryption
        Issuer: CN = Lint Sub CA, OU = Test, O = MTG, C = DE
        Validity
            Not Before: Apr 29 04:13:11 2021 GMT
            Not After : Apr 29 04:13:11 2022 GMT
        Subject: CN = lint.mtg.de, OU = Lint, O = MTG, L = Darmstadt, ST = Hesse, C = DE
        Subject Public Key Info:
            Public Key Algorithm: id-ecPublicKey
                Public-Key: (256 bit)
                pub:
                    04:c5:aa:20:77:14:7a:09:08:ca:5b:67:2a:5f:68:
                    b9:da:a8:f4:4d:bd:21:49:26:55:a5:79:af:30:e7:
                    ce:2c:01:c8:5b:56:d6:2a:8d:76:74:32:07:f3:d0:
                    5f:ca:74:db:f8:b5:19:df:86:78:a4:9c:11:37:fc:
                    b2:19:7d:61:a0
                ASN1 OID: prime256v1
                NIST CURVE: P-256
        X509v3 extensions:
            X509v3 Authority Key Identifier: 
                keyid:8B:0A:83:81:9D:19:4C:F3:20:1C:E3:30:B1:35:DA:ED:FA:97:10:2F

            X509v3 Subject Key Identifier: 
                25:41:AE:20:1B:91:7D:36:13:64:0E:29:43:AF:A5:54:6A:BC:14:9E
            X509v3 Key Usage: critical
                Key Encipherment
            X509v3 Extended Key Usage: 
                TLS Web Server Authentication, TLS Web Client Authentication
    Signature Algorithm: sha256WithRSAEncryption
         81:97:96:a8:74:28:3a:70:4a:8e:5e:59:e8:8c:36:d1:f0:34:
         18:a9:b3:5c:f6:91:eb:66:f2:06:0d:d3:ec:bf:88:62:a0:8f:
         d4:c2:c7:55:58:1f:b1:b1:78:70:2e:6a:aa:63:f0:6c:a5:11:
         4d:88:c1:54:e4:73:4f:4e:ba:b5:8f:7d:97:df:0e:6d:c0:f7:
         94:c5:b8:7e:e4:4d:3f:13:ce:77:47:d6:99:39:6f:b8:b3:99:
         9f:7e:0d:b4:ea:00:32:07:bb:a0:6d:0a:94:e9:95:36:de:d3:
         43:8a:53:fb:fa:5e:de:9a:bb:dd:e0:03:cf:3d:a0:d9:43:33:
         1d:fd:10:28:c3:6e:c6:88:72:34:c3:47:ff:00:f6:ba:b2:d5:
         57:9d:64:4f:56:34:2c:49:23:e0:09:b8:d0:5f:a4:91:ce:96:
         c4:c2:1f:a0:e6:78:1d:f9:f9:c3:2a:8d:49:81:0b:7d:9a:f8:
         fb:1c:79:4b:c2:a1:db:82:87:3c:f8:50:c8:3b:a2:82:2c:1f:
         0a:0d:70:21:99:18:c2:de:b2:98:b0:1d:1d:86:f7:0f:f2:a7:
         2e:24:0b:c2:7f:f7:82:cc:99:2a:d0:af:cb:47:d4:c3:a8:99:
         34:e7:3b:00:b1:f3:6c:26:7a:f4:54:19:0d:03:fa:15:21:61:
         09:c1:3c:07
-----BEGIN CERTIFICATE-----
MIIC0TCCAbmgAwIBAgINC3K/nqWal04V00WV8jANBgkqhkiG9w0BAQsFADBAMRQw
EgYDVQQDDAtMaW50IFN1YiBDQTENMAsGA1UECwwEVGVzdDEMMAoGA1UECgwDTVRH
MQswCQYDVQQGEwJERTAeFw0yMTA0MjkwNDEzMTFaFw0yMjA0MjkwNDEzMTFaMGQx
FDASBgNVBAMMC2xpbnQubXRnLmRlMQ0wCwYDVQQLDARMaW50MQwwCgYDVQQKDANN
VEcxEjAQBgNVBAcMCURhcm1zdGFkdDEOMAwGA1UECAwFSGVzc2UxCzAJBgNVBAYT
AkRFMFkwEwYHKoZIzj0CAQYIKoZIzj0DAQcDQgAExaogdxR6CQjKW2cqX2i52qj0
Tb0hSSZVpXmvMOfOLAHIW1bWKo12dDIH89BfynTb+LUZ34Z4pJwRN/yyGX1hoKNx
MG8wHwYDVR0jBBgwFoAUiwqDgZ0ZTPMgHOMwsTXa7fqXEC8wHQYDVR0OBBYEFCVB
riAbkX02E2QOKUOvpVRqvBSeMA4GA1UdDwEB/wQEAwIFIDAdBgNVHSUEFjAUBggr
BgEFBQcDAQYIKwYBBQUHAwIwDQYJKoZIhvcNAQELBQADggEBAIGXlqh0KDpwSo5e
WeiMNtHwNBips1z2ketm8gYN0+y/iGKgj9TCx1VYH7GxeHAuaqpj8GylEU2IwVTk
c09OurWPfZffDm3A95TFuH7kTT8TzndH1pk5b7izmZ9+DbTqADIHu6BtCpTplTbe
00OKU/v6Xt6au93gA889oNlDMx39ECjDbsaIcjTDR/8A9rqy1VedZE9WNCxJI+AJ
uNBfpJHOlsTCH6DmeB35+cMqjUmBC32a+PsceUvCoduChzz4UMg7ooIsHwoNcCGZ
GMLespiwHR2G9w/ypy4kC8J/94LMmSrQr8tH1MOomTTnOwCx82wmevRUGQ0D+hUh
YQnBPAc=
-----END CERTIFICATE-----
