Certificate:
    Data:
        Version: 3 (0x2)
        Serial Number:
            02:f3:af:4f:fc:91:50:45:71:81:db:8f:6a
        Signature Algorithm: sha256WithRSAEncryption
        Issuer: CN = Lint Sub CA, OU = Test, O = MTG, C = DE
        Validity
            Not Before: Apr 29 04:13:11 2021 GMT
            Not After : Apr 29 04:13:11 2022 GMT
        Subject: CN = lint.mtg.de, OU = Lint, O = MTG, L = Darmstadt, ST = Hesse, C = DE
        Subject Public Key Info:
            Public Key Algorithm: id-ecPublicKey
                Public-Key: (256 bit)
                pub:
                    04:95:4d:ec:f7:f0:72:33:08:49:cf:7a:a6:4a:64:
                    3e:6a:3d:01:35:1b:73:66:af:6b:eb:e0:6f:0a:ef:
                    72:90:0b:c4:d4:89:5d:cd:9f:c0:30:41:83:73:8b:
                    f1:5d:5d:92:4d:e8:14:49:e0:84:6c:40:e7:52:81:
                    64:8d:47:45:56
                ASN1 OID: prime256v1
                NIST CURVE: P-256
        X509v3 extensions:
            X509v3 Authority Key Identifier: 
                keyid:8B:0A:83:81:9D:19:4C:F3:20:1C:E3:30:B1:35:DA:ED:FA:97:10:2F

            X509v3 Subject Key Identifier: 
                13:2E:60:C7:C8:DC:54:A8:99:6A:49:80:30:CC:68:9C:A1:C9:50:4B
            X509v3 Key Usage: critical
                Data Encipherment
            X509v3 Extended Key Usage: 
                TLS Web Server Authentication, TLS Web Client Authentication
    Signature Algorithm: sha256WithRSAEncryption
         31:9d:11:c2:64:68:ef:54:29:75:45:6a:78:00:10:10:7a:ec:
         91:f8:a7:c0:9e:c4:73:5e:b0:ed:0f:44:db:97:13:2c:5e:17:
         9b:ea:dc:2c:44:b7:1f:19:0f:6b:0d:aa:69:cf:87:4a:29:48:
         c3:b1:a3:2b:ae:d0:ab:1d:5f:16:a3:af:7c:20:f7:f8:93:36:
         df:2f:62:f7:e5:c1:7c:83:c7:2e:06:08:3f:70:85:8b:5f:09:
         72:9a:06:0d:3f:5f:ae:54:73:aa:6f:b2:2c:62:37:76:59:2b:
         ef:77:06:f2:26:20:07:fb:8d:c1:e2:ea:ee:8e:bf:ba:e2:6d:
         28:96:f7:ac:bf:ab:1b:75:25:99:ec:55:2f:d2:4a:e7:31:51:
         6c:e6:8e:de:bf:b6:25:3e:0c:68:29:fc:31:11:ec:01:43:ef:
         e1:1d:6a:de:be:d9:dd:c2:50:ba:1c:9b:dd:d4:f6:87:af:4b:
         7b:dc:3b:2d:29:3a:17:32:1b:c4:db:16:de:46:7a:90:d7:70:
         4d:a3:ea:ef:d0:42:c9:0a:d8:34:89:91:d5:40:20:ab:ee:68:
         19:2f:08:2e:3b:f9:03:50:ed:0f:7e:18:12:23:25:a9:4d:05:
         a6:56:52:39:ed:24:8b:cb:5e:46:9c:0f:30:4b:89:48:62:87:
         f5:90:c3:f4
-----BEGIN CERTIFICATE-----
MIIC0TCCAbmgAwIBAgINAvOvT/yRUEVxgduPajANBgkqhkiG9w0BAQsFADBAMRQw
EgYDVQQDDAtMaW50IFN1YiBDQTENMAsGA1UECwwEVGVzdDEMMAoGA1UECgwDTVRH
MQswCQYDVQQGEwJERTAeFw0yMTA0MjkwNDEzMTFaFw0yMjA0MjkwNDEzMTFaMGQx
FDASBgNVBAMMC2xpbnQubXRnLmRlMQ0wCwYDVQQLDARMaW50MQwwCgYDVQQKDANN
VEcxEjAQBgNVBAcMCURhcm1zdGFkdDEOMAwGA1UECAwFSGVzc2UxCzAJBgNVBAYT
AkRFMFkwEwYHKoZIzj0CAQYIKoZIzj0DAQcDQgAElU3s9/ByMwhJz3qmSmQ+aj0B
NRtzZq9r6+BvCu9ykAvE1IldzZ/AMEGDc4vxXV2STegUSeCEbEDnUoFkjUdFVqNx
MG8wHwYDVR0jBBgwFoAUiwqDgZ0ZTPMgHOMwsTXa7fqXEC8wHQYDVR0OBBYEFBMu
YMfI3FSomWpJgDDMaJyhyVBLMA4GA1UdDwEB/wQEAwIEEDAdBgNVHSUEFjAUBggr
BgEFBQcDAQYIKwYBBQUHAwIwDQYJKoZIhvcNAQELBQADggEBADGdEcJkaO9UKXVF
angAEBB67JH4p8CexHNesO0PRNuXEyxeF5vq3CxEtx8ZD2sNqmnPh0opSMOxoyuu
0KsdXxajr3wg9/iTNt8vYvflwXyDxy4GCD9whYtfCXKaBg0/X65Uc6pvsixiN3ZZ
K+93BvImIAf7jcHi6u6Ov7ribSiW96y/qxt1JZnsVS/SSucxUWzmjt6/tiU+DGgp
/DER7AFD7+Edat6+2d3CULocm93U9oevS3vcOy0pOhcyG8TbFt5GepDXcE2j6u/Q
QskK2DSJkdVAIKvuaBkvCC47+QNQ7Q9+GBIjJalNBaZWUjntJIvLXkacDzBLiUhi
h/WQw/Q=
-----END CERTIFICATE-----
