Certificate:
    Data:
        Version: 3 (0x2)
        Serial Number:
            02:15:fb:f2:00:84:16:8c:ad:1e:a2:9a:be
        Signature Algorithm: sha256WithRSAEncryption
        Issuer: CN = Lint Sub CA, OU = Test, O = MTG, C = DE
        Validity
            Not Before: Apr 29 04:13:11 2021 GMT
            Not After : Apr 29 04:13:11 2022 GMT
        Subject: CN = lint.mtg.de, OU = Lint, O = MTG, L = Darmstadt, ST = Hesse, C = DE
        Subject Public Key Info:
            Public Key Algorithm: id-ecPublicKey
                Public-Key: (256 bit)
                pub:
                    04:26:9f:03:11:c9:70:41:3c:bf:c9:02:a0:af:b3:
                    72:c9:f3:f7:cb:04:74:0b:92:f8:72:af:7d:06:78:
                    62:42:d6:a0:03:fc:45:22:c0:28:2b:cf:5f:c4:20:
                    74:0a:ff:91:6b:09:74:09:94:e0:93:f0:dc:66:8f:
                    47:16:e4:6a:08
                ASN1 OID: prime256v1
                NIST CURVE: P-256
        X509v3 extensions:
            X509v3 Authority Key Identifier: 
                keyid:8B:0A:83:81:9D:19:4C:F3:20:1C:E3:30:B1:35:DA:ED:FA:97:10:2F

            X509v3 Subject Key Identifier: 
                7C:D4:AB:22:22:42:6F:0E:FA:CB:02:01:3D:0F:DE:5F:6F:9B:28:AE
            X509v3 Key Usage: critical
                Digital Signature
            X509v3 Extended Key Usage: 
                TLS Web Server Authentication, TLS Web Client Authentication
    Signature Algorithm: sha256WithRSAEncryption
         75:42:10:8b:2f:bb:17:b8:51:ee:09:c3:95:e7:ef:57:de:7c:
         8a:31:c6:0a:5f:df:33:2b:42:70:15:e9:cf:4a:c3:e3:3f:05:
         bc:b5:c7:2e:52:89:a0:e8:51:78:9b:00:a0:fc:d2:dd:31:e8:
         de:86:d0:42:41:af:82:2c:a5:e9:1e:d2:26:88:25:05:9f:4e:
         ca:3a:c7:76:68:a3:d8:43:49:5f:26:b1:0b:4e:17:0a:b4:e7:
         75:5d:b0:6a:77:c3:a5:f7:e0:02:a4:11:ef:ba:75:d4:4f:6b:
         6d:04:c7:fe:96:e7:2d:a7:04:9c:7c:1d:3d:10:ae:fe:a5:96:
         fe:a4:e6:81:5d:f5:8b:75:be:7d:e0:f3:cc:85:5a:23:22:87:
         b5:44:24:57:3a:92:5b:a9:0b:f5:b2:70:96:6b:d8:4a:f7:42:
         a3:ac:b5:f7:5c:fd:63:8d:1a:a6:32:eb:bb:e5:8c:f5:50:7e:
         4e:2b:df:07:87:3e:31:81:05:15:01:05:74:5c:01:f0:c0:bd:
         bb:12:6e:98:b2:00:f5:c3:b2:77:9f:5d:56:ba:71:b4:ed:0a:
         5e:d6:c3:85:6e:5d:1b:86:3a:dc:7c:68:27:0c:7d:fe:3f:ad:
         82:19:91:26:9d:62:89:35:87:d8:e9:72:7f:43:3d:55:68:34:
         d7:2e:bd:34
-----BEGIN CERTIFICATE-----
MIIC0TCCAbmgAwIBAgINAhX78gCEFoytHqKavjANBgkqhkiG9w0BAQsFADBAMRQw
EgYDVQQDDAtMaW50IFN1YiBDQTENMAsGA1UECwwEVGVzdDEMMAoGA1UECgwDTVRH
MQswCQYDVQQGEwJERTAeFw0yMTA0MjkwNDEzMTFaFw0yMjA0MjkwNDEzMTFaMGQx
FDASBgNVBAMMC2xpbnQubXRnLmRlMQ0wCwYDVQQLDARMaW50MQwwCgYDVQQKDANN
VEcxEjAQBgNVBAcMCURhcm1zdGFkdDEOMAwGA1UECAwFSGVzc2UxCzAJBgNVBAYT
AkRFMFkwEwYHKoZIzj0CAQYIKoZIzj0DAQcDQgAEJp8DEclwQTy/yQKgr7NyyfP3
ywR0C5L4cq99BnhiQtagA/xFIsAoK89fxCB0Cv+Rawl0CZTgk/DcZo9HFuRqCKNx
MG8wHwYDVR0jBBgwFoAUiwqDgZ0ZTPMgHOMwsTXa7fqXEC8wHQYDVR0OBBYEFHzU
qyIiQm8O+ssCAT0P3l9vmyiuMA4GA1UdDwEB/wQEAwIHgDAdBgNVHSUEFjAUBggr
BgEFBQcDAQYIKwYBBQUHAwIwDQYJKoZIhvcNAQELBQADggEBAHVCEIsvuxe4Ue4J
w5Xn71fefIoxxgpf3zMrQnAV6c9Kw+M/Bby1xy5SiaDoUXibAKD80t0x6N6G0EJB
r4Ispeke0iaIJQWfTso6x3Zoo9hDSV8msQtOFwq053VdsGp3w6X34AKkEe+6ddRP
a20Ex/6W5y2nBJx8HT0Qrv6llv6k5oFd9Yt1vn3g88yFWiMih7VEJFc6klupC/Wy
cJZr2Er3QqOstfdc/WONGqYy67vljPVQfk4r3weHPjGBBRUBBXRcAfDAvbsSbpiy
APXDsnefXVa6cbTtCl7Ww4VuXRuGOtx8aCcMff4/rYIZkSadYok1h9jpcn9DPVVo
NNcuvTQ=
-----END CERTIFICATE-----
