Certificate:
    Data:
        Version: 3 (0x2)
        Serial Number:
            80:0d:19:d8:b1:f2:8c:1b
        Signature Algorithm: sha256WithRSAEncryption
        Issuer: CN = ZLint Test CA
        Validity
            Not Before: Sep  1 00:00:00 2020 GMT
            Not After : Oct  2 23:59:59 2021 GMT
        Subject: CN = zmap.io
        Subject Public Key Info:
            Public Key Algorithm: rsaEncryption
                RSA Public-Key: (512 bit)
                Modulus:
                    00:e1:26:cb:9c:66:c4:9b:3b:af:a9:2e:0f:37:0e:
                    c3:08:8e:7e:53:b2:53:20:b9:0c:38:e2:07:d1:ea:
                    73:e8:4c:9b:cd:ce:f1:64:cc:ab:eb:73:89:4d:26:
                    2b:45:8f:56:8c:e7:f0:4b:cf:12:96:57:2f:ab:8c:
                    2e:09:59:d3:c1
                Exponent: 65537 (0x10001)
        X509v3 extensions:
            X509v3 Key Usage: critical
                Digital Signature, Key Encipherment
            X509v3 Extended Key Usage: 
                TLS Web Server Authentication, TLS Web Client Authentication
            X509v3 Basic Constraints: critical
                CA:FALSE
            X509v3 Subject Alternative Name: 
                DNS:zmap.io
    Signature Algorithm: sha256WithRSAEncryption
         4c:92:6c:f0:1b:5a:22:44:b6:63:84:0b:7f:c9:f5:8a:e3:b9:
         28:99:1f:1f:72:19:bc:0f:4d:08:3f:1a:62:bb:70:ee:47:28:
         ba:21:60:97:e3:99:56:9c:e6:9d:c3:bf:86:cf:b0:b6:d8:ac:
         1e:1d:be:8a:47:72:e2:93:69:52
-----BEGIN CERTIFICATE-----
MIIBdjCCASCgAwIBAgIJAIANGdix8owbMA0GCSqGSIb3DQEBCwUAMBgxFjAUBgNV
BAMMDVpMaW50IFRlc3QgQ0EwHhcNMjAwOTAxMDAwMDAwWhcNMjExMDAyMjM1OTU5
WjASMRAwDgYDVQQDDAd6bWFwLmlvMFwwDQYJKoZIhvcNAQEBBQADSwAwSAJBAOEm
y5xmxJs7r6kuDzcOwwiOflOyUyC5DDjiB9Hqc+hMm83O8WTMq+tziU0mK0WPVozn
8EvPEpZXL6uMLglZ08ECAwEAAaNTMFEwDgYDVR0PAQH/BAQDAgWgMB0GA1UdJQQW
MBQGCCsGAQUFBwMBBggrBgEFBQcDAjAMBgNVHRMBAf8EAjAAMBIGA1UdEQQLMAmC
B3ptYXAuaW8wDQYJKoZIhvcNAQELBQADQQBMkmzwG1oiRLZjhAt/yfWK47komR8f
chm8D00IPxpiu3DuRyi6IWCX45lWnOadw7+Gz7C22KweHb6KR3Lik2lS
-----END CERTIFICATE-----
