Certificate:
    Data:
        Version: 3 (0x2)
        Serial Number:
            9e:f7:3f:94:86:a2:b9:5d
        Signature Algorithm: sha256WithRSAEncryption
        Issuer: CN = ZLint Test CA
        Validity
            Not Before: Sep  1 00:00:00 2020 GMT
            Not After : Oct  3 23:59:59 2021 GMT
        Subject: CN = zmap.io
        Subject Public Key Info:
            Public Key Algorithm: rsaEncryption
                RSA Public-Key: (512 bit)
                Modulus:
                    00:af:d6:33:a7:08:07:ec:38:c0:1c:5d:ec:ff:c3:
                    00:9f:b8:28:04:17:16:cf:21:53:c5:6a:47:f8:a6:
                    c4:c9:f2:36:f5:01:4a:9e:84:c3:f9:3d:9a:5f:29:
                    1e:ad:60:0a:81:39:ec:bc:7f:3f:20:6b:28:5a:bf:
                    36:98:37:a3:1d
                Exponent: 65537 (0x10001)
        X509v3 extensions:
            X509v3 Key Usage: critical
                Digital Signature, Key Encipherment
            X509v3 Extended Key Usage: 
                TLS Web Server Authentication, TLS Web Client Authentication
            X509v3 Basic Constraints: critical
                CA:FALSE
            X509v3 Subject Alternative Name: 
                DNS:zmap.io
    Signature Algorithm: sha256WithRSAEncryption
         3e:6d:e0:e9:a5:55:5a:57:63:18:df:7f:08:04:a8:82:1d:90:
         22:26:5d:8a:ce:39:a9:05:a6:04:9f:58:18:02:c4:ee:00:44:
         9d:db:b5:b3:83:11:44:56:eb:24:8d:b6:9d:cb:59:7b:8d:ff:
         7a:40:59:0d:e2:64:77:a8:bc:5e
-----BEGIN CERTIFICATE-----
MIIBdjCCASCgAwIBAgIJAJ73P5SGorldMA0GCSqGSIb3DQEBCwUAMBgxFjAUBgNV
BAMMDVpMaW50IFRlc3QgQ0EwHhcNMjAwOTAxMDAwMDAwWhcNMjExMDAzMjM1OTU5
WjASMRAwDgYDVQQDDAd6bWFwLmlvMFwwDQYJKoZIhvcNAQEBBQADSwAwSAJBAK/W
M6cIB+w4wBxd7P/DAJ+4KAQXFs8hU8VqR/imxMnyNvUBSp6Ew/k9ml8pHq1gCoE5
7Lx/PyBrKFq/Npg3ox0CAwEAAaNTMFEwDgYDVR0PAQH/BAQDAgWgMB0GA1UdJQQW
MBQGCCsGAQUFBwMBBggrBgEFBQcDAjAMBgNVHRMBAf8EAjAAMBIGA1UdEQQLMAmC
B3ptYXAuaW8wDQYJKoZIhvcNAQELBQADQQA+beDppVVaV2MY338IBKiCHZAiJl2K
zjmpBaYEn1gYAsTuAESd27WzgxFEVuskjbady1l7jf96QFkN4mR3qLxe
-----END CERTIFICATE-----
