Certificate:
    Data:
        Version: 3 (0x2)
        Serial Number: 161187849540477949 (0x23ca77ec1f823fd)
        Signature Algorithm: sha256WithRSAEncryption
        Issuer: CN = ZLint Test CA
        Validity
            Not Before: Sep  1 01:00:00 2020 GMT
            Not After : Oct  3 01:00:00 2021 GMT
        Subject: CN = zmap.io
        Subject Public Key Info:
            Public Key Algorithm: rsaEncryption
                RSA Public-Key: (512 bit)
                Modulus:
                    00:e6:ce:f2:0e:3a:ca:cd:df:4c:d2:c3:79:71:7c:
                    cd:4a:e3:cf:e8:46:e4:55:93:cc:a2:34:16:95:68:
                    35:37:b6:20:b3:14:2a:71:d4:0f:e9:e3:f3:1a:b8:
                    66:1c:97:e5:02:88:64:fd:25:b3:d4:cb:f9:89:ef:
                    73:4c:df:e9:77
                Exponent: 65537 (0x10001)
        X509v3 extensions:
            X509v3 Key Usage: critical
                Digital Signature, Key Encipherment
            X509v3 Extended Key Usage: 
                TLS Web Server Authentication, TLS Web Client Authentication
            X509v3 Basic Constraints: critical
                CA:FALSE
            X509v3 Subject Alternative Name: 
                DNS:zmap.io
    Signature Algorithm: sha256WithRSAEncryption
         6a:ff:a1:35:5b:ab:ff:4b:8d:7c:9d:d0:de:a3:a7:17:32:c5:
         b0:7b:4e:43:1f:ce:3b:04:93:c8:a3:02:2a:c4:1e:41:15:40:
         08:73:19:43:e1:86:61:1b:f8:c4:ca:5a:7e:69:e5:ba:ff:06:
         49:94:6e:df:d0:17:08:63:46:a1
-----BEGIN CERTIFICATE-----
MIIBdTCCAR+gAwIBAgIIAjynfsH4I/0wDQYJKoZIhvcNAQELBQAwGDEWMBQGA1UE
AxMNWkxpbnQgVGVzdCBDQTAeFw0yMDA5MDEwMTAwMDBaFw0yMTEwMDMwMTAwMDBa
MBIxEDAOBgNVBAMTB3ptYXAuaW8wXDANBgkqhkiG9w0BAQEFAANLADBIAkEA5s7y
DjrKzd9M0sN5cXzNSuPP6EbkVZPMojQWlWg1N7YgsxQqcdQP6ePzGrhmHJflAohk
/SWz1Mv5ie9zTN/pdwIDAQABo1MwUTAOBgNVHQ8BAf8EBAMCBaAwHQYDVR0lBBYw
FAYIKwYBBQUHAwEGCCsGAQUFBwMCMAwGA1UdEwEB/wQCMAAwEgYDVR0RBAswCYIH
em1hcC5pbzANBgkqhkiG9w0BAQsFAANBAGr/oTVbq/9LjXyd0N6jpxcyxbB7TkMf
zjsEk8ijAirEHkEVQAhzGUPhhmEb+MTKWn5p5br/BkmUbt/QFwhjRqE=
-----END CERTIFICATE-----
