Certificate:
    Data:
        Version: 3 (0x2)
        Serial Number:
            0e:81:4c:b1:92:b0:bf:a1:da:d1:87:17:25
        Signature Algorithm: sha256WithRSAEncryption
        Issuer: CN = Lint Sub CA, OU = Test, O = MTG, C = DE
        Validity
            Not Before: Jan  1 00:00:00 1999 GMT
            Not After : Feb  1 00:00:00 1999 GMT
        Subject: CN = lint.mtg.de, OU = Lint, O = MTG, L = Darmstadt, ST = Hesse, C = DE
        Subject Public Key Info:
            Public Key Algorithm: rsaEncryption
                RSA Public-Key: (2048 bit)
                Modulus:
                    00:8f:a7:ba:4f:46:d1:ea:62:36:32:09:cc:cc:82:
                    31:d4:bd:7e:25:d5:1e:3e:0d:db:9c:cb:2f:5e:4b:
                    a8:42:31:c7:2c:d7:35:c3:b8:30:cb:bf:8d:95:52:
                    9a:95:4e:58:39:b3:ea:d1:1f:48:94:39:16:60:db:
                    7a:f8:3d:e6:0b:31:8a:dd:0f:a4:ff:3f:c5:78:6d:
                    e5:a2:6d:b3:88:c4:cc:b8:87:7d:51:ef:a7:ed:38:
                    e2:87:8d:5f:13:e6:13:9b:96:cd:3b:3e:7c:bd:8b:
                    ae:ab:c1:bc:13:46:ef:40:86:8b:62:5d:62:f6:65:
                    1e:d8:5b:57:bc:4c:6e:1e:15:0e:72:31:e8:50:45:
                    e2:c2:91:da:e8:64:82:54:88:ee:8b:04:88:ff:d0:
                    ed:49:c5:86:c8:e4:83:eb:fe:de:4f:35:04:4a:c5:
                    d7:a6:23:11:4d:b7:f9:f4:2a:99:c3:36:dd:e1:20:
                    70:a2:64:f5:59:53:39:50:40:ea:8a:e5:63:8c:66:
                    54:1e:89:51:65:b4:52:4f:7b:e5:fb:74:f4:6d:cf:
                    28:58:4b:e6:96:d9:4d:b4:0c:9b:6b:91:d0:c3:52:
                    ab:29:da:25:39:92:13:49:21:03:e4:56:80:3c:86:
                    14:42:c1:5f:36:d7:cc:d4:14:49:84:2f:d7:11:d7:
                    5d:7b
                Exponent: 65537 (0x10001)
        X509v3 extensions:
            X509v3 Key Usage: critical
                Digital Signature, Non Repudiation
    Signature Algorithm: sha256WithRSAEncryption
         38:ee:1b:68:8d:6e:39:d0:14:5a:02:f7:84:e0:0d:6b:f5:c9:
         2a:4a:49:d5:ff:15:29:d4:a4:6c:ff:2a:b2:bb:07:8d:88:dc:
         d5:df:39:e3:52:8d:db:e2:50:4e:a3:fc:9b:67:54:4a:66:18:
         a6:b9:2f:80:1b:24:73:4d:3d:a9:53:8e:7d:02:e1:5a:0c:e6:
         1a:44:6f:e4:33:0a:35:78:73:6e:40:26:2d:58:6d:e6:76:0c:
         30:1b:b7:b3:a8:e8:39:fe:97:af:ef:74:1a:c3:f2:48:36:0d:
         f8:3e:56:9a:ff:a7:f7:d8:5d:51:21:e7:ba:a0:c6:b9:c4:b5:
         c5:8f:9e:68:ec:21:85:21:68:7f:27:bf:9b:40:a0:ec:48:4a:
         32:e6:bf:8f:a0:52:d9:08:06:9f:c2:f1:d7:46:68:0b:0b:07:
         07:bb:9b:dd:11:d1:35:54:54:93:12:4d:d1:e7:1f:cd:bf:06:
         23:fa:e2:29:fe:a7:26:0b:be:b0:c7:b8:d9:10:92:91:b8:2d:
         69:d1:0b:51:62:3b:a2:53:4b:1d:1d:62:74:d1:3d:25:23:ed:
         72:e2:c0:73:75:51:3a:47:e0:f2:c4:c9:33:6d:da:63:6e:06:
         2d:a2:8d:7c:5d:e9:ac:0c:c4:ef:89:0f:00:f2:cf:8c:54:01:
         f3:58:73:8b
-----BEGIN CERTIFICATE-----
MIIDPTCCAiWgAwIBAgINDoFMsZKwv6Ha0YcXJTANBgkqhkiG9w0BAQsFADBAMRQw
EgYDVQQDDAtMaW50IFN1YiBDQTENMAsGA1UECwwEVGVzdDEMMAoGA1UECgwDTVRH
MQswCQYDVQQGEwJERTAeFw05OTAxMDEwMDAwMDBaFw05OTAyMDEwMDAwMDBaMGQx
FDASBgNVBAMMC2xpbnQubXRnLmRlMQ0wCwYDVQQLDARMaW50MQwwCgYDVQQKDANN
VEcxEjAQBgNVBAcMCURhcm1zdGFkdDEOMAwGA1UECAwFSGVzc2UxCzAJBgNVBAYT
AkRFMIIBIjANBgkqhkiG9w0BAQEFAAOCAQ8AMIIBCgKCAQEAj6e6T0bR6mI2MgnM
zIIx1L1+JdUePg3bnMsvXkuoQjHHLNc1w7gwy7+NlVKalU5YObPq0R9IlDkWYNt6
+D3mCzGK3Q+k/z/FeG3lom2ziMTMuId9Ue+n7Tjih41fE+YTm5bNOz58vYuuq8G8
E0bvQIaLYl1i9mUe2FtXvExuHhUOcjHoUEXiwpHa6GSCVIjuiwSI/9DtScWGyOSD
6/7eTzUESsXXpiMRTbf59CqZwzbd4SBwomT1WVM5UEDqiuVjjGZUHolRZbRST3vl
+3T0bc8oWEvmltlNtAyba5HQw1KrKdolOZITSSED5FaAPIYUQsFfNtfM1BRJhC/X
EdddewIDAQABoxIwEDAOBgNVHQ8BAf8EBAMCBsAwDQYJKoZIhvcNAQELBQADggEB
ADjuG2iNbjnQFFoC94TgDWv1ySpKSdX/FSnUpGz/KrK7B42I3NXfOeNSjdviUE6j
/JtnVEpmGKa5L4AbJHNNPalTjn0C4VoM5hpEb+QzCjV4c25AJi1YbeZ2DDAbt7Oo
6Dn+l6/vdBrD8kg2Dfg+Vpr/p/fYXVEh57qgxrnEtcWPnmjsIYUhaH8nv5tAoOxI
SjLmv4+gUtkIBp/C8ddGaAsLBwe7m90R0TVUVJMSTdHnH82/BiP64in+pyYLvrDH
uNkQkpG4LWnRC1FiO6JTSx0dYnTRPSUj7XLiwHN1UTpH4PLEyTNt2mNuBi2ijXxd
6awMxO+JDwDyz4xUAfNYc4s=
-----END CERTIFICATE-----
