Certificate:
    Data:
        Version: 3 (0x2)
        Serial Number:
            08:ff:ef:1c:a9:b1:ec:bb:9a:1a:46:6d:6a
        Signature Algorithm: sha256WithRSAEncryption
        Issuer: CN = Lint Sub CA, OU = Test, O = MTG, C = DE
        Validity
            Not Before: Jan  1 00:00:00 2022 GMT
            Not After : Feb  1 00:00:00 2022 GMT
        Subject: CN = lint.mtg.de, OU = Lint, O = MTG, L = Darmstadt, ST = Hesse, C = DE
        Subject Public Key Info:
            Public Key Algorithm: rsaEncryption
                RSA Public-Key: (2048 bit)
                Modulus:
                    00:dd:a7:c4:d9:fd:a8:d0:cd:63:99:ac:e0:a2:7f:
                    d8:a0:b1:e3:99:44:02:b2:95:0d:a3:20:33:3a:2f:
                    1b:cc:85:95:84:a5:5c:80:86:31:3a:bc:73:26:87:
                    82:f0:8b:2b:13:77:ba:85:a3:27:11:99:83:1e:1c:
                    ff:a0:16:1f:de:e7:4d:cc:0e:e6:99:a0:be:f2:06:
                    4d:0b:48:82:ea:50:26:4b:5f:13:42:60:94:26:1d:
                    b6:15:9e:eb:bc:98:36:1d:02:f5:d5:d5:a5:47:f7:
                    4b:29:be:b9:b8:cd:2b:c3:5e:67:be:ba:ac:9c:3b:
                    a4:53:bb:81:c6:9d:11:96:fc:1d:55:c2:4f:ad:bb:
                    56:2a:a9:ba:d2:90:31:79:27:86:f8:09:a7:ab:59:
                    d6:dc:02:27:9d:30:2c:df:8c:8a:a5:be:50:94:dd:
                    0c:5c:bc:d4:19:4d:2a:28:03:ad:40:91:36:d2:5a:
                    7e:6f:2e:2c:b8:7e:5d:3d:6b:8e:1d:2e:5f:af:01:
                    5a:77:c8:83:ce:91:9a:a5:98:c8:1e:2a:40:e6:ac:
                    33:95:be:9b:94:89:46:14:67:4c:ec:d4:d9:6e:0b:
                    dd:f7:fe:81:6c:f9:63:91:33:4d:e9:2f:21:bd:42:
                    5f:20:ec:0c:5d:e3:fe:45:e5:61:0c:4c:dc:1d:97:
                    85:35
                Exponent: 65537 (0x10001)
        X509v3 extensions:
            X509v3 Key Usage: critical
                Digital Signature, Non Repudiation
    Signature Algorithm: sha256WithRSAEncryption
         ae:e0:17:f5:2b:3e:d3:5e:c7:df:b7:c3:1b:99:17:95:cf:c9:
         6a:19:27:50:b1:20:ab:6c:2c:5c:4c:88:2c:ad:aa:96:6e:e5:
         30:66:39:f1:f0:05:d6:b0:78:03:a2:19:24:b3:7e:56:43:d2:
         37:01:f5:a1:d8:61:0e:f0:7d:b3:d6:9a:f3:1d:78:85:e2:d2:
         71:72:92:3d:08:63:14:fd:ae:5e:f9:0a:bd:0d:3a:11:0a:1f:
         cf:31:23:eb:01:07:0b:a7:dc:44:95:cf:e4:09:fb:63:1c:65:
         89:7c:d7:63:a9:9b:da:35:3f:0f:7d:73:3f:42:01:58:8e:84:
         f1:c4:3c:1b:75:0e:f4:97:0c:62:92:b5:dd:4e:06:59:58:81:
         a2:db:f8:7f:73:9e:50:03:86:6d:a0:a0:73:1c:28:88:df:2c:
         7f:a0:7e:9d:c2:e8:64:ab:0e:1b:22:f9:29:78:1b:c7:92:66:
         c6:33:b9:14:bd:f9:50:c5:6e:8d:e2:f4:8e:6b:fc:2f:00:6f:
         02:f7:3d:a2:75:9b:ac:e5:15:8f:dd:3f:84:00:53:8d:77:b3:
         32:73:34:71:5f:2b:19:88:92:29:ea:6b:b2:d4:11:fc:8e:40:
         2d:5b:ec:26:05:7a:d1:31:7f:a3:e6:84:0d:26:e7:c9:1b:b4:
         b4:7e:20:42
-----BEGIN CERTIFICATE-----
MIIDPTCCAiWgAwIBAgINCP/vHKmx7LuaGkZtajANBgkqhkiG9w0BAQsFADBAMRQw
EgYDVQQDDAtMaW50IFN1YiBDQTENMAsGA1UECwwEVGVzdDEMMAoGA1UECgwDTVRH
MQswCQYDVQQGEwJERTAeFw0yMjAxMDEwMDAwMDBaFw0yMjAyMDEwMDAwMDBaMGQx
FDASBgNVBAMMC2xpbnQubXRnLmRlMQ0wCwYDVQQLDARMaW50MQwwCgYDVQQKDANN
VEcxEjAQBgNVBAcMCURhcm1zdGFkdDEOMAwGA1UECAwFSGVzc2UxCzAJBgNVBAYT
AkRFMIIBIjANBgkqhkiG9w0BAQEFAAOCAQ8AMIIBCgKCAQEA3afE2f2o0M1jmazg
on/YoLHjmUQCspUNoyAzOi8bzIWVhKVcgIYxOrxzJoeC8IsrE3e6haMnEZmDHhz/
oBYf3udNzA7mmaC+8gZNC0iC6lAmS18TQmCUJh22FZ7rvJg2HQL11dWlR/dLKb65
uM0rw15nvrqsnDukU7uBxp0RlvwdVcJPrbtWKqm60pAxeSeG+Amnq1nW3AInnTAs
34yKpb5QlN0MXLzUGU0qKAOtQJE20lp+by4suH5dPWuOHS5frwFad8iDzpGapZjI
HipA5qwzlb6blIlGFGdM7NTZbgvd9/6BbPljkTNN6S8hvUJfIOwMXeP+ReVhDEzc
HZeFNQIDAQABoxIwEDAOBgNVHQ8BAf8EBAMCBsAwDQYJKoZIhvcNAQELBQADggEB
AK7gF/UrPtNex9+3wxuZF5XPyWoZJ1CxIKtsLFxMiCytqpZu5TBmOfHwBdaweAOi
GSSzflZD0jcB9aHYYQ7wfbPWmvMdeIXi0nFykj0IYxT9rl75Cr0NOhEKH88xI+sB
Bwun3ESVz+QJ+2McZYl812Opm9o1Pw99cz9CAViOhPHEPBt1DvSXDGKStd1OBllY
gaLb+H9znlADhm2goHMcKIjfLH+gfp3C6GSrDhsi+Sl4G8eSZsYzuRS9+VDFbo3i
9I5r/C8AbwL3PaJ1m6zlFY/dP4QAU413szJzNHFfKxmIkinqa7LUEfyOQC1b7CYF
etExf6PmhA0m58kbtLR+IEI=
-----END CERTIFICATE-----
