Certificate:
    Data:
        Version: 3 (0x2)
        Serial Number:
            0f:06:36:df:f0:05:a6:9b:56:ec:45:4f:01
        Signature Algorithm: sha256WithRSAEncryption
        Issuer: CN = Lint Sub CA, OU = Test, O = MTG, C = DE
        Validity
            Not Before: Jan  1 00:00:00 2022 GMT
            Not After : Feb  1 00:00:00 2022 GMT
        Subject: CN = lint.mtg.de, OU = Lint, O = MTG, L = Darmstadt, ST = Hesse, C = DE
        Subject Public Key Info:
            Public Key Algorithm: rsaEncryption
                RSA Public-Key: (2048 bit)
                Modulus:
                    00:9e:1b:56:8c:47:6e:27:91:5e:55:2e:e5:5f:53:
                    b6:e7:8e:b0:91:c1:61:ac:c4:29:07:2d:c5:48:a4:
                    ec:78:38:85:7a:0a:5a:59:b6:49:4a:80:0e:ae:cf:
                    89:0f:7b:0a:6d:97:1b:ed:82:62:43:1d:63:d6:2f:
                    cd:e0:65:af:c9:e1:1c:28:f0:c2:db:04:56:62:be:
                    5b:64:6e:85:8f:63:51:69:61:ff:97:9e:77:aa:3d:
                    49:be:18:95:07:85:1f:d2:5f:da:89:9e:31:29:78:
                    54:bf:16:31:5f:b5:f1:a7:da:20:96:22:91:a4:7a:
                    d9:13:22:a5:10:70:a1:11:2a:53:40:f8:dc:80:dd:
                    94:dc:fe:19:e4:77:99:29:bb:af:e5:d8:10:f0:92:
                    b0:ed:c1:2b:9f:fe:88:01:af:f7:b8:33:80:72:a8:
                    68:ca:b6:87:db:b4:ce:7a:d7:0b:fc:aa:58:5f:47:
                    55:00:25:c9:55:97:91:93:08:30:ff:45:0b:f6:65:
                    f0:11:f5:b1:a0:ab:14:45:f6:11:10:a7:eb:2d:30:
                    60:d1:01:e7:a1:c7:09:89:ba:38:c1:10:8a:ae:f9:
                    96:b8:54:df:14:ab:61:0e:e3:63:ba:b3:06:fb:08:
                    e7:44:19:c0:a3:05:bd:1c:00:1a:92:36:2a:ec:1b:
                    13:e1
                Exponent: 65537 (0x10001)
        X509v3 extensions:
            X509v3 Key Usage: critical
                Key Agreement
    Signature Algorithm: sha256WithRSAEncryption
         e6:ae:6e:41:d2:e9:bf:98:ee:f4:9b:f8:e6:80:a8:84:39:ee:
         ca:7d:98:fd:62:e5:e0:85:30:12:b4:7e:83:0c:88:e3:fc:20:
         17:c5:5f:5a:e1:b0:e3:73:85:7b:ef:78:9b:9d:c8:31:ff:f5:
         cd:99:c0:a0:d8:bb:f5:34:a2:6a:05:d0:c9:42:0e:c0:bf:e8:
         ce:c3:77:ce:ea:15:93:ee:17:1d:01:0a:fc:3f:95:bc:07:0b:
         52:64:f6:f6:3f:2e:78:0e:ce:71:ad:9f:ba:a5:f1:72:07:6d:
         c1:87:9d:28:88:2f:e8:d1:b5:5d:1d:71:01:dc:29:5c:cd:4c:
         1a:70:32:8b:b8:ad:85:fb:36:58:c0:b7:3c:bd:30:9a:b0:86:
         06:60:88:ee:6c:b9:8e:2b:9d:b1:bf:33:b8:9f:97:46:a7:40:
         ed:c1:e3:e4:b4:6c:0b:c6:3c:97:3d:9a:3c:55:0c:22:3c:a5:
         d9:c4:70:74:40:77:1d:77:81:88:24:29:cf:fe:0e:36:17:3f:
         7d:4d:ae:49:50:89:06:50:37:ef:6f:38:9b:b4:df:13:d2:9d:
         cc:30:eb:10:67:8c:ad:f9:7e:12:cd:c5:d4:f8:4e:97:4d:db:
         bb:63:e2:f0:69:72:a1:21:b7:f4:5d:e7:16:56:ec:81:31:b7:
         da:04:c5:b1
-----BEGIN CERTIFICATE-----
MIIDPTCCAiWgAwIBAgINDwY23/AFpptW7EVPATANBgkqhkiG9w0BAQsFADBAMRQw
EgYDVQQDDAtMaW50IFN1YiBDQTENMAsGA1UECwwEVGVzdDEMMAoGA1UECgwDTVRH
MQswCQYDVQQGEwJERTAeFw0yMjAxMDEwMDAwMDBaFw0yMjAyMDEwMDAwMDBaMGQx
FDASBgNVBAMMC2xpbnQubXRnLmRlMQ0wCwYDVQQLDARMaW50MQwwCgYDVQQKDANN
VEcxEjAQBgNVBAcMCURhcm1zdGFkdDEOMAwGA1UECAwFSGVzc2UxCzAJBgNVBAYT
AkRFMIIBIjANBgkqhkiG9w0BAQEFAAOCAQ8AMIIBCgKCAQEAnhtWjEduJ5FeVS7l
X1O2546wkcFhrMQpBy3FSKTseDiFegpaWbZJSoAOrs+JD3sKbZcb7YJiQx1j1i/N
4GWvyeEcKPDC2wRWYr5bZG6Fj2NRaWH/l553qj1JvhiVB4Uf0l/aiZ4xKXhUvxYx
X7Xxp9ogliKRpHrZEyKlEHChESpTQPjcgN2U3P4Z5HeZKbuv5dgQ8JKw7cErn/6I
Aa/3uDOAcqhoyraH27TOetcL/KpYX0dVACXJVZeRkwgw/0UL9mXwEfWxoKsURfYR
EKfrLTBg0QHnoccJibo4wRCKrvmWuFTfFKthDuNjurMG+wjnRBnAowW9HAAakjYq
7BsT4QIDAQABoxIwEDAOBgNVHQ8BAf8EBAMCAwgwDQYJKoZIhvcNAQELBQADggEB
AOaubkHS6b+Y7vSb+OaAqIQ57sp9mP1i5eCFMBK0foMMiOP8IBfFX1rhsONzhXvv
eJudyDH/9c2ZwKDYu/U0omoF0MlCDsC/6M7Dd87qFZPuFx0BCvw/lbwHC1Jk9vY/
LngOznGtn7ql8XIHbcGHnSiIL+jRtV0dcQHcKVzNTBpwMou4rYX7NljAtzy9MJqw
hgZgiO5suY4rnbG/M7ifl0anQO3B4+S0bAvGPJc9mjxVDCI8pdnEcHRAdx13gYgk
Kc/+DjYXP31NrklQiQZQN+9vOJu03xPSncww6xBnjK35fhLNxdT4TpdN27tj4vBp
cqEht/Rd5xZW7IExt9oExbE=
-----END CERTIFICATE-----
