Certificate:
    Data:
        Version: 3 (0x2)
        Serial Number: 1711356925 (0x66013bfd)
        Signature Algorithm: sha256WithRSAEncryption
        Issuer: CN=Zlint Demo Test CA
        Validity
            Not Before: Mar 25 08:55:25 2024 GMT
            Not After : Mar 25 08:55:25 2025 GMT
        Subject: CN=example.com
        Subject Public Key Info:
            Public Key Algorithm: rsaEncryption
                Public-Key: (2048 bit)
                Modulus:
                    00:9a:23:2b:8d:c2:b2:9e:1f:f6:f6:b1:69:18:cc:
                    22:ef:b6:e5:3a:08:00:79:38:66:94:9f:a5:bd:41:
                    52:89:69:7c:7e:2d:86:3f:40:9c:00:8a:54:e3:3c:
                    8a:de:89:96:8e:ea:9c:69:df:d8:f6:7f:75:40:23:
                    95:23:23:fe:88:05:26:94:cb:aa:28:90:f0:9c:14:
                    25:aa:d8:a4:dd:83:18:24:7c:eb:18:40:8e:a3:40:
                    9c:ce:ab:72:06:20:97:c7:7c:2b:26:9e:c0:53:55:
                    2d:cd:86:3b:81:8d:bf:8e:d8:6d:50:9e:91:a2:cd:
                    5d:7d:e1:d0:fa:ca:0a:e9:5b:e5:e2:28:d3:48:cd:
                    bf:8a:32:52:25:94:c2:58:38:30:04:4a:69:5f:b1:
                    3d:e1:b8:27:af:de:1f:95:54:f7:0d:04:aa:11:32:
                    7d:80:d8:5d:5d:ab:25:32:93:4d:80:6a:5f:91:41:
                    8f:21:69:c9:d7:69:1e:81:3d:fa:40:a1:d3:3e:77:
                    fe:21:01:29:8b:85:61:ac:f3:e2:e7:a8:48:78:a0:
                    4f:8b:a0:bd:9d:6b:fd:e4:72:3c:4d:36:34:83:5e:
                    b3:1a:d2:5f:be:5e:9d:7c:64:1a:89:49:bb:e8:8a:
                    84:0c:22:c2:21:f0:15:a9:74:72:26:99:43:f7:c5:
                    f7:8f
                Exponent: 65537 (0x10001)
        X509v3 extensions:
            X509v3 Key Usage: critical
                Digital Signature, Key Encipherment
            X509v3 Extended Key Usage: critical
                TLS Web Server Authentication
            X509v3 Subject Alternative Name: 
                DNS:example.com
            X509v3 Authority Key Identifier: 
                8A:11:10:2B:49:EB:35:65:F9:FA:81:59:00:B4:67:35:C8:68:E3:39
            X509v3 Subject Key Identifier: 
                16:6F:4D:56:39:2A:CD:36:7C:EC:CF:07:7B:CF:00:3B:CF:B7:9E:30
    Signature Algorithm: sha256WithRSAEncryption
    Signature Value:
        dc:cf:1d:60:84:b7:ad:78:e7:69:b8:64:7e:25:08:fc:85:13:
        5d:34:ec:0c:13:74:80:a6:92:8e:d8:0d:a7:2e:55:37:ab:02:
        b8:ce:eb:94:cc:47:73:c7:ac:9c:67:9d:45:c1:79:40:14:be:
        79:bd:1e:68:73:a9:c8:c2:d4:ca:f7:ad:5e:65:09:8a:35:e7:
        a7:71:25:2e:6c:07:ac:87:0c:11:24:fd:9a:3e:73:0d:21:e0:
        11:3a:e2:38:22:21:f2:48:7d:f8:a9:59:4d:b3:d9:42:f7:59:
        0c:2f:45:7d:16:77:05:d0:6e:a6:f1:0e:c0:8a:a5:de:e7:99:
        da:cf:d0:e7:7d:66:2f:48:74:fe:f2:93:95:9a:4a:dc:4f:6d:
        0f:9e:43:89:43:a3:c6:74:27:d8:d3:e1:dc:f4:7a:f2:52:bd:
        19:d0:ea:f3:c2:1a:48:60:6c:44:11:27:ba:41:97:96:b8:ca:
        90:de:f7:e3:63:6a:1e:c3:83:fa:c3:77:1d:ee:2c:05:ce:25:
        8c:30:e8:18:03:20:6c:b3:b1:c5:9f:cc:bc:5f:4e:29:15:35:
        9d:53:e8:6e:27:0f:5f:75:07:23:6a:27:65:50:18:84:54:45:
        77:56:3e:1b:cc:9f:22:98:4a:95:4e:78:21:6a:bb:68:45:32:
        25:33:84:48
-----BEGIN CERTIFICATE-----
MIIDNTCCAh2gAwIBAgIEZgE7/TANBgkqhkiG9w0BAQsFADAdMRswGQYDVQQDDBJa
bGludCBEZW1vIFRlc3QgQ0EwHhcNMjQwMzI1MDg1NTI1WhcNMjUwMzI1MDg1NTI1
WjAWMRQwEgYDVQQDDAtleGFtcGxlLmNvbTCCASIwDQYJKoZIhvcNAQEBBQADggEP
ADCCAQoCggEBAJojK43Csp4f9vaxaRjMIu+25ToIAHk4ZpSfpb1BUolpfH4thj9A
nACKVOM8it6Jlo7qnGnf2PZ/dUAjlSMj/ogFJpTLqiiQ8JwUJarYpN2DGCR86xhA
jqNAnM6rcgYgl8d8KyaewFNVLc2GO4GNv47YbVCekaLNXX3h0PrKCulb5eIo00jN
v4oyUiWUwlg4MARKaV+xPeG4J6/eH5VU9w0EqhEyfYDYXV2rJTKTTYBqX5FBjyFp
yddpHoE9+kCh0z53/iEBKYuFYazz4ueoSHigT4ugvZ1r/eRyPE02NINesxrSX75e
nXxkGolJu+iKhAwiwiHwFal0ciaZQ/fF948CAwEAAaOBgzCBgDAOBgNVHQ8BAf8E
BAMCBaAwFgYDVR0lAQH/BAwwCgYIKwYBBQUHAwEwFgYDVR0RBA8wDYILZXhhbXBs
ZS5jb20wHwYDVR0jBBgwFoAUihEQK0nrNWX5+oFZALRnNcho4zkwHQYDVR0OBBYE
FBZvTVY5Ks02fOzPB3vPADvPt54wMA0GCSqGSIb3DQEBCwUAA4IBAQDczx1ghLet
eOdpuGR+JQj8hRNdNOwME3SAppKO2A2nLlU3qwK4zuuUzEdzx6ycZ51FwXlAFL55
vR5oc6nIwtTK961eZQmKNeencSUubAeshwwRJP2aPnMNIeAROuI4IiHySH34qVlN
s9lC91kML0V9FncF0G6m8Q7AiqXe55naz9DnfWYvSHT+8pOVmkrcT20PnkOJQ6PG
dCfY0+Hc9HryUr0Z0OrzwhpIYGxEESe6QZeWuMqQ3vfjY2oew4P6w3cd7iwFziWM
MOgYAyBss7HFn8y8X04pFTWdU+huJw9fdQcjaidlUBiEVEV3Vj4bzJ8imEqVTngh
artoRTIlM4RI
-----END CERTIFICATE-----
