Certificate:
    Data:
        Version: 3 (0x2)
        Serial Number: 1711356869 (0x66013bc5)
        Signature Algorithm: sha256WithRSAEncryption
        Issuer: CN=Zlint Demo Test CA
        Validity
            Not Before: Mar 25 08:54:29 2024 GMT
            Not After : Mar 25 08:54:29 2025 GMT
        Subject: CN=example.com
        Subject Public Key Info:
            Public Key Algorithm: rsaEncryption
                Public-Key: (2048 bit)
                Modulus:
                    00:c3:63:f6:59:0e:9c:2e:a7:e5:57:65:b8:d3:de:
                    9b:10:5f:86:20:b6:5a:5d:5b:d8:85:35:94:95:1d:
                    c4:4a:cf:85:14:f5:ff:55:04:9e:5b:c3:b0:fe:fd:
                    be:7f:19:7f:38:e2:4b:ea:7d:a8:06:c5:76:ba:72:
                    84:69:ba:0e:01:8a:64:be:48:28:40:4d:5f:10:41:
                    8f:87:ac:87:e8:68:3f:87:52:26:27:ca:0e:70:a3:
                    ce:95:c0:fb:a4:05:38:41:87:d0:e0:f1:e6:12:05:
                    aa:76:ce:1c:4d:94:4b:02:1c:4f:0c:fa:76:ac:dc:
                    22:77:ac:74:14:f2:2d:b4:c2:26:3d:ba:ef:8e:13:
                    0c:dc:e3:1b:02:77:39:0c:3a:af:90:5b:19:f1:29:
                    d7:4c:7d:4d:a3:c2:a2:4f:de:1c:c5:7e:2a:02:8e:
                    22:e2:df:f0:e0:1b:c3:bb:a6:ba:cc:b2:14:58:33:
                    7d:fa:64:53:b4:5c:f1:50:d5:d0:d9:e0:c2:07:64:
                    e6:5f:91:60:14:2b:5a:eb:52:6f:f8:4a:f4:5d:fa:
                    86:d6:44:3f:05:83:43:33:87:f1:2c:9f:33:20:d2:
                    4a:b1:9a:1b:40:21:e9:ad:86:40:b7:a8:56:2e:34:
                    0c:df:ec:9f:d5:fd:d3:13:2a:76:54:c0:94:f5:24:
                    e9:5f
                Exponent: 65537 (0x10001)
        X509v3 extensions:
            X509v3 Key Usage: critical
                Digital Signature, Key Encipherment
            X509v3 Subject Alternative Name: 
                DNS:example.com
            X509v3 Authority Key Identifier: 
                8A:11:10:2B:49:EB:35:65:F9:FA:81:59:00:B4:67:35:C8:68:E3:39
            X509v3 Subject Key Identifier: 
                22:BA:41:80:12:C0:27:C3:A7:B8:B7:0C:96:4D:9E:3F:72:8B:36:DA
            X509v3 Extended Key Usage: 
                TLS Web Server Authentication
    Signature Algorithm: sha256WithRSAEncryption
    Signature Value:
        af:0a:00:aa:bd:f1:fa:f6:13:8d:c6:55:17:71:3c:86:84:81:
        3b:89:d8:c3:71:01:65:be:4d:95:79:bc:3a:55:aa:35:f1:d9:
        1c:e9:8c:aa:87:94:30:b9:37:37:6c:e8:34:30:6d:94:64:c8:
        ed:d6:ed:72:9b:23:cb:c2:4f:bc:1d:3d:af:65:be:0f:20:79:
        09:90:7f:bd:ba:78:a3:f4:31:30:3a:a4:16:8c:0a:d8:6a:d3:
        20:b6:c4:b1:92:f4:63:64:f9:4c:40:71:22:b5:b3:ed:6a:a8:
        5d:1c:ea:df:c2:d0:68:53:1c:82:87:23:b4:a7:14:ac:a4:4f:
        b4:bc:6e:d8:8d:70:4d:a2:ab:88:e9:bd:2f:ae:0c:5f:cb:2e:
        74:22:cc:64:23:25:6f:30:8b:af:4b:50:e0:50:8e:17:cd:2b:
        63:d0:cd:0f:0b:ad:92:88:b3:8c:ed:04:0e:41:b4:8a:08:7d:
        de:7f:53:e2:32:e3:8f:87:98:d0:d8:cd:a4:5a:3f:c7:e1:5d:
        d6:11:d0:63:f6:a0:fd:b6:a6:2e:9c:10:99:93:af:f8:ff:f5:
        3e:23:9d:08:a1:8a:61:57:d7:94:c7:df:68:89:92:ec:dc:13:
        41:8d:58:53:78:f5:b9:4a:f0:c1:25:56:2a:f5:a6:11:0b:de:
        c7:30:57:74
-----BEGIN CERTIFICATE-----
MIIDMDCCAhigAwIBAgIEZgE7xTANBgkqhkiG9w0BAQsFADAdMRswGQYDVQQDDBJa
bGludCBEZW1vIFRlc3QgQ0EwHhcNMjQwMzI1MDg1NDI5WhcNMjUwMzI1MDg1NDI5
WjAWMRQwEgYDVQQDDAtleGFtcGxlLmNvbTCCASIwDQYJKoZIhvcNAQEBBQADggEP
ADCCAQoCggEBAMNj9lkOnC6n5VdluNPemxBfhiC2Wl1b2IU1lJUdxErPhRT1/1UE
nlvDsP79vn8ZfzjiS+p9qAbFdrpyhGm6DgGKZL5IKEBNXxBBj4esh+hoP4dSJifK
DnCjzpXA+6QFOEGH0ODx5hIFqnbOHE2USwIcTwz6dqzcInesdBTyLbTCJj26744T
DNzjGwJ3OQw6r5BbGfEp10x9TaPCok/eHMV+KgKOIuLf8OAbw7umusyyFFgzffpk
U7Rc8VDV0Nngwgdk5l+RYBQrWutSb/hK9F36htZEPwWDQzOH8SyfMyDSSrGaG0Ah
6a2GQLeoVi40DN/sn9X90xMqdlTAlPUk6V8CAwEAAaN/MH0wDgYDVR0PAQH/BAQD
AgWgMBYGA1UdEQQPMA2CC2V4YW1wbGUuY29tMB8GA1UdIwQYMBaAFIoRECtJ6zVl
+fqBWQC0ZzXIaOM5MB0GA1UdDgQWBBQiukGAEsAnw6e4twyWTZ4/cos22jATBgNV
HSUEDDAKBggrBgEFBQcDATANBgkqhkiG9w0BAQsFAAOCAQEArwoAqr3x+vYTjcZV
F3E8hoSBO4nYw3EBZb5NlXm8OlWqNfHZHOmMqoeUMLk3N2zoNDBtlGTI7dbtcpsj
y8JPvB09r2W+DyB5CZB/vbp4o/QxMDqkFowK2GrTILbEsZL0Y2T5TEBxIrWz7Wqo
XRzq38LQaFMcgocjtKcUrKRPtLxu2I1wTaKriOm9L64MX8sudCLMZCMlbzCLr0tQ
4FCOF80rY9DNDwutkoizjO0EDkG0igh93n9T4jLjj4eY0NjNpFo/x+Fd1hHQY/ag
/bamLpwQmZOv+P/1PiOdCKGKYVfXlMffaImS7NwTQY1YU3j1uUrwwSVWKvWmEQve
xzBXdA==
-----END CERTIFICATE-----
