Certificate:
    Data:
        Version: 3 (0x2)
        Serial Number:
            ac:8c:c1:d5:31:71:cc:2f:68:57:f2:3c:72:b4:7a:68
        Signature Algorithm: sha256WithRSAEncryption
        Issuer: C = XX, O = Some CA, CN = Fake CA for zlint testing
        Validity
            Not Before: Jun 14 14:08:08 2025 GMT
            Not After : Jun 14 14:08:08 2026 GMT
        Subject: C = SE, ST = G\C3\B6taland, L = G\C3\B6teborg, O = Some Company AB, CN = example.org
        Subject Public Key Info:
            Public Key Algorithm: rsaEncryption
                RSA Public-Key: (2048 bit)
                Modulus:
                    00:e1:22:3e:41:79:34:f9:bb:67:61:eb:ac:c2:2a:
                    59:af:8d:bf:bb:d0:97:13:95:f5:ce:ad:3a:8a:2f:
                    18:d0:81:bb:e8:1f:a7:6b:43:4a:4c:a6:f9:51:c2:
                    f1:1d:c9:9f:ea:ce:ab:7c:bc:64:83:a5:23:6e:c5:
                    8f:0f:17:23:5a:ed:85:46:3f:76:74:6b:ef:9d:30:
                    fc:d6:59:98:05:5b:63:6a:51:29:cf:b4:92:3c:f9:
                    91:a7:20:78:e0:ee:b8:fe:fe:c6:3e:28:c9:85:6b:
                    c8:d6:1c:69:fa:0c:cc:c5:08:75:99:36:b4:0b:43:
                    12:da:6a:5c:bb:29:64:53:61:3b:72:67:bb:c5:7f:
                    8a:a5:ff:53:93:c9:01:7a:21:11:da:4d:1a:fd:2b:
                    66:f1:ed:bf:56:6d:c4:ed:8a:a8:7d:dc:d2:21:0b:
                    d9:31:d4:3e:f9:4d:c3:a0:c3:a3:02:6d:5b:d7:42:
                    ef:10:43:c7:40:5b:5e:b4:85:7f:0c:b0:d6:d9:b3:
                    03:e1:17:0d:9f:13:3e:23:bb:59:69:83:fd:36:02:
                    7c:a9:c0:b9:75:28:41:e0:07:4f:67:60:03:81:aa:
                    ec:dc:16:cb:fb:b7:3e:02:dd:08:48:70:9c:fe:bc:
                    42:11:fc:be:54:6b:a5:2d:c1:46:91:85:30:e3:04:
                    de:bb
                Exponent: 65537 (0x10001)
        X509v3 extensions:
            X509v3 Key Usage: critical
                Digital Signature, Key Encipherment
            X509v3 Subject Key Identifier: 
                76:AA:4E:5B:51:09:75:94:D7:32:14:2A:3C:C3:49:7C:18:0D:E6:CF
            X509v3 Authority Key Identifier: 
                keyid:E8:B6:F6:76:4B:D0:3B:E5:46:A5:F9:54:D4:7E:07:B3:DE:0D:60:3E

            Authority Information Access: 
                OCSP - URI:http://ca.someca-inc.com/ocsp
                CA Issuers - URI:http://ca.someca-inc.com/root

            X509v3 Subject Alternative Name: 
                DNS:example.org
            X509v3 Certificate Policies: 
                Policy: 2.23.140.1.2.2

            X509v3 CRL Distribution Points: 

                Full Name:
                  URI:http://ca.someca-inc.com/crl

            X509v3 Extended Key Usage: 
                0.
    Signature Algorithm: sha256WithRSAEncryption
         72:2d:22:52:17:c2:05:ae:14:da:d7:3f:03:35:ff:6b:ff:18:
         e8:c1:b8:45:a4:81:b1:91:2d:15:eb:22:67:d0:8f:c3:72:5f:
         01:68:b3:17:a5:c7:66:06:d2:1e:33:81:6d:69:94:27:a6:de:
         b3:c9:50:b7:8c:0b:71:f4:7c:43:4a:97:24:70:ec:78:64:5f:
         7f:43:e6:2b:a0:d4:d4:67:46:e5:10:ee:c9:bc:25:29:be:8e:
         00:18:fe:5b:86:5c:7c:97:d3:82:bb:1f:ed:ba:ed:cb:79:03:
         99:b6:ae:60:1b:83:8c:f3:c8:84:9b:79:2f:d6:ac:9d:97:56:
         aa:50:7f:6d:e4:fa:01:0e:c6:8d:5a:c0:64:a1:2c:9f:7b:91:
         d9:31:21:7c:3a:16:e7:31:2d:ad:23:50:5a:ff:90:80:73:ec:
         64:65:4d:20:3c:21:a2:5f:d7:90:ee:6c:ad:f2:34:ef:43:db:
         33:c6:fd:54:28:42:e9:58:a8:43:69:38:70:98:3d:50:d8:89:
         7a:a8:b1:15:1b:6b:c7:da:36:e6:2e:da:99:30:ac:67:51:0f:
         d7:77:2a:75:e9:f5:60:c7:a6:67:bb:95:03:34:66:e6:5c:33:
         f8:d5:15:8a:64:d8:10:25:5f:2e:38:af:28:14:12:b1:29:08:
         66:c6:db:21
-----BEGIN CERTIFICATE-----
MIIEVjCCAz6gAwIBAgIRAKyMwdUxccwvaFfyPHK0emgwDQYJKoZIhvcNAQELBQAw
QzELMAkGA1UEBhMCWFgxEDAOBgNVBAoTB1NvbWUgQ0ExIjAgBgNVBAMTGUZha2Ug
Q0EgZm9yIHpsaW50IHRlc3RpbmcwHhcNMjUwNjE0MTQwODA4WhcNMjYwNjE0MTQw
ODA4WjBlMQswCQYDVQQGEwJTRTESMBAGA1UECAwJR8O2dGFsYW5kMRIwEAYDVQQH
DAlHw7Z0ZWJvcmcxGDAWBgNVBAoTD1NvbWUgQ29tcGFueSBBQjEUMBIGA1UEAxML
ZXhhbXBsZS5vcmcwggEiMA0GCSqGSIb3DQEBAQUAA4IBDwAwggEKAoIBAQDhIj5B
eTT5u2dh66zCKlmvjb+70JcTlfXOrTqKLxjQgbvoH6drQ0pMpvlRwvEdyZ/qzqt8
vGSDpSNuxY8PFyNa7YVGP3Z0a++dMPzWWZgFW2NqUSnPtJI8+ZGnIHjg7rj+/sY+
KMmFa8jWHGn6DMzFCHWZNrQLQxLaaly7KWRTYTtyZ7vFf4ql/1OTyQF6IRHaTRr9
K2bx7b9WbcTtiqh93NIhC9kx1D75TcOgw6MCbVvXQu8QQ8dAW160hX8MsNbZswPh
Fw2fEz4ju1lpg/02AnypwLl1KEHgB09nYAOBquzcFsv7tz4C3QhIcJz+vEIR/L5U
a6UtwUaRhTDjBN67AgMBAAGjggEhMIIBHTAOBgNVHQ8BAf8EBAMCBaAwHQYDVR0O
BBYEFHaqTltRCXWU1zIUKjzDSXwYDebPMB8GA1UdIwQYMBaAFOi29nZL0DvlRqX5
VNR+B7PeDWA+MGQGCCsGAQUFBwEBBFgwVjApBggrBgEFBQcwAYYdaHR0cDovL2Nh
LnNvbWVjYS1pbmMuY29tL29jc3AwKQYIKwYBBQUHMAKGHWh0dHA6Ly9jYS5zb21l
Y2EtaW5jLmNvbS9yb290MBYGA1UdEQQPMA2CC2V4YW1wbGUub3JnMBMGA1UdIAQM
MAowCAYGZ4EMAQICMC0GA1UdHwQmMCQwIqAgoB6GHGh0dHA6Ly9jYS5zb21lY2Et
aW5jLmNvbS9jcmwwCQYDVR0lBAIwADANBgkqhkiG9w0BAQsFAAOCAQEAci0iUhfC
Ba4U2tc/AzX/a/8Y6MG4RaSBsZEtFesiZ9CPw3JfAWizF6XHZgbSHjOBbWmUJ6be
s8lQt4wLcfR8Q0qXJHDseGRff0PmK6DU1GdG5RDuybwlKb6OABj+W4ZcfJfTgrsf
7brty3kDmbauYBuDjPPIhJt5L9asnZdWqlB/beT6AQ7GjVrAZKEsn3uR2TEhfDoW
5zEtrSNQWv+QgHPsZGVNIDwhol/XkO5srfI070PbM8b9VChC6VioQ2k4cJg9UNiJ
eqixFRtrx9o25i7amTCsZ1EP13cqden1YMemZ7uVAzRm5lwz+NUVimTYECVfLjiv
KBQSsSkIZsbbIQ==
-----END CERTIFICATE-----
