Certificate:
    Data:
        Version: 3 (0x2)
        Serial Number:
            fc:00:a2:ec:93:d5:c4:09:44:9e:51:32:5b:bc:71:63
        Signature Algorithm: sha256WithRSAEncryption
        Issuer: C = XX, O = Some CA, CN = Fake CA for zlint testing
        Validity
            Not Before: Jun 16 07:35:08 2025 GMT
            Not After : Jun 16 07:35:08 2026 GMT
        Subject: C = SE, ST = G\C3\B6taland, L = G\C3\B6teborg, O = Some Company AB, CN = example.org
        Subject Public Key Info:
            Public Key Algorithm: rsaEncryption
                RSA Public-Key: (2048 bit)
                Modulus:
                    00:b4:3c:2d:6e:e8:b3:39:0b:b6:2c:8b:e0:97:7d:
                    4c:bb:70:e2:a3:93:d7:2b:44:b5:3a:e0:b5:f4:8c:
                    da:70:7d:b4:67:9b:f0:99:d0:52:e1:4b:99:22:fa:
                    63:45:be:75:88:b3:79:47:c0:25:6c:d8:c8:f6:2d:
                    6b:84:9d:6b:4c:4d:55:52:a8:9a:96:1d:d7:73:fe:
                    e8:d5:1e:e5:99:99:3b:73:8c:ec:ca:a6:24:3a:7f:
                    2e:f4:f7:75:49:4f:d6:cf:a9:01:3c:7f:85:fb:1b:
                    a9:fc:41:c7:0a:64:6c:b1:1b:81:d4:c5:5b:40:0b:
                    1b:97:35:d7:52:1e:5c:e8:e9:36:f3:9c:5c:8e:ee:
                    46:e7:8b:f3:86:75:65:1a:3a:d0:bc:de:f3:e5:bc:
                    ff:bc:74:26:cf:a1:d9:dd:a3:cc:d9:6b:a2:16:7c:
                    8f:6f:83:f8:f9:f7:44:96:6f:4c:cf:03:ee:69:e5:
                    55:5e:03:33:4c:38:5e:e9:98:15:26:b0:05:ff:a6:
                    b4:96:04:ef:05:9a:46:05:cb:d0:30:7d:89:f6:43:
                    d8:cb:15:d2:e4:e6:1c:a9:fd:ff:92:e6:f5:ed:78:
                    90:41:88:9e:c7:1a:16:00:2c:d3:af:a6:cd:f5:95:
                    62:27:47:fc:5b:fe:aa:e7:a3:d6:9b:43:e1:7d:2d:
                    ef:95
                Exponent: 65537 (0x10001)
        X509v3 extensions:
            X509v3 Key Usage: critical
                Digital Signature, Key Encipherment
            X509v3 Extended Key Usage: 
                TLS Web Client Authentication, TLS Web Server Authentication
            X509v3 Subject Key Identifier: 
                27:C4:B5:96:78:74:3A:49:7D:72:32:CC:47:8D:A4:BD:97:04:26:40
            X509v3 Authority Key Identifier: 
                keyid:E8:B6:F6:76:4B:D0:3B:E5:46:A5:F9:54:D4:7E:07:B3:DE:0D:60:3E

            Authority Information Access: 
                OCSP - URI:http://ca.someca-inc.com/ocsp
                CA Issuers - URI:http://ca.someca-inc.com/root

            X509v3 Subject Alternative Name: 
                DNS:example.org
            X509v3 Certificate Policies: 
                Policy: 2.23.140.1.2.2

            X509v3 CRL Distribution Points: 

                Full Name:
                  URI:http://ca.someca-inc.com/crl

            X509v3 Subject Directory Attributes: 
                0.
    Signature Algorithm: sha256WithRSAEncryption
         9c:3b:42:0a:97:fc:74:27:38:2c:1e:a8:5f:ba:ab:89:ca:c2:
         bb:6a:47:49:93:3b:59:e6:50:9f:15:69:82:4a:89:af:17:c7:
         37:ef:e0:ef:8d:bb:c8:28:21:40:14:3a:ce:89:b8:d2:32:a4:
         91:94:5e:29:5d:13:72:6a:38:50:cd:41:34:c7:1f:0a:7e:d1:
         4f:e0:c3:c2:ac:67:4f:fb:d5:cc:24:25:b5:85:ee:dd:1f:06:
         46:72:a5:63:c6:cd:b9:72:f1:b3:b5:14:c9:da:1a:89:d6:7e:
         5a:0f:09:88:85:fe:17:f4:f6:d5:5a:0b:58:c8:94:6d:8e:33:
         eb:c6:bc:21:0a:af:83:3e:54:ed:10:b2:f9:2c:95:c7:b6:7e:
         ae:aa:09:aa:6e:f9:ae:c0:5c:12:2f:12:ce:7d:5e:4f:bd:fc:
         96:f9:b3:4a:36:ed:e8:1c:ca:fd:f8:59:aa:36:2b:19:1d:64:
         e9:67:8c:fc:e8:10:57:4d:ec:05:36:17:49:8c:08:30:cb:d5:
         5d:aa:bb:1e:80:42:e2:68:06:d7:19:d7:bf:e3:5e:11:fe:6d:
         ef:48:53:6c:71:6d:d2:c5:f8:73:da:87:9c:7b:23:0e:93:ec:
         88:a9:87:9c:3c:fb:19:c5:ba:bc:db:99:3d:77:ee:f5:ba:6e:
         4a:d5:0e:91
-----BEGIN CERTIFICATE-----
MIIEdTCCA12gAwIBAgIRAPwAouyT1cQJRJ5RMlu8cWMwDQYJKoZIhvcNAQELBQAw
QzELMAkGA1UEBhMCWFgxEDAOBgNVBAoTB1NvbWUgQ0ExIjAgBgNVBAMTGUZha2Ug
Q0EgZm9yIHpsaW50IHRlc3RpbmcwHhcNMjUwNjE2MDczNTA4WhcNMjYwNjE2MDcz
NTA4WjBlMQswCQYDVQQGEwJTRTESMBAGA1UECAwJR8O2dGFsYW5kMRIwEAYDVQQH
DAlHw7Z0ZWJvcmcxGDAWBgNVBAoTD1NvbWUgQ29tcGFueSBBQjEUMBIGA1UEAxML
ZXhhbXBsZS5vcmcwggEiMA0GCSqGSIb3DQEBAQUAA4IBDwAwggEKAoIBAQC0PC1u
6LM5C7Ysi+CXfUy7cOKjk9crRLU64LX0jNpwfbRnm/CZ0FLhS5ki+mNFvnWIs3lH
wCVs2Mj2LWuEnWtMTVVSqJqWHddz/ujVHuWZmTtzjOzKpiQ6fy7093VJT9bPqQE8
f4X7G6n8QccKZGyxG4HUxVtACxuXNddSHlzo6TbznFyO7kbni/OGdWUaOtC83vPl
vP+8dCbPodndo8zZa6IWfI9vg/j590SWb0zPA+5p5VVeAzNMOF7pmBUmsAX/prSW
BO8FmkYFy9AwfYn2Q9jLFdLk5hyp/f+S5vXteJBBiJ7HGhYALNOvps31lWInR/xb
/qrno9abQ+F9Le+VAgMBAAGjggFAMIIBPDAOBgNVHQ8BAf8EBAMCBaAwHQYDVR0l
BBYwFAYIKwYBBQUHAwIGCCsGAQUFBwMBMB0GA1UdDgQWBBQnxLWWeHQ6SX1yMsxH
jaS9lwQmQDAfBgNVHSMEGDAWgBTotvZ2S9A75Ual+VTUfgez3g1gPjBkBggrBgEF
BQcBAQRYMFYwKQYIKwYBBQUHMAGGHWh0dHA6Ly9jYS5zb21lY2EtaW5jLmNvbS9v
Y3NwMCkGCCsGAQUFBzAChh1odHRwOi8vY2Euc29tZWNhLWluYy5jb20vcm9vdDAW
BgNVHREEDzANggtleGFtcGxlLm9yZzATBgNVHSAEDDAKMAgGBmeBDAECAjAtBgNV
HR8EJjAkMCKgIKAehhxodHRwOi8vY2Euc29tZWNhLWluYy5jb20vY3JsMAkGA1Ud
CQQCMAAwDQYJKoZIhvcNAQELBQADggEBAJw7QgqX/HQnOCweqF+6q4nKwrtqR0mT
O1nmUJ8VaYJKia8Xxzfv4O+Nu8goIUAUOs6JuNIypJGUXildE3JqOFDNQTTHHwp+
0U/gw8KsZ0/71cwkJbWF7t0fBkZypWPGzbly8bO1FMnaGonWfloPCYiF/hf09tVa
C1jIlG2OM+vGvCEKr4M+VO0Qsvkslce2fq6qCapu+a7AXBIvEs59Xk+9/Jb5s0o2
7egcyv34Wao2KxkdZOlnjPzoEFdN7AU2F0mMCDDL1V2qux6AQuJoBtcZ17/jXhH+
be9IU2xxbdLF+HPah5x7Iw6T7Iiph5w8+xnFurzbmT137vW6bkrVDpE=
-----END CERTIFICATE-----
