Certificate:
    Data:
        Version: 3 (0x2)
        Serial Number:
            fa:d3:51:b7:bb:c3:21:dd:b1:1d:d7:9d:ed:60:f4:6d
        Signature Algorithm: sha256WithRSAEncryption
        Issuer: C = XX, O = Some CA, CN = Fake CA for zlint testing
        Validity
            Not Before: Jun 15 13:22:04 2025 GMT
            Not After : Jun 15 13:22:04 2026 GMT
        Subject: C = SE, ST = G\C3\B6taland, L = G\C3\B6teborg, O = Some Company AB, CN = example.org
        Subject Public Key Info:
            Public Key Algorithm: rsaEncryption
                RSA Public-Key: (2048 bit)
                Modulus:
                    00:e7:4c:b4:7a:0e:7d:da:f1:f3:eb:ac:c6:bc:e2:
                    ca:db:cd:00:f6:18:49:39:ba:66:c9:35:96:ad:d1:
                    f7:a8:a1:c6:93:c6:78:ce:2f:bd:5f:dd:66:9c:af:
                    17:b3:8f:5f:8f:3f:20:73:3a:59:2a:64:e4:9f:34:
                    d0:ff:55:9c:58:41:cb:e5:45:41:91:47:41:e3:81:
                    cc:23:b9:22:43:64:70:70:cf:71:1c:f2:20:21:24:
                    66:04:ba:24:bb:89:c7:f2:6e:24:da:9a:20:07:5c:
                    51:f9:48:7c:10:d8:e8:bf:d2:93:d8:e0:69:da:09:
                    96:63:10:90:20:ba:28:6f:85:db:ff:d0:59:2c:30:
                    bf:33:ca:c8:e4:14:9e:74:f0:47:6d:c0:a6:e5:02:
                    a4:6c:f1:b9:be:5b:f9:d9:cb:f6:1d:d4:00:cb:27:
                    ae:3f:b9:c6:e7:67:b2:31:e4:6c:41:52:b0:df:86:
                    46:0d:bc:84:38:f6:a6:91:44:b4:7a:95:2a:d2:27:
                    8e:b0:13:d3:64:28:0f:36:79:1c:ec:2b:f0:a0:ae:
                    48:72:bc:93:ef:c0:72:24:3a:fe:bd:4b:70:5b:6c:
                    0f:85:ff:c4:69:86:f1:44:9e:de:9a:86:bd:5a:83:
                    6e:da:c7:85:fe:5c:d9:47:3d:a4:c2:85:fe:cf:2e:
                    8f:a3
                Exponent: 65537 (0x10001)
        X509v3 extensions:
            X509v3 Key Usage: critical
                Digital Signature, Key Encipherment
            X509v3 Extended Key Usage: 
                TLS Web Client Authentication, TLS Web Server Authentication
            X509v3 Subject Key Identifier: 
                BC:6E:6F:8D:3A:FB:BA:01:98:C2:B0:02:76:F8:97:37:60:F8:C8:04
            X509v3 Authority Key Identifier: 
                keyid:E8:B6:F6:76:4B:D0:3B:E5:46:A5:F9:54:D4:7E:07:B3:DE:0D:60:3E

            Authority Information Access: 
                OCSP - URI:http://ca.someca-inc.com/ocsp
                CA Issuers - URI:http://ca.someca-inc.com/root

            X509v3 Certificate Policies: 
                Policy: 2.23.140.1.2.2

            X509v3 CRL Distribution Points: 

                Full Name:
                  URI:http://ca.someca-inc.com/crl

            X509v3 Subject Alternative Name: 
                <EMPTY>

    Signature Algorithm: sha256WithRSAEncryption
         3d:92:54:00:5b:00:04:2f:2a:4b:11:52:58:8a:56:3d:fa:38:
         22:8d:17:47:30:3c:77:52:ff:ea:17:d8:15:55:2c:a5:31:7f:
         e0:e1:3f:3e:b4:d6:0b:b3:02:e5:d9:32:70:c8:41:a0:16:50:
         09:43:e2:dc:45:29:71:9d:5c:7f:e8:ed:cb:66:dd:14:68:ea:
         da:c0:be:3f:1e:fa:64:00:fd:0e:20:d5:a6:2b:0a:c4:f5:4b:
         fc:53:bd:21:52:77:52:07:84:85:b7:fa:de:02:6e:b0:d3:ea:
         58:b5:1f:9a:7c:e3:84:f5:87:1a:e0:5b:d9:ec:88:74:de:01:
         cc:05:42:ef:6e:6c:8d:b2:d2:32:80:9d:dd:82:f4:b7:42:25:
         d8:66:a4:15:47:60:eb:0d:db:5b:8e:c2:e9:30:30:8d:55:a1:
         66:19:20:dd:0c:78:51:20:c7:d7:7f:e4:08:41:6d:83:43:96:
         cd:83:84:e4:da:1e:db:72:5a:64:2f:95:32:b7:39:ed:03:6d:
         af:f4:86:11:77:67:dd:74:f7:ff:d8:27:a7:23:bd:29:0a:ad:
         c0:38:38:f6:27:38:80:37:91:5f:21:b1:47:84:de:22:aa:57:
         9f:a8:c1:0d:99:e8:6d:22:0a:97:35:66:61:8f:8a:a1:e7:6b:
         8b:5c:72:0f
-----BEGIN CERTIFICATE-----
MIIEXTCCA0WgAwIBAgIRAPrTUbe7wyHdsR3Xne1g9G0wDQYJKoZIhvcNAQELBQAw
QzELMAkGA1UEBhMCWFgxEDAOBgNVBAoTB1NvbWUgQ0ExIjAgBgNVBAMTGUZha2Ug
Q0EgZm9yIHpsaW50IHRlc3RpbmcwHhcNMjUwNjE1MTMyMjA0WhcNMjYwNjE1MTMy
MjA0WjBlMQswCQYDVQQGEwJTRTESMBAGA1UECAwJR8O2dGFsYW5kMRIwEAYDVQQH
DAlHw7Z0ZWJvcmcxGDAWBgNVBAoTD1NvbWUgQ29tcGFueSBBQjEUMBIGA1UEAxML
ZXhhbXBsZS5vcmcwggEiMA0GCSqGSIb3DQEBAQUAA4IBDwAwggEKAoIBAQDnTLR6
Dn3a8fPrrMa84srbzQD2GEk5umbJNZat0feoocaTxnjOL71f3Wacrxezj1+PPyBz
OlkqZOSfNND/VZxYQcvlRUGRR0HjgcwjuSJDZHBwz3Ec8iAhJGYEuiS7icfybiTa
miAHXFH5SHwQ2Oi/0pPY4GnaCZZjEJAguihvhdv/0FksML8zysjkFJ508EdtwKbl
AqRs8bm+W/nZy/Yd1ADLJ64/ucbnZ7Ix5GxBUrDfhkYNvIQ49qaRRLR6lSrSJ46w
E9NkKA82eRzsK/CgrkhyvJPvwHIkOv69S3BbbA+F/8RphvFEnt6ahr1ag27ax4X+
XNlHPaTChf7PLo+jAgMBAAGjggEoMIIBJDAOBgNVHQ8BAf8EBAMCBaAwHQYDVR0l
BBYwFAYIKwYBBQUHAwIGCCsGAQUFBwMBMB0GA1UdDgQWBBS8bm+NOvu6AZjCsAJ2
+Jc3YPjIBDAfBgNVHSMEGDAWgBTotvZ2S9A75Ual+VTUfgez3g1gPjBkBggrBgEF
BQcBAQRYMFYwKQYIKwYBBQUHMAGGHWh0dHA6Ly9jYS5zb21lY2EtaW5jLmNvbS9v
Y3NwMCkGCCsGAQUFBzAChh1odHRwOi8vY2Euc29tZWNhLWluYy5jb20vcm9vdDAT
BgNVHSAEDDAKMAgGBmeBDAECAjAtBgNVHR8EJjAkMCKgIKAehhxodHRwOi8vY2Eu
c29tZWNhLWluYy5jb20vY3JsMAkGA1UdEQQCMAAwDQYJKoZIhvcNAQELBQADggEB
AD2SVABbAAQvKksRUliKVj36OCKNF0cwPHdS/+oX2BVVLKUxf+DhPz601guzAuXZ
MnDIQaAWUAlD4txFKXGdXH/o7ctm3RRo6trAvj8e+mQA/Q4g1aYrCsT1S/xTvSFS
d1IHhIW3+t4CbrDT6li1H5p844T1hxrgW9nsiHTeAcwFQu9ubI2y0jKAnd2C9LdC
JdhmpBVHYOsN21uOwukwMI1VoWYZIN0MeFEgx9d/5AhBbYNDls2DhOTaHttyWmQv
lTK3Oe0Dba/0hhF3Z9109//YJ6cjvSkKrcA4OPYnOIA3kV8hsUeE3iKqV5+owQ2Z
6G0iCpc1ZmGPiqHna4tccg8=
-----END CERTIFICATE-----
