Certificate:
    Data:
        Version: 3 (0x2)
        Serial Number:
            85:74:a7:82:8c:9e:37:4d:ff:68:09:28:3a:10:be:b0
        Signature Algorithm: sha256WithRSAEncryption
        Issuer: C = XX, O = Some CA, CN = Fake CA for zlint testing
        Validity
            Not Before: Apr 29 07:32:42 2024 GMT
            Not After : Apr 29 07:32:42 2025 GMT
        Subject: C = IT, ST = Some State or Province, L = Somewhere, O = Some Company Ltd., CN = example.org
        Subject Public Key Info:
            Public Key Algorithm: rsaEncryption
                RSA Public-Key: (2048 bit)
                Modulus:
                    00:c9:f6:cb:84:c2:39:69:2d:4b:f1:90:18:15:62:
                    bf:4d:b2:0b:86:e4:fa:c2:15:7d:06:29:5c:2c:4e:
                    9b:8c:17:60:6c:49:18:46:7e:01:f2:a8:31:71:45:
                    5b:e9:52:b1:22:15:8b:7c:64:84:90:ad:61:55:b8:
                    90:07:a4:4c:70:cb:a1:d4:bd:c4:d5:6f:73:3f:30:
                    53:1b:85:5c:7b:0b:ed:4a:d2:2d:1e:3f:f7:57:6a:
                    ad:49:89:d5:7f:b6:83:02:52:c7:cc:b5:68:42:20:
                    69:84:7e:f6:a1:79:26:3e:21:57:16:93:47:08:0b:
                    54:4b:b4:db:a8:59:0f:ea:af:ea:68:7d:b4:5d:f4:
                    bd:22:f8:8d:f2:c7:ec:38:ca:3f:a9:79:e8:c0:b3:
                    77:1f:87:3d:e2:52:44:9f:0e:98:07:a3:56:35:c9:
                    12:57:9c:95:2c:a1:e4:71:64:26:13:83:3b:29:8c:
                    1d:7a:f0:fa:1b:81:c5:ac:b1:cd:51:99:7d:46:0d:
                    d8:3e:f4:d5:90:d4:5f:16:db:85:84:2b:d0:42:8f:
                    85:8a:9b:85:39:0c:df:19:5a:b9:d9:ab:a0:0f:22:
                    64:2b:90:88:1b:a1:6f:42:e7:66:a3:c0:2a:88:d4:
                    c6:40:5f:49:df:a9:85:5b:7b:e7:72:64:80:8d:4d:
                    65:95
                Exponent: 65537 (0x10001)
        X509v3 extensions:
            X509v3 Key Usage: critical
                Digital Signature, Key Encipherment
            X509v3 Extended Key Usage: 
                TLS Web Client Authentication, TLS Web Server Authentication
            X509v3 Subject Key Identifier: 
                07:23:84:22:FA:B0:66:0F:62:49:26:90:FE:0B:E8:33:1B:5B:82:01
            X509v3 Authority Key Identifier: 
                keyid:E8:B6:F6:76:4B:D0:3B:E5:46:A5:F9:54:D4:7E:07:B3:DE:0D:60:3E

            Authority Information Access: 
                OCSP - URI:http://ca.someca-inc.com/ocsp
                CA Issuers - URI:http://ca.someca-inc.com/root

            X509v3 Subject Alternative Name: 
                DNS:example.org
            X509v3 CRL Distribution Points: 

                Full Name:
                  URI:http://ca.someca-inc.com/crl

            CT Precertificate Poison: critical
                NULL
    Signature Algorithm: sha256WithRSAEncryption
         08:6d:c4:48:6f:4b:e9:a4:8c:f0:0a:0b:33:7c:45:14:e1:1c:
         81:ec:54:67:e2:5f:94:57:61:11:86:b7:c1:80:4c:c0:70:a1:
         7f:1e:58:7e:4e:09:b2:8a:3a:d4:b1:fd:63:8a:d7:61:2e:bc:
         60:72:04:af:68:66:a5:bd:45:52:9d:e3:43:64:5a:ff:48:48:
         c4:e2:62:f3:e9:a3:f7:3a:32:f5:e3:85:d7:4e:99:f0:2e:3a:
         a2:43:09:51:43:8b:80:f7:34:16:b8:1a:57:fb:8b:d0:3d:e2:
         73:12:42:a6:eb:4a:ca:5c:21:6e:1b:cf:5b:cb:5b:2e:d3:0b:
         c7:01:6c:0b:a7:81:24:61:7c:7c:f4:b7:d3:4b:e4:ec:04:71:
         97:d2:68:55:b1:ef:a7:2b:ce:ac:2e:bf:23:fa:31:ff:86:c6:
         82:ab:87:b8:2e:92:66:46:44:5a:bb:aa:09:8b:f1:4c:75:f7:
         45:79:9a:25:5f:42:2a:61:7b:5e:d8:50:5f:37:8b:66:ee:0d:
         dc:f0:f1:2b:08:24:93:bd:33:3f:06:48:d8:78:ac:cd:5c:92:
         ab:a5:78:59:b0:14:26:f9:42:91:4c:fb:a1:fc:de:1b:18:51:
         66:26:d5:86:f9:13:00:24:22:e3:27:29:49:9e:36:f6:b1:87:
         89:82:14:a5
-----BEGIN CERTIFICATE-----
MIIEeTCCA2GgAwIBAgIRAIV0p4KMnjdN/2gJKDoQvrAwDQYJKoZIhvcNAQELBQAw
QzELMAkGA1UEBhMCWFgxEDAOBgNVBAoTB1NvbWUgQ0ExIjAgBgNVBAMTGUZha2Ug
Q0EgZm9yIHpsaW50IHRlc3RpbmcwHhcNMjQwNDI5MDczMjQyWhcNMjUwNDI5MDcz
MjQyWjB0MQswCQYDVQQGEwJJVDEfMB0GA1UECBMWU29tZSBTdGF0ZSBvciBQcm92
aW5jZTESMBAGA1UEBxMJU29tZXdoZXJlMRowGAYDVQQKExFTb21lIENvbXBhbnkg
THRkLjEUMBIGA1UEAxMLZXhhbXBsZS5vcmcwggEiMA0GCSqGSIb3DQEBAQUAA4IB
DwAwggEKAoIBAQDJ9suEwjlpLUvxkBgVYr9NsguG5PrCFX0GKVwsTpuMF2BsSRhG
fgHyqDFxRVvpUrEiFYt8ZISQrWFVuJAHpExwy6HUvcTVb3M/MFMbhVx7C+1K0i0e
P/dXaq1JidV/toMCUsfMtWhCIGmEfvaheSY+IVcWk0cIC1RLtNuoWQ/qr+pofbRd
9L0i+I3yx+w4yj+peejAs3cfhz3iUkSfDpgHo1Y1yRJXnJUsoeRxZCYTgzspjB16
8PobgcWssc1RmX1GDdg+9NWQ1F8W24WEK9BCj4WKm4U5DN8ZWrnZq6APImQrkIgb
oW9C52ajwCqI1MZAX0nfqYVbe+dyZICNTWWVAgMBAAGjggE1MIIBMTAOBgNVHQ8B
Af8EBAMCBaAwHQYDVR0lBBYwFAYIKwYBBQUHAwIGCCsGAQUFBwMBMB0GA1UdDgQW
BBQHI4Qi+rBmD2JJJpD+C+gzG1uCATAfBgNVHSMEGDAWgBTotvZ2S9A75Ual+VTU
fgez3g1gPjBkBggrBgEFBQcBAQRYMFYwKQYIKwYBBQUHMAGGHWh0dHA6Ly9jYS5z
b21lY2EtaW5jLmNvbS9vY3NwMCkGCCsGAQUFBzAChh1odHRwOi8vY2Euc29tZWNh
LWluYy5jb20vcm9vdDAWBgNVHREEDzANggtleGFtcGxlLm9yZzAtBgNVHR8EJjAk
MCKgIKAehhxodHRwOi8vY2Euc29tZWNhLWluYy5jb20vY3JsMBMGCisGAQQB1nkC
BAMBAf8EAgUAMA0GCSqGSIb3DQEBCwUAA4IBAQAIbcRIb0vppIzwCgszfEUU4RyB
7FRn4l+UV2ERhrfBgEzAcKF/Hlh+TgmyijrUsf1jitdhLrxgcgSvaGalvUVSneND
ZFr/SEjE4mLz6aP3OjL144XXTpnwLjqiQwlRQ4uA9zQWuBpX+4vQPeJzEkKm60rK
XCFuG89by1su0wvHAWwLp4EkYXx89LfTS+TsBHGX0mhVse+nK86sLr8j+jH/hsaC
q4e4LpJmRkRau6oJi/FMdfdFeZolX0IqYXte2FBfN4tm7g3c8PErCCSTvTM/BkjY
eKzNXJKrpXhZsBQm+UKRTPuh/N4bGFFmJtWG+RMAJCLjJylJnjb2sYeJghSl
-----END CERTIFICATE-----
