Certificate:
    Data:
        Version: 3 (0x2)
        Serial Number:
            d0:65:50:3e:14:45:a2:9d:ae:37:fb:b0:d2:a1:cf:67
        Signature Algorithm: sha256WithRSAEncryption
        Issuer: C = XX, O = Some CA, CN = Fake CA for zlint testing
        Validity
            Not Before: Jun 15 13:27:56 2025 GMT
            Not After : Jun 15 13:27:56 2026 GMT
        Subject: C = SE, ST = G\C3\B6taland, L = G\C3\B6teborg, O = Some Company AB, CN = example.org
        Subject Public Key Info:
            Public Key Algorithm: rsaEncryption
                RSA Public-Key: (2048 bit)
                Modulus:
                    00:c9:21:69:6a:0c:05:f1:e8:5b:9f:80:05:23:3b:
                    2a:b1:73:c7:57:80:f0:a2:6f:86:85:3f:c0:72:ea:
                    f1:1d:3d:0a:38:1f:1e:6f:ae:0b:23:aa:63:2f:e9:
                    e8:14:68:14:7a:ae:a5:69:42:88:7f:7b:38:e3:61:
                    e2:fb:ea:87:5b:5c:37:c2:44:fe:71:4c:e0:bb:d5:
                    a8:8b:97:63:3e:51:9f:09:41:ea:dc:17:b7:50:e1:
                    9e:28:14:bd:12:49:dd:bf:b9:5a:f5:fd:46:68:46:
                    a5:23:c8:2f:cb:ef:61:89:3f:26:d4:12:2d:8b:ea:
                    d3:88:c1:04:f1:f1:34:a6:cb:88:65:e4:5b:d4:03:
                    69:2f:f0:d4:52:c4:7d:82:43:ca:b9:a4:db:6b:6b:
                    10:62:68:b5:d6:f4:b6:be:6c:56:e6:aa:48:38:57:
                    95:f7:9d:f7:b8:da:6f:f6:70:a5:8d:b6:96:31:5e:
                    31:2c:d8:21:55:67:30:cf:2b:66:8f:36:55:49:23:
                    58:0b:10:2b:23:ea:ce:48:c7:98:0c:14:6d:7a:55:
                    02:a6:6a:9d:71:f3:0b:ec:af:0b:17:3a:9f:36:eb:
                    84:c0:c8:3c:1d:d2:0e:76:1d:2f:9f:45:56:0c:da:
                    e6:63:d7:be:50:8a:82:33:9a:e4:80:d7:52:26:17:
                    71:fb
                Exponent: 65537 (0x10001)
        X509v3 extensions:
            X509v3 Key Usage: critical
                Digital Signature, Key Encipherment
            X509v3 Extended Key Usage: 
                TLS Web Client Authentication, TLS Web Server Authentication
            X509v3 Subject Key Identifier: 
                8F:1C:40:B0:14:F2:C8:BC:CA:34:0D:85:97:5A:62:6A:2F:4E:55:BB
            X509v3 Authority Key Identifier: 
                keyid:E8:B6:F6:76:4B:D0:3B:E5:46:A5:F9:54:D4:7E:07:B3:DE:0D:60:3E

            Authority Information Access: 
                OCSP - URI:http://ca.someca-inc.com/ocsp
                CA Issuers - URI:http://ca.someca-inc.com/root

            X509v3 Subject Alternative Name: 
                DNS:example.org
            X509v3 Certificate Policies: 
                Policy: 2.23.140.1.2.2

            X509v3 CRL Distribution Points: 

                Full Name:
                  URI:http://ca.someca-inc.com/crl

            Subject Information Access: 
                <EMPTY>

    Signature Algorithm: sha256WithRSAEncryption
         a9:b7:18:b0:45:7c:f6:af:df:b3:f2:40:62:48:3c:e6:08:f4:
         66:3f:e3:ff:2d:78:fc:57:39:ef:e2:65:4f:c3:9d:d1:2c:ae:
         07:27:f5:41:00:2c:09:c6:03:63:ad:45:6e:7d:06:95:67:dc:
         6f:53:6c:e8:48:39:be:5d:a8:17:f9:59:a0:66:02:6a:dd:b1:
         a1:c2:40:2c:97:2b:df:9e:9c:10:c7:42:32:8f:55:bd:43:08:
         df:74:91:be:c4:e0:f3:55:9e:89:3c:bd:76:02:a4:f3:e9:96:
         f4:6b:b2:d2:95:70:97:09:38:c6:4e:c4:4b:79:a0:9c:0b:42:
         10:cb:6a:f4:1d:83:25:29:92:fe:b3:df:e9:21:81:47:09:0a:
         d9:d6:e0:ef:17:08:d9:f8:4c:1a:7f:9f:2b:2f:7e:0c:8e:81:
         31:21:f0:de:b0:63:3c:45:51:df:77:d4:62:66:2b:69:d7:7a:
         ea:28:34:ae:d5:88:e2:71:f3:6b:fa:47:6c:3e:78:34:ac:99:
         51:8e:93:3a:ce:17:86:56:5f:48:9f:bb:4c:c0:d6:83:82:68:
         17:3d:c8:64:1f:03:a6:7f:0d:cc:9e:57:7e:9c:0e:b1:08:14:
         6b:68:0e:0c:ab:c3:13:02:5f:3d:1e:ea:34:a5:d3:b6:aa:7a:
         6b:d1:fe:36
-----BEGIN CERTIFICATE-----
MIIEejCCA2KgAwIBAgIRANBlUD4URaKdrjf7sNKhz2cwDQYJKoZIhvcNAQELBQAw
QzELMAkGA1UEBhMCWFgxEDAOBgNVBAoTB1NvbWUgQ0ExIjAgBgNVBAMTGUZha2Ug
Q0EgZm9yIHpsaW50IHRlc3RpbmcwHhcNMjUwNjE1MTMyNzU2WhcNMjYwNjE1MTMy
NzU2WjBlMQswCQYDVQQGEwJTRTESMBAGA1UECAwJR8O2dGFsYW5kMRIwEAYDVQQH
DAlHw7Z0ZWJvcmcxGDAWBgNVBAoTD1NvbWUgQ29tcGFueSBBQjEUMBIGA1UEAxML
ZXhhbXBsZS5vcmcwggEiMA0GCSqGSIb3DQEBAQUAA4IBDwAwggEKAoIBAQDJIWlq
DAXx6FufgAUjOyqxc8dXgPCib4aFP8By6vEdPQo4Hx5vrgsjqmMv6egUaBR6rqVp
Qoh/ezjjYeL76odbXDfCRP5xTOC71aiLl2M+UZ8JQercF7dQ4Z4oFL0SSd2/uVr1
/UZoRqUjyC/L72GJPybUEi2L6tOIwQTx8TSmy4hl5FvUA2kv8NRSxH2CQ8q5pNtr
axBiaLXW9La+bFbmqkg4V5X3nfe42m/2cKWNtpYxXjEs2CFVZzDPK2aPNlVJI1gL
ECsj6s5Ix5gMFG16VQKmap1x8wvsrwsXOp8264TAyDwd0g52HS+fRVYM2uZj175Q
ioIzmuSA11ImF3H7AgMBAAGjggFFMIIBQTAOBgNVHQ8BAf8EBAMCBaAwHQYDVR0l
BBYwFAYIKwYBBQUHAwIGCCsGAQUFBwMBMB0GA1UdDgQWBBSPHECwFPLIvMo0DYWX
WmJqL05VuzAfBgNVHSMEGDAWgBTotvZ2S9A75Ual+VTUfgez3g1gPjBkBggrBgEF
BQcBAQRYMFYwKQYIKwYBBQUHMAGGHWh0dHA6Ly9jYS5zb21lY2EtaW5jLmNvbS9v
Y3NwMCkGCCsGAQUFBzAChh1odHRwOi8vY2Euc29tZWNhLWluYy5jb20vcm9vdDAW
BgNVHREEDzANggtleGFtcGxlLm9yZzATBgNVHSAEDDAKMAgGBmeBDAECAjAtBgNV
HR8EJjAkMCKgIKAehhxodHRwOi8vY2Euc29tZWNhLWluYy5jb20vY3JsMA4GCCsG
AQUFBwELBAIwADANBgkqhkiG9w0BAQsFAAOCAQEAqbcYsEV89q/fs/JAYkg85gj0
Zj/j/y14/Fc57+JlT8Od0SyuByf1QQAsCcYDY61Fbn0GlWfcb1Ns6Eg5vl2oF/lZ
oGYCat2xocJALJcr356cEMdCMo9VvUMI33SRvsTg81WeiTy9dgKk8+mW9Guy0pVw
lwk4xk7ES3mgnAtCEMtq9B2DJSmS/rPf6SGBRwkK2dbg7xcI2fhMGn+fKy9+DI6B
MSHw3rBjPEVR33fUYmYradd66ig0rtWI4nHza/pHbD54NKyZUY6TOs4XhlZfSJ+7
TMDWg4JoFz3IZB8Dpn8NzJ5XfpwOsQgUa2gODKvDEwJfPR7qNKXTtqp6a9H+Ng==
-----END CERTIFICATE-----
