Certificate:
    Data:
        Version: 3 (0x2)
        Serial Number:
            f4:e0:73:3f:6b:8c:f9:95:e7:9e:d6:69:46:2c:31:6f
        Signature Algorithm: sha256WithRSAEncryption
        Issuer: C = XX, O = Some CA, CN = Fake CA for zlint testing
        Validity
            Not Before: Apr 29 06:56:35 2024 GMT
            Not After : Apr 29 06:56:35 2025 GMT
        Subject: C = IT, ST = Some State or Province, L = Somewhere, O = Some Company Ltd., CN = example.org
        Subject Public Key Info:
            Public Key Algorithm: rsaEncryption
                RSA Public-Key: (2048 bit)
                Modulus:
                    00:b9:91:c7:f2:c2:62:be:cd:00:d5:70:1b:2f:ef:
                    4c:52:d9:59:a7:f2:68:15:a4:6f:94:37:45:3b:1b:
                    0b:4b:83:ff:9d:84:76:b6:0b:21:a4:5d:4d:2a:35:
                    aa:71:b4:d5:6b:f9:69:ce:6e:a0:4d:16:6a:31:e9:
                    4b:2b:66:44:74:df:81:81:bd:0f:b1:4e:df:1f:24:
                    f2:8a:8c:91:34:64:1f:ac:16:ca:54:fc:1f:4b:49:
                    44:1a:3a:c3:1a:09:4a:19:d6:3a:e9:8f:3a:e1:e8:
                    47:2c:98:8e:c4:4b:9f:51:fd:00:a6:68:1d:11:b9:
                    c3:08:be:c6:96:47:f4:2b:61:dd:25:b1:62:f7:e3:
                    8e:a9:12:ed:ae:c0:21:bc:38:09:70:e0:6e:32:f3:
                    ed:65:bf:9d:ee:8b:e3:45:0e:ab:c9:03:c2:62:b3:
                    3b:82:b3:55:3f:fb:d9:ab:a5:f9:f3:83:2d:e2:22:
                    6d:86:e9:3e:b3:9b:9e:62:6d:31:5f:a0:2e:d4:14:
                    61:40:5c:60:53:93:2d:c2:69:70:be:17:d9:b4:25:
                    a7:a0:c8:30:db:15:f1:69:0f:20:ea:e3:11:5f:f3:
                    7d:a3:aa:f3:a1:96:5f:8b:90:d1:38:a5:ea:9c:81:
                    85:24:ff:6d:33:d7:d8:af:7e:63:55:85:af:60:be:
                    e9:d5
                Exponent: 65537 (0x10001)
        X509v3 extensions:
            X509v3 Key Usage: critical
                Digital Signature, Key Encipherment
            X509v3 Extended Key Usage: 
                TLS Web Client Authentication, TLS Web Server Authentication
            X509v3 Subject Key Identifier: 
                69:E0:A8:FB:6C:3E:6D:A8:77:9E:47:C4:44:20:91:C8:24:71:14:40
            X509v3 Authority Key Identifier: 
                keyid:E8:B6:F6:76:4B:D0:3B:E5:46:A5:F9:54:D4:7E:07:B3:DE:0D:60:3E

            Authority Information Access: 
                OCSP - URI:http://ca.someca-inc.com/ocsp
                CA Issuers - URI:http://ca.someca-inc.com/root

            X509v3 Subject Alternative Name: 
                DNS:example.org
            X509v3 Certificate Policies: 
                Policy: 2.23.140.1.2.2

            X509v3 CRL Distribution Points: 

                Full Name:
                  URI:http://ca.someca-inc.com/crl

            CT Precertificate SCTs: 
                Signed Certificate Timestamp:
                    Version   : v1 (0x0)
                    Log ID    : B7:3E:FB:24:DF:9C:4D:BA:75:F2:39:C5:BA:58:F4:6C:
                                5D:FC:42:CF:7A:9F:35:C4:9E:1D:09:81:25:ED:B4:99
                    Timestamp : Feb 16 23:48:16.194 2023 GMT
                    Extensions: none
                    Signature : ecdsa-with-SHA256
                                30:45:02:20:71:A9:CF:F3:7B:85:D8:FB:AE:8E:E6:51:
                                9A:73:1B:43:55:80:37:02:5D:81:4E:D9:57:B4:30:92:
                                D3:2E:F0:0C:02:21:00:C0:F3:25:A9:38:F0:D2:29:89:
                                B6:9E:74:05:43:33:E0:3B:EB:16:8B:E8:F1:F2:35:C2:
                                C8:87:FE:50:5A:44:2B
                Signed Certificate Timestamp:
                    Version   : v1 (0x0)
                    Log ID    : AD:F7:BE:FA:7C:FF:10:C8:8B:9D:3D:9C:1E:3E:18:6A:
                                B4:67:29:5D:CF:B1:0C:24:CA:85:86:34:EB:DC:82:8A
                    Timestamp : Feb 16 23:48:16.223 2023 GMT
                    Extensions: none
                    Signature : ecdsa-with-SHA256
                                30:45:02:20:5A:59:95:CA:3D:67:45:EC:6F:D8:5C:E2:
                                A1:0D:C7:68:CC:BF:C2:29:9B:64:DF:B4:19:0A:79:8D:
                                F6:EA:9C:22:02:21:00:CC:FA:2B:B0:25:0D:1B:17:D6:
                                41:91:52:7C:D5:AF:B1:C9:35:FC:CC:2A:A6:8B:CC:66:
                                06:DD:5A:2A:C2:A5:86
    Signature Algorithm: sha256WithRSAEncryption
         50:f3:35:88:4f:96:c4:ae:de:e9:5d:72:73:1e:55:29:69:85:
         45:f3:d9:91:e5:32:97:29:08:67:0f:b7:68:16:62:b6:5c:f2:
         b2:7c:70:74:4a:3f:ff:13:45:1e:d3:72:0a:a6:8e:3b:c7:f1:
         d2:95:b9:8a:ca:39:76:99:99:be:0c:b2:d9:4e:7d:f6:bb:56:
         f9:43:7b:71:6f:44:72:25:52:e4:bb:98:d3:6e:46:59:ca:b3:
         f2:af:42:a9:92:35:ba:7f:34:dc:44:7a:be:ab:cc:4f:0b:8d:
         ce:64:31:5e:84:36:e3:a8:53:23:28:be:08:74:10:90:16:a5:
         14:ca:2e:86:36:dd:87:76:df:10:d6:bf:64:e5:43:72:ab:be:
         6f:71:b2:eb:35:2c:fd:4f:03:db:04:dc:48:0e:b1:f5:1d:05:
         45:35:74:97:5d:5a:75:a8:66:94:4f:eb:c4:82:ef:99:d7:e0:
         81:99:9e:af:bd:be:ec:08:80:48:53:9e:30:38:d3:75:da:3e:
         33:6b:88:57:33:1e:ed:cf:70:c9:08:ec:38:30:3b:02:d3:1e:
         e2:ca:3f:6a:47:c8:bd:00:ee:9d:2a:9c:90:79:44:09:04:34:
         11:64:22:e9:6d:2d:b2:94:44:c6:1e:82:56:83:f3:62:01:b0:
         59:ee:4a:42
-----BEGIN CERTIFICATE-----
MIIFgTCCBGmgAwIBAgIRAPTgcz9rjPmV557WaUYsMW8wDQYJKoZIhvcNAQELBQAw
QzELMAkGA1UEBhMCWFgxEDAOBgNVBAoTB1NvbWUgQ0ExIjAgBgNVBAMTGUZha2Ug
Q0EgZm9yIHpsaW50IHRlc3RpbmcwHhcNMjQwNDI5MDY1NjM1WhcNMjUwNDI5MDY1
NjM1WjB0MQswCQYDVQQGEwJJVDEfMB0GA1UECBMWU29tZSBTdGF0ZSBvciBQcm92
aW5jZTESMBAGA1UEBxMJU29tZXdoZXJlMRowGAYDVQQKExFTb21lIENvbXBhbnkg
THRkLjEUMBIGA1UEAxMLZXhhbXBsZS5vcmcwggEiMA0GCSqGSIb3DQEBAQUAA4IB
DwAwggEKAoIBAQC5kcfywmK+zQDVcBsv70xS2Vmn8mgVpG+UN0U7GwtLg/+dhHa2
CyGkXU0qNapxtNVr+WnObqBNFmox6UsrZkR034GBvQ+xTt8fJPKKjJE0ZB+sFspU
/B9LSUQaOsMaCUoZ1jrpjzrh6EcsmI7ES59R/QCmaB0RucMIvsaWR/QrYd0lsWL3
446pEu2uwCG8OAlw4G4y8+1lv53ui+NFDqvJA8JiszuCs1U/+9mrpfnzgy3iIm2G
6T6zm55ibTFfoC7UFGFAXGBTky3CaXC+F9m0JaegyDDbFfFpDyDq4xFf832jqvOh
ll+LkNE4peqcgYUk/20z19ivfmNVha9gvunVAgMBAAGjggI9MIICOTAOBgNVHQ8B
Af8EBAMCBaAwHQYDVR0lBBYwFAYIKwYBBQUHAwIGCCsGAQUFBwMBMB0GA1UdDgQW
BBRp4Kj7bD5tqHeeR8REIJHIJHEUQDAfBgNVHSMEGDAWgBTotvZ2S9A75Ual+VTU
fgez3g1gPjBkBggrBgEFBQcBAQRYMFYwKQYIKwYBBQUHMAGGHWh0dHA6Ly9jYS5z
b21lY2EtaW5jLmNvbS9vY3NwMCkGCCsGAQUFBzAChh1odHRwOi8vY2Euc29tZWNh
LWluYy5jb20vcm9vdDAWBgNVHREEDzANggtleGFtcGxlLm9yZzATBgNVHSAEDDAK
MAgGBmeBDAECAjAtBgNVHR8EJjAkMCKgIKAehhxodHRwOi8vY2Euc29tZWNhLWlu
Yy5jb20vY3JsMIIBBAYKKwYBBAHWeQIEAgSB9QSB8gDwAHYAtz77JN+cTbp18jnF
ulj0bF38Qs96nzXEnh0JgSXttJkAAAGGXKDuwgAABAMARzBFAiBxqc/ze4XY+66O
5lGacxtDVYA3Al2BTtlXtDCS0y7wDAIhAMDzJak48NIpibaedAVDM+A76xaL6PHy
NcLIh/5QWkQrAHYArfe++nz/EMiLnT2cHj4YarRnKV3PsQwkyoWGNOvcgooAAAGG
XKDu3wAABAMARzBFAiBaWZXKPWdF7G/YXOKhDcdozL/CKZtk37QZCnmN9uqcIgIh
AMz6K7AlDRsX1kGRUnzVr7HJNfzMKqaLzGYG3VoqwqWGMA0GCSqGSIb3DQEBCwUA
A4IBAQBQ8zWIT5bErt7pXXJzHlUpaYVF89mR5TKXKQhnD7doFmK2XPKyfHB0Sj//
E0Ue03IKpo47x/HSlbmKyjl2mZm+DLLZTn32u1b5Q3txb0RyJVLku5jTbkZZyrPy
r0KpkjW6fzTcRHq+q8xPC43OZDFehDbjqFMjKL4IdBCQFqUUyi6GNt2Hdt8Q1r9k
5UNyq75vcbLrNSz9TwPbBNxIDrH1HQVFNXSXXVp1qGaUT+vEgu+Z1+CBmZ6vvb7s
CIBIU54wONN12j4za4hXMx7tz3DJCOw4MDsC0x7iyj9qR8i9AO6dKpyQeUQJBDQR
ZCLpbS2ylETGHoJWg/NiAbBZ7kpC
-----END CERTIFICATE-----
