Certificate:
    Data:
        Version: 3 (0x2)
        Serial Number:
            37:53:f1:6c:e2:de:6d:4b:50:e9:07:60:f1:13:54:5c
        Signature Algorithm: sha256WithRSAEncryption
        Issuer: C = XX, O = Some CA, CN = Fake CA for zlint testing
        Validity
            Not Before: Jun 15 13:19:06 2025 GMT
            Not After : Jun 15 13:19:06 2026 GMT
        Subject: C = SE, ST = G\C3\B6taland, L = G\C3\B6teborg, O = Some Company AB, CN = example.org
        Subject Public Key Info:
            Public Key Algorithm: rsaEncryption
                RSA Public-Key: (2048 bit)
                Modulus:
                    00:b6:cb:a5:37:85:96:d1:49:cc:1f:9b:77:5d:6a:
                    c4:d9:15:36:34:0b:d6:55:41:e2:85:25:95:9e:73:
                    6f:55:bb:83:48:13:e1:0e:9d:63:8d:28:56:5c:a9:
                    8a:b8:e5:4f:b1:8b:d4:92:f0:b8:a9:dc:bc:5a:89:
                    fa:34:fc:8b:58:7d:bf:a0:93:a6:ca:66:13:0e:dc:
                    29:b9:c2:a0:60:72:3a:f8:38:d9:38:d3:b0:3e:07:
                    8c:08:40:da:8e:18:13:e5:fe:e1:14:5c:cd:f7:95:
                    52:ed:b9:eb:53:24:e8:e3:ac:ff:04:0c:d4:45:3c:
                    53:13:16:4d:79:5f:fd:9b:41:cd:e4:db:7a:aa:d0:
                    ae:f6:d5:13:0a:54:00:4e:41:8d:e8:a3:cb:97:3e:
                    91:ec:c0:85:d9:f6:70:e5:2c:c0:44:8a:96:bb:90:
                    fb:25:7f:44:14:a9:7c:20:e6:ef:e3:39:22:c2:18:
                    5e:4a:04:8f:f9:04:cf:45:2e:b0:1c:ed:99:c3:bd:
                    63:c5:3f:bf:62:88:d2:7a:57:8f:a2:13:02:ed:2c:
                    f8:22:44:18:c4:80:d0:89:f1:2b:8c:68:8b:41:20:
                    66:ca:2e:e1:b7:26:58:b6:d8:31:5e:21:44:00:9c:
                    7f:98:56:ec:53:89:d7:57:58:07:6c:45:da:e6:5d:
                    2e:81
                Exponent: 65537 (0x10001)
        X509v3 extensions:
            X509v3 Key Usage: critical
                Digital Signature, Key Encipherment
            X509v3 Extended Key Usage: 
                TLS Web Client Authentication, TLS Web Server Authentication
            X509v3 Subject Key Identifier: 
                F0:18:A0:9F:38:92:49:FD:40:3E:5C:86:55:0B:70:0E:D5:EA:EA:46
            X509v3 Authority Key Identifier: 
                keyid:E8:B6:F6:76:4B:D0:3B:E5:46:A5:F9:54:D4:7E:07:B3:DE:0D:60:3E

            Authority Information Access: 
                OCSP - URI:http://ca.someca-inc.com/ocsp
                CA Issuers - URI:http://ca.someca-inc.com/root

            X509v3 Subject Alternative Name: 
                DNS:example.org
            X509v3 CRL Distribution Points: 

                Full Name:
                  URI:http://ca.someca-inc.com/crl

            X509v3 Certificate Policies: 

    Signature Algorithm: sha256WithRSAEncryption
         7b:ee:a3:f2:b8:3b:57:f5:18:3a:45:03:57:b7:1f:60:86:e9:
         a9:2a:4f:56:50:a8:ab:5d:a3:96:da:b2:1b:2e:9c:78:33:1a:
         0a:67:c9:10:a2:53:57:ac:00:d2:71:88:15:3a:8f:8d:13:40:
         ba:42:3d:b3:14:02:e9:1d:5c:f3:57:51:a7:37:21:19:91:bc:
         67:20:8e:df:01:ca:be:60:fc:12:aa:a9:86:6a:32:f3:52:9f:
         a1:5b:1f:eb:f8:08:a0:0d:4e:bb:d6:ba:fb:37:f9:b7:ab:4c:
         b7:99:fb:90:a3:cb:29:8f:ab:24:49:a8:6a:9e:65:b2:52:bb:
         74:0d:c8:98:09:3f:e5:00:d9:e3:49:47:d4:57:be:c6:ce:db:
         f9:56:86:22:4f:27:45:85:52:38:4f:ac:24:14:db:9f:03:25:
         81:2b:89:2e:92:7a:74:d9:e9:c7:0e:93:ea:2b:41:73:81:ec:
         bd:45:37:d9:57:3c:37:48:b2:b2:8b:9f:56:aa:76:0e:a3:61:
         8c:a5:01:aa:6d:8d:bc:ca:e1:07:a2:57:fa:ae:f7:63:75:18:
         ef:e2:c8:82:f6:ef:0f:29:01:1f:60:ed:89:1d:33:ad:27:64:
         04:b2:3e:6c:3c:ba:be:0c:20:fb:ba:ba:84:6b:b1:0a:66:06:
         87:34:5f:b6
-----BEGIN CERTIFICATE-----
MIIEXzCCA0egAwIBAgIQN1PxbOLebUtQ6Qdg8RNUXDANBgkqhkiG9w0BAQsFADBD
MQswCQYDVQQGEwJYWDEQMA4GA1UEChMHU29tZSBDQTEiMCAGA1UEAxMZRmFrZSBD
QSBmb3IgemxpbnQgdGVzdGluZzAeFw0yNTA2MTUxMzE5MDZaFw0yNjA2MTUxMzE5
MDZaMGUxCzAJBgNVBAYTAlNFMRIwEAYDVQQIDAlHw7Z0YWxhbmQxEjAQBgNVBAcM
CUfDtnRlYm9yZzEYMBYGA1UEChMPU29tZSBDb21wYW55IEFCMRQwEgYDVQQDEwtl
eGFtcGxlLm9yZzCCASIwDQYJKoZIhvcNAQEBBQADggEPADCCAQoCggEBALbLpTeF
ltFJzB+bd11qxNkVNjQL1lVB4oUllZ5zb1W7g0gT4Q6dY40oVlypirjlT7GL1JLw
uKncvFqJ+jT8i1h9v6CTpspmEw7cKbnCoGByOvg42TjTsD4HjAhA2o4YE+X+4RRc
zfeVUu2561Mk6OOs/wQM1EU8UxMWTXlf/ZtBzeTbeqrQrvbVEwpUAE5Bjeijy5c+
kezAhdn2cOUswESKlruQ+yV/RBSpfCDm7+M5IsIYXkoEj/kEz0UusBztmcO9Y8U/
v2KI0npXj6ITAu0s+CJEGMSA0InxK4xoi0EgZsou4bcmWLbYMV4hRACcf5hW7FOJ
11dYB2xF2uZdLoECAwEAAaOCASswggEnMA4GA1UdDwEB/wQEAwIFoDAdBgNVHSUE
FjAUBggrBgEFBQcDAgYIKwYBBQUHAwEwHQYDVR0OBBYEFPAYoJ84kkn9QD5chlUL
cA7V6upGMB8GA1UdIwQYMBaAFOi29nZL0DvlRqX5VNR+B7PeDWA+MGQGCCsGAQUF
BwEBBFgwVjApBggrBgEFBQcwAYYdaHR0cDovL2NhLnNvbWVjYS1pbmMuY29tL29j
c3AwKQYIKwYBBQUHMAKGHWh0dHA6Ly9jYS5zb21lY2EtaW5jLmNvbS9yb290MBYG
A1UdEQQPMA2CC2V4YW1wbGUub3JnMC0GA1UdHwQmMCQwIqAgoB6GHGh0dHA6Ly9j
YS5zb21lY2EtaW5jLmNvbS9jcmwwCQYDVR0gBAIwADANBgkqhkiG9w0BAQsFAAOC
AQEAe+6j8rg7V/UYOkUDV7cfYIbpqSpPVlCoq12jltqyGy6ceDMaCmfJEKJTV6wA
0nGIFTqPjRNAukI9sxQC6R1c81dRpzchGZG8ZyCO3wHKvmD8Eqqphmoy81KfoVsf
6/gIoA1Ou9a6+zf5t6tMt5n7kKPLKY+rJEmoap5lslK7dA3ImAk/5QDZ40lH1Fe+
xs7b+VaGIk8nRYVSOE+sJBTbnwMlgSuJLpJ6dNnpxw6T6itBc4HsvUU32Vc8N0iy
soufVqp2DqNhjKUBqm2NvMrhB6JX+q73Y3UY7+LIgvbvDykBH2DtiR0zrSdkBLI+
bDy6vgwg+7q6hGuxCmYGhzRftg==
-----END CERTIFICATE-----
