Certificate:
    Data:
        Version: 3 (0x2)
        Serial Number:
            5d:8a:37:93:06:8b:e4:30:7b:00:2f:50:1c:12:de:c6
        Signature Algorithm: sha256WithRSAEncryption
        Issuer: C = XX, O = Some CA, CN = Fake CA for zlint testing
        Validity
            Not Before: Jun 15 13:25:29 2025 GMT
            Not After : Jun 15 13:25:29 2026 GMT
        Subject: C = SE, ST = G\C3\B6taland, L = G\C3\B6teborg, O = Some Company AB, CN = example.org
        Subject Public Key Info:
            Public Key Algorithm: rsaEncryption
                RSA Public-Key: (2048 bit)
                Modulus:
                    00:cb:2c:1b:d4:31:66:1e:39:e9:40:8d:3f:03:58:
                    71:65:2a:94:5f:8f:c5:46:ab:f2:23:8f:0c:ad:78:
                    ff:9d:18:fe:81:49:60:cc:c9:de:20:a9:2a:47:d0:
                    2e:89:96:77:df:02:ce:ce:35:d0:9c:27:11:33:b1:
                    09:c0:0a:9d:2f:b3:a3:a2:c1:33:d5:1b:bf:0f:6b:
                    2e:9e:d8:92:42:0c:02:5b:c3:85:bb:f1:2a:04:4f:
                    3a:88:f0:04:44:75:1c:6f:81:fd:27:ca:96:0e:28:
                    93:ff:e9:ca:25:6d:56:50:a2:64:f2:e4:73:35:b7:
                    ba:69:cd:34:42:1d:a2:06:37:c3:32:58:30:d9:93:
                    e2:f7:7e:2b:7d:6b:50:58:0b:cb:ff:7c:2c:25:ca:
                    0f:c5:c4:f3:3f:73:dc:1f:2a:da:82:8a:53:5f:34:
                    64:67:dc:1a:c1:00:33:6a:8c:ee:0a:89:cd:83:de:
                    bf:bc:eb:a5:ba:d2:4e:b1:60:10:63:b0:57:45:ec:
                    29:5e:40:79:08:81:3a:8a:3b:fa:cd:59:2b:75:60:
                    27:c6:e8:9b:f1:11:a1:79:18:48:8a:36:8f:1e:02:
                    01:67:e1:8d:f9:8c:60:7b:78:a9:52:87:7b:32:75:
                    a8:d0:cb:77:9c:09:ad:52:81:54:79:cb:e2:01:8c:
                    f4:fd
                Exponent: 65537 (0x10001)
        X509v3 extensions:
            X509v3 Key Usage: critical
                Digital Signature, Key Encipherment
            X509v3 Extended Key Usage: 
                TLS Web Client Authentication, TLS Web Server Authentication
            X509v3 Subject Key Identifier: 
                E2:E1:11:EC:EF:A1:41:FA:E5:14:3D:CC:34:9A:FB:74:77:A5:11:83
            X509v3 Authority Key Identifier: 
                keyid:E8:B6:F6:76:4B:D0:3B:E5:46:A5:F9:54:D4:7E:07:B3:DE:0D:60:3E

            X509v3 Subject Alternative Name: 
                DNS:example.org
            X509v3 Certificate Policies: 
                Policy: 2.23.140.1.2.2

            X509v3 CRL Distribution Points: 

                Full Name:
                  URI:http://ca.someca-inc.com/crl

            Authority Information Access: 
                <EMPTY>

    Signature Algorithm: sha256WithRSAEncryption
         69:54:2c:14:20:05:d6:07:68:a7:23:d4:90:c2:c1:89:65:2f:
         29:82:2f:9e:d6:da:62:0a:7d:48:8b:bd:33:15:ba:8b:7d:a3:
         50:87:ce:b0:94:98:68:42:94:d6:f1:14:08:09:6d:db:f5:d9:
         87:40:db:a4:c6:16:97:c3:ff:7a:5c:40:1c:00:6a:1b:a0:1c:
         0b:9a:59:92:ea:44:a6:ed:cf:ec:d5:b0:cb:2d:cc:ea:19:0d:
         5e:68:66:6f:2a:12:d6:10:bc:92:fc:77:83:c5:66:a7:c6:02:
         10:91:e0:e7:0c:7e:f1:79:2d:07:f7:80:96:fc:fd:6e:6d:dd:
         f0:4b:8a:cc:65:cc:32:91:d3:82:b6:db:a5:80:f7:4f:c1:cf:
         5b:c7:66:7e:48:24:da:98:78:84:4a:81:f5:43:44:2e:42:9e:
         c3:d9:46:74:17:48:40:a7:fd:2c:90:ab:33:92:ec:f1:a5:fc:
         c2:36:f8:c3:50:b8:48:e4:d0:f0:f4:ab:c4:7c:75:0b:47:cc:
         86:ae:2d:b0:ed:6f:e3:81:5c:70:4b:31:30:d8:45:64:84:01:
         38:86:57:08:dd:77:55:72:0d:27:58:40:83:36:a4:df:d0:33:
         26:2f:45:96:88:60:bb:5d:8d:59:d8:35:98:84:56:0c:5e:72:
         27:28:c9:5c
-----BEGIN CERTIFICATE-----
MIIEETCCAvmgAwIBAgIQXYo3kwaL5DB7AC9QHBLexjANBgkqhkiG9w0BAQsFADBD
MQswCQYDVQQGEwJYWDEQMA4GA1UEChMHU29tZSBDQTEiMCAGA1UEAxMZRmFrZSBD
QSBmb3IgemxpbnQgdGVzdGluZzAeFw0yNTA2MTUxMzI1MjlaFw0yNjA2MTUxMzI1
MjlaMGUxCzAJBgNVBAYTAlNFMRIwEAYDVQQIDAlHw7Z0YWxhbmQxEjAQBgNVBAcM
CUfDtnRlYm9yZzEYMBYGA1UEChMPU29tZSBDb21wYW55IEFCMRQwEgYDVQQDEwtl
eGFtcGxlLm9yZzCCASIwDQYJKoZIhvcNAQEBBQADggEPADCCAQoCggEBAMssG9Qx
Zh456UCNPwNYcWUqlF+PxUar8iOPDK14/50Y/oFJYMzJ3iCpKkfQLomWd98Czs41
0JwnETOxCcAKnS+zo6LBM9Ubvw9rLp7YkkIMAlvDhbvxKgRPOojwBER1HG+B/SfK
lg4ok//pyiVtVlCiZPLkczW3umnNNEIdogY3wzJYMNmT4vd+K31rUFgLy/98LCXK
D8XE8z9z3B8q2oKKU180ZGfcGsEAM2qM7gqJzYPev7zrpbrSTrFgEGOwV0XsKV5A
eQiBOoo7+s1ZK3VgJ8bom/ERoXkYSIo2jx4CAWfhjfmMYHt4qVKHezJ1qNDLd5wJ
rVKBVHnL4gGM9P0CAwEAAaOB3jCB2zAOBgNVHQ8BAf8EBAMCBaAwHQYDVR0lBBYw
FAYIKwYBBQUHAwIGCCsGAQUFBwMBMB0GA1UdDgQWBBTi4RHs76FB+uUUPcw0mvt0
d6URgzAfBgNVHSMEGDAWgBTotvZ2S9A75Ual+VTUfgez3g1gPjAWBgNVHREEDzAN
ggtleGFtcGxlLm9yZzATBgNVHSAEDDAKMAgGBmeBDAECAjAtBgNVHR8EJjAkMCKg
IKAehhxodHRwOi8vY2Euc29tZWNhLWluYy5jb20vY3JsMA4GCCsGAQUFBwEBBAIw
ADANBgkqhkiG9w0BAQsFAAOCAQEAaVQsFCAF1gdopyPUkMLBiWUvKYIvntbaYgp9
SIu9MxW6i32jUIfOsJSYaEKU1vEUCAlt2/XZh0DbpMYWl8P/elxAHABqG6AcC5pZ
kupEpu3P7NWwyy3M6hkNXmhmbyoS1hC8kvx3g8Vmp8YCEJHg5wx+8XktB/eAlvz9
bm3d8EuKzGXMMpHTgrbbpYD3T8HPW8dmfkgk2ph4hEqB9UNELkKew9lGdBdIQKf9
LJCrM5Ls8aX8wjb4w1C4SOTQ8PSrxHx1C0fMhq4tsO1v44FccEsxMNhFZIQBOIZX
CN13VXINJ1hAgzak39AzJi9Flohgu12NWdg1mIRWDF5yJyjJXA==
-----END CERTIFICATE-----
