Certificate:
    Data:
        Version: 3 (0x2)
        Serial Number:
            83:a5:13:6e:de:a9:fb:6e:a7:31:e5:87:ac:97:5e:a5
        Signature Algorithm: sha256WithRSAEncryption
        Issuer: C = XX, O = Some CA, CN = Fake CA for zlint testing
        Validity
            Not Before: Jun 15 13:23:32 2025 GMT
            Not After : Jun 15 13:23:32 2026 GMT
        Subject: C = SE, ST = G\C3\B6taland, L = G\C3\B6teborg, O = Some Company AB, CN = example.org
        Subject Public Key Info:
            Public Key Algorithm: rsaEncryption
                RSA Public-Key: (2048 bit)
                Modulus:
                    00:c1:b2:17:c5:c5:d0:20:86:e5:75:0b:23:31:ba:
                    89:2e:04:91:ef:f3:83:39:c8:a9:e9:78:9c:cd:fd:
                    b3:f5:c1:b8:c1:61:9d:1f:f7:18:8c:e9:c3:c0:d3:
                    e0:c4:c5:e4:56:88:06:38:5f:ac:8a:1d:39:c7:0b:
                    62:9b:c4:d7:ec:84:93:fa:e8:10:75:46:e9:4f:12:
                    be:11:74:4d:4b:50:02:d3:cd:b6:00:93:88:c4:0b:
                    6a:54:ee:4e:b0:74:ac:3d:61:d7:87:5a:d2:67:c1:
                    1d:05:d3:95:df:c2:f4:38:05:bf:ac:f3:8e:bf:d9:
                    1e:73:34:7d:d7:e0:4b:42:b7:d9:27:4a:11:c3:6a:
                    1c:43:c2:ad:96:64:8e:7d:fc:bc:b8:50:11:63:6d:
                    49:87:32:67:12:b9:d0:de:62:e9:c8:28:e1:b8:a6:
                    d6:09:f4:af:e3:41:66:df:b8:9f:25:1f:55:d6:27:
                    39:d8:c6:00:75:b6:52:7e:4c:17:08:3c:64:76:20:
                    f4:95:31:5b:f3:15:3a:a3:8c:bc:8a:2c:26:8e:03:
                    30:b1:02:02:55:85:97:aa:0e:1d:0c:f4:39:74:25:
                    7f:df:a0:f3:d4:a2:5e:83:6e:c7:2d:c7:01:a0:5e:
                    c5:04:90:a6:06:78:b2:e1:43:a8:ea:3f:20:56:d7:
                    44:19
                Exponent: 65537 (0x10001)
        X509v3 extensions:
            X509v3 Key Usage: critical
                Digital Signature, Key Encipherment
            X509v3 Extended Key Usage: 
                TLS Web Client Authentication, TLS Web Server Authentication
            X509v3 Subject Key Identifier: 
                6A:A8:E4:11:AA:25:1E:D6:F8:6F:9D:27:53:05:23:72:A4:A8:86:B1
            X509v3 Authority Key Identifier: 
                keyid:E8:B6:F6:76:4B:D0:3B:E5:46:A5:F9:54:D4:7E:07:B3:DE:0D:60:3E

            Authority Information Access: 
                OCSP - URI:http://ca.someca-inc.com/ocsp
                CA Issuers - URI:http://ca.someca-inc.com/root

            X509v3 Subject Alternative Name: 
                DNS:example.org
            X509v3 Certificate Policies: 
                Policy: 2.23.140.1.2.2

            X509v3 CRL Distribution Points: 

                Full Name:
                  URI:http://ca.someca-inc.com/crl

            X509v3 Issuer Alternative Name: 
                <EMPTY>

    Signature Algorithm: sha256WithRSAEncryption
         26:3e:14:c0:60:63:fe:a6:dc:76:ac:ca:6a:30:9b:30:64:cd:
         61:12:33:43:60:a2:be:58:26:8c:3f:ef:b0:d9:92:ac:46:2e:
         48:5e:83:fe:e1:75:08:71:e1:4a:9c:e6:d1:c9:15:5d:0a:1c:
         1e:b9:10:4f:ad:ff:ed:a0:b8:0e:c2:01:cc:fa:1b:90:77:a9:
         fe:88:5c:cf:29:77:21:ec:50:1b:06:90:ab:59:3f:0e:dd:1a:
         05:20:d1:e9:92:17:d6:c1:d6:a9:0e:72:59:bc:08:64:f2:2a:
         a3:c6:83:3b:c3:01:b2:74:1c:8a:84:8a:32:c6:6b:54:c5:30:
         cf:2f:5f:22:d8:23:c8:7b:17:4d:c8:3e:b2:dd:53:e0:c7:29:
         2b:1a:4b:f4:88:5f:b7:2f:f3:e3:d5:ce:3d:fd:eb:d9:23:27:
         4c:a5:6e:ea:92:0a:16:06:a0:18:e2:cf:0c:b8:7d:a2:33:e5:
         94:07:f7:e1:d3:99:f7:53:5f:e7:11:36:a2:74:c1:4c:25:4f:
         80:c5:ef:c4:2b:6f:3e:b1:be:e8:f9:5c:17:e4:95:7f:37:e8:
         d8:71:0c:01:c6:4b:35:33:4b:1e:ca:29:27:ca:4a:4b:96:e3:
         90:e5:a7:9d:c8:73:3f:6c:22:05:8c:f8:e9:0d:73:17:8a:be:
         65:95:60:09
-----BEGIN CERTIFICATE-----
MIIEdTCCA12gAwIBAgIRAIOlE27eqftupzHlh6yXXqUwDQYJKoZIhvcNAQELBQAw
QzELMAkGA1UEBhMCWFgxEDAOBgNVBAoTB1NvbWUgQ0ExIjAgBgNVBAMTGUZha2Ug
Q0EgZm9yIHpsaW50IHRlc3RpbmcwHhcNMjUwNjE1MTMyMzMyWhcNMjYwNjE1MTMy
MzMyWjBlMQswCQYDVQQGEwJTRTESMBAGA1UECAwJR8O2dGFsYW5kMRIwEAYDVQQH
DAlHw7Z0ZWJvcmcxGDAWBgNVBAoTD1NvbWUgQ29tcGFueSBBQjEUMBIGA1UEAxML
ZXhhbXBsZS5vcmcwggEiMA0GCSqGSIb3DQEBAQUAA4IBDwAwggEKAoIBAQDBshfF
xdAghuV1CyMxuokuBJHv84M5yKnpeJzN/bP1wbjBYZ0f9xiM6cPA0+DExeRWiAY4
X6yKHTnHC2KbxNfshJP66BB1RulPEr4RdE1LUALTzbYAk4jEC2pU7k6wdKw9YdeH
WtJnwR0F05XfwvQ4Bb+s846/2R5zNH3X4EtCt9knShHDahxDwq2WZI59/Ly4UBFj
bUmHMmcSudDeYunIKOG4ptYJ9K/jQWbfuJ8lH1XWJznYxgB1tlJ+TBcIPGR2IPSV
MVvzFTqjjLyKLCaOAzCxAgJVhZeqDh0M9Dl0JX/foPPUol6DbsctxwGgXsUEkKYG
eLLhQ6jqPyBW10QZAgMBAAGjggFAMIIBPDAOBgNVHQ8BAf8EBAMCBaAwHQYDVR0l
BBYwFAYIKwYBBQUHAwIGCCsGAQUFBwMBMB0GA1UdDgQWBBRqqOQRqiUe1vhvnSdT
BSNypKiGsTAfBgNVHSMEGDAWgBTotvZ2S9A75Ual+VTUfgez3g1gPjBkBggrBgEF
BQcBAQRYMFYwKQYIKwYBBQUHMAGGHWh0dHA6Ly9jYS5zb21lY2EtaW5jLmNvbS9v
Y3NwMCkGCCsGAQUFBzAChh1odHRwOi8vY2Euc29tZWNhLWluYy5jb20vcm9vdDAW
BgNVHREEDzANggtleGFtcGxlLm9yZzATBgNVHSAEDDAKMAgGBmeBDAECAjAtBgNV
HR8EJjAkMCKgIKAehhxodHRwOi8vY2Euc29tZWNhLWluYy5jb20vY3JsMAkGA1Ud
EgQCMAAwDQYJKoZIhvcNAQELBQADggEBACY+FMBgY/6m3HasymowmzBkzWESM0Ng
or5YJow/77DZkqxGLkheg/7hdQhx4Uqc5tHJFV0KHB65EE+t/+2guA7CAcz6G5B3
qf6IXM8pdyHsUBsGkKtZPw7dGgUg0emSF9bB1qkOclm8CGTyKqPGgzvDAbJ0HIqE
ijLGa1TFMM8vXyLYI8h7F03IPrLdU+DHKSsaS/SIX7cv8+PVzj3969kjJ0ylbuqS
ChYGoBjizwy4faIz5ZQH9+HTmfdTX+cRNqJ0wUwlT4DF78Qrbz6xvuj5XBfklX83
6NhxDAHGSzUzSx7KKSfKSkuW45Dlp53Icz9sIgWM+OkNcxeKvmWVYAk=
-----END CERTIFICATE-----
