Certificate:
    Data:
        Version: 3 (0x2)
        Serial Number:
            07:6d:71:89:4b:9e:4d:57:15:3d:70:90:ae:d2:b6:2b
        Signature Algorithm: sha256WithRSAEncryption
        Issuer: C = XX, O = Some CA, CN = Fake CA for zlint testing
        Validity
            Not Before: Jun 15 13:17:53 2025 GMT
            Not After : Jun 15 13:17:53 2026 GMT
        Subject: C = SE, ST = G\C3\B6taland, L = G\C3\B6teborg, O = Some Company AB, CN = example.org
        Subject Public Key Info:
            Public Key Algorithm: rsaEncryption
                RSA Public-Key: (2048 bit)
                Modulus:
                    00:c8:3d:c4:b7:48:7b:ab:5e:85:5a:56:ec:af:b8:
                    3d:4c:0a:bb:6f:14:1b:60:41:ea:81:cf:fb:d7:73:
                    fb:f9:cc:49:c7:40:df:e0:6d:87:6b:4b:ba:01:30:
                    db:d9:15:5d:46:ce:d5:71:97:1e:f2:2e:c8:8e:ba:
                    b9:a0:24:c0:cb:89:c4:40:1a:35:5e:16:4b:e2:e8:
                    93:1f:8c:00:d7:16:f5:dd:32:12:7e:bd:7f:52:30:
                    38:a5:b2:c3:1c:5b:94:55:ae:44:91:17:ed:79:a4:
                    9a:d2:4a:0b:71:f1:9c:ce:a1:a4:4a:4f:4d:60:19:
                    11:db:2f:71:b8:cd:f2:ab:83:68:11:0c:68:ab:0c:
                    87:4c:6e:1b:e4:3c:9b:23:de:9e:42:ba:9b:0e:b1:
                    0b:d8:55:04:1a:b2:a4:44:43:67:a5:8d:ba:56:8a:
                    bc:d9:61:61:85:25:9d:11:1f:3b:9a:69:f2:b6:a2:
                    a5:31:14:47:c5:67:4d:05:30:1d:b0:0b:d0:1c:a0:
                    08:df:33:8e:c0:5d:fb:50:8c:60:39:74:2c:5a:ea:
                    8b:68:1a:ee:e6:50:83:df:89:a0:d9:fd:56:0b:96:
                    da:f5:55:7f:86:b1:87:e1:df:50:8f:13:55:9f:26:
                    29:6c:a8:6f:6d:4b:67:da:d1:6d:bd:b0:01:a7:b5:
                    e2:eb
                Exponent: 65537 (0x10001)
        X509v3 extensions:
            X509v3 Key Usage: critical
                Digital Signature, Key Encipherment
            X509v3 Extended Key Usage: 
                TLS Web Client Authentication, TLS Web Server Authentication
            X509v3 Subject Key Identifier: 
                31:19:F4:6F:F4:B8:EE:82:16:9F:51:14:F1:C8:75:7B:10:B5:61:6D
            X509v3 Authority Key Identifier: 
                keyid:E8:B6:F6:76:4B:D0:3B:E5:46:A5:F9:54:D4:7E:07:B3:DE:0D:60:3E

            Authority Information Access: 
                OCSP - URI:http://ca.someca-inc.com/ocsp
                CA Issuers - URI:http://ca.someca-inc.com/root

            X509v3 Subject Alternative Name: 
                DNS:example.org
            X509v3 Certificate Policies: 
                Policy: 2.23.140.1.2.2

            X509v3 CRL Distribution Points: 

    Signature Algorithm: sha256WithRSAEncryption
         6b:60:eb:90:aa:28:a0:b3:8f:64:b3:1a:7f:8d:f2:1f:22:d0:
         77:e5:d0:d1:bb:04:68:ff:26:4b:1e:02:af:95:9f:57:a2:c7:
         0c:be:5e:06:ef:b8:d2:b1:5f:54:16:df:bb:77:0a:bc:6a:5c:
         8b:47:f3:52:6d:37:e9:50:bb:58:a4:8e:ad:63:80:d9:79:4d:
         ac:b2:e3:9b:28:0a:b7:f7:3e:fd:54:07:e0:cb:7b:90:7c:9d:
         34:a0:13:57:14:97:e3:dc:f8:e3:82:dd:4c:b0:1d:0f:7d:c1:
         f2:e3:cc:b6:f0:37:5e:f6:7c:26:bf:68:14:fb:10:93:34:79:
         eb:0a:87:81:ed:c9:11:82:84:89:ee:66:21:91:90:c8:ed:71:
         b8:e1:18:4d:ef:47:51:ee:34:7e:7f:39:79:ed:6e:44:1a:0b:
         06:69:f1:8c:40:3a:2b:3d:0c:33:ab:92:d5:97:28:6e:73:e0:
         e1:c4:f8:67:12:df:3f:0d:6f:af:9d:38:7c:60:70:86:dc:ac:
         d8:d9:86:5d:d9:4c:ec:df:37:ff:fc:92:cf:ae:a5:d1:d0:04:
         a5:81:bb:75:88:e2:a1:fa:28:5d:00:22:b9:40:75:58:ce:bd:
         0f:0a:d8:17:9c:d3:be:b7:e6:9a:2c:66:0e:e7:d4:7c:02:5d:
         77:97:a9:a1
-----BEGIN CERTIFICATE-----
MIIERTCCAy2gAwIBAgIQB21xiUueTVcVPXCQrtK2KzANBgkqhkiG9w0BAQsFADBD
MQswCQYDVQQGEwJYWDEQMA4GA1UEChMHU29tZSBDQTEiMCAGA1UEAxMZRmFrZSBD
QSBmb3IgemxpbnQgdGVzdGluZzAeFw0yNTA2MTUxMzE3NTNaFw0yNjA2MTUxMzE3
NTNaMGUxCzAJBgNVBAYTAlNFMRIwEAYDVQQIDAlHw7Z0YWxhbmQxEjAQBgNVBAcM
CUfDtnRlYm9yZzEYMBYGA1UEChMPU29tZSBDb21wYW55IEFCMRQwEgYDVQQDEwtl
eGFtcGxlLm9yZzCCASIwDQYJKoZIhvcNAQEBBQADggEPADCCAQoCggEBAMg9xLdI
e6tehVpW7K+4PUwKu28UG2BB6oHP+9dz+/nMScdA3+Bth2tLugEw29kVXUbO1XGX
HvIuyI66uaAkwMuJxEAaNV4WS+Lokx+MANcW9d0yEn69f1IwOKWywxxblFWuRJEX
7XmkmtJKC3HxnM6hpEpPTWAZEdsvcbjN8quDaBEMaKsMh0xuG+Q8myPenkK6mw6x
C9hVBBqypERDZ6WNulaKvNlhYYUlnREfO5pp8raipTEUR8VnTQUwHbAL0BygCN8z
jsBd+1CMYDl0LFrqi2ga7uZQg9+JoNn9VguW2vVVf4axh+HfUI8TVZ8mKWyob21L
Z9rRbb2wAae14usCAwEAAaOCAREwggENMA4GA1UdDwEB/wQEAwIFoDAdBgNVHSUE
FjAUBggrBgEFBQcDAgYIKwYBBQUHAwEwHQYDVR0OBBYEFDEZ9G/0uO6CFp9RFPHI
dXsQtWFtMB8GA1UdIwQYMBaAFOi29nZL0DvlRqX5VNR+B7PeDWA+MGQGCCsGAQUF
BwEBBFgwVjApBggrBgEFBQcwAYYdaHR0cDovL2NhLnNvbWVjYS1pbmMuY29tL29j
c3AwKQYIKwYBBQUHMAKGHWh0dHA6Ly9jYS5zb21lY2EtaW5jLmNvbS9yb290MBYG
A1UdEQQPMA2CC2V4YW1wbGUub3JnMBMGA1UdIAQMMAowCAYGZ4EMAQICMAkGA1Ud
HwQCMAAwDQYJKoZIhvcNAQELBQADggEBAGtg65CqKKCzj2SzGn+N8h8i0Hfl0NG7
BGj/JkseAq+Vn1eixwy+XgbvuNKxX1QW37t3CrxqXItH81JtN+lQu1ikjq1jgNl5
Tayy45soCrf3Pv1UB+DLe5B8nTSgE1cUl+Pc+OOC3UywHQ99wfLjzLbwN172fCa/
aBT7EJM0eesKh4HtyRGChInuZiGRkMjtcbjhGE3vR1HuNH5/OXntbkQaCwZp8YxA
Ois9DDOrktWXKG5z4OHE+GcS3z8Nb6+dOHxgcIbcrNjZhl3ZTOzfN//8ks+updHQ
BKWBu3WI4qH6KF0AIrlAdVjOvQ8K2Bec07635posZg7n1HwCXXeXqaE=
-----END CERTIFICATE-----
