Certificate:
    Data:
        Version: 3 (0x2)
        Serial Number:
            0b:3e:22:26:5d:20:07:d4:b4:6b:0f:51:4d:39:13:c9
        Signature Algorithm: sha256WithRSAEncryption
        Issuer: C=XX, O=Some CA, CN=Fake CA for zlint testing
        Validity
            Not Before: Mar  6 11:37:30 2026 GMT
            Not After : Mar  6 11:37:30 2027 GMT
        Subject: C=XX, ST=Some State or Province, L=Somewhere, O=Some Company Ltd., serialNumber=1234567890, businessCategory=Non-Commercial Entity
        Subject Public Key Info:
            Public Key Algorithm: rsaEncryption
                Public-Key: (2048 bit)
                Modulus:
                    00:c7:c1:45:d9:75:16:dc:55:2f:af:a3:b1:3b:fd:
                    fe:41:44:03:52:98:60:55:61:25:c1:ef:cb:08:5f:
                    0b:66:f4:04:81:83:26:17:53:8b:86:d3:93:a5:ee:
                    e4:b7:65:6e:10:48:8f:80:7b:e6:17:5e:13:2b:e1:
                    c9:29:87:b0:cb:45:16:bf:f6:79:28:2e:43:32:f9:
                    93:e2:c5:45:55:da:43:55:cd:77:04:c6:65:da:23:
                    ba:fa:db:e6:1b:0d:4d:5a:09:ea:9d:7e:84:13:41:
                    4b:ce:30:2c:c6:86:7b:7c:e4:a6:ce:11:2f:38:b2:
                    bf:74:43:62:bd:02:30:81:b4:94:82:01:77:b3:06:
                    a4:1c:b1:d5:70:e6:90:08:f2:b4:75:8b:fc:18:4e:
                    50:80:6e:96:1a:2b:64:18:f5:15:3e:07:29:46:e9:
                    7f:29:7b:e1:4b:14:bf:39:e2:5e:b4:2d:4e:5a:60:
                    e7:58:36:cc:82:3e:12:f7:2f:31:ee:c0:f1:26:7c:
                    c0:ae:be:3e:a2:b7:af:5b:05:4b:eb:9a:27:e0:27:
                    92:97:4a:c2:2c:d2:dd:7d:1a:7a:a7:dd:43:01:84:
                    93:99:2c:57:12:21:a1:f5:8c:f1:ec:63:a0:1c:56:
                    bb:15:eb:04:77:c0:46:07:9b:5e:7a:cd:77:43:17:
                    16:31
                Exponent: 65537 (0x10001)
        X509v3 extensions:
            X509v3 Key Usage: critical
                Digital Signature, Key Encipherment
            X509v3 Extended Key Usage: 
                TLS Web Client Authentication, TLS Web Server Authentication
            X509v3 Authority Key Identifier: 
                E8:B6:F6:76:4B:D0:3B:E5:46:A5:F9:54:D4:7E:07:B3:DE:0D:60:3E
            Authority Information Access: 
                OCSP - URI:http://ca.someca-inc.com/ocsp
                CA Issuers - URI:http://ca.someca-inc.com/root
            X509v3 Subject Alternative Name: 
                DNS:example.org
            X509v3 Certificate Policies: 
                Policy: 2.23.140.1.1
            X509v3 CRL Distribution Points: 
                Full Name:
                  URI:http://ca.someca-inc.com/crl

    Signature Algorithm: sha256WithRSAEncryption
    Signature Value:
        71:af:41:08:91:7d:aa:14:87:8c:30:24:c5:8c:3a:f2:ab:0e:
        6d:62:a4:95:e3:27:88:54:c4:f4:fb:53:10:ea:19:77:9d:2a:
        d7:cd:92:f7:35:71:d4:31:cc:a8:6d:80:13:01:5c:43:e7:9d:
        16:db:88:bc:03:c2:1a:3a:fa:fb:91:a6:f1:24:a0:91:78:7f:
        41:35:70:a7:49:5d:41:70:b7:61:56:51:76:66:9e:e7:9c:2f:
        df:2c:b6:99:ae:a8:68:75:e5:dd:92:75:c9:a2:ab:29:8c:67:
        c8:23:57:02:ab:c3:3b:79:a6:0d:7a:2d:0a:a6:63:c2:e2:9d:
        31:d4:b2:7e:21:ce:f5:d5:e4:81:bf:69:b0:d1:d6:60:89:ee:
        20:ec:d7:fb:95:22:65:cb:85:22:ee:db:20:ab:b8:bd:21:84:
        cd:49:fd:85:b6:49:b4:42:df:b2:81:af:fc:76:f6:bb:a7:fb:
        e7:47:f3:22:f7:4d:84:dd:f7:e0:3b:e5:bf:66:a7:d6:c4:9c:
        ba:b1:55:46:6a:99:37:42:1b:2e:cc:00:17:f6:3c:78:c9:04:
        93:4c:e4:bc:be:95:6f:0a:62:f2:68:3e:7f:25:92:b9:29:db:
        db:21:67:eb:33:18:c4:9b:20:67:71:93:74:c4:ba:d4:97:ee:
        f1:72:24:54
-----BEGIN CERTIFICATE-----
MIIEeDCCA2CgAwIBAgIQCz4iJl0gB9S0aw9RTTkTyTANBgkqhkiG9w0BAQsFADBD
MQswCQYDVQQGEwJYWDEQMA4GA1UEChMHU29tZSBDQTEiMCAGA1UEAxMZRmFrZSBD
QSBmb3IgemxpbnQgdGVzdGluZzAeFw0yNjAzMDYxMTM3MzBaFw0yNzAzMDYxMTM3
MzBaMIGTMQswCQYDVQQGEwJYWDEfMB0GA1UECBMWU29tZSBTdGF0ZSBvciBQcm92
aW5jZTESMBAGA1UEBxMJU29tZXdoZXJlMRowGAYDVQQKExFTb21lIENvbXBhbnkg
THRkLjETMBEGA1UEBRMKMTIzNDU2Nzg5MDEeMBwGA1UEDxMVTm9uLUNvbW1lcmNp
YWwgRW50aXR5MIIBIjANBgkqhkiG9w0BAQEFAAOCAQ8AMIIBCgKCAQEAx8FF2XUW
3FUvr6OxO/3+QUQDUphgVWElwe/LCF8LZvQEgYMmF1OLhtOTpe7kt2VuEEiPgHvm
F14TK+HJKYewy0UWv/Z5KC5DMvmT4sVFVdpDVc13BMZl2iO6+tvmGw1NWgnqnX6E
E0FLzjAsxoZ7fOSmzhEvOLK/dENivQIwgbSUggF3swakHLHVcOaQCPK0dYv8GE5Q
gG6WGitkGPUVPgcpRul/KXvhSxS/OeJetC1OWmDnWDbMgj4S9y8x7sDxJnzArr4+
orevWwVL65on4CeSl0rCLNLdfRp6p91DAYSTmSxXEiGh9Yzx7GOgHFa7FesEd8BG
B5tees13QxcWMQIDAQABo4IBFTCCAREwDgYDVR0PAQH/BAQDAgWgMB0GA1UdJQQW
MBQGCCsGAQUFBwMCBggrBgEFBQcDATAfBgNVHSMEGDAWgBTotvZ2S9A75Ual+VTU
fgez3g1gPjBkBggrBgEFBQcBAQRYMFYwKQYIKwYBBQUHMAGGHWh0dHA6Ly9jYS5z
b21lY2EtaW5jLmNvbS9vY3NwMCkGCCsGAQUFBzAChh1odHRwOi8vY2Euc29tZWNh
LWluYy5jb20vcm9vdDAWBgNVHREEDzANggtleGFtcGxlLm9yZzASBgNVHSAECzAJ
MAcGBWeBDAEBMC0GA1UdHwQmMCQwIqAgoB6GHGh0dHA6Ly9jYS5zb21lY2EtaW5j
LmNvbS9jcmwwDQYJKoZIhvcNAQELBQADggEBAHGvQQiRfaoUh4wwJMWMOvKrDm1i
pJXjJ4hUxPT7UxDqGXedKtfNkvc1cdQxzKhtgBMBXEPnnRbbiLwDwho6+vuRpvEk
oJF4f0E1cKdJXUFwt2FWUXZmnuecL98stpmuqGh15d2SdcmiqymMZ8gjVwKrwzt5
pg16LQqmY8LinTHUsn4hzvXV5IG/abDR1mCJ7iDs1/uVImXLhSLu2yCruL0hhM1J
/YW2SbRC37KBr/x29run++dH8yL3TYTd9+A75b9mp9bEnLqxVUZqmTdCGy7MABf2
PHjJBJNM5Ly+lW8KYvJoPn8lkrkp29shZ+szGMSbIGdxk3TEutSX7vFyJFQ=
-----END CERTIFICATE-----
