Certificate:
    Data:
        Version: 3 (0x2)
        Serial Number:
            22:96:6d:17:30:6d:60:3f:f8:24:09:3a:cd:55:9a:cc
        Signature Algorithm: sha256WithRSAEncryption
        Issuer: C = XX, O = Some CA, CN = Fake Root CA for zlint testing
        Validity
            Not Before: Jun 15 15:55:29 2025 GMT
            Not After : Jun 14 15:55:29 2030 GMT
        Subject: C = XX, ST = Some State, L = Some Locality, O = Some CA, CN = Fake CA for zlint testing
        Subject Public Key Info:
            Public Key Algorithm: rsaEncryption
                RSA Public-Key: (4096 bit)
                Modulus:
                    00:bc:c0:b6:67:76:9f:02:5f:76:f6:62:c6:f0:9f:
                    ab:91:e8:ab:b7:6a:47:ed:58:3c:1f:54:80:c6:35:
                    06:6f:62:07:00:8e:02:1d:51:68:64:de:92:25:6b:
                    13:30:2d:1a:5d:1c:92:a8:82:74:a2:b5:e2:3a:be:
                    33:0a:b7:62:b9:e8:16:3f:76:73:e4:b1:3c:48:ff:
                    05:7b:ee:59:2f:2f:f5:bb:10:a6:8b:c4:d3:4a:85:
                    94:fb:96:b8:12:c9:3c:76:1b:b7:cd:f8:74:81:2f:
                    c0:ad:3d:2d:60:f8:d4:a0:2b:7c:f0:4a:94:ed:34:
                    5e:68:9b:9c:0b:98:2d:0f:10:a1:8c:69:20:12:8f:
                    45:1d:35:42:b3:a9:e7:49:4b:f6:64:3d:df:ac:3c:
                    1a:b1:30:a9:01:01:f1:69:00:ac:56:09:44:53:aa:
                    3b:35:41:03:53:24:9f:34:1e:f5:d2:9c:44:2d:a6:
                    36:29:98:53:62:b9:85:a8:33:0c:6d:95:72:3c:ba:
                    39:e8:ad:66:cb:06:71:40:01:2f:5e:6e:94:ff:1b:
                    1c:52:7f:22:64:e2:61:88:f9:38:f8:9e:17:4b:8b:
                    16:91:10:d0:1e:43:e4:05:dd:87:e9:61:ce:71:05:
                    eb:7d:5a:7f:a3:89:b1:aa:48:01:91:b4:91:bf:ba:
                    80:e0:23:00:47:11:1d:27:f1:55:2b:f6:ef:47:a6:
                    cb:b7:d1:a7:87:91:3d:fc:81:a2:66:91:f5:a6:80:
                    51:95:7d:8e:3a:db:0c:7b:20:2d:ca:e6:97:0e:03:
                    13:41:46:a9:01:a3:91:6a:bd:ac:d5:6e:56:f5:d0:
                    cc:a3:42:a5:f9:b5:fc:38:fe:68:e4:7d:56:99:9d:
                    56:e9:89:c3:b6:94:16:db:3f:a9:8e:f2:5c:01:08:
                    cd:64:1a:7c:44:9f:8f:27:ad:d8:cc:64:d7:e7:19:
                    2e:ec:f0:19:94:57:23:11:b1:a7:6b:ad:8c:dc:5f:
                    ec:0e:4b:f8:5d:39:c2:4a:91:c8:ef:05:89:4c:e6:
                    2d:f5:13:f8:62:e1:3b:25:53:39:b7:06:cd:8a:82:
                    d4:10:52:23:3c:9b:90:19:1a:53:e5:9f:a5:70:d3:
                    f8:8c:78:19:bb:1d:a5:c4:99:b1:30:d7:7c:06:8a:
                    9c:66:92:08:25:3d:c6:b7:3f:d4:8e:cc:f0:b3:90:
                    f9:e7:33:aa:a8:45:3a:2e:0b:82:34:15:91:e5:db:
                    c1:af:1a:d0:65:d4:e6:17:ed:d6:f0:d8:0e:af:7e:
                    03:8e:db:76:a4:e3:89:5e:8a:b1:2d:9c:73:b8:6e:
                    97:11:eb:b3:f3:75:5d:33:d0:35:c3:18:5e:3f:25:
                    de:f5:0d
                Exponent: 65537 (0x10001)
        X509v3 extensions:
            X509v3 Key Usage: critical
                Certificate Sign, CRL Sign
            X509v3 Extended Key Usage: 
                TLS Web Client Authentication, TLS Web Server Authentication
            X509v3 Basic Constraints: critical
                CA:TRUE
            X509v3 Subject Key Identifier: 
                B0:A1:C5:0C:3F:07:B9:F0:49:2F:9C:BF:00:63:E5:30:10:32:69:02
            X509v3 Authority Key Identifier: 
                keyid:E8:B6:F6:76:4B:D0:3B:E5:46:A5:F9:54:D4:7E:07:B3:DE:0D:60:3E

            Authority Information Access: 
                OCSP - URI:http://ca.someca-inc.com/ocsp
                CA Issuers - URI:http://ca.someca-inc.com/root

            X509v3 Certificate Policies: 
                Policy: 2.23.140.1.2.2

            X509v3 CRL Distribution Points: 

                Full Name:
                  URI:http://ca.someca-inc.com/crl

            X509v3 Policy Mappings: critical
                0.
    Signature Algorithm: sha256WithRSAEncryption
         7b:59:bc:13:d7:3c:c8:0c:50:10:14:c9:84:c2:24:2c:97:03:
         ec:af:fb:a4:a2:79:d5:de:e2:76:d7:2c:98:f6:aa:3e:e1:11:
         9f:f6:d3:e2:d2:b8:90:d6:64:4c:04:ef:30:ab:85:cd:c7:7d:
         87:44:70:73:6e:2e:72:e9:48:1b:66:b2:f7:06:a8:79:57:d3:
         7b:b3:af:cc:4e:d8:10:3f:0e:08:11:9e:aa:18:50:64:ec:e9:
         47:1e:e8:6a:56:d3:a3:70:45:04:ab:48:44:4b:8b:be:5f:d3:
         18:4a:e2:d1:49:82:bd:4f:d4:f3:f2:a0:64:94:ac:f5:83:ab:
         90:d5:01:ae:da:ed:0d:78:88:c0:86:23:64:9b:6d:6e:ff:c9:
         b9:08:bf:3f:f9:f4:e1:e7:e7:aa:f7:79:34:5b:ea:13:fb:b4:
         8b:d9:05:3e:92:a2:00:42:e2:ff:5f:94:3c:85:59:59:3b:a7:
         3f:68:d5:b4:6c:ec:39:e1:03:ac:68:d3:b6:a0:f1:6b:29:c3:
         71:2c:38:6f:d1:c8:22:9d:cd:06:1c:e7:4f:b0:6f:26:e2:8b:
         4d:75:b9:b8:6c:7a:3d:a6:31:44:17:3e:d1:f2:74:15:10:40:
         46:db:93:0e:b5:1a:4f:24:58:9e:ee:38:02:aa:f9:83:94:74:
         f0:e3:41:36:a2:d3:68:a6:0f:9c:5f:83:9a:ef:1c:0e:b0:67:
         b8:1b:88:1a:89:d1:b1:c9:b2:83:af:05:b4:6c:5b:72:d2:2f:
         f3:25:96:0d:c3:8c:7d:f1:45:9f:ad:d8:5e:d7:6c:0c:65:aa:
         bd:b4:30:40:2b:f2:5f:e1:48:fe:ea:19:a1:21:a1:c2:72:ee:
         ad:0d:20:ff:a0:72:4d:00:6b:1a:f9:69:3d:7f:23:76:47:c2:
         65:78:31:59:02:13:3e:36:7f:76:a6:40:c3:42:0b:29:6c:cb:
         1f:96:47:2a:a7:3d:c2:05:39:bd:3d:ca:37:72:c4:67:02:05:
         d6:39:37:2d:c7:36:dd:df:be:9f:87:51:78:e4:29:79:b5:9c:
         f4:7d:e8:82:7b:e8:b1:40:5b:7c:7e:6c:ae:d9:60:81:eb:7d:
         4b:be:d4:83:4d:6a:99:27:d2:ee:d2:2b:d8:45:7f:5c:b7:59:
         7a:e1:cc:f5:ac:9c:56:24:b3:49:07:d3:8d:b8:3d:a3:49:ad:
         fc:bc:b4:f4:a5:2a:93:e4:c0:62:c8:01:ac:2e:3f:6b:8e:14:
         c2:80:9e:5e:14:4b:89:f7:c4:4f:d8:58:76:24:bd:b0:2f:69:
         8a:23:b7:64:49:78:50:25:24:d8:0d:65:73:28:7c:b6:96:fd:
         b2:0b:bc:8b:b9:d7:c5:ef
-----BEGIN CERTIFICATE-----
MIIGgDCCBGigAwIBAgIQIpZtFzBtYD/4JAk6zVWazDANBgkqhkiG9w0BAQsFADBI
MQswCQYDVQQGEwJYWDEQMA4GA1UEChMHU29tZSBDQTEnMCUGA1UEAxMeRmFrZSBS
b290IENBIGZvciB6bGludCB0ZXN0aW5nMB4XDTI1MDYxNTE1NTUyOVoXDTMwMDYx
NDE1NTUyOVowcDELMAkGA1UEBhMCWFgxEzARBgNVBAgTClNvbWUgU3RhdGUxFjAU
BgNVBAcTDVNvbWUgTG9jYWxpdHkxEDAOBgNVBAoTB1NvbWUgQ0ExIjAgBgNVBAMT
GUZha2UgQ0EgZm9yIHpsaW50IHRlc3RpbmcwggIiMA0GCSqGSIb3DQEBAQUAA4IC
DwAwggIKAoICAQC8wLZndp8CX3b2Ysbwn6uR6Ku3akftWDwfVIDGNQZvYgcAjgId
UWhk3pIlaxMwLRpdHJKognSiteI6vjMKt2K56BY/dnPksTxI/wV77lkvL/W7EKaL
xNNKhZT7lrgSyTx2G7fN+HSBL8CtPS1g+NSgK3zwSpTtNF5om5wLmC0PEKGMaSAS
j0UdNUKzqedJS/ZkPd+sPBqxMKkBAfFpAKxWCURTqjs1QQNTJJ80HvXSnEQtpjYp
mFNiuYWoMwxtlXI8ujnorWbLBnFAAS9ebpT/GxxSfyJk4mGI+Tj4nhdLixaRENAe
Q+QF3YfpYc5xBet9Wn+jibGqSAGRtJG/uoDgIwBHER0n8VUr9u9Hpsu30aeHkT38
gaJmkfWmgFGVfY462wx7IC3K5pcOAxNBRqkBo5FqvazVblb10MyjQqX5tfw4/mjk
fVaZnVbpicO2lBbbP6mO8lwBCM1kGnxEn48nrdjMZNfnGS7s8BmUVyMRsadrrYzc
X+wOS/hdOcJKkcjvBYlM5i31E/hi4TslUzm3Bs2KgtQQUiM8m5AZGlPln6Vw0/iM
eBm7HaXEmbEw13wGipxmkgglPca3P9SOzPCzkPnnM6qoRTouC4I0FZHl28GvGtBl
1OYX7dbw2A6vfgOO23ak44leirEtnHO4bpcR67PzdV0z0DXDGF4/Jd71DQIDAQAB
o4IBPDCCATgwDgYDVR0PAQH/BAQDAgEGMB0GA1UdJQQWMBQGCCsGAQUFBwMCBggr
BgEFBQcDATAPBgNVHRMBAf8EBTADAQH/MB0GA1UdDgQWBBSwocUMPwe58EkvnL8A
Y+UwEDJpAjAfBgNVHSMEGDAWgBTotvZ2S9A75Ual+VTUfgez3g1gPjBkBggrBgEF
BQcBAQRYMFYwKQYIKwYBBQUHMAGGHWh0dHA6Ly9jYS5zb21lY2EtaW5jLmNvbS9v
Y3NwMCkGCCsGAQUFBzAChh1odHRwOi8vY2Euc29tZWNhLWluYy5jb20vcm9vdDAT
BgNVHSAEDDAKMAgGBmeBDAECAjAtBgNVHR8EJjAkMCKgIKAehhxodHRwOi8vY2Eu
c29tZWNhLWluYy5jb20vY3JsMAwGA1UdIQEB/wQCMAAwDQYJKoZIhvcNAQELBQAD
ggIBAHtZvBPXPMgMUBAUyYTCJCyXA+yv+6SiedXe4nbXLJj2qj7hEZ/20+LSuJDW
ZEwE7zCrhc3HfYdEcHNuLnLpSBtmsvcGqHlX03uzr8xO2BA/DggRnqoYUGTs6Uce
6GpW06NwRQSrSERLi75f0xhK4tFJgr1P1PPyoGSUrPWDq5DVAa7a7Q14iMCGI2Sb
bW7/ybkIvz/59OHn56r3eTRb6hP7tIvZBT6SogBC4v9flDyFWVk7pz9o1bRs7Dnh
A6xo07ag8Wspw3EsOG/RyCKdzQYc50+wbybii011ubhsej2mMUQXPtHydBUQQEbb
kw61Gk8kWJ7uOAKq+YOUdPDjQTai02imD5xfg5rvHA6wZ7gbiBqJ0bHJsoOvBbRs
W3LSL/Mllg3DjH3xRZ+t2F7XbAxlqr20MEAr8l/hSP7qGaEhocJy7q0NIP+gck0A
axr5aT1/I3ZHwmV4MVkCEz42f3amQMNCCylsyx+WRyqnPcIFOb09yjdyxGcCBdY5
Ny3HNt3fvp+HUXjkKXm1nPR96IJ76LFAW3x+bK7ZYIHrfUu+1INNapkn0u7SK9hF
f1y3WXrhzPWsnFYks0kH0424PaNJrfy8tPSlKpPkwGLIAawuP2uOFMKAnl4US4n3
xE/YWHYkvbAvaYojt2RJeFAlJNgNZXMofLaW/bILvIu518Xv
-----END CERTIFICATE-----
