Certificate:
    Data:
        Version: 3 (0x2)
        Serial Number:
            dd:15:66:ca:d3:13:d6:4e:76:78:ad:e8:d1:f8:bf:5e
        Signature Algorithm: sha256WithRSAEncryption
        Issuer: C = XX, O = Some CA, CN = Fake CA for zlint testing
        Validity
            Not Before: Jun 16 07:32:32 2025 GMT
            Not After : Jun 16 07:32:32 2026 GMT
        Subject: C = SE, ST = G\C3\B6taland, L = G\C3\B6teborg, O = Some Company AB, CN = example.org
        Subject Public Key Info:
            Public Key Algorithm: rsaEncryption
                RSA Public-Key: (2048 bit)
                Modulus:
                    00:cb:37:8d:1b:ee:ad:45:b6:06:2e:bf:4e:4e:6e:
                    af:57:be:36:be:ed:fb:8f:be:c4:44:82:4c:0a:89:
                    a2:b8:68:b0:62:af:65:3d:26:b3:e8:c5:03:35:8b:
                    9d:ce:dc:79:1b:cf:43:17:9f:e4:ac:ea:d6:22:47:
                    e6:c6:c1:96:6c:c0:ee:c6:48:14:9a:96:1b:b3:da:
                    01:92:cb:60:0c:b8:a3:d4:7d:d6:18:fd:ff:f5:9f:
                    92:39:12:78:4c:04:38:06:5e:c5:44:7a:34:d2:66:
                    2c:b4:6d:95:9b:e1:8d:c0:b8:45:24:8f:36:6d:7c:
                    71:b1:7f:c9:37:1d:b7:54:62:72:cc:7d:31:a8:b5:
                    74:e8:f5:cc:af:a7:78:e7:d3:e1:df:47:e2:02:ef:
                    84:71:96:f6:ce:8f:b2:02:63:b7:93:f6:e5:f2:f7:
                    67:1e:e6:bf:79:b8:7f:8a:93:14:09:a4:ca:bc:94:
                    ef:0c:63:ff:7b:f7:a6:e0:a1:ee:8f:60:32:16:5a:
                    50:a1:a9:62:02:d5:ab:72:21:e1:f1:26:ef:f0:6d:
                    d2:f8:49:57:c2:57:11:51:da:6f:7c:c3:62:ab:f3:
                    34:71:8b:b9:c7:7e:fb:2f:ea:02:ab:bc:b8:e0:5b:
                    91:00:50:06:71:29:cf:37:82:57:5f:ea:39:01:4d:
                    be:e7
                Exponent: 65537 (0x10001)
        X509v3 extensions:
            X509v3 Key Usage: critical
                Digital Signature, Key Encipherment
            X509v3 Extended Key Usage: 
                TLS Web Client Authentication, TLS Web Server Authentication
            X509v3 Subject Key Identifier: 
                87:E3:6A:C6:3A:D0:68:6D:BC:2E:29:71:A0:27:4B:17:9D:13:59:7B
            X509v3 Authority Key Identifier: 
                keyid:E8:B6:F6:76:4B:D0:3B:E5:46:A5:F9:54:D4:7E:07:B3:DE:0D:60:3E

            Authority Information Access: 
                OCSP - URI:http://ca.someca-inc.com/ocsp
                CA Issuers - URI:http://ca.someca-inc.com/root

            X509v3 Subject Alternative Name: 
                DNS:example.org
            X509v3 Certificate Policies: 
                Policy: 2.23.140.1.2.2

            X509v3 CRL Distribution Points: 

                Full Name:
                  URI:http://ca.someca-inc.com/crl

            X509v3 Freshest CRL: 

    Signature Algorithm: sha256WithRSAEncryption
         71:36:e7:e1:4b:da:6f:d3:9c:30:aa:fc:a9:13:1e:0c:5c:65:
         5b:b1:0f:1d:82:09:59:2b:16:43:dc:f8:c5:38:a6:b2:ed:64:
         c0:9f:61:c4:5d:b1:7a:3d:d3:03:a2:55:57:a2:58:a1:97:13:
         72:1f:d8:b8:ff:da:8e:0a:9a:61:1f:b5:78:38:8f:35:b1:4d:
         76:3c:9c:5d:31:ed:7a:7d:36:5b:d4:9b:89:53:08:4c:b9:1e:
         94:d6:07:85:53:0f:ae:78:c2:26:98:84:4a:c0:b5:d3:fc:05:
         21:3b:65:26:d3:dc:f2:7b:f3:e7:3e:0e:f2:ec:16:09:be:42:
         aa:1e:d9:d2:b4:02:88:7b:1f:91:d6:c6:50:93:45:2d:e5:1f:
         a6:3f:31:36:c1:bd:85:ed:d6:06:49:ba:13:ea:d8:83:f4:1b:
         a8:61:12:15:7c:0f:24:3f:4c:ef:bf:ad:ea:4e:27:21:16:14:
         43:f1:0c:10:89:d7:a7:5e:a1:fc:16:ab:8f:b5:68:ef:37:51:
         95:4b:4d:7c:a5:59:4c:1e:8c:02:4f:e7:c8:d3:c9:e1:7f:94:
         d7:71:07:7e:3e:82:dc:3f:96:21:59:f5:8c:03:0b:75:be:cc:
         3c:3a:3b:96:20:da:c7:38:54:4e:72:b7:e2:d0:a9:86:46:99:
         09:32:d3:1b
-----BEGIN CERTIFICATE-----
MIIEdTCCA12gAwIBAgIRAN0VZsrTE9ZOdnit6NH4v14wDQYJKoZIhvcNAQELBQAw
QzELMAkGA1UEBhMCWFgxEDAOBgNVBAoTB1NvbWUgQ0ExIjAgBgNVBAMTGUZha2Ug
Q0EgZm9yIHpsaW50IHRlc3RpbmcwHhcNMjUwNjE2MDczMjMyWhcNMjYwNjE2MDcz
MjMyWjBlMQswCQYDVQQGEwJTRTESMBAGA1UECAwJR8O2dGFsYW5kMRIwEAYDVQQH
DAlHw7Z0ZWJvcmcxGDAWBgNVBAoTD1NvbWUgQ29tcGFueSBBQjEUMBIGA1UEAxML
ZXhhbXBsZS5vcmcwggEiMA0GCSqGSIb3DQEBAQUAA4IBDwAwggEKAoIBAQDLN40b
7q1FtgYuv05Obq9Xvja+7fuPvsREgkwKiaK4aLBir2U9JrPoxQM1i53O3Hkbz0MX
n+Ss6tYiR+bGwZZswO7GSBSalhuz2gGSy2AMuKPUfdYY/f/1n5I5EnhMBDgGXsVE
ejTSZiy0bZWb4Y3AuEUkjzZtfHGxf8k3HbdUYnLMfTGotXTo9cyvp3jn0+HfR+IC
74RxlvbOj7ICY7eT9uXy92ce5r95uH+KkxQJpMq8lO8MY/9796bgoe6PYDIWWlCh
qWIC1atyIeHxJu/wbdL4SVfCVxFR2m98w2Kr8zRxi7nHfvsv6gKrvLjgW5EAUAZx
Kc83gldf6jkBTb7nAgMBAAGjggFAMIIBPDAOBgNVHQ8BAf8EBAMCBaAwHQYDVR0l
BBYwFAYIKwYBBQUHAwIGCCsGAQUFBwMBMB0GA1UdDgQWBBSH42rGOtBobbwuKXGg
J0sXnRNZezAfBgNVHSMEGDAWgBTotvZ2S9A75Ual+VTUfgez3g1gPjBkBggrBgEF
BQcBAQRYMFYwKQYIKwYBBQUHMAGGHWh0dHA6Ly9jYS5zb21lY2EtaW5jLmNvbS9v
Y3NwMCkGCCsGAQUFBzAChh1odHRwOi8vY2Euc29tZWNhLWluYy5jb20vcm9vdDAW
BgNVHREEDzANggtleGFtcGxlLm9yZzATBgNVHSAEDDAKMAgGBmeBDAECAjAtBgNV
HR8EJjAkMCKgIKAehhxodHRwOi8vY2Euc29tZWNhLWluYy5jb20vY3JsMAkGA1Ud
LgQCMAAwDQYJKoZIhvcNAQELBQADggEBAHE25+FL2m/TnDCq/KkTHgxcZVuxDx2C
CVkrFkPc+MU4prLtZMCfYcRdsXo90wOiVVeiWKGXE3If2Lj/2o4KmmEftXg4jzWx
TXY8nF0x7Xp9NlvUm4lTCEy5HpTWB4VTD654wiaYhErAtdP8BSE7ZSbT3PJ78+c+
DvLsFgm+Qqoe2dK0Aoh7H5HWxlCTRS3lH6Y/MTbBvYXt1gZJuhPq2IP0G6hhEhV8
DyQ/TO+/repOJyEWFEPxDBCJ16deofwWq4+1aO83UZVLTXylWUwejAJP58jTyeF/
lNdxB34+gtw/liFZ9YwDC3W+zDw6O5Yg2sc4VE5yt+LQqYZGmQky0xs=
-----END CERTIFICATE-----
