Certificate:
    Data:
        Version: 3 (0x2)
        Serial Number:
            db:68:f5:a2:88:67:05:43:93:8f:53:41:52:3c:c1:31
        Signature Algorithm: sha256WithRSAEncryption
        Issuer: C = XX, O = Some CA, CN = Fake Root CA for zlint testing
        Validity
            Not Before: Apr 29 07:47:21 2024 GMT
            Not After : Apr 27 07:47:21 2034 GMT
        Subject: C = XX, ST = Some State, L = Some Locality, O = Some CA, CN = Fake CA for zlint testing
        Subject Public Key Info:
            Public Key Algorithm: rsaEncryption
                RSA Public-Key: (4096 bit)
                Modulus:
                    00:cc:85:e5:66:50:f4:42:73:53:8b:0c:25:c6:22:
                    35:50:b4:74:67:4c:86:7c:b3:f3:ae:b1:5a:d6:93:
                    27:b5:a1:38:14:7d:f2:51:ec:73:2f:d3:df:f0:c0:
                    63:dc:e7:c9:3c:71:79:b2:ad:36:ca:89:c2:b3:28:
                    02:00:77:d9:ad:dd:9b:6e:c9:7c:64:bb:26:3d:df:
                    d2:8f:80:a6:9d:a9:39:95:a9:cc:d8:ee:dc:74:4e:
                    46:9a:bf:de:89:96:44:ea:78:d1:86:a4:51:41:cd:
                    bd:ff:8c:47:5c:be:77:f9:a5:d3:cf:76:13:b6:8e:
                    8d:8f:58:b4:fd:22:3a:26:b9:4a:be:81:0e:17:b6:
                    8d:93:c1:75:19:c8:1e:8a:e9:d9:46:b8:77:9d:2a:
                    60:e5:71:24:04:7b:bb:cb:b6:f0:73:55:cc:66:e7:
                    ab:38:2b:2c:01:b4:f0:38:4f:66:ef:11:b8:ad:fc:
                    ea:6d:d2:86:8f:48:ed:2b:6c:c7:cc:15:27:2f:7f:
                    42:fd:91:4a:5f:40:92:d0:cb:4e:be:3c:55:b2:32:
                    88:d9:18:5e:38:9d:ee:3c:d9:2f:85:a6:f6:66:7d:
                    09:98:76:da:1e:72:d0:b8:76:18:93:f6:e8:43:5a:
                    16:a7:90:df:90:8f:11:66:c0:17:cf:c7:35:09:71:
                    65:b3:64:43:30:85:4d:8e:d6:5d:e5:a3:de:99:72:
                    8f:9c:09:72:71:97:b1:01:96:4b:19:9a:6d:ea:e3:
                    49:e6:19:45:22:f8:26:f2:99:74:74:43:16:ed:2e:
                    0c:81:bb:a8:65:b8:26:a1:7e:7e:89:67:4f:94:7b:
                    c3:f6:d4:0d:3c:2e:c9:e0:eb:9e:3a:65:ef:58:94:
                    69:b3:4a:b4:a7:b9:27:89:c1:e8:45:0e:e7:f5:d1:
                    ac:c2:4b:a6:30:20:83:94:46:17:74:81:89:e0:4b:
                    69:80:82:2f:85:19:f2:dd:00:22:84:03:8f:ee:f6:
                    cb:50:b0:88:12:1d:f2:7a:0e:93:d7:4c:d2:a2:98:
                    37:dc:ef:27:02:4e:9c:e5:64:26:e0:89:9c:5c:0b:
                    9d:23:7b:b6:f7:e5:62:9b:32:6d:96:e9:02:e5:25:
                    f6:4f:9c:8a:fc:46:8e:d8:9a:5d:e0:44:04:c4:23:
                    83:54:6e:1e:35:db:38:2a:4b:1e:e9:75:8f:5a:06:
                    b8:3f:d6:e2:81:df:66:3d:dc:a1:24:8c:16:fa:3d:
                    20:c4:90:1e:92:70:f0:99:c7:3e:cf:96:6f:6e:85:
                    42:e4:4b:bb:94:02:8c:95:c6:57:22:a3:01:ca:74:
                    c5:38:80:db:b9:67:f6:e2:d3:54:6d:80:4b:2f:b1:
                    c2:5e:d7
                Exponent: 65537 (0x10001)
        X509v3 extensions:
            X509v3 Key Usage: critical
                Certificate Sign, CRL Sign
            X509v3 Extended Key Usage: 
                TLS Web Client Authentication, TLS Web Server Authentication
            X509v3 Basic Constraints: critical
                CA:TRUE
            X509v3 Subject Key Identifier: 
                8C:4B:9D:C7:F4:BF:F3:8C:6C:D3:BF:57:22:D9:58:18:7A:79:CB:2F
            X509v3 Authority Key Identifier: 
                keyid:E8:B6:F6:76:4B:D0:3B:E5:46:A5:F9:54:D4:7E:07:B3:DE:0D:60:3E

            Authority Information Access: 
                OCSP - URI:http://ca.someca-inc.com/ocsp
                CA Issuers - URI:http://ca.someca-inc.com/root

            X509v3 Certificate Policies: 
                Policy: X509v3 Any Policy

            X509v3 CRL Distribution Points: 

                Full Name:
                  URI:http://ca.someca-inc.com/crl

    Signature Algorithm: sha256WithRSAEncryption
         31:de:99:68:d6:04:9c:41:79:c9:d0:33:2d:a3:45:2d:72:69:
         9f:dc:de:49:eb:b0:e7:7a:24:a7:f6:89:96:5c:d9:0a:3f:f9:
         15:4f:0f:0f:66:3d:4c:93:01:df:49:99:2e:f5:10:f9:ed:b3:
         21:7a:1e:da:67:82:64:f4:8d:a7:5a:6f:73:4e:e4:29:df:99:
         11:94:61:06:ec:04:7a:c5:f8:fb:8c:3c:0b:23:21:ea:78:b8:
         04:47:c9:0c:0a:9e:43:45:9c:f2:40:08:92:60:b1:76:72:55:
         bc:8d:3e:b7:ce:f3:71:a8:f4:ec:77:66:cb:ff:02:7f:09:8a:
         c7:21:af:75:6a:18:9d:33:4e:5b:81:ea:04:9d:22:dd:49:ba:
         db:65:0f:c6:be:3e:2d:75:52:d5:92:b4:56:da:44:64:80:cf:
         03:1f:17:d0:59:e9:a2:13:a2:ed:86:96:8c:65:2c:4b:b3:a8:
         51:e1:1f:9a:8d:48:ac:65:62:78:60:c7:69:00:d3:21:25:fd:
         27:cb:3e:39:fc:62:41:2a:cf:18:56:88:45:e2:34:79:d6:a0:
         a8:c1:28:af:08:64:e2:ad:4a:2e:b9:ae:2e:39:c0:10:09:5d:
         5b:50:01:e5:77:21:a5:91:db:88:ef:f3:b4:5d:41:dc:6c:c5:
         c7:4e:f4:b8:d2:72:7b:90:04:b7:98:d7:4d:85:36:e3:bb:5e:
         5f:14:fd:6f:fb:c8:2b:ff:fd:c3:20:af:7a:1e:72:a1:71:d9:
         12:cb:f0:dd:c1:9b:b7:8f:d3:45:21:55:3b:90:6f:a2:0c:a0:
         c3:e5:55:6e:ac:be:7d:50:5c:66:e8:f3:a3:19:00:d9:94:86:
         ad:75:ef:7a:b6:54:77:76:65:55:16:8f:7e:e0:40:7b:40:5d:
         0b:de:60:f8:94:c6:9b:f5:31:d6:68:44:7a:6a:f9:6e:ac:f8:
         bc:1b:75:47:57:d9:de:db:a1:f9:50:f4:e2:96:b5:92:9c:bd:
         63:37:c9:49:44:d0:b6:81:2f:3b:50:f8:55:bb:74:69:00:8e:
         35:cc:9c:81:56:55:19:b0:aa:97:2a:d2:5c:74:0e:a6:58:3d:
         78:c1:88:a8:96:6f:f2:68:98:9c:68:91:d0:68:1d:3d:0d:d2:
         7d:56:d8:45:f8:53:aa:d5:8d:85:a8:88:c2:ca:63:cb:55:2a:
         3f:db:68:fb:2a:a9:c4:82:e8:09:eb:15:96:14:75:8e:88:c9:
         20:e3:fa:33:af:81:4d:3a:a8:70:d6:85:bd:98:37:9d:f7:fd:
         ee:a0:83:a7:79:49:99:38:4b:df:34:d2:bc:c0:1a:68:f8:d3:
         32:51:95:6d:26:4b:e1:2d
-----BEGIN CERTIFICATE-----
MIIGcTCCBFmgAwIBAgIRANto9aKIZwVDk49TQVI8wTEwDQYJKoZIhvcNAQELBQAw
SDELMAkGA1UEBhMCWFgxEDAOBgNVBAoTB1NvbWUgQ0ExJzAlBgNVBAMTHkZha2Ug
Um9vdCBDQSBmb3IgemxpbnQgdGVzdGluZzAeFw0yNDA0MjkwNzQ3MjFaFw0zNDA0
MjcwNzQ3MjFaMHAxCzAJBgNVBAYTAlhYMRMwEQYDVQQIEwpTb21lIFN0YXRlMRYw
FAYDVQQHEw1Tb21lIExvY2FsaXR5MRAwDgYDVQQKEwdTb21lIENBMSIwIAYDVQQD
ExlGYWtlIENBIGZvciB6bGludCB0ZXN0aW5nMIICIjANBgkqhkiG9w0BAQEFAAOC
Ag8AMIICCgKCAgEAzIXlZlD0QnNTiwwlxiI1ULR0Z0yGfLPzrrFa1pMntaE4FH3y
UexzL9Pf8MBj3OfJPHF5sq02yonCsygCAHfZrd2bbsl8ZLsmPd/Sj4Cmnak5lanM
2O7cdE5Gmr/eiZZE6njRhqRRQc29/4xHXL53+aXTz3YTto6Nj1i0/SI6JrlKvoEO
F7aNk8F1GcgeiunZRrh3nSpg5XEkBHu7y7bwc1XMZuerOCssAbTwOE9m7xG4rfzq
bdKGj0jtK2zHzBUnL39C/ZFKX0CS0MtOvjxVsjKI2RheOJ3uPNkvhab2Zn0JmHba
HnLQuHYYk/boQ1oWp5DfkI8RZsAXz8c1CXFls2RDMIVNjtZd5aPemXKPnAlycZex
AZZLGZpt6uNJ5hlFIvgm8pl0dEMW7S4MgbuoZbgmoX5+iWdPlHvD9tQNPC7J4Oue
OmXvWJRps0q0p7knicHoRQ7n9dGswkumMCCDlEYXdIGJ4EtpgIIvhRny3QAihAOP
7vbLULCIEh3yeg6T10zSopg33O8nAk6c5WQm4ImcXAudI3u29+VimzJtlukC5SX2
T5yK/EaO2Jpd4EQExCODVG4eNds4Kkse6XWPWga4P9bigd9mPdyhJIwW+j0gxJAe
knDwmcc+z5ZvboVC5Eu7lAKMlcZXIqMBynTFOIDbuWf24tNUbYBLL7HCXtcCAwEA
AaOCASwwggEoMA4GA1UdDwEB/wQEAwIBBjAdBgNVHSUEFjAUBggrBgEFBQcDAgYI
KwYBBQUHAwEwDwYDVR0TAQH/BAUwAwEB/zAdBgNVHQ4EFgQUjEudx/S/84xs079X
ItlYGHp5yy8wHwYDVR0jBBgwFoAU6Lb2dkvQO+VGpflU1H4Hs94NYD4wZAYIKwYB
BQUHAQEEWDBWMCkGCCsGAQUFBzABhh1odHRwOi8vY2Euc29tZWNhLWluYy5jb20v
b2NzcDApBggrBgEFBQcwAoYdaHR0cDovL2NhLnNvbWVjYS1pbmMuY29tL3Jvb3Qw
EQYDVR0gBAowCDAGBgRVHSAAMC0GA1UdHwQmMCQwIqAgoB6GHGh0dHA6Ly9jYS5z
b21lY2EtaW5jLmNvbS9jcmwwDQYJKoZIhvcNAQELBQADggIBADHemWjWBJxBecnQ
My2jRS1yaZ/c3knrsOd6JKf2iZZc2Qo/+RVPDw9mPUyTAd9JmS71EPntsyF6Htpn
gmT0jadab3NO5CnfmRGUYQbsBHrF+PuMPAsjIep4uARHyQwKnkNFnPJACJJgsXZy
VbyNPrfO83Go9Ox3Zsv/An8Jischr3VqGJ0zTluB6gSdIt1JuttlD8a+Pi11UtWS
tFbaRGSAzwMfF9BZ6aITou2GloxlLEuzqFHhH5qNSKxlYnhgx2kA0yEl/SfLPjn8
YkEqzxhWiEXiNHnWoKjBKK8IZOKtSi65ri45wBAJXVtQAeV3IaWR24jv87RdQdxs
xcdO9LjScnuQBLeY102FNuO7Xl8U/W/7yCv//cMgr3oecqFx2RLL8N3Bm7eP00Uh
VTuQb6IMoMPlVW6svn1QXGbo86MZANmUhq1173q2VHd2ZVUWj37gQHtAXQveYPiU
xpv1MdZoRHpq+W6s+LwbdUdX2d7boflQ9OKWtZKcvWM3yUlE0LaBLztQ+FW7dGkA
jjXMnIFWVRmwqpcq0lx0DqZYPXjBiKiWb/JomJxokdBoHT0N0n1W2EX4U6rVjYWo
iMLKY8tVKj/baPsqqcSC6AnrFZYUdY6IySDj+jOvgU06qHDWhb2YN533/e6gg6d5
SZk4S9800rzAGmj40zJRlW0mS+Et
-----END CERTIFICATE-----
