Certificate:
    Data:
        Version: 3 (0x2)
        Serial Number:
            0f:e8:7a:a2:4b:39:37:66:7c:83:4f:45:55
        Signature Algorithm: sha256WithRSAEncryption
        Issuer: CN = Test SubCA 2, OU = Test, O = MTG, C = DE
        Validity
            Not Before: Nov  1 08:03:01 2019 GMT
            Not After : Nov  1 08:03:01 2020 GMT
        Subject: O = MTG, L = Darmstadt, ST = Hessen, C = DE, businessCategory = Private Organization, organizationIdentifier = VATXG-028947476, serialNumber = 028947476, jurisdictionC = XG
        Subject Public Key Info:
            Public Key Algorithm: rsaEncryption
                RSA Public-Key: (2048 bit)
                Modulus:
                    00:c2:0d:81:71:b4:94:05:bc:cf:99:8a:aa:62:08:
                    f2:2e:63:b2:1e:46:f9:2b:85:98:c3:83:d0:ce:26:
                    ad:76:8f:5c:e7:5b:05:20:25:26:32:19:c2:24:8a:
                    ba:69:a3:eb:ca:10:a4:f3:cf:b5:c6:1e:f6:70:58:
                    96:5b:88:52:6a:88:42:33:85:b8:c6:16:48:4f:01:
                    45:39:3f:e1:6a:b9:06:b5:ef:37:db:79:9e:50:90:
                    57:43:5b:8b:c3:35:0d:b3:41:f4:1b:c2:4a:7f:18:
                    3c:39:2d:4f:bf:2b:a5:71:07:73:33:00:e5:8d:36:
                    9e:fe:8f:72:c5:72:56:08:cc:86:b6:ef:ba:e2:fd:
                    9b:5c:c6:2d:94:ed:2d:64:24:77:e6:67:4d:62:db:
                    94:2e:29:8e:dd:1d:7a:ca:bc:68:fb:15:2c:80:56:
                    d3:dd:e7:3a:8f:98:18:14:4b:11:d9:c4:01:1f:b9:
                    7a:d0:d9:ad:69:11:05:f6:0e:ae:5f:fc:cd:c6:b3:
                    cb:4d:ae:8e:45:18:0a:a8:c0:40:11:28:dc:cd:9f:
                    7a:26:67:5a:47:80:9b:d9:4c:f7:da:5f:6d:13:83:
                    1a:91:92:d1:b9:44:f7:72:6b:97:47:74:71:70:80:
                    d3:d6:73:bf:76:33:5c:70:b8:6f:87:37:3e:7e:8e:
                    75:e5
                Exponent: 65537 (0x10001)
        X509v3 extensions:
            X509v3 Authority Key Identifier: 
                keyid:0C:5E:9C:FE:BA:4B:21:6C:04:1D:C2:5A:B7:E3:88:5F:59:DE:4C:12

            X509v3 Subject Key Identifier: 
                0E:6B:AA:83:A9:B2:4D:5C:85:CD:B1:D2:2F:87:F7:20:CB:36:43:3B
            X509v3 Key Usage: critical
                Digital Signature, Key Encipherment
            X509v3 Basic Constraints: critical
                CA:FALSE
            X509v3 Subject Alternative Name: 
                DNS:www.example.com
            Authority Information Access: 
                CA Issuers - URI:http://ca.example.com/ca.crt
                OCSP - URI:http://ocsp.example.com/ocsp

            X509v3 Certificate Policies: 
                Policy: 2.23.140.1.1
                Policy: 1.3.6.1.4.1.7879.13.24.1
                  CPS: http://www.telesec.de/serverpass/cps.html

            X509v3 Extended Key Usage: 
                TLS Web Server Authentication, TLS Web Client Authentication
    Signature Algorithm: sha256WithRSAEncryption
         3f:f3:4d:9f:d8:74:7f:88:4e:4d:83:13:74:20:26:99:61:7b:
         29:ce:81:a7:67:30:80:0c:7b:ba:16:fe:ac:db:ae:86:10:3b:
         91:0d:1a:f5:32:4e:b2:66:00:70:6f:ad:6a:cc:65:4d:be:50:
         65:08:54:63:c5:06:63:83:4a:3a:03:2b:b7:b2:05:3a:e3:53:
         15:cd:16:27:90:43:ed:1a:63:8a:65:f3:de:ae:21:5a:81:e4:
         65:36:fa:c5:23:07:a3:70:b4:fc:25:29:20:2c:fc:a5:7e:49:
         5f:ce:52:8d:af:f2:63:db:2d:f7:12:43:ca:87:dd:a8:7f:48:
         0e:a5:7c:ff:c1:67:4c:75:80:41:94:43:d1:c2:2d:f7:68:87:
         93:0d:77:39:07:f7:6d:4d:13:88:2d:14:99:9b:b4:19:0c:99:
         96:48:ae:45:c3:aa:78:18:47:31:4b:fd:4b:d5:08:ea:39:d3:
         d0:99:b6:99:fb:fa:95:43:18:e4:d7:37:4b:f6:64:4e:7d:7a:
         f8:2c:ec:c1:68:91:f0:01:e3:96:d9:73:8d:c0:20:ab:9a:2c:
         f9:71:36:1f:63:9b:af:eb:99:70:17:bc:62:ef:84:06:7b:51:
         d7:ec:ea:4f:4b:34:1f:b0:e3:25:26:12:95:de:40:59:38:aa:
         17:7d:84:c1
-----BEGIN CERTIFICATE-----
MIIEyTCCA7GgAwIBAgIND+h6oks5N2Z8g09FVTANBgkqhkiG9w0BAQsFADBBMRUw
EwYDVQQDDAxUZXN0IFN1YkNBIDIxDTALBgNVBAsMBFRlc3QxDDAKBgNVBAoMA01U
RzELMAkGA1UEBhMCREUwHhcNMTkxMTAxMDgwMzAxWhcNMjAxMTAxMDgwMzAxWjCB
ojEMMAoGA1UECgwDTVRHMRIwEAYDVQQHDAlEYXJtc3RhZHQxDzANBgNVBAgMBkhl
c3NlbjELMAkGA1UEBhMCREUxHTAbBgNVBA8MFFByaXZhdGUgT3JnYW5pemF0aW9u
MRgwFgYDVQRhDA9WQVRYRy0wMjg5NDc0NzYxEjAQBgNVBAUTCTAyODk0NzQ3NjET
MBEGCysGAQQBgjc8AgEDDAJYRzCCASIwDQYJKoZIhvcNAQEBBQADggEPADCCAQoC
ggEBAMINgXG0lAW8z5mKqmII8i5jsh5G+SuFmMOD0M4mrXaPXOdbBSAlJjIZwiSK
ummj68oQpPPPtcYe9nBYlluIUmqIQjOFuMYWSE8BRTk/4Wq5BrXvN9t5nlCQV0Nb
i8M1DbNB9BvCSn8YPDktT78rpXEHczMA5Y02nv6PcsVyVgjMhrbvuuL9m1zGLZTt
LWQkd+ZnTWLblC4pjt0desq8aPsVLIBW093nOo+YGBRLEdnEAR+5etDZrWkRBfYO
rl/8zcazy02ujkUYCqjAQBEo3M2feiZnWkeAm9lM99pfbRODGpGS0blE93Jrl0d0
cXCA09Zzv3YzXHC4b4c3Pn6OdeUCAwEAAaOCAVwwggFYMB8GA1UdIwQYMBaAFAxe
nP66SyFsBB3CWrfjiF9Z3kwSMB0GA1UdDgQWBBQOa6qDqbJNXIXNsdIvh/cgyzZD
OzAOBgNVHQ8BAf8EBAMCBaAwDAYDVR0TAQH/BAIwADAaBgNVHREEEzARgg93d3cu
ZXhhbXBsZS5jb20wYgYIKwYBBQUHAQEEVjBUMCgGCCsGAQUFBzAChhxodHRwOi8v
Y2EuZXhhbXBsZS5jb20vY2EuY3J0MCgGCCsGAQUFBzABhhxodHRwOi8vb2NzcC5l
eGFtcGxlLmNvbS9vY3NwMFkGA1UdIARSMFAwBwYFZ4EMAQEwRQYKKwYBBAG9Rw0Y
ATA3MDUGCCsGAQUFBwIBFilodHRwOi8vd3d3LnRlbGVzZWMuZGUvc2VydmVycGFz
cy9jcHMuaHRtbDAdBgNVHSUEFjAUBggrBgEFBQcDAQYIKwYBBQUHAwIwDQYJKoZI
hvcNAQELBQADggEBAD/zTZ/YdH+ITk2DE3QgJplheynOgadnMIAMe7oW/qzbroYQ
O5ENGvUyTrJmAHBvrWrMZU2+UGUIVGPFBmODSjoDK7eyBTrjUxXNFieQQ+0aY4pl
896uIVqB5GU2+sUjB6NwtPwlKSAs/KV+SV/OUo2v8mPbLfcSQ8qH3ah/SA6lfP/B
Z0x1gEGUQ9HCLfdoh5MNdzkH921NE4gtFJmbtBkMmZZIrkXDqngYRzFL/UvVCOo5
09CZtpn7+pVDGOTXN0v2ZE59evgs7MFokfAB45bZc43AIKuaLPlxNh9jm6/rmXAX
vGLvhAZ7Udfs6k9LNB+w4yUmEpXeQFk4qhd9hME=
-----END CERTIFICATE-----
