Certificate:
    Data:
        Version: 3 (0x2)
        Serial Number:
            0c:6d:f6:b6:d3:75:2c:33:50:42:41:d5:3d
        Signature Algorithm: sha256WithRSAEncryption
        Issuer: CN = Test SubCA 2, OU = Test, O = MTG, C = DE
        Validity
            Not Before: Nov  1 08:03:01 2019 GMT
            Not After : Nov  1 08:03:01 2020 GMT
        Subject: O = MTG, L = Darmstadt, ST = Hessen, C = DE, businessCategory = Private Organization, organizationIdentifier = ABCDE-12345678, serialNumber = 23.10.2019, jurisdictionC = DE
        Subject Public Key Info:
            Public Key Algorithm: rsaEncryption
                RSA Public-Key: (2048 bit)
                Modulus:
                    00:c2:0d:81:71:b4:94:05:bc:cf:99:8a:aa:62:08:
                    f2:2e:63:b2:1e:46:f9:2b:85:98:c3:83:d0:ce:26:
                    ad:76:8f:5c:e7:5b:05:20:25:26:32:19:c2:24:8a:
                    ba:69:a3:eb:ca:10:a4:f3:cf:b5:c6:1e:f6:70:58:
                    96:5b:88:52:6a:88:42:33:85:b8:c6:16:48:4f:01:
                    45:39:3f:e1:6a:b9:06:b5:ef:37:db:79:9e:50:90:
                    57:43:5b:8b:c3:35:0d:b3:41:f4:1b:c2:4a:7f:18:
                    3c:39:2d:4f:bf:2b:a5:71:07:73:33:00:e5:8d:36:
                    9e:fe:8f:72:c5:72:56:08:cc:86:b6:ef:ba:e2:fd:
                    9b:5c:c6:2d:94:ed:2d:64:24:77:e6:67:4d:62:db:
                    94:2e:29:8e:dd:1d:7a:ca:bc:68:fb:15:2c:80:56:
                    d3:dd:e7:3a:8f:98:18:14:4b:11:d9:c4:01:1f:b9:
                    7a:d0:d9:ad:69:11:05:f6:0e:ae:5f:fc:cd:c6:b3:
                    cb:4d:ae:8e:45:18:0a:a8:c0:40:11:28:dc:cd:9f:
                    7a:26:67:5a:47:80:9b:d9:4c:f7:da:5f:6d:13:83:
                    1a:91:92:d1:b9:44:f7:72:6b:97:47:74:71:70:80:
                    d3:d6:73:bf:76:33:5c:70:b8:6f:87:37:3e:7e:8e:
                    75:e5
                Exponent: 65537 (0x10001)
        X509v3 extensions:
            X509v3 Authority Key Identifier: 
                keyid:0C:5E:9C:FE:BA:4B:21:6C:04:1D:C2:5A:B7:E3:88:5F:59:DE:4C:12

            X509v3 Subject Key Identifier: 
                0E:6B:AA:83:A9:B2:4D:5C:85:CD:B1:D2:2F:87:F7:20:CB:36:43:3B
            X509v3 Key Usage: critical
                Digital Signature, Key Encipherment
            X509v3 Basic Constraints: critical
                CA:FALSE
            X509v3 Subject Alternative Name: 
                DNS:www.example.com
            Authority Information Access: 
                CA Issuers - URI:http://ca.example.com/ca.crt
                OCSP - URI:http://ocsp.example.com/ocsp

            X509v3 Certificate Policies: 
                Policy: 2.23.140.1.1
                Policy: 1.3.6.1.4.1.7879.13.24.1
                  CPS: http://www.telesec.de/serverpass/cps.html

            X509v3 Extended Key Usage: 
                TLS Web Server Authentication, TLS Web Client Authentication
    Signature Algorithm: sha256WithRSAEncryption
         6b:0d:09:77:b4:fc:6c:b8:52:7b:8e:3b:43:27:0f:3b:ef:8c:
         fe:70:19:d5:16:2f:25:e8:cb:96:29:fc:22:4d:20:8d:d1:c4:
         bb:c8:8a:e1:3d:74:d9:9d:c3:99:e0:f0:06:82:e0:69:8d:8d:
         4f:e9:7c:d3:41:b9:8b:fa:13:d3:73:ca:53:1c:6e:10:a3:b7:
         4c:64:eb:11:8e:0a:84:29:b5:82:5f:12:ce:8a:9f:7d:9a:f7:
         c2:9e:82:cf:a7:2b:c5:09:9e:d8:62:92:11:cd:56:c3:3a:b7:
         91:8f:0f:35:d5:d6:2d:77:7e:cb:41:40:fc:2c:55:4c:55:f3:
         22:cf:8b:a8:32:65:0d:31:5a:11:99:7d:1c:6d:e5:9e:9c:ba:
         93:d4:5b:6f:d1:de:ed:6a:13:4a:d9:df:df:8e:41:0c:31:3c:
         72:3c:44:e4:ca:56:c9:7f:81:e5:a0:b5:71:ce:a3:b8:5d:0b:
         be:d4:e9:ba:0a:7d:37:24:86:f0:62:36:f3:24:ae:31:dd:a4:
         23:41:ed:67:de:b8:d0:93:6b:b2:c8:f2:95:c1:cf:03:f8:d7:
         1b:a7:84:b2:42:1c:d6:61:fc:37:6b:94:70:8c:6e:6e:97:27:
         e8:7c:13:6e:96:20:47:98:6f:d6:3f:bf:93:e3:ba:a8:1c:5a:
         59:29:1e:d4
-----BEGIN CERTIFICATE-----
MIIEyTCCA7GgAwIBAgINDG32ttN1LDNQQkHVPTANBgkqhkiG9w0BAQsFADBBMRUw
EwYDVQQDDAxUZXN0IFN1YkNBIDIxDTALBgNVBAsMBFRlc3QxDDAKBgNVBAoMA01U
RzELMAkGA1UEBhMCREUwHhcNMTkxMTAxMDgwMzAxWhcNMjAxMTAxMDgwMzAxWjCB
ojEMMAoGA1UECgwDTVRHMRIwEAYDVQQHDAlEYXJtc3RhZHQxDzANBgNVBAgMBkhl
c3NlbjELMAkGA1UEBhMCREUxHTAbBgNVBA8MFFByaXZhdGUgT3JnYW5pemF0aW9u
MRcwFQYDVQRhDA5BQkNERS0xMjM0NTY3ODETMBEGA1UEBRMKMjMuMTAuMjAxOTET
MBEGCysGAQQBgjc8AgEDDAJERTCCASIwDQYJKoZIhvcNAQEBBQADggEPADCCAQoC
ggEBAMINgXG0lAW8z5mKqmII8i5jsh5G+SuFmMOD0M4mrXaPXOdbBSAlJjIZwiSK
ummj68oQpPPPtcYe9nBYlluIUmqIQjOFuMYWSE8BRTk/4Wq5BrXvN9t5nlCQV0Nb
i8M1DbNB9BvCSn8YPDktT78rpXEHczMA5Y02nv6PcsVyVgjMhrbvuuL9m1zGLZTt
LWQkd+ZnTWLblC4pjt0desq8aPsVLIBW093nOo+YGBRLEdnEAR+5etDZrWkRBfYO
rl/8zcazy02ujkUYCqjAQBEo3M2feiZnWkeAm9lM99pfbRODGpGS0blE93Jrl0d0
cXCA09Zzv3YzXHC4b4c3Pn6OdeUCAwEAAaOCAVwwggFYMB8GA1UdIwQYMBaAFAxe
nP66SyFsBB3CWrfjiF9Z3kwSMB0GA1UdDgQWBBQOa6qDqbJNXIXNsdIvh/cgyzZD
OzAOBgNVHQ8BAf8EBAMCBaAwDAYDVR0TAQH/BAIwADAaBgNVHREEEzARgg93d3cu
ZXhhbXBsZS5jb20wYgYIKwYBBQUHAQEEVjBUMCgGCCsGAQUFBzAChhxodHRwOi8v
Y2EuZXhhbXBsZS5jb20vY2EuY3J0MCgGCCsGAQUFBzABhhxodHRwOi8vb2NzcC5l
eGFtcGxlLmNvbS9vY3NwMFkGA1UdIARSMFAwBwYFZ4EMAQEwRQYKKwYBBAG9Rw0Y
ATA3MDUGCCsGAQUFBwIBFilodHRwOi8vd3d3LnRlbGVzZWMuZGUvc2VydmVycGFz
cy9jcHMuaHRtbDAdBgNVHSUEFjAUBggrBgEFBQcDAQYIKwYBBQUHAwIwDQYJKoZI
hvcNAQELBQADggEBAGsNCXe0/Gy4UnuOO0MnDzvvjP5wGdUWLyXoy5Yp/CJNII3R
xLvIiuE9dNmdw5ng8AaC4GmNjU/pfNNBuYv6E9NzylMcbhCjt0xk6xGOCoQptYJf
Es6Kn32a98Kegs+nK8UJnthikhHNVsM6t5GPDzXV1i13fstBQPwsVUxV8yLPi6gy
ZQ0xWhGZfRxt5Z6cupPUW2/R3u1qE0rZ39+OQQwxPHI8ROTKVsl/geWgtXHOo7hd
C77U6boKfTckhvBiNvMkrjHdpCNB7WfeuNCTa7LI8pXBzwP41xunhLJCHNZh/Ddr
lHCMbm6XJ+h8E26WIEeYb9Y/v5PjuqgcWlkpHtQ=
-----END CERTIFICATE-----
