Certificate:
    Data:
        Version: 3 (0x2)
        Serial Number:
            0c:c5:96:7f:f3:7e:ac:5c:b4:e5:d3:89:2d
        Signature Algorithm: sha256WithRSAEncryption
        Issuer: CN = Test SubCA 2, OU = Test, O = MTG, C = DE
        Validity
            Not Before: Nov  1 08:03:01 2019 GMT
            Not After : Nov  1 08:03:01 2020 GMT
        Subject: O = MTG, L = Darmstadt, ST = Hessen, C = DE, businessCategory = Private Organization, serialNumber = HRB 123456, jurisdictionC = DE, jurisdictionST = Hessen
        Subject Public Key Info:
            Public Key Algorithm: rsaEncryption
                RSA Public-Key: (2048 bit)
                Modulus:
                    00:c2:0d:81:71:b4:94:05:bc:cf:99:8a:aa:62:08:
                    f2:2e:63:b2:1e:46:f9:2b:85:98:c3:83:d0:ce:26:
                    ad:76:8f:5c:e7:5b:05:20:25:26:32:19:c2:24:8a:
                    ba:69:a3:eb:ca:10:a4:f3:cf:b5:c6:1e:f6:70:58:
                    96:5b:88:52:6a:88:42:33:85:b8:c6:16:48:4f:01:
                    45:39:3f:e1:6a:b9:06:b5:ef:37:db:79:9e:50:90:
                    57:43:5b:8b:c3:35:0d:b3:41:f4:1b:c2:4a:7f:18:
                    3c:39:2d:4f:bf:2b:a5:71:07:73:33:00:e5:8d:36:
                    9e:fe:8f:72:c5:72:56:08:cc:86:b6:ef:ba:e2:fd:
                    9b:5c:c6:2d:94:ed:2d:64:24:77:e6:67:4d:62:db:
                    94:2e:29:8e:dd:1d:7a:ca:bc:68:fb:15:2c:80:56:
                    d3:dd:e7:3a:8f:98:18:14:4b:11:d9:c4:01:1f:b9:
                    7a:d0:d9:ad:69:11:05:f6:0e:ae:5f:fc:cd:c6:b3:
                    cb:4d:ae:8e:45:18:0a:a8:c0:40:11:28:dc:cd:9f:
                    7a:26:67:5a:47:80:9b:d9:4c:f7:da:5f:6d:13:83:
                    1a:91:92:d1:b9:44:f7:72:6b:97:47:74:71:70:80:
                    d3:d6:73:bf:76:33:5c:70:b8:6f:87:37:3e:7e:8e:
                    75:e5
                Exponent: 65537 (0x10001)
        X509v3 extensions:
            X509v3 Authority Key Identifier: 
                keyid:0C:5E:9C:FE:BA:4B:21:6C:04:1D:C2:5A:B7:E3:88:5F:59:DE:4C:12

            X509v3 Subject Key Identifier: 
                0E:6B:AA:83:A9:B2:4D:5C:85:CD:B1:D2:2F:87:F7:20:CB:36:43:3B
            X509v3 Key Usage: critical
                Digital Signature, Key Encipherment
            X509v3 Basic Constraints: critical
                CA:FALSE
            X509v3 Subject Alternative Name: 
                DNS:www.example.com
            Authority Information Access: 
                CA Issuers - URI:http://ca.example.com/ca.crt
                OCSP - URI:http://ocsp.example.com/ocsp

            X509v3 Certificate Policies: 
                Policy: 2.23.140.1.1
                Policy: 1.3.6.1.4.1.7879.13.24.1
                  CPS: http://www.telesec.de/serverpass/cps.html

            X509v3 Extended Key Usage: 
                TLS Web Server Authentication, TLS Web Client Authentication
    Signature Algorithm: sha256WithRSAEncryption
         2e:c6:ac:44:0a:17:61:4b:bc:98:30:95:86:86:6f:2d:c5:dc:
         f1:73:91:ac:25:fc:84:61:11:18:a7:6e:ba:23:ff:db:6c:7e:
         d8:e9:4d:7e:b5:05:2c:4f:7c:75:90:46:da:10:e6:21:4a:ed:
         aa:77:2a:e2:00:8b:be:d4:28:df:c4:76:8d:4a:db:bb:8d:e8:
         71:79:09:50:9a:da:ad:aa:6c:26:91:b1:90:df:19:65:15:f8:
         3c:00:32:ea:d1:25:16:4f:9e:c3:ea:ed:bd:8e:f3:f4:84:5c:
         98:d2:bb:08:06:12:d3:3c:20:f9:4d:e3:18:f2:57:08:eb:9b:
         7b:53:3e:9f:12:e5:3a:82:78:b9:13:c2:9f:ce:61:aa:ea:f5:
         4a:98:cc:f5:0a:3e:e8:bc:e5:1f:92:70:d9:54:47:53:6b:04:
         7e:dc:53:a8:23:f7:02:16:14:88:a7:1c:9a:aa:78:22:10:52:
         04:33:0f:1e:eb:59:f5:a0:12:e9:d6:6c:3b:56:68:e5:c5:ba:
         95:f1:71:33:e9:63:e7:9d:6f:02:69:e7:96:08:f7:47:a9:cc:
         27:39:0a:ae:71:c4:85:32:9f:f7:20:c3:8e:c8:32:d5:d9:fb:
         1d:2f:80:e2:1e:13:3e:7c:2a:4a:f3:7d:0e:f5:cd:ee:3d:62:
         1b:53:db:3e
-----BEGIN CERTIFICATE-----
MIIEyTCCA7GgAwIBAgINDMWWf/N+rFy05dOJLTANBgkqhkiG9w0BAQsFADBBMRUw
EwYDVQQDDAxUZXN0IFN1YkNBIDIxDTALBgNVBAsMBFRlc3QxDDAKBgNVBAoMA01U
RzELMAkGA1UEBhMCREUwHhcNMTkxMTAxMDgwMzAxWhcNMjAxMTAxMDgwMzAxWjCB
ojEMMAoGA1UECgwDTVRHMRIwEAYDVQQHDAlEYXJtc3RhZHQxDzANBgNVBAgMBkhl
c3NlbjELMAkGA1UEBhMCREUxHTAbBgNVBA8MFFByaXZhdGUgT3JnYW5pemF0aW9u
MRMwEQYDVQQFEwpIUkIgMTIzNDU2MRMwEQYLKwYBBAGCNzwCAQMMAkRFMRcwFQYL
KwYBBAGCNzwCAQIMBkhlc3NlbjCCASIwDQYJKoZIhvcNAQEBBQADggEPADCCAQoC
ggEBAMINgXG0lAW8z5mKqmII8i5jsh5G+SuFmMOD0M4mrXaPXOdbBSAlJjIZwiSK
ummj68oQpPPPtcYe9nBYlluIUmqIQjOFuMYWSE8BRTk/4Wq5BrXvN9t5nlCQV0Nb
i8M1DbNB9BvCSn8YPDktT78rpXEHczMA5Y02nv6PcsVyVgjMhrbvuuL9m1zGLZTt
LWQkd+ZnTWLblC4pjt0desq8aPsVLIBW093nOo+YGBRLEdnEAR+5etDZrWkRBfYO
rl/8zcazy02ujkUYCqjAQBEo3M2feiZnWkeAm9lM99pfbRODGpGS0blE93Jrl0d0
cXCA09Zzv3YzXHC4b4c3Pn6OdeUCAwEAAaOCAVwwggFYMB8GA1UdIwQYMBaAFAxe
nP66SyFsBB3CWrfjiF9Z3kwSMB0GA1UdDgQWBBQOa6qDqbJNXIXNsdIvh/cgyzZD
OzAOBgNVHQ8BAf8EBAMCBaAwDAYDVR0TAQH/BAIwADAaBgNVHREEEzARgg93d3cu
ZXhhbXBsZS5jb20wYgYIKwYBBQUHAQEEVjBUMCgGCCsGAQUFBzAChhxodHRwOi8v
Y2EuZXhhbXBsZS5jb20vY2EuY3J0MCgGCCsGAQUFBzABhhxodHRwOi8vb2NzcC5l
eGFtcGxlLmNvbS9vY3NwMFkGA1UdIARSMFAwBwYFZ4EMAQEwRQYKKwYBBAG9Rw0Y
ATA3MDUGCCsGAQUFBwIBFilodHRwOi8vd3d3LnRlbGVzZWMuZGUvc2VydmVycGFz
cy9jcHMuaHRtbDAdBgNVHSUEFjAUBggrBgEFBQcDAQYIKwYBBQUHAwIwDQYJKoZI
hvcNAQELBQADggEBAC7GrEQKF2FLvJgwlYaGby3F3PFzkawl/IRhERinbroj/9ts
ftjpTX61BSxPfHWQRtoQ5iFK7ap3KuIAi77UKN/Edo1K27uN6HF5CVCa2q2qbCaR
sZDfGWUV+DwAMurRJRZPnsPq7b2O8/SEXJjSuwgGEtM8IPlN4xjyVwjrm3tTPp8S
5TqCeLkTwp/OYarq9UqYzPUKPui85R+ScNlUR1NrBH7cU6gj9wIWFIinHJqqeCIQ
UgQzDx7rWfWgEunWbDtWaOXFupXxcTPpY+edbwJp55YI90epzCc5Cq5xxIUyn/cg
w47IMtXZ+x0vgOIeEz58KkrzfQ71ze49YhtT2z4=
-----END CERTIFICATE-----
