Certificate:
    Data:
        Version: 3 (0x2)
        Serial Number:
            02:62:35:a7:7d:ac:f7:2a:53:e4:00:0d:67
        Signature Algorithm: sha256WithRSAEncryption
        Issuer: CN = Test SubCA 2, OU = Test, O = MTG, C = DE
        Validity
            Not Before: Nov  1 08:03:01 2019 GMT
            Not After : Nov  1 08:03:01 2020 GMT
        Subject: O = MTG, L = Darmstadt, ST = Hessen, C = DE, businessCategory = Private Organization, organizationIdentifier = NTRDE-12345678, serialNumber = 12345678, jurisdictionC = GB
        Subject Public Key Info:
            Public Key Algorithm: rsaEncryption
                RSA Public-Key: (2048 bit)
                Modulus:
                    00:c2:0d:81:71:b4:94:05:bc:cf:99:8a:aa:62:08:
                    f2:2e:63:b2:1e:46:f9:2b:85:98:c3:83:d0:ce:26:
                    ad:76:8f:5c:e7:5b:05:20:25:26:32:19:c2:24:8a:
                    ba:69:a3:eb:ca:10:a4:f3:cf:b5:c6:1e:f6:70:58:
                    96:5b:88:52:6a:88:42:33:85:b8:c6:16:48:4f:01:
                    45:39:3f:e1:6a:b9:06:b5:ef:37:db:79:9e:50:90:
                    57:43:5b:8b:c3:35:0d:b3:41:f4:1b:c2:4a:7f:18:
                    3c:39:2d:4f:bf:2b:a5:71:07:73:33:00:e5:8d:36:
                    9e:fe:8f:72:c5:72:56:08:cc:86:b6:ef:ba:e2:fd:
                    9b:5c:c6:2d:94:ed:2d:64:24:77:e6:67:4d:62:db:
                    94:2e:29:8e:dd:1d:7a:ca:bc:68:fb:15:2c:80:56:
                    d3:dd:e7:3a:8f:98:18:14:4b:11:d9:c4:01:1f:b9:
                    7a:d0:d9:ad:69:11:05:f6:0e:ae:5f:fc:cd:c6:b3:
                    cb:4d:ae:8e:45:18:0a:a8:c0:40:11:28:dc:cd:9f:
                    7a:26:67:5a:47:80:9b:d9:4c:f7:da:5f:6d:13:83:
                    1a:91:92:d1:b9:44:f7:72:6b:97:47:74:71:70:80:
                    d3:d6:73:bf:76:33:5c:70:b8:6f:87:37:3e:7e:8e:
                    75:e5
                Exponent: 65537 (0x10001)
        X509v3 extensions:
            X509v3 Authority Key Identifier: 
                keyid:0C:5E:9C:FE:BA:4B:21:6C:04:1D:C2:5A:B7:E3:88:5F:59:DE:4C:12

            X509v3 Subject Key Identifier: 
                0E:6B:AA:83:A9:B2:4D:5C:85:CD:B1:D2:2F:87:F7:20:CB:36:43:3B
            X509v3 Key Usage: critical
                Digital Signature, Key Encipherment
            X509v3 Basic Constraints: critical
                CA:FALSE
            X509v3 Subject Alternative Name: 
                DNS:www.example.com
            Authority Information Access: 
                CA Issuers - URI:http://ca.example.com/ca.crt
                OCSP - URI:http://ocsp.example.com/ocsp

            X509v3 Certificate Policies: 
                Policy: 2.23.140.1.1
                Policy: 1.3.6.1.4.1.7879.13.24.1
                  CPS: http://www.telesec.de/serverpass/cps.html

            X509v3 Extended Key Usage: 
                TLS Web Server Authentication, TLS Web Client Authentication
    Signature Algorithm: sha256WithRSAEncryption
         5f:b4:a1:1e:4c:7e:39:f0:ce:fd:66:b8:5f:f6:fa:05:f3:04:
         c6:22:1e:40:12:e0:3c:25:3f:db:37:6c:10:0e:ec:aa:7a:a9:
         9e:fd:0b:94:5f:b0:88:bb:65:b0:b0:f6:f3:f0:21:5e:d9:0d:
         52:28:f3:39:80:c9:53:1a:e7:db:fd:b7:a1:6b:8c:c2:5a:a3:
         3c:35:76:f8:b7:f8:52:34:39:03:f7:6d:ba:b3:91:56:de:54:
         f7:4f:36:c3:47:09:7e:7b:29:2b:b0:85:03:58:42:18:ca:f8:
         3a:24:8e:e0:2b:fe:75:d9:06:de:4e:7d:77:d6:52:24:52:40:
         67:b9:9f:5b:ee:43:77:70:f4:34:7a:48:9c:ac:29:3c:16:36:
         73:df:f1:f6:d6:6e:c1:76:f4:93:17:43:a6:05:4b:1e:4d:ca:
         c7:dd:ac:ca:c2:a9:f6:00:7f:d1:01:eb:49:98:8f:56:ec:74:
         04:85:4b:a7:3c:a3:3e:75:25:bf:35:05:03:f4:1d:43:32:cf:
         5c:f1:6d:7c:bc:e5:a7:9e:be:41:7f:34:bb:93:22:31:87:f4:
         dd:ef:bc:10:7f:21:a5:31:a0:5e:62:8a:bb:ba:85:e3:8d:2f:
         02:b1:57:7e:02:f6:e1:a5:d6:be:e3:b8:3d:8d:94:3d:e0:77:
         32:83:de:a8
-----BEGIN CERTIFICATE-----
MIIExzCCA6+gAwIBAgINAmI1p32s9ypT5AANZzANBgkqhkiG9w0BAQsFADBBMRUw
EwYDVQQDDAxUZXN0IFN1YkNBIDIxDTALBgNVBAsMBFRlc3QxDDAKBgNVBAoMA01U
RzELMAkGA1UEBhMCREUwHhcNMTkxMTAxMDgwMzAxWhcNMjAxMTAxMDgwMzAxWjCB
oDEMMAoGA1UECgwDTVRHMRIwEAYDVQQHDAlEYXJtc3RhZHQxDzANBgNVBAgMBkhl
c3NlbjELMAkGA1UEBhMCREUxHTAbBgNVBA8MFFByaXZhdGUgT3JnYW5pemF0aW9u
MRcwFQYDVQRhDA5OVFJERS0xMjM0NTY3ODERMA8GA1UEBRMIMTIzNDU2NzgxEzAR
BgsrBgEEAYI3PAIBAwwCR0IwggEiMA0GCSqGSIb3DQEBAQUAA4IBDwAwggEKAoIB
AQDCDYFxtJQFvM+ZiqpiCPIuY7IeRvkrhZjDg9DOJq12j1znWwUgJSYyGcIkirpp
o+vKEKTzz7XGHvZwWJZbiFJqiEIzhbjGFkhPAUU5P+FquQa17zfbeZ5QkFdDW4vD
NQ2zQfQbwkp/GDw5LU+/K6VxB3MzAOWNNp7+j3LFclYIzIa277ri/Ztcxi2U7S1k
JHfmZ01i25QuKY7dHXrKvGj7FSyAVtPd5zqPmBgUSxHZxAEfuXrQ2a1pEQX2Dq5f
/M3Gs8tNro5FGAqowEARKNzNn3omZ1pHgJvZTPfaX20TgxqRktG5RPdya5dHdHFw
gNPWc792M1xwuG+HNz5+jnXlAgMBAAGjggFcMIIBWDAfBgNVHSMEGDAWgBQMXpz+
ukshbAQdwlq344hfWd5MEjAdBgNVHQ4EFgQUDmuqg6myTVyFzbHSL4f3IMs2Qzsw
DgYDVR0PAQH/BAQDAgWgMAwGA1UdEwEB/wQCMAAwGgYDVR0RBBMwEYIPd3d3LmV4
YW1wbGUuY29tMGIGCCsGAQUFBwEBBFYwVDAoBggrBgEFBQcwAoYcaHR0cDovL2Nh
LmV4YW1wbGUuY29tL2NhLmNydDAoBggrBgEFBQcwAYYcaHR0cDovL29jc3AuZXhh
bXBsZS5jb20vb2NzcDBZBgNVHSAEUjBQMAcGBWeBDAEBMEUGCisGAQQBvUcNGAEw
NzA1BggrBgEFBQcCARYpaHR0cDovL3d3dy50ZWxlc2VjLmRlL3NlcnZlcnBhc3Mv
Y3BzLmh0bWwwHQYDVR0lBBYwFAYIKwYBBQUHAwEGCCsGAQUFBwMCMA0GCSqGSIb3
DQEBCwUAA4IBAQBftKEeTH458M79Zrhf9voF8wTGIh5AEuA8JT/bN2wQDuyqeqme
/QuUX7CIu2WwsPbz8CFe2Q1SKPM5gMlTGufb/beha4zCWqM8NXb4t/hSNDkD9226
s5FW3lT3TzbDRwl+eykrsIUDWEIYyvg6JI7gK/512QbeTn131lIkUkBnuZ9b7kN3
cPQ0ekicrCk8FjZz3/H21m7BdvSTF0OmBUseTcrH3azKwqn2AH/RAetJmI9W7HQE
hUunPKM+dSW/NQUD9B1DMs9c8W18vOWnnr5BfzS7kyIxh/Td77wQfyGlMaBeYoq7
uoXjjS8CsVd+Avbhpda+47g9jZQ94Hcyg96o
-----END CERTIFICATE-----
