Certificate:
    Data:
        Version: 3 (0x2)
        Serial Number:
            47:e2:00:00:00:00:03:28:18:08:ab:b3:7c:1b:4a:0a
        Signature Algorithm: sha256WithRSAEncryption
        Issuer: C = TW, O = TAIWAN-CA, OU = Global EVSSL Sub-CA, CN = TWCA Global EVSSL Certification Authority
        Validity
            Not Before: Jan 19 11:17:14 2018 GMT
            Not After : Mar 14 15:59:59 2020 GMT
        Subject: C = TW, ST = Taiwan, L = Taipei, O = Taiwan Mobile Co. Ltd., OU = "Taiwan Mobile Co., Ltd.", CN = mystore.myfone.com.tw, businessCategory = Private Organization, jurisdictionL = Taipei City, jurisdictionST = Taiwan, jurisdictionC = Taiwan, serialNumber = 97176270, street = "12F., No.88, Yanchang Rd., Xinyi Dist., Taipei City 110, Taiwan (R.O.C)", postalCode = 110
        Subject Public Key Info:
            Public Key Algorithm: rsaEncryption
                RSA Public-Key: (2048 bit)
                Modulus:
                    00:e9:9b:44:36:36:8f:c0:d2:96:99:27:cf:a0:f2:
                    2b:12:a1:dc:a8:71:cc:27:77:3c:0c:62:c3:ed:2d:
                    c3:47:3b:0c:eb:10:7c:6a:15:6f:d9:ed:d6:da:f4:
                    17:d1:10:33:ac:b3:81:8e:7a:d7:07:aa:f0:27:3e:
                    50:ac:cc:47:2d:f4:bd:8f:0b:be:74:c8:bb:25:c8:
                    3b:75:4e:5a:52:ca:b2:19:82:d8:5f:37:0d:0a:a9:
                    31:5c:ff:8d:a3:04:a2:01:0b:6e:26:32:32:92:29:
                    56:4f:d7:41:a8:bf:ab:65:87:da:aa:a4:b3:95:d4:
                    74:df:2d:62:26:33:29:fd:9e:f5:a7:c5:03:11:e2:
                    d3:93:6c:53:6c:6e:6e:d6:0c:9c:13:9b:ab:2c:6b:
                    60:65:3b:c5:ef:74:87:cf:31:94:b6:e0:0e:3e:15:
                    d9:cb:6d:48:ac:54:f5:14:e9:48:65:b1:30:f1:65:
                    7f:78:bb:08:4a:15:79:5a:72:29:d4:06:42:09:5a:
                    58:4e:59:03:17:34:43:3c:8e:65:1d:e4:11:f4:11:
                    8c:85:d5:f7:18:d7:cf:63:2e:56:d0:94:21:ca:4d:
                    a0:67:f6:1e:32:e3:bf:68:df:9f:d1:63:2c:0a:ab:
                    ca:4f:78:04:bd:80:ef:e1:b2:5b:7d:44:ec:04:fc:
                    57:01
                Exponent: 65537 (0x10001)
        X509v3 extensions:
            X509v3 Authority Key Identifier: 
                keyid:6E:BD:A1:2B:CE:E4:C2:D5:28:74:5C:BD:D9:8C:6F:04:72:2A:06:DE

            X509v3 Subject Key Identifier: 
                9D:F9:40:97:FA:1A:E7:AE:A2:26:A7:C9:C7:7E:E8:6A:EE:50:46:10
            X509v3 CRL Distribution Points: 

                Full Name:
                  URI:http://sslserver.twca.com.tw/sslserver/GlobalEVSSL_Revoke_2012.crl

            X509v3 Subject Alternative Name: 
                DNS:mystore.myfone.com.tw
            Authority Information Access: 
                CA Issuers - URI:http://sslserver.twca.com.tw/cacert/GlobalEvssl_2012.p7b
                OCSP - URI:http://evsslocsp.twca.com.tw/

            X509v3 Certificate Policies: 
                Policy: 1.3.6.1.4.1.40869.1.1.22.3
                  CPS: http://www.twca.com.tw

            X509v3 Basic Constraints: 
                CA:FALSE
            X509v3 Key Usage: critical
                Digital Signature, Key Encipherment
            X509v3 Extended Key Usage: 
                TLS Web Server Authentication, TLS Web Client Authentication
            CT Precertificate SCTs: 
                Signed Certificate Timestamp:
                    Version   : v1 (0x0)
                    Log ID    : EE:4B:BD:B7:75:CE:60:BA:E1:42:69:1F:AB:E1:9E:66:
                                A3:0F:7E:5F:B0:72:D8:83:00:C4:7B:89:7A:A8:FD:CB
                    Timestamp : Jan 19 11:17:16.442 2018 GMT
                    Extensions: none
                    Signature : ecdsa-with-SHA256
                                30:44:02:20:7B:28:8B:91:D7:41:D8:C1:DB:96:2F:05:
                                9E:0E:ED:79:24:EB:94:64:EB:2B:1B:41:7D:DE:AA:1B:
                                A6:8B:78:72:02:20:16:FC:AA:59:EC:55:FE:59:66:38:
                                44:1F:0B:A8:0F:8A:46:79:01:D2:B6:BD:70:91:B6:DD:
                                4D:31:AA:EC:EC:B0
                Signed Certificate Timestamp:
                    Version   : v1 (0x0)
                    Log ID    : BB:D9:DF:BC:1F:8A:71:B5:93:94:23:97:AA:92:7B:47:
                                38:57:95:0A:AB:52:E8:1A:90:96:64:36:8E:1E:D1:85
                    Timestamp : Jan 19 11:17:15.883 2018 GMT
                    Extensions: none
                    Signature : ecdsa-with-SHA256
                                30:44:02:20:06:DE:91:CA:10:E2:8C:02:1E:6A:A2:87:
                                9A:F1:F1:FD:42:61:16:0A:A3:ED:76:54:70:49:B6:1E:
                                F6:56:42:F4:02:20:0F:37:0F:44:9C:CC:42:E4:43:84:
                                03:38:1D:5C:34:F6:B3:C6:5D:53:B9:15:0F:F0:D7:1B:
                                5B:C5:73:1B:DD:57
                Signed Certificate Timestamp:
                    Version   : v1 (0x0)
                    Log ID    : DD:EB:1D:2B:7A:0D:4F:A6:20:8B:81:AD:81:68:70:7E:
                                2E:8E:9D:01:D5:5C:88:8D:3D:11:C4:CD:B6:EC:BE:CC
                    Timestamp : Jan 19 11:17:15.888 2018 GMT
                    Extensions: none
                    Signature : ecdsa-with-SHA256
                                30:44:02:20:51:19:74:72:20:8C:47:0D:48:AF:2B:BB:
                                76:BB:FF:70:8B:05:5B:BF:96:7B:6F:B9:7E:85:2A:32:
                                A9:29:2B:18:02:20:44:86:52:80:1D:49:28:5C:39:99:
                                52:F6:45:5E:0F:FA:02:8E:E2:B7:80:3A:FC:AC:22:3F:
                                24:98:F8:1A:37:3D
                Signed Certificate Timestamp:
                    Version   : v1 (0x0)
                    Log ID    : A4:B9:09:90:B4:18:58:14:87:BB:13:A2:CC:67:70:0A:
                                3C:35:98:04:F9:1B:DF:B8:E3:77:CD:0E:C8:0D:DC:10
                    Timestamp : Jan 19 11:17:15.699 2018 GMT
                    Extensions: none
                    Signature : ecdsa-with-SHA256
                                30:46:02:21:00:D9:E9:43:8F:8A:8A:88:26:AE:55:8F:
                                75:74:9D:D7:13:3D:95:1C:18:C8:DD:C6:3D:1C:76:FF:
                                A9:F8:84:4C:FA:02:21:00:82:FE:C4:86:E0:E2:2E:B0:
                                AB:2D:3D:A9:5D:DE:3D:B8:07:1D:D4:35:52:75:4C:07:
                                4C:71:91:60:E8:17:58:1D
    Signature Algorithm: sha256WithRSAEncryption
         a0:c8:44:3f:6d:b0:22:7f:1a:93:f6:56:c5:78:05:96:7d:c7:
         1e:a6:84:1c:28:ab:d3:a7:6b:bd:57:81:15:b7:52:e2:f6:68:
         52:4f:98:0e:76:7c:27:bd:e1:6b:3d:47:f4:fe:da:4e:fe:44:
         84:58:d4:a2:5c:82:ab:a2:fd:de:4a:fd:a4:2a:b5:29:cd:c4:
         12:fd:96:0b:36:87:17:41:74:f5:75:d3:f2:45:12:95:c7:aa:
         0c:18:d5:9a:aa:f3:0e:31:ba:54:25:a5:a4:ee:6e:97:0b:30:
         3c:61:73:16:0c:eb:bd:23:7f:63:e3:a6:a9:72:61:24:bb:72:
         76:50:05:72:3b:e0:d2:1d:f4:b1:b3:db:38:ad:48:af:73:42:
         37:04:0b:93:bb:ef:a2:82:09:8c:f2:aa:43:37:45:7c:7a:a0:
         b8:04:43:bf:06:8a:f4:6f:d8:81:df:f0:9e:de:24:d5:66:85:
         c0:8d:0e:49:b7:d4:e0:a6:cc:04:c9:af:7d:c4:30:62:94:0c:
         12:1c:1b:dd:e7:62:20:8e:5d:98:5c:3e:88:aa:8b:c5:8f:ce:
         0e:1d:7c:3c:fa:2e:e1:97:35:80:dc:84:fa:1e:36:37:d1:40:
         75:65:60:87:36:f1:66:d6:69:09:6a:d8:0b:12:27:75:d8:2b:
         5f:56:46:cf
-----BEGIN CERTIFICATE-----
MIIIJDCCBwygAwIBAgIQR+IAAAAAAygYCKuzfBtKCjANBgkqhkiG9w0BAQsFADBz
MQswCQYDVQQGEwJUVzESMBAGA1UEChMJVEFJV0FOLUNBMRwwGgYDVQQLExNHbG9i
YWwgRVZTU0wgU3ViLUNBMTIwMAYDVQQDEylUV0NBIEdsb2JhbCBFVlNTTCBDZXJ0
aWZpY2F0aW9uIEF1dGhvcml0eTAeFw0xODAxMTkxMTE3MTRaFw0yMDAzMTQxNTU5
NTlaMIIBdDELMAkGA1UEBhMCVFcxDzANBgNVBAgTBlRhaXdhbjEPMA0GA1UEBxMG
VGFpcGVpMR8wHQYDVQQKExZUYWl3YW4gTW9iaWxlIENvLiBMdGQuMSAwHgYDVQQL
ExdUYWl3YW4gTW9iaWxlIENvLiwgTHRkLjEeMBwGA1UEAxMVbXlzdG9yZS5teWZv
bmUuY29tLnR3MR0wGwYDVQQPExRQcml2YXRlIE9yZ2FuaXphdGlvbjEcMBoGCysG
AQQBgjc8AgEBEwtUYWlwZWkgQ2l0eTEXMBUGCysGAQQBgjc8AgECEwZUYWl3YW4x
FzAVBgsrBgEEAYI3PAIBAxMGVGFpd2FuMREwDwYDVQQFEwg5NzE3NjI3MDFQME4G
A1UECRNHMTJGLiwgTm8uODgsIFlhbmNoYW5nIFJkLiwgWGlueWkgRGlzdC4sIFRh
aXBlaSBDaXR5IDExMCwgVGFpd2FuIChSLk8uQykxDDAKBgNVBBETAzExMDCCASIw
DQYJKoZIhvcNAQEBBQADggEPADCCAQoCggEBAOmbRDY2j8DSlpknz6DyKxKh3Khx
zCd3PAxiw+0tw0c7DOsQfGoVb9nt1tr0F9EQM6yzgY561weq8Cc+UKzMRy30vY8L
vnTIuyXIO3VOWlLKshmC2F83DQqpMVz/jaMEogELbiYyMpIpVk/XQai/q2WH2qqk
s5XUdN8tYiYzKf2e9afFAxHi05NsU2xubtYMnBObqyxrYGU7xe90h88xlLbgDj4V
2cttSKxU9RTpSGWxMPFlf3i7CEoVeVpyKdQGQglaWE5ZAxc0QzyOZR3kEfQRjIXV
9xjXz2MuVtCUIcpNoGf2HjLjv2jfn9FjLAqryk94BL2A7+GyW31E7AT8VwECAwEA
AaOCA68wggOrMB8GA1UdIwQYMBaAFG69oSvO5MLVKHRcvdmMbwRyKgbeMB0GA1Ud
DgQWBBSd+UCX+hrnrqImp8nHfuhq7lBGEDBTBgNVHR8ETDBKMEigRqBEhkJodHRw
Oi8vc3Nsc2VydmVyLnR3Y2EuY29tLnR3L3NzbHNlcnZlci9HbG9iYWxFVlNTTF9S
ZXZva2VfMjAxMi5jcmwwIAYDVR0RBBkwF4IVbXlzdG9yZS5teWZvbmUuY29tLnR3
MH8GCCsGAQUFBwEBBHMwcTBEBggrBgEFBQcwAoY4aHR0cDovL3NzbHNlcnZlci50
d2NhLmNvbS50dy9jYWNlcnQvR2xvYmFsRXZzc2xfMjAxMi5wN2IwKQYIKwYBBQUH
MAGGHWh0dHA6Ly9ldnNzbG9jc3AudHdjYS5jb20udHcvMD8GA1UdIAQ4MDYwNAYM
KwYBBAGCvyUBARYDMCQwIgYIKwYBBQUHAgEWFmh0dHA6Ly93d3cudHdjYS5jb20u
dHcwCQYDVR0TBAIwADAOBgNVHQ8BAf8EBAMCBaAwHQYDVR0lBBYwFAYIKwYBBQUH
AwEGCCsGAQUFBwMCMIIB9AYKKwYBBAHWeQIEAgSCAeQEggHgAd4AdQDuS723dc5g
uuFCaR+r4Z5mow9+X7By2IMAxHuJeqj9ywAAAWEOIxgaAAAEAwBGMEQCIHsoi5HX
QdjB25YvBZ4O7Xkk65Rk6ysbQX3eqhumi3hyAiAW/KpZ7FX+WWY4RB8LqA+KRnkB
0ra9cJG23U0xquzssAB1ALvZ37wfinG1k5Qjl6qSe0c4V5UKq1LoGpCWZDaOHtGF
AAABYQ4jFesAAAQDAEYwRAIgBt6RyhDijAIeaqKHmvHx/UJhFgqj7XZUcEm2HvZW
QvQCIA83D0SczELkQ4QDOB1cNPazxl1TuRUP8NcbW8VzG91XAHUA3esdK3oNT6Yg
i4GtgWhwfi6OnQHVXIiNPRHEzbbsvswAAAFhDiMV8AAABAMARjBEAiBRGXRyIIxH
DUivK7t2u/9wiwVbv5Z7b7l+hSoyqSkrGAIgRIZSgB1JKFw5mVL2RV4P+gKO4reA
OvysIj8kmPgaNz0AdwCkuQmQtBhYFIe7E6LMZ3AKPDWYBPkb37jjd80OyA3cEAAA
AWEOIxUzAAAEAwBIMEYCIQDZ6UOPioqIJq5Vj3V0ndcTPZUcGMjdxj0cdv+p+IRM
+gIhAIL+xIbg4i6wqy09qV3ePbgHHdQ1UnVMB0xxkWDoF1gdMA0GCSqGSIb3DQEB
CwUAA4IBAQCgyEQ/bbAifxqT9lbFeAWWfccepoQcKKvTp2u9V4EVt1Li9mhST5gO
dnwnveFrPUf0/tpO/kSEWNSiXIKrov3eSv2kKrUpzcQS/ZYLNocXQXT1ddPyRRKV
x6oMGNWaqvMOMbpUJaWk7m6XCzA8YXMWDOu9I39j46apcmEku3J2UAVyO+DSHfSx
s9s4rUivc0I3BAuTu++iggmM8qpDN0V8eqC4BEO/Bor0b9iB3/Ce3iTVZoXAjQ5J
t9TgpswEya99xDBilAwSHBvd52Igjl2YXD6IqovFj84OHXw8+i7hlzWA3IT6HjY3
0UB1ZWCHNvFm1mkJatgLEid12CtfVkbP
-----END CERTIFICATE-----
