Certificate:
    Data:
        Version: 3 (0x2)
        Serial Number: 18008675309 (0x4316693ed)
    Signature Algorithm: sha256WithRSAEncryption
        Issuer: C = US, O = Mother Nature, OU = Everything, CN = Mother Nature
        Validity
            Not Before: Jul  1 21:20:44 2016 GMT
            Not After : Sep 13 21:20:44 2016 GMT
        Subject: C = US, O = Extreme Discord, OU = Chaos, L = Tallahassee, ST = FL, street = 3210 Holly Mill Run, postalCode = 30062, CN = gov.us
        Subject Public Key Info:
            Public Key Algorithm: rsaEncryption
                Public-Key: (15 bit)
                Modulus: 23456 (0x5ba0)
                Exponent: 65537 (0x10001)
        X509v3 extensions:
            X509v3 Key Usage: critical
                Digital Signature, Key Encipherment
            X509v3 Extended Key Usage: 
                TLS Web Client Authentication, TLS Web Server Authentication
            X509v3 Basic Constraints: critical
                CA:FALSE
            X509v3 Authority Key Identifier: 
                keyid:01:02:03

            Authority Information Access: 
                OCSP - URI:http://theca.net/ocsp
                CA Issuers - URI:http://theca.net/totallythecert.crt

            X509v3 Certificate Policies: 
                Policy: 2.23.140.1.2.2

            X509v3 Subject Key Identifier: 
                04:03:02:01
            X509v3 Subject Alternative Name: 
                DNS:*.gov.us, DNS:gov.us
    Signature Algorithm: sha256WithRSAEncryption
         00:4f:01:2a:48:15:8f:d8:a0:77:43:e3:2b:12:47:8d:78:11:
         bd:b6:21:71:50:89:8e:b2:b3:ac:02:04:74:21:db:0c:7a:d3:
         9f:8a:c4:e7:f3:c9:49:9e:84:b5:3b:24:db:aa:39:da:67:bf:
         bb:39:b0:34:61:d0:0c:7e:14:43:0b:5b:7e:0a:98:d2:02:55:
         c5:d1:8f:81:83:ef:89:ad:64:b3:d1:b1:61:d5:ed:89:5d:60:
         43:53:fa:33:54:6c:cf:49:42:ed:76:63:1e:81:09:15:28:b4:
         eb:44:3f:88:03:2f:15:7d:7a:40:9f:fc:6d:d0:42:94:d3:27:
         70:05:b1:90:57:3b:94:94:6f:a7:2c:17:76:e7:27:8e:26:98:
         fb:73:b5:81:9e:2d:6a:01:3a:81:0b:3c:6d:30:0c:87:f1:35:
         66:5f:7a:9f:a2:b0:ab:2d:a0:85:ce:0d:0e:e5:69:5b:61:f2:
         0c:1a:a9:fc:1d:48:68:43:75:da:f5:66:56:5b:f0:0c:5d:87:
         bd:34:1d:42:64:7c:81:c0:54:89:e6:b1:5b:ad:4b:18:94:bd:
         a1:d4:af:18:23:21:02:78:4c:3b:34:f2:c3:00:f3:c9:64:61:
         29:f7:06:4e:c7:55:8e:d1:1a:86:0d:94:0e:15:7c:84:c4:0a:
         ee:85:e6:59
-----BEGIN CERTIFICATE-----
MIIDWjCCAkKgAwIBAgIFBDFmk+0wDQYJKoZIhvcNAQELBQAwUjELMAkGA1UEBhMC
VVMxFjAUBgNVBAoTDU1vdGhlciBOYXR1cmUxEzARBgNVBAsTCkV2ZXJ5dGhpbmcx
FjAUBgNVBAMTDU1vdGhlciBOYXR1cmUwHhcNMTYwNzAxMjEyMDQ0WhcNMTYwOTEz
MjEyMDQ0WjCBmTELMAkGA1UEBhMCVVMxGDAWBgNVBAoTD0V4dHJlbWUgRGlzY29y
ZDEOMAwGA1UECxMFQ2hhb3MxFDASBgNVBAcTC1RhbGxhaGFzc2VlMQswCQYDVQQI
EwJGTDEcMBoGA1UECRMTMzIxMCBIb2xseSBNaWxsIFJ1bjEOMAwGA1UEERMFMzAw
NjIxDzANBgNVBAMTBmdvdi51czAdMA0GCSqGSIb3DQEBAQUAAwwAMAkCAlugAgMB
AAGjgfUwgfIwDgYDVR0PAQH/BAQDAgWgMB0GA1UdJQQWMBQGCCsGAQUFBwMCBggr
BgEFBQcDATAMBgNVHRMBAf8EAjAAMA4GA1UdIwQHMAWAAwECAzBiBggrBgEFBQcB
AQRWMFQwIQYIKwYBBQUHMAGGFWh0dHA6Ly90aGVjYS5uZXQvb2NzcDAvBggrBgEF
BQcwAoYjaHR0cDovL3RoZWNhLm5ldC90b3RhbGx5dGhlY2VydC5jcnQwEwYDVR0g
BAwwCjAIBgZngQwBAgIwDQYDVR0OBAYEBAQDAgEwGwYDVR0RBBQwEoIIKi5nb3Yu
dXOCBmdvdi51czANBgkqhkiG9w0BAQsFAAOCAQEAAE8BKkgVj9igd0PjKxJHjXgR
vbYhcVCJjrKzrAIEdCHbDHrTn4rE5/PJSZ6EtTsk26o52me/uzmwNGHQDH4UQwtb
fgqY0gJVxdGPgYPvia1ks9GxYdXtiV1gQ1P6M1Rsz0lC7XZjHoEJFSi060Q/iAMv
FX16QJ/8bdBClNMncAWxkFc7lJRvpywXducnjiaY+3O1gZ4tagE6gQs8bTAMh/E1
Zl96n6Kwqy2ghc4NDuVpW2HyDBqp/B1IaEN12vVmVlvwDF2HvTQdQmR8gcBUieax
W61LGJS9odSvGCMhAnhMOzTywwDzyWRhKfcGTsdVjtEahg2UDhV8hMQK7oXmWQ==
-----END CERTIFICATE-----
