Certificate:
    Data:
        Version: 3 (0x2)
        Serial Number: 13532442345576906889 (0xbbcce49d8790c089)
    Signature Algorithm: sha256WithRSAEncryption
        Issuer:
            commonName                = UTF8STRING:Camerfirma Corporate Server II - 2015
            localityName              = UTF8STRING:Madrid (see current address at https://www.camerfirma.com/address)
            serialNumber              = PRINTABLESTRING:A82743287
            organizationName          = UTF8STRING:AC Camerfirma S.A.
            organizationalUnitName    = UTF8STRING:AC CAMERFIRMA
            countryName               = PRINTABLESTRING:ES
        Validity
            Not Before: Feb 24 12:37:55 2017 GMT
            Not After : Feb 24 12:37:55 2019 GMT
        Subject:
            commonName                = UTF8STRING:www.tralles.de
            organizationName          = UTF8STRING:TRALLES GMBH
            organizationalUnitName    = UTF8STRING:IT
            organizationalUnitName    = UTF8STRING:IT
            serialNumber              = PRINTABLESTRING:HRB136274
            businessCategory          = UTF8STRING:Private Organization
            stateOrProvinceName       = UTF8STRING:HAMBURG
            localityName              = UTF8STRING:HAMBURG
            streetAddress             = UTF8STRING:ALSTERKAMP 32B
            postalCode                = UTF8STRING:20149
        Subject Public Key Info:
            Public Key Algorithm: rsaEncryption
                Public-Key: (2048 bit)
                Modulus:
                    00:e6:20:ba:8b:15:d1:f9:41:c2:eb:e9:13:92:6b:
                    da:9c:80:b4:25:e0:eb:d3:62:36:fe:44:6e:f9:43:
                    e5:df:43:3b:9c:04:b4:79:33:ec:22:f1:12:ec:fb:
                    ad:96:da:35:98:ec:3b:04:4d:ab:50:b7:b2:a2:bf:
                    dd:ce:4f:a1:0f:88:22:b8:fc:a1:ce:88:d1:5a:8e:
                    e1:e1:fd:c2:e6:53:66:a0:12:f0:7b:24:c5:fc:05:
                    ec:de:82:fe:b7:03:74:67:25:be:e5:da:2e:c2:84:
                    68:9e:55:60:4b:5c:8a:90:2b:52:5a:3f:e4:bf:17:
                    04:be:27:71:47:ee:0f:f7:85:5c:cd:0e:5f:9b:6f:
                    31:d3:5d:b6:39:63:84:85:03:c7:84:e3:e2:28:95:
                    f7:ec:40:a6:a4:29:15:63:16:28:67:b8:20:5f:44:
                    ad:c8:7e:29:32:30:c0:95:3f:ed:8f:57:ad:e7:6d:
                    77:e6:ab:21:c1:4d:e0:41:df:18:a9:6f:10:3d:51:
                    f5:74:26:f2:a5:c2:21:61:3f:f3:14:7b:c4:5a:39:
                    f5:98:98:eb:b6:0d:cd:04:06:46:e1:61:6a:75:09:
                    bc:f3:be:21:35:51:0f:33:74:b2:96:73:e5:92:80:
                    b9:27:d2:d3:e5:f7:f7:14:b2:99:f4:0d:c9:22:3d:
                    70:19
                Exponent: 65537 (0x10001)
        X509v3 extensions:
            X509v3 Basic Constraints: critical
                CA:FALSE
            X509v3 Key Usage: critical
                Digital Signature, Key Encipherment
            X509v3 Extended Key Usage:
                TLS Web Client Authentication, TLS Web Server Authentication
            X509v3 Subject Key Identifier:
                A8:60:8E:8D:44:65:56:B5:0D:FF:EF:5D:EC:83:62:CD:1B:5F:97:23
            CT Precertificate Poison: critical
                ..
            Authority Information Access:
                CA Issuers - URI:http://www.camerfirma.com/certs/camerfirma_cserverii-2015.crt
                OCSP - URI:http://ocsp.camerfirma.com

            X509v3 Authority Key Identifier:
                keyid:63:E9:F0:F0:56:00:68:65:B0:21:6C:0E:5C:D7:19:08:9D:08:34:65
                DirName:/C=EU/L=Madrid (see current address at www.camerfirma.com/address)/serialNumber=A82743287/O=AC Camerfirma S.A./CN=Chambers of Commerce Root - 2008
                serial:62:1F:F3:1C:48:9B:A1:36

            X509v3 CRL Distribution Points:

                Full Name:
                  URI:http://crl.camerfirma.com/camerfirma_cserverii-2015.crl

                Full Name:
                  URI:http://crl1.camerfirma.com/camerfirma_cserverii-2015.crl

            X509v3 Subject Alternative Name:
                DNS:www.tralles.de, DNS:www.tralles.net, DNS:www.tralles.mobi, DNS:www.tralles.org, DNS:www.tralles.gmbh, DNS:www.tralles.biz, DNS:www.tralles.info, DNS:www.tralles.company, DNS:mail.tralles.de, DNS:mail.tralles.net, DNS:autodiscover.tralles.de, DNS:autodiscover.tralles.net, DNS:autodiscover.tralles.mobi, DNS:autodiscover.tralles.org, DNS:autodiscover.tralles.gmbh, DNS:autodiscover.tralles.biz, DNS:autodiscover.tralles.info, DNS:autodiscover.tralles.company, DNS:distribute.tralles.de, DNS:distribute.tralles.net, DNS:service.tralles.de, DNS:service.tralles.net, DNS:svn.tralles.de, DNS:svn.tralles.net, DNS:vpn.tralles.de, DNS:vpn.tralles.net, DNS:www.tralles.de
            X509v3 Certificate Policies:
                Policy: 1.3.6.1.4.1.17326.10.14.2.1.2
                  CPS: https://policy.camerfirma.com
                Policy: 2.23.140.1.1

    Signature Algorithm: sha256WithRSAEncryption
         47:fb:b3:fb:1f:b3:80:44:1f:f1:fe:b3:ba:48:57:02:4e:c8:
         f9:fd:09:3e:1b:cb:70:14:43:fc:09:5d:c2:e6:e1:27:63:06:
         1e:d1:2a:ac:40:00:7e:f4:34:27:d9:fa:dc:7a:19:69:59:f1:
         1a:4d:0c:ab:56:3c:e9:b8:7d:7a:6f:7d:ab:b8:cf:bb:48:08:
         f0:93:eb:de:c2:c7:21:66:0e:4e:c4:08:67:ce:7e:14:e7:82:
         13:4b:79:49:22:f2:93:3a:d7:16:78:54:3e:e9:68:41:1d:fe:
         ef:d3:3d:c1:71:25:23:48:59:91:a9:73:ff:7d:97:a6:5a:4e:
         42:e5:38:ca:98:50:94:0c:d4:0f:e2:0b:89:f5:9d:e2:0c:27:
         fe:82:f2:92:50:4e:24:3f:f9:90:e0:14:b5:07:60:7f:77:d6:
         b2:74:0f:1f:cc:c5:26:1a:4b:14:c5:9d:4e:3d:87:7a:87:1c:
         2d:27:22:e9:14:3a:e6:9f:2c:b3:2f:93:86:49:15:12:cd:c2:
         cb:c0:4a:a2:ff:34:59:9a:c6:02:e1:88:da:7c:57:31:58:34:
         3a:d5:52:44:04:ba:dd:e1:00:08:ea:28:76:5b:48:63:d2:ac:
         b3:f1:d1:02:b8:91:2f:7a:9f:fd:49:6d:ee:46:44:d8:10:a0:
         41:b0:d9:3d:3e:6c:52:05:38:7f:9c:56:4c:50:a3:f4:f7:cd:
         14:8c:1a:ec:da:8f:60:b1:e9:90:2f:7f:d9:0f:37:fd:c8:f3:
         2e:66:4e:14:99:85:b5:84:1d:55:a7:d7:f0:d9:9a:4f:ab:d3:
         79:2c:fd:7b:75:8b:1f:08:74:61:03:f0:b9:db:3e:09:17:07:
         c7:dd:81:b2:03:55:10:46:af:bc:af:72:c9:35:e6:73:51:4d:
         dd:62:f3:8e:7b:92:59:b9:d6:f0:55:5e:5f:86:05:86:4f:6d:
         b6:ed:45:b5:cd:3f:8b:a6:92:fa:e5:c9:c4:4d:4c:b0:69:c0:
         16:1b:3e:74:1b:ed:50:7c:e2:22:e6:81:fd:dd:e8:77:13:27:
         1e:0e:64:cb:a5:ba:f3:38:4b:c1:fe:b8:a3:50:8e:45:71:8e:
         26:50:2f:64:e0:75:62:e3:9b:48:b3:e4:d4:8a:4c:ce:37:86:
         3f:4d:63:62:a1:17:10:f9:0a:50:95:e0:b3:ff:2b:f5:fa:3e:
         e3:ee:15:96:37:3d:9b:f8:f5:24:eb:48:5d:03:b0:e2:55:38:
         34:af:5d:c7:af:b4:3f:24:b2:6e:d7:7e:3f:bf:72:ce:b2:44:
         72:e4:46:73:e0:4a:d5:29:15:b5:f3:fc:dc:68:7f:8d:0e:f4:
         bb:74:ac:61:95:e5:b5:a8

-----BEGIN CERTIFICATE-----
MIIKIjCCCAqgAwIBAgIJALvM5J2HkMCJMA0GCSqGSIb3DQEBCwUAMIHTMQswCQYD
VQQGEwJFUzEWMBQGA1UECwwNQUMgQ0FNRVJGSVJNQTEbMBkGA1UECgwSQUMgQ2Ft
ZXJmaXJtYSBTLkEuMRIwEAYDVQQFEwlBODI3NDMyODcxSzBJBgNVBAcMQk1hZHJp
ZCAoc2VlIGN1cnJlbnQgYWRkcmVzcyBhdCBodHRwczovL3d3dy5jYW1lcmZpcm1h
LmNvbS9hZGRyZXNzKTEuMCwGA1UEAwwlQ2FtZXJmaXJtYSBDb3Jwb3JhdGUgU2Vy
dmVyIElJIC0gMjAxNTAeFw0xNzAyMjQxMjM3NTVaFw0xOTAyMjQxMjM3NTVaMIHK
MQ4wDAYDVQQRDAUyMDE0OTEXMBUGA1UECQwOQUxTVEVSS0FNUCAzMkIxEDAOBgNV
BAcMB0hBTUJVUkcxEDAOBgNVBAgMB0hBTUJVUkcxHTAbBgNVBA8MFFByaXZhdGUg
T3JnYW5pemF0aW9uMRIwEAYDVQQFEwlIUkIxMzYyNzQxCzAJBgNVBAsMAklUMQsw
CQYDVQQLDAJJVDEVMBMGA1UECgwMVFJBTExFUyBHTUJIMRcwFQYDVQQDDA53d3cu
dHJhbGxlcy5kZTCCASIwDQYJKoZIhvcNAQEBBQADggEPADCCAQoCggEBAOYguosV
0flBwuvpE5Jr2pyAtCXg69NiNv5EbvlD5d9DO5wEtHkz7CLxEuz7rZbaNZjsOwRN
q1C3sqK/3c5PoQ+IIrj8oc6I0VqO4eH9wuZTZqAS8HskxfwF7N6C/rcDdGclvuXa
LsKEaJ5VYEtcipArUlo/5L8XBL4ncUfuD/eFXM0OX5tvMdNdtjljhIUDx4Tj4iiV
9+xApqQpFWMWKGe4IF9Erch+KTIwwJU/7Y9Xredtd+arIcFN4EHfGKlvED1R9XQm
8qXCIWE/8xR7xFo59ZiY67YNzQQGRuFhanUJvPO+ITVRDzN0spZz5ZKAuSfS0+X3
9xSymfQNySI9cBkCAwEAAaOCBP4wggT6MAwGA1UdEwEB/wQCMAAwDgYDVR0PAQH/
BAQDAgWgMB0GA1UdJQQWMBQGCCsGAQUFBwMCBggrBgEFBQcDATAdBgNVHQ4EFgQU
qGCOjURlVrUN/+9d7INizRtflyMwEwYKKwYBBAHWeQIEAwEB/wQCBQAwgYEGCCsG
AQUFBwEBBHUwczBJBggrBgEFBQcwAoY9aHR0cDovL3d3dy5jYW1lcmZpcm1hLmNv
bS9jZXJ0cy9jYW1lcmZpcm1hX2NzZXJ2ZXJpaS0yMDE1LmNydDAmBggrBgEFBQcw
AYYaaHR0cDovL29jc3AuY2FtZXJmaXJtYS5jb20wgeIGA1UdIwSB2jCB14AUY+nw
8FYAaGWwIWwOXNcZCJ0INGWhgbSkgbEwga4xCzAJBgNVBAYTAkVVMUMwQQYDVQQH
EzpNYWRyaWQgKHNlZSBjdXJyZW50IGFkZHJlc3MgYXQgd3d3LmNhbWVyZmlybWEu
Y29tL2FkZHJlc3MpMRIwEAYDVQQFEwlBODI3NDMyODcxGzAZBgNVBAoTEkFDIENh
bWVyZmlybWEgUy5BLjEpMCcGA1UEAxMgQ2hhbWJlcnMgb2YgQ29tbWVyY2UgUm9v
dCAtIDIwMDiCCGIf8xxIm6E2MIGJBgNVHR8EgYEwfzA9oDugOYY3aHR0cDovL2Ny
bC5jYW1lcmZpcm1hLmNvbS9jYW1lcmZpcm1hX2NzZXJ2ZXJpaS0yMDE1LmNybDA+
oDygOoY4aHR0cDovL2NybDEuY2FtZXJmaXJtYS5jb20vY2FtZXJmaXJtYV9jc2Vy
dmVyaWktMjAxNS5jcmwwggI+BgNVHREEggI1MIICMYIOd3d3LnRyYWxsZXMuZGWC
D3d3dy50cmFsbGVzLm5ldIIQd3d3LnRyYWxsZXMubW9iaYIPd3d3LnRyYWxsZXMu
b3JnghB3d3cudHJhbGxlcy5nbWJogg93d3cudHJhbGxlcy5iaXqCEHd3dy50cmFs
bGVzLmluZm+CE3d3dy50cmFsbGVzLmNvbXBhbnmCD21haWwudHJhbGxlcy5kZYIQ
bWFpbC50cmFsbGVzLm5ldIIXYXV0b2Rpc2NvdmVyLnRyYWxsZXMuZGWCGGF1dG9k
aXNjb3Zlci50cmFsbGVzLm5ldIIZYXV0b2Rpc2NvdmVyLnRyYWxsZXMubW9iaYIY
YXV0b2Rpc2NvdmVyLnRyYWxsZXMub3JnghlhdXRvZGlzY292ZXIudHJhbGxlcy5n
bWJoghhhdXRvZGlzY292ZXIudHJhbGxlcy5iaXqCGWF1dG9kaXNjb3Zlci50cmFs
bGVzLmluZm+CHGF1dG9kaXNjb3Zlci50cmFsbGVzLmNvbXBhbnmCFWRpc3RyaWJ1
dGUudHJhbGxlcy5kZYIWZGlzdHJpYnV0ZS50cmFsbGVzLm5ldIISc2VydmljZS50
cmFsbGVzLmRlghNzZXJ2aWNlLnRyYWxsZXMubmV0gg5zdm4udHJhbGxlcy5kZYIP
c3ZuLnRyYWxsZXMubmV0gg52cG4udHJhbGxlcy5kZYIPdnBuLnRyYWxsZXMubmV0
gg53d3cudHJhbGxlcy5kZTBQBgNVHSAESTBHMDwGDSsGAQQBgYcuCg4CAQIwKzAp
BggrBgEFBQcCARYdaHR0cHM6Ly9wb2xpY3kuY2FtZXJmaXJtYS5jb20wBwYFZ4EM
AQEwDQYJKoZIhvcNAQELBQADggIBAEf7s/sfs4BEH/H+s7pIVwJOyPn9CT4by3AU
Q/wJXcLm4SdjBh7RKqxAAH70NCfZ+tx6GWlZ8RpNDKtWPOm4fXpvfau4z7tICPCT
697CxyFmDk7ECGfOfhTnghNLeUki8pM61xZ4VD7paEEd/u/TPcFxJSNIWZGpc/99
l6ZaTkLlOMqYUJQM1A/iC4n1neIMJ/6C8pJQTiQ/+ZDgFLUHYH931rJ0Dx/MxSYa
SxTFnU49h3qHHC0nIukUOuafLLMvk4ZJFRLNwsvASqL/NFmaxgLhiNp8VzFYNDrV
UkQEut3hAAjqKHZbSGPSrLPx0QK4kS96n/1Jbe5GRNgQoEGw2T0+bFIFOH+cVkxQ
o/T3zRSMGuzaj2Cx6ZAvf9kPN/3I8y5mThSZhbWEHVWn1/DZmk+r03ks/Xt1ix8I
dGED8LnbPgkXB8fdgbIDVRBGr7yvcsk15nNRTd1i8457klm51vBVXl+GBYZPbbbt
RbXNP4umkvrlycRNTLBpwBYbPnQb7VB84iLmgf3d6HcTJx4OZMuluvM4S8H+uKNQ
jkVxjiZQL2TgdWLjm0iz5NSKTM43hj9NY2KhFxD5ClCV4LP/K/X6PuPuFZY3PZv4
9STrSF0DsOJVODSvXcevtD8ksm7Xfj+/cs6yRHLkRnPgStUpFbXz/Nxof40O9Lt0
rGGV5bWo
-----END CERTIFICATE-----
