Certificate:
    Data:
        Version: 3 (0x2)
        Serial Number: 3 (0x3)
        Signature Algorithm: ecdsa-with-SHA256
        Issuer: 
        Validity
            Not Before: Jan  1 00:00:00 1 GMT
            Not After : Nov 30 00:00:00 9998 GMT
        Subject: CN = example.com, O = Example Inc., ST = CA, C = US
        Subject Public Key Info:
            Public Key Algorithm: id-ecPublicKey
                Public-Key: (256 bit)
                pub:
                    04:11:44:2f:16:91:23:22:26:1f:a8:c9:15:70:e1:
                    ec:f6:c7:73:b4:5f:c1:27:65:89:67:0d:c8:d9:a2:
                    8d:15:80:bf:7a:d7:69:5b:c3:0a:c1:e6:9a:58:e0:
                    4d:49:83:a4:22:af:fd:32:a9:35:19:ef:50:71:fa:
                    08:2b:1e:48:d2
                ASN1 OID: prime256v1
                NIST CURVE: P-256
        X509v3 extensions:
            X509v3 Subject Alternative Name: 
                DNS:example.com, IP Address:198.51.100.1
            X509v3 Certificate Policies: 
                Policy: 2.23.140.1.1

    Signature Algorithm: ecdsa-with-SHA256
         30:44:02:20:48:81:e2:d8:b5:0c:d9:eb:68:66:2c:41:0a:90:
         9b:3f:d0:21:f1:7c:aa:8b:81:45:24:3a:9b:f4:20:e8:d0:12:
         02:20:56:18:fb:cd:f7:9a:b1:f4:1a:ae:6f:02:68:9b:f6:06:
         5a:7b:6c:cc:98:da:36:6a:bb:ac:51:4d:9e:ba:07:57
-----BEGIN CERTIFICATE-----
MIIBbTCCARSgAwIBAgIBAzAKBggqhkjOPQQDAjAAMCIYDzAwMDEwMTAxMDAwMDAw
WhgPOTk5ODExMzAwMDAwMDBaMEcxFDASBgNVBAMTC2V4YW1wbGUuY29tMRUwEwYD
VQQKEwxFeGFtcGxlIEluYy4xCzAJBgNVBAgTAkNBMQswCQYDVQQGEwJVUzBZMBMG
ByqGSM49AgEGCCqGSM49AwEHA0IABBFELxaRIyImH6jJFXDh7PbHc7RfwSdliWcN
yNmijRWAv3rXaVvDCsHmmljgTUmDpCKv/TKpNRnvUHH6CCseSNKjNDAyMBwGA1Ud
EQQVMBOCC2V4YW1wbGUuY29thwTGM2QBMBIGA1UdIAQLMAkwBwYFZ4EMAQEwCgYI
KoZIzj0EAwIDRwAwRAIgSIHi2LUM2etoZixBCpCbP9Ah8Xyqi4FFJDqb9CDo0BIC
IFYY+833mrH0Gq5vAmib9gZae2zMmNo2arusUU2eugdX
-----END CERTIFICATE-----