Certificate:
    Data:
        Version: 3 (0x2)
        Serial Number: 3 (0x3)
        Signature Algorithm: ecdsa-with-SHA256
        Issuer:
        Validity
            Not Before: Jan  1 00:00:00 1 GMT
            Not After : Nov 30 00:00:00 9998 GMT
        Subject: CN = example.com, O = Example Inc., ST = CA, C = US
        Subject Public Key Info:
            Public Key Algorithm: id-ecPublicKey
                Public-Key: (256 bit)
                pub:
                    04:e3:61:a6:16:b1:62:5d:5b:0c:a9:c9:cf:e9:ba:
                    67:e6:1f:d3:bc:36:b7:ec:5d:5d:61:bb:cc:2e:ab:
                    2d:13:19:d4:94:70:89:76:a9:61:04:7b:3f:6d:bf:
                    b8:21:69:12:e1:89:3c:b5:32:ac:ae:e1:86:c8:8e:
                    c7:8f:fa:8c:3e
                ASN1 OID: prime256v1
                NIST CURVE: P-256
        X509v3 extensions:
            X509v3 Subject Alternative Name:
                DNS:example.com, IP Address:1.1.1.1
            X509v3 Certificate Policies:
                Policy: 2.23.140.1.1

    Signature Algorithm: ecdsa-with-SHA256
         30:45:02:21:00:f9:ef:8b:dd:06:12:22:1c:8b:e4:49:00:c2:
         c3:0b:bc:88:17:70:8c:99:f2:5a:65:57:1d:50:1c:d8:a5:46:
         83:02:20:38:ff:bc:c2:f2:a3:e3:5a:be:0b:51:51:5c:06:0f:
         d8:90:4c:dc:fe:82:04:89:8d:a4:e6:d1:95:be:c9:db:4f
-----BEGIN CERTIFICATE-----
MIIBbjCCARSgAwIBAgIBAzAKBggqhkjOPQQDAjAAMCIYDzAwMDEwMTAxMDAwMDAw
WhgPOTk5ODExMzAwMDAwMDBaMEcxFDASBgNVBAMTC2V4YW1wbGUuY29tMRUwEwYD
VQQKEwxFeGFtcGxlIEluYy4xCzAJBgNVBAgTAkNBMQswCQYDVQQGEwJVUzBZMBMG
ByqGSM49AgEGCCqGSM49AwEHA0IABONhphaxYl1bDKnJz+m6Z+Yf07w2t+xdXWG7
zC6rLRMZ1JRwiXapYQR7P22/uCFpEuGJPLUyrK7hhsiOx4/6jD6jNDAyMBwGA1Ud
EQQVMBOCC2V4YW1wbGUuY29thwQBAQEBMBIGA1UdIAQLMAkwBwYFZ4EMAQEwCgYI
KoZIzj0EAwIDSAAwRQIhAPnvi90GEiIci+RJAMLDC7yIF3CMmfJaZVcdUBzYpUaD
AiA4/7zC8qPjWr4LUVFcBg/YkEzc/oIEiY2k5tGVvsnbTw==
-----END CERTIFICATE-----