Certificate:
    Data:
        Version: 3 (0x2)
        Serial Number: 3 (0x3)
        Signature Algorithm: ecdsa-with-SHA256
        Issuer:
        Validity
            Not Before: Oct 16 20:00:12 2021 GMT
            Not After : Nov 30 00:00:00 9998 GMT
        Subject: CN = a.wildcard.but.with.onion
        Subject Public Key Info:
            Public Key Algorithm: id-ecPublicKey
                Public-Key: (256 bit)
                pub:
                    04:ce:05:6b:c9:18:a9:42:22:ee:91:e7:49:05:01:
                    89:96:6e:49:c8:79:05:4a:6e:67:9e:98:e7:2f:6c:
                    ba:73:cf:f4:1b:60:9a:2b:c7:93:a7:6d:6a:10:51:
                    23:b3:b1:ce:49:a5:12:04:fe:f6:06:f6:3e:d3:46:
                    c3:9a:b1:b3:b0
                ASN1 OID: prime256v1
                NIST CURVE: P-256
        X509v3 extensions:
            X509v3 Certificate Policies:
                Policy: 2.16.840.1.114413.1.7.23.3

    Signature Algorithm: ecdsa-with-SHA256
         30:45:02:20:00:ce:97:c9:9b:50:f9:a8:bc:ac:04:dc:a6:1b:
         cb:f3:64:70:a9:0e:0a:e8:6e:72:57:6a:2b:e2:e4:56:f3:69:
         02:21:00:ff:e3:d2:4b:07:58:58:7a:45:79:f6:06:a8:70:6f:
         0d:7c:62:92:94:8a:7a:ca:c7:76:62:fc:7a:7f:b9:b0:84
-----BEGIN CERTIFICATE-----
MIIBMDCB16ADAgECAgEDMAoGCCqGSM49BAMCMAAwIBcNMjExMDE2MjAwMDEyWhgP
OTk5ODExMzAwMDAwMDBaMCQxIjAgBgNVBAMTGWEud2lsZGNhcmQuYnV0LndpdGgu
b25pb24wWTATBgcqhkjOPQIBBggqhkjOPQMBBwNCAATOBWvJGKlCIu6R50kFAYmW
bknIeQVKbmeemOcvbLpzz/QbYJorx5OnbWoQUSOzsc5JpRIE/vYG9j7TRsOasbOw
oxwwGjAYBgNVHSAEETAPMA0GC2CGSAGG/W0BBxcDMAoGCCqGSM49BAMCA0gAMEUC
IADOl8mbUPmovKwE3KYby/NkcKkOCuhucldqK+LkVvNpAiEA/+PSSwdYWHpFefYG
qHBvDXxikpSKesrHdmL8en+5sIQ=
-----END CERTIFICATE-----
