Certificate:
    Data:
        Version: 3 (0x2)
        Serial Number: 3 (0x3)
        Signature Algorithm: ecdsa-with-SHA256
        Issuer:
        Validity
            Not Before: Oct 16 19:59:29 2021 GMT
            Not After : Nov 30 00:00:00 9998 GMT
        Subject: CN = not.a.wildcard
        Subject Public Key Info:
            Public Key Algorithm: id-ecPublicKey
                Public-Key: (256 bit)
                pub:
                    04:6a:cb:59:95:26:97:c2:2b:dd:d1:41:f0:f0:7c:
                    d5:b2:1d:35:87:76:e6:c2:43:cd:11:e0:e8:78:b4:
                    7f:3d:45:32:81:78:5f:bd:5d:f5:f2:0b:ed:fb:41:
                    e8:af:ce:8f:b7:65:06:e0:08:ac:98:1c:16:f7:90:
                    14:79:f3:48:59
                ASN1 OID: prime256v1
                NIST CURVE: P-256
        X509v3 extensions:
            X509v3 Certificate Policies:
                Policy: 2.16.840.1.114413.1.7.23.3

    Signature Algorithm: ecdsa-with-SHA256
         30:46:02:21:00:f3:1c:29:5e:77:e8:34:2e:08:2b:a9:16:15:
         3c:e3:bb:68:13:4d:67:49:3b:44:8d:14:fa:ad:de:c3:7f:81:
         0f:02:21:00:ff:b1:8b:39:e7:83:a7:76:ed:0f:93:43:6d:06:
         cf:fc:91:92:9f:b2:8c:eb:70:33:f2:6c:16:b1:51:94:68:53
-----BEGIN CERTIFICATE-----
MIIBJjCBzKADAgECAgEDMAoGCCqGSM49BAMCMAAwIBcNMjExMDE2MTk1OTI5WhgP
OTk5ODExMzAwMDAwMDBaMBkxFzAVBgNVBAMTDm5vdC5hLndpbGRjYXJkMFkwEwYH
KoZIzj0CAQYIKoZIzj0DAQcDQgAEastZlSaXwivd0UHw8HzVsh01h3bmwkPNEeDo
eLR/PUUygXhfvV318gvt+0Hor86Pt2UG4AismBwW95AUefNIWaMcMBowGAYDVR0g
BBEwDzANBgtghkgBhv1tAQcXAzAKBggqhkjOPQQDAgNJADBGAiEA8xwpXnfoNC4I
K6kWFTzju2gTTWdJO0SNFPqt3sN/gQ8CIQD/sYs554Ondu0Pk0NtBs/8kZKfsozr
cDPybBaxUZRoUw==
-----END CERTIFICATE-----
