Certificate:
    Data:
        Version: 3 (0x2)
        Serial Number:
            0f:62:f5:2e:c1:39:a2:c7:6a:d1:dc:0d:be
        Signature Algorithm: sha256WithRSAEncryption
        Issuer: CN = Lint Sub CA, OU = Test, O = MTG, C = DE
        Validity
            Not Before: May 19 05:51:01 2018 GMT
            Not After : May 19 02:51:01 2022 GMT
        Subject: CN = lint.mtg.de, OU = Lint, O = MTG, L = Darmstadt, ST = Hesse, C = DE
        Subject Public Key Info:
            Public Key Algorithm: id-ecPublicKey
                Public-Key: (256 bit)
                pub:
                    04:2d:bd:d8:7a:51:f1:33:6a:80:a8:b8:89:16:a5:
                    22:24:9a:f4:32:29:07:1d:ab:c1:8d:b6:fb:17:3e:
                    18:5e:09:df:23:df:14:dd:86:b0:82:9c:84:49:bc:
                    fb:64:6a:29:2e:28:08:2a:74:13:60:22:f2:fb:cf:
                    74:2e:a3:25:e2
                ASN1 OID: prime256v1
                NIST CURVE: P-256
        X509v3 extensions:
            X509v3 Authority Key Identifier: 
                keyid:2A:BB:60:14:55:40:25:C4:AC:6C:E4:47:CC:35:27:14:0A:4C:EA:5F

            X509v3 Subject Key Identifier: 
                03:0C:0D:80:69:87:E6:9E:D4:2D:B2:6F:F1:B3:EB:EB:CC:2D:C0:E8
            2.23.140.3.1: 
                0...VAT..DE..HE..9876543
            X509v3 Extended Key Usage: 
                TLS Web Server Authentication, TLS Web Client Authentication
            X509v3 Certificate Policies: 
                Policy: 2.23.140.1.1
                Policy: 1.3.6.1.4.1.7879.13.24.1
                  CPS: http://www.telesec.de/serverpass/cps.html

    Signature Algorithm: sha256WithRSAEncryption
         73:eb:27:82:85:fb:f0:91:32:29:1c:da:c6:f1:d8:17:10:a4:
         4a:bf:22:25:41:d0:cb:e7:79:bd:7d:ec:49:fa:ea:16:90:8b:
         10:86:fe:9e:1d:af:58:7e:13:fb:f6:36:de:f0:68:42:94:32:
         42:a8:9b:52:a4:49:a6:f3:3d:c3:aa:e2:d5:e8:8a:63:80:d9:
         b2:fe:c0:fd:98:75:b6:af:09:8d:dc:20:f4:cd:9b:87:90:4d:
         94:c9:1b:d3:74:24:2f:f9:31:e7:07:b8:7b:8b:09:bf:73:6f:
         75:e8:c6:b0:4a:a5:cb:c6:63:44:fa:08:35:8f:4a:fe:22:41:
         71:0c:f3:d5:d1:70:1a:91:c3:ab:fe:b6:3a:14:d5:e1:98:a2:
         ab:a6:91:0e:ee:c5:20:e1:7a:f0:81:0f:33:4a:e0:0c:e0:7e:
         2c:72:68:cd:af:73:55:bf:5a:97:4a:bb:aa:83:b7:59:17:73:
         55:d6:6a:dc:62:b0:a2:2e:b9:2b:cf:51:01:41:89:a7:82:23:
         a0:a9:db:dc:51:71:ae:80:07:28:40:dc:02:7f:1a:8b:18:0e:
         53:42:79:45:03:3b:ee:bc:27:6e:aa:07:5b:3f:e1:34:93:08:
         c4:03:78:4e:08:47:76:f5:98:01:72:3b:56:b7:bf:5b:87:95:
         06:fc:1a:5a
-----BEGIN CERTIFICATE-----
MIIDQTCCAimgAwIBAgIND2L1LsE5osdq0dwNvjANBgkqhkiG9w0BAQsFADBAMRQw
EgYDVQQDDAtMaW50IFN1YiBDQTENMAsGA1UECwwEVGVzdDEMMAoGA1UECgwDTVRH
MQswCQYDVQQGEwJERTAeFw0xODA1MTkwNTUxMDFaFw0yMjA1MTkwMjUxMDFaMGQx
FDASBgNVBAMMC2xpbnQubXRnLmRlMQ0wCwYDVQQLDARMaW50MQwwCgYDVQQKDANN
VEcxEjAQBgNVBAcMCURhcm1zdGFkdDEOMAwGA1UECAwFSGVzc2UxCzAJBgNVBAYT
AkRFMFkwEwYHKoZIzj0CAQYIKoZIzj0DAQcDQgAELb3YelHxM2qAqLiJFqUiJJr0
MikHHavBjbb7Fz4YXgnfI98U3YawgpyESbz7ZGopLigIKnQTYCLy+890LqMl4qOB
4DCB3TAfBgNVHSMEGDAWgBQqu2AUVUAlxKxs5EfMNScUCkzqXzAdBgNVHQ4EFgQU
AwwNgGmH5p7ULbJv8bPr68wtwOgwIQYFZ4EMAwEEGDAWEwNWQVQTAkRFgAJIRQwH
OTg3NjU0MzAdBgNVHSUEFjAUBggrBgEFBQcDAQYIKwYBBQUHAwIwWQYDVR0gBFIw
UDAHBgVngQwBATBFBgorBgEEAb1HDRgBMDcwNQYIKwYBBQUHAgEWKWh0dHA6Ly93
d3cudGVsZXNlYy5kZS9zZXJ2ZXJwYXNzL2Nwcy5odG1sMA0GCSqGSIb3DQEBCwUA
A4IBAQBz6yeChfvwkTIpHNrG8dgXEKRKvyIlQdDL53m9fexJ+uoWkIsQhv6eHa9Y
fhP79jbe8GhClDJCqJtSpEmm8z3DquLV6IpjgNmy/sD9mHW2rwmN3CD0zZuHkE2U
yRvTdCQv+THnB7h7iwm/c2916MawSqXLxmNE+gg1j0r+IkFxDPPV0XAakcOr/rY6
FNXhmKKrppEO7sUg4XrwgQ8zSuAM4H4scmjNr3NVv1qXSruqg7dZF3NV1mrcYrCi
Lrkrz1EBQYmngiOgqdvcUXGugAcoQNwCfxqLGA5TQnlFAzvuvCduqgdbP+E0kwjE
A3hOCEd29ZgBcjtWt79bh5UG/Bpa
-----END CERTIFICATE-----
