Certificate:
    Data:
        Version: 3 (0x2)
        Serial Number:
            09:16:7c:58:0a:36:7c:29:64:14:d7:5f:8f
        Signature Algorithm: sha256WithRSAEncryption
        Issuer: CN = Lint Sub CA, OU = Test, O = MTG, C = DE
        Validity
            Not Before: May 19 02:51:01 2021 GMT
            Not After : May 19 02:51:01 2022 GMT
        Subject: CN = lint.mtg.de, OU = Lint, O = MTG, L = Darmstadt, ST = Hesse, C = DE
        Subject Public Key Info:
            Public Key Algorithm: id-ecPublicKey
                Public-Key: (256 bit)
                pub:
                    04:ba:77:7e:18:89:e9:86:90:00:f2:fb:ba:6f:73:
                    78:1a:2c:da:a7:11:48:76:8f:7c:d5:99:0d:0e:6b:
                    7b:ad:50:aa:16:93:30:69:d5:2f:7d:49:da:a5:26:
                    2e:a8:48:2c:d8:11:70:61:13:07:ec:f0:8b:21:21:
                    fe:b5:a8:3e:ea
                ASN1 OID: prime256v1
                NIST CURVE: P-256
        X509v3 extensions:
            X509v3 Authority Key Identifier: 
                keyid:2A:BB:60:14:55:40:25:C4:AC:6C:E4:47:CC:35:27:14:0A:4C:EA:5F

            X509v3 Subject Key Identifier: 
                D9:B9:A0:C2:69:70:74:90:F4:64:10:26:33:A5:6C:AA:E2:AA:1F:EC
            2.23.140.3.1: 
                0...VAT..D..HE..9876543
            X509v3 Extended Key Usage: 
                TLS Web Server Authentication, TLS Web Client Authentication
            X509v3 Certificate Policies: 
                Policy: 2.23.140.1.1
                Policy: 1.3.6.1.4.1.7879.13.24.1
                  CPS: http://www.telesec.de/serverpass/cps.html

    Signature Algorithm: sha256WithRSAEncryption
         3b:43:bb:81:bc:a3:d6:7b:78:63:37:6b:71:2e:68:22:e6:3e:
         0b:b6:d3:47:4f:51:d3:eb:1b:6f:ca:95:6e:9b:9a:9b:6f:d9:
         72:70:17:6b:c0:84:ad:bf:a3:dc:56:ad:af:86:71:83:3e:74:
         68:1d:04:8c:3f:44:76:61:69:f5:39:33:11:1f:a2:83:92:4d:
         92:40:97:ab:dd:47:1d:ba:a1:c8:e3:bc:bc:80:dc:85:45:98:
         a9:41:da:71:4b:2e:83:af:6a:c8:9c:06:4a:b9:bf:be:e9:33:
         aa:19:89:3f:d6:00:f1:04:d6:fb:11:8c:ae:37:b8:c2:ab:65:
         92:f1:d7:d5:ac:81:2c:30:d1:74:75:d9:db:9f:c6:04:51:a9:
         77:2b:32:39:5f:44:c9:ca:4a:e5:2e:b4:72:ba:2c:67:bd:7c:
         ae:2a:4a:a3:3e:ba:7b:55:02:18:84:90:a8:05:f4:81:49:f3:
         31:49:e7:84:c4:71:10:0f:86:21:3a:17:a9:70:e6:86:5c:90:
         eb:ba:f3:be:cb:c1:28:21:88:33:a1:a1:7c:e9:4c:ec:3c:92:
         1c:2c:e1:44:fc:75:d8:c0:6f:9d:fb:f2:a7:d4:88:6d:a8:16:
         69:ed:3f:7b:76:27:39:2b:08:f9:2a:e9:32:57:81:03:12:18:
         f7:3e:f2:5e
-----BEGIN CERTIFICATE-----
MIIDQDCCAiigAwIBAgINCRZ8WAo2fClkFNdfjzANBgkqhkiG9w0BAQsFADBAMRQw
EgYDVQQDDAtMaW50IFN1YiBDQTENMAsGA1UECwwEVGVzdDEMMAoGA1UECgwDTVRH
MQswCQYDVQQGEwJERTAeFw0yMTA1MTkwMjUxMDFaFw0yMjA1MTkwMjUxMDFaMGQx
FDASBgNVBAMMC2xpbnQubXRnLmRlMQ0wCwYDVQQLDARMaW50MQwwCgYDVQQKDANN
VEcxEjAQBgNVBAcMCURhcm1zdGFkdDEOMAwGA1UECAwFSGVzc2UxCzAJBgNVBAYT
AkRFMFkwEwYHKoZIzj0CAQYIKoZIzj0DAQcDQgAEund+GInphpAA8vu6b3N4Giza
pxFIdo981ZkNDmt7rVCqFpMwadUvfUnapSYuqEgs2BFwYRMH7PCLISH+tag+6qOB
3zCB3DAfBgNVHSMEGDAWgBQqu2AUVUAlxKxs5EfMNScUCkzqXzAdBgNVHQ4EFgQU
2bmgwmlwdJD0ZBAmM6VsquKqH+wwIAYFZ4EMAwEEFzAVEwNWQVQTAUSAAkhFDAc5
ODc2NTQzMB0GA1UdJQQWMBQGCCsGAQUFBwMBBggrBgEFBQcDAjBZBgNVHSAEUjBQ
MAcGBWeBDAEBMEUGCisGAQQBvUcNGAEwNzA1BggrBgEFBQcCARYpaHR0cDovL3d3
dy50ZWxlc2VjLmRlL3NlcnZlcnBhc3MvY3BzLmh0bWwwDQYJKoZIhvcNAQELBQAD
ggEBADtDu4G8o9Z7eGM3a3EuaCLmPgu200dPUdPrG2/KlW6bmptv2XJwF2vAhK2/
o9xWra+GcYM+dGgdBIw/RHZhafU5MxEfooOSTZJAl6vdRx26ocjjvLyA3IVFmKlB
2nFLLoOvasicBkq5v77pM6oZiT/WAPEE1vsRjK43uMKrZZLx19WsgSww0XR12duf
xgRRqXcrMjlfRMnKSuUutHK6LGe9fK4qSqM+untVAhiEkKgF9IFJ8zFJ54TEcRAP
hiE6F6lw5oZckOu6877LwSghiDOhoXzpTOw8khws4UT8ddjAb5378qfUiG2oFmnt
P3t2JzkrCPkq6TJXgQMSGPc+8l4=
-----END CERTIFICATE-----
