Certificate:
    Data:
        Version: 3 (0x2)
        Serial Number:
            02:16:db:47:df:3e:16:a5:a8:12:49:0e:96
        Signature Algorithm: sha256WithRSAEncryption
        Issuer: CN = Lint Sub CA, OU = Test, O = MTG, C = DE
        Validity
            Not Before: May 19 02:51:01 2021 GMT
            Not After : May 19 02:51:01 2022 GMT
        Subject: CN = lint.mtg.de, OU = Lint, O = MTG, L = Darmstadt, ST = Hesse, C = DE
        Subject Public Key Info:
            Public Key Algorithm: id-ecPublicKey
                Public-Key: (256 bit)
                pub:
                    04:a0:39:17:94:d9:55:87:10:78:aa:73:22:85:b3:
                    1b:46:dc:15:b9:d7:b2:7b:99:16:40:8f:c8:5d:9b:
                    3c:84:96:67:46:14:d2:96:a2:38:9c:2d:73:80:78:
                    91:12:46:8f:a9:33:f5:78:06:b7:77:ae:9e:34:4a:
                    61:4d:0d:75:27
                ASN1 OID: prime256v1
                NIST CURVE: P-256
        X509v3 extensions:
            X509v3 Authority Key Identifier: 
                keyid:2A:BB:60:14:55:40:25:C4:AC:6C:E4:47:CC:35:27:14:0A:4C:EA:5F

            X509v3 Subject Key Identifier: 
                84:05:64:FA:33:A4:EF:D1:22:75:70:54:57:3A:31:4D:BE:10:27:2C
            2.23.140.3.1: 
                0...VAT..DE..HE..9876543
            X509v3 Extended Key Usage: 
                TLS Web Server Authentication, TLS Web Client Authentication
            X509v3 Certificate Policies: 
                Policy: 2.23.140.1.1
                Policy: 1.3.6.1.4.1.7879.13.24.1
                  CPS: http://www.telesec.de/serverpass/cps.html

    Signature Algorithm: sha256WithRSAEncryption
         78:f6:f3:4f:8b:1c:c5:34:77:6d:7d:30:40:a8:2a:14:60:52:
         5f:0d:f0:a0:9f:2d:c7:79:b6:1b:a8:02:bc:b4:38:e3:68:3c:
         42:42:43:c9:0f:14:20:77:95:54:f6:d1:6c:94:5c:55:fe:83:
         4b:92:02:f3:70:b1:cc:c5:77:77:e7:1a:f1:70:af:cc:a3:5a:
         9e:8f:2d:1f:40:dd:93:43:63:3c:59:65:90:cf:c0:65:64:b8:
         27:5d:ea:87:6f:2c:f2:78:b9:d8:09:13:cd:94:fd:18:26:e0:
         4a:33:64:3e:f6:a7:6a:ba:e3:28:21:c7:e5:93:2b:f7:b4:bf:
         47:5e:29:34:bc:d9:fa:58:75:90:67:66:c5:1f:a1:ae:66:eb:
         d3:87:b4:56:d9:5d:df:e9:ca:60:63:e1:b4:6e:fa:c4:9d:d6:
         97:fa:69:de:d8:32:0c:ca:51:a5:20:81:dd:2b:bf:ef:48:02:
         8a:d4:ff:f1:3c:7d:e7:95:eb:34:1d:d5:c2:30:94:f3:af:57:
         8e:6a:b5:fb:f0:db:f8:8b:e1:e0:f1:06:eb:94:3e:24:ee:96:
         0d:db:5f:fd:21:f0:7a:72:29:c3:3d:0b:cc:a5:b4:80:c7:58:
         2f:15:70:68:03:a5:44:a9:66:55:96:7a:d3:b0:ef:7a:cd:60:
         f2:13:dc:02
-----BEGIN CERTIFICATE-----
MIIDQTCCAimgAwIBAgINAhbbR98+FqWoEkkOljANBgkqhkiG9w0BAQsFADBAMRQw
EgYDVQQDDAtMaW50IFN1YiBDQTENMAsGA1UECwwEVGVzdDEMMAoGA1UECgwDTVRH
MQswCQYDVQQGEwJERTAeFw0yMTA1MTkwMjUxMDFaFw0yMjA1MTkwMjUxMDFaMGQx
FDASBgNVBAMMC2xpbnQubXRnLmRlMQ0wCwYDVQQLDARMaW50MQwwCgYDVQQKDANN
VEcxEjAQBgNVBAcMCURhcm1zdGFkdDEOMAwGA1UECAwFSGVzc2UxCzAJBgNVBAYT
AkRFMFkwEwYHKoZIzj0CAQYIKoZIzj0DAQcDQgAEoDkXlNlVhxB4qnMihbMbRtwV
udeye5kWQI/IXZs8hJZnRhTSlqI4nC1zgHiREkaPqTP1eAa3d66eNEphTQ11J6OB
4DCB3TAfBgNVHSMEGDAWgBQqu2AUVUAlxKxs5EfMNScUCkzqXzAdBgNVHQ4EFgQU
hAVk+jOk79EidXBUVzoxTb4QJywwIQYFZ4EMAwEEGDAWDANWQVQTAkRFgAJIRQwH
OTg3NjU0MzAdBgNVHSUEFjAUBggrBgEFBQcDAQYIKwYBBQUHAwIwWQYDVR0gBFIw
UDAHBgVngQwBATBFBgorBgEEAb1HDRgBMDcwNQYIKwYBBQUHAgEWKWh0dHA6Ly93
d3cudGVsZXNlYy5kZS9zZXJ2ZXJwYXNzL2Nwcy5odG1sMA0GCSqGSIb3DQEBCwUA
A4IBAQB49vNPixzFNHdtfTBAqCoUYFJfDfCgny3HebYbqAK8tDjjaDxCQkPJDxQg
d5VU9tFslFxV/oNLkgLzcLHMxXd35xrxcK/Mo1qejy0fQN2TQ2M8WWWQz8BlZLgn
XeqHbyzyeLnYCRPNlP0YJuBKM2Q+9qdquuMoIcflkyv3tL9HXik0vNn6WHWQZ2bF
H6GuZuvTh7RW2V3f6cpgY+G0bvrEndaX+mne2DIMylGlIIHdK7/vSAKK1P/xPH3n
les0HdXCMJTzr1eOarX78Nv4i+Hg8QbrlD4k7pYN21/9IfB6cinDPQvMpbSAx1gv
FXBoA6VEqWZVlnrTsO96zWDyE9wC
-----END CERTIFICATE-----
