Certificate:
    Data:
        Version: 3 (0x2)
        Serial Number:
            05:1c:dc:4e:01:1e:34:39:61:a5:a8:7d:b2
        Signature Algorithm: sha256WithRSAEncryption
        Issuer: CN = Lint Sub CA, OU = Test, O = MTG, C = DE
        Validity
            Not Before: May 19 02:51:01 2021 GMT
            Not After : May 19 02:51:01 2022 GMT
        Subject: CN = lint.mtg.de, OU = Lint, O = MTG, L = Darmstadt, ST = Hesse, C = DE
        Subject Public Key Info:
            Public Key Algorithm: id-ecPublicKey
                Public-Key: (256 bit)
                pub:
                    04:37:56:ff:ad:65:31:eb:dc:f9:db:8d:84:ab:ec:
                    bd:e9:5a:99:d8:68:d3:96:76:21:86:4c:16:7d:50:
                    bd:08:0e:16:bb:1c:f4:a4:22:4f:47:ba:50:4f:27:
                    3c:b4:b0:31:13:51:95:e7:87:8a:70:be:8d:46:2b:
                    cc:56:44:c6:4f
                ASN1 OID: prime256v1
                NIST CURVE: P-256
        X509v3 extensions:
            X509v3 Authority Key Identifier: 
                keyid:2A:BB:60:14:55:40:25:C4:AC:6C:E4:47:CC:35:27:14:0A:4C:EA:5F

            X509v3 Subject Key Identifier: 
                B4:7E:58:B6:A1:85:EE:13:99:08:1D:42:FD:49:12:54:7C:3B:08:AF
            2.23.140.3.1: 
                0....VAT..DE...HEHEHEHEHEHEHEHEHEHEHEHEHEHEHEHEHEHEHEHEHEHEHEHEHEHEHEHEHEHEHEHEHEHEHEHEHEHEHEHEHEHEHEHEHEHEHEHEHEHEHEHEHEHEHEHEHEHEHEHEHEHEHEHEE..9876543
            X509v3 Extended Key Usage: 
                TLS Web Server Authentication, TLS Web Client Authentication
            X509v3 Certificate Policies: 
                Policy: 2.23.140.1.1
                Policy: 1.3.6.1.4.1.7879.13.24.1
                  CPS: http://www.telesec.de/serverpass/cps.html

    Signature Algorithm: sha256WithRSAEncryption
         6b:27:da:d4:f8:67:26:f2:85:f4:d1:b4:42:fc:8c:9b:85:3c:
         be:35:ed:28:6c:2d:ec:29:92:00:a6:e9:e8:4a:fb:ca:77:c8:
         7b:d4:b5:1a:a8:1e:b8:a1:8a:38:1a:07:57:43:87:7e:7b:7c:
         94:a2:8e:25:1d:a3:3d:2d:35:b2:52:7e:90:14:90:5b:22:66:
         98:75:94:f7:2d:59:50:ef:91:37:ad:32:c7:28:5f:ed:d6:eb:
         87:9b:26:4b:6c:22:97:d0:74:f9:a8:a7:cd:5b:b3:f2:68:17:
         f0:49:90:36:79:6c:25:66:23:29:c4:8a:13:15:0f:10:f7:d3:
         b3:82:a8:d9:31:85:67:ce:52:62:21:02:8a:b2:df:fc:37:38:
         b8:eb:82:27:48:34:77:5d:12:6b:1c:b2:d7:9f:3d:e4:de:39:
         ec:af:e5:75:86:77:4a:6a:4a:73:c4:88:50:49:80:18:1c:f8:
         27:26:9f:f9:27:2c:cd:e4:be:0b:d1:7d:04:d1:5f:f2:a2:d6:
         12:39:58:17:0d:b9:31:d0:98:e5:8e:ac:88:88:e1:e2:ba:18:
         41:7f:e3:f2:db:31:e0:72:f1:24:c9:b7:63:bf:e7:f7:0b:22:
         4b:bf:af:fa:f2:10:fb:fa:0f:17:13:9f:68:34:2c:a2:52:ba:
         0d:8f:e6:bc
-----BEGIN CERTIFICATE-----
MIIDxjCCAq6gAwIBAgINBRzcTgEeNDlhpah9sjANBgkqhkiG9w0BAQsFADBAMRQw
EgYDVQQDDAtMaW50IFN1YiBDQTENMAsGA1UECwwEVGVzdDEMMAoGA1UECgwDTVRH
MQswCQYDVQQGEwJERTAeFw0yMTA1MTkwMjUxMDFaFw0yMjA1MTkwMjUxMDFaMGQx
FDASBgNVBAMMC2xpbnQubXRnLmRlMQ0wCwYDVQQLDARMaW50MQwwCgYDVQQKDANN
VEcxEjAQBgNVBAcMCURhcm1zdGFkdDEOMAwGA1UECAwFSGVzc2UxCzAJBgNVBAYT
AkRFMFkwEwYHKoZIzj0CAQYIKoZIzj0DAQcDQgAEN1b/rWUx69z5242Eq+y96VqZ
2GjTlnYhhkwWfVC9CA4Wuxz0pCJPR7pQTyc8tLAxE1GV54eKcL6NRivMVkTGT6OC
AWQwggFgMB8GA1UdIwQYMBaAFCq7YBRVQCXErGzkR8w1JxQKTOpfMB0GA1UdDgQW
BBS0fli2oYXuE5kIHUL9SRJUfDsIrzCBowYFZ4EMAwEEgZkwgZYTA1ZBVBMCREWA
gYFIRUhFSEVIRUhFSEVIRUhFSEVIRUhFSEVIRUhFSEVIRUhFSEVIRUhFSEVIRUhF
SEVIRUhFSEVIRUhFSEVIRUhFSEVIRUhFSEVIRUhFSEVIRUhFSEVIRUhFSEVIRUhF
SEVIRUhFSEVIRUhFSEVIRUhFSEVIRUhFSEVIRUhFSEVIRUUMBzk4NzY1NDMwHQYD
VR0lBBYwFAYIKwYBBQUHAwEGCCsGAQUFBwMCMFkGA1UdIARSMFAwBwYFZ4EMAQEw
RQYKKwYBBAG9Rw0YATA3MDUGCCsGAQUFBwIBFilodHRwOi8vd3d3LnRlbGVzZWMu
ZGUvc2VydmVycGFzcy9jcHMuaHRtbDANBgkqhkiG9w0BAQsFAAOCAQEAayfa1Phn
JvKF9NG0QvyMm4U8vjXtKGwt7CmSAKbp6Er7ynfIe9S1GqgeuKGKOBoHV0OHfnt8
lKKOJR2jPS01slJ+kBSQWyJmmHWU9y1ZUO+RN60yxyhf7dbrh5smS2wil9B0+ain
zVuz8mgX8EmQNnlsJWYjKcSKExUPEPfTs4Ko2TGFZ85SYiECirLf/Dc4uOuCJ0g0
d10Saxyy15895N457K/ldYZ3SmpKc8SIUEmAGBz4Jyaf+ScszeS+C9F9BNFf8qLW
EjlYFw25MdCY5Y6siIjh4roYQX/j8tsx4HLxJMm3Y7/n9wsiS7+v+vIQ+/oPFxOf
aDQsolK6DY/mvA==
-----END CERTIFICATE-----
