Certificate:
    Data:
        Version: 3 (0x2)
        Serial Number:
            03:74:c3:a0:5b:e8:ac:69:c1:e0:8d:1b:c7
        Signature Algorithm: sha256WithRSAEncryption
        Issuer: CN = Lint Sub CA, OU = Test, O = MTG, C = DE
        Validity
            Not Before: May 19 02:51:01 2021 GMT
            Not After : May 19 02:51:01 2022 GMT
        Subject: CN = lint.mtg.de, OU = Lint, O = MTG, L = Darmstadt, ST = Hesse, C = DE
        Subject Public Key Info:
            Public Key Algorithm: id-ecPublicKey
                Public-Key: (256 bit)
                pub:
                    04:52:eb:99:8a:45:87:31:db:08:a1:f7:dd:12:2d:
                    58:99:23:17:70:ea:0d:48:dd:9a:60:07:76:3c:55:
                    eb:7a:75:3d:e9:ec:b5:ea:a4:0d:d1:72:fa:8e:b2:
                    7a:c3:8b:8e:4e:f8:dc:4d:a0:6b:d9:50:61:b1:22:
                    33:0d:bb:c9:fc
                ASN1 OID: prime256v1
                NIST CURVE: P-256
        X509v3 extensions:
            X509v3 Authority Key Identifier: 
                keyid:2A:BB:60:14:55:40:25:C4:AC:6C:E4:47:CC:35:27:14:0A:4C:EA:5F

            X509v3 Subject Key Identifier: 
                78:13:1D:40:D4:22:4A:C0:EF:08:C7:85:8C:C5:D4:36:96:EC:4B:F6
            2.23.140.3.1: 
                0...BAT..DE..HE..9876543
            X509v3 Extended Key Usage: 
                TLS Web Server Authentication, TLS Web Client Authentication
            X509v3 Certificate Policies: 
                Policy: 2.23.140.1.1
                Policy: 1.3.6.1.4.1.7879.13.24.1
                  CPS: http://www.telesec.de/serverpass/cps.html

    Signature Algorithm: sha256WithRSAEncryption
         5c:8a:fe:79:2d:bb:21:71:fa:5d:a8:ec:f7:f0:c4:52:be:74:
         12:a2:08:13:53:2c:8c:09:aa:38:37:61:99:f4:0c:74:9f:e5:
         00:52:e1:17:05:d7:ef:5c:12:e4:a6:7e:d8:07:43:38:f9:5d:
         f5:b1:3d:0f:11:b4:cd:12:fc:6b:ae:fa:ce:98:cc:ec:10:c0:
         a5:60:3c:db:2c:9b:58:ce:6a:4f:68:f1:db:12:d3:50:63:ca:
         f7:26:de:16:6e:36:90:39:39:d9:36:68:b0:01:4e:0d:3f:f2:
         69:49:5e:60:67:e8:93:38:c8:92:be:36:a2:6b:69:5f:a2:8d:
         7c:f8:be:de:58:84:81:6a:8c:6b:6a:29:0b:6b:ce:2e:c1:30:
         3f:ab:53:bd:eb:85:b4:3d:87:32:eb:95:48:47:d5:c0:96:2a:
         5a:32:54:5e:8f:e3:79:d5:a9:1f:fc:0c:ef:61:23:30:f2:30:
         39:71:86:c3:63:0a:cc:7a:f2:9c:8e:05:bb:a2:71:dd:69:ce:
         ec:25:9a:f3:34:bf:fe:1a:93:81:43:3a:fe:66:13:d7:c7:0e:
         7c:fa:ce:5d:db:74:6d:4b:84:d0:40:b4:35:51:26:67:2a:00:
         f6:53:d0:e7:4d:fe:c1:8d:b8:5b:6c:a8:6d:d5:3f:01:a3:1e:
         6a:2f:7f:13
-----BEGIN CERTIFICATE-----
MIIDQTCCAimgAwIBAgINA3TDoFvorGnB4I0bxzANBgkqhkiG9w0BAQsFADBAMRQw
EgYDVQQDDAtMaW50IFN1YiBDQTENMAsGA1UECwwEVGVzdDEMMAoGA1UECgwDTVRH
MQswCQYDVQQGEwJERTAeFw0yMTA1MTkwMjUxMDFaFw0yMjA1MTkwMjUxMDFaMGQx
FDASBgNVBAMMC2xpbnQubXRnLmRlMQ0wCwYDVQQLDARMaW50MQwwCgYDVQQKDANN
VEcxEjAQBgNVBAcMCURhcm1zdGFkdDEOMAwGA1UECAwFSGVzc2UxCzAJBgNVBAYT
AkRFMFkwEwYHKoZIzj0CAQYIKoZIzj0DAQcDQgAEUuuZikWHMdsIoffdEi1YmSMX
cOoNSN2aYAd2PFXrenU96ey16qQN0XL6jrJ6w4uOTvjcTaBr2VBhsSIzDbvJ/KOB
4DCB3TAfBgNVHSMEGDAWgBQqu2AUVUAlxKxs5EfMNScUCkzqXzAdBgNVHQ4EFgQU
eBMdQNQiSsDvCMeFjMXUNpbsS/YwIQYFZ4EMAwEEGDAWEwNCQVQTAkRFgAJIRQwH
OTg3NjU0MzAdBgNVHSUEFjAUBggrBgEFBQcDAQYIKwYBBQUHAwIwWQYDVR0gBFIw
UDAHBgVngQwBATBFBgorBgEEAb1HDRgBMDcwNQYIKwYBBQUHAgEWKWh0dHA6Ly93
d3cudGVsZXNlYy5kZS9zZXJ2ZXJwYXNzL2Nwcy5odG1sMA0GCSqGSIb3DQEBCwUA
A4IBAQBciv55LbshcfpdqOz38MRSvnQSoggTUyyMCao4N2GZ9Ax0n+UAUuEXBdfv
XBLkpn7YB0M4+V31sT0PEbTNEvxrrvrOmMzsEMClYDzbLJtYzmpPaPHbEtNQY8r3
Jt4WbjaQOTnZNmiwAU4NP/JpSV5gZ+iTOMiSvjaia2lfoo18+L7eWISBaoxraikL
a84uwTA/q1O964W0PYcy65VIR9XAlipaMlRej+N51akf/AzvYSMw8jA5cYbDYwrM
evKcjgW7onHdac7sJZrzNL/+GpOBQzr+ZhPXxw58+s5d23RtS4TQQLQ1USZnKgD2
U9DnTf7BjbhbbKht1T8Box5qL38T
-----END CERTIFICATE-----
