Certificate:
    Data:
        Version: 3 (0x2)
        Serial Number:
            08:95:d3:3e:5e:cb:7e:a2:d5:2c:d7:63:25
        Signature Algorithm: sha256WithRSAEncryption
        Issuer: CN = Lint Sub CA, OU = Test, O = MTG, C = DE
        Validity
            Not Before: May 19 02:51:01 2021 GMT
            Not After : May 19 02:51:01 2022 GMT
        Subject: CN = lint.mtg.de, OU = Lint, O = MTG, L = Darmstadt, ST = Hesse, C = DE
        Subject Public Key Info:
            Public Key Algorithm: id-ecPublicKey
                Public-Key: (256 bit)
                pub:
                    04:f6:74:0c:34:9d:c1:fa:e9:b7:65:09:1d:e9:8b:
                    7f:d6:cb:d1:e7:a7:4d:16:18:9f:65:d6:15:d8:17:
                    13:7b:e5:3b:1a:39:f6:41:8c:cc:34:f0:f6:8a:1f:
                    93:dc:b4:c5:51:89:74:1b:91:a3:a3:75:26:63:ed:
                    05:25:40:05:93
                ASN1 OID: prime256v1
                NIST CURVE: P-256
        X509v3 extensions:
            X509v3 Authority Key Identifier: 
                keyid:2A:BB:60:14:55:40:25:C4:AC:6C:E4:47:CC:35:27:14:0A:4C:EA:5F

            X509v3 Subject Key Identifier: 
                B3:FC:B4:92:A4:A0:B9:0D:9C:BB:C8:8B:83:D3:15:2B:3D:0E:9C:DB
            2.23.140.3.1: 
                0...VAT..DE..HE..9876543
            X509v3 Extended Key Usage: 
                TLS Web Server Authentication, TLS Web Client Authentication
            X509v3 Certificate Policies: 
                Policy: 2.23.140.1.1
                Policy: 1.3.6.1.4.1.7879.13.24.1
                  CPS: http://www.telesec.de/serverpass/cps.html

    Signature Algorithm: sha256WithRSAEncryption
         64:41:a9:00:c3:24:fb:f0:86:c8:83:15:94:99:12:aa:43:56:
         61:91:33:c0:df:40:19:10:69:0e:aa:35:59:a7:80:63:3a:c3:
         d9:af:c1:1b:bb:61:20:62:64:fa:85:1f:03:33:e1:02:5d:1d:
         8b:b3:35:f5:b6:67:d3:e9:04:10:5f:9d:35:7a:cf:c6:af:5c:
         d1:90:c6:69:a1:a6:0b:22:54:82:50:46:62:c1:eb:f0:ec:cc:
         f6:37:7e:ba:7c:5c:93:88:08:95:8a:80:2a:6a:44:28:9e:be:
         2d:59:68:32:83:e5:ff:e0:15:4c:a7:02:b5:1e:1c:c2:f8:fb:
         14:39:a0:c7:a6:e1:75:a8:8a:22:8d:dc:3a:75:f0:f2:cc:3a:
         bd:17:9a:ef:0f:3d:1d:1d:99:7d:d8:7e:89:13:eb:79:dc:fe:
         cf:e7:03:db:15:c6:90:72:79:9f:56:1b:16:97:34:4d:d8:f1:
         d3:7d:bb:4d:2f:4b:48:dc:ad:be:1f:42:e2:d2:f2:0f:04:61:
         c6:73:40:af:46:69:a5:75:03:53:c9:a2:8f:bd:78:23:95:21:
         15:5d:04:37:38:ad:0a:1c:06:e1:fa:1f:c9:14:a3:36:7f:ea:
         4e:30:54:38:2a:b6:16:41:52:26:59:a6:16:fa:f6:5b:5c:a1:
         c8:4d:d3:04
-----BEGIN CERTIFICATE-----
MIIDQTCCAimgAwIBAgINCJXTPl7LfqLVLNdjJTANBgkqhkiG9w0BAQsFADBAMRQw
EgYDVQQDDAtMaW50IFN1YiBDQTENMAsGA1UECwwEVGVzdDEMMAoGA1UECgwDTVRH
MQswCQYDVQQGEwJERTAeFw0yMTA1MTkwMjUxMDFaFw0yMjA1MTkwMjUxMDFaMGQx
FDASBgNVBAMMC2xpbnQubXRnLmRlMQ0wCwYDVQQLDARMaW50MQwwCgYDVQQKDANN
VEcxEjAQBgNVBAcMCURhcm1zdGFkdDEOMAwGA1UECAwFSGVzc2UxCzAJBgNVBAYT
AkRFMFkwEwYHKoZIzj0CAQYIKoZIzj0DAQcDQgAE9nQMNJ3B+um3ZQkd6Yt/1svR
56dNFhifZdYV2BcTe+U7Gjn2QYzMNPD2ih+T3LTFUYl0G5Gjo3UmY+0FJUAFk6OB
4DCB3TAfBgNVHSMEGDAWgBQqu2AUVUAlxKxs5EfMNScUCkzqXzAdBgNVHQ4EFgQU
s/y0kqSguQ2cu8iLg9MVKz0OnNswIQYFZ4EMAwEEGDAWEwNWQVQTAkRFgAJIRQwH
OTg3NjU0MzAdBgNVHSUEFjAUBggrBgEFBQcDAQYIKwYBBQUHAwIwWQYDVR0gBFIw
UDAHBgVngQwBATBFBgorBgEEAb1HDRgBMDcwNQYIKwYBBQUHAgEWKWh0dHA6Ly93
d3cudGVsZXNlYy5kZS9zZXJ2ZXJwYXNzL2Nwcy5odG1sMA0GCSqGSIb3DQEBCwUA
A4IBAQBkQakAwyT78IbIgxWUmRKqQ1ZhkTPA30AZEGkOqjVZp4BjOsPZr8Ebu2Eg
YmT6hR8DM+ECXR2LszX1tmfT6QQQX501es/Gr1zRkMZpoaYLIlSCUEZiwevw7Mz2
N366fFyTiAiVioAqakQonr4tWWgyg+X/4BVMpwK1HhzC+PsUOaDHpuF1qIoijdw6
dfDyzDq9F5rvDz0dHZl92H6JE+t53P7P5wPbFcaQcnmfVhsWlzRN2PHTfbtNL0tI
3K2+H0Li0vIPBGHGc0CvRmmldQNTyaKPvXgjlSEVXQQ3OK0KHAbh+h/JFKM2f+pO
MFQ4KrYWQVImWaYW+vZbXKHITdME
-----END CERTIFICATE-----
