Certificate:
    Data:
        Version: 3 (0x2)
        Serial Number:
            02:3b:35:9b:3f:ea:f1:7a:75:e1:ac:18:b3
        Signature Algorithm: sha256WithRSAEncryption
        Issuer: CN = Lint Sub CA, OU = Test, O = MTG, C = DE
        Validity
            Not Before: May 19 02:51:01 2021 GMT
            Not After : May 19 02:51:01 2022 GMT
        Subject: CN = lint.mtg.de, OU = Lint, O = MTG, L = Darmstadt, ST = Hesse, C = DE
        Subject Public Key Info:
            Public Key Algorithm: id-ecPublicKey
                Public-Key: (256 bit)
                pub:
                    04:ca:d3:4a:12:67:5f:11:4c:f8:f8:8f:3e:bf:36:
                    bc:ce:40:a1:d1:51:a4:88:87:e1:c8:b5:0c:f9:8d:
                    64:29:85:58:f8:02:c4:4c:27:33:7d:4c:fd:18:3e:
                    7b:cd:5c:b5:3e:f4:d4:ba:5f:e2:7f:6a:13:bd:ee:
                    4b:b6:a6:79:73
                ASN1 OID: prime256v1
                NIST CURVE: P-256
        X509v3 extensions:
            X509v3 Authority Key Identifier: 
                keyid:2A:BB:60:14:55:40:25:C4:AC:6C:E4:47:CC:35:27:14:0A:4C:EA:5F

            X509v3 Subject Key Identifier: 
                19:59:F3:40:46:C1:36:7D:C1:E6:F0:92:DB:3F:C9:B9:9F:03:3A:40
            2.23.140.3.1: 
                0...VAT..DE..9876543
            X509v3 Extended Key Usage: 
                TLS Web Server Authentication, TLS Web Client Authentication
            X509v3 Certificate Policies: 
                Policy: 2.23.140.1.1
                Policy: 1.3.6.1.4.1.7879.13.24.1
                  CPS: http://www.telesec.de/serverpass/cps.html

    Signature Algorithm: sha256WithRSAEncryption
         30:79:11:3a:65:76:8f:ff:43:1c:27:e1:06:0b:a8:35:a0:fb:
         c8:7e:96:92:e1:a0:27:66:a0:43:b5:12:cd:ea:b9:ba:23:b0:
         51:3d:b4:85:0f:cf:b5:1d:79:ea:59:ab:4b:c8:e3:11:b4:1b:
         61:db:b3:c0:03:72:a2:70:e1:87:5b:6f:9f:1b:7c:c3:ff:61:
         04:db:01:dc:1e:f7:d0:1e:9d:0e:59:22:67:92:dc:c2:46:ef:
         32:56:12:04:15:89:d8:c3:18:22:6c:23:6a:b6:b6:a9:7c:15:
         aa:a9:db:e0:af:da:d8:6a:7c:d1:1b:eb:a1:cf:52:b6:62:b1:
         e1:37:65:5e:ec:49:d6:d0:2b:3c:d2:06:2e:56:27:bd:ca:f7:
         fa:00:67:b9:5c:5c:ee:19:53:ec:6a:72:3b:b6:c3:a8:a9:c9:
         ed:00:18:b2:0f:d4:4d:07:31:b2:5a:f6:81:4d:2f:cd:44:f5:
         ec:88:1c:5f:c9:83:11:70:8e:af:55:57:e9:c1:e7:73:97:83:
         6b:62:db:09:25:81:bc:a7:45:c4:10:9c:ce:9a:3d:7e:27:ee:
         1c:d0:62:c5:87:1b:07:70:ca:6b:2f:df:bc:3c:fa:74:45:1f:
         55:e8:2c:12:e7:ee:a2:d1:3e:f8:51:f2:bf:fb:1b:d1:97:8b:
         d5:9d:90:85
-----BEGIN CERTIFICATE-----
MIIDPTCCAiWgAwIBAgINAjs1mz/q8Xp14awYszANBgkqhkiG9w0BAQsFADBAMRQw
EgYDVQQDDAtMaW50IFN1YiBDQTENMAsGA1UECwwEVGVzdDEMMAoGA1UECgwDTVRH
MQswCQYDVQQGEwJERTAeFw0yMTA1MTkwMjUxMDFaFw0yMjA1MTkwMjUxMDFaMGQx
FDASBgNVBAMMC2xpbnQubXRnLmRlMQ0wCwYDVQQLDARMaW50MQwwCgYDVQQKDANN
VEcxEjAQBgNVBAcMCURhcm1zdGFkdDEOMAwGA1UECAwFSGVzc2UxCzAJBgNVBAYT
AkRFMFkwEwYHKoZIzj0CAQYIKoZIzj0DAQcDQgAEytNKEmdfEUz4+I8+vza8zkCh
0VGkiIfhyLUM+Y1kKYVY+ALETCczfUz9GD57zVy1PvTUul/if2oTve5LtqZ5c6OB
3DCB2TAfBgNVHSMEGDAWgBQqu2AUVUAlxKxs5EfMNScUCkzqXzAdBgNVHQ4EFgQU
GVnzQEbBNn3B5vCS2z/JuZ8DOkAwHQYFZ4EMAwEEFDASEwNWQVQTAkRFDAc5ODc2
NTQzMB0GA1UdJQQWMBQGCCsGAQUFBwMBBggrBgEFBQcDAjBZBgNVHSAEUjBQMAcG
BWeBDAEBMEUGCisGAQQBvUcNGAEwNzA1BggrBgEFBQcCARYpaHR0cDovL3d3dy50
ZWxlc2VjLmRlL3NlcnZlcnBhc3MvY3BzLmh0bWwwDQYJKoZIhvcNAQELBQADggEB
ADB5ETpldo//Qxwn4QYLqDWg+8h+lpLhoCdmoEO1Es3qubojsFE9tIUPz7UdeepZ
q0vI4xG0G2Hbs8ADcqJw4Ydbb58bfMP/YQTbAdwe99AenQ5ZImeS3MJG7zJWEgQV
idjDGCJsI2q2tql8Faqp2+Cv2thqfNEb66HPUrZiseE3ZV7sSdbQKzzSBi5WJ73K
9/oAZ7lcXO4ZU+xqcju2w6ipye0AGLIP1E0HMbJa9oFNL81E9eyIHF/JgxFwjq9V
V+nB53OXg2ti2wklgbynRcQQnM6aPX4n7hzQYsWHGwdwymsv37w8+nRFH1XoLBLn
7qLRPvhR8r/7G9GXi9WdkIU=
-----END CERTIFICATE-----
