Certificate:
    Data:
        Version: 3 (0x2)
        Serial Number:
            d6:bd:3e:aa:43:e5:d7:17:6e:d1:e6:b9
        Signature Algorithm: ecdsa-with-SHA256
        Issuer: CN = Lint CA, O = Lint, C = DE
        Validity
            Not Before: Mar 15 00:00:00 2027 GMT
            Not After : Jun 22 23:59:59 2027 GMT
        Subject: 
        Subject Public Key Info:
            Public Key Algorithm: id-ecPublicKey
                Public-Key: (256 bit)
                pub:
                    04:d3:61:70:8b:dc:2e:9d:fe:a2:d4:c8:6f:db:54:
                    d9:bc:34:7b:14:b3:62:70:17:c9:9c:6c:51:a2:72:
                    01:11:b8:69:db:75:c0:82:1b:b6:cc:1d:a8:94:10:
                    89:e1:c4:81:8b:94:24:79:0a:5d:f3:a3:b0:fe:9c:
                    0f:6e:d1:40:4e
                ASN1 OID: prime256v1
                NIST CURVE: P-256
        X509v3 extensions:
            X509v3 Certificate Policies: 
                Policy: 2.23.140.1.2.1

    Signature Algorithm: ecdsa-with-SHA256
         30:46:02:21:00:ef:cc:c6:83:29:ef:7d:6b:c0:a7:38:8f:fe:
         f8:5b:4c:3b:0d:6a:24:71:da:38:44:bb:05:66:1b:f0:ab:9c:
         48:02:21:00:97:14:df:5c:fe:21:7f:07:aa:df:51:87:c6:a4:
         2d:3d:85:4c:2d:6b:7b:90:9a:d8:8c:7d:b5:f2:00:05:65:e4
-----BEGIN CERTIFICATE-----
MIIBQDCB5qADAgECAg0A1r0+qkPl1xdu0ea5MAoGCCqGSM49BAMCMC4xEDAOBgNV
BAMMB0xpbnQgQ0ExDTALBgNVBAoMBExpbnQxCzAJBgNVBAYTAkRFMB4XDTI3MDMx
NTAwMDAwMFoXDTI3MDYyMjIzNTk1OVowADBZMBMGByqGSM49AgEGCCqGSM49AwEH
A0IABNNhcIvcLp3+otTIb9tU2bw0exSzYnAXyZxsUaJyARG4adt1wIIbtswdqJQQ
ieHEgYuUJHkKXfOjsP6cD27RQE6jFzAVMBMGA1UdIAQMMAowCAYGZ4EMAQIBMAoG
CCqGSM49BAMCA0kAMEYCIQDvzMaDKe99a8CnOI/++FtMOw1qJHHaOES7BWYb8Kuc
SAIhAJcU31z+IX8Hqt9Rh8akLT2FTC1re5Ca2Ix9tfIABWXk
-----END CERTIFICATE-----
