Certificate:
    Data:
        Version: 3 (0x2)
        Serial Number:
            dc:98:7b:48:d0:71:ec:06:a9:b7:e5:cf
        Signature Algorithm: ecdsa-with-SHA256
        Issuer: CN = Lint CA, O = Lint, C = DE
        Validity
            Not Before: Mar 15 00:00:00 2027 GMT
            Not After : Jun 23 00:00:00 2027 GMT
        Subject: 
        Subject Public Key Info:
            Public Key Algorithm: id-ecPublicKey
                Public-Key: (256 bit)
                pub:
                    04:5b:8b:48:f9:ba:24:b3:2d:40:ea:33:8d:2e:c3:
                    0b:e5:62:a7:95:79:e0:a6:b5:3e:bb:32:02:73:b2:
                    30:fa:50:1f:aa:b5:81:d5:e6:da:7d:d8:29:d4:1c:
                    11:fd:47:27:95:2a:3c:5d:cd:1b:e5:c1:d2:c6:49:
                    99:54:87:67:87
                ASN1 OID: prime256v1
                NIST CURVE: P-256
        X509v3 extensions:
            X509v3 Certificate Policies: 
                Policy: 2.23.140.1.2.1

    Signature Algorithm: ecdsa-with-SHA256
         30:45:02:20:50:25:af:0d:c9:54:f9:76:36:5b:f1:7a:d0:f8:
         d6:c5:f4:ca:0b:a3:20:88:83:b4:4a:57:9d:2c:09:a1:98:c4:
         02:21:00:ba:a7:19:66:ea:6f:18:69:a5:0d:94:46:b9:0b:f8:
         80:94:a1:2e:0f:e3:83:1d:32:6a:64:43:74:11:95:17:04
-----BEGIN CERTIFICATE-----
MIIBPzCB5qADAgECAg0A3Jh7SNBx7Aapt+XPMAoGCCqGSM49BAMCMC4xEDAOBgNV
BAMMB0xpbnQgQ0ExDTALBgNVBAoMBExpbnQxCzAJBgNVBAYTAkRFMB4XDTI3MDMx
NTAwMDAwMFoXDTI3MDYyMzAwMDAwMFowADBZMBMGByqGSM49AgEGCCqGSM49AwEH
A0IABFuLSPm6JLMtQOozjS7DC+Vip5V54Ka1PrsyAnOyMPpQH6q1gdXm2n3YKdQc
Ef1HJ5UqPF3NG+XB0sZJmVSHZ4ejFzAVMBMGA1UdIAQMMAowCAYGZ4EMAQIBMAoG
CCqGSM49BAMCA0gAMEUCIFAlrw3JVPl2NlvxetD41sX0ygujIIiDtEpXnSwJoZjE
AiEAuqcZZupvGGmlDZRGuQv4gJShLg/jgx0yamRDdBGVFwQ=
-----END CERTIFICATE-----
