Certificate:
    Data:
        Version: 3 (0x2)
        Serial Number:
            7a:ca:26:0a:eb:da:13:e8:4d:d0:c2:7c
        Signature Algorithm: ecdsa-with-SHA256
        Issuer: CN = Lint CA, O = Lint, C = DE
        Validity
            Not Before: Mar 15 00:00:00 2029 GMT
            Not After : May  1 00:00:00 2029 GMT
        Subject: 
        Subject Public Key Info:
            Public Key Algorithm: id-ecPublicKey
                Public-Key: (256 bit)
                pub:
                    04:14:55:ae:dd:10:ae:e5:5c:5c:1a:ee:03:b9:4c:
                    37:4c:30:e6:8c:1a:94:46:7d:64:b3:c7:de:11:6e:
                    2c:a0:f8:2b:e5:48:0e:3d:cb:59:12:31:7a:c8:4f:
                    1d:28:af:58:d0:ed:cf:2e:1a:e1:ad:ba:69:b9:aa:
                    23:64:d9:20:b8
                ASN1 OID: prime256v1
                NIST CURVE: P-256
        X509v3 extensions:
            X509v3 Certificate Policies: 
                Policy: 2.23.140.1.2.1

    Signature Algorithm: ecdsa-with-SHA256
         30:45:02:20:53:c2:47:54:c5:d5:8f:cb:b6:f9:d9:16:c1:35:
         20:39:66:85:e0:2c:4b:a8:90:70:16:39:c0:1f:36:8c:26:c5:
         02:21:00:d8:11:f5:a3:5b:95:8d:79:59:1d:a1:e2:3d:59:25:
         56:07:b4:fa:ca:ed:ac:3b:54:3a:70:8f:df:bd:d6:14:64
-----BEGIN CERTIFICATE-----
MIIBPjCB5aADAgECAgx6yiYK69oT6E3QwnwwCgYIKoZIzj0EAwIwLjEQMA4GA1UE
AwwHTGludCBDQTENMAsGA1UECgwETGludDELMAkGA1UEBhMCREUwHhcNMjkwMzE1
MDAwMDAwWhcNMjkwNTAxMDAwMDAwWjAAMFkwEwYHKoZIzj0CAQYIKoZIzj0DAQcD
QgAEFFWu3RCu5VxcGu4DuUw3TDDmjBqURn1ks8feEW4soPgr5UgOPctZEjF6yE8d
KK9Y0O3PLhrhrbppuaojZNkguKMXMBUwEwYDVR0gBAwwCjAIBgZngQwBAgEwCgYI
KoZIzj0EAwIDSAAwRQIgU8JHVMXVj8u2+dkWwTUgOWaF4CxLqJBwFjnAHzaMJsUC
IQDYEfWjW5WNeVkdoeI9WSVWB7T6yu2sO1Q6cI/fvdYUZA==
-----END CERTIFICATE-----
