Certificate:
    Data:
        Version: 3 (0x2)
        Serial Number:
            99:d7:50:ec:4a:8a:e5:98:25:8b:a7:b5
        Signature Algorithm: ecdsa-with-SHA256
        Issuer: CN = Lint CA, O = Lint, C = DE
        Validity
            Not Before: Mar 15 00:00:00 2026 GMT
            Not After : Sep 30 23:59:59 2026 GMT
        Subject: 
        Subject Public Key Info:
            Public Key Algorithm: id-ecPublicKey
                Public-Key: (256 bit)
                pub:
                    04:85:be:85:e4:02:68:c5:e2:aa:95:2b:df:a2:97:
                    40:f8:39:f8:6e:a8:ad:33:74:19:f3:72:e3:3b:c5:
                    5f:ac:7e:3e:d0:2c:99:fc:90:54:1f:ad:ba:64:dd:
                    1b:c8:43:ad:2b:ff:7d:ab:e0:b2:24:a8:59:0e:a3:
                    66:36:a3:78:1e
                ASN1 OID: prime256v1
                NIST CURVE: P-256
        X509v3 extensions:
            X509v3 Certificate Policies: 
                Policy: 2.23.140.1.2.1

    Signature Algorithm: ecdsa-with-SHA256
         30:45:02:21:00:e2:99:b7:8a:18:6f:60:6c:aa:a4:6d:45:f4:
         ec:18:72:31:7a:3a:0a:4c:f4:de:17:f1:a7:81:69:c3:e5:4e:
         a3:02:20:07:58:f5:83:bd:4c:12:cf:1f:38:27:1f:90:d8:76:
         a4:aa:8c:be:98:80:0e:d9:14:8e:a8:81:55:83:d1:0f:8a
-----BEGIN CERTIFICATE-----
MIIBPzCB5qADAgECAg0AmddQ7EqK5Zgli6e1MAoGCCqGSM49BAMCMC4xEDAOBgNV
BAMMB0xpbnQgQ0ExDTALBgNVBAoMBExpbnQxCzAJBgNVBAYTAkRFMB4XDTI2MDMx
NTAwMDAwMFoXDTI2MDkzMDIzNTk1OVowADBZMBMGByqGSM49AgEGCCqGSM49AwEH
A0IABIW+heQCaMXiqpUr36KXQPg5+G6orTN0GfNy4zvFX6x+PtAsmfyQVB+tumTd
G8hDrSv/favgsiSoWQ6jZjajeB6jFzAVMBMGA1UdIAQMMAowCAYGZ4EMAQIBMAoG
CCqGSM49BAMCA0gAMEUCIQDimbeKGG9gbKqkbUX07BhyMXo6Ckz03hfxp4Fpw+VO
owIgB1j1g71MEs8fOCcfkNh2pKqMvpiADtkUjqiBVYPRD4o=
-----END CERTIFICATE-----
