Certificate:
    Data:
        Version: 3 (0x2)
        Serial Number:
            7e:7f:9a:3e:aa:e1:75:7a:85:0a:cb:33
        Signature Algorithm: ecdsa-with-SHA256
        Issuer: CN = Lint CA, O = Lint, C = DE
        Validity
            Not Before: Mar 15 00:00:00 2027 GMT
            Not After : Jun 21 23:59:59 2027 GMT
        Subject: 
        Subject Public Key Info:
            Public Key Algorithm: id-ecPublicKey
                Public-Key: (256 bit)
                pub:
                    04:0a:4a:9b:40:ec:d6:6a:91:48:b7:f6:4c:e3:16:
                    b1:44:a5:dc:a6:d6:98:83:4f:32:50:14:6b:23:97:
                    0a:d3:d8:47:e7:cb:5d:77:dd:20:61:d6:65:4c:9a:
                    58:6d:fe:0f:69:29:b2:20:53:6d:87:a5:a7:f4:51:
                    d3:be:af:48:2d
                ASN1 OID: prime256v1
                NIST CURVE: P-256
        X509v3 extensions:
            X509v3 Certificate Policies: 
                Policy: 2.23.140.1.2.1

    Signature Algorithm: ecdsa-with-SHA256
         30:45:02:21:00:89:00:d6:e8:03:2f:10:ae:57:4d:1b:05:3e:
         d8:20:c3:71:ab:91:97:f6:6a:b5:35:80:20:00:72:31:5f:0f:
         19:02:20:3e:de:df:90:4a:f5:2f:09:d8:c8:ba:d8:25:f7:7c:
         f3:d9:01:81:58:06:fd:8f:90:52:84:d9:bb:93:2c:ba:b1
-----BEGIN CERTIFICATE-----
MIIBPjCB5aADAgECAgx+f5o+quF1eoUKyzMwCgYIKoZIzj0EAwIwLjEQMA4GA1UE
AwwHTGludCBDQTENMAsGA1UECgwETGludDELMAkGA1UEBhMCREUwHhcNMjcwMzE1
MDAwMDAwWhcNMjcwNjIxMjM1OTU5WjAAMFkwEwYHKoZIzj0CAQYIKoZIzj0DAQcD
QgAECkqbQOzWapFIt/ZM4xaxRKXcptaYg08yUBRrI5cK09hH58tdd90gYdZlTJpY
bf4PaSmyIFNth6Wn9FHTvq9ILaMXMBUwEwYDVR0gBAwwCjAIBgZngQwBAgEwCgYI
KoZIzj0EAwIDSAAwRQIhAIkA1ugDLxCuV00bBT7YIMNxq5GX9mq1NYAgAHIxXw8Z
AiA+3t+QSvUvCdjIutgl93zz2QGBWAb9j5BShNm7kyy6sQ==
-----END CERTIFICATE-----
