Certificate:
    Data:
        Version: 3 (0x2)
        Serial Number:
            98:02:e9:98:9c:ed:3c:94:41:82:36:81
        Signature Algorithm: ecdsa-with-SHA256
        Issuer: CN = Lint CA, O = Lint, C = DE
        Validity
            Not Before: Mar 15 00:00:00 2026 GMT
            Not After : Oct  1 00:00:00 2026 GMT
        Subject: 
        Subject Public Key Info:
            Public Key Algorithm: id-ecPublicKey
                Public-Key: (256 bit)
                pub:
                    04:a5:d3:5a:37:4f:48:f7:bf:17:55:8f:8b:c1:81:
                    cb:7c:9e:0e:02:63:5d:c8:40:95:3f:98:70:94:a3:
                    bf:19:00:a1:ed:cd:4c:32:56:40:f8:bd:fc:f7:b2:
                    16:24:71:5d:d3:e7:97:b2:39:70:ab:3b:90:54:7e:
                    db:50:fe:24:e2
                ASN1 OID: prime256v1
                NIST CURVE: P-256
        X509v3 extensions:
            X509v3 Certificate Policies: 
                Policy: 2.23.140.1.2.1

    Signature Algorithm: ecdsa-with-SHA256
         30:45:02:21:00:a0:16:7a:71:80:ae:ab:f5:5b:61:fa:66:b1:
         30:59:27:c0:e9:0a:64:31:1f:dd:fd:a7:50:04:e8:5d:60:19:
         11:02:20:41:d3:be:ac:63:50:53:57:88:e7:c1:d4:ca:2e:ef:
         8c:48:75:00:39:bf:f3:6f:e2:34:c8:ee:30:bd:79:99:bc
-----BEGIN CERTIFICATE-----
MIIBPzCB5qADAgECAg0AmALpmJztPJRBgjaBMAoGCCqGSM49BAMCMC4xEDAOBgNV
BAMMB0xpbnQgQ0ExDTALBgNVBAoMBExpbnQxCzAJBgNVBAYTAkRFMB4XDTI2MDMx
NTAwMDAwMFoXDTI2MTAwMTAwMDAwMFowADBZMBMGByqGSM49AgEGCCqGSM49AwEH
A0IABKXTWjdPSPe/F1WPi8GBy3yeDgJjXchAlT+YcJSjvxkAoe3NTDJWQPi9/Pey
FiRxXdPnl7I5cKs7kFR+21D+JOKjFzAVMBMGA1UdIAQMMAowCAYGZ4EMAQIBMAoG
CCqGSM49BAMCA0gAMEUCIQCgFnpxgK6r9Vth+maxMFknwOkKZDEf3f2nUAToXWAZ
EQIgQdO+rGNQU1eI58HUyi7vjEh1ADm/82/iNMjuML15mbw=
-----END CERTIFICATE-----
