Certificate:
    Data:
        Version: 3 (0x2)
        Serial Number:
            56:e7:da:ec:78:9c:c5:3a:16:b9:ea:7a
        Signature Algorithm: ecdsa-with-SHA256
        Issuer: CN = Lint CA, O = Lint, C = DE
        Validity
            Not Before: Mar 15 00:00:00 2026 GMT
            Not After : Sep 29 23:59:59 2026 GMT
        Subject: 
        Subject Public Key Info:
            Public Key Algorithm: id-ecPublicKey
                Public-Key: (256 bit)
                pub:
                    04:aa:d0:79:b6:48:9a:52:41:c6:2a:8c:eb:1c:66:
                    02:dd:c3:80:89:98:fd:f2:4d:e7:81:88:31:88:05:
                    f7:1f:e2:58:87:53:c1:36:0c:2f:81:03:20:53:35:
                    4a:15:d9:6a:43:11:9d:94:b8:a5:ac:7f:5a:af:7c:
                    c7:86:b1:81:af
                ASN1 OID: prime256v1
                NIST CURVE: P-256
        X509v3 extensions:
            X509v3 Certificate Policies: 
                Policy: 2.23.140.1.2.1

    Signature Algorithm: ecdsa-with-SHA256
         30:45:02:21:00:f8:19:a3:08:a8:60:94:ac:8d:e6:74:73:c5:
         46:89:61:a2:45:a1:10:63:51:6d:5f:5c:1a:21:87:24:24:16:
         79:02:20:48:e8:c7:86:db:1f:c4:8a:29:33:02:53:4a:4b:f5:
         6e:03:81:4c:26:d2:9c:6d:76:86:b9:9a:f5:8b:af:28:15
-----BEGIN CERTIFICATE-----
MIIBPjCB5aADAgECAgxW59rseJzFOha56nowCgYIKoZIzj0EAwIwLjEQMA4GA1UE
AwwHTGludCBDQTENMAsGA1UECgwETGludDELMAkGA1UEBhMCREUwHhcNMjYwMzE1
MDAwMDAwWhcNMjYwOTI5MjM1OTU5WjAAMFkwEwYHKoZIzj0CAQYIKoZIzj0DAQcD
QgAEqtB5tkiaUkHGKozrHGYC3cOAiZj98k3ngYgxiAX3H+JYh1PBNgwvgQMgUzVK
FdlqQxGdlLilrH9ar3zHhrGBr6MXMBUwEwYDVR0gBAwwCjAIBgZngQwBAgEwCgYI
KoZIzj0EAwIDSAAwRQIhAPgZowioYJSsjeZ0c8VGiWGiRaEQY1FtX1waIYckJBZ5
AiBI6MeG2x/EiikzAlNKS/VuA4FMJtKcbXaGuZr1i68oFQ==
-----END CERTIFICATE-----
