Certificate:
    Data:
        Version: 3 (0x2)
        Serial Number:
            0f:d6:ea:cd:12:3c:dd:27:77:bb:d3:05
        Signature Algorithm: ecdsa-with-SHA256
        Issuer: CN = Lint CA, O = Lint, C = DE
        Validity
            Not Before: Mar 15 00:00:00 2029 GMT
            Not After : Apr 29 23:59:59 2029 GMT
        Subject: 
        Subject Public Key Info:
            Public Key Algorithm: id-ecPublicKey
                Public-Key: (256 bit)
                pub:
                    04:93:3d:71:b2:4a:0e:c3:a5:69:2e:da:02:78:5f:
                    3c:25:a5:18:59:4c:31:fe:72:53:23:db:0c:56:ab:
                    a9:9f:e7:fa:47:f9:3f:d5:67:1a:90:26:ff:1a:1e:
                    fe:c2:61:67:43:23:8d:90:bb:91:3f:3b:be:a6:fe:
                    58:43:d8:b6:a5
                ASN1 OID: prime256v1
                NIST CURVE: P-256
        X509v3 extensions:
            X509v3 Certificate Policies: 
                Policy: 2.23.140.1.2.1

    Signature Algorithm: ecdsa-with-SHA256
         30:46:02:21:00:f3:02:50:99:8e:59:9d:68:18:72:89:c8:70:
         6d:52:1e:47:b3:57:2c:16:e0:d2:b3:d0:0d:f0:db:c8:ff:03:
         b8:02:21:00:cb:6b:a3:5b:43:36:df:49:60:f6:04:6d:e1:82:
         97:76:7b:ab:19:39:c8:7a:b2:a6:39:69:70:13:df:8b:ba:fd
-----BEGIN CERTIFICATE-----
MIIBPzCB5aADAgECAgwP1urNEjzdJ3e70wUwCgYIKoZIzj0EAwIwLjEQMA4GA1UE
AwwHTGludCBDQTENMAsGA1UECgwETGludDELMAkGA1UEBhMCREUwHhcNMjkwMzE1
MDAwMDAwWhcNMjkwNDI5MjM1OTU5WjAAMFkwEwYHKoZIzj0CAQYIKoZIzj0DAQcD
QgAEkz1xskoOw6VpLtoCeF88JaUYWUwx/nJTI9sMVqupn+f6R/k/1WcakCb/Gh7+
wmFnQyONkLuRPzu+pv5YQ9i2paMXMBUwEwYDVR0gBAwwCjAIBgZngQwBAgEwCgYI
KoZIzj0EAwIDSQAwRgIhAPMCUJmOWZ1oGHKJyHBtUh5Hs1csFuDSs9AN8NvI/wO4
AiEAy2ujW0M230lg9gRt4YKXdnurGTnIerKmOWlwE9+Luv0=
-----END CERTIFICATE-----
