Certificate:
    Data:
        Version: 3 (0x2)
        Serial Number:
            e2:70:5d:24:43:31:06:fd:d1:82:39:6f
        Signature Algorithm: ecdsa-with-SHA256
        Issuer: CN = Lint CA, O = Lint, C = DE
        Validity
            Not Before: Mar 15 00:00:00 2029 GMT
            Not After : Apr 30 23:59:59 2029 GMT
        Subject: 
        Subject Public Key Info:
            Public Key Algorithm: id-ecPublicKey
                Public-Key: (256 bit)
                pub:
                    04:62:10:d6:83:3e:f1:8d:cb:ef:22:22:b2:63:0e:
                    1e:8c:63:bc:41:7f:58:cd:40:91:78:e8:8f:85:fe:
                    af:d4:08:ed:cf:38:97:1e:20:d6:bd:10:e1:a5:bc:
                    07:1d:8b:df:a6:f2:a8:bc:0a:b8:a2:3b:8c:c2:e8:
                    91:0f:6c:46:8e
                ASN1 OID: prime256v1
                NIST CURVE: P-256
        X509v3 extensions:
            X509v3 Certificate Policies: 
                Policy: 2.23.140.1.2.1

    Signature Algorithm: ecdsa-with-SHA256
         30:45:02:21:00:af:63:0f:a6:b4:f6:7f:4f:f5:a8:fc:fb:71:
         e4:cd:71:49:b8:e8:92:52:d7:bf:5d:2f:70:42:92:4f:5c:51:
         cf:02:20:53:fa:a3:e2:44:6c:1a:f2:fb:4b:86:58:24:61:2f:
         f2:1c:cc:fb:8f:d8:00:25:bb:61:c7:b5:58:55:fe:d5:82
-----BEGIN CERTIFICATE-----
MIIBPzCB5qADAgECAg0A4nBdJEMxBv3RgjlvMAoGCCqGSM49BAMCMC4xEDAOBgNV
BAMMB0xpbnQgQ0ExDTALBgNVBAoMBExpbnQxCzAJBgNVBAYTAkRFMB4XDTI5MDMx
NTAwMDAwMFoXDTI5MDQzMDIzNTk1OVowADBZMBMGByqGSM49AgEGCCqGSM49AwEH
A0IABGIQ1oM+8Y3L7yIismMOHoxjvEF/WM1AkXjoj4X+r9QI7c84lx4g1r0Q4aW8
Bx2L36byqLwKuKI7jMLokQ9sRo6jFzAVMBMGA1UdIAQMMAowCAYGZ4EMAQIBMAoG
CCqGSM49BAMCA0gAMEUCIQCvYw+mtPZ/T/Wo/Ptx5M1xSbjoklLXv10vcEKST1xR
zwIgU/qj4kRsGvL7S4ZYJGEv8hzM+4/YACW7Yce1WFX+1YI=
-----END CERTIFICATE-----
