Certificate:
    Data:
        Version: 3 (0x2)
        Serial Number: 4812 (0x12cc)
        Signature Algorithm: sha256WithRSAEncryption
        Issuer: C=DE, ST=Bayern, L=N\xC3\x83\xC2\xBCrnberg, O=Siemens AG, OU=Trustcenter, CN=OliverCA/emailAddress=oliver.stiller@siemens.com
        Validity
            Not Before: Jan 11 16:50:21 2021 GMT
            Not After : Jan 11 16:50:21 2022 GMT
        Subject: O=testconstraints22, CN=testconstraints22
        Subject Public Key Info:
            Public Key Algorithm: rsaEncryption
                RSA Public-Key: (2048 bit)
                Modulus:
                    00:de:cf:2d:cc:f5:a5:6d:a7:80:3a:c3:7d:f3:2d:
                    0a:f5:6e:8c:6a:c5:40:65:0b:d0:1a:7c:5b:f6:13:
                    74:8d:15:dc:32:b6:c3:4a:81:96:0f:e6:0c:e0:75:
                    83:e1:24:5a:79:44:f6:f7:6d:c6:db:7a:cd:01:3a:
                    1e:33:e2:d1:1a:6d:d9:f1:a2:13:7b:ef:a7:54:6d:
                    84:2b:bd:96:f1:0b:48:72:d7:b3:db:84:31:5f:bb:
                    44:25:e1:26:a6:28:ce:4b:46:a3:7c:86:47:bc:c9:
                    19:4f:d3:92:06:27:d2:a2:bc:a4:a7:b3:fa:9b:df:
                    c9:48:95:0e:70:a1:06:26:ad:44:75:cc:39:88:79:
                    9b:32:55:a2:cb:12:d5:03:f0:86:0f:ca:db:40:a1:
                    5a:cf:df:a6:2b:67:e5:0c:af:ed:67:80:3d:7b:31:
                    ce:e2:01:6a:73:99:ee:1a:7c:1c:6d:3c:7b:fa:06:
                    5d:e8:9e:a0:96:f8:e1:ae:df:77:54:52:b7:d0:5e:
                    cb:ef:ea:15:5d:40:b5:63:b2:93:1d:4a:73:5c:b0:
                    b6:2c:52:55:1d:71:6b:8f:84:f9:38:80:a6:1b:c9:
                    22:fb:96:a1:48:fc:ea:29:d1:ae:84:06:4b:54:85:
                    5b:c8:9f:e7:38:d4:9b:bb:61:30:27:12:8e:30:e6:
                    d2:43
                Exponent: 65537 (0x10001)
        X509v3 extensions:
            X509v3 Extended Key Usage: 
                Any Extended Key Usage, TLS Web Server Authentication
            X509v3 Key Usage: 
                Digital Signature, Key Encipherment
            X509v3 Name Constraints: 
                Permitted:
                  URI:wrongHostConstraintExample2
                Excluded:
                  URI:wrongHostConstraintExample

    Signature Algorithm: sha256WithRSAEncryption
         40:19:1a:fe:aa:1c:3a:10:41:b8:d3:1b:37:e2:f1:0e:16:1f:
         e5:83:5d:29:f2:54:df:10:89:42:ea:51:53:fd:10:c4:0a:a8:
         3b:4c:0d:60:b4:56:fd:f0:67:38:5f:30:c3:6b:26:33:e2:15:
         3b:30:de:77:a3:30:60:68:8d:10:51:17:01:ef:1a:68:de:ab:
         50:71:18:c8:be:e3:b6:47:0c:66:f4:e4:f8:2d:d1:3b:66:09:
         28:ca:50:8b:65:ed:a4:76:59:b0:f0:44:e5:2b:d6:ee:a2:4d:
         43:b1:e1:08:a5:28:c2:fe:7f:4d:0e:62:d2:12:0b:6c:7d:f0:
         c9:0a:af:6e:3c:57:74:d7:41:43:40:ae:cd:bb:da:cb:e4:cb:
         9a:1b:3a:ae:6d:ec:e3:b3:43:aa:94:c0:a7:e1:cb:69:73:9a:
         cb:ee:d3:b9:35:0a:54:9c:59:8c:f5:06:00:d5:65:b4:ef:ea:
         f4:b9:91:25:89:dc:ba:cf:f0:2c:42:86:53:f1:c2:e3:f9:9e:
         ed:38:80:f4:d5:a8:d0:d2:9c:c5:ff:a9:65:12:d6:94:df:d6:
         8b:b6:0a:de:04:5b:d7:2e:5d:75:a4:43:a9:16:a8:4c:b7:8b:
         48:57:df:68:22:85:c5:0d:2f:fd:c3:43:b8:af:7e:42:f6:59:
         0e:9b:75:de:30:7d:1e:a9:77:67:b6:76:30:64:f9:30:c4:dc:
         4b:c3:42:ed:4a:28:79:c7:38:b1:9c:0c:f4:70:6f:1c:0b:a9:
         46:3f:91:c6:fe:1a:2f:2a:41:fc:8d:ce:67:89:fc:28:02:1f:
         85:fe:28:b8:62:76:13:95:7a:d6:0c:b7:80:d2:d4:57:09:c3:
         be:c9:ea:c7:ad:01:29:e7:3c:d5:3a:c8:73:a0:c3:bd:c9:66:
         4b:49:b1:11:4c:b2:e4:b9:06:dc:07:61:2f:b8:91:59:45:73:
         b4:13:9a:b0:91:d2:ce:79:ec:c5:82:60:91:e8:c5:da:fb:8d:
         ba:79:ca:f2:4a:db:18:29:8d:74:b6:c3:e0:c0:a1:85:c7:bf:
         84:77:9a:7b:ce:0a:aa:3f:54:f2:a7:a1:ff:f7:bb:6a:60:0a:
         3f:e9:06:ee:2b:c7:99:17:8f:c8:79:a5:35:70:8e:06:ee:18:
         ca:80:4d:2e:96:57:fc:bc:10:57:f0:4f:16:0c:68:5d:b6:71:
         fc:95:d3:9b:f7:18:02:45:df:28:fa:6f:6b:47:f9:ab:3d:e0:
         d5:5d:fd:ac:34:88:4c:85:29:d7:93:a2:e3:2e:83:fe:6e:8a:
         29:bd:e5:53:c5:99:7e:1b:75:21:1d:38:11:b4:37:30:57:8f:
         5e:c8:ff:9b:96:1f:73:07
-----BEGIN CERTIFICATE-----
MIIEyDCCArCgAwIBAgICEswwDQYJKoZIhvcNAQELBQAwgZ0xCzAJBgNVBAYTAkRF
MQ8wDQYDVQQIDAZCYXllcm4xFDASBgNVBAcMC07Dg8K8cm5iZXJnMRMwEQYDVQQK
DApTaWVtZW5zIEFHMRQwEgYDVQQLDAtUcnVzdGNlbnRlcjERMA8GA1UEAwwIT2xp
dmVyQ0ExKTAnBgkqhkiG9w0BCQEWGm9saXZlci5zdGlsbGVyQHNpZW1lbnMuY29t
MB4XDTIxMDExMTE2NTAyMVoXDTIyMDExMTE2NTAyMVowODEaMBgGA1UECgwRdGVz
dGNvbnN0cmFpbnRzMjIxGjAYBgNVBAMMEXRlc3Rjb25zdHJhaW50czIyMIIBIjAN
BgkqhkiG9w0BAQEFAAOCAQ8AMIIBCgKCAQEA3s8tzPWlbaeAOsN98y0K9W6MasVA
ZQvQGnxb9hN0jRXcMrbDSoGWD+YM4HWD4SRaeUT2923G23rNAToeM+LRGm3Z8aIT
e++nVG2EK72W8QtIctez24QxX7tEJeEmpijOS0ajfIZHvMkZT9OSBifSorykp7P6
m9/JSJUOcKEGJq1Edcw5iHmbMlWiyxLVA/CGD8rbQKFaz9+mK2flDK/tZ4A9ezHO
4gFqc5nuGnwcbTx7+gZd6J6glvjhrt93VFK30F7L7+oVXUC1Y7KTHUpzXLC2LFJV
HXFrj4T5OICmG8ki+5ahSPzqKdGuhAZLVIVbyJ/nONSbu2EwJxKOMObSQwIDAQAB
o3YwdDAZBgNVHSUEEjAQBgRVHSUABggrBgEFBQcDATALBgNVHQ8EBAMCBaAwSgYD
VR0eBEMwQaAfMB2GG3dyb25nSG9zdENvbnN0cmFpbnRFeGFtcGxlMqEeMByGGndy
b25nSG9zdENvbnN0cmFpbnRFeGFtcGxlMA0GCSqGSIb3DQEBCwUAA4ICAQBAGRr+
qhw6EEG40xs34vEOFh/lg10p8lTfEIlC6lFT/RDECqg7TA1gtFb98Gc4XzDDayYz
4hU7MN53ozBgaI0QURcB7xpo3qtQcRjIvuO2Rwxm9OT4LdE7ZgkoylCLZe2kdlmw
8ETlK9buok1DseEIpSjC/n9NDmLSEgtsffDJCq9uPFd010FDQK7Nu9rL5MuaGzqu
bezjs0OqlMCn4ctpc5rL7tO5NQpUnFmM9QYA1WW07+r0uZElidy6z/AsQoZT8cLj
+Z7tOID01ajQ0pzF/6llEtaU39aLtgreBFvXLl11pEOpFqhMt4tIV99oIoXFDS/9
w0O4r35C9lkOm3XeMH0eqXdntnYwZPkwxNxLw0LtSih5xzixnAz0cG8cC6lGP5HG
/hovKkH8jc5nifwoAh+F/ii4YnYTlXrWDLeA0tRXCcO+yerHrQEp5zzVOshzoMO9
yWZLSbERTLLkuQbcB2EvuJFZRXO0E5qwkdLOeezFgmCR6MXa+426ecryStsYKY10
tsPgwKGFx7+Ed5p7zgqqP1Typ6H/97tqYAo/6QbuK8eZF4/IeaU1cI4G7hjKgE0u
llf8vBBX8E8WDGhdtnH8ldOb9xgCRd8o+m9rR/mrPeDVXf2sNIhMhSnXk6LjLoP+
boopveVTxZl+G3UhHTgRtDcwV49eyP+blh9zBw==
-----END CERTIFICATE-----
