Certificate:
    Data:
        Version: 3 (0x2)
        Serial Number: 4813 (0x12cd)
        Signature Algorithm: sha256WithRSAEncryption
        Issuer: C=DE, ST=Bayern, L=N\xC3\x83\xC2\xBCrnberg, O=Siemens AG, OU=Trustcenter, CN=OliverCA/emailAddress=oliver.stiller@siemens.com
        Validity
            Not Before: Jan 11 16:50:57 2021 GMT
            Not After : Jan 11 16:50:57 2022 GMT
        Subject: O=testconstraints21, CN=testconstraints21
        Subject Public Key Info:
            Public Key Algorithm: rsaEncryption
                RSA Public-Key: (2048 bit)
                Modulus:
                    00:b0:54:2d:0f:bf:3c:a9:2b:ef:3c:c0:7f:5c:30:
                    2d:ea:be:fd:93:8a:44:3e:3d:2f:ba:72:df:63:d1:
                    dc:80:d9:c4:8b:ec:2b:40:a4:a5:f5:1e:3b:60:60:
                    4f:d1:62:14:79:49:ed:fa:84:50:c5:26:9b:31:00:
                    2b:06:62:55:01:49:f6:aa:23:2e:ba:fa:18:dd:75:
                    99:51:5f:86:ee:74:9b:be:d5:70:8a:97:ac:23:c5:
                    3f:b3:80:23:2e:4d:e9:ab:c3:23:6b:46:47:fc:8b:
                    8d:c7:1f:35:36:95:10:ce:54:19:37:40:9b:34:ed:
                    1d:a1:6c:b0:ff:aa:75:45:86:c7:b9:47:02:ce:63:
                    56:3b:dc:03:27:b3:9c:12:1f:6b:55:e8:6b:2c:48:
                    49:48:e1:a8:03:8e:95:af:b3:de:fd:bc:f1:99:f2:
                    14:cf:00:a6:63:b7:d7:94:4d:59:38:63:02:71:fe:
                    eb:49:f6:44:92:70:77:fb:66:ef:c3:1f:7a:26:8c:
                    19:56:e4:86:bb:28:6b:b7:33:1c:0a:18:e7:a7:08:
                    5a:d9:79:b1:2c:8b:b5:7d:0b:19:4a:70:97:fc:e0:
                    8b:8f:1d:9f:10:d1:b5:3f:94:ec:5d:4c:e8:a5:4a:
                    5d:84:e6:19:d5:1d:bd:36:1f:37:78:d3:d3:e0:53:
                    e9:7d
                Exponent: 65537 (0x10001)
        X509v3 extensions:
            X509v3 Extended Key Usage: 
                Any Extended Key Usage, TLS Web Server Authentication
            X509v3 Key Usage: 
                Digital Signature, Key Encipherment
            X509v3 Name Constraints: 
                Excluded:
                  URI:wrongHostConstraintExample

    Signature Algorithm: sha256WithRSAEncryption
         76:4b:7e:5e:43:43:e5:5b:dc:97:b2:16:3f:36:c3:8c:90:bf:
         60:2a:09:8e:ff:48:4f:db:b3:0f:d5:2d:a5:ca:54:e1:68:79:
         89:28:b2:7e:18:5e:c0:55:c9:30:00:43:3f:d0:90:b4:ae:da:
         fb:9a:b5:4e:d4:c3:6a:c4:41:27:34:6d:5a:75:f3:20:c7:9f:
         20:25:ac:4e:d6:82:0b:fc:a0:06:09:90:bc:c1:27:c2:92:51:
         17:59:f4:69:6a:c5:c9:34:c0:3d:e5:35:34:a1:fe:1d:d7:2d:
         dc:62:51:1b:58:f1:b2:45:84:ad:ae:73:21:a3:7b:78:de:21:
         f3:92:92:09:77:2c:c0:a1:bc:59:9b:42:a9:b6:01:b7:44:6f:
         70:a1:27:61:c4:96:74:3e:75:6d:0d:43:be:65:e9:18:2b:cc:
         0c:64:af:91:29:48:f7:7e:9c:c7:3a:b1:b1:27:c3:72:32:3a:
         ec:23:ae:b0:46:16:c0:fc:42:e4:82:4c:a4:15:ac:b5:39:90:
         fa:f1:50:56:0c:00:05:93:58:07:22:0d:82:bc:5b:42:1d:03:
         c6:e1:ca:1c:0e:d4:b2:d1:6c:a9:e2:92:58:8d:b2:b0:c3:1e:
         59:4d:dd:8e:22:f8:fe:c5:b0:5b:4a:9e:ea:cc:b9:ce:d3:59:
         cd:c6:56:e0:6b:5d:0a:e1:2d:1e:18:a6:23:66:a4:47:3c:3d:
         ad:55:17:37:3a:de:4d:08:8e:97:80:29:62:98:b5:af:16:0b:
         7f:ef:76:91:c2:03:f1:51:86:1f:5d:29:1e:8a:e6:6a:da:9b:
         eb:6d:6a:fd:ea:c6:f6:90:7f:88:ee:02:a0:0f:67:4c:92:4f:
         48:da:08:20:f7:8f:45:68:ee:c7:6a:6b:2c:bf:78:fd:35:d8:
         9e:6b:3f:fe:31:8f:82:37:31:26:fb:8d:eb:91:b0:58:2c:6e:
         ba:06:5d:44:30:c8:7a:32:18:cd:53:9a:4d:89:fe:0a:52:ac:
         88:e4:3c:d4:b5:76:17:6b:7a:ec:67:b8:a1:05:c7:25:72:a9:
         20:1a:dc:a9:69:aa:0d:26:62:27:b3:78:b6:81:8a:0b:32:7e:
         10:50:ac:ed:f1:92:30:81:bd:b6:ff:1a:97:72:29:42:41:88:
         04:b5:00:90:00:d6:42:e6:cc:c8:00:4f:1a:48:b0:50:07:69:
         76:22:d2:8f:49:76:23:49:87:eb:fd:15:97:36:4e:fd:dd:d5:
         c3:9a:e0:a4:f4:56:2f:51:78:8f:76:65:05:e1:c8:f9:e1:d5:
         aa:38:e8:d4:76:92:35:1c:a8:13:70:a4:8a:82:3a:9d:06:19:
         ec:ad:1b:59:3f:09:ba:c1
-----BEGIN CERTIFICATE-----
MIIEpzCCAo+gAwIBAgICEs0wDQYJKoZIhvcNAQELBQAwgZ0xCzAJBgNVBAYTAkRF
MQ8wDQYDVQQIDAZCYXllcm4xFDASBgNVBAcMC07Dg8K8cm5iZXJnMRMwEQYDVQQK
DApTaWVtZW5zIEFHMRQwEgYDVQQLDAtUcnVzdGNlbnRlcjERMA8GA1UEAwwIT2xp
dmVyQ0ExKTAnBgkqhkiG9w0BCQEWGm9saXZlci5zdGlsbGVyQHNpZW1lbnMuY29t
MB4XDTIxMDExMTE2NTA1N1oXDTIyMDExMTE2NTA1N1owODEaMBgGA1UECgwRdGVz
dGNvbnN0cmFpbnRzMjExGjAYBgNVBAMMEXRlc3Rjb25zdHJhaW50czIxMIIBIjAN
BgkqhkiG9w0BAQEFAAOCAQ8AMIIBCgKCAQEAsFQtD788qSvvPMB/XDAt6r79k4pE
Pj0vunLfY9HcgNnEi+wrQKSl9R47YGBP0WIUeUnt+oRQxSabMQArBmJVAUn2qiMu
uvoY3XWZUV+G7nSbvtVwipesI8U/s4AjLk3pq8Mja0ZH/IuNxx81NpUQzlQZN0Cb
NO0doWyw/6p1RYbHuUcCzmNWO9wDJ7OcEh9rVehrLEhJSOGoA46Vr7Pe/bzxmfIU
zwCmY7fXlE1ZOGMCcf7rSfZEknB3+2bvwx96JowZVuSGuyhrtzMcChjnpwha2Xmx
LIu1fQsZSnCX/OCLjx2fENG1P5TsXUzopUpdhOYZ1R29Nh83eNPT4FPpfQIDAQAB
o1UwUzAZBgNVHSUEEjAQBgRVHSUABggrBgEFBQcDATALBgNVHQ8EBAMCBaAwKQYD
VR0eBCIwIKEeMByGGndyb25nSG9zdENvbnN0cmFpbnRFeGFtcGxlMA0GCSqGSIb3
DQEBCwUAA4ICAQB2S35eQ0PlW9yXshY/NsOMkL9gKgmO/0hP27MP1S2lylThaHmJ
KLJ+GF7AVckwAEM/0JC0rtr7mrVO1MNqxEEnNG1adfMgx58gJaxO1oIL/KAGCZC8
wSfCklEXWfRpasXJNMA95TU0of4d1y3cYlEbWPGyRYStrnMho3t43iHzkpIJdyzA
obxZm0KptgG3RG9woSdhxJZ0PnVtDUO+ZekYK8wMZK+RKUj3fpzHOrGxJ8NyMjrs
I66wRhbA/ELkgkykFay1OZD68VBWDAAFk1gHIg2CvFtCHQPG4cocDtSy0Wyp4pJY
jbKwwx5ZTd2OIvj+xbBbSp7qzLnO01nNxlbga10K4S0eGKYjZqRHPD2tVRc3Ot5N
CI6XgClimLWvFgt/73aRwgPxUYYfXSkeiuZq2pvrbWr96sb2kH+I7gKgD2dMkk9I
2ggg949FaO7Hamssv3j9Ndieaz/+MY+CNzEm+43rkbBYLG66Bl1EMMh6MhjNU5pN
if4KUqyI5DzUtXYXa3rsZ7ihBcclcqkgGtypaaoNJmIns3i2gYoLMn4QUKzt8ZIw
gb22/xqXcilCQYgEtQCQANZC5szIAE8aSLBQB2l2ItKPSXYjSYfr/RWXNk793dXD
muCk9FYvUXiPdmUF4cj54dWqOOjUdpI1HKgTcKSKgjqdBhnsrRtZPwm6wQ==
-----END CERTIFICATE-----
