Certificate:
    Data:
        Version: 3 (0x2)
        Serial Number:
            4c:2a:1b:b7:cb:37:29:d8:c5:d8:30:8f:fb:fe:12:cc
        Signature Algorithm: sha256WithRSAEncryption
        Issuer: C=XX, O=Some CA, CN=Fake CA for zlint testing
        Validity
            Not Before: Jun 12 16:45:00 2023 GMT
            Not After : Dec 29 16:45:00 2023 GMT
        Subject: C=XX, ST=Some State or Province, L=Somewhere, O=Some Company Ltd.
        Subject Public Key Info:
            Public Key Algorithm: rsaEncryption
                Public-Key: (2048 bit)
                Modulus:
                    00:aa:9c:35:6d:68:23:8d:e0:d1:93:a2:95:47:bd:
                    a2:23:12:81:c8:98:a4:59:4c:93:55:35:0f:a9:1a:
                    4f:67:88:6f:57:f1:cc:fd:c5:00:68:67:46:68:fe:
                    42:2d:c3:7a:09:f7:9c:d7:b3:03:2b:b2:a3:5f:9b:
                    0d:d8:1b:e4:22:d2:7e:5a:d9:3c:28:ff:07:65:f4:
                    3a:04:64:76:13:c4:25:e9:e4:7e:e5:57:29:87:d6:
                    20:38:7d:04:69:b3:0f:f1:4f:16:09:b4:39:aa:58:
                    8a:8a:af:1b:7a:65:8f:52:ef:9b:70:6f:d3:c1:8b:
                    66:ff:37:2c:69:ad:73:4c:9f:ab:75:b2:6e:e6:8c:
                    02:f9:2f:17:89:5f:64:ae:30:40:ed:39:00:c5:c7:
                    0d:aa:0e:18:56:16:b1:b5:41:9b:f2:13:e0:65:53:
                    ab:16:21:e8:75:99:d2:67:a6:4f:9e:b1:1b:d3:48:
                    51:a0:dc:01:cc:c4:43:83:de:17:5a:24:25:5c:de:
                    e8:90:44:d6:f2:fe:95:34:b2:c0:7c:c8:dd:05:62:
                    a7:c5:9a:46:a5:6a:6e:7c:ef:b4:2b:87:64:84:ee:
                    91:23:df:cd:35:b7:ab:e7:e8:74:c0:c2:0c:ef:28:
                    2f:a0:72:23:98:7a:f5:40:1e:83:f1:14:89:e2:61:
                    63:bb
                Exponent: 65537 (0x10001)
        X509v3 extensions:
            X509v3 Key Usage: critical
                Digital Signature, Key Encipherment
            X509v3 Extended Key Usage: 
                TLS Web Client Authentication, TLS Web Server Authentication
            X509v3 Authority Key Identifier: 
                E8:B6:F6:76:4B:D0:3B:E5:46:A5:F9:54:D4:7E:07:B3:DE:0D:60:3E
            Authority Information Access: 
                OCSP - URI:http://ca.someca-inc.com/ocsp
                CA Issuers - URI:http://ca.someca-inc.com/root
            X509v3 Subject Alternative Name: 
                DNS:example.org
            X509v3 Certificate Policies: 
                Policy: 2.23.140.1.2.2
            X509v3 CRL Distribution Points: 
                Full Name:
                  URI:http://ca.someca-inc.com/crl

            CT Precertificate SCTs: 
                Signed Certificate Timestamp:
                    Version   : v1 (0x0)
                    Log ID    : EE:CD:D0:64:D5:DB:1A:CE:C5:5C:B7:9D:B4:CD:13:A2:
                                32:87:46:7C:BC:EC:DE:C3:51:48:59:46:71:1F:B5:9B
                    Timestamp : Jun 18 06:17:04.489 2023 GMT
                    Extensions: none
                    Signature : ecdsa-with-SHA256
                                30:46:02:21:00:92:89:DA:1A:2C:BE:2E:4B:64:A5:53:
                                09:BB:FA:2D:8B:D2:BC:7E:99:CD:19:3F:2D:E1:45:4F:
                                5D:51:44:A4:3D:02:21:00:85:1D:9C:B6:69:14:02:11:
                                AE:2D:D4:A6:43:8A:E0:75:60:BC:41:16:91:3C:38:C5:
                                D4:B5:12:E5:E5:A8:B4:B3
                Signed Certificate Timestamp:
                    Version   : v1 (0x0)
                    Log ID    : 48:B0:E3:6B:DA:A6:47:34:0F:E5:6A:02:FA:9D:30:EB:
                                1C:52:01:CB:56:DD:2C:81:D9:BB:BF:AB:39:D8:84:73
                    Timestamp : Jun 18 06:17:04.548 2023 GMT
                    Extensions: none
                    Signature : ecdsa-with-SHA256
                                30:46:02:21:00:83:56:33:DB:29:3A:BD:2E:DF:3C:FF:
                                AC:5C:C8:2D:D4:55:B7:F6:D8:6B:FF:3D:8D:7C:57:7D:
                                15:AC:A5:DD:52:02:21:00:C9:1F:CA:D5:CA:53:35:2E:
                                16:9C:8D:07:F5:4A:30:4C:08:35:E9:96:8C:BC:DD:BA:
                                9D:55:5F:9E:95:2D:CE:DA
                Signed Certificate Timestamp:
                    Version   : v1 (0x0)
                    Log ID    : DA:B6:BF:6B:3F:B5:B6:22:9F:9B:C2:BB:5C:6B:E8:70:
                                91:71:6C:BB:51:84:85:34:BD:A4:3D:30:48:D7:FB:AB
                    Timestamp : Jun 18 06:17:04.468 2023 GMT
                    Extensions: none
                    Signature : ecdsa-with-SHA256
                                30:46:02:21:00:DE:FF:C5:69:43:99:51:68:93:6A:C4:
                                BF:F2:D1:7F:AC:F7:4A:48:4D:4E:20:B0:03:08:21:B6:
                                46:6A:D7:77:6A:02:21:00:E8:D7:17:D6:7B:83:8C:25:
                                B7:AF:15:82:78:36:B5:78:F5:4E:9A:48:D1:01:BA:8A:
                                B6:C7:EA:2B:87:CB:DE:51
    Signature Algorithm: sha256WithRSAEncryption
    Signature Value:
        4b:dc:ac:a3:ad:f0:64:4e:4d:30:f9:6d:43:41:29:4b:8f:61:
        b1:ee:46:2c:51:15:3c:a3:92:1d:ab:ff:de:33:cb:04:90:4d:
        ab:3c:2b:d5:2b:1e:e4:13:d8:ea:90:ed:65:7b:eb:35:4e:66:
        d5:94:dd:be:15:0c:e7:9c:00:ce:0f:d0:1a:44:7f:6f:80:2c:
        b5:27:c0:df:c8:43:4a:77:b2:5d:c4:ec:bd:96:8c:c1:51:21:
        00:a6:c7:ef:84:f9:9a:4f:9f:9e:e9:e6:dc:c2:0c:23:74:fb:
        63:40:03:60:78:c8:78:39:a0:34:d4:e3:53:c2:f3:a6:4c:00:
        cd:fd:d8:b3:99:dd:f2:44:aa:40:73:eb:b3:4c:64:9c:f5:73:
        33:2b:e7:4c:85:50:7f:f2:bd:26:ce:ed:a4:75:32:c1:8b:7d:
        a1:11:72:c1:92:b1:3a:20:ed:3e:97:1e:3f:ef:50:ad:ae:97:
        6f:c8:d4:5a:1f:ec:b5:eb:aa:2d:ee:4e:18:94:4a:a5:2a:5b:
        25:04:3e:5a:4a:11:c4:75:4f:43:df:9a:8c:92:58:f9:4c:4d:
        03:8b:1b:92:8b:b5:68:d4:d5:08:50:56:b5:75:71:86:77:b3:
        48:3a:c7:40:e6:97:93:98:85:a4:98:9f:68:e9:7e:c9:48:19:
        ed:f5:6d:0c
-----BEGIN CERTIFICATE-----
MIIFyDCCBLCgAwIBAgIQTCobt8s3KdjF2DCP+/4SzDANBgkqhkiG9w0BAQsFADBD
MQswCQYDVQQGEwJYWDEQMA4GA1UEChMHU29tZSBDQTEiMCAGA1UEAxMZRmFrZSBD
QSBmb3IgemxpbnQgdGVzdGluZzAeFw0yMzA2MTIxNjQ1MDBaFw0yMzEyMjkxNjQ1
MDBaMF4xCzAJBgNVBAYTAlhYMR8wHQYDVQQIExZTb21lIFN0YXRlIG9yIFByb3Zp
bmNlMRIwEAYDVQQHEwlTb21ld2hlcmUxGjAYBgNVBAoTEVNvbWUgQ29tcGFueSBM
dGQuMIIBIjANBgkqhkiG9w0BAQEFAAOCAQ8AMIIBCgKCAQEAqpw1bWgjjeDRk6KV
R72iIxKByJikWUyTVTUPqRpPZ4hvV/HM/cUAaGdGaP5CLcN6Cfec17MDK7KjX5sN
2BvkItJ+Wtk8KP8HZfQ6BGR2E8Ql6eR+5Vcph9YgOH0EabMP8U8WCbQ5qliKiq8b
emWPUu+bcG/TwYtm/zcsaa1zTJ+rdbJu5owC+S8XiV9krjBA7TkAxccNqg4YVhax
tUGb8hPgZVOrFiHodZnSZ6ZPnrEb00hRoNwBzMRDg94XWiQlXN7okETW8v6VNLLA
fMjdBWKnxZpGpWpufO+0K4dkhO6RI9/NNber5+h0wMIM7ygvoHIjmHr1QB6D8RSJ
4mFjuwIDAQABo4ICmzCCApcwDgYDVR0PAQH/BAQDAgWgMB0GA1UdJQQWMBQGCCsG
AQUFBwMCBggrBgEFBQcDATAfBgNVHSMEGDAWgBTotvZ2S9A75Ual+VTUfgez3g1g
PjBkBggrBgEFBQcBAQRYMFYwKQYIKwYBBQUHMAGGHWh0dHA6Ly9jYS5zb21lY2Et
aW5jLmNvbS9vY3NwMCkGCCsGAQUFBzAChh1odHRwOi8vY2Euc29tZWNhLWluYy5j
b20vcm9vdDAWBgNVHREEDzANggtleGFtcGxlLm9yZzATBgNVHSAEDDAKMAgGBmeB
DAECAjAtBgNVHR8EJjAkMCKgIKAehhxodHRwOi8vY2Euc29tZWNhLWluYy5jb20v
Y3JsMIIBgQYKKwYBBAHWeQIEAgSCAXEEggFtAWsAdwDuzdBk1dsazsVct520zROi
ModGfLzs3sNRSFlGcR+1mwAAAYjNJmDpAAAEAwBIMEYCIQCSidoaLL4uS2SlUwm7
+i2L0rx+mc0ZPy3hRU9dUUSkPQIhAIUdnLZpFAIRri3UpkOK4HVgvEEWkTw4xdS1
EuXlqLSzAHcASLDja9qmRzQP5WoC+p0w6xxSActW3SyB2bu/qznYhHMAAAGIzSZh
JAAABAMASDBGAiEAg1Yz2yk6vS7fPP+sXMgt1FW39thr/z2NfFd9Fayl3VICIQDJ
H8rVylM1LhacjQf1SjBMCDXploy83bqdVV+elS3O2gB3ANq2v2s/tbYin5vCu1xr
6HCRcWy7UYSFNL2kPTBI1/urAAABiM0mYNQAAAQDAEgwRgIhAN7/xWlDmVFok2rE
v/LRf6z3SkhNTiCwAwghtkZq13dqAiEA6NcX1nuDjCW3rxWCeDa1ePVOmkjRAbqK
tsfqK4fL3lEwDQYJKoZIhvcNAQELBQADggEBAEvcrKOt8GROTTD5bUNBKUuPYbHu
RixRFTyjkh2r/94zywSQTas8K9UrHuQT2OqQ7WV76zVOZtWU3b4VDOecAM4P0BpE
f2+ALLUnwN/IQ0p3sl3E7L2WjMFRIQCmx++E+ZpPn57p5tzCDCN0+2NAA2B4yHg5
oDTU41PC86ZMAM392LOZ3fJEqkBz67NMZJz1czMr50yFUH/yvSbO7aR1MsGLfaER
csGSsTog7T6XHj/vUK2ul2/I1Fof7LXrqi3uThiUSqUqWyUEPlpKEcR1T0PfmoyS
WPlMTQOLG5KLtWjU1QhQVrV1cYZ3s0g6x0Dml5OYhaSYn2jpfslIGe31bQw=
-----END CERTIFICATE-----
