Certificate:
    Data:
        Version: 3 (0x2)
        Serial Number:
            ca:a9:c5:5f:5a:f8:3c:17:51:1d:df:6d:6b:15:5e:b8
        Signature Algorithm: sha256WithRSAEncryption
        Issuer: C=XX, O=Some CA, CN=Fake CA for zlint testing
        Validity
            Not Before: Feb 11 05:05:00 2026 GMT
            Not After : Aug 30 05:05:00 2026 GMT
        Subject: C=XX, ST=Some State or Province, L=Somewhere, O=Some Company Ltd.
        Subject Public Key Info:
            Public Key Algorithm: rsaEncryption
                Public-Key: (2048 bit)
                Modulus:
                    00:bf:51:8c:39:3a:1f:4e:df:da:e5:53:fc:7b:33:
                    3d:f1:07:e3:53:f6:39:b6:9e:17:af:78:9c:12:f0:
                    9c:fc:4a:fb:09:6b:af:72:11:46:27:3c:f8:85:96:
                    d4:f4:86:93:9d:05:f3:6e:0d:63:be:0d:56:c8:0e:
                    bd:79:07:e5:3e:9d:93:8c:ea:3e:f2:a6:9c:d0:23:
                    d7:f0:d0:75:1e:0c:aa:59:27:17:43:ee:4d:13:ed:
                    fd:03:3d:02:0e:8b:de:8a:08:08:19:a7:57:f4:ae:
                    18:cc:94:97:2a:db:85:0b:4c:6d:17:68:7c:21:33:
                    c9:45:6b:62:d6:f6:18:85:a1:83:f7:d9:e3:a1:3c:
                    0b:b0:84:ac:6d:05:0a:68:53:f3:04:11:2f:f7:4c:
                    e1:dc:c2:43:43:54:06:19:3a:9d:a4:08:d9:0e:1a:
                    a2:4c:e6:48:73:53:49:07:97:c5:85:eb:1c:7e:60:
                    ed:32:77:75:bd:cc:0c:66:44:5c:63:f4:a0:4c:15:
                    a9:19:f1:b9:aa:fc:19:88:ca:f4:b7:cd:d6:74:13:
                    5a:b5:eb:32:5b:4e:a2:05:b1:8c:09:1c:2c:b2:fa:
                    82:a8:90:08:ff:b9:1c:a2:3c:12:25:03:23:3b:93:
                    1d:8c:dd:86:dc:2c:27:89:0f:90:0d:d1:d8:5c:eb:
                    92:4d
                Exponent: 65537 (0x10001)
        X509v3 extensions:
            X509v3 Key Usage: critical
                Digital Signature, Key Encipherment
            X509v3 Extended Key Usage: 
                TLS Web Client Authentication, TLS Web Server Authentication
            X509v3 Authority Key Identifier: 
                E8:B6:F6:76:4B:D0:3B:E5:46:A5:F9:54:D4:7E:07:B3:DE:0D:60:3E
            Authority Information Access: 
                OCSP - URI:http://ca.someca-inc.com/ocsp
                CA Issuers - URI:http://ca.someca-inc.com/root
            X509v3 Subject Alternative Name: 
                DNS:example.org
            X509v3 Certificate Policies: 
                Policy: 2.23.140.1.2.2
            X509v3 CRL Distribution Points: 
                Full Name:
                  URI:http://ca.someca-inc.com/crl

            CT Precertificate SCTs: 
                Signed Certificate Timestamp:
                    Version   : v1 (0x0)
                    Log ID    : 64:11:C4:6C:A4:12:EC:A7:89:1C:A2:02:2E:00:BC:AB:
                                4F:28:07:D4:1E:35:27:AB:EA:FE:D5:03:C9:7D:CD:F0
                    Timestamp : Feb 14 05:06:38.584 2026 GMT
                    Extensions: none
                    Signature : ecdsa-with-SHA256
                                30:45:02:21:00:89:82:CD:95:60:E1:88:F8:A6:8C:F2:
                                55:78:2C:35:6A:AC:BE:34:83:6D:50:B4:F5:31:36:0E:
                                96:0A:AD:AA:27:02:20:1A:32:B7:D3:E3:FE:3C:1C:5B:
                                17:17:5D:59:A5:8E:21:CC:09:DA:E3:C5:3B:2F:34:1F:
                                85:ED:7D:23:84:A0:52
                Signed Certificate Timestamp:
                    Version   : v1 (0x0)
                    Log ID    : 16:83:2D:AB:F0:A9:25:0F:0F:F0:3A:A5:45:FF:C8:BF:
                                C8:23:D0:87:4B:F6:04:29:27:F8:E7:1F:33:13:F5:FA
                    Timestamp : Feb 14 05:06:38.607 2026 GMT
                    Extensions: none
                    Signature : ecdsa-with-SHA256
                                30:45:02:21:00:9B:FB:E0:44:3B:4F:C9:42:CE:AE:67:
                                6A:52:8B:05:94:AE:74:4B:AE:CB:27:EF:8D:B7:59:47:
                                FA:D3:00:2D:6E:02:20:13:16:D6:D6:38:05:D9:A8:04:
                                2C:52:80:59:3B:E8:69:16:CB:D0:B5:18:72:47:ED:9F:
                                53:06:F3:3B:62:BA:A3
    Signature Algorithm: sha256WithRSAEncryption
    Signature Value:
        b4:92:8b:f9:42:62:e8:c2:46:0e:30:62:92:63:50:67:d2:bb:
        ac:6c:7d:f4:e0:b5:48:7d:92:7c:15:8d:d6:a5:24:18:6a:14:
        64:91:30:2e:82:ad:04:10:8a:1e:e6:39:37:80:98:86:33:b2:
        59:aa:e7:a0:1c:1c:fa:f3:91:04:93:38:7b:b0:f1:84:b4:b1:
        55:e7:c0:f5:ac:7b:dc:a2:8b:2c:4b:e3:1d:47:23:4a:84:41:
        13:f2:0d:61:9a:d9:5a:8d:ea:df:1c:e9:69:0e:f2:4c:38:49:
        9c:52:5f:69:cf:fb:9c:3a:b9:bf:d9:c2:26:51:f1:cd:c0:73:
        e9:ee:9e:22:14:e5:56:43:82:12:8a:bf:79:36:62:53:c2:07:
        08:c3:d9:21:b4:71:8c:06:1b:82:1c:3e:e1:59:35:d0:bf:66:
        b3:cd:f6:aa:aa:a4:9c:62:b8:34:cf:f7:2e:01:dd:c4:86:90:
        6a:66:bd:3d:85:10:04:7c:c1:18:e0:5b:89:07:9d:9d:84:eb:
        08:f2:a5:63:a7:1b:e3:41:fc:a0:69:14:64:24:f3:3b:65:cf:
        e8:97:2b:e1:1a:94:8a:10:15:96:f0:86:11:2e:70:15:dd:ad:
        32:84:ef:71:48:21:a5:3d:e5:d8:69:74:80:69:a6:bc:fa:ee:
        c3:26:8a:47
-----BEGIN CERTIFICATE-----
MIIFTDCCBDSgAwIBAgIRAMqpxV9a+DwXUR3fbWsVXrgwDQYJKoZIhvcNAQELBQAw
QzELMAkGA1UEBhMCWFgxEDAOBgNVBAoTB1NvbWUgQ0ExIjAgBgNVBAMTGUZha2Ug
Q0EgZm9yIHpsaW50IHRlc3RpbmcwHhcNMjYwMjExMDUwNTAwWhcNMjYwODMwMDUw
NTAwWjBeMQswCQYDVQQGEwJYWDEfMB0GA1UECBMWU29tZSBTdGF0ZSBvciBQcm92
aW5jZTESMBAGA1UEBxMJU29tZXdoZXJlMRowGAYDVQQKExFTb21lIENvbXBhbnkg
THRkLjCCASIwDQYJKoZIhvcNAQEBBQADggEPADCCAQoCggEBAL9RjDk6H07f2uVT
/HszPfEH41P2ObaeF694nBLwnPxK+wlrr3IRRic8+IWW1PSGk50F824NY74NVsgO
vXkH5T6dk4zqPvKmnNAj1/DQdR4MqlknF0PuTRPt/QM9Ag6L3ooICBmnV/SuGMyU
lyrbhQtMbRdofCEzyUVrYtb2GIWhg/fZ46E8C7CErG0FCmhT8wQRL/dM4dzCQ0NU
Bhk6naQI2Q4aokzmSHNTSQeXxYXrHH5g7TJ3db3MDGZEXGP0oEwVqRnxuar8GYjK
9LfN1nQTWrXrMltOogWxjAkcLLL6gqiQCP+5HKI8EiUDIzuTHYzdhtwsJ4kPkA3R
2Fzrkk0CAwEAAaOCAh4wggIaMA4GA1UdDwEB/wQEAwIFoDAdBgNVHSUEFjAUBggr
BgEFBQcDAgYIKwYBBQUHAwEwHwYDVR0jBBgwFoAU6Lb2dkvQO+VGpflU1H4Hs94N
YD4wZAYIKwYBBQUHAQEEWDBWMCkGCCsGAQUFBzABhh1odHRwOi8vY2Euc29tZWNh
LWluYy5jb20vb2NzcDApBggrBgEFBQcwAoYdaHR0cDovL2NhLnNvbWVjYS1pbmMu
Y29tL3Jvb3QwFgYDVR0RBA8wDYILZXhhbXBsZS5vcmcwEwYDVR0gBAwwCjAIBgZn
gQwBAgIwLQYDVR0fBCYwJDAioCCgHoYcaHR0cDovL2NhLnNvbWVjYS1pbmMuY29t
L2NybDCCAQQGCisGAQQB1nkCBAIEgfUEgfIA8AB2AGQRxGykEuyniRyiAi4AvKtP
KAfUHjUnq+r+1QPJfc3wAAABnFqLNXgAAAQDAEcwRQIhAImCzZVg4Yj4pozyVXgs
NWqsvjSDbVC09TE2DpYKraonAiAaMrfT4/48HFsXF11ZpY4hzAna48U7LzQfhe19
I4SgUgB2ABaDLavwqSUPD/A6pUX/yL/II9CHS/YEKSf45x8zE/X6AAABnFqLNY8A
AAQDAEcwRQIhAJv74EQ7T8lCzq5nalKLBZSudEuuyyfvjbdZR/rTAC1uAiATFtbW
OAXZqAQsUoBZO+hpFsvQtRhyR+2fUwbzO2K6ozANBgkqhkiG9w0BAQsFAAOCAQEA
tJKL+UJi6MJGDjBikmNQZ9K7rGx99OC1SH2SfBWN1qUkGGoUZJEwLoKtBBCKHuY5
N4CYhjOyWarnoBwc+vORBJM4e7DxhLSxVefA9ax73KKLLEvjHUcjSoRBE/INYZrZ
Wo3q3xzpaQ7yTDhJnFJfac/7nDq5v9nCJlHxzcBz6e6eIhTlVkOCEoq/eTZiU8IH
CMPZIbRxjAYbghw+4Vk10L9ms832qqqknGK4NM/3LgHdxIaQama9PYUQBHzBGOBb
iQednYTrCPKlY6cb40H8oGkUZCTzO2XP6Jcr4RqUihAVlvCGES5wFd2tMoTvcUgh
pT3l2Gl0gGmmvPruwyaKRw==
-----END CERTIFICATE-----
