Certificate:
    Data:
        Version: 3 (0x2)
        Serial Number:
            48:e4:fc:94:e8:13:df:c2:a2:c2:f8:45:b0:01:38:b5
        Signature Algorithm: sha256WithRSAEncryption
        Issuer: C=XX, O=Some CA, CN=Fake CA for zlint testing
        Validity
            Not Before: Feb 14 05:05:00 2026 GMT
            Not After : Sep  2 05:05:00 2026 GMT
        Subject: C=XX, ST=Some State or Province, L=Somewhere, O=Some Company Ltd.
        Subject Public Key Info:
            Public Key Algorithm: rsaEncryption
                Public-Key: (2048 bit)
                Modulus:
                    00:aa:14:70:36:c8:b5:c7:dd:10:b6:34:ca:c9:89:
                    16:e3:5a:92:c0:98:8f:21:cb:8a:2c:20:d6:84:01:
                    45:bb:8e:25:82:73:85:68:3b:ae:30:cc:b0:b1:ad:
                    73:0c:a3:e8:4c:74:31:f3:89:b7:fa:42:f3:b6:52:
                    87:4e:5a:5d:ee:8f:e2:ba:16:2d:ed:2f:d2:46:1b:
                    49:39:d2:a5:82:59:c6:d2:05:f8:02:e8:29:14:1a:
                    8c:56:53:ac:72:cd:99:d9:af:af:94:6e:5e:20:21:
                    12:1b:57:84:fc:0f:a5:1e:f5:da:f6:43:e1:f2:6f:
                    96:64:d7:40:e4:8f:51:c9:64:c5:9b:7b:24:a4:d7:
                    d3:72:ac:ec:b0:bf:e5:2f:a0:8a:11:4c:b9:df:5d:
                    53:99:0c:d1:94:5d:3f:0c:a6:65:8d:0f:f1:1f:57:
                    d7:ce:55:28:b3:a5:ca:05:2f:3a:d1:5d:31:a3:14:
                    93:34:29:32:6a:4a:fe:23:a8:65:ea:9f:25:ae:eb:
                    6b:7e:82:55:96:09:ad:d0:ed:4b:c5:a4:ce:f5:91:
                    71:d2:26:36:5a:fa:98:ed:b3:a7:09:df:4b:15:09:
                    92:e4:36:fb:3a:92:8c:c2:04:c7:74:9a:15:54:b2:
                    1e:60:cf:fe:64:20:c7:c3:4e:17:21:47:c5:e6:19:
                    5d:6f
                Exponent: 65537 (0x10001)
        X509v3 extensions:
            X509v3 Key Usage: critical
                Digital Signature, Key Encipherment
            X509v3 Extended Key Usage: 
                TLS Web Client Authentication, TLS Web Server Authentication
            X509v3 Authority Key Identifier: 
                E8:B6:F6:76:4B:D0:3B:E5:46:A5:F9:54:D4:7E:07:B3:DE:0D:60:3E
            Authority Information Access: 
                OCSP - URI:http://ca.someca-inc.com/ocsp
                CA Issuers - URI:http://ca.someca-inc.com/root
            X509v3 Subject Alternative Name: 
                DNS:example.org
            X509v3 Certificate Policies: 
                Policy: 2.23.140.1.2.2
            X509v3 CRL Distribution Points: 
                Full Name:
                  URI:http://ca.someca-inc.com/crl

            CT Precertificate SCTs: 
                Signed Certificate Timestamp:
                    Version   : v1 (0x0)
                    Log ID    : 64:11:C4:6C:A4:12:EC:A7:89:1C:A2:02:2E:00:BC:AB:
                                4F:28:07:D4:1E:35:27:AB:EA:FE:D5:03:C9:7D:CD:F0
                    Timestamp : Feb 14 05:06:38.584 2026 GMT
                    Extensions: none
                    Signature : ecdsa-with-SHA256
                                30:45:02:21:00:89:82:CD:95:60:E1:88:F8:A6:8C:F2:
                                55:78:2C:35:6A:AC:BE:34:83:6D:50:B4:F5:31:36:0E:
                                96:0A:AD:AA:27:02:20:1A:32:B7:D3:E3:FE:3C:1C:5B:
                                17:17:5D:59:A5:8E:21:CC:09:DA:E3:C5:3B:2F:34:1F:
                                85:ED:7D:23:84:A0:52
                Signed Certificate Timestamp:
                    Version   : v1 (0x0)
                    Log ID    : 16:83:2D:AB:F0:A9:25:0F:0F:F0:3A:A5:45:FF:C8:BF:
                                C8:23:D0:87:4B:F6:04:29:27:F8:E7:1F:33:13:F5:FA
                    Timestamp : Feb 14 05:06:38.607 2026 GMT
                    Extensions: none
                    Signature : ecdsa-with-SHA256
                                30:45:02:21:00:9B:FB:E0:44:3B:4F:C9:42:CE:AE:67:
                                6A:52:8B:05:94:AE:74:4B:AE:CB:27:EF:8D:B7:59:47:
                                FA:D3:00:2D:6E:02:20:13:16:D6:D6:38:05:D9:A8:04:
                                2C:52:80:59:3B:E8:69:16:CB:D0:B5:18:72:47:ED:9F:
                                53:06:F3:3B:62:BA:A3
    Signature Algorithm: sha256WithRSAEncryption
    Signature Value:
        0f:a3:cc:9b:92:2a:65:0e:a4:8e:2d:3e:e7:9d:8e:b3:0e:5e:
        95:24:f8:6a:d0:01:81:97:f4:b3:aa:f0:92:d1:12:c4:9b:03:
        e5:60:57:64:09:6c:f9:84:44:9b:15:4c:c2:30:12:ed:6f:be:
        ce:5b:36:a2:fe:f5:d1:b1:9a:29:91:a6:db:a3:77:4a:bf:ea:
        34:b6:87:4e:2d:9c:ac:33:23:fc:6f:d6:83:e5:65:2c:de:a3:
        72:42:11:53:86:86:ad:39:13:f8:0f:0a:33:63:ff:50:ce:35:
        31:08:21:c4:cb:37:ac:a4:c7:81:61:a5:ed:02:f3:dd:9c:86:
        23:59:1a:9c:11:3b:ad:5a:9b:3e:88:2a:d3:55:04:5d:53:41:
        64:0a:c2:05:a4:48:23:c6:a1:fa:5a:19:fa:36:f5:25:6f:d5:
        72:8d:a9:d1:d2:75:df:0a:96:19:e0:6b:a7:b2:9e:39:71:82:
        88:3a:5e:97:7b:81:76:62:ff:ee:aa:67:40:83:68:50:dd:f6:
        79:5d:e3:da:bd:03:d1:35:0a:34:ae:c4:f8:d5:30:98:c6:a0:
        7e:0c:fe:af:54:be:26:8b:cc:5f:5e:57:65:36:94:b1:57:09:
        67:a0:5f:32:82:e2:52:58:a5:ac:e1:f0:35:76:a2:8a:ae:92:
        54:5d:69:ee
-----BEGIN CERTIFICATE-----
MIIFSzCCBDOgAwIBAgIQSOT8lOgT38KiwvhFsAE4tTANBgkqhkiG9w0BAQsFADBD
MQswCQYDVQQGEwJYWDEQMA4GA1UEChMHU29tZSBDQTEiMCAGA1UEAxMZRmFrZSBD
QSBmb3IgemxpbnQgdGVzdGluZzAeFw0yNjAyMTQwNTA1MDBaFw0yNjA5MDIwNTA1
MDBaMF4xCzAJBgNVBAYTAlhYMR8wHQYDVQQIExZTb21lIFN0YXRlIG9yIFByb3Zp
bmNlMRIwEAYDVQQHEwlTb21ld2hlcmUxGjAYBgNVBAoTEVNvbWUgQ29tcGFueSBM
dGQuMIIBIjANBgkqhkiG9w0BAQEFAAOCAQ8AMIIBCgKCAQEAqhRwNsi1x90QtjTK
yYkW41qSwJiPIcuKLCDWhAFFu44lgnOFaDuuMMywsa1zDKPoTHQx84m3+kLztlKH
Tlpd7o/iuhYt7S/SRhtJOdKlglnG0gX4AugpFBqMVlOscs2Z2a+vlG5eICESG1eE
/A+lHvXa9kPh8m+WZNdA5I9RyWTFm3skpNfTcqzssL/lL6CKEUy5311TmQzRlF0/
DKZljQ/xH1fXzlUos6XKBS860V0xoxSTNCkyakr+I6hl6p8lrutrfoJVlgmt0O1L
xaTO9ZFx0iY2WvqY7bOnCd9LFQmS5Db7OpKMwgTHdJoVVLIeYM/+ZCDHw04XIUfF
5hldbwIDAQABo4ICHjCCAhowDgYDVR0PAQH/BAQDAgWgMB0GA1UdJQQWMBQGCCsG
AQUFBwMCBggrBgEFBQcDATAfBgNVHSMEGDAWgBTotvZ2S9A75Ual+VTUfgez3g1g
PjBkBggrBgEFBQcBAQRYMFYwKQYIKwYBBQUHMAGGHWh0dHA6Ly9jYS5zb21lY2Et
aW5jLmNvbS9vY3NwMCkGCCsGAQUFBzAChh1odHRwOi8vY2Euc29tZWNhLWluYy5j
b20vcm9vdDAWBgNVHREEDzANggtleGFtcGxlLm9yZzATBgNVHSAEDDAKMAgGBmeB
DAECAjAtBgNVHR8EJjAkMCKgIKAehhxodHRwOi8vY2Euc29tZWNhLWluYy5jb20v
Y3JsMIIBBAYKKwYBBAHWeQIEAgSB9QSB8gDwAHYAZBHEbKQS7KeJHKICLgC8q08o
B9QeNSer6v7VA8l9zfAAAAGcWos1eAAABAMARzBFAiEAiYLNlWDhiPimjPJVeCw1
aqy+NINtULT1MTYOlgqtqicCIBoyt9Pj/jwcWxcXXVmljiHMCdrjxTsvNB+F7X0j
hKBSAHYAFoMtq/CpJQ8P8DqlRf/Iv8gj0IdL9gQpJ/jnHzMT9foAAAGcWos1jwAA
BAMARzBFAiEAm/vgRDtPyULOrmdqUosFlK50S67LJ++Nt1lH+tMALW4CIBMW1tY4
BdmoBCxSgFk76GkWy9C1GHJH7Z9TBvM7YrqjMA0GCSqGSIb3DQEBCwUAA4IBAQAP
o8ybkiplDqSOLT7nnY6zDl6VJPhq0AGBl/SzqvCS0RLEmwPlYFdkCWz5hESbFUzC
MBLtb77OWzai/vXRsZopkabbo3dKv+o0todOLZysMyP8b9aD5WUs3qNyQhFThoat
ORP4DwozY/9QzjUxCCHEyzespMeBYaXtAvPdnIYjWRqcETutWps+iCrTVQRdU0Fk
CsIFpEgjxqH6Whn6NvUlb9VyjanR0nXfCpYZ4Gunsp45cYKIOl6Xe4F2Yv/uqmdA
g2hQ3fZ5XePavQPRNQo0rsT41TCYxqB+DP6vVL4mi8xfXldlNpSxVwlnoF8yguJS
WKWs4fA1dqKKrpJUXWnu
-----END CERTIFICATE-----
