Certificate:
    Data:
        Version: 3 (0x2)
        Serial Number:
            8e:eb:ac:05:39:b3:f3:c5:08:1d:fc:b8:0c:60:f2:b6
        Signature Algorithm: sha256WithRSAEncryption
        Issuer: C=XX, O=Some CA, CN=Fake CA for zlint testing
        Validity
            Not Before: Feb 14 09:50:22 2026 GMT
            Not After : Feb 14 09:50:22 2027 GMT
        Subject: C=XX, ST=Some State or Province, L=Somewhere, O=Some Company Ltd., serialNumber=1234567890, businessCategory=Non-Commercial Entity
        Subject Public Key Info:
            Public Key Algorithm: rsaEncryption
                Public-Key: (2048 bit)
                Modulus:
                    00:ba:a3:64:21:dc:1d:bd:39:cc:b0:50:fa:5b:f3:
                    31:88:af:75:f9:e1:bf:1b:a5:0e:65:04:22:25:54:
                    a6:ba:83:ca:0e:1c:18:d1:86:e1:e8:de:d9:cf:c9:
                    a7:6f:fc:50:0f:9b:d5:2d:cc:86:5e:0b:74:33:ba:
                    74:ae:a0:71:1d:39:92:63:dc:44:0a:f1:ee:f7:03:
                    e3:3d:0d:51:ee:78:29:ac:3b:d2:c5:d9:0c:f9:70:
                    8d:a6:e1:b0:d2:b2:b7:53:bc:7d:6e:4c:fa:5f:9f:
                    db:d3:f6:5e:7d:21:d1:2d:bb:45:d2:9b:b6:1c:bf:
                    56:f6:ce:71:e9:6b:6e:b7:0d:ba:bd:11:4f:d0:cd:
                    c0:d6:73:ff:c3:25:36:dd:99:b5:89:5a:89:1c:66:
                    ee:3f:07:f2:f6:f0:bd:39:2f:dc:a8:84:ba:83:49:
                    05:98:d3:35:c2:97:58:22:d0:1a:9a:e3:29:29:c2:
                    75:1b:65:25:24:ad:a1:cc:21:ad:ed:b3:70:b4:c3:
                    3f:d4:d6:aa:52:9a:2f:2c:c2:27:ca:cc:cc:63:1f:
                    7e:19:22:6c:ae:bf:a7:6a:1c:05:8f:84:a4:3e:86:
                    99:56:e4:1d:3d:cb:58:86:a0:ed:cc:8e:71:a1:10:
                    26:48:f0:dd:6e:4c:46:36:33:50:ee:b5:78:39:90:
                    ad:53
                Exponent: 65537 (0x10001)
        X509v3 extensions:
            X509v3 Key Usage: critical
                Digital Signature, Key Encipherment
            X509v3 Extended Key Usage: 
                TLS Web Client Authentication, TLS Web Server Authentication
            X509v3 Authority Key Identifier: 
                E8:B6:F6:76:4B:D0:3B:E5:46:A5:F9:54:D4:7E:07:B3:DE:0D:60:3E
            Authority Information Access: 
                OCSP - URI:http://ca.someca-inc.com/ocsp
                CA Issuers - URI:http://ca.someca-inc.com/root
            X509v3 Subject Alternative Name: 
                DNS:example.org
            X509v3 Certificate Policies: 
                Policy: 2.23.140.1.1
            X509v3 CRL Distribution Points: 
                Full Name:
                  URI:http://ca.someca-inc.com/crl

    Signature Algorithm: sha256WithRSAEncryption
    Signature Value:
        60:ec:40:8e:f6:08:92:bb:02:f3:25:ee:e8:8d:fc:f3:3d:d8:
        d0:ec:46:1b:16:aa:38:af:8d:7a:80:f8:b8:c8:84:e8:35:e8:
        ae:bf:03:96:38:e6:78:01:e6:09:3f:76:7f:aa:91:d7:16:3f:
        74:cf:89:fd:a0:d2:d4:07:9b:b0:65:03:40:9c:8f:90:46:f2:
        7f:89:82:b8:49:a0:ff:7f:e6:3a:47:72:7c:f3:e1:e8:df:5a:
        84:65:b2:af:d0:f6:fd:7e:a4:f5:03:3e:a7:25:af:d4:fe:ba:
        fc:52:68:d6:2f:1b:f2:8d:82:3f:48:de:45:9c:cb:d6:7e:c4:
        d7:1a:27:72:a4:60:c1:ed:bf:8e:9b:0a:f7:59:7a:0a:0e:0b:
        02:e5:63:16:df:5c:e2:c9:1c:98:87:46:c7:7e:34:12:b0:af:
        75:e8:11:2a:52:24:24:c6:21:aa:b5:85:c1:f0:09:32:3b:2f:
        38:d8:01:25:b9:49:e9:69:a0:33:92:e6:2d:18:70:9f:a6:13:
        e5:6f:0f:31:d9:23:49:41:40:e4:94:6f:dd:34:33:69:7a:c1:
        46:86:57:d0:fa:5d:5e:4d:86:68:c8:74:3d:5a:5e:7a:27:1c:
        17:8f:8e:47:d7:af:c8:25:6e:a7:40:e8:ef:f6:15:a5:b9:d4:
        e9:84:8e:08
-----BEGIN CERTIFICATE-----
MIIEeTCCA2GgAwIBAgIRAI7rrAU5s/PFCB38uAxg8rYwDQYJKoZIhvcNAQELBQAw
QzELMAkGA1UEBhMCWFgxEDAOBgNVBAoTB1NvbWUgQ0ExIjAgBgNVBAMTGUZha2Ug
Q0EgZm9yIHpsaW50IHRlc3RpbmcwHhcNMjYwMjE0MDk1MDIyWhcNMjcwMjE0MDk1
MDIyWjCBkzELMAkGA1UEBhMCWFgxHzAdBgNVBAgTFlNvbWUgU3RhdGUgb3IgUHJv
dmluY2UxEjAQBgNVBAcTCVNvbWV3aGVyZTEaMBgGA1UEChMRU29tZSBDb21wYW55
IEx0ZC4xEzARBgNVBAUTCjEyMzQ1Njc4OTAxHjAcBgNVBA8TFU5vbi1Db21tZXJj
aWFsIEVudGl0eTCCASIwDQYJKoZIhvcNAQEBBQADggEPADCCAQoCggEBALqjZCHc
Hb05zLBQ+lvzMYivdfnhvxulDmUEIiVUprqDyg4cGNGG4eje2c/Jp2/8UA+b1S3M
hl4LdDO6dK6gcR05kmPcRArx7vcD4z0NUe54Kaw70sXZDPlwjabhsNKyt1O8fW5M
+l+f29P2Xn0h0S27RdKbthy/VvbOcelrbrcNur0RT9DNwNZz/8MlNt2ZtYlaiRxm
7j8H8vbwvTkv3KiEuoNJBZjTNcKXWCLQGprjKSnCdRtlJSStocwhre2zcLTDP9TW
qlKaLyzCJ8rMzGMffhkibK6/p2ocBY+EpD6GmVbkHT3LWIag7cyOcaEQJkjw3W5M
RjYzUO61eDmQrVMCAwEAAaOCARUwggERMA4GA1UdDwEB/wQEAwIFoDAdBgNVHSUE
FjAUBggrBgEFBQcDAgYIKwYBBQUHAwEwHwYDVR0jBBgwFoAU6Lb2dkvQO+VGpflU
1H4Hs94NYD4wZAYIKwYBBQUHAQEEWDBWMCkGCCsGAQUFBzABhh1odHRwOi8vY2Eu
c29tZWNhLWluYy5jb20vb2NzcDApBggrBgEFBQcwAoYdaHR0cDovL2NhLnNvbWVj
YS1pbmMuY29tL3Jvb3QwFgYDVR0RBA8wDYILZXhhbXBsZS5vcmcwEgYDVR0gBAsw
CTAHBgVngQwBATAtBgNVHR8EJjAkMCKgIKAehhxodHRwOi8vY2Euc29tZWNhLWlu
Yy5jb20vY3JsMA0GCSqGSIb3DQEBCwUAA4IBAQBg7ECO9giSuwLzJe7ojfzzPdjQ
7EYbFqo4r416gPi4yIToNeiuvwOWOOZ4AeYJP3Z/qpHXFj90z4n9oNLUB5uwZQNA
nI+QRvJ/iYK4SaD/f+Y6R3J88+Ho31qEZbKv0Pb9fqT1Az6nJa/U/rr8UmjWLxvy
jYI/SN5FnMvWfsTXGidypGDB7b+Omwr3WXoKDgsC5WMW31ziyRyYh0bHfjQSsK91
6BEqUiQkxiGqtYXB8AkyOy842AEluUnpaaAzkuYtGHCfphPlbw8x2SNJQUDklG/d
NDNpesFGhlfQ+l1eTYZoyHQ9Wl56JxwXj45H16/IJW6nQOjv9hWludTphI4I
-----END CERTIFICATE-----
