Certificate:
    Data:
        Version: 3 (0x2)
        Serial Number:
            47:5f:5a:fe:a4:fd:5a:41:04:88:2e:04:af:dc:c2:f6
        Signature Algorithm: sha256WithRSAEncryption
        Issuer: C = XX, O = Some CA, CN = Fake Root CA for zlint testing
        Validity
            Not Before: Jul  4 04:19:44 2024 GMT
            Not After : Jul  3 04:19:44 2029 GMT
        Subject: C = XX, ST = Some State, L = Some Locality, O = Some CA, CN = Fake CA for zlint testing
        Subject Public Key Info:
            Public Key Algorithm: rsaEncryption
                RSA Public-Key: (4096 bit)
                Modulus:
                    00:d3:0d:4b:35:d2:c9:64:51:1b:a4:09:f6:90:02:
                    0c:b8:7a:68:d2:c7:85:4d:7b:3e:a4:3a:11:36:3c:
                    01:41:c0:e3:78:48:aa:7d:e5:75:cb:6e:ae:22:b7:
                    0e:81:a3:44:ff:62:22:5a:cf:d8:d6:c5:a6:9e:4d:
                    8e:bc:34:23:9b:4a:4d:43:4d:37:bf:9b:6b:ad:25:
                    52:07:20:2a:c9:50:e8:0a:0a:f7:7e:b0:30:71:8c:
                    04:18:5c:17:d8:8c:94:52:39:6f:bc:14:3c:63:3e:
                    ef:de:f0:2f:c1:7f:25:83:48:fd:16:c6:0e:3d:bc:
                    c5:50:de:07:59:96:f5:a2:a7:a6:46:67:b6:1f:9a:
                    79:97:1e:e1:9e:8f:2e:12:fc:49:7d:d3:41:e1:18:
                    1d:26:2c:24:33:cd:2a:11:4c:d2:1c:1a:8b:9c:7b:
                    4e:4b:46:96:ac:99:ce:5b:c4:1c:ed:00:f0:42:ee:
                    4e:95:23:1e:4f:39:5f:bc:51:de:c0:10:a5:65:f1:
                    a7:3b:ad:98:02:76:2f:42:48:c0:00:d0:3b:40:b0:
                    70:62:42:7c:bc:26:9b:65:1f:4e:47:1c:70:30:6a:
                    5e:d0:f1:f8:17:6a:0c:c0:8e:50:f2:9f:3f:91:1a:
                    00:37:92:8e:09:e8:21:6f:20:a5:f2:4a:c9:5d:43:
                    0c:bc:91:9a:20:6d:c1:66:97:b7:7f:6f:34:6d:7d:
                    de:8c:f2:e2:50:46:13:19:d7:ec:2e:3c:19:15:12:
                    bc:36:35:46:68:38:91:8f:27:8b:42:fa:68:a1:23:
                    03:c7:f6:2e:14:97:ac:e9:35:7f:6e:ad:b8:74:c6:
                    c1:1c:e4:c6:df:1d:56:28:a6:c1:e4:8f:61:6f:9c:
                    38:7d:d7:a4:16:ca:fd:e3:c6:80:72:07:8b:35:1d:
                    72:77:eb:a3:4e:ee:24:0e:9b:b8:e5:67:06:73:72:
                    d1:cc:b3:9c:a0:ed:77:0d:85:9b:26:91:3f:50:8c:
                    a0:53:86:ed:2a:e3:84:d0:24:ff:6b:af:68:92:dd:
                    1d:e5:c7:ce:8a:8a:0f:87:4c:86:14:f3:4d:b1:d2:
                    e7:7f:1a:4d:52:d2:6a:ab:d4:95:e1:75:05:82:e3:
                    a3:4a:5c:fe:5f:c3:5e:19:93:7f:25:6e:64:44:72:
                    a5:6a:19:ee:74:43:ad:dc:27:ae:70:72:a7:2b:29:
                    01:7a:dd:33:b2:2d:d9:c5:42:7f:f4:86:91:2b:65:
                    17:75:b8:90:ed:93:e3:aa:7d:48:dd:04:06:7f:86:
                    52:04:29:69:ef:f6:9a:d8:43:ea:05:a3:ea:5a:69:
                    1e:8d:2f:a3:05:a0:82:a8:60:ec:80:b6:9d:39:40:
                    b7:bb:ff
                Exponent: 65537 (0x10001)
        X509v3 extensions:
            X509v3 Key Usage: critical
                Certificate Sign, CRL Sign
            X509v3 Extended Key Usage: 
                TLS Web Client Authentication, TLS Web Server Authentication
            X509v3 Basic Constraints: critical
                CA:TRUE
            X509v3 Subject Key Identifier: 
                64:3A:86:7F:DE:C9:23:B3:A6:E1:4B:32:BB:CF:9D:09:16:9D:9C:6F
            X509v3 Authority Key Identifier: 
                keyid:E8:B6:F6:76:4B:D0:3B:E5:46:A5:F9:54:D4:7E:07:B3:DE:0D:60:3E

            Authority Information Access: 
                OCSP - URI:http://ca.someca-inc.com/ocsp
                CA Issuers - URI:http://ca.someca-inc.com/root

            X509v3 Certificate Policies: 
                Policy: X509v3 Any Policy

            X509v3 CRL Distribution Points: 

                Full Name:
                  URI:http://ca.someca-inc.com/crl

    Signature Algorithm: sha256WithRSAEncryption
         14:aa:57:81:07:a3:8c:f9:8e:df:38:10:dc:75:bb:75:a1:61:
         88:0b:ae:1b:98:22:67:d4:f4:2d:2d:1f:76:ce:99:fb:f0:75:
         d1:46:1d:39:7f:07:61:d5:89:23:e4:fb:9e:63:13:5b:cb:f8:
         0d:f9:13:5d:fb:d1:a0:25:cb:c8:70:d2:46:b5:16:a5:24:1f:
         68:d4:6e:c8:35:e0:eb:26:ae:35:d3:4d:0f:40:70:30:2a:7f:
         32:d2:10:fd:57:29:fc:15:4f:8a:62:f4:b0:6b:1b:9d:b9:32:
         75:cc:4d:f3:c5:cf:63:e9:cd:49:bb:17:83:c7:56:a1:dd:11:
         2a:91:b1:33:d9:e5:7d:d5:00:a1:f7:dd:e1:1b:2b:12:d9:a1:
         98:21:c3:05:62:30:b1:1d:26:16:76:f1:8e:02:b4:4c:f8:6d:
         14:aa:30:1b:4a:2e:78:c5:e5:12:48:64:65:12:22:89:8c:15:
         c1:c3:56:1c:ec:65:15:66:63:ea:4a:ec:80:84:ec:4f:0b:52:
         34:50:3b:28:6d:f1:66:b9:82:8a:27:3f:0f:8c:48:2c:bc:19:
         29:87:ca:de:28:64:0a:e3:c8:29:fc:1d:d9:75:28:a0:f3:08:
         ba:c4:5b:9b:e5:c6:09:6f:24:a3:d3:96:36:96:a3:a2:4e:81:
         a7:88:8d:8f:7b:0c:66:2e:59:28:f4:b8:df:15:0c:e0:82:04:
         19:81:57:27:dd:c5:71:43:0e:11:a6:d4:16:46:80:2b:1e:ab:
         88:cd:e4:42:3e:f1:6c:89:83:8a:63:05:fb:e5:d9:68:b0:e8:
         d6:7a:b4:48:58:58:5c:71:31:03:49:54:4e:f3:c0:5e:e8:2d:
         9d:87:25:44:ba:18:1f:36:67:04:fd:00:62:15:b8:70:62:53:
         31:26:16:a5:93:60:3a:f7:d5:5c:53:5a:db:98:a3:2c:c8:07:
         aa:2b:f6:8b:c1:c8:01:b4:fb:8e:bd:df:f8:94:38:3d:4c:7f:
         dd:9b:a9:37:bb:d6:ca:20:93:17:3a:b7:55:3b:5c:89:4f:58:
         b3:b2:89:9a:a0:12:e8:f7:60:7c:3e:00:b9:37:52:6c:91:96:
         5e:4d:ce:c3:21:66:17:ba:e5:2c:7c:69:ce:26:39:e4:49:47:
         fc:51:b3:7e:15:16:b3:b9:05:b2:f8:00:2e:3b:e1:41:45:30:
         20:c5:56:e8:fd:c8:ca:a3:b8:6c:11:07:94:54:5c:ad:39:7d:
         55:bc:24:da:65:68:ac:a8:8a:0d:eb:ce:89:5e:29:0d:c7:f4:
         49:ae:29:a7:68:43:8e:a7:94:1c:52:48:c3:b3:21:0e:eb:4d:
         17:3b:d3:49:c9:ae:9e:c8
-----BEGIN CERTIFICATE-----
MIIGcDCCBFigAwIBAgIQR19a/qT9WkEEiC4Er9zC9jANBgkqhkiG9w0BAQsFADBI
MQswCQYDVQQGEwJYWDEQMA4GA1UEChMHU29tZSBDQTEnMCUGA1UEAxMeRmFrZSBS
b290IENBIGZvciB6bGludCB0ZXN0aW5nMB4XDTI0MDcwNDA0MTk0NFoXDTI5MDcw
MzA0MTk0NFowcDELMAkGA1UEBhMCWFgxEzARBgNVBAgTClNvbWUgU3RhdGUxFjAU
BgNVBAcTDVNvbWUgTG9jYWxpdHkxEDAOBgNVBAoTB1NvbWUgQ0ExIjAgBgNVBAMT
GUZha2UgQ0EgZm9yIHpsaW50IHRlc3RpbmcwggIiMA0GCSqGSIb3DQEBAQUAA4IC
DwAwggIKAoICAQDTDUs10slkURukCfaQAgy4emjSx4VNez6kOhE2PAFBwON4SKp9
5XXLbq4itw6Bo0T/YiJaz9jWxaaeTY68NCObSk1DTTe/m2utJVIHICrJUOgKCvd+
sDBxjAQYXBfYjJRSOW+8FDxjPu/e8C/BfyWDSP0Wxg49vMVQ3gdZlvWip6ZGZ7Yf
mnmXHuGejy4S/El900HhGB0mLCQzzSoRTNIcGouce05LRpasmc5bxBztAPBC7k6V
Ix5POV+8Ud7AEKVl8ac7rZgCdi9CSMAA0DtAsHBiQny8JptlH05HHHAwal7Q8fgX
agzAjlDynz+RGgA3ko4J6CFvIKXySsldQwy8kZogbcFml7d/bzRtfd6M8uJQRhMZ
1+wuPBkVErw2NUZoOJGPJ4tC+mihIwPH9i4Ul6zpNX9urbh0xsEc5MbfHVYopsHk
j2FvnDh916QWyv3jxoByB4s1HXJ366NO7iQOm7jlZwZzctHMs5yg7XcNhZsmkT9Q
jKBThu0q44TQJP9rr2iS3R3lx86Kig+HTIYU802x0ud/Gk1S0mqr1JXhdQWC46NK
XP5fw14Zk38lbmREcqVqGe50Q63cJ65wcqcrKQF63TOyLdnFQn/0hpErZRd1uJDt
k+OqfUjdBAZ/hlIEKWnv9prYQ+oFo+paaR6NL6MFoIKoYOyAtp05QLe7/wIDAQAB
o4IBLDCCASgwDgYDVR0PAQH/BAQDAgEGMB0GA1UdJQQWMBQGCCsGAQUFBwMCBggr
BgEFBQcDATAPBgNVHRMBAf8EBTADAQH/MB0GA1UdDgQWBBRkOoZ/3skjs6bhSzK7
z50JFp2cbzAfBgNVHSMEGDAWgBTotvZ2S9A75Ual+VTUfgez3g1gPjBkBggrBgEF
BQcBAQRYMFYwKQYIKwYBBQUHMAGGHWh0dHA6Ly9jYS5zb21lY2EtaW5jLmNvbS9v
Y3NwMCkGCCsGAQUFBzAChh1odHRwOi8vY2Euc29tZWNhLWluYy5jb20vcm9vdDAR
BgNVHSAECjAIMAYGBFUdIAAwLQYDVR0fBCYwJDAioCCgHoYcaHR0cDovL2NhLnNv
bWVjYS1pbmMuY29tL2NybDANBgkqhkiG9w0BAQsFAAOCAgEAFKpXgQejjPmO3zgQ
3HW7daFhiAuuG5giZ9T0LS0fds6Z+/B10UYdOX8HYdWJI+T7nmMTW8v4DfkTXfvR
oCXLyHDSRrUWpSQfaNRuyDXg6yauNdNND0BwMCp/MtIQ/Vcp/BVPimL0sGsbnbky
dcxN88XPY+nNSbsXg8dWod0RKpGxM9nlfdUAoffd4RsrEtmhmCHDBWIwsR0mFnbx
jgK0TPhtFKowG0oueMXlEkhkZRIiiYwVwcNWHOxlFWZj6krsgITsTwtSNFA7KG3x
ZrmCiic/D4xILLwZKYfK3ihkCuPIKfwd2XUooPMIusRbm+XGCW8ko9OWNpajok6B
p4iNj3sMZi5ZKPS43xUM4IIEGYFXJ93FcUMOEabUFkaAKx6riM3kQj7xbImDimMF
++XZaLDo1nq0SFhYXHExA0lUTvPAXugtnYclRLoYHzZnBP0AYhW4cGJTMSYWpZNg
OvfVXFNa25ijLMgHqiv2i8HIAbT7jr3f+JQ4PUx/3ZupN7vWyiCTFzq3VTtciU9Y
s7KJmqAS6PdgfD4AuTdSbJGWXk3OwyFmF7rlLHxpziY55ElH/FGzfhUWs7kFsvgA
LjvhQUUwIMVW6P3IyqO4bBEHlFRcrTl9Vbwk2mVorKiKDevOiV4pDcf0Sa4pp2hD
jqeUHFJIw7MhDutNFzvTScmunsg=
-----END CERTIFICATE-----
