Certificate:
    Data:
        Version: 3 (0x2)
        Serial Number:
            22:be:cc:c3:29:b6:22:3e:00:0d:bb:b0:23:83:42:39
        Signature Algorithm: sha256WithRSAEncryption
        Issuer: C = XX, O = Some CA, CN = Fake CA for zlint testing
        Validity
            Not Before: Jul  4 04:23:50 2024 GMT
            Not After : Jul  4 04:23:50 2025 GMT
        Subject: C = IT, ST = Some State or Province, L = Somewhere, O = Some Company Ltd., CN = example.org
        Subject Public Key Info:
            Public Key Algorithm: rsaEncryption
                RSA Public-Key: (2048 bit)
                Modulus:
                    00:d5:7d:26:8a:e7:99:f2:c8:d9:1d:e3:3a:9d:a9:
                    7b:9f:9f:b7:4c:5c:c5:87:1c:06:4c:d2:a1:f9:b0:
                    40:ec:34:e1:a4:86:ec:e2:56:e9:d1:cd:15:33:05:
                    c1:fd:3b:1e:05:43:ec:53:bd:9d:bd:68:96:00:f8:
                    e1:f0:12:cc:ec:89:0d:d8:34:24:f4:cd:e3:67:57:
                    f0:68:1c:f1:24:ba:18:05:80:a7:16:69:c3:84:84:
                    50:3a:5b:46:e5:bb:db:ec:b5:51:07:5c:3e:65:33:
                    a6:7e:05:09:c7:2d:ab:74:71:d5:db:a9:ad:ae:03:
                    21:f3:e9:19:78:4e:05:46:be:03:c1:14:b0:0b:36:
                    3e:39:1e:af:c4:de:40:e3:9c:4d:76:62:5c:93:0b:
                    da:65:29:e4:9b:53:1d:e2:a3:ba:a9:d5:53:02:16:
                    df:5c:ab:39:54:76:1f:07:21:50:85:4e:d7:4b:ce:
                    06:9d:9f:dd:1b:47:00:8c:33:25:8f:5c:37:fc:63:
                    7e:85:6a:de:33:5d:24:65:5f:7d:4a:d2:7d:99:0a:
                    c9:7e:dd:68:a8:d3:7a:58:54:db:8b:66:46:e2:60:
                    e8:ce:4a:b0:d2:70:ea:23:eb:4f:63:27:14:81:7e:
                    2e:92:c7:dd:e3:12:20:bb:ab:ba:ee:9b:f9:88:8e:
                    c6:ef
                Exponent: 65537 (0x10001)
        X509v3 extensions:
            X509v3 Key Usage: critical
                Digital Signature, Key Encipherment
            X509v3 Extended Key Usage: 
                TLS Web Client Authentication, TLS Web Server Authentication
            X509v3 Subject Key Identifier: 
                5E:48:EF:42:2E:9C:D8:F9:CE:DF:D1:5E:29:CB:79:74:AC:13:EC:D5
            X509v3 Authority Key Identifier: 
                keyid:E8:B6:F6:76:4B:D0:3B:E5:46:A5:F9:54:D4:7E:07:B3:DE:0D:60:3E

            Authority Information Access: 
                OCSP - URI:http://ca.someca-inc.com/ocsp
                CA Issuers - URI:http://ca.someca-inc.com/root

            X509v3 Subject Alternative Name: 
                DNS:example.org
            X509v3 Certificate Policies: 
                Policy: 2.23.140.1.2.2

            X509v3 CRL Distribution Points: 

                Full Name:
                  URI:http://ca.someca-inc.com/crl

    Signature Algorithm: sha256WithRSAEncryption
         90:96:91:18:19:f7:ce:ea:f1:82:0c:33:44:b2:38:03:f1:5a:
         21:78:f0:b0:d0:94:c9:54:04:c9:4a:04:d8:ec:30:fe:09:08:
         61:bf:a9:d4:b5:e6:d1:c2:43:a2:13:82:95:32:ac:9c:e5:d7:
         aa:4b:e6:8c:3a:14:e8:4e:90:04:7d:1f:1d:85:30:77:9b:76:
         02:c1:55:a4:06:7f:3b:90:96:a1:8b:09:41:28:59:fb:e1:9c:
         0a:ed:e1:b7:ee:14:8b:34:18:a5:e3:aa:e0:e4:3e:f3:f6:fb:
         52:5b:52:a2:56:d9:50:b6:d2:89:87:07:bf:a3:38:92:96:af:
         ae:84:db:f5:b0:11:4c:5c:8b:96:f0:d1:8d:b4:d1:b1:04:68:
         85:f8:88:a7:74:66:0a:c7:45:dd:3f:57:7d:41:2d:7a:f4:1c:
         35:12:36:9e:25:ad:85:53:95:46:05:5d:a7:71:2e:37:8b:60:
         b2:32:f8:e5:83:28:69:41:64:d5:75:7c:3f:c3:f7:14:0c:c0:
         9d:14:d2:f8:bc:16:2d:2a:db:d9:fc:11:fb:20:b2:fd:8b:e0:
         f0:ce:46:3a:0d:68:75:58:bf:47:02:fd:91:3e:73:fe:4f:50:
         0a:23:92:81:5c:ab:f6:85:6f:67:e6:72:b6:c6:d5:ff:98:de:
         49:9a:fe:d2
-----BEGIN CERTIFICATE-----
MIIEeDCCA2CgAwIBAgIQIr7Mwym2Ij4ADbuwI4NCOTANBgkqhkiG9w0BAQsFADBD
MQswCQYDVQQGEwJYWDEQMA4GA1UEChMHU29tZSBDQTEiMCAGA1UEAxMZRmFrZSBD
QSBmb3IgemxpbnQgdGVzdGluZzAeFw0yNDA3MDQwNDIzNTBaFw0yNTA3MDQwNDIz
NTBaMHQxCzAJBgNVBAYTAklUMR8wHQYDVQQIExZTb21lIFN0YXRlIG9yIFByb3Zp
bmNlMRIwEAYDVQQHEwlTb21ld2hlcmUxGjAYBgNVBAoTEVNvbWUgQ29tcGFueSBM
dGQuMRQwEgYDVQQDEwtleGFtcGxlLm9yZzCCASIwDQYJKoZIhvcNAQEBBQADggEP
ADCCAQoCggEBANV9JornmfLI2R3jOp2pe5+ft0xcxYccBkzSofmwQOw04aSG7OJW
6dHNFTMFwf07HgVD7FO9nb1olgD44fASzOyJDdg0JPTN42dX8Ggc8SS6GAWApxZp
w4SEUDpbRuW72+y1UQdcPmUzpn4FCcctq3Rx1dupra4DIfPpGXhOBUa+A8EUsAs2
Pjker8TeQOOcTXZiXJML2mUp5JtTHeKjuqnVUwIW31yrOVR2HwchUIVO10vOBp2f
3RtHAIwzJY9cN/xjfoVq3jNdJGVffUrSfZkKyX7daKjTelhU24tmRuJg6M5KsNJw
6iPrT2MnFIF+LpLH3eMSILuruu6b+YiOxu8CAwEAAaOCATUwggExMA4GA1UdDwEB
/wQEAwIFoDAdBgNVHSUEFjAUBggrBgEFBQcDAgYIKwYBBQUHAwEwHQYDVR0OBBYE
FF5I70IunNj5zt/RXinLeXSsE+zVMB8GA1UdIwQYMBaAFOi29nZL0DvlRqX5VNR+
B7PeDWA+MGQGCCsGAQUFBwEBBFgwVjApBggrBgEFBQcwAYYdaHR0cDovL2NhLnNv
bWVjYS1pbmMuY29tL29jc3AwKQYIKwYBBQUHMAKGHWh0dHA6Ly9jYS5zb21lY2Et
aW5jLmNvbS9yb290MBYGA1UdEQQPMA2CC2V4YW1wbGUub3JnMBMGA1UdIAQMMAow
CAYGZ4EMAQICMC0GA1UdHwQmMCQwIqAgoB6GHGh0dHA6Ly9jYS5zb21lY2EtaW5j
LmNvbS9jcmwwDQYJKoZIhvcNAQELBQADggEBAJCWkRgZ987q8YIMM0SyOAPxWiF4
8LDQlMlUBMlKBNjsMP4JCGG/qdS15tHCQ6ITgpUyrJzl16pL5ow6FOhOkAR9Hx2F
MHebdgLBVaQGfzuQlqGLCUEoWfvhnArt4bfuFIs0GKXjquDkPvP2+1JbUqJW2VC2
0omHB7+jOJKWr66E2/WwEUxci5bw0Y200bEEaIX4iKd0ZgrHRd0/V31BLXr0HDUS
Np4lrYVTlUYFXadxLjeLYLIy+OWDKGlBZNV1fD/D9xQMwJ0U0vi8Fi0q29n8Efsg
sv2L4PDORjoNaHVYv0cC/ZE+c/5PUAojkoFcq/aFb2fmcrbG1f+Y3kma/tI=
-----END CERTIFICATE-----
