Certificate:
    Data:
        Version: 3 (0x2)
        Serial Number: 3 (0x3)
        Signature Algorithm: ecdsa-with-SHA256
        Issuer:
        Validity
            Not Before: Feb  8 16:15:44 2025 GMT
            Not After : Nov 30 00:00:00 9998 GMT
        Subject: CN = example.org, OU = Example Security Division, O = "Example Corp, Inc.", street = 123 Example Street, L = San Francisco, ST = California, C = US, serialNumber = 1234567890
        Subject Public Key Info:
            Public Key Algorithm: id-ecPublicKey
                Public-Key: (256 bit)
                pub:
                    04:15:00:78:6a:d2:96:d0:4f:d6:60:10:5d:61:7f:
                    46:6d:44:a0:26:89:55:10:1f:9e:72:85:86:fa:fe:
                    2a:92:a4:fa:9c:83:05:dc:cf:cc:ab:7c:bc:aa:7d:
                    db:8e:dd:26:75:ed:04:2b:81:4f:fb:ae:1e:34:e9:
                    1e:23:51:b9:e0
                ASN1 OID: prime256v1
                NIST CURVE: P-256
        X509v3 extensions:
            X509v3 Key Usage: critical
                Digital Signature, Key Encipherment
            X509v3 Extended Key Usage:
                TLS Web Client Authentication, TLS Web Server Authentication
            X509v3 Subject Key Identifier:
                81:2F:1F:10:DF:33:E6:9B:E4:2C:0F:AE:E6:F4:8D:51:BC:63:E1:BA
            X509v3 Authority Key Identifier:
                E8:B6:F6:76:4B:D0:3B:E5:46:A5:F9:54:D4:7E:07:B3:DE:0D:60:3E
            Authority Information Access:
                OCSP - URI:http://ca.someca-inc.com/ocsp
                CA Issuers - URI:http://ca.someca-inc.com/root
            X509v3 Subject Alternative Name:
                DNS:example.org
            X509v3 Certificate Policies:
                Policy: 2.23.140.1.1
            X509v3 CRL Distribution Points:
                Full Name:
                  URI:http://ca.someca-inc.com/crl
    Signature Algorithm: ecdsa-with-SHA256
    Signature Value:
        30:45:02:21:00:be:3d:65:20:74:8a:e7:d8:9e:fc:ce:ff:f3:
        9b:f5:50:34:8c:e2:2a:88:c4:56:e5:a8:7d:8c:bc:a6:3d:0e:
        f4:02:20:52:c6:89:c7:24:a9:46:5e:8f:f8:7c:4b:21:dc:2f:
        d1:90:93:11:3e:4c:e8:90:79:92:5d:11:18:0a:61:b3:1f
-----BEGIN CERTIFICATE-----
MIIC6zCCApGgAwIBAgIBAzAKBggqhkjOPQQDAjAAMCAXDTI1MDIwODE2MTU0NFoY
Dzk5OTgxMTMwMDAwMDAwWjCBwzEUMBIGA1UEAxMLZXhhbXBsZS5vcmcxIjAgBgNV
BAsTGUV4YW1wbGUgU2VjdXJpdHkgRGl2aXNpb24xGzAZBgNVBAoTEkV4YW1wbGUg
Q29ycCwgSW5jLjEbMBkGA1UECRMSMTIzIEV4YW1wbGUgU3RyZWV0MRYwFAYDVQQH
Ew1TYW4gRnJhbmNpc2NvMRMwEQYDVQQIEwpDYWxpZm9ybmlhMQswCQYDVQQGEwJV
UzETMBEGA1UEBRMKMTIzNDU2Nzg5MDBZMBMGByqGSM49AgEGCCqGSM49AwEHA0IA
BBUAeGrSltBP1mAQXWF/Rm1EoCaJVRAfnnKFhvr+KpKk+pyDBdzPzKt8vKp9247d
JnXtBCuBT/uuHjTpHiNRueCjggE0MIIBMDAOBgNVHQ8BAf8EBAMCBaAwHQYDVR0l
BBYwFAYIKwYBBQUHAwIGCCsGAQUFBwMBMB0GA1UdDgQWBBSBLx8Q3zPmm+QsD67m
9I1RvGPhujAfBgNVHSMEGDAWgBTotvZ2S9A75Ual+VTUfgez3g1gPjBkBggrBgEF
BQcBAQRYMFYwKQYIKwYBBQUHMAGGHWh0dHA6Ly9jYS5zb21lY2EtaW5jLmNvbS9v
Y3NwMCkGCCsGAQUFBzAChh1odHRwOi8vY2Euc29tZWNhLWluYy5jb20vcm9vdDAW
BgNVHREEDzANggtleGFtcGxlLm9yZzASBgNVHSAECzAJMAcGBWeBDAEBMC0GA1Ud
HwQmMCQwIqAgoB6GHGh0dHA6Ly9jYS5zb21lY2EtaW5jLmNvbS9jcmwwCgYIKoZI
zj0EAwIDSAAwRQIhAL49ZSB0iufYnvzO//Ob9VA0jOIqiMRW5ah9jLymPQ70AiBS
xonHJKlGXo/4fEsh3C/RkJMRPkzokHmSXREYCmGzHw==
-----END CERTIFICATE-----