Certificate:
    Data:
        Version: 3 (0x2)
        Serial Number:
            81:24:5e:a7:9a:04:90:ae:40:ca:b8:89:2c:04:97
        Signature Algorithm: sha256WithRSAEncryption
        Issuer: C = XX, O = Some CA, CN = Fake CA for zlint testing
        Validity
            Not Before: Jul  4 04:25:41 2024 GMT
            Not After : Jul  4 04:25:41 2025 GMT
        Subject: C = IT, ST = Some State or Province, L = Somewhere, O = Some Company Ltd., CN = example.org, serialNumber = 1234567890, businessCategory = Non-Commercial Entity
        Subject Public Key Info:
            Public Key Algorithm: rsaEncryption
                RSA Public-Key: (2048 bit)
                Modulus:
                    00:9b:1b:85:2f:53:fb:08:40:6a:2a:40:a1:cc:6d:
                    f2:d5:bb:4a:86:f9:12:03:e4:55:0b:c6:dc:70:ec:
                    91:f1:3f:b7:44:4f:05:53:2b:68:31:8e:9c:27:92:
                    17:b6:ea:43:02:88:12:76:80:00:b7:5f:60:9f:47:
                    02:e6:19:f9:4f:65:3a:f6:6c:54:b2:41:14:a0:0f:
                    9b:a0:bd:ca:ff:d9:bb:bf:51:58:eb:37:66:57:38:
                    8c:86:30:77:d1:b8:63:73:9f:0a:83:73:1e:ae:ab:
                    f4:0c:f4:53:dc:18:20:2a:19:1f:f2:53:60:9a:b9:
                    49:e3:be:54:d9:e1:ff:60:7b:d3:aa:df:3c:eb:bc:
                    8c:15:12:fd:fc:98:ce:5f:f6:5a:b8:27:38:2f:60:
                    84:f8:fc:3a:4e:81:7a:bb:63:41:70:c8:46:76:55:
                    4b:dc:14:94:0a:84:9c:87:99:ca:d7:74:3c:62:22:
                    c0:58:e3:21:60:4f:4a:f3:d8:eb:fd:fa:a2:35:45:
                    eb:5f:bf:33:1c:10:71:62:9d:68:3b:86:95:de:fb:
                    a9:18:22:e9:30:d5:22:aa:1b:df:28:03:21:fd:1d:
                    6b:38:fc:52:e1:53:48:aa:4d:85:5d:92:71:43:63:
                    28:79:ca:a1:ea:c6:8d:ee:9a:b9:a6:8d:c7:c7:eb:
                    94:9b
                Exponent: 65537 (0x10001)
        X509v3 extensions:
            X509v3 Key Usage: critical
                Digital Signature, Key Encipherment
            X509v3 Extended Key Usage: 
                TLS Web Client Authentication, TLS Web Server Authentication
            X509v3 Subject Key Identifier: 
                81:2F:1F:10:DF:33:E6:9B:E4:2C:0F:AE:E6:F4:8D:51:BC:63:E1:BA
            X509v3 Authority Key Identifier: 
                keyid:E8:B6:F6:76:4B:D0:3B:E5:46:A5:F9:54:D4:7E:07:B3:DE:0D:60:3E

            Authority Information Access: 
                OCSP - URI:http://ca.someca-inc.com/ocsp
                CA Issuers - URI:http://ca.someca-inc.com/root

            X509v3 Subject Alternative Name: 
                DNS:example.org
            X509v3 Certificate Policies: 
                Policy: 2.23.140.1.1

            X509v3 CRL Distribution Points: 

                Full Name:
                  URI:http://ca.someca-inc.com/crl

    Signature Algorithm: sha256WithRSAEncryption
         72:26:40:51:65:5b:b9:f0:d0:df:12:73:28:8b:57:63:f9:e6:
         c4:5c:32:02:3d:63:32:eb:04:6c:71:aa:11:39:98:8c:09:0c:
         42:b9:90:7f:21:a1:c1:1e:37:46:5a:4a:77:d7:c6:29:c6:20:
         98:87:a5:6b:ff:31:de:4d:ad:90:42:ef:93:62:a7:23:df:29:
         50:00:1b:d4:b4:be:8a:1b:87:d2:58:b0:31:ec:1a:1f:98:ab:
         0d:03:ce:72:b3:a8:fd:59:47:83:39:ed:44:0f:96:a6:96:df:
         ba:3e:94:74:c7:e1:41:ef:d5:5b:65:1e:ff:2a:8d:c5:74:8d:
         aa:3f:e6:27:ab:54:0a:57:ae:72:7a:4c:48:55:58:0a:8f:f1:
         f2:bc:14:d3:fc:af:7a:82:e8:61:bf:ac:91:c3:6b:5c:52:7b:
         69:39:78:04:39:ba:ec:c6:68:55:12:57:b9:1b:dd:0f:0b:5d:
         65:09:ff:e7:d3:d5:c6:ae:66:e7:b5:df:42:f8:64:32:d6:30:
         7a:ef:53:95:c5:38:e1:43:b3:9b:13:57:7e:6e:b6:7f:48:58:
         6d:8f:d3:fb:03:bf:dc:8d:92:72:b6:5a:33:92:d3:8a:9c:a8:
         7a:f6:a0:5e:ba:04:2e:54:fb:65:88:df:6c:87:95:e5:13:20:
         1f:b3:7c:f6
-----BEGIN CERTIFICATE-----
MIIErTCCA5WgAwIBAgIQAIEkXqeaBJCuQMq4iSwElzANBgkqhkiG9w0BAQsFADBD
MQswCQYDVQQGEwJYWDEQMA4GA1UEChMHU29tZSBDQTEiMCAGA1UEAxMZRmFrZSBD
QSBmb3IgemxpbnQgdGVzdGluZzAeFw0yNDA3MDQwNDI1NDFaFw0yNTA3MDQwNDI1
NDFaMIGpMQswCQYDVQQGEwJJVDEfMB0GA1UECBMWU29tZSBTdGF0ZSBvciBQcm92
aW5jZTESMBAGA1UEBxMJU29tZXdoZXJlMRowGAYDVQQKExFTb21lIENvbXBhbnkg
THRkLjEUMBIGA1UEAxMLZXhhbXBsZS5vcmcxEzARBgNVBAUTCjEyMzQ1Njc4OTAx
HjAcBgNVBA8TFU5vbi1Db21tZXJjaWFsIEVudGl0eTCCASIwDQYJKoZIhvcNAQEB
BQADggEPADCCAQoCggEBAJsbhS9T+whAaipAocxt8tW7Sob5EgPkVQvG3HDskfE/
t0RPBVMraDGOnCeSF7bqQwKIEnaAALdfYJ9HAuYZ+U9lOvZsVLJBFKAPm6C9yv/Z
u79RWOs3Zlc4jIYwd9G4Y3OfCoNzHq6r9Az0U9wYICoZH/JTYJq5SeO+VNnh/2B7
06rfPOu8jBUS/fyYzl/2WrgnOC9ghPj8Ok6BertjQXDIRnZVS9wUlAqEnIeZytd0
PGIiwFjjIWBPSvPY6/36ojVF61+/MxwQcWKdaDuGld77qRgi6TDVIqob3ygDIf0d
azj8UuFTSKpNhV2ScUNjKHnKoerGje6auaaNx8frlJsCAwEAAaOCATQwggEwMA4G
A1UdDwEB/wQEAwIFoDAdBgNVHSUEFjAUBggrBgEFBQcDAgYIKwYBBQUHAwEwHQYD
VR0OBBYEFIEvHxDfM+ab5CwPrub0jVG8Y+G6MB8GA1UdIwQYMBaAFOi29nZL0Dvl
RqX5VNR+B7PeDWA+MGQGCCsGAQUFBwEBBFgwVjApBggrBgEFBQcwAYYdaHR0cDov
L2NhLnNvbWVjYS1pbmMuY29tL29jc3AwKQYIKwYBBQUHMAKGHWh0dHA6Ly9jYS5z
b21lY2EtaW5jLmNvbS9yb290MBYGA1UdEQQPMA2CC2V4YW1wbGUub3JnMBIGA1Ud
IAQLMAkwBwYFZ4EMAQEwLQYDVR0fBCYwJDAioCCgHoYcaHR0cDovL2NhLnNvbWVj
YS1pbmMuY29tL2NybDANBgkqhkiG9w0BAQsFAAOCAQEAciZAUWVbufDQ3xJzKItX
Y/nmxFwyAj1jMusEbHGqETmYjAkMQrmQfyGhwR43RlpKd9fGKcYgmIela/8x3k2t
kELvk2KnI98pUAAb1LS+ihuH0liwMewaH5irDQPOcrOo/VlHgzntRA+Wppbfuj6U
dMfhQe/VW2Ue/yqNxXSNqj/mJ6tUCleucnpMSFVYCo/x8rwU0/yveoLoYb+skcNr
XFJ7aTl4BDm67MZoVRJXuRvdDwtdZQn/59PVxq5m57XfQvhkMtYweu9TlcU44UOz
mxNXfm62f0hYbY/T+wO/3I2ScrZaM5LTipyoevagXroELlT7ZYjfbIeV5RMgH7N8
9g==
-----END CERTIFICATE-----
