Certificate:
    Data:
        Version: 3 (0x2)
        Serial Number: 18008675309 (0x4316693ed)
    Signature Algorithm: sha256WithRSAEncryption
        Issuer: C = US, O = Mother Nature, OU = Everything, CN = Mother Nature
        Validity
            Not Before: Jun 30 17:11:20 2016 GMT
            Not After : Sep 11 17:11:20 2016 GMT
        Subject: C = US, ST = FL, L = Tallahassee, street = 3210 Holly Mill Run, postalCode = 30062, O = Extreme Discord, OU = Chaos, CN = gov.us
        Subject Public Key Info:
            Public Key Algorithm: rsaEncryption
                Public-Key: (2048 bit)
                Modulus:
                    00:dd:34:e2:7b:b2:68:ae:f5:e3:5f:30:f6:89:59:
                    f1:ca:4d:3c:22:c8:74:6c:d1:53:e2:06:a5:ee:69:
                    e9:03:cd:94:86:f1:36:fc:eb:47:57:33:be:0d:92:
                    ab:0c:f8:d1:43:e5:44:39:9b:09:31:05:bb:65:a7:
                    40:06:55:ad:d8:50:f6:94:75:3b:7a:7f:12:74:66:
                    5d:fa:99:ba:56:04:17:82:a4:ec:03:f3:70:31:52:
                    04:fa:23:2e:36:45:61:1f:a7:af:83:83:f9:db:33:
                    fc:27:e9:17:97:e5:e2:a0:c1:a5:93:c3:7e:e2:9c:
                    86:68:da:4e:c8:4a:18:38:f4:bc:12:c9:da:0d:22:
                    41:1c:52:0d:1c:11:40:ee:fb:16:76:bd:75:19:7f:
                    1f:ca:7d:c5:fb:1c:c6:1f:f2:de:07:63:a3:88:67:
                    50:9e:09:38:ab:ce:3e:73:44:43:63:70:33:a0:e7:
                    74:ed:c2:a8:b7:c1:a6:61:95:b4:76:98:5d:35:fb:
                    ea:78:a3:8b:44:6a:f8:80:51:70:ea:65:db:71:32:
                    b0:b5:42:ef:38:7c:ee:f1:49:ae:98:7f:a5:23:37:
                    7e:da:38:5a:ea:da:90:8b:26:63:ec:89:f8:c6:6c:
                    21:2c:0e:d8:c5:52:82:4e:9f:51:6a:1d:a2:47:ba:
                    fb:55
                Exponent: 65537 (0x10001)
        X509v3 extensions:
            X509v3 Key Usage: critical
                Digital Signature, Key Encipherment
            X509v3 Extended Key Usage: 
                TLS Web Client Authentication, TLS Web Server Authentication
            X509v3 Basic Constraints: critical
                CA:FALSE
            X509v3 Authority Key Identifier: 
                keyid:01:02:03

            Authority Information Access: 
                OCSP - URI:http://theca.net/ocsp
                CA Issuers - URI:http://theca.net/totallythecert.crt

            X509v3 Certificate Policies: 
                Policy: 1.3.6.1.5.5.7.13.1
                Policy: 2.23.140.1.2.2
                Policy: 1.3.6.1.5.5.7.13.1

            X509v3 Subject Key Identifier: 
                04:03:02:01
            X509v3 Subject Key Identifier: 
                04:03:02:01
    Signature Algorithm: sha256WithRSAEncryption
         9b:90:97:e8:df:51:78:c6:60:3e:fd:9a:b4:fe:82:3b:79:05:
         54:4f:aa:fd:83:62:2d:9a:15:b5:32:10:3e:e0:e9:79:8b:36:
         43:68:ab:f9:29:62:e0:78:a5:be:00:15:26:f4:0e:77:47:7e:
         fd:e1:49:fa:bd:6e:92:77:62:bb:ae:15:09:19:a1:2c:25:13:
         38:15:6c:fa:c8:ae:91:20:e6:ca:4a:4b:92:67:91:a3:a7:cb:
         94:f6:13:60:6a:08:72:75:9d:2f:c7:b3:f9:79:d7:f1:52:6d:
         87:c5:52:87:ae:0e:50:8c:9b:44:35:43:5a:34:d2:cf:5f:0f:
         d8:97:01:76:71:21:59:6d:0e:3f:05:4b:c9:6c:5a:72:66:e2:
         38:94:c9:54:da:8d:8b:48:5c:9d:cb:38:43:e2:81:ee:27:69:
         aa:64:93:7c:ea:74:98:9e:de:bc:92:f2:5b:3a:81:57:f0:c0:
         58:34:70:fd:65:ae:cb:49:19:4d:46:f8:07:28:0b:fd:27:8f:
         a3:96:ee:c4:55:85:c2:51:f6:fd:b7:4c:c7:9a:92:63:8e:9a:
         a3:d8:f6:0a:cf:ec:3b:7b:db:54:8d:0c:3e:16:f9:b8:ba:31:
         28:ac:39:a1:7c:5f:20:ff:7b:71:20:e4:1b:45:56:c3:83:a3:
         e3:aa:ad:ce
-----BEGIN CERTIFICATE-----
MIIEazCCA1OgAwIBAgIFBDFmk+0wDQYJKoZIhvcNAQELBQAwUjELMAkGA1UEBhMC
VVMxFjAUBgNVBAoTDU1vdGhlciBOYXR1cmUxEzARBgNVBAsTCkV2ZXJ5dGhpbmcx
FjAUBgNVBAMTDU1vdGhlciBOYXR1cmUwHhcNMTYwNjMwMTcxMTIwWhcNMTYwOTEx
MTcxMTIwWjCBmTELMAkGA1UEBhMCVVMxCzAJBgNVBAgTAkZMMRQwEgYDVQQHEwtU
YWxsYWhhc3NlZTEcMBoGA1UECRMTMzIxMCBIb2xseSBNaWxsIFJ1bjEOMAwGA1UE
ERMFMzAwNjIxGDAWBgNVBAoTD0V4dHJlbWUgRGlzY29yZDEOMAwGA1UECxMFQ2hh
b3MxDzANBgNVBAMTBmdvdi51czCCASIwDQYJKoZIhvcNAQEBBQADggEPADCCAQoC
ggEBAN004nuyaK71418w9olZ8cpNPCLIdGzRU+IGpe5p6QPNlIbxNvzrR1czvg2S
qwz40UPlRDmbCTEFu2WnQAZVrdhQ9pR1O3p/EnRmXfqZulYEF4Kk7APzcDFSBPoj
LjZFYR+nr4OD+dsz/CfpF5fl4qDBpZPDfuKchmjaTshKGDj0vBLJ2g0iQRxSDRwR
QO77Fna9dRl/H8p9xfscxh/y3gdjo4hnUJ4JOKvOPnNEQ2NwM6DndO3CqLfBpmGV
tHaYXTX76niji0Rq+IBRcOpl23EysLVC7zh87vFJrph/pSM3fto4WurakIsmY+yJ
+MZsISwO2MVSgk6fUWodoke6+1UCAwEAAaOB/zCB/DAOBgNVHQ8BAf8EBAMCBaAw
HQYDVR0lBBYwFAYIKwYBBQUHAwIGCCsGAQUFBwMBMAwGA1UdEwEB/wQCMAAwDgYD
VR0jBAcwBYADAQIDMGIGCCsGAQUFBwEBBFYwVDAhBggrBgEFBQcwAYYVaHR0cDov
L3RoZWNhLm5ldC9vY3NwMC8GCCsGAQUFBzAChiNodHRwOi8vdGhlY2EubmV0L3Rv
dGFsbHl0aGVjZXJ0LmNydDArBgNVHSAEJDAiMAoGCCsGAQUFBw0BMAgGBmeBDAEC
AjAKBggrBgEFBQcNATANBgNVHQ4EBgQEBAMCATANBgNVHQ4EBgQEBAMCATANBgkq
hkiG9w0BAQsFAAOCAQEAm5CX6N9ReMZgPv2atP6CO3kFVE+q/YNiLZoVtTIQPuDp
eYs2Q2ir+Sli4HilvgAVJvQOd0d+/eFJ+r1ukndiu64VCRmhLCUTOBVs+siukSDm
ykpLkmeRo6fLlPYTYGoIcnWdL8ez+XnX8VJth8VSh64OUIybRDVDWjTSz18P2JcB
dnEhWW0OPwVLyWxacmbiOJTJVNqNi0hcncs4Q+KB7idpqmSTfOp0mJ7evJLyWzqB
V/DAWDRw/WWuy0kZTUb4BygL/SePo5buxFWFwlH2/bdMx5qSY46ao9j2Cs/sO3vb
VI0MPhb5uLoxKKw5oXxfIP97cSDkG0VWw4Oj46qtzg==
-----END CERTIFICATE-----
