Certificate:
    Data:
        Version: 3 (0x2)
        Serial Number: 18008675309 (0x4316693ed)
    Signature Algorithm: sha256WithRSAEncryption
        Issuer: C = US, O = Mother Nature, OU = Everything, CN = Mother Nature
        Validity
            Not Before: Dec  1 06:07:08 2055 GMT
            Not After : Dec  1 06:07:08 2057 GMT
        Subject: C = US, O = Extreme Discord, OU = Chaos, L = Tallahassee, ST = FL, street = 3210 Holly Mill Run, postalCode = 30062, CN = gov.us
        Subject Public Key Info:
            Public Key Algorithm: rsaEncryption
                Public-Key: (512 bit)
                Modulus:
                    00:b8:ae:b4:49:f9:ec:16:96:fa:cf:0f:17:60:5e:
                    9f:87:df:da:fd:17:cc:0b:26:ba:cc:63:b6:01:61:
                    3d:d5:7b:d2:50:62:2a:a9:d3:50:8a:8e:6a:21:dc:
                    9d:2e:88:28:cb:f2:4a:45:1b:97:a7:b8:8d:4f:32:
                    95:c2:0a:3b:ad
                Exponent: 65537 (0x10001)
        X509v3 extensions:
            X509v3 Key Usage: critical
                Digital Signature, Key Encipherment, Certificate Sign
            X509v3 Extended Key Usage: 
                TLS Web Client Authentication, TLS Web Server Authentication
            X509v3 Basic Constraints: critical
                CA:FALSE
            X509v3 Authority Key Identifier: 
                keyid:01:02:03

            Authority Information Access: 
                OCSP - URI:http://theca.net/ocsp
                CA Issuers - URI:http://theca.net/totallythecert.crt

            X509v3 Certificate Policies: 
                Policy: 2.23.140.1.2.2

            X509v3 Name Constraints: 
                Permitted:
                  IP:192.168.1.1/1.2.3.4

            X509v3 Subject Key Identifier: 
                04:03:02:01
            X509v3 Subject Alternative Name: 
                DNS:gov.us, DNS:ˬ
            X509v3 Inhibit Any Policy: 
                ..
            Subject Information Access: 
                ..
    Signature Algorithm: sha256WithRSAEncryption
         a7:df:88:21:58:b1:3f:6b:6f:c0:7c:60:24:96:bc:2f:77:c1:
         f1:4e:3a:dc:b5:36:2b:c4:36:1d:62:05:d8:12:4f:5c:43:b9:
         38:9a:94:6b:c9:0b:f9:ef:ee:ed:b7:2c:e0:b2:6e:cb:3b:25:
         77:d0:9e:c1:56:40:d6:0a:b9:f0
-----BEGIN CERTIFICATE-----
MIIDCzCCAregAwIBAgIFBDFmk+0wCwYJKoZIhvcNAQELMFQxCzAJBgNVBAYTAlVT
MRYwFAYDVQQKEw1Nb3RoZXIgTmF0dXJlMRMwEQYDVQQLEwpFdmVyeXRoaW5nMRYw
FAYDVQQDEw1Nb3RoZXIgTmF0dXJlMQAwIhgPMjA1NTEyMDEwNjA3MDhaGA8yMDU3
MTIwMTA2MDcwOFowgZsxCzAJBgNVBAYTAlVTMRgwFgYDVQQKEw9FeHRyZW1lIERp
c2NvcmQxDjAMBgNVBAsTBUNoYW9zMRQwEgYDVQQHEwtUYWxsYWhhc3NlZTELMAkG
A1UECBMCRkwxHDAaBgNVBAkTEzMyMTAgSG9sbHkgTWlsbCBSdW4xDjAMBgNVBBET
BTMwMDYyMQ8wDQYDVQQDEwZnb3YudXMxADBcMA0GCSqGSIb3DQEBAQUAA0sAMEgC
QQC4rrRJ+ewWlvrPDxdgXp+H39r9F8wLJrrMY7YBYT3Ve9JQYiqp01CKjmoh3J0u
iCjL8kpFG5enuI1PMpXCCjutAgMBAAGjggEkMIIBIDAOBgNVHQ8BAf8EBAMCAKQw
HQYDVR0lBBYwFAYIKwYBBQUHAwIGCCsGAQUFBwMBMAwGA1UdEwEB/wQCMAAwDgYD
VR0jBAcwBYADAQIDMGIGCCsGAQUFBwEBBFYwVDAhBggrBgEFBQcwAYYVaHR0cDov
L3RoZWNhLm5ldC9vY3NwMC8GCCsGAQUFBzAChiNodHRwOi8vdGhlY2EubmV0L3Rv
dGFsbHl0aGVjZXJ0LmNydDATBgNVHSAEDDAKMAgGBmeBDAECAjAXBgNVHR4EEDAO
oAwwCocIwKgBAQECAwQwDQYDVR0OBAYEBAQDAgEwFQYDVR0RBA4wDIIGZ292LnVz
ggLAqDAJBgNVHTYEAgIBMA4GCCsGAQUFBwELBAICATALBgkqhkiG9w0BAQsDQQCn
34ghWLE/a2/AfGAklrwvd8HxTjrctTYrxDYdYgXYEk9cQ7k4mpRryQv57+7ttyzg
sm7LOyV30J7BVkDWCrnw
-----END CERTIFICATE-----
