Certificate:
    Data:
        Version: 3 (0x2)
        Serial Number: 18008675309 (0x4316693ed)
    Signature Algorithm: sha256WithRSAEncryption
        Issuer: C = US, O = Mother Nature, OU = Everything, CN = Mother Nature
        Validity
            Not Before: Jan  1 00:00:00 2055 GMT
            Not After : Dec  1 00:00:00 2057 GMT
        Subject: C = US, O = Extreme Discord, OU = Chaos, L = Tallahassee, ST = FL, street = 3210 Holly Mill Run, postalCode = 30062, CN = gov.us
        Subject Public Key Info:
            Public Key Algorithm: rsaEncryption
                Public-Key: (512 bit)
                Modulus:
                    00:cc:de:c8:15:8f:da:02:0c:90:fb:44:91:e2:1d:
                    9b:f6:e7:11:a0:22:8b:b2:b5:06:2d:8a:b6:8f:8f:
                    45:77:07:0c:4b:dc:5b:02:7b:a5:ae:0a:24:f6:f6:
                    ab:24:26:b3:70:08:88:43:84:6d:39:80:5d:55:40:
                    cf:b6:db:0b:3d
                Exponent: 65537 (0x10001)
        X509v3 extensions:
            X509v3 Key Usage: critical
                Digital Signature, Key Encipherment, Certificate Sign
            X509v3 Extended Key Usage: 
                TLS Web Client Authentication, TLS Web Server Authentication
            X509v3 Basic Constraints: critical
                CA:FALSE
            X509v3 Authority Key Identifier: 
                keyid:01:02:03

            Authority Information Access: 
                OCSP - URI:http://theca.net/ocsp
                CA Issuers - URI:http://theca.net/totallythecert.crt

            X509v3 Certificate Policies: 
                Policy: 2.23.140.1.2.2

            X509v3 Name Constraints: 
                Permitted:
                  IP:192.168.1.1/1.2.3.4

            X509v3 Subject Key Identifier: 
                04:03:02:01
            X509v3 Subject Alternative Name: 
                URI:, DNS:ˬ
            X509v3 Inhibit Any Policy: 
                ..
            Subject Information Access: 
                ..
    Signature Algorithm: sha256WithRSAEncryption
         5c:27:5c:de:7b:f0:61:bb:35:de:f3:d5:25:59:7f:fe:5f:1f:
         c8:6f:a0:89:88:73:47:43:06:e3:a5:72:b5:e4:05:11:a2:86:
         f1:3c:cf:c2:92:3c:09:40:87:46:e9:b8:46:58:7a:12:d8:e2:
         38:71:61:dd:c3:9c:6b:b3:39:64
-----BEGIN CERTIFICATE-----
MIIDBTCCArGgAwIBAgIFBDFmk+0wCwYJKoZIhvcNAQELMFQxCzAJBgNVBAYTAlVT
MRYwFAYDVQQKEw1Nb3RoZXIgTmF0dXJlMRMwEQYDVQQLEwpFdmVyeXRoaW5nMRYw
FAYDVQQDEw1Nb3RoZXIgTmF0dXJlMQAwIhgPMjA1NTAxMDEwMDAwMDBaGA8yMDU3
MTIwMTAwMDAwMFowgZsxCzAJBgNVBAYTAlVTMRgwFgYDVQQKEw9FeHRyZW1lIERp
c2NvcmQxDjAMBgNVBAsTBUNoYW9zMRQwEgYDVQQHEwtUYWxsYWhhc3NlZTELMAkG
A1UECBMCRkwxHDAaBgNVBAkTEzMyMTAgSG9sbHkgTWlsbCBSdW4xDjAMBgNVBBET
BTMwMDYyMQ8wDQYDVQQDEwZnb3YudXMxADBcMA0GCSqGSIb3DQEBAQUAA0sAMEgC
QQDM3sgVj9oCDJD7RJHiHZv25xGgIouytQYtiraPj0V3BwxL3FsCe6WuCiT29qsk
JrNwCIhDhG05gF1VQM+22ws9AgMBAAGjggEeMIIBGjAOBgNVHQ8BAf8EBAMCAKQw
HQYDVR0lBBYwFAYIKwYBBQUHAwIGCCsGAQUFBwMBMAwGA1UdEwEB/wQCMAAwDgYD
VR0jBAcwBYADAQIDMGIGCCsGAQUFBwEBBFYwVDAhBggrBgEFBQcwAYYVaHR0cDov
L3RoZWNhLm5ldC9vY3NwMC8GCCsGAQUFBzAChiNodHRwOi8vdGhlY2EubmV0L3Rv
dGFsbHl0aGVjZXJ0LmNydDATBgNVHSAEDDAKMAgGBmeBDAECAjAXBgNVHR4EEDAO
oAwwCocIwKgBAQECAwQwDQYDVR0OBAYEBAQDAgEwDwYDVR0RBAgwBoYAggLAqDAJ
BgNVHTYEAgIBMA4GCCsGAQUFBwELBAICATALBgkqhkiG9w0BAQsDQQBcJ1zee/Bh
uzXe89UlWX/+Xx/Ib6CJiHNHQwbjpXK15AURoobxPM/CkjwJQIdG6bhGWHoS2OI4
cWHdw5xrszlk
-----END CERTIFICATE-----
