Certificate:
    Data:
        Version: 3 (0x2)
        Serial Number: 18008675309 (0x4316693ed)
    Signature Algorithm: sha256WithRSAEncryption
        Issuer: C = US, O = Mother Nature, OU = Everything, CN = Mother Nature
        Validity
            Not Before: Jun 27 22:38:32 2049 GMT
            Not After : Sep  8 22:38:00 2056 GMT
        Subject: C = US, CN = gov.us
        Subject Public Key Info:
            Public Key Algorithm: rsaEncryption
                Public-Key: (2048 bit)
                Modulus:
                    00:d6:46:1f:84:c6:a0:58:d6:f6:1b:26:37:1b:2f:
                    4a:a9:e7:24:0f:d2:ca:e7:e1:a7:9f:9b:f6:0b:f7:
                    e8:1c:03:af:94:46:e6:d6:4b:27:fb:71:3c:23:b4:
                    59:30:c5:51:80:2c:9b:f2:6a:78:16:d7:8f:8c:77:
                    a1:e9:5e:4a:ae:91:34:3d:61:5c:f3:43:f3:99:5f:
                    7e:78:fd:d3:79:22:f6:a4:8e:8d:ef:26:43:50:33:
                    b6:45:69:3a:12:91:0c:9b:61:06:4a:90:af:04:db:
                    f1:bb:7d:b0:19:4c:f2:58:f9:5c:9e:00:9a:98:f0:
                    14:0a:e2:97:f1:0c:b3:e6:3a:76:fd:3d:c4:56:f7:
                    c6:88:8c:da:94:1f:51:e9:1e:4f:bf:e8:e6:b9:03:
                    b3:ad:8f:a5:68:95:f2:ee:62:2f:cf:f9:e7:bd:47:
                    f6:02:20:dd:6b:9a:23:21:95:c1:b7:ff:dd:91:7a:
                    a1:53:7e:fa:60:59:27:33:15:e4:17:70:8d:0c:d5:
                    5b:22:16:99:4b:48:ba:d0:e6:3f:ad:fb:6a:3c:d7:
                    0c:24:1f:15:a0:4c:81:b1:d7:d1:f4:ce:4a:bb:5c:
                    c8:4a:86:93:94:1c:42:72:81:37:94:d5:30:7b:ec:
                    34:40:29:76:92:55:ce:a5:09:41:32:07:7d:33:b6:
                    86:b3
                Exponent: 65537 (0x10001)
        X509v3 extensions:
            X509v3 Key Usage: critical
                Digital Signature, Key Encipherment
            X509v3 Extended Key Usage: 
                TLS Web Client Authentication, TLS Web Server Authentication
            X509v3 Basic Constraints: critical
                CA:FALSE
            X509v3 Authority Key Identifier: 
                keyid:01:02:03

            Authority Information Access: 
                OCSP - URI:http://theca.net/ocsp
                CA Issuers - URI:http://theca.net/totallythecert.crt

            X509v3 Certificate Policies: 
                Policy: 2.23.140.1.2.1

            X509v3 Subject Key Identifier: 
                04:03:02:01
            X509v3 Subject Alternative Name: 
                DNS:*.gov.us, DNS:gov.us
    Signature Algorithm: sha256WithRSAEncryption
         5e:71:d0:b5:fc:3d:bb:e9:52:69:e0:cc:38:68:d6:47:88:a2:
         f7:19:ea:22:9d:62:7d:28:69:71:3e:f8:4d:77:9a:2c:34:b6:
         30:7d:eb:05:3d:cf:0a:70:22:db:18:2e:12:d9:5b:5e:e1:bd:
         a6:20:15:3f:98:93:17:ae:4f:ae:f3:c0:04:64:f2:35:f2:d2:
         88:59:fa:21:7d:88:8f:3a:4e:f5:c1:0b:04:aa:5f:8a:1e:24:
         eb:f3:a6:73:45:7b:f9:a3:1a:70:ef:4c:b1:04:f3:eb:08:88:
         46:0c:6e:a6:82:93:74:8e:7a:43:1c:98:90:c7:00:8d:84:c8:
         71:6d:11:54:ef:d1:39:da:08:67:3e:64:ed:05:0c:a2:5f:cb:
         34:8b:9e:57:15:30:b3:50:75:c3:0d:1a:c8:58:aa:16:92:7c:
         db:5e:e0:19:f6:5e:81:3a:98:90:fe:cc:d3:d4:52:32:67:f3:
         3f:8e:26:43:a0:fd:46:26:5f:c2:67:da:41:14:d7:a2:f0:d6:
         c8:44:c4:3d:dc:84:6a:d9:3a:cb:62:29:08:09:73:79:77:5d:
         f7:48:d6:3a:9f:a4:75:bc:f0:ed:99:7f:f5:12:15:a3:77:55:
         66:4b:66:c7:f8:25:64:db:6a:c9:80:94:77:f7:33:a6:28:a6:
         de:2e:15:3c
-----BEGIN CERTIFICATE-----
MIID5TCCAs2gAwIBAgIFBDFmk+0wDQYJKoZIhvcNAQELBQAwUjELMAkGA1UEBhMC
VVMxFjAUBgNVBAoTDU1vdGhlciBOYXR1cmUxEzARBgNVBAsTCkV2ZXJ5dGhpbmcx
FjAUBgNVBAMTDU1vdGhlciBOYXR1cmUwHhcNNDkwNjI3MjIzODMyWhgNMjA1NjA5
MDgyMjM4WjAeMQswCQYDVQQGEwJVUzEPMA0GA1UEAxMGZ292LnVzMIIBIjANBgkq
hkiG9w0BAQEFAAOCAQ8AMIIBCgKCAQEA1kYfhMagWNb2GyY3Gy9KqeckD9LK5+Gn
n5v2C/foHAOvlEbm1ksn+3E8I7RZMMVRgCyb8mp4FtePjHeh6V5KrpE0PWFc80Pz
mV9+eP3TeSL2pI6N7yZDUDO2RWk6EpEMm2EGSpCvBNvxu32wGUzyWPlcngCamPAU
CuKX8Qyz5jp2/T3EVvfGiIzalB9R6R5Pv+jmuQOzrY+laJXy7mIvz/nnvUf2AiDd
a5ojIZXBt//dkXqhU376YFknMxXkF3CNDNVbIhaZS0i60OY/rftqPNcMJB8VoEyB
sdfR9M5Ku1zISoaTlBxCcoE3lNUwe+w0QCl2klXOpQlBMgd9M7aGswIDAQABo4H1
MIHyMA4GA1UdDwEB/wQEAwIFoDAdBgNVHSUEFjAUBggrBgEFBQcDAgYIKwYBBQUH
AwEwDAYDVR0TAQH/BAIwADAOBgNVHSMEBzAFgAMBAgMwYgYIKwYBBQUHAQEEVjBU
MCEGCCsGAQUFBzABhhVodHRwOi8vdGhlY2EubmV0L29jc3AwLwYIKwYBBQUHMAKG
I2h0dHA6Ly90aGVjYS5uZXQvdG90YWxseXRoZWNlcnQuY3J0MBMGA1UdIAQMMAow
CAYGZ4EMAQIBMA0GA1UdDgQGBAQEAwIBMBsGA1UdEQQUMBKCCCouZ292LnVzggZn
b3YudXMwDQYJKoZIhvcNAQELBQADggEBAF5x0LX8PbvpUmngzDho1keIovcZ6iKd
Yn0oaXE++E13miw0tjB96wU9zwpwItsYLhLZW17hvaYgFT+YkxeuT67zwARk8jXy
0ohZ+iF9iI86TvXBCwSqX4oeJOvzpnNFe/mjGnDvTLEE8+sIiEYMbqaCk3SOekMc
mJDHAI2EyHFtEVTv0TnaCGc+ZO0FDKJfyzSLnlcVMLNQdcMNGshYqhaSfNte4Bn2
XoE6mJD+zNPUUjJn8z+OJkOg/UYmX8Jn2kEU16Lw1shExD3chGrZOstiKQgJc3l3
XfdI1jqfpHW88O2Zf/USFaN3VWZLZsf4JWTbasmAlHf3M6Yopt4uFTw=
-----END CERTIFICATE-----
