Certificate:
    Data:
        Version: 3 (0x2)
        Serial Number: 18008675309 (0x4316693ed)
    Signature Algorithm: sha256WithRSAEncryption
        Issuer: C = US, O = Mother Nature, OU = Everything, CN = Mother Nature
        Validity
            Not Before: Jan  1 00:00:00 2055 GMT
            Not After : Dec  1 00:00:00 1957 GMT
        Subject: C = US, O = Extreme Discord, OU = Chaos, L = Tallahassee, ST = FL, street = 3210 Holly Mill Run, postalCode = 30062, CN = gov.us
        Subject Public Key Info:
            Public Key Algorithm: rsaEncryption
                Public-Key: (512 bit)
                Modulus:
                    00:b5:b1:95:e3:86:0c:f8:98:1f:c4:b5:75:b3:94:
                    cc:2d:ff:c9:62:cb:59:a8:67:09:54:e3:18:77:74:
                    b1:fd:11:d4:60:d8:ba:42:ee:e4:84:f0:dd:c1:a3:
                    ec:3e:10:8d:bf:98:e9:a1:7b:48:65:18:54:b5:0f:
                    d1:83:dc:be:fb
                Exponent: 65537 (0x10001)
        X509v3 extensions:
            X509v3 Key Usage: critical
                Digital Signature, Key Encipherment, Certificate Sign
            X509v3 Extended Key Usage: 
                TLS Web Client Authentication, TLS Web Server Authentication
            X509v3 Basic Constraints: critical
                CA:FALSE
            X509v3 Authority Key Identifier: 
                keyid:01:02:03

            Authority Information Access: 
                OCSP - URI:http://theca.net/ocsp
                CA Issuers - URI:http://theca.net/totallythecert.crt

            X509v3 Certificate Policies: 
                Policy: 2.23.140.1.2.2

            X509v3 Name Constraints: 
                Permitted:
                  IP:192.168.1.1/1.2.3.4

            X509v3 Subject Key Identifier: 
                04:03:02:01
            X509v3 Subject Alternative Name: 
                URI:, DNS:ˬ
            X509v3 Inhibit Any Policy: 
                ..
            Subject Information Access: 
                ..
    Signature Algorithm: sha256WithRSAEncryption
         1b:32:5e:e1:c0:5d:93:e2:33:64:51:8d:17:4d:40:2a:b0:31:
         ab:50:0a:f7:b4:3d:0e:a5:48:bf:4d:83:0e:b3:32:ba:5b:78:
         93:56:32:88:b4:75:ee:2c:af:5d:8a:35:21:ac:3b:8e:01:65:
         7a:2e:f3:b1:f4:a6:1a:ca:24:d4
-----BEGIN CERTIFICATE-----
MIIDBTCCArGgAwIBAgIFBDFmk+0wCwYJKoZIhvcNAQELMFQxCzAJBgNVBAYTAlVT
MRYwFAYDVQQKEw1Nb3RoZXIgTmF0dXJlMRMwEQYDVQQLEwpFdmVyeXRoaW5nMRYw
FAYDVQQDEw1Nb3RoZXIgTmF0dXJlMQAwIhgPMjA1NTAxMDEwMDAwMDBaGA8xOTU3
MTIwMTAwMDAwMFowgZsxCzAJBgNVBAYTAlVTMRgwFgYDVQQKEw9FeHRyZW1lIERp
c2NvcmQxDjAMBgNVBAsTBUNoYW9zMRQwEgYDVQQHEwtUYWxsYWhhc3NlZTELMAkG
A1UECBMCRkwxHDAaBgNVBAkTEzMyMTAgSG9sbHkgTWlsbCBSdW4xDjAMBgNVBBET
BTMwMDYyMQ8wDQYDVQQDEwZnb3YudXMxADBcMA0GCSqGSIb3DQEBAQUAA0sAMEgC
QQC1sZXjhgz4mB/EtXWzlMwt/8liy1moZwlU4xh3dLH9EdRg2LpC7uSE8N3Bo+w+
EI2/mOmhe0hlGFS1D9GD3L77AgMBAAGjggEeMIIBGjAOBgNVHQ8BAf8EBAMCAKQw
HQYDVR0lBBYwFAYIKwYBBQUHAwIGCCsGAQUFBwMBMAwGA1UdEwEB/wQCMAAwDgYD
VR0jBAcwBYADAQIDMGIGCCsGAQUFBwEBBFYwVDAhBggrBgEFBQcwAYYVaHR0cDov
L3RoZWNhLm5ldC9vY3NwMC8GCCsGAQUFBzAChiNodHRwOi8vdGhlY2EubmV0L3Rv
dGFsbHl0aGVjZXJ0LmNydDATBgNVHSAEDDAKMAgGBmeBDAECAjAXBgNVHR4EEDAO
oAwwCocIwKgBAQECAwQwDQYDVR0OBAYEBAQDAgEwDwYDVR0RBAgwBoYAggLAqDAJ
BgNVHTYEAgIBMA4GCCsGAQUFBwELBAICATALBgkqhkiG9w0BAQsDQQAbMl7hwF2T
4jNkUY0XTUAqsDGrUAr3tD0OpUi/TYMOszK6W3iTVjKItHXuLK9dijUhrDuOAWV6
LvOx9KYayiTU
-----END CERTIFICATE-----
