Certificate:
    Data:
        Version: 3 (0x2)
        Serial Number: 3 (0x3)
        Signature Algorithm: ecdsa-with-SHA256
        Issuer: 
        Validity
            Not Before: Apr 11 17:03:04 2021 GMT
            Not After : Apr 11 17:03:04 2021 GMT
        Subject: GN = "This is the song that doesn't end. Yes, it goes on and on, my friend. Some people started singing it, not knowing what it was. And they'll continue singing it forever just because."
        Subject Public Key Info:
            Public Key Algorithm: id-ecPublicKey
                Public-Key: (256 bit)
                pub:
                    04:02:65:9e:af:f8:c5:69:d9:70:fc:e3:49:4d:7f:
                    6c:70:26:55:20:6d:2f:8c:fd:40:ea:bb:9d:15:e3:
                    aa:06:5c:72:49:de:c5:e0:ee:3e:29:ac:8d:37:eb:
                    7b:68:aa:e3:13:5c:c9:ec:1b:bc:31:2c:4b:5f:a0:
                    84:b1:be:44:5a
                ASN1 OID: prime256v1
                NIST CURVE: P-256
        X509v3 extensions:
            X509v3 Authority Key Identifier: 
                keyid:4B:9D:29:C7:B2:2D:51:24:B5:08:2B:61:06:11:B9:07:F2:CB:8A:14

    Signature Algorithm: ecdsa-with-SHA256
         30:44:02:20:23:54:61:c2:b0:4e:23:87:02:97:ae:2c:37:f9:
         04:b8:dc:0a:da:14:cf:92:54:88:d8:97:ae:af:28:fe:57:d9:
         02:20:75:b3:e1:2b:7a:d0:e7:8b:5a:84:8e:51:a6:e7:c8:70:
         86:1c:f6:70:3c:50:93:a6:c7:6b:d1:46:fc:44:68:b9
-----BEGIN CERTIFICATE-----
MIIB1DCCAXugAwIBAgIBAzAKBggqhkjOPQQDAjAAMB4XDTIxMDQxMTE3MDMwNFoX
DTIxMDQxMTE3MDMwNFowgcIxgb8wgbwGA1UEKhOBtFRoaXMgaXMgdGhlIHNvbmcg
dGhhdCBkb2Vzbid0IGVuZC4gWWVzLCBpdCBnb2VzIG9uIGFuZCBvbiwgbXkgZnJp
ZW5kLiBTb21lIHBlb3BsZSBzdGFydGVkIHNpbmdpbmcgaXQsIG5vdCBrbm93aW5n
IHdoYXQgaXQgd2FzLiBBbmQgdGhleSdsbCBjb250aW51ZSBzaW5naW5nIGl0IGZv
cmV2ZXIganVzdCBiZWNhdXNlLjBZMBMGByqGSM49AgEGCCqGSM49AwEHA0IABAJl
nq/4xWnZcPzjSU1/bHAmVSBtL4z9QOq7nRXjqgZccknexeDuPimsjTfre2iq4xNc
yewbvDEsS1+ghLG+RFqjIzAhMB8GA1UdIwQYMBaAFEudKceyLVEktQgrYQYRuQfy
y4oUMAoGCCqGSM49BAMCA0cAMEQCICNUYcKwTiOHApeuLDf5BLjcCtoUz5JUiNiX
rq8o/lfZAiB1s+EretDni1qEjlGm58hwhhz2cDxQk6bHa9FG/ERouQ==
-----END CERTIFICATE-----

