Certificate:
    Data:
        Version: 3 (0x2)
        Serial Number: 3 (0x3)
        Signature Algorithm: ecdsa-with-SHA256
        Issuer: 
        Validity
            Not Before: Apr 11 17:04:01 2021 GMT
            Not After : Apr 11 17:04:01 2021 GMT
        Subject: GN = This is the song that doesn't end.
        Subject Public Key Info:
            Public Key Algorithm: id-ecPublicKey
                Public-Key: (256 bit)
                pub:
                    04:aa:69:c5:5f:ab:92:86:98:4a:1c:06:08:30:72:
                    b1:2a:95:24:8d:ce:38:96:a5:4f:e3:6d:37:ed:e2:
                    08:09:a1:a7:0f:c7:72:1b:e0:7b:55:b5:a3:b8:11:
                    1c:94:49:dd:4f:93:f5:fd:b8:00:f6:8e:4b:b1:a9:
                    bf:0c:37:ce:29
                ASN1 OID: prime256v1
                NIST CURVE: P-256
        X509v3 extensions:
            X509v3 Authority Key Identifier: 
                keyid:83:35:D8:BC:10:C6:2E:D9:42:EE:E4:05:57:5F:46:03:20:71:96:88

    Signature Algorithm: ecdsa-with-SHA256
         30:46:02:21:00:b8:65:5d:ca:16:a0:7b:9d:7a:1a:41:7f:ec:
         a8:16:f6:e7:ea:79:69:59:4e:0e:cf:55:16:00:26:99:4e:9d:
         f9:02:21:00:9b:4d:4e:c2:3c:3c:56:de:8a:32:b8:a3:7f:08:
         15:77:0e:05:c3:ff:63:73:ea:f9:1e:dc:47:85:e6:17:00:ea
-----BEGIN CERTIFICATE-----
MIIBPzCB5aADAgECAgEDMAoGCCqGSM49BAMCMAAwHhcNMjEwNDExMTcwNDAxWhcN
MjEwNDExMTcwNDAxWjAtMSswKQYDVQQqEyJUaGlzIGlzIHRoZSBzb25nIHRoYXQg
ZG9lc24ndCBlbmQuMFkwEwYHKoZIzj0CAQYIKoZIzj0DAQcDQgAEqmnFX6uShphK
HAYIMHKxKpUkjc44lqVP42037eIICaGnD8dyG+B7VbWjuBEclEndT5P1/bgA9o5L
sam/DDfOKaMjMCEwHwYDVR0jBBgwFoAUgzXYvBDGLtlC7uQFV19GAyBxlogwCgYI
KoZIzj0EAwIDSQAwRgIhALhlXcoWoHudehpBf+yoFvbn6nlpWU4Oz1UWACaZTp35
AiEAm01Owjw8Vt6KMrijfwgVdw4Fw/9jc+r5HtxHheYXAOo=
-----END CERTIFICATE-----

