Certificate:
    Data:
        Version: 3 (0x2)
        Serial Number: 18008675309 (0x4316693ed)
    Signature Algorithm: sha256WithRSAEncryption
        Issuer: C = US, O = Mother Nature, OU = Everything, CN = Mother Nature
        Validity
            Not Before: Jul  1 20:44:08 2016 GMT
            Not After : Sep 13 20:44:08 2016 GMT
        Subject: C = US, O = Extreme Discord, OU = Chaos, L = Tallahassee, ST = FL, street = 3210 Holly Mill Run, postalCode = 30062, CN = gov.us
        Subject Public Key Info:
            Public Key Algorithm: rsaEncryption
                Public-Key: (2048 bit)
                Modulus:
                    00:c4:bf:6b:94:45:7d:e6:a2:48:c0:73:5d:46:42:
                    93:9b:fa:d0:13:9a:c1:74:4e:f0:94:7e:fe:8a:c0:
                    a5:08:5c:be:a4:b5:b0:5a:41:5b:ef:41:6d:a7:6a:
                    df:59:b0:35:6d:97:48:82:8d:fa:ad:53:a8:86:f8:
                    f0:37:6f:bd:82:42:7e:83:bc:29:02:51:80:c2:89:
                    07:54:eb:28:83:2a:38:39:f2:ac:12:f6:a6:a0:ae:
                    e5:92:07:64:d0:64:9e:c4:e4:1e:61:29:06:f4:68:
                    af:ee:32:62:a9:18:45:07:62:9d:c4:0e:ef:6b:44:
                    90:9d:f0:5d:bd:2f:dc:38:d9:a7:5f:7e:be:b5:08:
                    5c:4f:0a:78:63:00:8a:2e:52:ae:67:9c:40:88:af:
                    d7:42:c0:03:37:7e:16:22:10:10:80:ba:7c:e7:97:
                    bc:89:d7:4c:8b:2d:e9:23:af:29:a9:20:8e:d2:86:
                    f4:25:56:0b:a2:85:05:22:f4:1e:dd:ed:64:61:d4:
                    47:3e:dc:6f:6d:5f:e3:5a:b8:95:d9:ef:88:3e:3b:
                    22:4b:41:ee:9c:16:02:6b:a6:fa:20:45:35:82:78:
                    19:a2:f0:0f:3b:4a:10:d8:ff:f4:dd:36:2e:b4:d7:
                    5c:44:83:32:47:68:bc:e0:f5:ca:1c:80:60:2b:86:
                    37:0f
                Exponent: 3 (0x3)
        X509v3 extensions:
            X509v3 Key Usage: critical
                Digital Signature, Key Encipherment
            X509v3 Extended Key Usage: 
                TLS Web Client Authentication, TLS Web Server Authentication
            X509v3 Basic Constraints: critical
                CA:FALSE
            X509v3 Authority Key Identifier: 
                keyid:01:02:03

            Authority Information Access: 
                OCSP - URI:http://theca.net/ocsp
                CA Issuers - URI:http://theca.net/totallythecert.crt

            X509v3 Certificate Policies: 
                Policy: 2.23.140.1.2.2

            X509v3 Subject Key Identifier: 
                04:03:02:01
            X509v3 Subject Alternative Name: 
                DNS:*.gov.us, DNS:gov.us
    Signature Algorithm: sha256WithRSAEncryption
         33:2b:71:15:40:c4:a6:ec:3b:39:90:ad:55:ca:df:6e:0f:7c:
         62:ff:d1:7e:e1:24:08:a8:36:54:71:80:cd:2f:a4:f4:e4:ff:
         d1:69:40:9e:a2:62:59:7c:e0:01:0d:41:74:0f:dc:7f:ab:29:
         cc:c6:70:f5:09:d2:77:01:ad:e7:c8:8d:4f:47:61:a0:69:4e:
         57:96:dc:44:06:86:84:ff:7e:97:06:8e:1d:66:a2:de:e3:1f:
         c0:a4:30:ec:03:60:1d:58:3e:91:f6:f6:e5:32:4c:fc:18:40:
         69:e4:6b:b6:34:b1:73:d7:88:6f:06:85:75:66:d4:4b:aa:87:
         49:2b:ad:60:50:ba:3f:8d:77:99:3f:84:c8:60:50:6d:26:0f:
         26:44:87:a5:8d:b3:b9:39:f1:b0:72:23:f5:8d:98:4a:09:f4:
         23:f6:e7:51:29:17:f1:62:3d:10:83:66:67:31:9a:cc:e1:77:
         02:a7:e7:f1:cf:e0:90:98:bb:6b:85:c8:06:8e:9a:fb:91:52:
         1f:b5:ea:1a:46:6b:24:6d:10:71:0a:fb:4a:48:f4:3d:b9:bc:
         50:62:1f:8b:4b:b3:ce:ba:d9:85:d8:40:43:4e:c9:57:15:74:
         13:66:fa:0d:9d:30:99:85:27:64:d4:74:bf:0c:a1:92:58:11:
         ce:e8:4c:e5
-----BEGIN CERTIFICATE-----
MIIEXzCCA0egAwIBAgIFBDFmk+0wDQYJKoZIhvcNAQELBQAwUjELMAkGA1UEBhMC
VVMxFjAUBgNVBAoTDU1vdGhlciBOYXR1cmUxEzARBgNVBAsTCkV2ZXJ5dGhpbmcx
FjAUBgNVBAMTDU1vdGhlciBOYXR1cmUwHhcNMTYwNzAxMjA0NDA4WhcNMTYwOTEz
MjA0NDA4WjCBmTELMAkGA1UEBhMCVVMxGDAWBgNVBAoTD0V4dHJlbWUgRGlzY29y
ZDEOMAwGA1UECxMFQ2hhb3MxFDASBgNVBAcTC1RhbGxhaGFzc2VlMQswCQYDVQQI
EwJGTDEcMBoGA1UECRMTMzIxMCBIb2xseSBNaWxsIFJ1bjEOMAwGA1UEERMFMzAw
NjIxDzANBgNVBAMTBmdvdi51czCCASAwDQYJKoZIhvcNAQEBBQADggENADCCAQgC
ggEBAMS/a5RFfeaiSMBzXUZCk5v60BOawXRO8JR+/orApQhcvqS1sFpBW+9Bbadq
31mwNW2XSIKN+q1TqIb48DdvvYJCfoO8KQJRgMKJB1TrKIMqODnyrBL2pqCu5ZIH
ZNBknsTkHmEpBvRor+4yYqkYRQdincQO72tEkJ3wXb0v3DjZp19+vrUIXE8KeGMA
ii5SrmecQIiv10LAAzd+FiIQEIC6fOeXvInXTIst6SOvKakgjtKG9CVWC6KFBSL0
Ht3tZGHURz7cb21f41q4ldnviD47IktB7pwWAmum+iBFNYJ4GaLwDztKENj/9N02
LrTXXESDMkdovOD1yhyAYCuGNw8CAQOjgfUwgfIwDgYDVR0PAQH/BAQDAgWgMB0G
A1UdJQQWMBQGCCsGAQUFBwMCBggrBgEFBQcDATAMBgNVHRMBAf8EAjAAMA4GA1Ud
IwQHMAWAAwECAzBiBggrBgEFBQcBAQRWMFQwIQYIKwYBBQUHMAGGFWh0dHA6Ly90
aGVjYS5uZXQvb2NzcDAvBggrBgEFBQcwAoYjaHR0cDovL3RoZWNhLm5ldC90b3Rh
bGx5dGhlY2VydC5jcnQwEwYDVR0gBAwwCjAIBgZngQwBAgIwDQYDVR0OBAYEBAQD
AgEwGwYDVR0RBBQwEoIIKi5nb3YudXOCBmdvdi51czANBgkqhkiG9w0BAQsFAAOC
AQEAMytxFUDEpuw7OZCtVcrfbg98Yv/RfuEkCKg2VHGAzS+k9OT/0WlAnqJiWXzg
AQ1BdA/cf6spzMZw9QnSdwGt58iNT0dhoGlOV5bcRAaGhP9+lwaOHWai3uMfwKQw
7ANgHVg+kfb25TJM/BhAaeRrtjSxc9eIbwaFdWbUS6qHSSutYFC6P413mT+EyGBQ
bSYPJkSHpY2zuTnxsHIj9Y2YSgn0I/bnUSkX8WI9EINmZzGazOF3Aqfn8c/gkJi7
a4XIBo6a+5FSH7XqGkZrJG0QcQr7Skj0Pbm8UGIfi0uzzrrZhdhAQ07JVxV0E2b6
DZ0wmYUnZNR0vwyhklgRzuhM5Q==
-----END CERTIFICATE-----
