Certificate:
    Data:
        Version: 3 (0x2)
        Serial Number:
            d9:13:d5:df:17:08:81:2a:1d:d7:48:dd:92:c3:66:f3
        Signature Algorithm: sha256WithRSAEncryption
        Issuer: C = XX, O = Some CA, CN = Fake CA for zlint testing
        Validity
            Not Before: Dec 18 11:05:48 2024 GMT
            Not After : Dec 18 11:05:48 2025 GMT
        Subject: C = DE, ST = Hesse, L = Frankfurt, O = Mustermann R&D GmbH, CN = example.org
        Subject Public Key Info:
            Public Key Algorithm: rsaEncryption
                RSA Public-Key: (2048 bit)
                Modulus:
                    00:b2:e3:4b:68:53:f9:ac:e2:91:cd:2a:b4:87:71:
                    56:0d:34:5c:66:11:d7:b6:fc:fa:00:6d:47:ce:f2:
                    02:42:1e:68:43:e3:64:dc:48:25:4e:15:5c:80:5d:
                    39:3b:4c:a1:c1:e0:5d:7a:bb:bb:15:25:34:c3:09:
                    2a:7c:f5:27:e7:1d:cd:21:37:14:d7:08:32:b8:13:
                    03:0b:d8:3a:cc:5f:0c:5b:d3:c1:62:5c:86:76:e8:
                    98:a0:d9:a0:14:46:44:1f:44:e2:67:80:c5:da:3b:
                    50:fd:5d:28:6d:3d:43:fd:62:70:69:b8:5c:35:a1:
                    ac:72:b6:a6:44:1c:84:f2:f2:47:79:74:af:77:86:
                    9e:be:48:01:33:8b:c3:14:38:23:ae:11:d0:4d:6e:
                    0b:48:5a:a6:c7:d8:5a:a5:34:fb:88:f0:7e:b0:7e:
                    d7:c5:d2:98:fc:43:ff:b7:d8:e2:40:70:c2:cd:4e:
                    a0:4a:e3:cf:89:7c:62:2d:8a:af:53:a7:f4:1e:89:
                    74:70:37:cf:fe:a3:03:6f:d7:79:c4:1e:61:65:03:
                    c7:27:fb:db:f6:3c:32:94:d0:f1:8a:c7:25:78:13:
                    6b:ec:6f:a7:eb:c9:e4:fb:21:bb:b5:db:14:5a:5f:
                    09:2b:91:ac:5d:5b:ea:1c:8f:fa:64:59:9a:ea:a6:
                    8b:75
                Exponent: 65537 (0x10001)
        X509v3 extensions:
            X509v3 Key Usage: critical
                Digital Signature, Key Encipherment
            X509v3 Extended Key Usage: 
                TLS Web Client Authentication, TLS Web Server Authentication
            X509v3 Subject Key Identifier: 
                8E:A1:D4:56:F9:10:34:5C:B0:D8:AF:53:08:07:70:70:A5:98:FE:69
            X509v3 Authority Key Identifier: 
                keyid:E8:B6:F6:76:4B:D0:3B:E5:46:A5:F9:54:D4:7E:07:B3:DE:0D:60:3E

            Authority Information Access: 
                OCSP - URI:http://ca.someca-inc.com/ocsp
                CA Issuers - URI:http://ca.someca-inc.com/root

            X509v3 Subject Alternative Name: 
                DNS:example.org
            X509v3 Certificate Policies: 
                Policy: 2.23.140.1.2.2

            X509v3 CRL Distribution Points: 

                Full Name:
                  URI:http://ca.someca-inc.com/crl

    Signature Algorithm: sha256WithRSAEncryption
         00:42:37:dd:9b:72:71:9b:05:3e:f8:d1:6f:47:0a:40:d5:4b:
         e6:31:8b:62:6e:e4:4b:22:14:a0:50:0f:16:df:51:08:7f:f3:
         51:0e:77:fb:81:ca:38:28:73:85:f3:8f:1f:f7:18:67:0c:d8:
         a7:ef:88:b7:e9:5d:88:82:2d:9d:8a:7c:01:ba:f7:b9:07:c1:
         40:33:be:4f:44:6e:0b:ce:64:44:c0:fb:5f:76:5b:fb:33:61:
         1c:33:42:70:be:83:6e:8e:48:9f:5e:3c:6b:45:37:a3:cb:ee:
         c0:68:7b:75:65:90:6a:10:f2:f0:50:75:02:75:f7:a7:4f:96:
         c2:35:f4:9d:b4:91:68:5b:b7:6a:77:4d:be:08:98:5e:17:6b:
         f8:54:4a:61:6d:9c:0d:85:33:cc:a9:ed:58:35:b0:1f:6e:6e:
         09:0f:ab:bd:b7:4f:69:74:f5:69:33:8e:33:1c:50:44:c8:cf:
         8f:af:e0:28:12:3a:70:85:83:c6:d9:af:8e:f6:bf:6f:56:83:
         75:0e:f6:ed:59:b6:57:b9:6b:d2:4b:2f:d2:07:dd:ab:69:27:
         ab:b4:99:be:60:41:bd:37:fe:d0:9d:00:c4:0c:e0:2c:bd:d9:
         b3:47:7d:2d:f2:19:b8:a5:98:fc:f9:2e:4f:f4:87:20:d0:0f:
         38:a0:4b:d5
-----BEGIN CERTIFICATE-----
MIIEajCCA1KgAwIBAgIRANkT1d8XCIEqHddI3ZLDZvMwDQYJKoZIhvcNAQELBQAw
QzELMAkGA1UEBhMCWFgxEDAOBgNVBAoTB1NvbWUgQ0ExIjAgBgNVBAMTGUZha2Ug
Q0EgZm9yIHpsaW50IHRlc3RpbmcwHhcNMjQxMjE4MTEwNTQ4WhcNMjUxMjE4MTEw
NTQ4WjBlMQswCQYDVQQGEwJERTEOMAwGA1UECBMFSGVzc2UxEjAQBgNVBAcTCUZy
YW5rZnVydDEcMBoGA1UECgwTTXVzdGVybWFubiBSJkQgR21iSDEUMBIGA1UEAxML
ZXhhbXBsZS5vcmcwggEiMA0GCSqGSIb3DQEBAQUAA4IBDwAwggEKAoIBAQCy40to
U/ms4pHNKrSHcVYNNFxmEde2/PoAbUfO8gJCHmhD42TcSCVOFVyAXTk7TKHB4F16
u7sVJTTDCSp89SfnHc0hNxTXCDK4EwML2DrMXwxb08FiXIZ26Jig2aAURkQfROJn
gMXaO1D9XShtPUP9YnBpuFw1oaxytqZEHITy8kd5dK93hp6+SAEzi8MUOCOuEdBN
bgtIWqbH2FqlNPuI8H6wftfF0pj8Q/+32OJAcMLNTqBK48+JfGItiq9Tp/QeiXRw
N8/+owNv13nEHmFlA8cn+9v2PDKU0PGKxyV4E2vsb6fryeT7Ibu12xRaXwkrkaxd
W+ocj/pkWZrqpot1AgMBAAGjggE1MIIBMTAOBgNVHQ8BAf8EBAMCBaAwHQYDVR0l
BBYwFAYIKwYBBQUHAwIGCCsGAQUFBwMBMB0GA1UdDgQWBBSOodRW+RA0XLDYr1MI
B3BwpZj+aTAfBgNVHSMEGDAWgBTotvZ2S9A75Ual+VTUfgez3g1gPjBkBggrBgEF
BQcBAQRYMFYwKQYIKwYBBQUHMAGGHWh0dHA6Ly9jYS5zb21lY2EtaW5jLmNvbS9v
Y3NwMCkGCCsGAQUFBzAChh1odHRwOi8vY2Euc29tZWNhLWluYy5jb20vcm9vdDAW
BgNVHREEDzANggtleGFtcGxlLm9yZzATBgNVHSAEDDAKMAgGBmeBDAECAjAtBgNV
HR8EJjAkMCKgIKAehhxodHRwOi8vY2Euc29tZWNhLWluYy5jb20vY3JsMA0GCSqG
SIb3DQEBCwUAA4IBAQAAQjfdm3JxmwU++NFvRwpA1UvmMYtibuRLIhSgUA8W31EI
f/NRDnf7gco4KHOF848f9xhnDNin74i36V2Igi2dinwBuve5B8FAM75PRG4LzmRE
wPtfdlv7M2EcM0JwvoNujkifXjxrRTejy+7AaHt1ZZBqEPLwUHUCdfenT5bCNfSd
tJFoW7dqd02+CJheF2v4VEphbZwNhTPMqe1YNbAfbm4JD6u9t09pdPVpM44zHFBE
yM+Pr+AoEjpwhYPG2a+O9r9vVoN1DvbtWbZXuWvSSy/SB92raSertJm+YEG9N/7Q
nQDEDOAsvdmzR30t8hm4pZj8+S5P9Icg0A84oEvV
-----END CERTIFICATE-----
