Certificate:
    Data:
        Version: 3 (0x2)
        Serial Number:
            47:7b:e1:33:e3:20:b3:49:9c:d4:c2:06:02:46:97:71
        Signature Algorithm: sha256WithRSAEncryption
        Issuer: C = XX, O = Some CA, CN = Fake CA for zlint testing
        Validity
            Not Before: Dec 18 11:19:10 2024 GMT
            Not After : Dec 18 11:19:10 2025 GMT
        Subject: C = TC, ST = "Turks &amp; Caicos Islands", L = Cockburn Town, O = Grand Lodge, CN = example.org
        Subject Public Key Info:
            Public Key Algorithm: rsaEncryption
                RSA Public-Key: (2048 bit)
                Modulus:
                    00:be:2f:1e:62:8d:04:cf:2c:7f:90:e8:c3:11:f2:
                    51:1d:95:4e:a8:0f:f1:4f:28:c1:c4:ea:8a:14:70:
                    62:9a:b1:72:42:bf:ea:bb:5c:d5:7c:33:32:a8:89:
                    43:9e:48:11:62:d0:a7:6c:74:b9:e9:21:13:d1:6f:
                    00:ee:7b:7f:a2:7c:84:06:04:d8:9d:44:91:56:eb:
                    4e:d3:f0:c3:9e:51:4a:b5:7e:87:81:10:17:23:7a:
                    46:d8:61:44:78:d5:28:40:fe:48:37:cc:00:85:86:
                    32:82:ff:72:11:8a:c0:49:64:da:04:70:74:f6:ae:
                    e4:7f:93:04:6f:a3:60:b3:1d:d0:98:dc:03:08:3b:
                    db:f0:38:36:34:9a:4d:0f:4f:95:14:94:2e:dc:97:
                    4a:83:4c:f0:3f:df:7f:f5:cd:61:19:52:ec:3c:6b:
                    34:ff:2b:91:98:2e:f1:06:dd:a2:1b:3c:28:3d:28:
                    6b:98:26:45:e3:e0:92:cb:18:04:f4:ce:07:d5:85:
                    23:2f:e8:70:75:72:5a:e8:bc:07:ef:ae:05:3f:4d:
                    02:21:bc:b2:99:ee:0c:95:b1:7d:22:8a:68:bf:e6:
                    a1:a0:1c:83:c6:90:41:50:b4:ac:e9:b4:da:d6:5a:
                    c7:35:81:92:7a:47:5d:ff:87:d5:a9:77:e7:c6:36:
                    76:09
                Exponent: 65537 (0x10001)
        X509v3 extensions:
            X509v3 Key Usage: critical
                Digital Signature, Key Encipherment
            X509v3 Extended Key Usage: 
                TLS Web Client Authentication, TLS Web Server Authentication
            X509v3 Subject Key Identifier: 
                9B:41:57:4E:12:2C:2C:01:30:5C:01:08:4B:5C:25:0E:A8:AA:D3:10
            X509v3 Authority Key Identifier: 
                keyid:E8:B6:F6:76:4B:D0:3B:E5:46:A5:F9:54:D4:7E:07:B3:DE:0D:60:3E

            Authority Information Access: 
                OCSP - URI:http://ca.someca-inc.com/ocsp
                CA Issuers - URI:http://ca.someca-inc.com/root

            X509v3 Subject Alternative Name: 
                DNS:example.org
            X509v3 Certificate Policies: 
                Policy: 2.23.140.1.2.2

            X509v3 CRL Distribution Points: 

                Full Name:
                  URI:http://ca.someca-inc.com/crl

    Signature Algorithm: sha256WithRSAEncryption
         63:44:de:77:d7:94:56:70:1c:cb:8f:50:87:7d:9c:e6:4b:91:
         8a:aa:71:6d:28:a3:f4:60:e6:43:87:0e:99:e9:e1:93:9d:d0:
         85:52:48:1f:3f:53:bc:cf:85:60:a9:b9:50:10:9a:5c:c4:55:
         bb:14:42:75:91:80:c6:e4:e5:ed:cd:52:f2:f4:0d:25:8d:d7:
         50:20:a8:12:7e:c8:0b:6b:da:cf:d0:f5:20:fc:6c:bd:8f:0a:
         16:6d:31:48:e5:59:db:de:34:12:b5:ec:47:e7:7e:ce:76:7a:
         b6:c6:fd:ad:16:cd:93:58:c6:27:47:67:1d:f8:ab:b8:d6:e7:
         4f:be:f8:f7:2b:7f:3a:ac:32:36:c3:d6:65:d8:22:97:68:4a:
         8b:34:43:9f:f4:a5:91:1a:2e:16:45:04:05:7d:78:2f:0b:a5:
         68:e2:f3:9c:ac:75:99:11:05:8f:1d:24:e7:3c:e0:8f:62:c8:
         13:3e:9b:48:e3:0c:f4:d4:78:21:65:04:ea:08:20:dd:f3:9f:
         f1:47:ff:70:28:0d:f1:1a:17:a6:73:ec:b7:85:3b:d6:ae:5c:
         4a:7f:37:4f:25:c6:9c:04:eb:4e:f0:fb:f6:67:f5:b3:83:d3:
         ac:74:7e:da:68:0e:32:9f:4f:50:95:64:ac:db:54:40:16:85:
         00:e6:23:e8
-----BEGIN CERTIFICATE-----
MIIEejCCA2KgAwIBAgIQR3vhM+Mgs0mc1MIGAkaXcTANBgkqhkiG9w0BAQsFADBD
MQswCQYDVQQGEwJYWDEQMA4GA1UEChMHU29tZSBDQTEiMCAGA1UEAxMZRmFrZSBD
QSBmb3IgemxpbnQgdGVzdGluZzAeFw0yNDEyMTgxMTE5MTBaFw0yNTEyMTgxMTE5
MTBaMHYxCzAJBgNVBAYTAlRDMSMwIQYDVQQIDBpUdXJrcyAmYW1wOyBDYWljb3Mg
SXNsYW5kczEWMBQGA1UEBxMNQ29ja2J1cm4gVG93bjEUMBIGA1UEChMLR3JhbmQg
TG9kZ2UxFDASBgNVBAMTC2V4YW1wbGUub3JnMIIBIjANBgkqhkiG9w0BAQEFAAOC
AQ8AMIIBCgKCAQEAvi8eYo0Ezyx/kOjDEfJRHZVOqA/xTyjBxOqKFHBimrFyQr/q
u1zVfDMyqIlDnkgRYtCnbHS56SET0W8A7nt/onyEBgTYnUSRVutO0/DDnlFKtX6H
gRAXI3pG2GFEeNUoQP5IN8wAhYYygv9yEYrASWTaBHB09q7kf5MEb6Ngsx3QmNwD
CDvb8Dg2NJpND0+VFJQu3JdKg0zwP99/9c1hGVLsPGs0/yuRmC7xBt2iGzwoPShr
mCZF4+CSyxgE9M4H1YUjL+hwdXJa6LwH764FP00CIbyyme4MlbF9Iopov+ahoByD
xpBBULSs6bTa1lrHNYGSekdd/4fVqXfnxjZ2CQIDAQABo4IBNTCCATEwDgYDVR0P
AQH/BAQDAgWgMB0GA1UdJQQWMBQGCCsGAQUFBwMCBggrBgEFBQcDATAdBgNVHQ4E
FgQUm0FXThIsLAEwXAEIS1wlDqiq0xAwHwYDVR0jBBgwFoAU6Lb2dkvQO+VGpflU
1H4Hs94NYD4wZAYIKwYBBQUHAQEEWDBWMCkGCCsGAQUFBzABhh1odHRwOi8vY2Eu
c29tZWNhLWluYy5jb20vb2NzcDApBggrBgEFBQcwAoYdaHR0cDovL2NhLnNvbWVj
YS1pbmMuY29tL3Jvb3QwFgYDVR0RBA8wDYILZXhhbXBsZS5vcmcwEwYDVR0gBAww
CjAIBgZngQwBAgIwLQYDVR0fBCYwJDAioCCgHoYcaHR0cDovL2NhLnNvbWVjYS1p
bmMuY29tL2NybDANBgkqhkiG9w0BAQsFAAOCAQEAY0Ted9eUVnAcy49Qh32c5kuR
iqpxbSij9GDmQ4cOmenhk53QhVJIHz9TvM+FYKm5UBCaXMRVuxRCdZGAxuTl7c1S
8vQNJY3XUCCoEn7IC2vaz9D1IPxsvY8KFm0xSOVZ2940ErXsR+d+znZ6tsb9rRbN
k1jGJ0dnHfiruNbnT7749yt/OqwyNsPWZdgil2hKizRDn/SlkRouFkUEBX14Lwul
aOLznKx1mREFjx0k5zzgj2LIEz6bSOMM9NR4IWUE6ggg3fOf8Uf/cCgN8RoXpnPs
t4U71q5cSn83TyXGnATrTvD79mf1s4PTrHR+2mgOMp9PUJVkrNtUQBaFAOYj6A==
-----END CERTIFICATE-----
