Certificate:
    Data:
        Version: 3 (0x2)
        Serial Number:
            e8:60:2f:5f:81:b6:ef:bf:53:59:da:bf:43:aa:91:b4
        Signature Algorithm: sha256WithRSAEncryption
        Issuer: C = XX, O = Some CA, CN = Fake CA for zlint testing
        Validity
            Not Before: Dec 18 11:24:51 2024 GMT
            Not After : Dec 18 11:24:51 2025 GMT
        Subject: C = FR, ST = Provence-Alpes-C\C3\B4te d'Azur, L = "La Roque-d&#x27;Anth&#xE9;ron", O = Le Jas Restaurant, CN = example.org
        Subject Public Key Info:
            Public Key Algorithm: rsaEncryption
                RSA Public-Key: (2048 bit)
                Modulus:
                    00:e6:86:4c:37:a3:a3:3e:ed:fa:a8:42:a8:c8:04:
                    35:bd:0b:6f:eb:ba:05:3f:e2:f6:86:d4:1f:19:93:
                    a5:f7:bc:61:03:69:b5:17:bb:ad:21:d6:1a:35:dd:
                    7e:29:99:97:15:5f:c4:28:d0:66:02:fd:7d:fb:14:
                    6b:1b:9e:ee:73:ce:5a:16:e6:ac:f9:94:b3:33:d6:
                    9c:34:9f:1c:eb:2c:5c:d5:a7:6f:a0:13:cb:55:23:
                    ab:fd:da:5b:82:51:ec:ed:c5:93:f3:e4:39:cc:f1:
                    bd:46:dd:c6:6e:15:b8:71:8c:0d:cc:a0:52:6c:b9:
                    e4:6e:4b:78:ba:d7:81:fb:74:bb:73:41:1e:c9:25:
                    74:a5:9b:ba:6e:21:a1:75:44:c7:5f:e8:cc:c8:3c:
                    94:72:c2:8e:e0:59:1e:ab:b2:59:71:40:bd:47:ba:
                    3e:93:52:c4:ec:da:b8:d1:40:fb:d8:9d:3b:77:29:
                    72:85:94:41:34:a1:4d:cb:16:f0:3e:4e:a9:73:57:
                    08:83:be:71:08:9e:ab:a7:a9:52:0d:29:34:5b:5d:
                    ad:e0:2d:e8:42:d6:ba:17:31:61:ad:27:1f:ce:d3:
                    20:d6:43:4e:c6:7a:f1:d5:a5:15:85:5e:ee:0b:08:
                    3c:d3:67:b6:90:92:1e:88:c7:ab:54:89:b0:62:0b:
                    96:07
                Exponent: 65537 (0x10001)
        X509v3 extensions:
            X509v3 Key Usage: critical
                Digital Signature, Key Encipherment
            X509v3 Extended Key Usage: 
                TLS Web Client Authentication, TLS Web Server Authentication
            X509v3 Subject Key Identifier: 
                98:B2:0A:EE:E9:7E:13:0E:27:9E:B4:77:C0:33:0D:9C:EF:28:70:43
            X509v3 Authority Key Identifier: 
                keyid:E8:B6:F6:76:4B:D0:3B:E5:46:A5:F9:54:D4:7E:07:B3:DE:0D:60:3E

            Authority Information Access: 
                OCSP - URI:http://ca.someca-inc.com/ocsp
                CA Issuers - URI:http://ca.someca-inc.com/root

            X509v3 Subject Alternative Name: 
                DNS:example.org
            X509v3 Certificate Policies: 
                Policy: 2.23.140.1.2.2

            X509v3 CRL Distribution Points: 

                Full Name:
                  URI:http://ca.someca-inc.com/crl

    Signature Algorithm: sha256WithRSAEncryption
         44:c4:47:d6:c8:63:0a:ef:86:5b:4c:c4:db:31:ea:c7:71:6e:
         fd:80:bf:4f:a2:72:d7:80:50:c2:8b:40:8d:79:ae:43:21:72:
         f6:91:6c:ea:36:71:04:8a:f1:80:d6:a2:33:f3:bf:c6:62:d4:
         73:95:76:70:3c:f9:f6:9b:9f:60:cd:0e:a4:c9:4a:df:a0:a4:
         1d:2c:62:a3:64:70:1b:4a:69:46:70:65:6f:18:73:df:9e:8f:
         be:e9:ed:e2:80:87:84:e4:08:af:b3:f9:e1:17:2c:0e:78:d4:
         23:84:66:4e:ab:3f:f1:1f:e4:f5:09:90:83:d1:a3:bf:7d:64:
         e8:dc:a1:3f:a5:4c:2b:f6:b7:66:41:54:f4:63:88:cd:48:26:
         ed:55:9c:74:df:2e:57:2b:c0:59:c4:5b:5f:68:4d:e8:7e:73:
         d2:2c:5f:c4:58:2e:12:17:ed:9d:61:e4:88:cc:93:b0:5b:bf:
         5b:03:b9:38:26:1a:22:79:e8:58:77:42:2c:f4:aa:d2:24:a0:
         7c:f5:5b:5a:5b:bb:04:c0:97:45:6f:6b:b5:4f:d8:e9:c9:ac:
         ec:96:98:50:58:f6:e8:98:b4:3d:a8:a9:8e:65:25:d0:39:a0:
         ff:ff:78:36:5d:d3:ec:f5:83:ce:bc:b9:87:9a:2b:a4:22:46:
         26:a1:6c:b0
-----BEGIN CERTIFICATE-----
MIIEkzCCA3ugAwIBAgIRAOhgL1+Btu+/U1nav0OqkbQwDQYJKoZIhvcNAQELBQAw
QzELMAkGA1UEBhMCWFgxEDAOBgNVBAoTB1NvbWUgQ0ExIjAgBgNVBAMTGUZha2Ug
Q0EgZm9yIHpsaW50IHRlc3RpbmcwHhcNMjQxMjE4MTEyNDUxWhcNMjUxMjE4MTEy
NDUxWjCBjTELMAkGA1UEBhMCRlIxJDAiBgNVBAgMG1Byb3ZlbmNlLUFscGVzLUPD
tHRlIGQnQXp1cjEmMCQGA1UEBwwdTGEgUm9xdWUtZCYjeDI3O0FudGgmI3hFOTty
b24xGjAYBgNVBAoTEUxlIEphcyBSZXN0YXVyYW50MRQwEgYDVQQDEwtleGFtcGxl
Lm9yZzCCASIwDQYJKoZIhvcNAQEBBQADggEPADCCAQoCggEBAOaGTDejoz7t+qhC
qMgENb0Lb+u6BT/i9obUHxmTpfe8YQNptRe7rSHWGjXdfimZlxVfxCjQZgL9ffsU
axue7nPOWhbmrPmUszPWnDSfHOssXNWnb6ATy1Ujq/3aW4JR7O3Fk/PkOczxvUbd
xm4VuHGMDcygUmy55G5LeLrXgft0u3NBHskldKWbum4hoXVEx1/ozMg8lHLCjuBZ
HquyWXFAvUe6PpNSxOzauNFA+9idO3cpcoWUQTShTcsW8D5OqXNXCIO+cQieq6ep
Ug0pNFtdreAt6ELWuhcxYa0nH87TINZDTsZ68dWlFYVe7gsIPNNntpCSHojHq1SJ
sGILlgcCAwEAAaOCATUwggExMA4GA1UdDwEB/wQEAwIFoDAdBgNVHSUEFjAUBggr
BgEFBQcDAgYIKwYBBQUHAwEwHQYDVR0OBBYEFJiyCu7pfhMOJ560d8AzDZzvKHBD
MB8GA1UdIwQYMBaAFOi29nZL0DvlRqX5VNR+B7PeDWA+MGQGCCsGAQUFBwEBBFgw
VjApBggrBgEFBQcwAYYdaHR0cDovL2NhLnNvbWVjYS1pbmMuY29tL29jc3AwKQYI
KwYBBQUHMAKGHWh0dHA6Ly9jYS5zb21lY2EtaW5jLmNvbS9yb290MBYGA1UdEQQP
MA2CC2V4YW1wbGUub3JnMBMGA1UdIAQMMAowCAYGZ4EMAQICMC0GA1UdHwQmMCQw
IqAgoB6GHGh0dHA6Ly9jYS5zb21lY2EtaW5jLmNvbS9jcmwwDQYJKoZIhvcNAQEL
BQADggEBAETER9bIYwrvhltMxNsx6sdxbv2Av0+icteAUMKLQI15rkMhcvaRbOo2
cQSK8YDWojPzv8Zi1HOVdnA8+fabn2DNDqTJSt+gpB0sYqNkcBtKaUZwZW8Yc9+e
j77p7eKAh4TkCK+z+eEXLA541COEZk6rP/Ef5PUJkIPRo799ZOjcoT+lTCv2t2ZB
VPRjiM1IJu1VnHTfLlcrwFnEW19oTeh+c9IsX8RYLhIX7Z1h5IjMk7Bbv1sDuTgm
GiJ56Fh3Qiz0qtIkoHz1W1pbuwTAl0Vva7VP2OnJrOyWmFBY9uiYtD2oqY5lJdA5
oP//eDZd0+z1g868uYeaK6QiRiahbLA=
-----END CERTIFICATE-----
