Certificate:
    Data:
        Version: 3 (0x2)
        Serial Number:
            4f:47:38:4f:0f:c3:45:b6:91:f7:9d:15:ee:77:03:11
        Signature Algorithm: sha256WithRSAEncryption
        Issuer: C = XX, O = Some CA, CN = Fake CA for zlint testing
        Validity
            Not Before: Dec 18 11:12:37 2024 GMT
            Not After : Dec 18 11:12:37 2025 GMT
        Subject: C = DE, ST = Hamburg, L = Hamburg, O = "Steinway &amp; Sons", CN = example.org
        Subject Public Key Info:
            Public Key Algorithm: rsaEncryption
                RSA Public-Key: (2048 bit)
                Modulus:
                    00:b2:e8:30:07:2e:bb:73:1c:e9:9d:f7:96:5c:ee:
                    54:5c:10:0f:9c:92:e5:53:d8:b5:ba:0c:3f:82:9f:
                    e2:66:bd:a4:a8:16:8f:d1:c0:5d:c3:f4:9f:65:17:
                    9e:f5:ec:e8:79:c4:4e:8b:38:ca:2a:76:4d:e9:0c:
                    1f:0c:ac:8b:b4:5c:55:29:f0:25:e6:59:2f:b0:74:
                    44:cf:2e:0a:85:1d:31:9e:11:36:76:4a:77:97:68:
                    43:81:1e:05:ed:99:13:73:30:45:ee:97:ce:27:5b:
                    d3:1b:29:df:7a:8f:91:94:ee:7a:18:48:9d:c2:9f:
                    be:57:ad:57:a5:d8:47:8a:8c:93:fa:a2:4b:f5:b8:
                    ce:c0:88:c0:86:c0:a8:58:44:7c:e0:5a:92:e5:3f:
                    b1:fc:42:bf:76:ed:4c:75:91:0e:8e:36:e2:2f:42:
                    72:92:50:d6:6b:62:0c:84:bf:dc:a6:67:3a:38:5e:
                    6f:73:b9:af:ab:a0:7c:d1:80:b4:73:83:0e:9b:0c:
                    a1:d1:4f:8a:d9:40:90:6a:fe:6d:5b:49:44:5d:6d:
                    4f:e0:42:bd:84:c6:de:43:fd:82:6b:33:3c:4c:26:
                    3b:e5:9b:17:b0:e8:fb:2d:46:78:d1:d4:bf:05:20:
                    f9:6d:16:64:28:cd:a2:94:2c:2d:b0:f0:1a:ba:4e:
                    37:4d
                Exponent: 65537 (0x10001)
        X509v3 extensions:
            X509v3 Key Usage: critical
                Digital Signature, Key Encipherment
            X509v3 Extended Key Usage: 
                TLS Web Client Authentication, TLS Web Server Authentication
            X509v3 Subject Key Identifier: 
                AA:E8:51:AF:70:29:30:58:1B:94:D5:D2:1E:7A:2B:EB:95:92:60:C6
            X509v3 Authority Key Identifier: 
                keyid:E8:B6:F6:76:4B:D0:3B:E5:46:A5:F9:54:D4:7E:07:B3:DE:0D:60:3E

            Authority Information Access: 
                OCSP - URI:http://ca.someca-inc.com/ocsp
                CA Issuers - URI:http://ca.someca-inc.com/root

            X509v3 Subject Alternative Name: 
                DNS:example.org
            X509v3 Certificate Policies: 
                Policy: 2.23.140.1.2.2

            X509v3 CRL Distribution Points: 

                Full Name:
                  URI:http://ca.someca-inc.com/crl

    Signature Algorithm: sha256WithRSAEncryption
         89:44:f7:34:c9:a2:c0:7d:3a:65:0a:11:39:69:79:09:ba:b0:
         d8:e2:14:e9:a7:81:0a:c8:cc:a3:1d:ca:b2:bf:21:7c:f1:67:
         e0:08:0c:c6:7b:09:26:1d:b1:e9:f4:5f:7b:bb:36:c2:63:10:
         14:cc:90:25:52:3a:62:58:20:17:56:7b:77:47:cd:e2:45:90:
         f7:22:f3:f6:fe:90:e9:f6:50:f1:84:58:e0:35:24:20:dd:fc:
         ec:b4:8c:c2:88:cf:0f:1b:3f:de:95:a2:26:f8:db:d6:c7:b1:
         bc:8a:0f:4c:53:e7:ea:cf:3f:2c:ac:66:94:9c:d0:d7:70:9f:
         cc:9c:f2:b9:ec:1c:77:63:33:b4:6b:65:4b:a8:43:84:e5:99:
         bd:c1:16:4d:ed:ee:ec:5d:4f:ae:bc:93:9e:77:b0:de:eb:1b:
         f5:b4:e7:88:26:0b:18:0a:b3:2e:2a:b3:e5:5b:50:d3:e6:e3:
         87:c5:48:fa:be:6d:a0:52:9c:38:13:dd:08:59:ad:da:28:54:
         36:df:ea:0e:b2:fa:56:a5:bb:5d:62:ca:59:8b:66:3a:df:b0:
         a5:d2:40:0a:13:0f:07:b8:cf:55:ad:e7:fb:3e:fb:23:44:11:
         32:3d:e8:c7:7b:7b:ae:15:7c:8f:c5:a7:66:72:80:84:e8:40:
         a0:62:a9:c3
-----BEGIN CERTIFICATE-----
MIIEaTCCA1GgAwIBAgIQT0c4Tw/DRbaR950V7ncDETANBgkqhkiG9w0BAQsFADBD
MQswCQYDVQQGEwJYWDEQMA4GA1UEChMHU29tZSBDQTEiMCAGA1UEAxMZRmFrZSBD
QSBmb3IgemxpbnQgdGVzdGluZzAeFw0yNDEyMTgxMTEyMzdaFw0yNTEyMTgxMTEy
MzdaMGUxCzAJBgNVBAYTAkRFMRAwDgYDVQQIEwdIYW1idXJnMRAwDgYDVQQHEwdI
YW1idXJnMRwwGgYDVQQKDBNTdGVpbndheSAmYW1wOyBTb25zMRQwEgYDVQQDEwtl
eGFtcGxlLm9yZzCCASIwDQYJKoZIhvcNAQEBBQADggEPADCCAQoCggEBALLoMAcu
u3Mc6Z33llzuVFwQD5yS5VPYtboMP4Kf4ma9pKgWj9HAXcP0n2UXnvXs6HnETos4
yip2TekMHwysi7RcVSnwJeZZL7B0RM8uCoUdMZ4RNnZKd5doQ4EeBe2ZE3MwRe6X
zidb0xsp33qPkZTuehhIncKfvletV6XYR4qMk/qiS/W4zsCIwIbAqFhEfOBakuU/
sfxCv3btTHWRDo424i9CcpJQ1mtiDIS/3KZnOjheb3O5r6ugfNGAtHODDpsModFP
itlAkGr+bVtJRF1tT+BCvYTG3kP9gmszPEwmO+WbF7Do+y1GeNHUvwUg+W0WZCjN
opQsLbDwGrpON00CAwEAAaOCATUwggExMA4GA1UdDwEB/wQEAwIFoDAdBgNVHSUE
FjAUBggrBgEFBQcDAgYIKwYBBQUHAwEwHQYDVR0OBBYEFKroUa9wKTBYG5TV0h56
K+uVkmDGMB8GA1UdIwQYMBaAFOi29nZL0DvlRqX5VNR+B7PeDWA+MGQGCCsGAQUF
BwEBBFgwVjApBggrBgEFBQcwAYYdaHR0cDovL2NhLnNvbWVjYS1pbmMuY29tL29j
c3AwKQYIKwYBBQUHMAKGHWh0dHA6Ly9jYS5zb21lY2EtaW5jLmNvbS9yb290MBYG
A1UdEQQPMA2CC2V4YW1wbGUub3JnMBMGA1UdIAQMMAowCAYGZ4EMAQICMC0GA1Ud
HwQmMCQwIqAgoB6GHGh0dHA6Ly9jYS5zb21lY2EtaW5jLmNvbS9jcmwwDQYJKoZI
hvcNAQELBQADggEBAIlE9zTJosB9OmUKETlpeQm6sNjiFOmngQrIzKMdyrK/IXzx
Z+AIDMZ7CSYdsen0X3u7NsJjEBTMkCVSOmJYIBdWe3dHzeJFkPci8/b+kOn2UPGE
WOA1JCDd/Oy0jMKIzw8bP96Voib429bHsbyKD0xT5+rPPyysZpSc0Ndwn8yc8rns
HHdjM7RrZUuoQ4Tlmb3BFk3t7uxdT668k553sN7rG/W054gmCxgKsy4qs+VbUNPm
44fFSPq+baBSnDgT3QhZrdooVDbf6g6y+lalu11iylmLZjrfsKXSQAoTDwe4z1Wt
5/s++yNEETI96Md7e64VfI/Fp2ZygIToQKBiqcM=
-----END CERTIFICATE-----
