Certificate:
    Data:
        Version: 3 (0x2)
        Serial Number:
            65:06:83:30:4d:b5:c9:67:3d:8d:fa:b7:8f:f9:cd:29
        Signature Algorithm: sha256WithRSAEncryption
        Issuer: C = XX, O = Some CA, CN = Fake CA for zlint testing
        Validity
            Not Before: Dec 18 11:00:16 2024 GMT
            Not After : Dec 18 11:00:16 2025 GMT
        Subject: C = IT, ST = Milano, L = Milano, O = Qualche Azienda SpA, CN = example.org
        Subject Public Key Info:
            Public Key Algorithm: rsaEncryption
                RSA Public-Key: (2048 bit)
                Modulus:
                    00:b7:d7:ce:d9:e3:31:b1:5d:fb:14:24:c8:b9:90:
                    73:eb:12:aa:42:9d:4e:79:90:3d:77:50:d3:29:93:
                    d7:c2:63:c3:df:90:09:83:10:f3:44:35:30:72:09:
                    67:8c:9e:a6:1d:5b:54:51:9e:02:b3:af:04:d1:6f:
                    96:70:34:b0:96:1f:7b:a5:09:a8:4f:83:67:19:29:
                    d7:e6:dd:c2:af:ce:b4:45:86:45:37:61:b4:b4:89:
                    f0:ac:48:06:70:dc:19:f5:7a:d0:7d:b0:31:1a:49:
                    d6:6e:6d:7b:87:2c:2f:f0:6f:c1:27:70:4a:6e:b4:
                    91:29:69:ee:85:90:e3:e6:53:c6:3e:79:1e:33:4d:
                    0b:f9:ad:69:fd:a5:6d:6f:9b:8e:dd:30:76:78:91:
                    e4:ed:2b:c9:d2:c3:e8:07:36:01:99:68:af:1a:2e:
                    e8:f2:54:e7:97:5e:c1:a5:e5:c6:10:e2:19:7e:6f:
                    cc:d4:1d:09:b4:06:99:9c:98:b3:98:01:bc:b0:70:
                    02:84:84:bb:91:64:de:0c:df:85:8c:32:c7:92:83:
                    91:4b:c9:e2:12:d2:66:df:76:45:f2:d9:0f:10:a5:
                    0f:b2:30:60:03:78:3f:31:4a:dd:ce:6b:e5:30:17:
                    3d:24:dd:04:d3:b6:6a:92:ee:74:d0:83:bc:fb:c3:
                    c7:ed
                Exponent: 65537 (0x10001)
        X509v3 extensions:
            X509v3 Key Usage: critical
                Digital Signature, Key Encipherment
            X509v3 Extended Key Usage: 
                TLS Web Client Authentication, TLS Web Server Authentication
            X509v3 Subject Key Identifier: 
                5F:63:C5:7D:41:9F:E7:20:25:77:F9:B2:D6:14:D7:7F:EE:98:31:2D
            X509v3 Authority Key Identifier: 
                keyid:E8:B6:F6:76:4B:D0:3B:E5:46:A5:F9:54:D4:7E:07:B3:DE:0D:60:3E

            Authority Information Access: 
                OCSP - URI:http://ca.someca-inc.com/ocsp
                CA Issuers - URI:http://ca.someca-inc.com/root

            X509v3 Subject Alternative Name: 
                DNS:example.org
            X509v3 Certificate Policies: 
                Policy: 2.23.140.1.2.2

            X509v3 CRL Distribution Points: 

                Full Name:
                  URI:http://ca.someca-inc.com/crl

    Signature Algorithm: sha256WithRSAEncryption
         71:3f:84:05:a3:70:08:4d:2f:db:1a:c1:0d:f7:70:2b:1a:50:
         cb:7e:df:2b:33:d2:d7:dc:54:c8:7c:46:05:8f:29:5b:58:a9:
         7d:a8:6a:7f:a6:06:a6:8d:5b:43:12:db:1e:37:29:99:67:8c:
         fc:fb:84:fe:37:f0:6e:d7:a3:67:fd:da:b9:10:fa:ec:1a:7b:
         d8:fc:d8:e6:7d:50:47:1b:a9:74:b0:a2:23:e1:fe:b3:da:d7:
         be:7e:70:0f:57:3b:8c:40:e0:a7:ee:6d:7e:52:92:26:2a:b5:
         f4:04:1e:69:87:66:05:bf:25:35:20:df:3f:01:c5:18:c5:63:
         93:e4:81:64:ae:d5:c2:1f:64:bf:3f:67:b8:91:6e:0d:d9:d4:
         38:30:52:ce:9f:8f:28:e9:81:a5:dc:2e:05:20:76:6b:a0:a1:
         6c:18:97:5d:b9:8b:4e:eb:5b:b2:cc:bc:90:18:23:e7:8b:cf:
         b1:c5:94:7e:de:e9:e7:9f:37:2b:34:fb:20:d0:a5:4d:21:b0:
         8b:15:2e:69:f7:9a:94:c8:6b:13:97:2b:ce:07:a4:c8:e5:76:
         33:9e:d6:d9:0a:04:77:16:81:ec:a3:bd:72:6e:d2:a4:51:41:
         7f:3f:25:df:2c:0d:77:df:ba:95:0b:d8:fa:64:c1:bb:60:71:
         bd:8a:40:f9
-----BEGIN CERTIFICATE-----
MIIEZzCCA0+gAwIBAgIQZQaDME21yWc9jfq3j/nNKTANBgkqhkiG9w0BAQsFADBD
MQswCQYDVQQGEwJYWDEQMA4GA1UEChMHU29tZSBDQTEiMCAGA1UEAxMZRmFrZSBD
QSBmb3IgemxpbnQgdGVzdGluZzAeFw0yNDEyMTgxMTAwMTZaFw0yNTEyMTgxMTAw
MTZaMGMxCzAJBgNVBAYTAklUMQ8wDQYDVQQIEwZNaWxhbm8xDzANBgNVBAcTBk1p
bGFubzEcMBoGA1UEChMTUXVhbGNoZSBBemllbmRhIFNwQTEUMBIGA1UEAxMLZXhh
bXBsZS5vcmcwggEiMA0GCSqGSIb3DQEBAQUAA4IBDwAwggEKAoIBAQC3187Z4zGx
XfsUJMi5kHPrEqpCnU55kD13UNMpk9fCY8PfkAmDEPNENTByCWeMnqYdW1RRngKz
rwTRb5ZwNLCWH3ulCahPg2cZKdfm3cKvzrRFhkU3YbS0ifCsSAZw3Bn1etB9sDEa
SdZubXuHLC/wb8EncEputJEpae6FkOPmU8Y+eR4zTQv5rWn9pW1vm47dMHZ4keTt
K8nSw+gHNgGZaK8aLujyVOeXXsGl5cYQ4hl+b8zUHQm0BpmcmLOYAbywcAKEhLuR
ZN4M34WMMseSg5FLyeIS0mbfdkXy2Q8QpQ+yMGADeD8xSt3Oa+UwFz0k3QTTtmqS
7nTQg7z7w8ftAgMBAAGjggE1MIIBMTAOBgNVHQ8BAf8EBAMCBaAwHQYDVR0lBBYw
FAYIKwYBBQUHAwIGCCsGAQUFBwMBMB0GA1UdDgQWBBRfY8V9QZ/nICV3+bLWFNd/
7pgxLTAfBgNVHSMEGDAWgBTotvZ2S9A75Ual+VTUfgez3g1gPjBkBggrBgEFBQcB
AQRYMFYwKQYIKwYBBQUHMAGGHWh0dHA6Ly9jYS5zb21lY2EtaW5jLmNvbS9vY3Nw
MCkGCCsGAQUFBzAChh1odHRwOi8vY2Euc29tZWNhLWluYy5jb20vcm9vdDAWBgNV
HREEDzANggtleGFtcGxlLm9yZzATBgNVHSAEDDAKMAgGBmeBDAECAjAtBgNVHR8E
JjAkMCKgIKAehhxodHRwOi8vY2Euc29tZWNhLWluYy5jb20vY3JsMA0GCSqGSIb3
DQEBCwUAA4IBAQBxP4QFo3AITS/bGsEN93ArGlDLft8rM9LX3FTIfEYFjylbWKl9
qGp/pgamjVtDEtseNymZZ4z8+4T+N/Bu16Nn/dq5EPrsGnvY/NjmfVBHG6l0sKIj
4f6z2te+fnAPVzuMQOCn7m1+UpImKrX0BB5ph2YFvyU1IN8/AcUYxWOT5IFkrtXC
H2S/P2e4kW4N2dQ4MFLOn48o6YGl3C4FIHZroKFsGJdduYtO61uyzLyQGCPni8+x
xZR+3unnnzcrNPsg0KVNIbCLFS5p95qUyGsTlyvOB6TI5XYzntbZCgR3FoHso71y
btKkUUF/PyXfLA1337qVC9j6ZMG7YHG9ikD5
-----END CERTIFICATE-----
