Certificate:
    Data:
        Version: 3 (0x2)
        Serial Number: 18008675309 (0x4316693ed)
    Signature Algorithm: sha256WithRSAEncryption
        Issuer: C = US, O = Mother Nature, OU = Everything, CN = Mother Nature
        Validity
            Not Before: Jun 30 14:31:24 2016 GMT
            Not After : Sep 11 14:31:24 2016 GMT
        Subject: C = US, ST = FL, L = Tallahassee, street = 3210 Holly Mill Run, postalCode = 30062, O = Extreme Discord, OU = Chaos, CN = gov.us
        Subject Public Key Info:
            Public Key Algorithm: rsaEncryption
                Public-Key: (2048 bit)
                Modulus:
                    00:b7:74:8b:55:9e:8b:d4:f3:b8:b1:a5:d3:c3:8f:
                    88:de:69:14:6c:57:89:fb:b8:b5:cf:ba:62:26:3f:
                    03:0e:42:08:7d:e2:d4:b6:a8:ef:48:c5:e7:c3:54:
                    a8:d4:5a:34:a3:5b:16:d1:e2:48:fc:9c:7d:03:2c:
                    e4:8e:49:23:96:dc:1f:4e:5e:6e:3f:98:54:01:10:
                    83:40:39:89:ce:90:7e:10:9e:e1:96:b5:c1:0e:85:
                    96:33:65:4c:b7:a4:20:4c:aa:93:2c:b2:e2:61:64:
                    93:7c:fd:ae:73:c8:c0:8c:07:4c:79:80:21:0b:86:
                    14:e8:ad:ec:bf:5d:4a:d2:ef:cc:24:b4:6b:1b:2a:
                    9d:b1:4a:3a:5b:5e:f1:7e:10:7f:c7:e4:f1:27:1b:
                    64:62:c1:19:a4:7e:f6:55:e6:bb:44:0e:53:58:60:
                    3d:ef:84:1b:8e:e4:12:51:f8:67:8f:38:38:ec:a1:
                    26:9a:47:85:9e:48:44:a6:63:75:34:39:d2:a1:b7:
                    56:19:04:6f:e3:e7:f8:27:7c:7d:78:bc:3d:e1:53:
                    f8:b5:73:46:43:c2:0a:82:a7:e7:24:4f:da:7c:12:
                    f4:fc:9b:5c:0b:40:4c:1a:3d:8d:d5:3a:88:0d:62:
                    36:00:e5:01:a4:eb:b8:f8:47:c0:af:f4:13:b4:87:
                    24:53
                Exponent: 65537 (0x10001)
        X509v3 extensions:
            X509v3 Key Usage: critical
                Digital Signature, Key Encipherment
            X509v3 Extended Key Usage: 
                TLS Web Client Authentication, TLS Web Server Authentication
            X509v3 Basic Constraints: critical
                CA:FALSE
            X509v3 Authority Key Identifier: 
                keyid:01:02:03

            Authority Information Access: 
                OCSP - URI:http://theca.net/ocsp
                CA Issuers - URI:http://theca.net/totallythecert.crt

            X509v3 Certificate Policies: 
                Policy: 1.3.6.1.5.5.7.13.1
                Policy: 2.23.140.1.2.2
                Policy: 1.3.6.1.5.5.7.13.1

            X509v3 Subject Key Identifier: 
                04:03:02:01
            X509v3 Subject Alternative Name: 
                DNS:*.gov.us, DNS:gov.us
            X509v3 Issuer Alternative Name: critical
                DNS:allthethings.net, DNS:theca.net
    Signature Algorithm: sha256WithRSAEncryption
         6a:d7:2b:10:cf:11:0a:93:e4:4e:5c:f8:fe:03:9d:07:72:97:
         09:31:1a:17:44:f1:01:32:c9:7c:83:1e:f4:f8:e7:a0:c6:b0:
         cf:66:41:43:24:5e:b7:15:51:a5:b9:ed:2d:bd:5d:a6:42:af:
         f4:77:51:87:57:72:27:1a:09:c1:1a:d3:3d:d1:4e:a8:d9:a7:
         55:b2:93:ca:69:d1:65:5d:0b:78:18:68:27:92:4d:50:63:c6:
         5b:b2:fb:b3:33:6d:61:98:b7:19:8f:56:9e:a8:82:fa:5d:2d:
         f4:c7:b0:77:f9:44:11:08:6d:68:46:f4:4e:39:66:90:ea:77:
         f4:fc:73:75:5d:5e:dd:be:c1:fc:4c:64:50:65:c8:b9:90:73:
         eb:9b:ab:9a:80:26:f4:a0:d5:f0:ea:9c:cf:78:cc:bf:ef:60:
         6e:20:67:13:a4:ae:4d:76:fa:7e:c9:68:6a:fc:66:fc:da:a4:
         56:3a:6a:c1:ac:93:09:c7:0c:9f:31:58:49:bd:87:e3:54:8d:
         40:a8:bc:1c:d9:8c:2b:7e:cb:0e:c5:38:62:92:e9:a5:22:5c:
         11:f7:8c:aa:2e:07:fa:d7:08:c3:a5:2e:1f:ad:47:dc:0a:f7:
         3d:01:e4:14:2d:e8:5e:c4:9d:67:d4:92:c1:fc:7a:e0:ea:9b:
         78:7e:35:da
-----BEGIN CERTIFICATE-----
MIIEpjCCA46gAwIBAgIFBDFmk+0wDQYJKoZIhvcNAQELBQAwUjELMAkGA1UEBhMC
VVMxFjAUBgNVBAoTDU1vdGhlciBOYXR1cmUxEzARBgNVBAsTCkV2ZXJ5dGhpbmcx
FjAUBgNVBAMTDU1vdGhlciBOYXR1cmUwHhcNMTYwNjMwMTQzMTI0WhcNMTYwOTEx
MTQzMTI0WjCBmTELMAkGA1UEBhMCVVMxCzAJBgNVBAgTAkZMMRQwEgYDVQQHEwtU
YWxsYWhhc3NlZTEcMBoGA1UECRMTMzIxMCBIb2xseSBNaWxsIFJ1bjEOMAwGA1UE
ERMFMzAwNjIxGDAWBgNVBAoTD0V4dHJlbWUgRGlzY29yZDEOMAwGA1UECxMFQ2hh
b3MxDzANBgNVBAMTBmdvdi51czCCASIwDQYJKoZIhvcNAQEBBQADggEPADCCAQoC
ggEBALd0i1Wei9TzuLGl08OPiN5pFGxXifu4tc+6YiY/Aw5CCH3i1Lao70jF58NU
qNRaNKNbFtHiSPycfQMs5I5JI5bcH05ebj+YVAEQg0A5ic6QfhCe4Za1wQ6FljNl
TLekIEyqkyyy4mFkk3z9rnPIwIwHTHmAIQuGFOit7L9dStLvzCS0axsqnbFKOlte
8X4Qf8fk8ScbZGLBGaR+9lXmu0QOU1hgPe+EG47kElH4Z484OOyhJppHhZ5IRKZj
dTQ50qG3VhkEb+Pn+Cd8fXi8PeFT+LVzRkPCCoKn5yRP2nwS9PybXAtATBo9jdU6
iA1iNgDlAaTruPhHwK/0E7SHJFMCAwEAAaOCATkwggE1MA4GA1UdDwEB/wQEAwIF
oDAdBgNVHSUEFjAUBggrBgEFBQcDAgYIKwYBBQUHAwEwDAYDVR0TAQH/BAIwADAO
BgNVHSMEBzAFgAMBAgMwYgYIKwYBBQUHAQEEVjBUMCEGCCsGAQUFBzABhhVodHRw
Oi8vdGhlY2EubmV0L29jc3AwLwYIKwYBBQUHMAKGI2h0dHA6Ly90aGVjYS5uZXQv
dG90YWxseXRoZWNlcnQuY3J0MCsGA1UdIAQkMCIwCgYIKwYBBQUHDQEwCAYGZ4EM
AQICMAoGCCsGAQUFBw0BMA0GA1UdDgQGBAQEAwIBMBsGA1UdEQQUMBKCCCouZ292
LnVzggZnb3YudXMwKQYDVR0SAQH/BB8wHYIQYWxsdGhldGhpbmdzLm5ldIIJdGhl
Y2EubmV0MA0GCSqGSIb3DQEBCwUAA4IBAQBq1ysQzxEKk+ROXPj+A50HcpcJMRoX
RPEBMsl8gx70+OegxrDPZkFDJF63FVGlue0tvV2mQq/0d1GHV3InGgnBGtM90U6o
2adVspPKadFlXQt4GGgnkk1QY8ZbsvuzM21hmLcZj1aeqIL6XS30x7B3+UQRCG1o
RvROOWaQ6nf0/HN1XV7dvsH8TGRQZci5kHPrm6uagCb0oNXw6pzPeMy/72BuIGcT
pK5Ndvp+yWhq/Gb82qRWOmrBrJMJxwyfMVhJvYfjVI1AqLwc2YwrfssOxThikuml
IlwR94yqLgf61wjDpS4frUfcCvc9AeQULehexJ1n1JLB/Hrg6pt4fjXa
-----END CERTIFICATE-----
