Certificate:
    Data:
        Version: 3 (0x2)
        Serial Number: 18008675309 (0x4316693ed)
    Signature Algorithm: sha256WithRSAEncryption
        Issuer: C = US, O = Mother Nature, OU = Everything, CN = Name constraint
        Validity
            Not Before: Dec  1 06:07:08 2055 GMT
            Not After : Oct  6 04:24:23 2056 GMT
        Subject: C = US, O = Extreme Discord, OU = Chaos, L = Tallahassee, ST = FL, street = 3210 Holly Mill Run, postalCode = 30062, CN = gov.us
        Subject Public Key Info:
            Public Key Algorithm: rsaEncryption
                Public-Key: (2048 bit)
                Modulus:
                    00:c8:21:fc:30:a2:66:5f:6c:8d:94:93:f2:55:a6:
                    ab:f2:b1:8a:e2:89:a5:40:2d:06:e4:9a:9f:2d:aa:
                    64:83:f5:bc:99:76:45:3d:bc:e6:a1:09:c3:fc:0f:
                    50:35:3f:dc:e3:81:5a:7b:b1:ea:66:96:fd:a5:8c:
                    0b:19:01:f9:e7:23:d1:27:f2:da:47:11:d5:4c:c2:
                    f0:d5:5a:bd:13:e8:35:01:b9:d8:e0:3c:c6:c9:90:
                    08:a8:5c:3e:48:c7:55:47:58:7f:28:f7:94:48:fb:
                    90:99:b7:16:17:0f:a7:9d:44:14:d7:e8:a9:20:3b:
                    21:ab:58:58:03:e7:5d:62:d1:ca:65:61:48:65:7a:
                    eb:e1:5d:41:7f:e7:da:82:e1:53:74:6e:98:2a:1f:
                    31:76:20:d3:a5:2a:9e:23:57:21:0b:80:22:84:21:
                    82:33:0f:48:9b:af:53:5a:99:4b:a5:0d:8a:8b:74:
                    80:3a:b9:a2:a2:27:bc:ed:eb:cf:39:92:7a:fe:50:
                    9c:36:0d:7e:08:46:35:aa:3a:6a:96:2e:aa:f3:22:
                    15:fa:b0:28:63:2f:e6:8a:04:56:15:7d:be:2b:8a:
                    7f:ef:b7:69:e3:18:1a:69:03:f1:e3:d2:b2:9f:c9:
                    b4:2f:36:ff:e1:dd:17:b9:e5:78:84:da:c8:25:04:
                    38:51
                Exponent: 65537 (0x10001)
        X509v3 extensions:
            X509v3 Key Usage: critical
                Digital Signature, Key Encipherment, Certificate Sign
            X509v3 Extended Key Usage: 
                TLS Web Client Authentication, TLS Web Server Authentication
            X509v3 Basic Constraints: critical
                CA:TRUE
            X509v3 Authority Key Identifier: 
                keyid:01:02:03

            Authority Information Access: 
                OCSP - URI:http://theca.net/ocsp
                CA Issuers - URI:http://theca.net/totallythecert.crt

            X509v3 Subject Alternative Name: 
                URI:irrelevantinfo//user@192.168.1.1, DNS:www.dns.com
            X509v3 Issuer Alternative Name: 
                DNS: 
            X509v3 Certificate Policies: 
                Policy: 2.23.140.1.2.2
                Policy: 1.2.3.4.5

            X509v3 Name Constraints: 
                Permitted:
                  email:good_email@gg.com
                  email:LulMail
                  DNS:permitted.com
                  DirName:C = US, O = UIUC, OU = ECE, L = Champaign, ST = IL, street = 601 Wright St, postalCode = 61820, CN = uiuc.net
                  IP:74.125.224.72/255.255.0.0
                Excluded:
                  email:bad_email@gg.com
                  email:LulMail
                  DNS:banned.com
                  DirName:C = US, O = Umich, OU = CS, L = Ann Arbor, ST = MI, street = 500 State St, postalCode = 48109, CN = umich.net
                  IP:192.168.1.1/255.255.0.0

    Signature Algorithm: sha256WithRSAEncryption
         a7:5c:34:38:96:a6:57:7b:71:d8:b5:1e:6c:88:b1:42:05:8d:
         b2:48:20:35:e3:cf:25:d5:a0:61:e8:36:75:88:06:ea:a9:2a:
         bf:81:75:a7:51:0f:53:13:d8:0c:2e:51:c0:97:52:8b:51:44:
         d7:2b:73:50:14:43:7f:4a:91:24:5f:b3:ab:0f:55:99:18:31:
         28:53:9c:8d:d5:67:4a:7d:7e:df:d8:67:d1:66:b5:46:78:00:
         50:74:9a:bc:b5:4c:7f:a3:60:78:b5:a9:c1:ee:c1:48:be:6c:
         6e:d2:be:9f:73:b5:de:1f:fe:14:2e:6c:d4:46:01:72:a6:54:
         a9:21:95:7d:fb:6c:a5:88:b9:18:9e:6c:bd:4f:dd:80:da:16:
         b0:5d:a9:49:01:60:fd:8a:82:d0:b4:8b:e0:05:a7:e3:f0:5e:
         2f:65:a8:b9:47:fe:6e:46:41:2e:b6:59:10:d3:83:1b:cf:f0:
         42:a3:d3:d4:88:40:c0:80:b7:43:56:c0:26:c1:a9:e5:a9:8a:
         72:39:f6:a9:a9:62:2d:dc:d7:af:2d:09:8b:28:55:9a:8b:9d:
         2c:9d:14:15:56:94:a1:25:c2:fd:c7:b4:8d:e9:37:b4:69:55:
         0c:a9:8b:a3:a8:5a:ba:11:90:24:20:91:18:14:78:c0:bd:65:
         14:fc:45:e5
-----BEGIN CERTIFICATE-----
MIIGPzCCBSmgAwIBAgIFBDFmk+0wCwYJKoZIhvcNAQELMFYxCzAJBgNVBAYTAlVT
MRYwFAYDVQQKEw1Nb3RoZXIgTmF0dXJlMRMwEQYDVQQLEwpFdmVyeXRoaW5nMRgw
FgYDVQQDEw9OYW1lIGNvbnN0cmFpbnQxADAiGA8yMDU1MTIwMTA2MDcwOFoYDzIw
NTYxMDA2MDQyNDIzWjCBmzELMAkGA1UEBhMCVVMxGDAWBgNVBAoTD0V4dHJlbWUg
RGlzY29yZDEOMAwGA1UECxMFQ2hhb3MxFDASBgNVBAcTC1RhbGxhaGFzc2VlMQsw
CQYDVQQIEwJGTDEcMBoGA1UECRMTMzIxMCBIb2xseSBNaWxsIFJ1bjEOMAwGA1UE
ERMFMzAwNjIxDzANBgNVBAMTBmdvdi51czEAMIIBIjANBgkqhkiG9w0BAQEFAAOC
AQ8AMIIBCgKCAQEAyCH8MKJmX2yNlJPyVaar8rGK4omlQC0G5JqfLapkg/W8mXZF
PbzmoQnD/A9QNT/c44Fae7HqZpb9pYwLGQH55yPRJ/LaRxHVTMLw1Vq9E+g1AbnY
4DzGyZAIqFw+SMdVR1h/KPeUSPuQmbcWFw+nnUQU1+ipIDshq1hYA+ddYtHKZWFI
ZXrr4V1Bf+faguFTdG6YKh8xdiDTpSqeI1chC4AihCGCMw9Im69TWplLpQ2Ki3SA
Ormioie87evPOZJ6/lCcNg1+CEY1qjpqli6q8yIV+rAoYy/migRWFX2+K4p/77dp
4xgaaQPx49Kyn8m0Lzb/4d0XueV4hNrIJQQ4UQIDAQABo4ICzDCCAsgwDgYDVR0P
AQH/BAQDAgCkMB0GA1UdJQQWMBQGCCsGAQUFBwMCBggrBgEFBQcDATAPBgNVHRMB
Af8EBTADAQH/MA4GA1UdIwQHMAWAAwECAzBiBggrBgEFBQcBAQRWMFQwIQYIKwYB
BQUHMAGGFWh0dHA6Ly90aGVjYS5uZXQvb2NzcDAvBggrBgEFBQcwAoYjaHR0cDov
L3RoZWNhLm5ldC90b3RhbGx5dGhlY2VydC5jcnQwOAYDVR0RBDEwL4YgaXJyZWxl
dmFudGluZm8vL3VzZXJAMTkyLjE2OC4xLjGCC3d3dy5kbnMuY29tMAwGA1UdEgQF
MAOCASAwGwYDVR0gBBQwEjAIBgZngQwBAgIwBgYEKgMEBTCCAasGA1UdHgSCAaIw
ggGeoIHOMBOBEWdvb2RfZW1haWxAZ2cuY29tMAmBB0x1bE1haWwwD4INcGVybWl0
dGVkLmNvbTCBjqSBizCBiDELMAkGA1UEBhMCVVMxDTALBgNVBAoTBFVJVUMxDDAK
BgNVBAsTA0VDRTESMBAGA1UEBxMJQ2hhbXBhaWduMQswCQYDVQQIEwJJTDEWMBQG
A1UECRMNNjAxIFdyaWdodCBTdDEOMAwGA1UEERMFNjE4MjAxETAPBgNVBAMTCHVp
dWMubmV0MQAwCocISn3gSP//AAChgcowEoEQYmFkX2VtYWlsQGdnLmNvbTAJgQdM
dWxNYWlsMAyCCmJhbm5lZC5jb20wgY6kgYswgYgxCzAJBgNVBAYTAlVTMQ4wDAYD
VQQKEwVVbWljaDELMAkGA1UECxMCQ1MxEjAQBgNVBAcTCUFubiBBcmJvcjELMAkG
A1UECBMCTUkxFTATBgNVBAkTDDUwMCBTdGF0ZSBTdDEOMAwGA1UEERMFNDgxMDkx
EjAQBgNVBAMTCXVtaWNoLm5ldDEAMAqHCMCoAQH//wAAMAsGCSqGSIb3DQEBCwOC
AQEAp1w0OJamV3tx2LUebIixQgWNskggNePPJdWgYeg2dYgG6qkqv4F1p1EPUxPY
DC5RwJdSi1FE1ytzUBRDf0qRJF+zqw9VmRgxKFOcjdVnSn1+39hn0Wa1RngAUHSa
vLVMf6NgeLWpwe7BSL5sbtK+n3O13h/+FC5s1EYBcqZUqSGVfftspYi5GJ5svU/d
gNoWsF2pSQFg/YqC0LSL4AWn4/BeL2WouUf+bkZBLrZZENODG8/wQqPT1IhAwIC3
Q1bAJsGp5amKcjn2qaliLdzXry0JiyhVmoudLJ0UFVaUoSXC/ce0jek3tGlVDKmL
o6hauhGQJCCRGBR4wL1lFPxF5Q==
-----END CERTIFICATE-----
