Certificate:
    Data:
        Version: 3 (0x2)
        Serial Number: 18008675309 (0x4316693ed)
    Signature Algorithm: sha256WithRSAEncryption
        Issuer: C = US, O = Mother Nature, OU = Everything, CN = Mother Nature
        Validity
            Not Before: Jun 30 16:44:42 2016 GMT
            Not After : Sep 11 16:44:42 2016 GMT
        Subject: C = US, ST = FL, L = Tallahassee, street = 3210 Holly Mill Run, postalCode = 30062, O = Extreme Discord, OU = Chaos, CN = gov.us
        Subject Public Key Info:
            Public Key Algorithm: rsaEncryption
                Public-Key: (2048 bit)
                Modulus:
                    00:f6:11:a5:52:1e:fc:3c:18:6e:00:01:32:cd:5d:
                    a2:7b:48:1a:bc:ff:23:cd:d5:46:48:a6:a8:67:28:
                    64:32:cc:cc:f3:75:7c:ee:4d:85:8f:4e:fc:af:1b:
                    a5:70:76:cb:61:c1:c9:d6:9b:8d:75:a7:78:d0:5a:
                    b6:eb:4a:fd:10:c2:c4:9f:cd:a3:dd:b6:1c:03:c0:
                    14:1f:d0:11:ed:93:f3:08:b5:37:63:ec:cd:7a:7d:
                    ae:7f:f1:9b:4a:c0:97:cb:fe:d0:af:96:14:7f:df:
                    35:5c:b3:f2:38:82:70:a8:0e:0b:bf:d8:01:f4:c0:
                    3e:9d:34:d8:e9:3f:42:e0:3c:3c:4b:02:ee:69:c9:
                    cf:9b:d6:9c:d8:53:db:15:e8:0a:70:42:d5:f8:23:
                    d6:92:1d:a7:58:c6:4c:2c:32:a0:0e:a5:98:b8:21:
                    a6:8e:11:4b:11:13:7a:25:62:91:8f:39:89:7a:18:
                    68:70:5c:a8:47:a7:21:80:6c:f2:85:e2:7e:d2:f8:
                    5b:b9:4e:7f:2b:69:5d:fb:fc:37:58:d8:46:66:0b:
                    e3:6b:ef:7e:54:96:2a:c7:ea:25:2d:69:ea:46:9d:
                    6d:51:33:1a:f5:76:d0:4b:87:2d:a3:3f:85:e6:78:
                    52:3f:9b:cf:e7:87:cb:42:b2:2f:ce:6f:4c:18:fa:
                    2e:f1
                Exponent: 65537 (0x10001)
        X509v3 extensions:
            X509v3 Key Usage: critical
                Digital Signature, Key Encipherment
            X509v3 Extended Key Usage: 
                TLS Web Client Authentication, TLS Web Server Authentication
            X509v3 Basic Constraints: critical
                CA:FALSE
            X509v3 Authority Key Identifier: 
                keyid:01:02:03

            Authority Information Access: 
                OCSP - URI:http://theca.net/ocsp
                CA Issuers - URI:http://theca.net/totallythecert.crt

            X509v3 Certificate Policies: 
                Policy: 1.3.6.1.5.5.7.13.1
                Policy: 2.23.140.1.2.2
                Policy: 1.3.6.1.5.5.7.13.1

            X509v3 Subject Key Identifier: 
                04:03:02:01
            X509v3 Subject Alternative Name: 
                DNS:*.gov.us, DNS:gov.us
            X509v3 Issuer Alternative Name: 
                DNS: , DNS:allthethings.net, DNS:theca.net
    Signature Algorithm: sha256WithRSAEncryption
         24:c1:b0:ca:e6:ca:10:47:e2:fb:8b:78:3c:aa:8f:55:21:b0:
         9e:c2:76:68:14:71:18:fd:6c:40:45:1b:1a:49:88:7b:0a:2e:
         26:4f:5e:38:7d:df:04:2c:23:50:f2:ae:43:3e:e8:7f:38:f5:
         13:aa:d8:02:d2:f7:e4:1f:45:31:ae:b1:b4:48:b9:b8:93:79:
         5a:de:4b:32:e6:b0:58:d1:16:64:b4:1c:ac:eb:02:3f:7f:56:
         9c:b1:10:26:a8:4d:f0:38:38:61:cd:70:b6:6e:32:d4:14:18:
         97:cc:80:82:c2:e6:38:72:e3:f4:14:93:7a:e0:08:07:ec:c4:
         c9:9b:0e:d0:51:c0:7a:fb:e8:8b:0d:c2:88:5b:70:28:65:04:
         1d:13:3a:a7:72:e6:95:3b:97:94:b3:99:57:1f:d5:01:b6:07:
         7b:f8:4e:9a:59:60:af:fc:fc:5a:ff:5d:ad:68:7a:7f:bc:a0:
         10:1c:dc:b2:de:cd:88:ae:96:05:17:01:c2:b8:65:38:3c:a3:
         59:8c:65:22:ae:2f:47:bf:db:a4:78:c4:61:a1:95:3d:b2:17:
         e0:be:6b:36:ff:29:ce:a8:e8:0d:27:c4:b3:84:de:3f:3a:98:
         c2:bf:d0:c2:a9:ab:79:7b:95:0a:58:1f:b4:7e:33:e1:a3:a9:
         67:f6:c4:86
-----BEGIN CERTIFICATE-----
MIIEpjCCA46gAwIBAgIFBDFmk+0wDQYJKoZIhvcNAQELBQAwUjELMAkGA1UEBhMC
VVMxFjAUBgNVBAoTDU1vdGhlciBOYXR1cmUxEzARBgNVBAsTCkV2ZXJ5dGhpbmcx
FjAUBgNVBAMTDU1vdGhlciBOYXR1cmUwHhcNMTYwNjMwMTY0NDQyWhcNMTYwOTEx
MTY0NDQyWjCBmTELMAkGA1UEBhMCVVMxCzAJBgNVBAgTAkZMMRQwEgYDVQQHEwtU
YWxsYWhhc3NlZTEcMBoGA1UECRMTMzIxMCBIb2xseSBNaWxsIFJ1bjEOMAwGA1UE
ERMFMzAwNjIxGDAWBgNVBAoTD0V4dHJlbWUgRGlzY29yZDEOMAwGA1UECxMFQ2hh
b3MxDzANBgNVBAMTBmdvdi51czCCASIwDQYJKoZIhvcNAQEBBQADggEPADCCAQoC
ggEBAPYRpVIe/DwYbgABMs1dontIGrz/I83VRkimqGcoZDLMzPN1fO5NhY9O/K8b
pXB2y2HBydabjXWneNBatutK/RDCxJ/No922HAPAFB/QEe2T8wi1N2PszXp9rn/x
m0rAl8v+0K+WFH/fNVyz8jiCcKgOC7/YAfTAPp002Ok/QuA8PEsC7mnJz5vWnNhT
2xXoCnBC1fgj1pIdp1jGTCwyoA6lmLghpo4RSxETeiVikY85iXoYaHBcqEenIYBs
8oXiftL4W7lOfytpXfv8N1jYRmYL42vvflSWKsfqJS1p6kadbVEzGvV20EuHLaM/
heZ4Uj+bz+eHy0KyL85vTBj6LvECAwEAAaOCATkwggE1MA4GA1UdDwEB/wQEAwIF
oDAdBgNVHSUEFjAUBggrBgEFBQcDAgYIKwYBBQUHAwEwDAYDVR0TAQH/BAIwADAO
BgNVHSMEBzAFgAMBAgMwYgYIKwYBBQUHAQEEVjBUMCEGCCsGAQUFBzABhhVodHRw
Oi8vdGhlY2EubmV0L29jc3AwLwYIKwYBBQUHMAKGI2h0dHA6Ly90aGVjYS5uZXQv
dG90YWxseXRoZWNlcnQuY3J0MCsGA1UdIAQkMCIwCgYIKwYBBQUHDQEwCAYGZ4EM
AQICMAoGCCsGAQUFBw0BMA0GA1UdDgQGBAQEAwIBMBsGA1UdEQQUMBKCCCouZ292
LnVzggZnb3YudXMwKQYDVR0SBCIwIIIBIIIQYWxsdGhldGhpbmdzLm5ldIIJdGhl
Y2EubmV0MA0GCSqGSIb3DQEBCwUAA4IBAQAkwbDK5soQR+L7i3g8qo9VIbCewnZo
FHEY/WxARRsaSYh7Ci4mT144fd8ELCNQ8q5DPuh/OPUTqtgC0vfkH0UxrrG0SLm4
k3la3ksy5rBY0RZktBys6wI/f1acsRAmqE3wODhhzXC2bjLUFBiXzICCwuY4cuP0
FJN64AgH7MTJmw7QUcB6++iLDcKIW3AoZQQdEzqncuaVO5eUs5lXH9UBtgd7+E6a
WWCv/Pxa/12taHp/vKAQHNyy3s2IrpYFFwHCuGU4PKNZjGUiri9Hv9ukeMRhoZU9
shfgvms2/ynOqOgNJ8SzhN4/OpjCv9DCqat5e5UKWB+0fjPho6ln9sSG
-----END CERTIFICATE-----
