Certificate:
    Data:
        Version: 3 (0x2)
        Serial Number: 18008675309 (0x4316693ed)
    Signature Algorithm: sha256WithRSAEncryption
        Issuer: C = US, O = Mother Nature, OU = Everything, CN = Name constraint
        Validity
            Not Before: Dec  1 06:07:08 2055 GMT
            Not After : Oct  6 04:43:21 2056 GMT
        Subject: C = US, O = Extreme Discord, OU = Chaos, L = Tallahassee, ST = FL, street = 3210 Holly Mill Run, postalCode = 30062, CN = gov.us
        Subject Public Key Info:
            Public Key Algorithm: rsaEncryption
                Public-Key: (2048 bit)
                Modulus:
                    00:c4:5d:21:d1:03:60:41:bd:ca:2a:c8:e0:a6:9b:
                    8c:c6:18:6b:0e:af:21:83:b8:04:58:cc:ff:36:9a:
                    8d:d5:d4:b0:45:4e:16:ce:c2:bd:d0:6b:ff:fe:f0:
                    29:ed:3b:2e:dc:72:7c:44:c9:01:85:c4:84:37:ec:
                    1d:2b:25:5e:c9:13:ba:68:2e:8a:d1:2b:09:d2:cb:
                    ac:d3:f1:f2:f0:22:0f:90:ce:0f:6c:b3:3c:de:2d:
                    76:33:b6:b9:44:38:c1:07:f4:93:b9:ec:c5:f6:eb:
                    67:1c:07:eb:41:2e:2b:38:ec:03:c9:63:a2:4b:f8:
                    3d:e4:93:64:98:44:b4:34:6c:34:40:47:59:8f:50:
                    f3:ca:d2:0e:33:f1:7d:61:ec:2a:6f:ee:58:97:fe:
                    49:42:1b:65:5d:50:0b:e6:39:dc:48:91:43:37:97:
                    03:61:15:87:83:d9:f5:4b:da:d8:f8:ea:aa:ae:e5:
                    04:bf:03:c8:9d:3d:19:e7:93:fc:83:7a:c9:ff:76:
                    6a:b5:0c:30:58:a1:bc:4a:67:ec:e1:ba:5a:a0:c8:
                    be:7e:2d:8c:af:d4:56:f0:b3:f3:86:e5:43:57:15:
                    3d:f4:93:69:5d:f5:54:36:0d:41:08:78:8e:32:69:
                    fc:fd:f0:8b:76:15:7c:34:a1:40:6e:0d:1c:eb:2b:
                    03:5b
                Exponent: 65537 (0x10001)
        X509v3 extensions:
            X509v3 Key Usage: critical
                Digital Signature, Key Encipherment, Certificate Sign
            X509v3 Extended Key Usage: 
                TLS Web Client Authentication, TLS Web Server Authentication
            X509v3 Basic Constraints: critical
                CA:TRUE
            X509v3 Authority Key Identifier: 
                keyid:01:02:03

            Authority Information Access: 
                OCSP - URI:http://theca.net/ocsp
                CA Issuers - URI:http://theca.net/totallythecert.crt

            X509v3 Subject Alternative Name: 
                URI:irrelevantinfo//user@192.168.1.1, DNS:www.dns.com
            X509v3 Issuer Alternative Name: 
                URI:www.google.com, DNS:*.gov.us, DNS:gov.us
            X509v3 Certificate Policies: 
                Policy: 2.23.140.1.2.2
                Policy: 1.2.3.4.5

            X509v3 Name Constraints: 
                Permitted:
                  email:good_email@gg.com
                  email:LulMail
                  DNS:permitted.com
                  DirName:C = US, O = UIUC, OU = ECE, L = Champaign, ST = IL, street = 601 Wright St, postalCode = 61820, CN = uiuc.net
                  IP:74.125.224.72/255.255.0.0
                Excluded:
                  email:bad_email@gg.com
                  email:LulMail
                  DNS:banned.com
                  DirName:C = US, O = Umich, OU = CS, L = Ann Arbor, ST = MI, street = 500 State St, postalCode = 48109, CN = umich.net
                  IP:192.168.1.1/255.255.0.0

    Signature Algorithm: sha256WithRSAEncryption
         3d:06:82:89:42:3a:d5:9e:42:a7:de:44:b5:4c:30:85:b6:56:
         5f:42:10:f5:21:bb:5e:29:a0:9e:54:40:77:c8:84:ef:44:c9:
         00:f0:41:7f:40:fc:56:ea:20:90:71:e3:3d:b6:22:dc:83:32:
         f8:52:4f:85:b6:95:e9:a5:0d:a5:2f:fa:99:c6:71:0f:93:b0:
         ef:76:97:82:db:c0:84:4b:21:40:b3:a2:72:74:e1:4b:96:0b:
         f7:92:c6:a7:2f:6b:be:77:5d:de:26:15:06:ae:ba:e7:eb:6b:
         17:9d:8d:e6:c4:94:22:de:1b:ab:5e:4f:72:17:75:b9:fb:51:
         5c:e0:be:da:56:bb:2b:c7:5d:d4:29:f9:f7:bc:55:ee:e4:a3:
         0a:a8:a2:f0:94:eb:44:5d:ce:58:ab:83:0f:3d:e7:99:e2:b7:
         b5:84:3b:51:3a:72:6b:79:f5:66:d0:00:34:ba:e2:7e:49:49:
         0b:ab:f5:0f:d6:2e:f7:fd:89:5c:91:a8:61:a7:69:58:a9:39:
         be:ec:6a:cd:6b:6e:82:1e:82:b5:a9:4a:fa:48:9e:c5:b7:9b:
         d5:00:3c:04:47:f5:c6:bd:b5:12:f0:2f:a3:24:25:c0:a8:d9:
         e8:76:59:a5:0f:58:0f:10:24:38:6a:5b:d7:c8:48:1d:ae:f9:
         da:3d:9f:3b
-----BEGIN CERTIFICATE-----
MIIGXjCCBUigAwIBAgIFBDFmk+0wCwYJKoZIhvcNAQELMFYxCzAJBgNVBAYTAlVT
MRYwFAYDVQQKEw1Nb3RoZXIgTmF0dXJlMRMwEQYDVQQLEwpFdmVyeXRoaW5nMRgw
FgYDVQQDEw9OYW1lIGNvbnN0cmFpbnQxADAiGA8yMDU1MTIwMTA2MDcwOFoYDzIw
NTYxMDA2MDQ0MzIxWjCBmzELMAkGA1UEBhMCVVMxGDAWBgNVBAoTD0V4dHJlbWUg
RGlzY29yZDEOMAwGA1UECxMFQ2hhb3MxFDASBgNVBAcTC1RhbGxhaGFzc2VlMQsw
CQYDVQQIEwJGTDEcMBoGA1UECRMTMzIxMCBIb2xseSBNaWxsIFJ1bjEOMAwGA1UE
ERMFMzAwNjIxDzANBgNVBAMTBmdvdi51czEAMIIBIjANBgkqhkiG9w0BAQEFAAOC
AQ8AMIIBCgKCAQEAxF0h0QNgQb3KKsjgppuMxhhrDq8hg7gEWMz/NpqN1dSwRU4W
zsK90Gv//vAp7Tsu3HJ8RMkBhcSEN+wdKyVeyRO6aC6K0SsJ0sus0/Hy8CIPkM4P
bLM83i12M7a5RDjBB/STuezF9utnHAfrQS4rOOwDyWOiS/g95JNkmES0NGw0QEdZ
j1DzytIOM/F9Yewqb+5Yl/5JQhtlXVAL5jncSJFDN5cDYRWHg9n1S9rY+OqqruUE
vwPInT0Z55P8g3rJ/3ZqtQwwWKG8Smfs4bpaoMi+fi2Mr9RW8LPzhuVDVxU99JNp
XfVUNg1BCHiOMmn8/fCLdhV8NKFAbg0c6ysDWwIDAQABo4IC6zCCAucwDgYDVR0P
AQH/BAQDAgCkMB0GA1UdJQQWMBQGCCsGAQUFBwMCBggrBgEFBQcDATAPBgNVHRMB
Af8EBTADAQH/MA4GA1UdIwQHMAWAAwECAzBiBggrBgEFBQcBAQRWMFQwIQYIKwYB
BQUHMAGGFWh0dHA6Ly90aGVjYS5uZXQvb2NzcDAvBggrBgEFBQcwAoYjaHR0cDov
L3RoZWNhLm5ldC90b3RhbGx5dGhlY2VydC5jcnQwOAYDVR0RBDEwL4YgaXJyZWxl
dmFudGluZm8vL3VzZXJAMTkyLjE2OC4xLjGCC3d3dy5kbnMuY29tMCsGA1UdEgQk
MCKGDnd3dy5nb29nbGUuY29tgggqLmdvdi51c4IGZ292LnVzMBsGA1UdIAQUMBIw
CAYGZ4EMAQICMAYGBCoDBAUwggGrBgNVHR4EggGiMIIBnqCBzjATgRFnb29kX2Vt
YWlsQGdnLmNvbTAJgQdMdWxNYWlsMA+CDXBlcm1pdHRlZC5jb20wgY6kgYswgYgx
CzAJBgNVBAYTAlVTMQ0wCwYDVQQKEwRVSVVDMQwwCgYDVQQLEwNFQ0UxEjAQBgNV
BAcTCUNoYW1wYWlnbjELMAkGA1UECBMCSUwxFjAUBgNVBAkTDTYwMSBXcmlnaHQg
U3QxDjAMBgNVBBETBTYxODIwMREwDwYDVQQDEwh1aXVjLm5ldDEAMAqHCEp94Ej/
/wAAoYHKMBKBEGJhZF9lbWFpbEBnZy5jb20wCYEHTHVsTWFpbDAMggpiYW5uZWQu
Y29tMIGOpIGLMIGIMQswCQYDVQQGEwJVUzEOMAwGA1UEChMFVW1pY2gxCzAJBgNV
BAsTAkNTMRIwEAYDVQQHEwlBbm4gQXJib3IxCzAJBgNVBAgTAk1JMRUwEwYDVQQJ
Eww1MDAgU3RhdGUgU3QxDjAMBgNVBBETBTQ4MTA5MRIwEAYDVQQDEwl1bWljaC5u
ZXQxADAKhwjAqAEB//8AADALBgkqhkiG9w0BAQsDggEBAD0GgolCOtWeQqfeRLVM
MIW2Vl9CEPUhu14poJ5UQHfIhO9EyQDwQX9A/FbqIJBx4z22ItyDMvhST4W2leml
DaUv+pnGcQ+TsO92l4LbwIRLIUCzonJ04UuWC/eSxqcva753Xd4mFQauuufraxed
jebElCLeG6teT3IXdbn7UVzgvtpWuyvHXdQp+fe8Ve7kowqoovCU60Rdzlirgw89
55nit7WEO1E6cmt59WbQADS64n5JSQur9Q/WLvf9iVyRqGGnaVipOb7sas1rboIe
grWpSvpInsW3m9UAPARH9ca9tRLwL6MkJcCo2eh2WaUPWA8QJDhqW9fISB2u+do9
nzs=
-----END CERTIFICATE-----
