Certificate:
    Data:
        Version: 3 (0x2)
        Serial Number:
            70:34:4b:81:54:e6:f8:c2:0c:f0:f9:c0:2e:8e:ba:7b:78:2e:bd:57
        Signature Algorithm: sha256WithRSAEncryption
        Issuer: CN = Bar
        Validity
            Not Before: Oct  1 00:00:00 2021 GMT
            Not After : Oct  1 00:00:00 2022 GMT
        Subject: CN = Foo
        Subject Public Key Info:
            Public Key Algorithm: rsaEncryption
                RSA Public-Key: (512 bit)
                Modulus:
                    00:90:4d:1f:99:6f:d0:42:63:26:db:1e:b5:ba:55:
                    dd:e9:42:ec:d8:26:ed:fa:e8:21:8f:a1:64:5f:ee:
                    14:e8:64:12:7e:b2:7f:57:a0:d6:1c:fb:d5:02:ff:
                    89:7d:50:2b:a7:ca:7a:23:0c:56:42:33:38:46:69:
                    ae:f6:63:c4:2f
                Exponent: 65537 (0x10001)
        X509v3 extensions:
            X509v3 Subject Alternative Name: 
                DNS:xN--12311613412431243.com
    Signature Algorithm: sha256WithRSAEncryption
         1b:1b:2c:9b:92:48:11:65:ba:d5:a9:ce:40:1b:11:49:a6:60:
         5d:05:7d:04:5b:f4:a8:cf:38:7c:b8:67:68:6c:36:b8:ae:a0:
         7f:89:f1:9d:b4:cc:64:e8:a9:1f:9b:6c:2b:d1:e4:4b:97:1b:
         e3:9d:b0:5c:40:8a:c1:f7:e8:c4
-----BEGIN CERTIFICATE-----
MIIBRzCB8qADAgECAhRwNEuBVOb4wgzw+cAujrp7eC69VzANBgkqhkiG9w0BAQsF
ADAOMQwwCgYDVQQDDANCYXIwHhcNMjExMDAxMDAwMDAwWhcNMjIxMDAxMDAwMDAw
WjAOMQwwCgYDVQQDDANGb28wXDANBgkqhkiG9w0BAQEFAANLADBIAkEAkE0fmW/Q
QmMm2x61ulXd6ULs2Cbt+ughj6FkX+4U6GQSfrJ/V6DWHPvVAv+JfVArp8p6IwxW
QjM4Rmmu9mPELwIDAQABoygwJjAkBgNVHREEHTAbghl4Ti0tMTIzMTE2MTM0MTI0
MzEyNDMuY29tMA0GCSqGSIb3DQEBCwUAA0EAGxssm5JIEWW61anOQBsRSaZgXQV9
BFv0qM84fLhnaGw2uK6gf4nxnbTMZOipH5tsK9HkS5cb452wXECKwffoxA==
-----END CERTIFICATE-----
