Certificate:
    Data:
        Version: 3 (0x2)
        Serial Number: 3 (0x3)
        Signature Algorithm: ecdsa-with-SHA256
        Issuer: 
        Validity
            Not Before: Mar  2 15:17:12 2018 GMT
            Not After : Mar  2 15:17:12 2020 GMT
        Subject: CN = of3wk4tupf2ws33q.onion
        Subject Public Key Info:
            Public Key Algorithm: rsaEncryption
                RSA Public-Key: (1024 bit)
                Modulus:
                    00:dc:c6:fd:da:ed:19:03:e5:6e:36:13:c6:39:bf:
                    85:5a:d8:c0:34:d9:67:36:32:20:78:03:01:73:6b:
                    e6:40:da:25:8e:ae:2c:29:81:7a:77:d8:22:16:9c:
                    a0:8c:47:e9:67:45:5c:95:42:d1:8c:1c:cc:87:31:
                    7c:43:09:75:f8:9e:96:dc:e7:5e:44:29:4c:6d:28:
                    5c:96:75:aa:b0:98:07:a9:53:9f:dd:d1:a4:68:af:
                    ba:08:a2:23:f1:0d:c5:1f:c0:09:62:5a:9b:c6:ef:
                    43:b0:65:6f:8c:2a:75:e6:66:61:93:2a:29:04:a3:
                    c3:9d:f8:63:d1:a8:8e:3f:1f
                Exponent: 65537 (0x10001)
        X509v3 extensions:
            X509v3 Key Usage: critical
                Digital Signature, CRL Sign
            X509v3 Subject Alternative Name: 
                DNS:zmap.io, DNS:OF3WK4TUPF2WS33Q.onion
            X509v3 Certificate Policies: 
                Policy: 1.3.6.1.4.1.36305.2

    Signature Algorithm: ecdsa-with-SHA256
         30:44:02:20:20:6a:70:74:10:df:33:20:2b:b4:45:d7:92:d1:
         24:e2:24:82:8f:48:2c:da:29:32:3d:fc:69:10:55:c5:62:01:
         02:20:27:2a:91:8f:05:ab:bd:b9:32:b7:fd:df:de:cf:a2:35:
         28:2a:80:b9:6c:35:74:a6:77:8b:69:56:60:8f:82:ab
-----BEGIN CERTIFICATE-----
MIIBrDCCAVOgAwIBAgIBAzAKBggqhkjOPQQDAjAAMB4XDTE4MDMwMjE1MTcxMloX
DTIwMDMwMjE1MTcxMlowITEfMB0GA1UEAxMWb2Yzd2s0dHVwZjJ3czMzcS5vbmlv
bjCBnzANBgkqhkiG9w0BAQEFAAOBjQAwgYkCgYEA3Mb92u0ZA+VuNhPGOb+FWtjA
NNlnNjIgeAMBc2vmQNoljq4sKYF6d9giFpygjEfpZ0VclULRjBzMhzF8Qwl1+J6W
3OdeRClMbShclnWqsJgHqVOf3dGkaK+6CKIj8Q3FH8AJYlqbxu9DsGVvjCp15mZh
kyopBKPDnfhj0aiOPx8CAwEAAaNWMFQwDgYDVR0PAQH/BAQDAgCCMCoGA1UdEQQj
MCGCB3ptYXAuaW+CFk9GM1dLNFRVUEYyV1MzM1Eub25pb24wFgYDVR0gBA8wDTAL
BgkrBgEEAYKbUQIwCgYIKoZIzj0EAwIDRwAwRAIgIGpwdBDfMyArtEXXktEk4iSC
j0gs2ikyPfxpEFXFYgECICcqkY8Fq725Mrf9397PojUoKoC5bDV0pneLaVZgj4Kr
-----END CERTIFICATE-----

