Certificate:
    Data:
        Version: 3 (0x2)
        Serial Number:
            21:0b:e7:ae:9b:c6:80:44:d5:24:df:7a:d8:ef:fc:28
        Signature Algorithm: sha256WithRSAEncryption
        Issuer: CN=Test CA 2, OU=CA, O=Example Co, C=US
        Validity
            Not Before: Aug  3 17:11:37 2025 GMT
            Not After : Aug  3 17:11:37 2026 GMT
        Subject: C=US, ST=Utah, L=Lehi, GN=Person, CN=ivserverauth.example.com
        Subject Public Key Info:
            Public Key Algorithm: rsaEncryption
                Public-Key: (4096 bit)
                Modulus:
                    00:c0:de:7a:61:8b:26:38:47:34:3e:cc:11:5b:16:
                    95:03:4a:25:b5:16:5d:fd:ed:6e:67:22:19:6e:6b:
                    a2:bb:79:5a:e7:71:c4:34:b1:7d:08:8a:b6:52:ba:
                    3b:2e:76:8c:6f:14:2b:38:79:37:72:fc:63:9a:9b:
                    f6:9a:fc:bd:c4:32:21:e2:21:1b:d4:3a:46:b0:ee:
                    9d:f8:1a:70:5a:7d:d3:7c:db:d5:49:a5:55:06:af:
                    8a:46:99:72:98:84:7c:d7:18:a4:d5:04:b0:2a:64:
                    ec:77:bb:b6:6c:58:54:47:51:d6:fa:d1:06:3e:94:
                    31:3f:6a:52:68:b3:4f:2f:58:30:c4:ef:f9:7f:90:
                    70:89:90:b5:90:f5:a7:bc:e0:2b:86:a1:ab:27:47:
                    70:79:7b:85:1d:08:e0:ff:4d:ba:ad:ed:02:ea:56:
                    b7:13:9d:68:23:ac:d7:de:ea:ac:e6:67:e0:96:fe:
                    c3:ca:27:15:8e:22:02:7b:a0:c1:99:84:91:93:72:
                    7d:0b:4c:e4:ce:43:0f:13:19:6a:04:a2:43:75:2f:
                    5d:a5:1a:70:a4:2e:80:bc:65:15:5a:44:c0:48:62:
                    38:c1:ae:82:c2:9b:5b:ff:dc:88:22:5e:70:e9:14:
                    f5:6f:bf:fe:56:19:e2:07:10:d9:17:fa:89:db:02:
                    60:98:3f:9c:fe:0c:78:da:73:f3:71:61:b0:38:6d:
                    67:ac:99:d1:ba:26:e7:cc:56:cb:e7:66:92:ab:ef:
                    97:16:db:2c:1e:d4:2f:01:92:74:34:41:8a:38:3d:
                    9a:f9:b3:b4:81:98:2a:52:fc:5d:9d:bb:01:da:c3:
                    8c:0c:c8:87:db:30:e7:07:34:af:c8:d5:08:4d:4c:
                    29:b3:c4:39:bb:85:5f:a8:72:52:37:f7:81:5e:78:
                    6c:2e:77:f2:6c:1d:96:88:65:47:2e:a5:9d:d4:18:
                    27:60:4f:f4:6b:ae:58:eb:2c:2d:a8:e4:a8:dd:0f:
                    8d:a5:92:d5:be:c6:36:cc:21:ef:1b:7e:37:0a:ec:
                    0b:eb:2b:eb:e5:cd:53:23:57:3e:d1:de:96:5b:d1:
                    0a:30:eb:ff:3e:ab:b8:2f:3d:2e:01:d1:dd:aa:4d:
                    87:dd:b1:4a:b5:14:9d:d6:9b:2f:6c:0a:57:31:67:
                    1f:81:8f:0a:f2:5e:08:55:e3:38:1b:b0:06:ad:c4:
                    9d:6b:23:75:96:cb:26:cc:54:ff:0b:f6:89:2c:32:
                    de:40:5f:cb:57:bd:48:09:f0:8e:8c:9d:85:db:cf:
                    4c:99:3a:b7:7b:73:61:4c:6e:65:6e:07:2b:b8:ef:
                    d9:92:20:f7:08:20:fd:f0:03:97:32:14:8d:8e:3b:
                    21:f2:b9
                Exponent: 65537 (0x10001)
        X509v3 extensions:
            X509v3 Key Usage: critical
                Digital Signature
            X509v3 Extended Key Usage: 
                TLS Web Server Authentication
            X509v3 Authority Key Identifier: 
                01:02:03:04:06
            Authority Information Access: 
                OCSP - URI:http://ocsp.example.com
                CA Issuers - URI:http://example.com/ca1.crt
            X509v3 Subject Alternative Name: 
                DNS:ivserverauth.example.com
            X509v3 Certificate Policies: 
                Policy: 2.23.140.1.2.3
            X509v3 CRL Distribution Points: 
                Full Name:
                  URI:http://crl1.example.com/ca1.crl

                Full Name:
                  URI:http://crl2.example.com/ca1.crl

    Signature Algorithm: sha256WithRSAEncryption
    Signature Value:
        2d:4e:78:b8:9b:5b:70:a5:de:76:e1:6a:a4:3d:ee:bd:c9:3b:
        be:a5:e4:08:6b:99:c5:c3:8e:7c:0d:ef:27:4c:4a:b7:1d:98:
        8e:1d:2e:e5:31:12:94:42:31:3b:31:a6:27:6a:86:1b:7e:17:
        34:ab:42:ec:e3:92:94:21:86:b5:00:74:76:5a:46:f9:12:88:
        36:79:ea:e6:ce:16:59:b4:72:f1:40:57:0c:a3:4a:bd:e9:cc:
        87:cf:98:ad:cb:3c:35:26:f8:13:56:98:6d:fd:e0:02:30:26:
        4a:ef:5f:ae:09:a7:e1:c9:59:0a:1d:c6:6e:e9:47:b0:f4:f9:
        05:fb:38:73:46:00:ff:71:25:8f:83:51:80:3e:67:3e:db:16:
        67:19:70:2e:83:34:fa:f6:36:38:d8:91:15:e9:7e:6a:82:99:
        e2:73:e2:bc:4e:47:68:63:ae:84:b2:a6:ac:50:ea:97:6d:10:
        2d:03:16:14:9c:c5:29:2f:84:49:74:0d:40:9f:12:74:85:37:
        8b:d3:72:41:2f:4f:93:57:89:1e:b7:59:fc:0b:7b:58:52:aa:
        51:87:4a:e4:de:fe:be:e2:fa:aa:8e:53:aa:44:c3:17:0a:dc:
        71:1a:b5:9a:f7:1b:84:9b:6d:a3:4d:f9:ed:13:45:99:dd:b3:
        29:96:bf:8f:ec:4b:70:29:42:c9:28:6f:4e:8d:c7:0e:3e:cf:
        7d:38:32:99:73:47:f7:b5:87:b9:09:ba:13:2e:62:b2:82:25:
        fb:97:a8:23:92:8b:d0:28:34:5f:26:12:fc:fb:85:b2:70:cb:
        89:32:4a:8f:60:89:8d:54:6c:6a:36:0c:7f:a8:ba:bd:9e:2e:
        66:d9:29:ec:8b:2e:60:3b:17:17:c0:8b:21:42:78:d8:3e:ac:
        fc:14:26:ee:ef:67:7d:be:b4:25:ff:27:cd:2f:62:e2:88:2d:
        34:54:47:de:d8:7f:3e:b5:5b:18:53:a9:17:16:2d:d5:f5:fe:
        42:41:4e:e5:75:dd
-----BEGIN CERTIFICATE-----
MIIF2TCCBEGgAwIBAgIQIQvnrpvGgETVJN962O/8KDANBgkqhkiG9w0BAQsFADBD
MRIwEAYDVQQDEwlUZXN0IENBIDIxCzAJBgNVBAsTAkNBMRMwEQYDVQQKEwpFeGFt
cGxlIENvMQswCQYDVQQGEwJVUzAeFw0yNTA4MDMxNzExMzdaFw0yNjA4MDMxNzEx
MzdaMF8xCzAJBgNVBAYTAlVTMQ0wCwYDVQQIEwRVdGFoMQ0wCwYDVQQHEwRMZWhp
MQ8wDQYDVQQqEwZQZXJzb24xITAfBgNVBAMTGGl2c2VydmVyYXV0aC5leGFtcGxl
LmNvbTCCAiIwDQYJKoZIhvcNAQEBBQADggIPADCCAgoCggIBAMDeemGLJjhHND7M
EVsWlQNKJbUWXf3tbmciGW5rort5WudxxDSxfQiKtlK6Oy52jG8UKzh5N3L8Y5qb
9pr8vcQyIeIhG9Q6RrDunfgacFp903zb1UmlVQavikaZcpiEfNcYpNUEsCpk7He7
tmxYVEdR1vrRBj6UMT9qUmizTy9YMMTv+X+QcImQtZD1p7zgK4ahqydHcHl7hR0I
4P9Nuq3tAupWtxOdaCOs197qrOZn4Jb+w8onFY4iAnugwZmEkZNyfQtM5M5DDxMZ
agSiQ3UvXaUacKQugLxlFVpEwEhiOMGugsKbW//ciCJecOkU9W+//lYZ4gcQ2Rf6
idsCYJg/nP4MeNpz83FhsDhtZ6yZ0bom58xWy+dmkqvvlxbbLB7ULwGSdDRBijg9
mvmztIGYKlL8XZ27AdrDjAzIh9sw5wc0r8jVCE1MKbPEObuFX6hyUjf3gV54bC53
8mwdlohlRy6lndQYJ2BP9GuuWOssLajkqN0PjaWS1b7GNswh7xt+NwrsC+sr6+XN
UyNXPtHellvRCjDr/z6ruC89LgHR3apNh92xSrUUndabL2wKVzFnH4GPCvJeCFXj
OBuwBq3EnWsjdZbLJsxU/wv2iSwy3kBfy1e9SAnwjoydhdvPTJk6t3tzYUxuZW4H
K7jv2ZIg9wgg/fADlzIUjY47IfK5AgMBAAGjggErMIIBJzAOBgNVHQ8BAf8EBAMC
B4AwEwYDVR0lBAwwCgYIKwYBBQUHAwEwEAYDVR0jBAkwB4AFAQIDBAYwWwYIKwYB
BQUHAQEETzBNMCMGCCsGAQUFBzABhhdodHRwOi8vb2NzcC5leGFtcGxlLmNvbTAm
BggrBgEFBQcwAoYaaHR0cDovL2V4YW1wbGUuY29tL2NhMS5jcnQwIwYDVR0RBBww
GoIYaXZzZXJ2ZXJhdXRoLmV4YW1wbGUuY29tMBMGA1UdIAQMMAowCAYGZ4EMAQID
MFcGA1UdHwRQME4wJaAjoCGGH2h0dHA6Ly9jcmwxLmV4YW1wbGUuY29tL2NhMS5j
cmwwJaAjoCGGH2h0dHA6Ly9jcmwyLmV4YW1wbGUuY29tL2NhMS5jcmwwDQYJKoZI
hvcNAQELBQADggGBAC1OeLibW3Cl3nbhaqQ97r3JO76l5AhrmcXDjnwN7ydMSrcd
mI4dLuUxEpRCMTsxpidqhht+FzSrQuzjkpQhhrUAdHZaRvkSiDZ56ubOFlm0cvFA
VwyjSr3pzIfPmK3LPDUm+BNWmG394AIwJkrvX64Jp+HJWQodxm7pR7D0+QX7OHNG
AP9xJY+DUYA+Zz7bFmcZcC6DNPr2NjjYkRXpfmqCmeJz4rxOR2hjroSypqxQ6pdt
EC0DFhScxSkvhEl0DUCfEnSFN4vTckEvT5NXiR63WfwLe1hSqlGHSuTe/r7i+qqO
U6pEwxcK3HEatZr3G4SbbaNN+e0TRZndsymWv4/sS3ApQskob06Nxw4+z304Mplz
R/e1h7kJuhMuYrKCJfuXqCOSi9AoNF8mEvz7hbJwy4kySo9giY1UbGo2DH+our2e
LmbZKeyLLmA7FxfAiyFCeNg+rPwUJu7vZ32+tCX/J80vYuKILTRUR97Yfz61WxhT
qRcWLdX1/kJBTuV13Q==
-----END CERTIFICATE-----
