Certificate:
    Data:
        Version: 3 (0x2)
        Serial Number:
            4a:b3:9b:d9:0b:11:d3:87:f6:21:c2:37:cc:f1:9f:93
        Signature Algorithm: sha256WithRSAEncryption
        Issuer: CN=Test CA 2, OU=CA, O=Example Co, C=US
        Validity
            Not Before: Aug  3 17:17:07 2025 GMT
            Not After : Aug  3 17:17:07 2026 GMT
        Subject: C=US, ST=Utah, L=Lehi, O=TestOrg, CN=ivserverauth.example.com
        Subject Public Key Info:
            Public Key Algorithm: rsaEncryption
                Public-Key: (4096 bit)
                Modulus:
                    00:bb:5c:a9:ee:47:9c:ff:bb:a5:fb:70:6c:a6:b1:
                    b2:78:64:e3:cc:11:41:06:63:d4:ee:24:f9:cd:9e:
                    0e:55:ab:67:ff:b9:69:73:47:1d:ff:ef:28:64:88:
                    aa:05:dd:45:ed:ce:3b:df:56:47:cc:0b:a5:a7:ec:
                    b7:18:62:de:32:1f:4c:cc:65:14:27:80:96:ca:70:
                    27:c9:f8:e4:fe:26:78:3d:9a:44:1b:94:75:28:ad:
                    88:4d:65:0e:68:2d:f9:6d:8f:6f:ff:fd:f7:d5:be:
                    86:2f:f9:97:fe:d4:ec:5c:4a:ae:a4:3e:ed:2c:93:
                    e1:6a:d1:d0:28:86:21:a0:cc:c0:54:ae:f0:2f:00:
                    96:2b:5e:cf:79:48:23:5e:ed:09:5d:13:39:0c:07:
                    2d:bb:4a:10:96:38:0c:ef:4a:0a:93:62:34:ea:86:
                    6f:97:b7:da:de:06:ff:23:a5:6a:84:ea:82:bc:79:
                    54:63:81:2e:0d:2a:5e:f9:73:99:e3:e5:31:64:09:
                    0e:18:4a:27:3f:59:4a:cd:1d:62:49:88:8e:d4:43:
                    d3:48:9d:d1:dc:9f:62:93:93:7f:80:d7:cd:41:f4:
                    11:16:5a:ef:91:c7:7c:39:00:06:73:8b:67:e8:5b:
                    44:54:8c:53:6c:20:af:37:ca:6f:90:09:d5:28:4c:
                    cc:26:74:dd:42:f4:1f:c9:ce:8a:89:2d:df:ce:47:
                    74:43:67:cc:92:04:27:ec:9f:ca:cc:e4:d4:43:b3:
                    6c:0e:9d:d3:8b:17:88:e4:93:b8:88:71:12:4b:e2:
                    61:2f:c8:9b:68:48:f1:c7:93:c0:6a:9c:a5:02:9e:
                    d2:51:5d:a5:be:74:05:3f:01:e0:66:eb:6c:0d:62:
                    a8:54:96:56:a8:4e:cd:e4:ff:cc:93:0f:f2:cb:0a:
                    48:69:ee:5f:f4:88:66:4d:0c:ed:d0:4b:d3:05:f6:
                    5e:7f:9a:5f:f6:0d:c1:d9:70:39:da:24:e2:65:c6:
                    06:75:08:19:f8:ee:c8:7b:12:b6:55:41:8c:e2:b6:
                    9e:57:aa:50:f3:9e:4a:6f:39:07:24:ef:bd:ee:69:
                    8c:ed:bf:94:8e:e9:72:46:b4:7f:9d:0f:cc:d3:0c:
                    0b:f6:18:44:1d:c8:ad:54:22:2e:0d:7a:ff:b7:8c:
                    5d:ee:a5:b5:ae:13:06:a7:d7:a5:87:58:2b:e0:eb:
                    cc:9c:be:3a:c4:e6:e2:60:e2:24:5e:75:6b:6d:34:
                    c5:b4:55:0e:c9:de:9d:84:c6:0f:25:24:ba:a8:4c:
                    61:d3:bc:e3:95:cb:98:32:9e:41:48:2b:65:91:b3:
                    eb:0c:de:92:fb:46:5d:ff:d5:79:04:75:0c:c5:2b:
                    93:c1:8d
                Exponent: 65537 (0x10001)
        X509v3 extensions:
            X509v3 Key Usage: critical
                Digital Signature
            X509v3 Extended Key Usage: 
                TLS Web Server Authentication
            X509v3 Authority Key Identifier: 
                01:02:03:04:06
            Authority Information Access: 
                OCSP - URI:http://ocsp.example.com
                CA Issuers - URI:http://example.com/ca1.crt
            X509v3 Subject Alternative Name: 
                DNS:ivserverauth.example.com
            X509v3 Certificate Policies: 
                Policy: 2.23.140.1.2.3
            X509v3 CRL Distribution Points: 
                Full Name:
                  URI:http://crl1.example.com/ca1.crl

                Full Name:
                  URI:http://crl2.example.com/ca1.crl

    Signature Algorithm: sha256WithRSAEncryption
    Signature Value:
        66:7f:b0:6d:5d:1e:24:a8:fc:e3:9c:ea:4e:5a:fa:31:45:59:
        24:54:c5:2a:4e:91:a4:3d:c1:a2:65:30:0e:2a:57:0f:a2:2b:
        55:cc:37:03:48:c4:05:c2:d4:df:05:a4:31:83:21:6c:1c:4f:
        e7:56:a4:c2:e3:61:b4:ee:70:df:05:de:fb:94:f5:4a:1a:62:
        e6:7d:a0:11:71:f8:20:bc:59:ab:26:78:c0:85:64:0c:5d:a9:
        4e:34:6d:44:13:47:99:5e:22:49:3c:14:bc:0a:96:06:50:e4:
        23:54:10:e2:93:46:52:ce:69:52:a8:bb:fa:6a:64:6a:da:20:
        10:05:89:45:31:13:f1:15:9a:c8:3a:4e:c8:54:a1:5d:6d:2d:
        cb:fc:8a:6f:f3:da:82:78:32:41:7a:cd:be:10:56:ee:21:31:
        6a:55:c3:23:db:2d:b5:05:95:80:d3:3e:21:e0:56:82:db:3d:
        54:29:c1:17:70:97:44:8f:54:2b:f7:33:8b:d3:3a:7e:cc:fb:
        30:ad:e5:b3:74:0d:1c:85:b7:41:b3:e1:0c:a3:b9:b5:ad:09:
        58:6d:76:5b:76:4e:ad:72:1f:58:ca:53:ff:ec:10:dc:e6:99:
        7f:67:b7:fa:15:e2:60:a5:73:24:94:dd:2d:b9:8c:8a:69:5d:
        ce:fd:31:50:a5:30:a8:94:44:52:95:8e:1a:0b:22:99:81:bc:
        ef:a7:7a:12:11:d0:11:a4:7d:cf:73:89:02:39:0d:68:8e:39:
        fd:55:97:14:8f:25:38:c4:32:7c:e3:9c:4b:f7:ff:8e:33:a6:
        f0:11:62:0d:da:d3:fe:b0:d2:b1:5d:8b:bf:e8:58:4d:6d:8e:
        a7:f8:3e:54:4c:b3:55:9e:b8:4c:34:bd:7b:e4:01:8c:2a:c9:
        8b:4f:38:5f:4d:55:dc:0d:cc:49:f6:01:32:95:69:f5:e2:9a:
        e3:da:d7:bd:ee:3b:60:0b:2d:41:d9:a8:6e:74:16:73:9d:52:
        0a:f3:50:be:08:86
-----BEGIN CERTIFICATE-----
MIIF2jCCBEKgAwIBAgIQSrOb2QsR04f2IcI3zPGfkzANBgkqhkiG9w0BAQsFADBD
MRIwEAYDVQQDEwlUZXN0IENBIDIxCzAJBgNVBAsTAkNBMRMwEQYDVQQKEwpFeGFt
cGxlIENvMQswCQYDVQQGEwJVUzAeFw0yNTA4MDMxNzE3MDdaFw0yNjA4MDMxNzE3
MDdaMGAxCzAJBgNVBAYTAlVTMQ0wCwYDVQQIEwRVdGFoMQ0wCwYDVQQHEwRMZWhp
MRAwDgYDVQQKEwdUZXN0T3JnMSEwHwYDVQQDExhpdnNlcnZlcmF1dGguZXhhbXBs
ZS5jb20wggIiMA0GCSqGSIb3DQEBAQUAA4ICDwAwggIKAoICAQC7XKnuR5z/u6X7
cGymsbJ4ZOPMEUEGY9TuJPnNng5Vq2f/uWlzRx3/7yhkiKoF3UXtzjvfVkfMC6Wn
7LcYYt4yH0zMZRQngJbKcCfJ+OT+Jng9mkQblHUorYhNZQ5oLfltj2///ffVvoYv
+Zf+1OxcSq6kPu0sk+Fq0dAohiGgzMBUrvAvAJYrXs95SCNe7QldEzkMBy27ShCW
OAzvSgqTYjTqhm+Xt9reBv8jpWqE6oK8eVRjgS4NKl75c5nj5TFkCQ4YSic/WUrN
HWJJiI7UQ9NIndHcn2KTk3+A181B9BEWWu+Rx3w5AAZzi2foW0RUjFNsIK83ym+Q
CdUoTMwmdN1C9B/JzoqJLd/OR3RDZ8ySBCfsn8rM5NRDs2wOndOLF4jkk7iIcRJL
4mEvyJtoSPHHk8BqnKUCntJRXaW+dAU/AeBm62wNYqhUllaoTs3k/8yTD/LLCkhp
7l/0iGZNDO3QS9MF9l5/ml/2DcHZcDnaJOJlxgZ1CBn47sh7ErZVQYzitp5XqlDz
nkpvOQck773uaYztv5SO6XJGtH+dD8zTDAv2GEQdyK1UIi4Nev+3jF3upbWuEwan
16WHWCvg68ycvjrE5uJg4iRedWttNMW0VQ7J3p2Exg8lJLqoTGHTvOOVy5gynkFI
K2WRs+sM3pL7Rl3/1XkEdQzFK5PBjQIDAQABo4IBKzCCAScwDgYDVR0PAQH/BAQD
AgeAMBMGA1UdJQQMMAoGCCsGAQUFBwMBMBAGA1UdIwQJMAeABQECAwQGMFsGCCsG
AQUFBwEBBE8wTTAjBggrBgEFBQcwAYYXaHR0cDovL29jc3AuZXhhbXBsZS5jb20w
JgYIKwYBBQUHMAKGGmh0dHA6Ly9leGFtcGxlLmNvbS9jYTEuY3J0MCMGA1UdEQQc
MBqCGGl2c2VydmVyYXV0aC5leGFtcGxlLmNvbTATBgNVHSAEDDAKMAgGBmeBDAEC
AzBXBgNVHR8EUDBOMCWgI6Ahhh9odHRwOi8vY3JsMS5leGFtcGxlLmNvbS9jYTEu
Y3JsMCWgI6Ahhh9odHRwOi8vY3JsMi5leGFtcGxlLmNvbS9jYTEuY3JsMA0GCSqG
SIb3DQEBCwUAA4IBgQBmf7BtXR4kqPzjnOpOWvoxRVkkVMUqTpGkPcGiZTAOKlcP
oitVzDcDSMQFwtTfBaQxgyFsHE/nVqTC42G07nDfBd77lPVKGmLmfaARcfggvFmr
JnjAhWQMXalONG1EE0eZXiJJPBS8CpYGUOQjVBDik0ZSzmlSqLv6amRq2iAQBYlF
MRPxFZrIOk7IVKFdbS3L/Ipv89qCeDJBes2+EFbuITFqVcMj2y21BZWA0z4h4FaC
2z1UKcEXcJdEj1Qr9zOL0zp+zPswreWzdA0chbdBs+EMo7m1rQlYbXZbdk6tch9Y
ylP/7BDc5pl/Z7f6FeJgpXMklN0tuYyKaV3O/TFQpTColERSlY4aCyKZgbzvp3oS
EdARpH3Pc4kCOQ1ojjn9VZcUjyU4xDJ845xL9/+OM6bwEWIN2tP+sNKxXYu/6FhN
bY6n+D5UTLNVnrhMNL175AGMKsmLTzhfTVXcDcxJ9gEylWn14prj2te97jtgCy1B
2ahudBZznVIK81C+CIY=
-----END CERTIFICATE-----
