Certificate:
    Data:
        Version: 3 (0x2)
        Serial Number:
            e2:64:59:c2:96:51:72:b9:42:75:a9:e0:fe:93:36:fc
        Signature Algorithm: sha256WithRSAEncryption
        Issuer: CN=Test CA 2, OU=CA, O=Example Co, C=US
        Validity
            Not Before: Aug  3 17:09:36 2025 GMT
            Not After : Aug  3 17:09:36 2026 GMT
        Subject: C=US, ST=Utah, L=Lehi, SN=Test, GN=Person, CN=ivserverauth.example.com
        Subject Public Key Info:
            Public Key Algorithm: rsaEncryption
                Public-Key: (4096 bit)
                Modulus:
                    00:c7:29:e6:47:fc:4c:35:b5:da:27:73:cc:32:76:
                    72:82:51:6c:78:09:77:cd:53:d8:50:ea:17:34:51:
                    4e:6f:ae:17:e1:6c:fd:a3:f3:5f:4a:90:3a:d3:74:
                    8f:27:21:5a:38:f5:aa:c5:66:ec:e3:5d:fd:f1:f2:
                    dc:ac:09:b6:9e:7b:93:96:40:37:04:e6:e6:59:94:
                    6f:89:9f:b9:00:16:a2:40:fb:55:56:37:2e:55:26:
                    c4:29:79:44:e8:1d:a2:59:22:f4:11:8d:9a:78:11:
                    8e:4a:01:d2:a9:fe:fe:62:bb:a0:b9:35:a0:68:3f:
                    bd:f3:ff:ed:46:c2:d7:ed:ca:ff:a1:7c:5f:43:16:
                    2a:1c:d3:b7:e5:79:59:5c:9f:c8:31:df:d7:56:fd:
                    ae:ca:71:b8:a8:d3:fc:1a:46:a9:cb:fe:07:6f:a8:
                    65:97:36:f6:52:9c:25:05:77:2b:d1:39:c2:8d:cb:
                    8c:20:2c:d5:36:76:ce:5b:0a:ee:65:f9:19:f5:20:
                    e5:dd:36:63:fb:2d:c4:bd:23:20:16:38:b9:31:2d:
                    fe:f9:50:85:50:37:17:a3:16:77:5b:63:df:de:2e:
                    20:29:63:04:5d:9f:d5:93:d3:05:a6:d8:d5:8a:65:
                    f0:6d:e7:3c:69:0e:8a:9a:c8:72:32:90:e7:44:44:
                    79:05:ca:b9:80:87:68:f3:d3:d4:55:27:7f:be:3c:
                    7b:15:1f:46:31:94:8c:7e:86:3f:13:f3:01:39:fd:
                    e3:be:92:03:67:03:18:93:35:f9:97:3f:0d:94:c8:
                    d2:76:b5:ca:61:11:07:1e:22:dd:e1:0a:12:27:6d:
                    80:88:e5:bb:52:96:01:b6:07:da:e5:21:f0:29:e2:
                    0c:c3:ad:dd:55:34:dd:80:65:e6:e9:ed:57:4f:59:
                    8e:c8:f3:71:7d:43:06:15:e8:ac:eb:26:41:3d:85:
                    39:9f:ad:bf:d8:76:ad:bd:f0:5b:e0:69:e0:1b:fa:
                    03:21:9a:34:db:29:71:c7:c9:be:38:33:17:8a:aa:
                    a4:06:22:3e:3a:f3:29:3a:66:0b:e3:3e:78:ce:99:
                    96:49:99:7f:3c:08:92:b6:39:69:d9:6f:20:44:8c:
                    66:55:c8:7c:d6:20:36:98:53:64:ea:bc:77:86:85:
                    cc:f6:0f:d5:3f:72:e5:af:dd:a3:4c:f9:cd:d4:d4:
                    4c:ae:ec:ac:6d:40:e6:da:3d:22:80:0e:5c:25:88:
                    b8:d5:fb:73:c6:e9:68:1f:97:48:ac:ff:24:43:dc:
                    7a:67:61:6f:f0:02:cf:8f:d2:65:fd:47:86:fa:d1:
                    6b:2f:23:e6:b5:f8:ff:41:41:5b:a0:6c:64:f6:a9:
                    ee:9a:17
                Exponent: 65537 (0x10001)
        X509v3 extensions:
            X509v3 Key Usage: critical
                Digital Signature
            X509v3 Extended Key Usage: 
                TLS Web Server Authentication
            X509v3 Authority Key Identifier: 
                01:02:03:04:06
            Authority Information Access: 
                OCSP - URI:http://ocsp.example.com
                CA Issuers - URI:http://example.com/ca1.crt
            X509v3 Subject Alternative Name: 
                DNS:ivserverauth.example.com
            X509v3 Certificate Policies: 
                Policy: 2.23.140.1.2.3
            X509v3 CRL Distribution Points: 
                Full Name:
                  URI:http://crl1.example.com/ca1.crl

                Full Name:
                  URI:http://crl2.example.com/ca1.crl

    Signature Algorithm: sha256WithRSAEncryption
    Signature Value:
        00:2a:3b:29:99:56:e8:43:45:df:fb:69:b8:47:13:22:81:20:
        05:76:54:03:50:06:5c:98:80:51:76:3d:a1:16:5a:bb:b9:35:
        21:bc:0e:b8:1f:3e:13:fd:89:6a:a8:b6:61:4e:60:b8:7e:ac:
        77:24:67:76:c8:42:f9:bf:d3:45:31:ca:dc:7b:fb:72:fd:42:
        3a:4e:f9:72:c4:df:d0:6b:81:29:47:62:cc:60:a3:d2:5d:b3:
        8d:0b:9c:df:e4:0c:09:5f:4c:b7:85:18:37:47:7f:2c:0a:51:
        49:45:88:02:64:5b:02:1a:5d:9c:9e:e8:96:c8:07:80:e3:72:
        5a:54:03:8c:1e:ca:5b:e5:31:97:cb:ce:21:48:c9:80:a3:9a:
        12:c2:96:11:ff:df:69:70:06:85:a9:5f:df:b2:73:47:fe:be:
        92:a3:4b:7d:ed:1c:86:96:18:30:4e:74:ef:c4:e7:bb:32:a8:
        4e:f9:f1:84:88:78:5b:06:d9:92:62:31:f7:1b:e0:c0:5c:8a:
        3d:e2:5a:70:2b:30:17:89:ab:74:ee:7d:38:26:8f:99:0e:52:
        2f:ec:7b:b7:e0:81:87:3f:97:5d:a1:5c:70:86:95:a1:d9:f6:
        68:76:f2:ad:63:33:59:3f:af:ba:83:7b:44:76:04:46:14:9d:
        a2:7f:d8:c2:8c:1b:f9:38:ee:ad:50:09:2d:bb:d0:b7:1d:07:
        00:eb:8a:a2:cb:44:48:24:bc:c4:4d:98:c2:87:55:c5:91:fc:
        f5:a0:73:df:a0:65:96:16:79:57:30:2b:6c:f2:d4:a1:f1:89:
        82:2f:60:86:51:3a:c3:d0:f4:d6:6d:37:a5:ba:37:46:97:8f:
        89:f7:62:44:62:51:dd:bd:00:19:84:53:ef:6f:ae:47:21:d2:
        12:9f:81:91:d7:3d:25:86:f9:b6:51:c2:a9:74:d0:6e:20:ca:
        42:25:7e:6e:fd:d5:f9:87:2c:b2:8b:89:6d:8a:0a:ef:1e:a4:
        34:0d:b1:3a:65:d2
-----BEGIN CERTIFICATE-----
MIIF6TCCBFGgAwIBAgIRAOJkWcKWUXK5QnWp4P6TNvwwDQYJKoZIhvcNAQELBQAw
QzESMBAGA1UEAxMJVGVzdCBDQSAyMQswCQYDVQQLEwJDQTETMBEGA1UEChMKRXhh
bXBsZSBDbzELMAkGA1UEBhMCVVMwHhcNMjUwODAzMTcwOTM2WhcNMjYwODAzMTcw
OTM2WjBuMQswCQYDVQQGEwJVUzENMAsGA1UECBMEVXRhaDENMAsGA1UEBxMETGVo
aTENMAsGA1UEBBMEVGVzdDEPMA0GA1UEKhMGUGVyc29uMSEwHwYDVQQDExhpdnNl
cnZlcmF1dGguZXhhbXBsZS5jb20wggIiMA0GCSqGSIb3DQEBAQUAA4ICDwAwggIK
AoICAQDHKeZH/Ew1tdonc8wydnKCUWx4CXfNU9hQ6hc0UU5vrhfhbP2j819KkDrT
dI8nIVo49arFZuzjXf3x8tysCbaee5OWQDcE5uZZlG+Jn7kAFqJA+1VWNy5VJsQp
eUToHaJZIvQRjZp4EY5KAdKp/v5iu6C5NaBoP73z/+1Gwtftyv+hfF9DFioc07fl
eVlcn8gx39dW/a7Kcbio0/waRqnL/gdvqGWXNvZSnCUFdyvROcKNy4wgLNU2ds5b
Cu5l+Rn1IOXdNmP7LcS9IyAWOLkxLf75UIVQNxejFndbY9/eLiApYwRdn9WT0wWm
2NWKZfBt5zxpDoqayHIykOdERHkFyrmAh2jz09RVJ3++PHsVH0YxlIx+hj8T8wE5
/eO+kgNnAxiTNfmXPw2UyNJ2tcphEQceIt3hChInbYCI5btSlgG2B9rlIfAp4gzD
rd1VNN2AZebp7VdPWY7I83F9QwYV6KzrJkE9hTmfrb/Ydq298FvgaeAb+gMhmjTb
KXHHyb44MxeKqqQGIj468yk6ZgvjPnjOmZZJmX88CJK2OWnZbyBEjGZVyHzWIDaY
U2TqvHeGhcz2D9U/cuWv3aNM+c3U1Eyu7KxtQObaPSKADlwliLjV+3PG6Wgfl0is
/yRD3HpnYW/wAs+P0mX9R4b60WsvI+a1+P9BQVugbGT2qe6aFwIDAQABo4IBKzCC
AScwDgYDVR0PAQH/BAQDAgeAMBMGA1UdJQQMMAoGCCsGAQUFBwMBMBAGA1UdIwQJ
MAeABQECAwQGMFsGCCsGAQUFBwEBBE8wTTAjBggrBgEFBQcwAYYXaHR0cDovL29j
c3AuZXhhbXBsZS5jb20wJgYIKwYBBQUHMAKGGmh0dHA6Ly9leGFtcGxlLmNvbS9j
YTEuY3J0MCMGA1UdEQQcMBqCGGl2c2VydmVyYXV0aC5leGFtcGxlLmNvbTATBgNV
HSAEDDAKMAgGBmeBDAECAzBXBgNVHR8EUDBOMCWgI6Ahhh9odHRwOi8vY3JsMS5l
eGFtcGxlLmNvbS9jYTEuY3JsMCWgI6Ahhh9odHRwOi8vY3JsMi5leGFtcGxlLmNv
bS9jYTEuY3JsMA0GCSqGSIb3DQEBCwUAA4IBgQAAKjspmVboQ0Xf+2m4RxMigSAF
dlQDUAZcmIBRdj2hFlq7uTUhvA64Hz4T/YlqqLZhTmC4fqx3JGd2yEL5v9NFMcrc
e/ty/UI6TvlyxN/Qa4EpR2LMYKPSXbONC5zf5AwJX0y3hRg3R38sClFJRYgCZFsC
Gl2cnuiWyAeA43JaVAOMHspb5TGXy84hSMmAo5oSwpYR/99pcAaFqV/fsnNH/r6S
o0t97RyGlhgwTnTvxOe7MqhO+fGEiHhbBtmSYjH3G+DAXIo94lpwKzAXiat07n04
Jo+ZDlIv7Hu34IGHP5ddoVxwhpWh2fZodvKtYzNZP6+6g3tEdgRGFJ2if9jCjBv5
OO6tUAktu9C3HQcA64qiy0RIJLzETZjCh1XFkfz1oHPfoGWWFnlXMCts8tSh8YmC
L2CGUTrD0PTWbTelujdGl4+J92JEYlHdvQAZhFPvb65HIdISn4GR1z0lhvm2UcKp
dNBuIMpCJX5u/dX5hyyyi4ltigrvHqQ0DbE6ZdI=
-----END CERTIFICATE-----
