Certificate:
    Data:
        Version: 3 (0x2)
        Serial Number:
            bb:75:37:12:a3:c7:1e:cb:a8:c4:79:b8:dc:e8:4a:67
        Signature Algorithm: sha256WithRSAEncryption
        Issuer: CN=Test CA 2, OU=CA, O=Example Co, C=US
        Validity
            Not Before: Aug  3 17:15:02 2025 GMT
            Not After : Aug  3 17:15:02 2026 GMT
        Subject: C=US, ST=Utah, L=Lehi, CN=ivserverauth.example.com
        Subject Public Key Info:
            Public Key Algorithm: rsaEncryption
                Public-Key: (4096 bit)
                Modulus:
                    00:f4:8f:35:75:a8:b1:2d:ff:07:d8:6a:3e:21:b5:
                    c3:2e:33:38:9d:ee:b7:3e:05:36:86:4e:74:d4:02:
                    dd:bf:bd:9d:c7:aa:7a:a4:fa:10:74:13:da:2c:67:
                    e7:ac:71:8b:2a:00:b7:d3:0a:45:9a:d0:ec:66:0d:
                    33:fb:4c:36:0e:f4:ec:65:7c:43:6a:82:8b:c5:9b:
                    f8:6c:25:00:53:14:e9:37:62:77:24:53:b7:7e:d8:
                    1e:fe:80:64:26:a5:20:ab:e3:94:cf:01:98:44:1d:
                    cc:65:20:6d:33:8a:f5:3d:c3:89:de:2d:7b:9e:2d:
                    a7:11:5d:96:35:81:ca:ba:39:09:70:59:30:67:ee:
                    a5:6e:30:8f:c3:96:4a:63:c4:60:74:20:5d:52:26:
                    b9:ad:70:04:f1:0e:7e:94:0c:93:3b:b6:95:45:78:
                    ab:51:6f:fb:d6:ed:40:be:80:af:7d:b1:9d:aa:44:
                    cb:24:d2:61:9f:7a:ae:c0:17:e2:c6:78:b4:b9:7e:
                    fc:47:64:03:c6:d4:77:db:b9:f2:70:dc:b6:3a:a9:
                    b0:73:a4:7c:80:26:10:3c:2f:62:86:39:a3:ef:b6:
                    c9:66:d2:ea:6b:88:6c:18:65:34:91:57:84:93:14:
                    fc:13:e7:5a:81:ae:7b:8c:50:a9:21:be:a3:c1:50:
                    eb:14:bc:db:51:5e:3c:ca:6f:9a:df:b4:b1:f5:e6:
                    96:93:b4:9d:de:c7:b2:2a:be:af:bd:f0:2f:71:fb:
                    0b:78:32:3b:1c:d4:fc:ff:42:6f:79:bc:b1:db:e8:
                    e8:d0:d8:8b:28:20:8f:91:c6:96:46:b7:27:cd:c6:
                    18:c1:56:80:07:04:a4:ac:41:fb:51:53:e7:86:59:
                    d7:75:e9:57:8e:35:ab:0e:26:5e:fe:0c:c9:5b:34:
                    e6:6d:03:41:45:d4:10:a3:61:b8:cf:2e:cc:81:a2:
                    83:a0:70:f8:97:9d:1b:11:76:ea:f1:51:3f:4c:68:
                    34:bd:45:f5:f1:09:a0:98:0d:15:aa:c9:95:c1:af:
                    f0:67:bf:da:7e:f6:9a:36:a5:80:57:92:81:32:ae:
                    55:44:0b:7b:42:71:ae:db:d2:58:cb:81:5f:25:1a:
                    96:f9:8a:59:69:d6:c7:f2:50:54:7c:69:87:9c:71:
                    90:08:0c:0f:fe:1d:ab:b6:19:53:6e:ab:77:ec:58:
                    13:fa:be:7f:22:7c:0a:ef:93:e1:a9:d7:5c:31:2e:
                    e8:48:74:39:2d:82:b3:77:89:94:24:3e:3b:ee:ac:
                    55:48:3a:ca:cd:7a:bc:95:09:fe:42:c0:7d:1d:54:
                    92:cd:bc:62:d2:e1:97:9c:6e:78:35:11:15:ac:71:
                    8b:ec:79
                Exponent: 65537 (0x10001)
        X509v3 extensions:
            X509v3 Key Usage: critical
                Digital Signature
            X509v3 Extended Key Usage: 
                TLS Web Server Authentication
            X509v3 Authority Key Identifier: 
                01:02:03:04:06
            Authority Information Access: 
                OCSP - URI:http://ocsp.example.com
                CA Issuers - URI:http://example.com/ca1.crt
            X509v3 Subject Alternative Name: 
                DNS:ivserverauth.example.com
            X509v3 Certificate Policies: 
                Policy: 2.23.140.1.2.3
            X509v3 CRL Distribution Points: 
                Full Name:
                  URI:http://crl1.example.com/ca1.crl

                Full Name:
                  URI:http://crl2.example.com/ca1.crl

    Signature Algorithm: sha256WithRSAEncryption
    Signature Value:
        ab:de:76:08:67:ff:08:35:2f:a4:e7:96:79:cd:fb:ff:37:a9:
        8a:52:50:63:d3:23:da:f4:f9:e5:4e:b7:6a:6a:5b:33:cf:38:
        c3:56:3a:f0:58:b9:8f:11:b6:7d:ff:c4:33:fc:06:1e:d6:50:
        f6:ca:f4:3c:1e:3c:d9:47:d1:cb:4b:10:ce:4e:e3:33:4b:a5:
        ac:df:13:9a:e6:df:80:fd:e8:6a:d9:60:e6:52:a6:92:f7:68:
        b2:a2:63:dc:da:2f:74:83:d7:41:0a:87:21:ac:8c:5e:47:7c:
        c9:73:30:21:b3:eb:2f:01:e5:f4:ad:b0:43:64:df:f1:be:a8:
        f8:c5:64:68:68:0b:ae:b2:d6:34:91:cd:0f:6c:16:7a:5a:62:
        cf:a4:b3:9e:9f:be:94:a5:df:62:74:60:81:4e:6c:36:f7:55:
        7f:86:a4:94:99:8c:4e:90:82:18:7c:15:be:ac:53:4d:78:81:
        52:0a:41:4d:a6:23:8f:1e:05:99:1f:44:e3:80:aa:ef:50:00:
        2c:58:89:b4:00:d0:a6:f7:2d:84:04:4a:28:97:b5:34:84:84:
        e9:33:fb:be:87:f0:1a:44:4b:1c:04:15:af:c8:c6:de:48:8b:
        12:4e:f3:1c:12:dc:88:6c:8c:cf:33:0c:fd:70:b1:a7:63:aa:
        df:59:93:47:1c:63:bd:87:b6:4b:be:28:20:d3:0e:c3:a4:fc:
        1b:b5:71:e5:b8:0f:95:ba:59:e9:66:bc:1a:ef:53:f4:b4:b5:
        21:a3:b6:ad:11:0e:30:d4:64:80:d0:e6:bd:f2:43:0b:c0:1f:
        69:9f:19:f7:82:4d:72:2a:48:96:dc:68:eb:ad:04:8d:c9:f0:
        20:89:7f:40:2e:c9:ba:1f:66:0e:99:a1:10:e8:ea:8c:ec:29:
        9e:d6:c8:e2:f0:9d:a8:f7:74:2b:91:88:c0:d1:1a:eb:2e:fc:
        83:5a:11:5a:98:81:8a:11:a9:2f:fc:3d:b2:cc:bd:4b:8b:91:
        de:6a:08:96:7a:be
-----BEGIN CERTIFICATE-----
MIIFyTCCBDGgAwIBAgIRALt1NxKjxx7LqMR5uNzoSmcwDQYJKoZIhvcNAQELBQAw
QzESMBAGA1UEAxMJVGVzdCBDQSAyMQswCQYDVQQLEwJDQTETMBEGA1UEChMKRXhh
bXBsZSBDbzELMAkGA1UEBhMCVVMwHhcNMjUwODAzMTcxNTAyWhcNMjYwODAzMTcx
NTAyWjBOMQswCQYDVQQGEwJVUzENMAsGA1UECBMEVXRhaDENMAsGA1UEBxMETGVo
aTEhMB8GA1UEAxMYaXZzZXJ2ZXJhdXRoLmV4YW1wbGUuY29tMIICIjANBgkqhkiG
9w0BAQEFAAOCAg8AMIICCgKCAgEA9I81daixLf8H2Go+IbXDLjM4ne63PgU2hk50
1ALdv72dx6p6pPoQdBPaLGfnrHGLKgC30wpFmtDsZg0z+0w2DvTsZXxDaoKLxZv4
bCUAUxTpN2J3JFO3ftge/oBkJqUgq+OUzwGYRB3MZSBtM4r1PcOJ3i17ni2nEV2W
NYHKujkJcFkwZ+6lbjCPw5ZKY8RgdCBdUia5rXAE8Q5+lAyTO7aVRXirUW/71u1A
voCvfbGdqkTLJNJhn3quwBfixni0uX78R2QDxtR327nycNy2Oqmwc6R8gCYQPC9i
hjmj77bJZtLqa4hsGGU0kVeEkxT8E+daga57jFCpIb6jwVDrFLzbUV48ym+a37Sx
9eaWk7Sd3seyKr6vvfAvcfsLeDI7HNT8/0Jvebyx2+jo0NiLKCCPkcaWRrcnzcYY
wVaABwSkrEH7UVPnhlnXdelXjjWrDiZe/gzJWzTmbQNBRdQQo2G4zy7MgaKDoHD4
l50bEXbq8VE/TGg0vUX18QmgmA0VqsmVwa/wZ7/afvaaNqWAV5KBMq5VRAt7QnGu
29JYy4FfJRqW+YpZadbH8lBUfGmHnHGQCAwP/h2rthlTbqt37FgT+r5/InwK75Ph
qddcMS7oSHQ5LYKzd4mUJD477qxVSDrKzXq8lQn+QsB9HVSSzbxi0uGXnG54NREV
rHGL7HkCAwEAAaOCASswggEnMA4GA1UdDwEB/wQEAwIHgDATBgNVHSUEDDAKBggr
BgEFBQcDATAQBgNVHSMECTAHgAUBAgMEBjBbBggrBgEFBQcBAQRPME0wIwYIKwYB
BQUHMAGGF2h0dHA6Ly9vY3NwLmV4YW1wbGUuY29tMCYGCCsGAQUFBzAChhpodHRw
Oi8vZXhhbXBsZS5jb20vY2ExLmNydDAjBgNVHREEHDAaghhpdnNlcnZlcmF1dGgu
ZXhhbXBsZS5jb20wEwYDVR0gBAwwCjAIBgZngQwBAgMwVwYDVR0fBFAwTjAloCOg
IYYfaHR0cDovL2NybDEuZXhhbXBsZS5jb20vY2ExLmNybDAloCOgIYYfaHR0cDov
L2NybDIuZXhhbXBsZS5jb20vY2ExLmNybDANBgkqhkiG9w0BAQsFAAOCAYEAq952
CGf/CDUvpOeWec37/zepilJQY9Mj2vT55U63ampbM884w1Y68Fi5jxG2ff/EM/wG
HtZQ9sr0PB482UfRy0sQzk7jM0ulrN8TmubfgP3oatlg5lKmkvdosqJj3NovdIPX
QQqHIayMXkd8yXMwIbPrLwHl9K2wQ2Tf8b6o+MVkaGgLrrLWNJHND2wWelpiz6Sz
np++lKXfYnRggU5sNvdVf4aklJmMTpCCGHwVvqxTTXiBUgpBTaYjjx4FmR9E44Cq
71AALFiJtADQpvcthARKKJe1NISE6TP7vofwGkRLHAQVr8jG3kiLEk7zHBLciGyM
zzMM/XCxp2Oq31mTRxxjvYe2S74oINMOw6T8G7Vx5bgPlbpZ6Wa8Gu9T9LS1IaO2
rREOMNRkgNDmvfJDC8AfaZ8Z94JNcipIltxo660EjcnwIIl/QC7Juh9mDpmhEOjq
jOwpntbI4vCdqPd0K5GIwNEa6y78g1oRWpiBihGpL/w9ssy9S4uR3moIlnq+
-----END CERTIFICATE-----
