Certificate:
    Data:
        Version: 3 (0x2)
        Serial Number: 18008675309 (0x4316693ed)
    Signature Algorithm: sha256WithRSAEncryption
        Issuer: C = US, O = Mother Nature, OU = Everything, CN = Mother Nature
        Validity
            Not Before: Jun 28 00:12:18 2016 GMT
            Not After : Sep  9 00:12:18 2016 GMT
        Subject: C = US, L = Tallahassee, street = 3210 Holly Mill Run, postalCode = 30062, CN = gov.us, GN = Alexander, SN = Washington
        Subject Public Key Info:
            Public Key Algorithm: rsaEncryption
                Public-Key: (2048 bit)
                Modulus:
                    00:cc:92:fa:d1:ff:6a:25:d8:1e:99:7d:51:da:93:
                    4a:9a:52:1e:ad:0c:3f:ee:fd:67:df:bf:f9:48:de:
                    9b:c8:d7:fe:6b:4b:95:18:33:29:1e:64:f3:c3:b9:
                    10:be:dc:51:50:7e:74:af:8c:a7:4d:29:9c:ef:84:
                    47:ce:ab:c5:d4:ea:90:c6:02:69:80:53:3d:0d:97:
                    76:57:18:b9:2d:a6:0d:37:e9:32:70:b4:e2:0c:7f:
                    4e:7b:f8:2d:d8:23:f5:5a:74:24:ad:8e:af:bc:a2:
                    9c:14:73:3c:39:c8:a3:2d:e1:ad:9c:19:65:95:b2:
                    36:aa:26:2b:90:27:a3:4e:c8:48:24:80:94:27:52:
                    e7:86:e0:83:17:c6:4d:4e:38:7a:e3:b9:2a:40:42:
                    2a:52:4e:37:af:17:40:f3:d9:e9:99:54:37:45:bc:
                    1e:b6:d6:0f:17:f8:50:66:f0:3e:0c:26:91:ee:87:
                    31:02:a6:91:13:42:1e:4d:d5:b9:6a:d5:8b:79:72:
                    0a:5a:21:96:30:70:41:41:d2:e1:fe:15:de:40:30:
                    48:a6:dd:4d:95:71:13:53:93:3e:8d:fa:a3:df:dd:
                    57:a7:c3:f6:0f:7c:7b:35:47:56:2a:0a:e4:90:15:
                    fa:20:0e:65:a7:aa:b2:44:91:b4:e1:2e:83:0d:85:
                    04:97
                Exponent: 65537 (0x10001)
        X509v3 extensions:
            X509v3 Key Usage: critical
                Digital Signature, Key Encipherment
            X509v3 Extended Key Usage: 
                TLS Web Client Authentication, TLS Web Server Authentication
            X509v3 Basic Constraints: critical
                CA:FALSE
            X509v3 Authority Key Identifier: 
                keyid:01:02:03

            Authority Information Access: 
                OCSP - URI:http://theca.net/ocsp
                CA Issuers - URI:http://theca.net/totallythecert.crt

            X509v3 Certificate Policies: 
                Policy: 2.23.140.1.2.3

            X509v3 Subject Key Identifier: 
                04:03:02:01
            X509v3 Subject Alternative Name: 
                DNS:*.gov.us, DNS:gov.us
    Signature Algorithm: sha256WithRSAEncryption
         71:c3:14:0c:cc:3e:66:21:64:cd:af:b3:78:67:6a:88:33:9e:
         c4:18:58:c0:46:73:8f:e1:05:04:27:f0:ec:c8:0e:0a:73:ce:
         2b:a2:c2:ad:29:f4:8e:74:c0:4b:c0:20:b2:1a:25:7d:8a:27:
         73:53:76:e0:e8:58:8f:ea:51:dc:32:b7:1d:15:e9:89:1d:5d:
         7a:a6:73:36:3c:db:8b:c7:3d:6c:b2:9a:07:07:91:b8:82:2a:
         59:35:eb:48:2b:29:d1:0f:4f:a6:9e:68:74:c2:99:e5:de:98:
         3e:76:32:07:9a:69:a6:2c:46:85:95:59:99:22:fc:ea:33:27:
         a9:7b:a4:f1:ea:22:71:89:90:be:6b:cd:d6:5f:30:d2:b3:8d:
         8f:46:54:5d:0f:dc:75:d5:fe:ae:32:34:a5:75:52:80:28:87:
         14:99:81:8c:40:52:79:7b:f5:f3:f3:d0:4f:99:2d:ae:62:32:
         3e:57:06:7f:72:a1:b4:1d:77:36:d9:49:fc:c3:4a:d4:59:ee:
         b4:b5:30:d3:78:d9:a3:3e:e5:bb:82:8e:0b:87:be:9e:62:35:
         ff:ab:b7:3e:45:66:38:66:e7:65:ab:c5:9c:03:c6:87:3d:66:
         24:15:ff:1b:d8:96:eb:f6:11:7c:ee:7e:5d:cb:5a:8e:57:78:
         61:3f:96:52
-----BEGIN CERTIFICATE-----
MIIEUzCCAzugAwIBAgIFBDFmk+0wDQYJKoZIhvcNAQELBQAwUjELMAkGA1UEBhMC
VVMxFjAUBgNVBAoTDU1vdGhlciBOYXR1cmUxEzARBgNVBAsTCkV2ZXJ5dGhpbmcx
FjAUBgNVBAMTDU1vdGhlciBOYXR1cmUwHhcNMTYwNjI4MDAxMjE4WhcNMTYwOTA5
MDAxMjE4WjCBizELMAkGA1UEBhMCVVMxFDASBgNVBAcTC1RhbGxhaGFzc2VlMRww
GgYDVQQJExMzMjEwIEhvbGx5IE1pbGwgUnVuMQ4wDAYDVQQREwUzMDA2MjEPMA0G
A1UEAxMGZ292LnVzMRIwEAYDVQQqEwlBbGV4YW5kZXIxEzARBgNVBAQTCldhc2hp
bmd0b24wggEiMA0GCSqGSIb3DQEBAQUAA4IBDwAwggEKAoIBAQDMkvrR/2ol2B6Z
fVHak0qaUh6tDD/u/Wffv/lI3pvI1/5rS5UYMykeZPPDuRC+3FFQfnSvjKdNKZzv
hEfOq8XU6pDGAmmAUz0Nl3ZXGLktpg036TJwtOIMf057+C3YI/VadCStjq+8opwU
czw5yKMt4a2cGWWVsjaqJiuQJ6NOyEgkgJQnUueG4IMXxk1OOHrjuSpAQipSTjev
F0Dz2emZVDdFvB621g8X+FBm8D4MJpHuhzECppETQh5N1blq1Yt5cgpaIZYwcEFB
0uH+Fd5AMEim3U2VcRNTkz6N+qPf3Venw/YPfHs1R1YqCuSQFfogDmWnqrJEkbTh
LoMNhQSXAgMBAAGjgfUwgfIwDgYDVR0PAQH/BAQDAgWgMB0GA1UdJQQWMBQGCCsG
AQUFBwMCBggrBgEFBQcDATAMBgNVHRMBAf8EAjAAMA4GA1UdIwQHMAWAAwECAzBi
BggrBgEFBQcBAQRWMFQwIQYIKwYBBQUHMAGGFWh0dHA6Ly90aGVjYS5uZXQvb2Nz
cDAvBggrBgEFBQcwAoYjaHR0cDovL3RoZWNhLm5ldC90b3RhbGx5dGhlY2VydC5j
cnQwEwYDVR0gBAwwCjAIBgZngQwBAgMwDQYDVR0OBAYEBAQDAgEwGwYDVR0RBBQw
EoIIKi5nb3YudXOCBmdvdi51czANBgkqhkiG9w0BAQsFAAOCAQEAccMUDMw+ZiFk
za+zeGdqiDOexBhYwEZzj+EFBCfw7MgOCnPOK6LCrSn0jnTAS8AgsholfYonc1N2
4OhYj+pR3DK3HRXpiR1deqZzNjzbi8c9bLKaBweRuIIqWTXrSCsp0Q9Ppp5odMKZ
5d6YPnYyB5pppixGhZVZmSL86jMnqXuk8eoicYmQvmvN1l8w0rONj0ZUXQ/cddX+
rjI0pXVSgCiHFJmBjEBSeXv18/PQT5ktrmIyPlcGf3KhtB13NtlJ/MNK1FnutLUw
03jZoz7lu4KOC4e+nmI1/6u3PkVmOGbnZavFnAPGhz1mJBX/G9iW6/YRfO5+Xcta
jld4YT+WUg==
-----END CERTIFICATE-----
