Certificate:
    Data:
        Version: 3 (0x2)
        Serial Number:
            5f:6d:42:00:be:3a:0d:4e:86:d5:cf:b6:2a:55:3f:63
        Signature Algorithm: sha256WithRSAEncryption
        Issuer: CN=Test CA 2, OU=CA, O=Example Co, C=US
        Validity
            Not Before: Aug  3 16:45:35 2025 GMT
            Not After : Aug  3 16:45:35 2026 GMT
        Subject: C=US, ST=Utah, SN=Test, CN=ivserverauth.example.com
        Subject Public Key Info:
            Public Key Algorithm: rsaEncryption
                Public-Key: (4096 bit)
                Modulus:
                    00:da:2c:1f:95:66:1b:49:35:af:2c:af:8c:11:29:
                    fb:0e:01:19:65:1d:4c:c3:01:7e:92:a4:2d:3c:05:
                    d2:aa:45:d3:dc:1d:a8:7a:ef:0c:3d:8e:e8:1e:6d:
                    a5:80:e1:27:73:62:7e:01:45:3e:17:8f:76:de:2e:
                    57:ac:88:c8:88:11:f6:36:24:0a:75:16:a9:a8:49:
                    99:5f:26:ca:42:23:33:6d:86:9b:77:43:34:c3:77:
                    43:36:b1:ce:ff:2f:bd:24:fc:46:b3:f3:fd:00:69:
                    04:68:21:80:bd:66:62:76:84:c7:0f:f1:cc:b1:df:
                    c6:27:f6:89:3f:3d:6e:82:de:3a:87:c4:9a:74:0f:
                    dc:57:5a:0c:97:bd:6d:4c:36:65:20:cd:e0:4c:13:
                    95:7a:c8:3a:df:d6:6c:55:c5:37:3f:60:31:cc:14:
                    25:2e:17:9f:99:65:c0:bb:69:36:91:fa:30:29:c0:
                    cf:0f:6c:ef:13:3b:d3:a8:0e:72:7d:f3:97:f9:90:
                    2e:6b:02:bc:20:ca:16:b6:57:2c:2a:d5:15:d1:80:
                    11:6f:58:84:a6:66:55:68:31:21:29:53:84:06:ff:
                    ba:88:78:03:01:62:8f:8c:08:c4:25:f4:1b:f9:ba:
                    16:65:19:2c:74:ae:c8:d4:d2:1a:c4:e5:be:0a:3f:
                    8a:06:c4:1a:8c:c2:9d:4e:da:96:a8:fc:2d:12:7b:
                    3b:7d:ab:c1:3f:35:52:04:cd:8c:4c:9d:f7:9c:8f:
                    44:97:e5:29:82:16:62:70:50:cb:5e:ff:fc:a2:e0:
                    6d:c8:9c:b8:0f:34:39:6e:e0:54:33:1e:95:ad:fc:
                    2d:e3:15:0e:17:fa:76:d8:a3:85:f3:8b:0a:cf:ed:
                    50:6c:74:6f:82:d4:61:f8:10:4e:25:9b:83:dd:8e:
                    81:ae:48:98:d8:19:6f:c7:a0:84:13:95:12:8e:cd:
                    c9:1d:19:93:7f:13:37:10:d3:5f:4a:e7:01:0a:91:
                    b4:31:ab:e8:8d:cb:1e:fd:8e:78:2d:4f:53:49:ed:
                    47:cb:e4:09:22:c3:06:a1:97:e5:fa:9d:25:ff:00:
                    3e:7d:a2:b9:07:cf:3c:5b:77:3c:ce:38:2b:65:72:
                    2f:84:67:4c:ea:24:35:ee:67:ea:dc:d1:56:4e:bf:
                    4a:67:6b:10:90:2e:21:b8:b7:bc:4f:06:6d:c9:08:
                    1e:34:92:bd:6c:18:29:76:c0:55:8a:33:63:a7:ff:
                    9a:85:a7:dc:bd:cb:7f:36:26:d4:bf:c3:8c:99:91:
                    20:73:b8:20:ed:ee:21:96:ed:5d:5f:8f:0e:83:4d:
                    92:f0:57:62:48:54:f0:c7:78:38:13:d4:22:9a:88:
                    b7:a2:13
                Exponent: 65537 (0x10001)
        X509v3 extensions:
            X509v3 Key Usage: critical
                Digital Signature
            X509v3 Extended Key Usage: 
                TLS Web Server Authentication
            X509v3 Authority Key Identifier: 
                01:02:03:04:06
            Authority Information Access: 
                OCSP - URI:http://ocsp.example.com
                CA Issuers - URI:http://example.com/ca1.crt
            X509v3 Subject Alternative Name: 
                DNS:ivserverauth.example.com
            X509v3 Certificate Policies: 
                Policy: 2.23.140.1.2.3
            X509v3 CRL Distribution Points: 
                Full Name:
                  URI:http://crl1.example.com/ca1.crl

                Full Name:
                  URI:http://crl2.example.com/ca1.crl

    Signature Algorithm: sha256WithRSAEncryption
    Signature Value:
        6d:de:2f:65:25:e6:9b:cc:4d:ee:62:d1:77:f2:dc:19:1d:05:
        a3:6c:48:02:6e:15:58:80:0e:c6:dc:d2:8f:7c:04:a1:f2:e0:
        6c:80:de:3b:0c:0d:d1:68:9f:6f:15:81:2c:b5:88:21:68:b4:
        81:00:dd:cf:6a:08:c8:76:fe:67:ce:3a:3e:da:b0:53:5a:d7:
        e1:30:14:df:c8:bc:f7:2f:33:b3:21:18:34:b2:99:54:10:67:
        6d:79:28:5a:66:4f:78:9e:ec:b8:07:c0:5e:b3:47:4b:3b:25:
        ab:90:24:52:50:d2:c1:c0:df:32:11:17:e6:1d:1e:46:15:f0:
        6e:3e:90:2f:a3:98:42:f7:65:1b:85:25:73:91:5f:a5:6c:7b:
        6f:64:c7:fb:36:b4:c1:dc:97:c1:45:47:dc:3d:7a:fc:90:ef:
        9e:f3:32:84:3b:8b:e0:e3:cc:a1:b1:6d:80:88:f2:2c:74:de:
        82:21:11:99:60:19:29:85:ba:24:c9:cf:f1:b6:50:ce:1b:16:
        6e:7a:e2:89:8d:0c:1d:52:d8:b7:e4:5a:c1:91:67:88:70:8c:
        13:a5:6d:1e:37:d7:48:96:d1:a2:5b:82:ea:8a:ec:3f:5e:46:
        97:8b:4c:6a:9a:45:4d:57:d1:b7:e2:1b:96:a2:d1:31:3e:ce:
        c6:f2:10:59:b7:84:c4:76:37:01:44:f2:27:20:62:58:f7:d9:
        13:b4:09:a9:f5:19:9b:b1:0a:33:a1:a7:f7:b2:44:61:d7:37:
        9f:3f:cc:b5:5b:f4:80:e6:4b:7d:ec:be:e0:0c:32:62:2d:52:
        58:c7:86:52:c2:2b:a5:1c:ce:dd:3f:6c:8f:8e:b2:4a:87:4e:
        22:db:2c:c9:b4:94:bd:0a:fa:8c:e1:26:20:f8:45:f5:40:a7:
        f0:57:b1:b5:5b:44:4f:36:22:55:8e:7b:87:52:f0:d7:1f:5c:
        85:53:ce:1d:66:d6:ae:ac:60:31:ae:3c:53:b7:ea:a7:f4:08:
        f6:96:6a:e2:3c:29
-----BEGIN CERTIFICATE-----
MIIFyDCCBDCgAwIBAgIQX21CAL46DU6G1c+2KlU/YzANBgkqhkiG9w0BAQsFADBD
MRIwEAYDVQQDEwlUZXN0IENBIDIxCzAJBgNVBAsTAkNBMRMwEQYDVQQKEwpFeGFt
cGxlIENvMQswCQYDVQQGEwJVUzAeFw0yNTA4MDMxNjQ1MzVaFw0yNjA4MDMxNjQ1
MzVaME4xCzAJBgNVBAYTAlVTMQ0wCwYDVQQIEwRVdGFoMQ0wCwYDVQQEEwRUZXN0
MSEwHwYDVQQDExhpdnNlcnZlcmF1dGguZXhhbXBsZS5jb20wggIiMA0GCSqGSIb3
DQEBAQUAA4ICDwAwggIKAoICAQDaLB+VZhtJNa8sr4wRKfsOARllHUzDAX6SpC08
BdKqRdPcHah67ww9jugebaWA4SdzYn4BRT4Xj3beLlesiMiIEfY2JAp1FqmoSZlf
JspCIzNthpt3QzTDd0M2sc7/L70k/Eaz8/0AaQRoIYC9ZmJ2hMcP8cyx38Yn9ok/
PW6C3jqHxJp0D9xXWgyXvW1MNmUgzeBME5V6yDrf1mxVxTc/YDHMFCUuF5+ZZcC7
aTaR+jApwM8PbO8TO9OoDnJ985f5kC5rArwgyha2Vywq1RXRgBFvWISmZlVoMSEp
U4QG/7qIeAMBYo+MCMQl9Bv5uhZlGSx0rsjU0hrE5b4KP4oGxBqMwp1O2pao/C0S
ezt9q8E/NVIEzYxMnfecj0SX5SmCFmJwUMte//yi4G3InLgPNDlu4FQzHpWt/C3j
FQ4X+nbYo4XziwrP7VBsdG+C1GH4EE4lm4PdjoGuSJjYGW/HoIQTlRKOzckdGZN/
EzcQ019K5wEKkbQxq+iNyx79jngtT1NJ7UfL5Akiwwahl+X6nSX/AD59orkHzzxb
dzzOOCtlci+EZ0zqJDXuZ+rc0VZOv0pnaxCQLiG4t7xPBm3JCB40kr1sGCl2wFWK
M2On/5qFp9y9y382JtS/w4yZkSBzuCDt7iGW7V1fjw6DTZLwV2JIVPDHeDgT1CKa
iLeiEwIDAQABo4IBKzCCAScwDgYDVR0PAQH/BAQDAgeAMBMGA1UdJQQMMAoGCCsG
AQUFBwMBMBAGA1UdIwQJMAeABQECAwQGMFsGCCsGAQUFBwEBBE8wTTAjBggrBgEF
BQcwAYYXaHR0cDovL29jc3AuZXhhbXBsZS5jb20wJgYIKwYBBQUHMAKGGmh0dHA6
Ly9leGFtcGxlLmNvbS9jYTEuY3J0MCMGA1UdEQQcMBqCGGl2c2VydmVyYXV0aC5l
eGFtcGxlLmNvbTATBgNVHSAEDDAKMAgGBmeBDAECAzBXBgNVHR8EUDBOMCWgI6Ah
hh9odHRwOi8vY3JsMS5leGFtcGxlLmNvbS9jYTEuY3JsMCWgI6Ahhh9odHRwOi8v
Y3JsMi5leGFtcGxlLmNvbS9jYTEuY3JsMA0GCSqGSIb3DQEBCwUAA4IBgQBt3i9l
JeabzE3uYtF38twZHQWjbEgCbhVYgA7G3NKPfASh8uBsgN47DA3RaJ9vFYEstYgh
aLSBAN3PagjIdv5nzjo+2rBTWtfhMBTfyLz3LzOzIRg0splUEGdteShaZk94nuy4
B8Bes0dLOyWrkCRSUNLBwN8yERfmHR5GFfBuPpAvo5hC92UbhSVzkV+lbHtvZMf7
NrTB3JfBRUfcPXr8kO+e8zKEO4vg48yhsW2AiPIsdN6CIRGZYBkphbokyc/xtlDO
GxZueuKJjQwdUti35FrBkWeIcIwTpW0eN9dIltGiW4Lqiuw/XkaXi0xqmkVNV9G3
4huWotExPs7G8hBZt4TEdjcBRPInIGJY99kTtAmp9RmbsQozoaf3skRh1zefP8y1
W/SA5kt97L7gDDJiLVJYx4ZSwiulHM7dP2yPjrJKh04i2yzJtJS9CvqM4SYg+EX1
QKfwV7G1W0RPNiJVjnuHUvDXH1yFU84dZtaurGAxrjxTt+qn9Aj2lmriPCk=
-----END CERTIFICATE-----
