Certificate:
    Data:
        Version: 3 (0x2)
        Serial Number: 18008675309 (0x4316693ed)
    Signature Algorithm: sha256WithRSAEncryption
        Issuer: C = US, O = Mother Nature, OU = Everything, CN = Mother Nature
        Validity
            Not Before: Jan  1 00:00:00 2010 GMT
            Not After : Jan  1 00:00:00 2013 GMT
        Subject: C = US, O = Extreme Discord, OU = Chaos, L = Tallahassee, ST = FL, street = 3210 Holly Mill Run, postalCode = 30062, CN = gov.us
        Subject Public Key Info:
            Public Key Algorithm: rsaEncryption
                Public-Key: (512 bit)
                Modulus:
                    00:b3:d9:80:24:40:70:72:20:8e:46:82:9c:8d:a4:
                    cd:ae:80:3f:43:b2:51:7f:23:29:19:b9:3f:f5:3e:
                    10:ff:2e:70:91:01:e0:b5:22:9a:6a:0b:a5:d5:b4:
                    33:09:28:32:f7:f8:70:50:a3:82:7f:0b:8f:8a:9e:
                    51:4f:a6:8d:f7
                Exponent: 65537 (0x10001)
        X509v3 extensions:
            X509v3 Key Usage: critical
                Digital Signature, Key Encipherment
            X509v3 Extended Key Usage: 
                TLS Web Client Authentication, TLS Web Server Authentication
            X509v3 Basic Constraints: critical
                CA:TRUE
            X509v3 Authority Key Identifier: 
                keyid:01:02:03

            Authority Information Access: 
                OCSP - URI:http://theca.net/ocsp
                CA Issuers - URI:http://theca.net/totallythecert.crt

            X509v3 Certificate Policies: 
                Policy: 2.23.140.1.2.2

            X509v3 Subject Key Identifier: 
                04:03:02:01
            X509v3 Subject Alternative Name: 
                DNS:*.gov.us, DNS:gov.us
            X509v3 Inhibit Any Policy: 
                ..
    Signature Algorithm: sha256WithRSAEncryption
         2b:e7:05:da:e6:82:36:5c:91:ff:02:db:15:5e:ef:cb:8e:93:
         bf:92:26:89:aa:f6:e4:96:56:29:f1:95:54:0c:e3:3a:4b:97:
         78:e9:f3:c7:35:ef:6d:f3:aa:30:7a:1e:20:ae:f1:c3:29:69:
         0d:d4:03:51:b5:50:31:3d:89:e1
-----BEGIN CERTIFICATE-----
MIIC5zCCApGgAwIBAgIFBDFmk+0wDQYJKoZIhvcNAQELBQAwUjELMAkGA1UEBhMC
VVMxFjAUBgNVBAoTDU1vdGhlciBOYXR1cmUxEzARBgNVBAsTCkV2ZXJ5dGhpbmcx
FjAUBgNVBAMTDU1vdGhlciBOYXR1cmUwHhcNMTAwMTAxMDAwMDAwWhcNMTMwMTAx
MDAwMDAwWjCBmTELMAkGA1UEBhMCVVMxGDAWBgNVBAoTD0V4dHJlbWUgRGlzY29y
ZDEOMAwGA1UECxMFQ2hhb3MxFDASBgNVBAcTC1RhbGxhaGFzc2VlMQswCQYDVQQI
EwJGTDEcMBoGA1UECRMTMzIxMCBIb2xseSBNaWxsIFJ1bjEOMAwGA1UEERMFMzAw
NjIxDzANBgNVBAMTBmdvdi51czBcMA0GCSqGSIb3DQEBAQUAA0sAMEgCQQCz2YAk
QHByII5GgpyNpM2ugD9DslF/IykZuT/1PhD/LnCRAeC1IppqC6XVtDMJKDL3+HBQ
o4J/C4+KnlFPpo33AgMBAAGjggEEMIIBADAOBgNVHQ8BAf8EBAMCBaAwHQYDVR0l
BBYwFAYIKwYBBQUHAwIGCCsGAQUFBwMBMA8GA1UdEwEB/wQFMAMBAf8wDgYDVR0j
BAcwBYADAQIDMGIGCCsGAQUFBwEBBFYwVDAhBggrBgEFBQcwAYYVaHR0cDovL3Ro
ZWNhLm5ldC9vY3NwMC8GCCsGAQUFBzAChiNodHRwOi8vdGhlY2EubmV0L3RvdGFs
bHl0aGVjZXJ0LmNydDATBgNVHSAEDDAKMAgGBmeBDAECAjANBgNVHQ4EBgQEBAMC
ATAbBgNVHREEFDASgggqLmdvdi51c4IGZ292LnVzMAkGA1UdNgQCAgEwDQYJKoZI
hvcNAQELBQADQQAr5wXa5oI2XJH/AtsVXu/LjpO/kiaJqvbkllYp8ZVUDOM6S5d4
6fPHNe9t86oweh4grvHDKWkN1ANRtVAxPYnh
-----END CERTIFICATE-----
