Certificate:
    Data:
        Version: 3 (0x2)
        Serial Number:
            e8:b9:b7:db:bd:e6:79:f2:f0:b3:2a:51:eb:ff:0f:a2
        Signature Algorithm: sha256WithRSAEncryption
        Issuer: C = EU, O = Some CA, CN = Fake CA for zlint testing
        Validity
            Not Before: Apr  9 11:56:08 2024 GMT
            Not After : Apr  9 11:56:08 2025 GMT
        Subject: C = IT, ST = Some State or Province, L = Somewhere, O = Some Company Ltd., CN = example.com, serialNumber = 1234567890, businessCategory = Healthcare
        Subject Public Key Info:
            Public Key Algorithm: rsaEncryption
                RSA Public-Key: (2048 bit)
                Modulus:
                    00:a3:73:4f:ed:5f:05:ff:8b:11:9e:a2:f7:a0:fb:
                    86:39:50:cd:e6:7c:99:14:37:40:a2:43:46:9d:74:
                    ed:f9:6e:f3:c3:0a:68:20:11:1a:96:2a:70:89:6f:
                    2a:cd:fb:af:f6:75:e0:8d:c0:fd:1d:4e:64:7a:66:
                    81:c5:c3:34:fe:df:59:be:5c:56:0b:8f:8f:e7:4d:
                    87:a5:b4:75:db:44:ea:0c:c9:fc:68:1d:00:b5:68:
                    3b:83:47:6c:6b:23:dd:db:d0:b6:91:d6:e1:b8:6b:
                    d7:e5:4d:9e:7b:f6:c3:74:49:4a:59:bf:d9:60:30:
                    39:b1:1b:fd:b3:74:e7:30:0a:18:ea:ef:d5:62:a8:
                    35:3f:36:de:da:52:99:c8:18:27:f8:b0:5c:a5:3f:
                    f7:0b:89:8a:52:58:0c:85:cd:d6:29:0f:92:fc:7f:
                    46:46:0f:4e:7d:8f:45:96:3f:8b:1a:6d:ca:47:5e:
                    21:e9:9f:0a:1b:d2:a9:2f:37:0f:57:85:57:20:d9:
                    58:b8:c3:79:4d:0d:a6:28:ba:a1:7f:39:fd:dc:d7:
                    08:1d:91:f2:0d:79:e3:28:39:7f:19:3f:83:c0:4e:
                    cb:c8:9c:50:9a:04:4d:9d:f0:77:05:f3:75:77:2d:
                    23:a9:fc:76:3e:97:ef:ae:99:5c:fa:43:15:82:26:
                    aa:e9
                Exponent: 65537 (0x10001)
        X509v3 extensions:
            X509v3 Key Usage: critical
                Digital Signature, Key Encipherment
            X509v3 Extended Key Usage: 
                TLS Web Client Authentication, TLS Web Server Authentication
            X509v3 Subject Key Identifier: 
                35:8E:0E:FF:E7:6C:E2:31:A2:05:75:EF:DA:63:6C:1D:4F:CD:82:4C
            X509v3 Authority Key Identifier: 
                keyid:E8:B6:F6:76:4B:D0:3B:E5:46:A5:F9:54:D4:7E:07:B3:DE:0D:60:3E

            Authority Information Access: 
                OCSP - URI:http://ca.someca-inc.com/ocsp
                CA Issuers - URI:http://ca.someca-inc.com/root

            X509v3 Subject Alternative Name: 
                DNS:example.com
            X509v3 Certificate Policies: 
                Policy: 2.23.140.1.2.2

            X509v3 CRL Distribution Points: 

                Full Name:
                  URI:http://ca.someca-inc.com/crl

    Signature Algorithm: sha256WithRSAEncryption
         0b:10:5f:47:66:d6:dc:58:c0:bb:41:95:c0:f0:fd:e0:4b:06:
         91:c5:ed:1b:25:02:de:d1:72:3a:da:96:fc:78:9a:62:e9:d6:
         be:02:b7:30:1b:da:83:42:a9:99:f9:e3:df:fe:c2:0e:c1:71:
         df:57:1f:2f:27:c3:57:4b:9d:aa:68:15:70:47:06:dd:0f:ef:
         b9:40:49:50:47:63:a2:46:28:0c:93:5b:95:fb:23:12:85:5a:
         2a:8f:db:e9:7c:f3:0f:ec:ea:4b:3c:cf:e8:6c:cf:99:2e:16:
         2b:f2:71:26:fa:85:36:50:29:bc:06:45:c7:74:6b:2c:2a:10:
         0a:ec:ec:b4:12:57:0d:01:d8:38:bb:94:40:fe:f5:b9:3a:2f:
         63:fb:65:9c:ed:36:c2:45:63:08:b6:83:8c:85:92:17:20:3e:
         54:78:10:30:15:62:92:c2:a3:f4:00:6e:b3:b0:a6:68:de:1f:
         de:73:25:6b:31:4c:8b:a6:44:39:f8:83:46:df:32:49:97:c2:
         51:ac:68:47:2b:c8:79:e3:de:92:f6:4a:33:78:32:31:e9:d3:
         33:34:d6:de:b6:d6:2e:00:e8:76:96:49:77:32:54:3c:f1:d0:
         ff:8c:01:db:bd:80:0f:39:56:4f:a9:da:fc:c1:08:a6:ff:c9:
         9c:48:55:87
-----BEGIN CERTIFICATE-----
MIIEpDCCA4ygAwIBAgIRAOi5t9u95nny8LMqUev/D6IwDQYJKoZIhvcNAQELBQAw
QzELMAkGA1UEBhMCRVUxEDAOBgNVBAoTB1NvbWUgQ0ExIjAgBgNVBAMTGUZha2Ug
Q0EgZm9yIHpsaW50IHRlc3RpbmcwHhcNMjQwNDA5MTE1NjA4WhcNMjUwNDA5MTE1
NjA4WjCBnjELMAkGA1UEBhMCSVQxHzAdBgNVBAgTFlNvbWUgU3RhdGUgb3IgUHJv
dmluY2UxEjAQBgNVBAcTCVNvbWV3aGVyZTEaMBgGA1UEChMRU29tZSBDb21wYW55
IEx0ZC4xFDASBgNVBAMTC2V4YW1wbGUuY29tMRMwEQYDVQQFEwoxMjM0NTY3ODkw
MRMwEQYDVQQPEwpIZWFsdGhjYXJlMIIBIjANBgkqhkiG9w0BAQEFAAOCAQ8AMIIB
CgKCAQEAo3NP7V8F/4sRnqL3oPuGOVDN5nyZFDdAokNGnXTt+W7zwwpoIBEalipw
iW8qzfuv9nXgjcD9HU5kemaBxcM0/t9ZvlxWC4+P502HpbR120TqDMn8aB0AtWg7
g0dsayPd29C2kdbhuGvX5U2ee/bDdElKWb/ZYDA5sRv9s3TnMAoY6u/VYqg1Pzbe
2lKZyBgn+LBcpT/3C4mKUlgMhc3WKQ+S/H9GRg9OfY9Flj+LGm3KR14h6Z8KG9Kp
LzcPV4VXINlYuMN5TQ2mKLqhfzn93NcIHZHyDXnjKDl/GT+DwE7LyJxQmgRNnfB3
BfN1dy0jqfx2Ppfvrplc+kMVgiaq6QIDAQABo4IBNTCCATEwDgYDVR0PAQH/BAQD
AgWgMB0GA1UdJQQWMBQGCCsGAQUFBwMCBggrBgEFBQcDATAdBgNVHQ4EFgQUNY4O
/+ds4jGiBXXv2mNsHU/NgkwwHwYDVR0jBBgwFoAU6Lb2dkvQO+VGpflU1H4Hs94N
YD4wZAYIKwYBBQUHAQEEWDBWMCkGCCsGAQUFBzABhh1odHRwOi8vY2Euc29tZWNh
LWluYy5jb20vb2NzcDApBggrBgEFBQcwAoYdaHR0cDovL2NhLnNvbWVjYS1pbmMu
Y29tL3Jvb3QwFgYDVR0RBA8wDYILZXhhbXBsZS5jb20wEwYDVR0gBAwwCjAIBgZn
gQwBAgIwLQYDVR0fBCYwJDAioCCgHoYcaHR0cDovL2NhLnNvbWVjYS1pbmMuY29t
L2NybDANBgkqhkiG9w0BAQsFAAOCAQEACxBfR2bW3FjAu0GVwPD94EsGkcXtGyUC
3tFyOtqW/HiaYunWvgK3MBvag0Kpmfnj3/7CDsFx31cfLyfDV0udqmgVcEcG3Q/v
uUBJUEdjokYoDJNblfsjEoVaKo/b6XzzD+zqSzzP6GzPmS4WK/JxJvqFNlApvAZF
x3RrLCoQCuzstBJXDQHYOLuUQP71uTovY/tlnO02wkVjCLaDjIWSFyA+VHgQMBVi
ksKj9ABus7CmaN4f3nMlazFMi6ZEOfiDRt8ySZfCUaxoRyvIeePekvZKM3gyMenT
MzTW3rbWLgDodpZJdzJUPPHQ/4wB272ADzlWT6na/MEIpv/JnEhVhw==
-----END CERTIFICATE-----
