Certificate:
    Data:
        Version: 3 (0x2)
        Serial Number:
            12:a2:26:01:04:14:ff:24:0a:b8:c7:04:9a:78:c9:0a
        Signature Algorithm: sha256WithRSAEncryption
        Issuer: C = EU, O = Some CA, CN = Fake CA for zlint testing
        Validity
            Not Before: Apr 22 06:56:29 2024 GMT
            Not After : Apr 22 06:56:29 2025 GMT
        Subject: C = IT, ST = Some State or Province, L = Somewhere, O = Some Company Ltd., CN = example.com, serialNumber = 1234567890, businessCategory = Non-Commercial Entity
        Subject Public Key Info:
            Public Key Algorithm: rsaEncryption
                RSA Public-Key: (2048 bit)
                Modulus:
                    00:b5:d2:96:c7:09:5d:80:8f:ad:30:b0:3f:fb:ca:
                    1d:09:0b:13:e5:e6:24:14:b2:91:5e:bc:42:15:7d:
                    47:24:3e:0e:e6:60:4e:04:0d:5d:3a:78:eb:b5:e1:
                    fd:4f:d9:b5:13:a8:ea:c0:63:66:b1:f4:68:af:7a:
                    9b:c5:9f:dd:3d:cc:13:1b:75:58:91:e5:01:a8:d8:
                    b0:bb:a7:e3:92:65:9a:96:58:6d:54:42:8c:92:c2:
                    8b:92:9b:e4:52:8a:b2:42:60:26:32:b5:5a:01:9b:
                    73:67:23:39:b0:2a:0f:dd:d8:81:62:53:84:40:5a:
                    91:3a:55:27:70:d5:34:62:cc:fd:d3:03:15:a3:4b:
                    c4:bc:53:c7:2c:09:9b:c9:c8:1b:57:24:aa:26:fc:
                    29:5f:db:bb:18:ac:d2:3d:20:ce:8c:64:10:8f:a2:
                    59:92:3d:ca:03:d3:35:43:49:2e:bb:ec:f7:90:6d:
                    72:10:88:9e:05:63:e7:8e:42:e5:6c:36:61:32:8f:
                    9a:87:7e:44:aa:05:90:7a:b8:1d:2b:06:ab:ce:9e:
                    06:29:66:97:1d:51:60:a5:59:07:54:0a:f3:c4:e5:
                    17:75:a1:2f:ee:ac:53:59:08:f6:3e:fe:5c:c1:b4:
                    17:aa:4a:28:e2:3c:e9:2a:59:25:59:a3:d2:23:6a:
                    fc:77
                Exponent: 65537 (0x10001)
        X509v3 extensions:
            X509v3 Key Usage: critical
                Digital Signature, Key Encipherment
            X509v3 Extended Key Usage: 
                TLS Web Client Authentication, TLS Web Server Authentication
            X509v3 Subject Key Identifier: 
                27:4C:59:23:A0:44:FE:B8:95:AB:E1:66:55:97:DB:2C:22:42:68:85
            X509v3 Authority Key Identifier: 
                keyid:E8:B6:F6:76:4B:D0:3B:E5:46:A5:F9:54:D4:7E:07:B3:DE:0D:60:3E

            Authority Information Access: 
                OCSP - URI:http://ca.someca-inc.com/ocsp
                CA Issuers - URI:http://ca.someca-inc.com/root

            X509v3 Subject Alternative Name: 
                DNS:example.com
            X509v3 Certificate Policies: 
                Policy: 2.23.140.1.1

            X509v3 CRL Distribution Points: 

                Full Name:
                  URI:http://ca.someca-inc.com/crl

    Signature Algorithm: sha256WithRSAEncryption
         37:61:27:c7:b0:10:5b:9f:fe:7e:61:b4:a5:98:c3:8b:1c:3f:
         46:99:21:da:bc:c9:c0:8b:0f:30:18:0a:d2:c7:64:cc:32:3c:
         3e:13:f2:17:c4:fb:a8:47:f2:4b:f6:40:7b:2a:88:1d:ea:6d:
         c1:07:6f:f4:f4:08:b9:31:ea:d2:97:c0:e8:a7:fa:97:1e:08:
         39:6a:c7:78:e6:6a:92:9b:dc:93:75:88:19:cb:0a:27:0f:16:
         0c:0e:bd:a3:2d:3e:c1:5c:5c:89:85:f6:b1:5d:fc:6c:82:3f:
         fb:a4:45:67:a5:9d:43:f8:a1:85:cf:fe:5f:ff:c6:99:d6:da:
         2f:f3:b2:11:0b:80:46:3a:2f:8e:4e:66:b0:29:62:31:6b:ea:
         54:0a:2f:9b:b0:0c:a7:cf:06:9e:48:ee:5b:81:d8:0c:07:7f:
         58:d3:f0:5e:b4:da:99:93:7e:32:f6:d4:a5:af:da:5c:a0:71:
         eb:91:4b:1c:80:22:ba:14:e0:db:65:50:8f:8e:da:76:90:94:
         68:45:43:7a:97:29:13:6e:a5:cf:ce:d3:64:c5:35:f6:32:f4:
         d6:af:0c:ce:0f:e5:6e:08:7d:51:3e:92:3c:6f:80:4e:c7:38:
         3c:9f:68:b2:72:ca:98:f7:bd:e3:67:75:fb:16:e9:8e:84:db:
         aa:a1:d5:09
-----BEGIN CERTIFICATE-----
MIIErTCCA5WgAwIBAgIQEqImAQQU/yQKuMcEmnjJCjANBgkqhkiG9w0BAQsFADBD
MQswCQYDVQQGEwJFVTEQMA4GA1UEChMHU29tZSBDQTEiMCAGA1UEAxMZRmFrZSBD
QSBmb3IgemxpbnQgdGVzdGluZzAeFw0yNDA0MjIwNjU2MjlaFw0yNTA0MjIwNjU2
MjlaMIGpMQswCQYDVQQGEwJJVDEfMB0GA1UECBMWU29tZSBTdGF0ZSBvciBQcm92
aW5jZTESMBAGA1UEBxMJU29tZXdoZXJlMRowGAYDVQQKExFTb21lIENvbXBhbnkg
THRkLjEUMBIGA1UEAxMLZXhhbXBsZS5jb20xEzARBgNVBAUTCjEyMzQ1Njc4OTAx
HjAcBgNVBA8TFU5vbi1Db21tZXJjaWFsIEVudGl0eTCCASIwDQYJKoZIhvcNAQEB
BQADggEPADCCAQoCggEBALXSlscJXYCPrTCwP/vKHQkLE+XmJBSykV68QhV9RyQ+
DuZgTgQNXTp467Xh/U/ZtROo6sBjZrH0aK96m8Wf3T3MExt1WJHlAajYsLun45Jl
mpZYbVRCjJLCi5Kb5FKKskJgJjK1WgGbc2cjObAqD93YgWJThEBakTpVJ3DVNGLM
/dMDFaNLxLxTxywJm8nIG1ckqib8KV/buxis0j0gzoxkEI+iWZI9ygPTNUNJLrvs
95BtchCIngVj545C5Ww2YTKPmod+RKoFkHq4HSsGq86eBilmlx1RYKVZB1QK88Tl
F3WhL+6sU1kI9j7+XMG0F6pKKOI86SpZJVmj0iNq/HcCAwEAAaOCATQwggEwMA4G
A1UdDwEB/wQEAwIFoDAdBgNVHSUEFjAUBggrBgEFBQcDAgYIKwYBBQUHAwEwHQYD
VR0OBBYEFCdMWSOgRP64lavhZlWX2ywiQmiFMB8GA1UdIwQYMBaAFOi29nZL0Dvl
RqX5VNR+B7PeDWA+MGQGCCsGAQUFBwEBBFgwVjApBggrBgEFBQcwAYYdaHR0cDov
L2NhLnNvbWVjYS1pbmMuY29tL29jc3AwKQYIKwYBBQUHMAKGHWh0dHA6Ly9jYS5z
b21lY2EtaW5jLmNvbS9yb290MBYGA1UdEQQPMA2CC2V4YW1wbGUuY29tMBIGA1Ud
IAQLMAkwBwYFZ4EMAQEwLQYDVR0fBCYwJDAioCCgHoYcaHR0cDovL2NhLnNvbWVj
YS1pbmMuY29tL2NybDANBgkqhkiG9w0BAQsFAAOCAQEAN2Enx7AQW5/+fmG0pZjD
ixw/Rpkh2rzJwIsPMBgK0sdkzDI8PhPyF8T7qEfyS/ZAeyqIHeptwQdv9PQIuTHq
0pfA6Kf6lx4IOWrHeOZqkpvck3WIGcsKJw8WDA69oy0+wVxciYX2sV38bII/+6RF
Z6WdQ/ihhc/+X//GmdbaL/OyEQuARjovjk5msCliMWvqVAovm7AMp88GnkjuW4HY
DAd/WNPwXrTamZN+MvbUpa/aXKBx65FLHIAiuhTg22VQj47adpCUaEVDepcpE26l
z87TZMU19jL01q8Mzg/lbgh9UT6SPG+ATsc4PJ9osnLKmPe942d1+xbpjoTbqqHV
CQ==
-----END CERTIFICATE-----
