Certificate:
    Data:
        Version: 3 (0x2)
        Serial Number:
            93:9e:e2:63:3d:b5:42:c6:bd:a4:0b:4a:f3:d9:73:b2
        Signature Algorithm: sha256WithRSAEncryption
        Issuer: C = EU, O = Some CA, CN = Fake CA for zlint testing
        Validity
            Not Before: Apr  9 11:52:12 2024 GMT
            Not After : Apr  9 11:52:12 2025 GMT
        Subject: C = IT, ST = Some State or Province, L = Somewhere, O = Some Company Ltd., CN = example.com, serialNumber = 1234567890, businessCategory = Private Organization
        Subject Public Key Info:
            Public Key Algorithm: rsaEncryption
                RSA Public-Key: (2048 bit)
                Modulus:
                    00:d0:20:3d:db:19:c5:19:75:8a:7d:ca:c3:cd:20:
                    46:3d:de:f4:bc:c9:4b:e1:37:68:24:0d:9e:ed:6c:
                    f6:7a:b1:23:95:3b:56:60:75:09:bf:e7:dc:dd:c1:
                    78:91:21:d7:dd:07:1b:c9:1e:e3:a3:ba:b9:0f:ee:
                    15:84:95:a8:b0:b9:53:45:bc:ff:3d:e2:2a:1e:65:
                    0b:59:43:e1:d7:76:7f:4e:e6:91:fb:23:34:6c:23:
                    07:3b:45:52:eb:ee:8b:c2:58:ec:57:83:19:b5:dd:
                    f0:27:98:5d:c0:e4:a1:62:9f:66:a8:83:f1:8c:19:
                    f3:09:27:ad:93:e7:4a:51:7b:a1:10:48:68:bd:9d:
                    be:2c:05:0b:87:bb:e3:36:3c:54:b1:4a:85:10:98:
                    11:9e:c9:05:b2:c1:d7:4d:e6:d9:9f:6b:b7:87:25:
                    83:6e:5f:cb:2a:d1:f0:da:1e:69:fd:bf:1a:e5:af:
                    75:0c:d3:ff:86:a6:72:19:a4:3a:15:b1:b6:44:87:
                    d0:a9:fd:1c:df:84:e0:38:55:74:32:dd:f4:ef:fd:
                    c2:64:ec:e1:ad:0f:8d:76:36:26:39:b7:cf:3b:ed:
                    78:d1:8f:7b:65:42:8a:c5:cb:f8:83:59:6c:48:ff:
                    a7:f5:5b:c8:da:cb:57:b9:3f:de:9b:5e:f6:ae:c2:
                    d8:5f
                Exponent: 65537 (0x10001)
        X509v3 extensions:
            X509v3 Key Usage: critical
                Digital Signature, Key Encipherment
            X509v3 Extended Key Usage: 
                TLS Web Client Authentication, TLS Web Server Authentication
            X509v3 Subject Key Identifier: 
                77:D2:6F:BF:CC:53:C5:ED:FA:3D:97:D8:E4:A5:36:7C:C7:FC:5D:9F
            X509v3 Authority Key Identifier: 
                keyid:E8:B6:F6:76:4B:D0:3B:E5:46:A5:F9:54:D4:7E:07:B3:DE:0D:60:3E

            Authority Information Access: 
                OCSP - URI:http://ca.someca-inc.com/ocsp
                CA Issuers - URI:http://ca.someca-inc.com/root

            X509v3 Subject Alternative Name: 
                DNS:example.com
            X509v3 Certificate Policies: 
                Policy: 2.23.140.1.1

            X509v3 CRL Distribution Points: 

                Full Name:
                  URI:http://ca.someca-inc.com/crl

    Signature Algorithm: sha256WithRSAEncryption
         91:ad:45:08:34:ce:96:3f:40:fa:ac:e0:53:bf:f6:7a:9b:5b:
         45:91:44:13:d6:15:30:9f:20:8d:f8:60:1d:28:4d:7d:87:30:
         13:49:96:61:af:49:e1:9a:20:c4:2c:fd:23:ca:32:78:39:55:
         fb:f9:91:07:c2:d9:c9:e5:37:4c:ab:d1:21:ab:ef:7e:d1:19:
         8c:cb:5d:ff:cd:07:65:34:49:90:35:35:69:cd:d7:e1:51:68:
         8c:70:ac:44:3f:0c:0d:16:f7:30:7e:22:d3:5b:64:89:13:20:
         a5:db:7e:a8:05:04:47:0d:5a:23:29:06:61:71:af:a5:46:58:
         23:16:35:54:9b:de:33:06:d4:a4:f0:15:fb:ff:6c:d3:bb:bb:
         44:b3:a4:6c:08:ac:99:58:bc:54:70:43:7f:7a:7b:27:81:26:
         54:51:6b:49:a1:18:bb:d9:bf:8d:5e:02:3a:65:19:a8:18:da:
         f1:d1:f7:58:bb:47:26:d9:5e:f0:00:81:1f:a6:5d:d4:75:92:
         7d:79:64:0f:6b:69:4c:4d:98:e3:6d:8d:6f:20:75:ff:00:fd:
         65:30:c5:15:26:1a:eb:9c:dc:16:7d:a9:25:d3:e5:ea:db:a6:
         94:29:cc:35:0c:71:a5:6a:61:a5:6c:6b:7f:30:a4:ee:36:18:
         58:8d:ba:66
-----BEGIN CERTIFICATE-----
MIIErTCCA5WgAwIBAgIRAJOe4mM9tULGvaQLSvPZc7IwDQYJKoZIhvcNAQELBQAw
QzELMAkGA1UEBhMCRVUxEDAOBgNVBAoTB1NvbWUgQ0ExIjAgBgNVBAMTGUZha2Ug
Q0EgZm9yIHpsaW50IHRlc3RpbmcwHhcNMjQwNDA5MTE1MjEyWhcNMjUwNDA5MTE1
MjEyWjCBqDELMAkGA1UEBhMCSVQxHzAdBgNVBAgTFlNvbWUgU3RhdGUgb3IgUHJv
dmluY2UxEjAQBgNVBAcTCVNvbWV3aGVyZTEaMBgGA1UEChMRU29tZSBDb21wYW55
IEx0ZC4xFDASBgNVBAMTC2V4YW1wbGUuY29tMRMwEQYDVQQFEwoxMjM0NTY3ODkw
MR0wGwYDVQQPExRQcml2YXRlIE9yZ2FuaXphdGlvbjCCASIwDQYJKoZIhvcNAQEB
BQADggEPADCCAQoCggEBANAgPdsZxRl1in3Kw80gRj3e9LzJS+E3aCQNnu1s9nqx
I5U7VmB1Cb/n3N3BeJEh190HG8ke46O6uQ/uFYSVqLC5U0W8/z3iKh5lC1lD4dd2
f07mkfsjNGwjBztFUuvui8JY7FeDGbXd8CeYXcDkoWKfZqiD8YwZ8wknrZPnSlF7
oRBIaL2dviwFC4e74zY8VLFKhRCYEZ7JBbLB103m2Z9rt4clg25fyyrR8Noeaf2/
GuWvdQzT/4amchmkOhWxtkSH0Kn9HN+E4DhVdDLd9O/9wmTs4a0PjXY2Jjm3zzvt
eNGPe2VCisXL+INZbEj/p/VbyNrLV7k/3pte9q7C2F8CAwEAAaOCATQwggEwMA4G
A1UdDwEB/wQEAwIFoDAdBgNVHSUEFjAUBggrBgEFBQcDAgYIKwYBBQUHAwEwHQYD
VR0OBBYEFHfSb7/MU8Xt+j2X2OSlNnzH/F2fMB8GA1UdIwQYMBaAFOi29nZL0Dvl
RqX5VNR+B7PeDWA+MGQGCCsGAQUFBwEBBFgwVjApBggrBgEFBQcwAYYdaHR0cDov
L2NhLnNvbWVjYS1pbmMuY29tL29jc3AwKQYIKwYBBQUHMAKGHWh0dHA6Ly9jYS5z
b21lY2EtaW5jLmNvbS9yb290MBYGA1UdEQQPMA2CC2V4YW1wbGUuY29tMBIGA1Ud
IAQLMAkwBwYFZ4EMAQEwLQYDVR0fBCYwJDAioCCgHoYcaHR0cDovL2NhLnNvbWVj
YS1pbmMuY29tL2NybDANBgkqhkiG9w0BAQsFAAOCAQEAka1FCDTOlj9A+qzgU7/2
eptbRZFEE9YVMJ8gjfhgHShNfYcwE0mWYa9J4ZogxCz9I8oyeDlV+/mRB8LZyeU3
TKvRIavvftEZjMtd/80HZTRJkDU1ac3X4VFojHCsRD8MDRb3MH4i01tkiRMgpdt+
qAUERw1aIykGYXGvpUZYIxY1VJveMwbUpPAV+/9s07u7RLOkbAismVi8VHBDf3p7
J4EmVFFrSaEYu9m/jV4COmUZqBja8dH3WLtHJtle8ACBH6Zd1HWSfXlkD2tpTE2Y
422NbyB1/wD9ZTDFFSYa65zcFn2pJdPl6tumlCnMNQxxpWphpWxrfzCk7jYYWI26
Zg==
-----END CERTIFICATE-----
