Certificate:
    Data:
        Version: 3 (0x2)
        Serial Number: 1059656979734169929 (0xeb4a868a4d18949)
        Signature Algorithm: sha256WithRSAEncryption
        Issuer: C = IT, ST = Milano, L = Santa Redegonda, O = Certificati Gratis S.p.A., CN = Certificati Gratis CA
        Validity
            Not Before: Mar 30 16:57:00 2024 GMT
            Not After : Aug 13 16:57:00 2024 GMT
        Subject: C = AU, ST = Some State, L = Some Locality, O = Some Company Ltd., CN = example.org
        Subject Public Key Info:
            Public Key Algorithm: rsaEncryption
                RSA Public-Key: (2048 bit)
                Modulus:
                    00:bc:ae:30:0d:6a:39:0c:02:14:f6:98:c2:97:6e:
                    c3:e2:a3:27:f8:e1:48:da:66:17:d7:d4:23:f9:47:
                    e0:6c:67:ea:a4:7b:54:fa:b2:50:21:86:0b:69:7a:
                    67:a2:e8:44:05:9d:fc:50:82:cc:91:3d:ef:22:d3:
                    af:83:aa:90:db:69:89:d4:9c:e3:97:81:cf:c3:59:
                    d9:c1:64:3c:aa:f3:42:25:3c:ae:3d:2a:48:cd:25:
                    25:ae:59:d9:79:bb:e6:26:d3:cb:44:fa:21:5b:d5:
                    e3:89:9b:6f:96:f1:fc:3a:5b:c4:0c:52:89:46:48:
                    7b:41:4c:84:9f:cf:79:10:05:52:74:9c:e1:12:29:
                    d7:3b:d8:10:b9:7d:44:73:da:f5:60:ce:1e:54:e9:
                    b1:1d:7f:4c:ac:2c:23:f3:91:59:12:df:f9:07:a3:
                    da:be:8e:18:a1:b5:74:60:e2:f9:64:52:30:65:f9:
                    e8:75:22:21:4d:f6:4f:e2:47:c4:5b:f7:ea:b2:be:
                    90:3d:9a:13:f3:7e:51:c7:6e:3e:bb:3f:43:9c:c7:
                    aa:e1:26:11:e6:40:c5:ab:b2:4a:f3:44:36:19:8f:
                    3d:d6:4a:45:1d:d2:db:03:53:ee:64:16:92:95:6e:
                    92:ab:19:33:06:d8:ad:4d:a1:1e:39:4d:44:80:3c:
                    e9:23
                Exponent: 65537 (0x10001)
        X509v3 extensions:
            X509v3 Basic Constraints: critical
                CA:FALSE
            X509v3 Subject Key Identifier: 
                EF:A0:F9:31:2D:85:84:CF:39:D0:3A:8C:12:51:59:26:35:CB:C5:91
            X509v3 Key Usage: critical
                Digital Signature, Key Encipherment
            X509v3 Extended Key Usage: 
                TLS Web Server Authentication, TLS Web Client Authentication
            X509v3 Subject Alternative Name: 
                DNS:example.org
            X509v3 Certificate Policies: 
                Policy: 2.23.140.1.2.2
                Policy: 1.2.3.4.5
                  CPS: https://www.some-ca.inc/cps
                Policy: 1.3.6.1.5.1.1234567890.1.1
                  CPS: this is not a valid url

    Signature Algorithm: sha256WithRSAEncryption
         93:29:fc:e5:54:0f:83:0a:37:36:85:37:90:d0:9c:4b:af:56:
         23:3e:88:6d:25:41:d2:23:4b:87:ee:9f:8b:6c:9b:eb:0d:5e:
         10:fa:44:8f:26:33:31:ec:7e:a8:7f:4a:91:ad:2b:fc:7c:db:
         f3:fa:4c:76:5e:d6:39:78:99:f3:a6:52:ed:61:8e:8e:8f:71:
         9b:e6:d8:75:dd:b5:47:c3:f7:84:e8:ad:09:52:c9:76:0c:b2:
         d3:e1:a9:cf:52:05:b2:d5:7e:9a:f4:67:15:7b:43:7e:7e:3f:
         84:ec:ca:a5:c8:b8:6e:09:64:6d:c7:58:53:e0:66:61:2d:9d:
         fe:c7:e8:ff:1a:b0:ca:93:6f:c5:9f:4c:46:ef:54:41:f7:05:
         a8:89:0f:64:27:1c:71:3a:1c:fa:ab:d0:0e:09:8b:67:f5:ce:
         c5:5b:cb:bd:e6:42:e0:ef:75:f2:73:26:8e:a6:22:cd:b0:52:
         4d:ed:e5:cf:c2:64:2d:03:f2:b3:86:db:06:74:25:a8:19:e3:
         16:43:d9:0d:f7:31:58:d3:cb:5d:c4:74:1d:fa:30:a7:c1:b7:
         7e:3c:e1:9e:f1:6f:2b:5c:73:c2:68:33:2d:24:28:52:a1:f5:
         14:a5:9a:d7:27:fc:a9:be:7e:e9:05:e9:78:2f:6f:c4:ce:96:
         22:b6:f5:41:af:8d:c0:8a:85:c5:35:47:d0:8a:9c:71:e7:44:
         0f:34:5f:f3:fe:44:95:76:b3:1e:ad:a4:ee:cb:3c:3f:5a:bc:
         6f:43:55:a8:b9:80:47:38:c1:43:c0:f2:71:e9:d0:2b:b3:16:
         3d:3c:81:16:49:0c:d1:05:f0:5b:66:a9:02:a2:38:db:74:9c:
         0c:a9:50:b3:66:d8:12:80:8d:e1:dd:22:f3:22:4d:80:ce:2e:
         86:a2:8b:c0:d1:92:f7:8c:6d:1f:30:1d:d4:4c:8e:b5:91:b1:
         dd:18:f9:9c:98:18:0f:ab:24:c9:ea:6f:9f:91:51:81:b0:ec:
         73:d1:c8:6f:f7:fd:62:2b:d8:18:eb:08:4b:32:ee:37:df:f7:
         ed:0a:c7:6f:6f:ef:9e:6f:e4:9d:f5:c4:23:ab:de:38:74:7c:
         89:85:77:f1:5c:54:8f:71:33:9f:2c:fb:e5:58:92:f2:eb:de:
         90:04:b9:f5:b9:72:35:d0:10:75:e0:5a:0f:93:fa:1f:de:27:
         14:ff:60:a4:91:ac:e0:f4:57:a0:d5:21:ee:8a:79:e8:20:c7:
         66:82:30:3c:8b:eb:3c:7a:0c:33:64:e6:8c:2e:15:fd:60:62:
         9d:38:d1:03:3d:3d:09:69:c9:71:d8:ca:68:c1:54:80:e1:3a:
         bb:71:aa:90:bc:11:81:3b
-----BEGIN CERTIFICATE-----
MIIFYTCCA0mgAwIBAgIIDrSoaKTRiUkwDQYJKoZIhvcNAQELBQAwfDELMAkGA1UE
BhMCSVQxDzANBgNVBAgTBk1pbGFubzEYMBYGA1UEBxMPU2FudGEgUmVkZWdvbmRh
MSIwIAYDVQQKExlDZXJ0aWZpY2F0aSBHcmF0aXMgUy5wLkEuMR4wHAYDVQQDExVD
ZXJ0aWZpY2F0aSBHcmF0aXMgQ0EwHhcNMjQwMzMwMTY1NzAwWhcNMjQwODEzMTY1
NzAwWjBsMQswCQYDVQQGEwJBVTETMBEGA1UECBMKU29tZSBTdGF0ZTEWMBQGA1UE
BxMNU29tZSBMb2NhbGl0eTEaMBgGA1UEChMRU29tZSBDb21wYW55IEx0ZC4xFDAS
BgNVBAMTC2V4YW1wbGUub3JnMIIBIjANBgkqhkiG9w0BAQEFAAOCAQ8AMIIBCgKC
AQEAvK4wDWo5DAIU9pjCl27D4qMn+OFI2mYX19Qj+UfgbGfqpHtU+rJQIYYLaXpn
ouhEBZ38UILMkT3vItOvg6qQ22mJ1Jzjl4HPw1nZwWQ8qvNCJTyuPSpIzSUlrlnZ
ebvmJtPLRPohW9XjiZtvlvH8OlvEDFKJRkh7QUyEn895EAVSdJzhEinXO9gQuX1E
c9r1YM4eVOmxHX9MrCwj85FZEt/5B6Pavo4YobV0YOL5ZFIwZfnodSIhTfZP4kfE
W/fqsr6QPZoT835Rx24+uz9DnMeq4SYR5kDFq7JK80Q2GY891kpFHdLbA1PuZBaS
lW6SqxkzBtitTaEeOU1EgDzpIwIDAQABo4H2MIHzMAwGA1UdEwEB/wQCMAAwHQYD
VR0OBBYEFO+g+TEthYTPOdA6jBJRWSY1y8WRMA4GA1UdDwEB/wQEAwIFoDAdBgNV
HSUEFjAUBggrBgEFBQcDAQYIKwYBBQUHAwIwFgYDVR0RBA8wDYILZXhhbXBsZS5v
cmcwfQYDVR0gBHYwdDAIBgZngQwBAgIwMQYEKgMEBTApMCcGCCsGAQUFBwIBFhto
dHRwczovL3d3dy5zb21lLWNhLmluYy9jcHMwNQYMKwYBBQGEzNiFUgEBMCUwIwYI
KwYBBQUHAgEWF3RoaXMgaXMgbm90IGEgdmFsaWQgdXJsMA0GCSqGSIb3DQEBCwUA
A4ICAQCTKfzlVA+DCjc2hTeQ0JxLr1YjPohtJUHSI0uH7p+LbJvrDV4Q+kSPJjMx
7H6of0qRrSv8fNvz+kx2XtY5eJnzplLtYY6Oj3Gb5th13bVHw/eE6K0JUsl2DLLT
4anPUgWy1X6a9GcVe0N+fj+E7MqlyLhuCWRtx1hT4GZhLZ3+x+j/GrDKk2/Fn0xG
71RB9wWoiQ9kJxxxOhz6q9AOCYtn9c7FW8u95kLg73XycyaOpiLNsFJN7eXPwmQt
A/KzhtsGdCWoGeMWQ9kN9zFY08tdxHQd+jCnwbd+POGe8W8rXHPCaDMtJChSofUU
pZrXJ/ypvn7pBel4L2/EzpYitvVBr43AioXFNUfQipxx50QPNF/z/kSVdrMeraTu
yzw/WrxvQ1WouYBHOMFDwPJx6dArsxY9PIEWSQzRBfBbZqkCojjbdJwMqVCzZtgS
gI3h3SLzIk2Azi6GoovA0ZL3jG0fMB3UTI61kbHdGPmcmBgPqyTJ6m+fkVGBsOxz
0chv9/1iK9gY6whLMu433/ftCsdvb++eb+Sd9cQjq944dHyJhXfxXFSPcTOfLPvl
WJLy696QBLn1uXI10BB14FoPk/of3icU/2Ckkazg9Feg1SHuinnoIMdmgjA8i+s8
egwzZOaMLhX9YGKdONEDPT0Jaclx2MpowVSA4Tq7caqQvBGBOw==
-----END CERTIFICATE-----
