Certificate:
    Data:
        Version: 3 (0x2)
        Serial Number:
            39:c9:db:a1:e6:08:11:4e:f6:03:49:e0:a3:bd:10:0a
        Signature Algorithm: sha256WithRSAEncryption
        Issuer: C = EU, O = Some CA, CN = Fake CA for zlint testing
        Validity
            Not Before: Apr  9 16:00:55 2024 GMT
            Not After : Apr  9 16:00:55 2025 GMT
        Subject: C = IT, ST = Some State or Province, L = Somewhere, O = Some Company Ltd., CN = example.com, serialNumber = 1234567890, businessCategory = Non\E2\80\90Commercial Entity
        Subject Public Key Info:
            Public Key Algorithm: rsaEncryption
                RSA Public-Key: (2048 bit)
                Modulus:
                    00:c6:3f:49:9f:1e:9b:63:d1:ba:b4:bc:71:fc:02:
                    3b:55:60:a5:df:31:ee:1b:a2:31:e8:a9:08:7f:14:
                    ce:97:84:07:3e:32:4b:9d:cc:05:04:91:da:81:a6:
                    49:ce:65:cc:fe:f3:9e:db:bf:de:14:18:be:00:59:
                    01:5e:ef:8c:00:5a:34:9d:73:cb:08:88:dd:b3:1d:
                    e4:cd:1d:38:7b:21:7e:09:94:0c:02:42:ed:56:4f:
                    83:b0:dd:4b:62:83:11:e0:52:17:6d:d6:71:da:b5:
                    d1:35:4e:fd:ca:1e:5a:8c:9f:fa:2a:bf:58:ab:d4:
                    55:54:ef:2e:e1:f0:e5:38:b3:9b:03:ed:75:d1:24:
                    18:c8:55:45:d7:cb:2f:e1:da:79:7e:2e:5c:26:56:
                    3f:05:cd:22:f9:2a:5e:41:25:e0:70:0b:73:30:f5:
                    ce:e2:1c:c4:ba:1e:82:74:0e:b9:83:25:68:08:03:
                    be:20:25:3a:a9:93:23:86:d3:49:fe:20:9e:fa:5b:
                    ff:b9:24:57:38:6d:de:df:92:41:e4:68:20:b5:3b:
                    e2:5d:47:73:ba:ef:5d:48:7f:05:29:ec:fa:fa:7b:
                    d1:d5:2e:46:9b:39:8a:39:23:4c:24:12:4f:b9:7d:
                    da:63:e0:8b:d4:7f:68:67:c0:8a:45:82:60:d5:68:
                    14:db
                Exponent: 65537 (0x10001)
        X509v3 extensions:
            X509v3 Key Usage: critical
                Digital Signature, Key Encipherment
            X509v3 Extended Key Usage: 
                TLS Web Client Authentication, TLS Web Server Authentication
            X509v3 Subject Key Identifier: 
                9E:90:1C:68:61:66:28:B6:0F:8A:4D:DD:8D:F0:26:8A:C3:F2:78:77
            X509v3 Authority Key Identifier: 
                keyid:E8:B6:F6:76:4B:D0:3B:E5:46:A5:F9:54:D4:7E:07:B3:DE:0D:60:3E

            Authority Information Access: 
                OCSP - URI:http://ca.someca-inc.com/ocsp
                CA Issuers - URI:http://ca.someca-inc.com/root

            X509v3 Subject Alternative Name: 
                DNS:example.com
            X509v3 Certificate Policies: 
                Policy: 2.23.140.1.1

            X509v3 CRL Distribution Points: 

                Full Name:
                  URI:http://ca.someca-inc.com/crl

    Signature Algorithm: sha256WithRSAEncryption
         1e:61:e1:c2:bf:c0:26:da:c7:f4:32:43:ec:e5:46:cd:54:e5:
         1d:90:66:f6:6c:a0:ba:14:0f:dd:5d:96:a9:5f:70:90:f4:cc:
         fe:01:75:8c:6a:4f:37:a9:99:aa:66:e4:16:48:6b:1d:ef:e3:
         33:6b:23:e0:fd:dd:ae:f0:f1:9f:26:f3:ec:3c:6b:91:39:3e:
         ed:5c:8d:b9:3f:37:dc:b1:0b:5d:69:a5:a3:ec:d2:56:c3:79:
         e7:c3:80:11:4e:5e:f9:5a:b0:75:f6:79:65:5e:64:e0:0d:dc:
         98:2c:56:01:3a:35:61:ab:a6:17:3a:84:b9:86:66:b5:31:6a:
         98:e4:cf:50:80:d2:e3:68:5a:e9:52:a1:78:1a:7e:bd:3e:d0:
         f5:1d:20:6b:5a:aa:03:ad:c2:4b:7d:93:73:72:35:dd:4b:f6:
         68:9c:ea:96:ed:3c:a5:3a:01:46:47:de:79:5e:55:51:bc:44:
         51:dc:f6:d2:45:d8:00:e9:59:97:2b:ff:e6:e7:36:67:d4:bb:
         f7:d2:d2:73:b3:f9:21:a4:51:50:e0:82:5a:ed:5d:9f:26:45:
         4d:88:15:a7:26:de:c8:ae:c6:f8:d0:37:37:83:0b:b7:b5:08:
         11:6c:58:33:d8:81:c2:a1:af:16:b2:13:2a:eb:01:0d:8c:5a:
         ff:e4:c0:e3
-----BEGIN CERTIFICATE-----
MIIErzCCA5egAwIBAgIQOcnboeYIEU72A0ngo70QCjANBgkqhkiG9w0BAQsFADBD
MQswCQYDVQQGEwJFVTEQMA4GA1UEChMHU29tZSBDQTEiMCAGA1UEAxMZRmFrZSBD
QSBmb3IgemxpbnQgdGVzdGluZzAeFw0yNDA0MDkxNjAwNTVaFw0yNTA0MDkxNjAw
NTVaMIGrMQswCQYDVQQGEwJJVDEfMB0GA1UECBMWU29tZSBTdGF0ZSBvciBQcm92
aW5jZTESMBAGA1UEBxMJU29tZXdoZXJlMRowGAYDVQQKExFTb21lIENvbXBhbnkg
THRkLjEUMBIGA1UEAxMLZXhhbXBsZS5jb20xEzARBgNVBAUTCjEyMzQ1Njc4OTAx
IDAeBgNVBA8MF05vbuKAkENvbW1lcmNpYWwgRW50aXR5MIIBIjANBgkqhkiG9w0B
AQEFAAOCAQ8AMIIBCgKCAQEAxj9Jnx6bY9G6tLxx/AI7VWCl3zHuG6Ix6KkIfxTO
l4QHPjJLncwFBJHagaZJzmXM/vOe27/eFBi+AFkBXu+MAFo0nXPLCIjdsx3kzR04
eyF+CZQMAkLtVk+DsN1LYoMR4FIXbdZx2rXRNU79yh5ajJ/6Kr9Yq9RVVO8u4fDl
OLObA+110SQYyFVF18sv4dp5fi5cJlY/Bc0i+SpeQSXgcAtzMPXO4hzEuh6CdA65
gyVoCAO+ICU6qZMjhtNJ/iCe+lv/uSRXOG3e35JB5GggtTviXUdzuu9dSH8FKez6
+nvR1S5GmzmKOSNMJBJPuX3aY+CL1H9oZ8CKRYJg1WgU2wIDAQABo4IBNDCCATAw
DgYDVR0PAQH/BAQDAgWgMB0GA1UdJQQWMBQGCCsGAQUFBwMCBggrBgEFBQcDATAd
BgNVHQ4EFgQUnpAcaGFmKLYPik3djfAmisPyeHcwHwYDVR0jBBgwFoAU6Lb2dkvQ
O+VGpflU1H4Hs94NYD4wZAYIKwYBBQUHAQEEWDBWMCkGCCsGAQUFBzABhh1odHRw
Oi8vY2Euc29tZWNhLWluYy5jb20vb2NzcDApBggrBgEFBQcwAoYdaHR0cDovL2Nh
LnNvbWVjYS1pbmMuY29tL3Jvb3QwFgYDVR0RBA8wDYILZXhhbXBsZS5jb20wEgYD
VR0gBAswCTAHBgVngQwBATAtBgNVHR8EJjAkMCKgIKAehhxodHRwOi8vY2Euc29t
ZWNhLWluYy5jb20vY3JsMA0GCSqGSIb3DQEBCwUAA4IBAQAeYeHCv8Am2sf0MkPs
5UbNVOUdkGb2bKC6FA/dXZapX3CQ9Mz+AXWMak83qZmqZuQWSGsd7+MzayPg/d2u
8PGfJvPsPGuROT7tXI25PzfcsQtdaaWj7NJWw3nnw4ARTl75WrB19nllXmTgDdyY
LFYBOjVhq6YXOoS5hma1MWqY5M9QgNLjaFrpUqF4Gn69PtD1HSBrWqoDrcJLfZNz
cjXdS/ZonOqW7TylOgFGR955XlVRvERR3PbSRdgA6VmXK//m5zZn1Lv30tJzs/kh
pFFQ4IJa7V2fJkVNiBWnJt7Irsb40Dc3gwu3tQgRbFgz2IHCoa8WshMq6wENjFr/
5MDj
-----END CERTIFICATE-----
