Certificate:
    Data:
        Version: 3 (0x2)
        Serial Number: 1892436556900320617 (0x1a4349059e01c569)
        Signature Algorithm: sha256WithRSAEncryption
        Issuer: C = IT, ST = Milano, L = Santa Redegonda, O = Certificati Gratis S.p.A., CN = Certificati Gratis CA
        Validity
            Not Before: Mar 30 16:57:00 2024 GMT
            Not After : Aug 13 16:57:00 2024 GMT
        Subject: C = AU, ST = Some State, L = Some Locality, O = Some Company Ltd., CN = example.org
        Subject Public Key Info:
            Public Key Algorithm: rsaEncryption
                RSA Public-Key: (2048 bit)
                Modulus:
                    00:bc:ae:30:0d:6a:39:0c:02:14:f6:98:c2:97:6e:
                    c3:e2:a3:27:f8:e1:48:da:66:17:d7:d4:23:f9:47:
                    e0:6c:67:ea:a4:7b:54:fa:b2:50:21:86:0b:69:7a:
                    67:a2:e8:44:05:9d:fc:50:82:cc:91:3d:ef:22:d3:
                    af:83:aa:90:db:69:89:d4:9c:e3:97:81:cf:c3:59:
                    d9:c1:64:3c:aa:f3:42:25:3c:ae:3d:2a:48:cd:25:
                    25:ae:59:d9:79:bb:e6:26:d3:cb:44:fa:21:5b:d5:
                    e3:89:9b:6f:96:f1:fc:3a:5b:c4:0c:52:89:46:48:
                    7b:41:4c:84:9f:cf:79:10:05:52:74:9c:e1:12:29:
                    d7:3b:d8:10:b9:7d:44:73:da:f5:60:ce:1e:54:e9:
                    b1:1d:7f:4c:ac:2c:23:f3:91:59:12:df:f9:07:a3:
                    da:be:8e:18:a1:b5:74:60:e2:f9:64:52:30:65:f9:
                    e8:75:22:21:4d:f6:4f:e2:47:c4:5b:f7:ea:b2:be:
                    90:3d:9a:13:f3:7e:51:c7:6e:3e:bb:3f:43:9c:c7:
                    aa:e1:26:11:e6:40:c5:ab:b2:4a:f3:44:36:19:8f:
                    3d:d6:4a:45:1d:d2:db:03:53:ee:64:16:92:95:6e:
                    92:ab:19:33:06:d8:ad:4d:a1:1e:39:4d:44:80:3c:
                    e9:23
                Exponent: 65537 (0x10001)
        X509v3 extensions:
            X509v3 Basic Constraints: critical
                CA:FALSE
            X509v3 Subject Key Identifier: 
                EF:A0:F9:31:2D:85:84:CF:39:D0:3A:8C:12:51:59:26:35:CB:C5:91
            X509v3 Key Usage: critical
                Digital Signature, Key Encipherment
            X509v3 Extended Key Usage: 
                TLS Web Server Authentication, TLS Web Client Authentication
            X509v3 Subject Alternative Name: 
                DNS:example.org
            X509v3 Certificate Policies: 
                Policy: 2.23.140.1.2.2
                Policy: 1.2.3.4.5
                  CPS: www.some-ca.inc

    Signature Algorithm: sha256WithRSAEncryption
         16:57:14:9b:a6:7b:51:88:49:42:81:dc:ae:c0:13:ff:5e:55:
         cf:24:5b:c8:00:68:dc:ac:7f:23:db:e5:24:bd:da:93:71:70:
         c1:4a:7c:22:09:61:51:da:07:52:b7:5c:e8:0f:9e:30:6f:8e:
         5e:33:0b:a2:75:2a:14:85:80:a9:72:5d:ba:c0:31:31:4f:b7:
         56:ae:37:0a:9b:79:e5:34:5a:24:44:c6:c0:6f:b8:39:de:96:
         69:43:f3:e9:69:c0:eb:5a:f3:c3:2b:7a:03:8b:d4:06:c6:a7:
         de:09:00:c5:85:12:0f:6b:bb:1d:96:c7:e2:7a:17:56:17:dd:
         c5:25:2c:41:3c:cb:d9:77:b6:fc:81:5b:d3:16:d1:c7:6b:8a:
         bc:0e:5a:30:74:33:12:dd:ff:40:a4:83:2a:83:58:72:41:84:
         19:87:f9:5c:3a:1d:c7:79:ca:5f:2c:ec:60:f3:a2:64:33:f4:
         87:d8:f9:54:ba:28:7f:69:e7:2f:f7:40:04:90:86:21:3c:68:
         0e:ee:c9:b2:ce:47:d7:2c:8a:90:65:83:70:59:53:fd:8a:df:
         f7:2c:91:c2:06:be:ed:9b:89:65:47:32:ec:ec:70:c1:5c:7f:
         ee:24:ea:ec:a7:b5:6f:28:b0:11:5f:47:e7:f5:ce:82:63:36:
         6b:7a:74:53:00:e3:72:2c:1d:9e:4e:e7:27:54:59:1d:43:61:
         36:53:bc:ba:7c:d4:d4:db:af:bd:4e:1c:a2:de:98:f0:a9:48:
         75:73:1d:2a:cd:ea:12:b0:a9:dd:25:01:f7:e4:3c:15:8c:cb:
         53:ff:d1:33:b8:a0:4d:fa:c7:c3:d8:b9:6d:e3:df:62:77:6e:
         89:7b:17:c4:bc:96:3f:ed:25:72:f2:7b:66:04:49:da:91:a9:
         73:ca:50:9b:ad:e2:46:ef:dd:7f:7a:14:55:df:ad:c5:55:f9:
         f8:77:a7:1c:09:d7:42:ff:28:ef:c6:5b:e0:b5:f0:80:d8:ac:
         09:45:1c:eb:a0:e5:69:07:de:ef:6d:b3:0d:6b:5d:e8:ea:d3:
         9b:b3:98:70:45:fd:8f:5b:53:14:c0:e6:0b:57:5f:9a:37:14:
         69:e2:10:8f:ab:59:3f:b7:54:51:4f:03:6c:1d:ce:54:40:2a:
         be:f2:b5:f6:c8:25:b4:70:be:f7:44:4d:ed:03:ab:c3:98:59:
         87:2a:41:be:5a:1b:d6:0d:40:11:64:ef:0f:13:37:fe:49:c3:
         c7:df:f8:2d:e5:5a:6b:b4:e7:d2:52:1f:57:75:04:f9:0c:09:
         5a:b4:e6:8f:be:74:5f:24:9b:bd:92:4c:ee:3d:96:1d:a1:fa:
         f2:51:42:4e:bc:a3:a8:c3
-----BEGIN CERTIFICATE-----
MIIFHjCCAwagAwIBAgIIGkNJBZ4BxWkwDQYJKoZIhvcNAQELBQAwfDELMAkGA1UE
BhMCSVQxDzANBgNVBAgTBk1pbGFubzEYMBYGA1UEBxMPU2FudGEgUmVkZWdvbmRh
MSIwIAYDVQQKExlDZXJ0aWZpY2F0aSBHcmF0aXMgUy5wLkEuMR4wHAYDVQQDExVD
ZXJ0aWZpY2F0aSBHcmF0aXMgQ0EwHhcNMjQwMzMwMTY1NzAwWhcNMjQwODEzMTY1
NzAwWjBsMQswCQYDVQQGEwJBVTETMBEGA1UECBMKU29tZSBTdGF0ZTEWMBQGA1UE
BxMNU29tZSBMb2NhbGl0eTEaMBgGA1UEChMRU29tZSBDb21wYW55IEx0ZC4xFDAS
BgNVBAMTC2V4YW1wbGUub3JnMIIBIjANBgkqhkiG9w0BAQEFAAOCAQ8AMIIBCgKC
AQEAvK4wDWo5DAIU9pjCl27D4qMn+OFI2mYX19Qj+UfgbGfqpHtU+rJQIYYLaXpn
ouhEBZ38UILMkT3vItOvg6qQ22mJ1Jzjl4HPw1nZwWQ8qvNCJTyuPSpIzSUlrlnZ
ebvmJtPLRPohW9XjiZtvlvH8OlvEDFKJRkh7QUyEn895EAVSdJzhEinXO9gQuX1E
c9r1YM4eVOmxHX9MrCwj85FZEt/5B6Pavo4YobV0YOL5ZFIwZfnodSIhTfZP4kfE
W/fqsr6QPZoT835Rx24+uz9DnMeq4SYR5kDFq7JK80Q2GY891kpFHdLbA1PuZBaS
lW6SqxkzBtitTaEeOU1EgDzpIwIDAQABo4GzMIGwMAwGA1UdEwEB/wQCMAAwHQYD
VR0OBBYEFO+g+TEthYTPOdA6jBJRWSY1y8WRMA4GA1UdDwEB/wQEAwIFoDAdBgNV
HSUEFjAUBggrBgEFBQcDAQYIKwYBBQUHAwIwFgYDVR0RBA8wDYILZXhhbXBsZS5v
cmcwOgYDVR0gBDMwMTAIBgZngQwBAgIwJQYEKgMEBTAdMBsGCCsGAQUFBwIBFg93
d3cuc29tZS1jYS5pbmMwDQYJKoZIhvcNAQELBQADggIBABZXFJume1GISUKB3K7A
E/9eVc8kW8gAaNysfyPb5SS92pNxcMFKfCIJYVHaB1K3XOgPnjBvjl4zC6J1KhSF
gKlyXbrAMTFPt1auNwqbeeU0WiRExsBvuDnelmlD8+lpwOta88MregOL1AbGp94J
AMWFEg9rux2Wx+J6F1YX3cUlLEE8y9l3tvyBW9MW0cdrirwOWjB0MxLd/0CkgyqD
WHJBhBmH+Vw6Hcd5yl8s7GDzomQz9IfY+VS6KH9p5y/3QASQhiE8aA7uybLOR9cs
ipBlg3BZU/2K3/cskcIGvu2biWVHMuzscMFcf+4k6uyntW8osBFfR+f1zoJjNmt6
dFMA43IsHZ5O5ydUWR1DYTZTvLp81NTbr71OHKLemPCpSHVzHSrN6hKwqd0lAffk
PBWMy1P/0TO4oE36x8PYuW3j32J3bol7F8S8lj/tJXLye2YESdqRqXPKUJut4kbv
3X96FFXfrcVV+fh3pxwJ10L/KO/GW+C18IDYrAlFHOug5WkH3u9tsw1rXejq05uz
mHBF/Y9bUxTA5gtXX5o3FGniEI+rWT+3VFFPA2wdzlRAKr7ytfbIJbRwvvdETe0D
q8OYWYcqQb5aG9YNQBFk7w8TN/5Jw8ff+C3lWmu059JSH1d1BPkMCVq05o++dF8k
m72STO49lh2h+vJRQk68o6jD
-----END CERTIFICATE-----
