Certificate:
    Data:
        Version: 3 (0x2)
        Serial Number:
            0a:5d:0a:22:8a:49:d5:4c:d3:d2:b8:6a:7e:2d:11:bf
        Signature Algorithm: sha256WithRSAEncryption
        Issuer: C = EU, O = Some CA, CN = Fake CA for zlint testing
        Validity
            Not Before: Apr  9 11:53:09 2024 GMT
            Not After : Apr  9 11:53:09 2025 GMT
        Subject: C = IT, ST = Some State or Province, L = Somewhere, O = Some Company Ltd., CN = example.com, serialNumber = 1234567890
        Subject Public Key Info:
            Public Key Algorithm: rsaEncryption
                RSA Public-Key: (2048 bit)
                Modulus:
                    00:cd:b5:bf:94:0d:60:9d:3f:18:7b:ac:32:41:1e:
                    7e:f3:4e:c4:5d:dd:a1:0a:4b:02:3b:3f:01:19:c7:
                    56:10:c7:72:0c:db:5e:d9:2c:08:ea:47:c7:f6:e2:
                    93:0f:f5:29:60:05:d0:65:dc:a9:99:b2:45:76:69:
                    32:9e:e1:b4:f8:2b:12:38:9a:ae:48:e4:cc:74:bc:
                    8b:d5:5c:49:2f:51:b6:27:78:98:46:ca:23:3f:f8:
                    83:cb:86:6b:f2:1e:09:87:22:90:30:54:e7:bc:75:
                    31:5c:42:5d:8a:e2:b7:30:1e:64:24:6e:40:a5:08:
                    2b:d0:2e:8b:14:0a:28:00:06:6d:7a:e2:bf:e5:9e:
                    9e:3d:6c:49:d9:13:e7:fe:4f:00:0c:e0:31:f8:cc:
                    83:b0:56:79:f3:c1:3d:45:50:36:22:d2:02:b7:70:
                    c2:4b:28:05:98:bc:80:94:36:2a:3d:59:8b:f0:3c:
                    20:06:54:1b:59:3b:a8:d7:7b:65:d5:7a:50:86:01:
                    a3:fd:71:1b:10:97:ed:8d:6d:1c:a4:91:c5:a8:db:
                    cf:d1:0a:b1:d4:aa:d2:bb:5c:44:cc:38:e6:51:9a:
                    3c:a2:2e:be:0f:a1:fa:cc:51:ee:fc:f9:f3:e1:3f:
                    ce:51:54:5e:9c:10:8b:c9:16:bc:13:37:7b:8e:53:
                    2d:59
                Exponent: 65537 (0x10001)
        X509v3 extensions:
            X509v3 Key Usage: critical
                Digital Signature, Key Encipherment
            X509v3 Extended Key Usage: 
                TLS Web Client Authentication, TLS Web Server Authentication
            X509v3 Subject Key Identifier: 
                73:22:B1:07:9F:AF:39:0C:31:A7:55:C1:DF:B0:D8:99:D4:A8:7D:F7
            X509v3 Authority Key Identifier: 
                keyid:E8:B6:F6:76:4B:D0:3B:E5:46:A5:F9:54:D4:7E:07:B3:DE:0D:60:3E

            Authority Information Access: 
                OCSP - URI:http://ca.someca-inc.com/ocsp
                CA Issuers - URI:http://ca.someca-inc.com/root

            X509v3 Subject Alternative Name: 
                DNS:example.com
            X509v3 Certificate Policies: 
                Policy: 2.23.140.1.1

            X509v3 CRL Distribution Points: 

                Full Name:
                  URI:http://ca.someca-inc.com/crl

    Signature Algorithm: sha256WithRSAEncryption
         a9:42:c8:b9:43:d0:17:df:32:69:03:4d:e2:6a:73:19:63:e2:
         ff:ac:93:ad:b0:dd:5b:b5:dc:4c:2f:47:3c:67:2b:b5:b2:bb:
         71:7a:4e:ee:9f:a3:3e:ab:a9:85:ac:bd:17:55:3d:0b:10:ff:
         c0:2a:75:7d:23:81:91:db:17:9f:d0:20:a8:3a:cb:e6:dc:4f:
         ba:15:cd:65:6b:80:6b:90:87:f0:b6:a6:32:f2:f3:e1:c8:54:
         0d:71:52:24:04:1c:e1:7a:07:53:ce:71:95:a4:6b:d6:16:d3:
         30:b3:74:48:f9:01:f0:9e:3c:d2:5b:59:48:81:7f:79:9a:54:
         99:43:80:29:99:10:3b:d2:45:d4:4b:29:fb:1e:33:c5:4a:20:
         4b:ad:74:87:de:6b:7c:c0:96:e8:d8:45:85:dc:45:68:31:9d:
         d3:e2:5e:36:cd:df:7e:85:78:76:dc:7e:e8:ed:a8:5a:45:51:
         1a:2a:85:18:dc:a7:cd:ad:d7:fe:74:07:bc:1a:7c:74:00:79:
         21:68:1b:0b:ba:a6:b7:9a:1c:fd:f7:5c:19:ee:f4:d1:1a:b2:
         9e:16:da:67:99:f9:3b:94:00:a5:42:f8:82:96:53:c4:c6:74:
         c4:5f:6f:5d:bc:0a:45:49:7d:63:c9:8c:2d:0f:24:62:f5:a0:
         6c:21:a7:6a
-----BEGIN CERTIFICATE-----
MIIEjTCCA3WgAwIBAgIQCl0KIopJ1UzT0rhqfi0RvzANBgkqhkiG9w0BAQsFADBD
MQswCQYDVQQGEwJFVTEQMA4GA1UEChMHU29tZSBDQTEiMCAGA1UEAxMZRmFrZSBD
QSBmb3IgemxpbnQgdGVzdGluZzAeFw0yNDA0MDkxMTUzMDlaFw0yNTA0MDkxMTUz
MDlaMIGJMQswCQYDVQQGEwJJVDEfMB0GA1UECBMWU29tZSBTdGF0ZSBvciBQcm92
aW5jZTESMBAGA1UEBxMJU29tZXdoZXJlMRowGAYDVQQKExFTb21lIENvbXBhbnkg
THRkLjEUMBIGA1UEAxMLZXhhbXBsZS5jb20xEzARBgNVBAUTCjEyMzQ1Njc4OTAw
ggEiMA0GCSqGSIb3DQEBAQUAA4IBDwAwggEKAoIBAQDNtb+UDWCdPxh7rDJBHn7z
TsRd3aEKSwI7PwEZx1YQx3IM217ZLAjqR8f24pMP9SlgBdBl3KmZskV2aTKe4bT4
KxI4mq5I5Mx0vIvVXEkvUbYneJhGyiM/+IPLhmvyHgmHIpAwVOe8dTFcQl2K4rcw
HmQkbkClCCvQLosUCigABm164r/lnp49bEnZE+f+TwAM4DH4zIOwVnnzwT1FUDYi
0gK3cMJLKAWYvICUNio9WYvwPCAGVBtZO6jXe2XVelCGAaP9cRsQl+2NbRykkcWo
28/RCrHUqtK7XETMOOZRmjyiLr4PofrMUe78+fPhP85RVF6cEIvJFrwTN3uOUy1Z
AgMBAAGjggE0MIIBMDAOBgNVHQ8BAf8EBAMCBaAwHQYDVR0lBBYwFAYIKwYBBQUH
AwIGCCsGAQUFBwMBMB0GA1UdDgQWBBRzIrEHn685DDGnVcHfsNiZ1Kh99zAfBgNV
HSMEGDAWgBTotvZ2S9A75Ual+VTUfgez3g1gPjBkBggrBgEFBQcBAQRYMFYwKQYI
KwYBBQUHMAGGHWh0dHA6Ly9jYS5zb21lY2EtaW5jLmNvbS9vY3NwMCkGCCsGAQUF
BzAChh1odHRwOi8vY2Euc29tZWNhLWluYy5jb20vcm9vdDAWBgNVHREEDzANggtl
eGFtcGxlLmNvbTASBgNVHSAECzAJMAcGBWeBDAEBMC0GA1UdHwQmMCQwIqAgoB6G
HGh0dHA6Ly9jYS5zb21lY2EtaW5jLmNvbS9jcmwwDQYJKoZIhvcNAQELBQADggEB
AKlCyLlD0BffMmkDTeJqcxlj4v+sk62w3Vu13EwvRzxnK7Wyu3F6Tu6foz6rqYWs
vRdVPQsQ/8AqdX0jgZHbF5/QIKg6y+bcT7oVzWVrgGuQh/C2pjLy8+HIVA1xUiQE
HOF6B1POcZWka9YW0zCzdEj5AfCePNJbWUiBf3maVJlDgCmZEDvSRdRLKfseM8VK
IEutdIfea3zAlujYRYXcRWgxndPiXjbN336FeHbcfujtqFpFURoqhRjcp82t1/50
B7wafHQAeSFoGwu6preaHP33XBnu9NEasp4W2meZ+TuUAKVC+IKWU8TGdMRfb128
CkVJfWPJjC0PJGL1oGwhp2o=
-----END CERTIFICATE-----
