Certificate:
    Data:
        Version: 3 (0x2)
        Serial Number: 793070860651290632 (0xb018dbef2d56008)
        Signature Algorithm: sha256WithRSAEncryption
        Issuer: C = IT, ST = Milano, L = Santa Redegonda, O = Certificati Gratis S.p.A., CN = Certificati Gratis CA
        Validity
            Not Before: Mar 30 16:57:00 2024 GMT
            Not After : Aug 13 16:57:00 2024 GMT
        Subject: C = AU, ST = Some State, L = Some Locality, O = Some Company Ltd., CN = example.org
        Subject Public Key Info:
            Public Key Algorithm: rsaEncryption
                RSA Public-Key: (2048 bit)
                Modulus:
                    00:bc:ae:30:0d:6a:39:0c:02:14:f6:98:c2:97:6e:
                    c3:e2:a3:27:f8:e1:48:da:66:17:d7:d4:23:f9:47:
                    e0:6c:67:ea:a4:7b:54:fa:b2:50:21:86:0b:69:7a:
                    67:a2:e8:44:05:9d:fc:50:82:cc:91:3d:ef:22:d3:
                    af:83:aa:90:db:69:89:d4:9c:e3:97:81:cf:c3:59:
                    d9:c1:64:3c:aa:f3:42:25:3c:ae:3d:2a:48:cd:25:
                    25:ae:59:d9:79:bb:e6:26:d3:cb:44:fa:21:5b:d5:
                    e3:89:9b:6f:96:f1:fc:3a:5b:c4:0c:52:89:46:48:
                    7b:41:4c:84:9f:cf:79:10:05:52:74:9c:e1:12:29:
                    d7:3b:d8:10:b9:7d:44:73:da:f5:60:ce:1e:54:e9:
                    b1:1d:7f:4c:ac:2c:23:f3:91:59:12:df:f9:07:a3:
                    da:be:8e:18:a1:b5:74:60:e2:f9:64:52:30:65:f9:
                    e8:75:22:21:4d:f6:4f:e2:47:c4:5b:f7:ea:b2:be:
                    90:3d:9a:13:f3:7e:51:c7:6e:3e:bb:3f:43:9c:c7:
                    aa:e1:26:11:e6:40:c5:ab:b2:4a:f3:44:36:19:8f:
                    3d:d6:4a:45:1d:d2:db:03:53:ee:64:16:92:95:6e:
                    92:ab:19:33:06:d8:ad:4d:a1:1e:39:4d:44:80:3c:
                    e9:23
                Exponent: 65537 (0x10001)
        X509v3 extensions:
            X509v3 Basic Constraints: critical
                CA:FALSE
            X509v3 Subject Key Identifier: 
                EF:A0:F9:31:2D:85:84:CF:39:D0:3A:8C:12:51:59:26:35:CB:C5:91
            X509v3 Key Usage: critical
                Digital Signature, Key Encipherment
            X509v3 Extended Key Usage: 
                TLS Web Server Authentication, TLS Web Client Authentication
            X509v3 Subject Alternative Name: 
                DNS:example.org
            X509v3 Certificate Policies: 
                Policy: 2.23.140.1.2.2
                Policy: 1.2.3.4.5
                  CPS: ftp://www.some-ca.inc/cps

    Signature Algorithm: sha256WithRSAEncryption
         97:54:ef:06:28:ff:dd:57:18:92:a4:e1:89:56:d5:90:f4:46:
         9d:df:f4:67:d4:5f:dd:b5:0c:33:0a:cb:bc:a4:3c:86:3b:0b:
         48:61:f0:0b:68:b1:72:ee:2a:55:f1:78:d4:25:10:ef:58:00:
         5f:2e:26:a8:76:32:0e:45:31:69:98:79:a7:5d:51:b5:5d:d8:
         4b:61:41:ee:02:ce:e6:10:18:cb:88:cd:3a:00:db:27:51:75:
         ef:23:b8:61:2b:53:72:a6:fd:95:96:80:c2:3a:87:8a:f2:cf:
         a4:c2:56:d2:8f:3d:52:28:a8:ee:11:c2:f4:0f:cb:6f:87:30:
         35:8d:bd:0f:a2:3f:25:6b:b3:68:de:46:8d:fa:23:d9:8a:43:
         90:a0:6b:97:cf:bb:8a:b5:e4:64:d0:dc:07:3f:e5:46:d0:d5:
         79:e7:0f:7b:0c:ac:4c:03:8c:d3:c3:55:14:76:ed:02:a6:e1:
         96:58:ab:2c:42:ac:6d:e7:75:04:3f:35:ae:7f:35:a0:5f:e7:
         10:df:22:3f:94:eb:a2:9a:1a:a7:75:8d:f8:13:95:c4:a0:bc:
         a5:90:ab:8f:af:f5:42:ba:c0:15:47:c8:15:47:d9:98:70:c8:
         ff:10:90:1b:68:3d:74:ed:ec:94:14:70:5a:33:ce:1a:d7:ba:
         9a:38:0e:d3:dc:9c:83:54:19:5e:bc:95:7e:ed:e6:8e:18:93:
         28:c8:b9:77:a5:e5:a9:31:8e:29:9c:b2:8c:e3:d5:29:ce:5f:
         5d:1c:b7:f7:00:36:5a:38:e3:99:a0:7c:20:a6:38:dd:6d:5b:
         d8:76:e1:03:51:51:d2:7b:3b:01:35:4a:88:76:72:63:61:19:
         7e:4e:79:62:7a:c0:e6:0c:a8:9e:3e:cf:15:1a:98:ab:f1:67:
         8e:f7:4d:a4:01:b7:72:59:44:ec:e2:2d:d0:be:d0:9e:4f:af:
         4f:56:06:90:c8:04:b3:04:cd:00:ca:c9:cb:d3:c4:04:0c:d6:
         2e:0b:c7:85:05:31:32:89:70:4e:2f:b9:f1:04:b5:35:1f:0d:
         12:0d:8d:fe:3c:1f:c7:bf:10:5d:01:c8:56:27:83:3d:67:ac:
         82:e6:40:70:89:8d:c7:d7:5b:e2:3d:95:1d:e4:fa:92:ce:4e:
         f7:47:88:e0:b7:10:60:8b:5f:8f:6c:7f:53:56:db:4b:ab:84:
         db:d1:42:28:f9:de:35:4d:ad:c7:d7:e8:8c:13:c5:24:51:88:
         3e:f3:9d:b3:7a:ba:14:9a:ac:ae:6b:a4:6e:c3:7c:53:18:0d:
         b2:9f:17:c7:96:de:56:ef:fd:bd:b8:b7:30:d0:7c:81:28:4c:
         12:db:c0:f0:e5:50:83:cb
-----BEGIN CERTIFICATE-----
MIIFKDCCAxCgAwIBAgIICwGNvvLVYAgwDQYJKoZIhvcNAQELBQAwfDELMAkGA1UE
BhMCSVQxDzANBgNVBAgTBk1pbGFubzEYMBYGA1UEBxMPU2FudGEgUmVkZWdvbmRh
MSIwIAYDVQQKExlDZXJ0aWZpY2F0aSBHcmF0aXMgUy5wLkEuMR4wHAYDVQQDExVD
ZXJ0aWZpY2F0aSBHcmF0aXMgQ0EwHhcNMjQwMzMwMTY1NzAwWhcNMjQwODEzMTY1
NzAwWjBsMQswCQYDVQQGEwJBVTETMBEGA1UECBMKU29tZSBTdGF0ZTEWMBQGA1UE
BxMNU29tZSBMb2NhbGl0eTEaMBgGA1UEChMRU29tZSBDb21wYW55IEx0ZC4xFDAS
BgNVBAMTC2V4YW1wbGUub3JnMIIBIjANBgkqhkiG9w0BAQEFAAOCAQ8AMIIBCgKC
AQEAvK4wDWo5DAIU9pjCl27D4qMn+OFI2mYX19Qj+UfgbGfqpHtU+rJQIYYLaXpn
ouhEBZ38UILMkT3vItOvg6qQ22mJ1Jzjl4HPw1nZwWQ8qvNCJTyuPSpIzSUlrlnZ
ebvmJtPLRPohW9XjiZtvlvH8OlvEDFKJRkh7QUyEn895EAVSdJzhEinXO9gQuX1E
c9r1YM4eVOmxHX9MrCwj85FZEt/5B6Pavo4YobV0YOL5ZFIwZfnodSIhTfZP4kfE
W/fqsr6QPZoT835Rx24+uz9DnMeq4SYR5kDFq7JK80Q2GY891kpFHdLbA1PuZBaS
lW6SqxkzBtitTaEeOU1EgDzpIwIDAQABo4G9MIG6MAwGA1UdEwEB/wQCMAAwHQYD
VR0OBBYEFO+g+TEthYTPOdA6jBJRWSY1y8WRMA4GA1UdDwEB/wQEAwIFoDAdBgNV
HSUEFjAUBggrBgEFBQcDAQYIKwYBBQUHAwIwFgYDVR0RBA8wDYILZXhhbXBsZS5v
cmcwRAYDVR0gBD0wOzAIBgZngQwBAgIwLwYEKgMEBTAnMCUGCCsGAQUFBwIBFhlm
dHA6Ly93d3cuc29tZS1jYS5pbmMvY3BzMA0GCSqGSIb3DQEBCwUAA4ICAQCXVO8G
KP/dVxiSpOGJVtWQ9Ead3/Rn1F/dtQwzCsu8pDyGOwtIYfALaLFy7ipV8XjUJRDv
WABfLiaodjIORTFpmHmnXVG1XdhLYUHuAs7mEBjLiM06ANsnUXXvI7hhK1Nypv2V
loDCOoeK8s+kwlbSjz1SKKjuEcL0D8tvhzA1jb0Poj8la7No3kaN+iPZikOQoGuX
z7uKteRk0NwHP+VG0NV55w97DKxMA4zTw1UUdu0CpuGWWKssQqxt53UEPzWufzWg
X+cQ3yI/lOuimhqndY34E5XEoLylkKuPr/VCusAVR8gVR9mYcMj/EJAbaD107eyU
FHBaM84a17qaOA7T3JyDVBlevJV+7eaOGJMoyLl3peWpMY4pnLKM49Upzl9dHLf3
ADZaOOOZoHwgpjjdbVvYduEDUVHSezsBNUqIdnJjYRl+TnliesDmDKiePs8VGpir
8WeO902kAbdyWUTs4i3QvtCeT69PVgaQyASzBM0AysnL08QEDNYuC8eFBTEyiXBO
L7nxBLU1Hw0SDY3+PB/HvxBdAchWJ4M9Z6yC5kBwiY3H11viPZUd5PqSzk73R4jg
txBgi1+PbH9TVttLq4Tb0UIo+d41Ta3H1+iME8UkUYg+852zeroUmqyua6Ruw3xT
GA2ynxfHlt5W7/29uLcw0HyBKEwS28Dw5VCDyw==
-----END CERTIFICATE-----
