Certificate:
    Data:
        Version: 3 (0x2)
        Serial Number:
            ef:be:c6:73:71:37:14:07:6d:96:9a:13:02:d0:c1:f6
        Signature Algorithm: sha256WithRSAEncryption
        Issuer: C = EU, O = Some CA, CN = Fake CA for zlint testing
        Validity
            Not Before: Apr  9 15:59:55 2024 GMT
            Not After : Apr  9 15:59:55 2025 GMT
        Subject: C = IT, ST = Some State or Province, L = Somewhere, O = Some Company Ltd., CN = example.com, serialNumber = 1234567890, businessCategory = Business Entity
        Subject Public Key Info:
            Public Key Algorithm: rsaEncryption
                RSA Public-Key: (2048 bit)
                Modulus:
                    00:ac:a4:62:57:e7:a0:1e:db:bc:99:99:23:87:08:
                    8d:04:ea:c6:e6:a8:ba:a5:22:20:52:de:3e:eb:70:
                    ae:3f:8f:51:02:c6:1e:a8:02:e2:a9:a7:50:b0:32:
                    00:2c:16:9f:9a:06:76:33:68:14:eb:1e:69:c2:59:
                    dc:ee:58:cb:29:15:bc:5d:3c:7c:50:79:61:c0:fe:
                    5d:f4:6e:33:79:21:bf:90:4a:9d:4f:75:7f:4f:89:
                    a3:1a:f7:48:c9:8f:d9:6d:59:d1:11:5e:8e:6b:74:
                    bf:02:0d:80:43:d4:8f:74:8c:12:2c:46:81:af:42:
                    77:2a:e2:ae:3f:d8:2c:ed:5d:6a:24:2d:72:25:b9:
                    c5:ac:8b:84:8e:fe:76:98:db:77:97:80:a4:72:eb:
                    fe:f8:2c:7e:18:24:bf:fb:7f:11:ed:65:7e:cd:26:
                    72:29:7b:0a:55:91:93:f0:a3:21:c5:70:46:f2:c0:
                    60:fd:38:10:dc:78:7b:c2:8e:a6:2e:0e:64:e8:aa:
                    4e:e8:ca:ed:31:75:e1:40:8b:8f:be:80:4a:e8:16:
                    18:33:8c:c9:ea:81:41:c9:9f:77:4d:13:fb:94:d0:
                    cb:2e:45:4a:53:10:49:69:2b:9d:0c:ba:a6:40:04:
                    fd:5e:9d:d6:32:4b:bf:9a:25:57:d7:54:24:a1:96:
                    c1:bb
                Exponent: 65537 (0x10001)
        X509v3 extensions:
            X509v3 Key Usage: critical
                Digital Signature, Key Encipherment
            X509v3 Extended Key Usage: 
                TLS Web Client Authentication, TLS Web Server Authentication
            X509v3 Subject Key Identifier: 
                81:03:DC:8F:0D:60:C9:8F:13:13:CF:5E:0E:28:DD:AD:7E:89:85:22
            X509v3 Authority Key Identifier: 
                keyid:E8:B6:F6:76:4B:D0:3B:E5:46:A5:F9:54:D4:7E:07:B3:DE:0D:60:3E

            Authority Information Access: 
                OCSP - URI:http://ca.someca-inc.com/ocsp
                CA Issuers - URI:http://ca.someca-inc.com/root

            X509v3 Subject Alternative Name: 
                DNS:example.com
            X509v3 Certificate Policies: 
                Policy: 2.23.140.1.1

            X509v3 CRL Distribution Points: 

                Full Name:
                  URI:http://ca.someca-inc.com/crl

    Signature Algorithm: sha256WithRSAEncryption
         75:4a:48:5d:93:d1:b8:82:3f:69:85:3c:fe:9c:c8:25:eb:0b:
         31:0d:03:69:65:50:72:84:e1:b4:02:b1:87:87:be:84:ca:50:
         55:ef:03:88:b9:fb:c2:84:e8:06:c4:22:80:4d:7c:d7:a3:a4:
         02:03:67:66:f9:92:e3:f5:4a:30:ab:85:cd:90:52:80:63:b1:
         39:c7:24:6f:34:ce:92:71:41:6e:9b:11:c9:97:f8:00:12:bb:
         b0:4f:65:c2:0b:7a:15:6c:ba:54:db:0a:ef:9f:d2:db:60:59:
         2c:07:71:29:a5:f0:48:c8:50:6c:1d:5e:bd:48:75:cf:a3:3d:
         84:92:ee:3c:f8:6e:f4:a2:d8:ec:30:35:df:90:55:f3:9b:99:
         22:ef:4d:a6:e3:b1:b7:bd:80:6b:f8:0c:b8:bc:c5:a8:31:75:
         bc:62:f9:ed:6f:cf:8b:b7:c0:33:eb:43:57:81:9e:dc:1f:6b:
         63:1b:d9:d6:40:93:50:4b:f4:72:c9:e8:fa:37:6c:ab:95:e9:
         07:32:10:6a:b2:6d:fd:54:17:c2:83:fa:3a:05:17:fe:72:ea:
         f2:cb:ab:eb:8a:3a:35:95:bb:12:77:ab:d6:bd:a0:93:b8:bd:
         08:e3:a0:a7:14:f9:08:bf:de:31:0f:74:05:86:f6:ac:28:58:
         88:82:d3:91
-----BEGIN CERTIFICATE-----
MIIEqDCCA5CgAwIBAgIRAO++xnNxNxQHbZaaEwLQwfYwDQYJKoZIhvcNAQELBQAw
QzELMAkGA1UEBhMCRVUxEDAOBgNVBAoTB1NvbWUgQ0ExIjAgBgNVBAMTGUZha2Ug
Q0EgZm9yIHpsaW50IHRlc3RpbmcwHhcNMjQwNDA5MTU1OTU1WhcNMjUwNDA5MTU1
OTU1WjCBozELMAkGA1UEBhMCSVQxHzAdBgNVBAgTFlNvbWUgU3RhdGUgb3IgUHJv
dmluY2UxEjAQBgNVBAcTCVNvbWV3aGVyZTEaMBgGA1UEChMRU29tZSBDb21wYW55
IEx0ZC4xFDASBgNVBAMTC2V4YW1wbGUuY29tMRMwEQYDVQQFEwoxMjM0NTY3ODkw
MRgwFgYDVQQPEw9CdXNpbmVzcyBFbnRpdHkwggEiMA0GCSqGSIb3DQEBAQUAA4IB
DwAwggEKAoIBAQCspGJX56Ae27yZmSOHCI0E6sbmqLqlIiBS3j7rcK4/j1ECxh6o
AuKpp1CwMgAsFp+aBnYzaBTrHmnCWdzuWMspFbxdPHxQeWHA/l30bjN5Ib+QSp1P
dX9PiaMa90jJj9ltWdERXo5rdL8CDYBD1I90jBIsRoGvQncq4q4/2CztXWokLXIl
ucWsi4SO/naY23eXgKRy6/74LH4YJL/7fxHtZX7NJnIpewpVkZPwoyHFcEbywGD9
OBDceHvCjqYuDmToqk7oyu0xdeFAi4++gEroFhgzjMnqgUHJn3dNE/uU0MsuRUpT
EElpK50MuqZABP1endYyS7+aJVfXVCShlsG7AgMBAAGjggE0MIIBMDAOBgNVHQ8B
Af8EBAMCBaAwHQYDVR0lBBYwFAYIKwYBBQUHAwIGCCsGAQUFBwMBMB0GA1UdDgQW
BBSBA9yPDWDJjxMTz14OKN2tfomFIjAfBgNVHSMEGDAWgBTotvZ2S9A75Ual+VTU
fgez3g1gPjBkBggrBgEFBQcBAQRYMFYwKQYIKwYBBQUHMAGGHWh0dHA6Ly9jYS5z
b21lY2EtaW5jLmNvbS9vY3NwMCkGCCsGAQUFBzAChh1odHRwOi8vY2Euc29tZWNh
LWluYy5jb20vcm9vdDAWBgNVHREEDzANggtleGFtcGxlLmNvbTASBgNVHSAECzAJ
MAcGBWeBDAEBMC0GA1UdHwQmMCQwIqAgoB6GHGh0dHA6Ly9jYS5zb21lY2EtaW5j
LmNvbS9jcmwwDQYJKoZIhvcNAQELBQADggEBAHVKSF2T0biCP2mFPP6cyCXrCzEN
A2llUHKE4bQCsYeHvoTKUFXvA4i5+8KE6AbEIoBNfNejpAIDZ2b5kuP1SjCrhc2Q
UoBjsTnHJG80zpJxQW6bEcmX+AASu7BPZcILehVsulTbCu+f0ttgWSwHcSml8EjI
UGwdXr1Idc+jPYSS7jz4bvSi2OwwNd+QVfObmSLvTabjsbe9gGv4DLi8xagxdbxi
+e1vz4u3wDPrQ1eBntwfa2Mb2dZAk1BL9HLJ6Po3bKuV6QcyEGqybf1UF8KD+joF
F/5y6vLLq+uKOjWVuxJ3q9a9oJO4vQjjoKcU+Qi/3jEPdAWG9qwoWIiC05E=
-----END CERTIFICATE-----
