Certificate:
    Data:
        Version: 3 (0x2)
        Serial Number:
            f5:84:73:56:ba:ba:4f:ec:50:12:3d:e2:dc:d9:f3:41
        Signature Algorithm: sha256WithRSAEncryption
        Issuer: C = EU, O = Some CA, CN = Fake CA for zlint testing
        Validity
            Not Before: Apr  9 15:58:07 2024 GMT
            Not After : Apr  9 15:58:07 2025 GMT
        Subject: C = IT, ST = Some State or Province, L = Somewhere, O = Some Company Ltd., CN = example.com, serialNumber = 1234567890, businessCategory = Government Entity
        Subject Public Key Info:
            Public Key Algorithm: rsaEncryption
                RSA Public-Key: (2048 bit)
                Modulus:
                    00:c0:e4:64:9a:ae:8d:62:d8:41:48:49:bc:4a:3c:
                    61:62:d8:cd:a2:ac:34:6d:f8:61:4a:ac:d2:28:d5:
                    0e:31:10:cf:46:5a:4f:8d:36:4d:da:5b:30:c7:04:
                    38:a3:45:44:28:ae:a8:7a:04:24:62:2c:75:c0:4b:
                    39:c3:f2:73:27:8c:20:d4:93:d9:0b:92:85:61:77:
                    56:88:69:a2:ce:ba:8c:48:2f:26:a8:07:1c:d7:b5:
                    85:c3:96:5a:3b:c4:aa:e7:54:f1:54:c0:2a:0b:9d:
                    bf:e7:7f:2c:54:d6:23:e7:31:e6:4e:a3:4c:24:60:
                    62:a6:53:5b:c1:b3:ea:92:23:dc:dc:0d:c1:24:27:
                    66:d0:d9:47:fe:76:2c:e3:8e:98:66:78:69:26:2c:
                    1c:c0:69:e1:84:31:8c:82:b8:71:3a:13:24:3e:c6:
                    4b:ba:a0:bc:1d:de:e0:21:da:69:49:bd:06:e7:de:
                    43:47:32:8c:c9:bf:b4:a9:41:6e:59:11:0b:ca:38:
                    42:0c:2a:68:9c:f6:04:79:c3:02:d5:80:08:b0:69:
                    76:a1:2d:eb:aa:6e:26:2e:52:66:a2:a5:c9:6d:69:
                    30:3e:21:fe:b8:77:ab:03:7d:fe:74:2f:61:d3:c0:
                    78:bb:91:b5:d3:b7:44:f0:b9:19:07:fc:eb:ea:04:
                    de:e9
                Exponent: 65537 (0x10001)
        X509v3 extensions:
            X509v3 Key Usage: critical
                Digital Signature, Key Encipherment
            X509v3 Extended Key Usage: 
                TLS Web Client Authentication, TLS Web Server Authentication
            X509v3 Subject Key Identifier: 
                52:62:84:A0:C2:DF:01:00:50:94:AB:33:95:50:80:2E:14:86:F9:FD
            X509v3 Authority Key Identifier: 
                keyid:E8:B6:F6:76:4B:D0:3B:E5:46:A5:F9:54:D4:7E:07:B3:DE:0D:60:3E

            Authority Information Access: 
                OCSP - URI:http://ca.someca-inc.com/ocsp
                CA Issuers - URI:http://ca.someca-inc.com/root

            X509v3 Subject Alternative Name: 
                DNS:example.com
            X509v3 Certificate Policies: 
                Policy: 2.23.140.1.1

            X509v3 CRL Distribution Points: 

                Full Name:
                  URI:http://ca.someca-inc.com/crl

    Signature Algorithm: sha256WithRSAEncryption
         3b:6a:06:c5:8c:53:40:a0:44:f4:9d:2e:91:00:f6:a0:8d:31:
         17:80:d4:92:c3:96:e2:eb:10:4b:bd:b2:f4:ed:6e:33:3e:eb:
         fa:19:68:8e:06:d3:5c:ca:61:62:83:50:1b:76:b1:36:a2:1b:
         af:54:1a:26:ac:54:ab:de:ef:cb:65:49:6d:04:82:2e:4b:17:
         98:f6:b4:28:eb:5d:5e:51:cd:ed:46:88:ae:a2:50:8b:71:15:
         95:af:55:d1:e1:68:5c:51:e6:76:3e:df:ca:75:98:11:68:ed:
         91:2f:d1:f7:e0:3e:03:2f:54:9f:31:eb:0c:ee:ee:ae:c4:83:
         5a:ff:9c:37:5e:17:82:ca:90:71:b7:ec:d1:11:93:a4:c2:f2:
         43:55:3d:e9:24:6b:7f:36:7f:c7:e1:54:b0:16:80:78:ea:f4:
         0b:44:2e:d2:6e:c8:f2:c8:24:9c:7f:7c:c8:42:76:d8:62:c7:
         98:ec:2e:65:8f:f1:b2:4b:4b:5a:7c:b3:c2:a7:8b:81:d3:f0:
         bb:7b:43:af:dd:c5:87:fb:7c:44:02:9e:c0:30:3c:a8:ad:ee:
         ba:50:f7:16:0d:68:b8:ce:0c:33:b0:f0:84:11:96:00:0e:e5:
         10:bf:ea:43:4c:8d:3e:3e:bc:e5:08:b4:6f:92:52:54:98:4e:
         c9:fd:87:5a
-----BEGIN CERTIFICATE-----
MIIEqjCCA5KgAwIBAgIRAPWEc1a6uk/sUBI94tzZ80EwDQYJKoZIhvcNAQELBQAw
QzELMAkGA1UEBhMCRVUxEDAOBgNVBAoTB1NvbWUgQ0ExIjAgBgNVBAMTGUZha2Ug
Q0EgZm9yIHpsaW50IHRlc3RpbmcwHhcNMjQwNDA5MTU1ODA3WhcNMjUwNDA5MTU1
ODA3WjCBpTELMAkGA1UEBhMCSVQxHzAdBgNVBAgTFlNvbWUgU3RhdGUgb3IgUHJv
dmluY2UxEjAQBgNVBAcTCVNvbWV3aGVyZTEaMBgGA1UEChMRU29tZSBDb21wYW55
IEx0ZC4xFDASBgNVBAMTC2V4YW1wbGUuY29tMRMwEQYDVQQFEwoxMjM0NTY3ODkw
MRowGAYDVQQPExFHb3Zlcm5tZW50IEVudGl0eTCCASIwDQYJKoZIhvcNAQEBBQAD
ggEPADCCAQoCggEBAMDkZJqujWLYQUhJvEo8YWLYzaKsNG34YUqs0ijVDjEQz0Za
T402TdpbMMcEOKNFRCiuqHoEJGIsdcBLOcPycyeMINST2QuShWF3Vohpos66jEgv
JqgHHNe1hcOWWjvEqudU8VTAKgudv+d/LFTWI+cx5k6jTCRgYqZTW8Gz6pIj3NwN
wSQnZtDZR/52LOOOmGZ4aSYsHMBp4YQxjIK4cToTJD7GS7qgvB3e4CHaaUm9Bufe
Q0cyjMm/tKlBblkRC8o4QgwqaJz2BHnDAtWACLBpdqEt66puJi5SZqKlyW1pMD4h
/rh3qwN9/nQvYdPAeLuRtdO3RPC5GQf86+oE3ukCAwEAAaOCATQwggEwMA4GA1Ud
DwEB/wQEAwIFoDAdBgNVHSUEFjAUBggrBgEFBQcDAgYIKwYBBQUHAwEwHQYDVR0O
BBYEFFJihKDC3wEAUJSrM5VQgC4Uhvn9MB8GA1UdIwQYMBaAFOi29nZL0DvlRqX5
VNR+B7PeDWA+MGQGCCsGAQUFBwEBBFgwVjApBggrBgEFBQcwAYYdaHR0cDovL2Nh
LnNvbWVjYS1pbmMuY29tL29jc3AwKQYIKwYBBQUHMAKGHWh0dHA6Ly9jYS5zb21l
Y2EtaW5jLmNvbS9yb290MBYGA1UdEQQPMA2CC2V4YW1wbGUuY29tMBIGA1UdIAQL
MAkwBwYFZ4EMAQEwLQYDVR0fBCYwJDAioCCgHoYcaHR0cDovL2NhLnNvbWVjYS1p
bmMuY29tL2NybDANBgkqhkiG9w0BAQsFAAOCAQEAO2oGxYxTQKBE9J0ukQD2oI0x
F4DUksOW4usQS72y9O1uMz7r+hlojgbTXMphYoNQG3axNqIbr1QaJqxUq97vy2VJ
bQSCLksXmPa0KOtdXlHN7UaIrqJQi3EVla9V0eFoXFHmdj7fynWYEWjtkS/R9+A+
Ay9UnzHrDO7ursSDWv+cN14XgsqQcbfs0RGTpMLyQ1U96SRrfzZ/x+FUsBaAeOr0
C0Qu0m7I8sgknH98yEJ22GLHmOwuZY/xsktLWnyzwqeLgdPwu3tDr93Fh/t8RAKe
wDA8qK3uulD3Fg1ouM4MM7DwhBGWAA7lEL/qQ0yNPj685Qi0b5JSVJhOyf2HWg==
-----END CERTIFICATE-----
