Certificate:
    Data:
        Version: 3 (0x2)
        Serial Number: 6516163087356195736 (0x5a6e0fcdc860f398)
        Signature Algorithm: sha256WithRSAEncryption
        Issuer: C = IT, ST = Milano, L = Santa Redegonda, O = Certificati Gratis S.p.A., CN = Certificati Gratis CA
        Validity
            Not Before: Mar 30 16:57:00 2024 GMT
            Not After : Mar  8 08:50:00 2025 GMT
        Subject: C = AU, ST = Some State, L = Some Locality, O = Some Company Ltd., CN = example.org
        Subject Public Key Info:
            Public Key Algorithm: rsaEncryption
                RSA Public-Key: (2048 bit)
                Modulus:
                    00:bc:ae:30:0d:6a:39:0c:02:14:f6:98:c2:97:6e:
                    c3:e2:a3:27:f8:e1:48:da:66:17:d7:d4:23:f9:47:
                    e0:6c:67:ea:a4:7b:54:fa:b2:50:21:86:0b:69:7a:
                    67:a2:e8:44:05:9d:fc:50:82:cc:91:3d:ef:22:d3:
                    af:83:aa:90:db:69:89:d4:9c:e3:97:81:cf:c3:59:
                    d9:c1:64:3c:aa:f3:42:25:3c:ae:3d:2a:48:cd:25:
                    25:ae:59:d9:79:bb:e6:26:d3:cb:44:fa:21:5b:d5:
                    e3:89:9b:6f:96:f1:fc:3a:5b:c4:0c:52:89:46:48:
                    7b:41:4c:84:9f:cf:79:10:05:52:74:9c:e1:12:29:
                    d7:3b:d8:10:b9:7d:44:73:da:f5:60:ce:1e:54:e9:
                    b1:1d:7f:4c:ac:2c:23:f3:91:59:12:df:f9:07:a3:
                    da:be:8e:18:a1:b5:74:60:e2:f9:64:52:30:65:f9:
                    e8:75:22:21:4d:f6:4f:e2:47:c4:5b:f7:ea:b2:be:
                    90:3d:9a:13:f3:7e:51:c7:6e:3e:bb:3f:43:9c:c7:
                    aa:e1:26:11:e6:40:c5:ab:b2:4a:f3:44:36:19:8f:
                    3d:d6:4a:45:1d:d2:db:03:53:ee:64:16:92:95:6e:
                    92:ab:19:33:06:d8:ad:4d:a1:1e:39:4d:44:80:3c:
                    e9:23
                Exponent: 65537 (0x10001)
        X509v3 extensions:
            X509v3 Basic Constraints: critical
                CA:FALSE
            X509v3 Subject Key Identifier: 
                EF:A0:F9:31:2D:85:84:CF:39:D0:3A:8C:12:51:59:26:35:CB:C5:91
            X509v3 Key Usage: critical
                Digital Signature, Key Encipherment
            X509v3 Extended Key Usage: 
                TLS Web Server Authentication, TLS Web Client Authentication
            X509v3 Subject Alternative Name: 
                DNS:example.org
            X509v3 Certificate Policies: 
                Policy: 2.23.140.1.2.2
                Policy: 1.2.3.4.5
                  CPS: https://ca.someca-inc.com/cps

    Signature Algorithm: sha256WithRSAEncryption
         17:6a:75:79:9d:ae:e0:00:0c:93:9e:74:02:70:9d:e3:58:b2:
         55:4e:2c:88:b2:6c:89:87:c5:e4:ec:31:97:c6:12:b3:2e:92:
         1a:60:e8:40:23:99:93:c7:bc:d9:d1:ce:66:de:4b:14:b1:86:
         c5:c6:9d:6c:28:16:e0:2d:74:ee:8c:49:b8:39:ad:a2:d3:25:
         8e:ac:f8:c7:af:7e:e5:1d:a8:f2:1b:e2:cb:69:94:e2:58:e1:
         47:4c:34:9d:f7:bd:a8:b0:f0:92:e5:05:94:a0:c0:38:3b:34:
         22:ef:cc:5c:47:db:fa:b0:82:2a:f5:8f:25:85:53:fe:fe:2c:
         9e:22:c0:78:02:e3:e9:32:71:11:01:cb:c7:d3:db:a7:e5:27:
         2c:72:44:d0:f4:4c:57:08:eb:26:36:e1:ee:40:ce:2f:81:45:
         75:1c:4f:d1:9d:c5:e5:f0:88:3c:c2:fb:0b:c4:6a:a8:7c:a6:
         ea:5d:33:9e:b8:6e:92:57:af:13:12:51:4d:1b:8f:2e:bd:7d:
         2f:5e:2e:ac:57:9d:78:23:5b:1d:e5:4b:be:d3:d4:20:18:40:
         27:cd:4b:9a:f2:2e:1c:19:bf:6d:50:80:39:e2:28:70:c1:8b:
         4a:dc:2e:98:da:6d:12:ce:1e:58:29:fa:04:fe:14:6a:81:7c:
         9e:c2:fd:93:fe:00:f1:a0:fb:e6:94:5f:b8:aa:18:12:86:70:
         e1:02:9a:e4:91:a6:3e:14:9d:8d:4c:33:0b:b5:61:96:96:e9:
         95:bd:34:83:79:42:a9:98:19:6e:d8:68:a6:af:56:15:da:e7:
         e5:d1:b3:6d:af:cf:96:03:bb:90:73:4e:18:43:a7:30:3c:dc:
         fb:b5:69:48:96:d1:27:c8:89:0a:2b:bc:8c:48:45:0c:60:bb:
         15:01:84:de:8c:e0:47:cb:b7:7a:c5:06:94:bf:6a:25:c5:57:
         af:69:69:94:17:b3:21:6c:ef:74:a5:bc:39:3a:4c:f7:3b:fe:
         ab:20:7d:51:bb:5d:c2:cc:8c:23:5d:41:6a:d3:8f:5e:cc:1e:
         6f:70:45:1f:7c:1c:d4:62:76:43:8a:f8:48:34:5d:a1:65:c1:
         4a:5a:d0:56:96:45:33:29:b2:38:86:7f:d0:1b:d6:53:61:d9:
         c6:2d:ea:cc:a6:ba:5e:d3:54:a6:b7:bc:09:f9:d9:39:e3:7f:
         78:e2:ec:fc:cc:46:d7:1f:e6:70:5f:a7:88:cb:73:76:c0:57:
         b6:14:80:6a:b4:dc:a8:dc:16:87:05:ae:bf:16:1c:a8:a5:c8:
         6a:e6:ab:1c:66:52:9b:04:77:70:67:57:58:d3:9b:32:29:ea:
         79:71:50:27:3a:b6:34:9e
-----BEGIN CERTIFICATE-----
MIIFLDCCAxSgAwIBAgIIWm4Pzchg85gwDQYJKoZIhvcNAQELBQAwfDELMAkGA1UE
BhMCSVQxDzANBgNVBAgTBk1pbGFubzEYMBYGA1UEBxMPU2FudGEgUmVkZWdvbmRh
MSIwIAYDVQQKExlDZXJ0aWZpY2F0aSBHcmF0aXMgUy5wLkEuMR4wHAYDVQQDExVD
ZXJ0aWZpY2F0aSBHcmF0aXMgQ0EwHhcNMjQwMzMwMTY1NzAwWhcNMjUwMzA4MDg1
MDAwWjBsMQswCQYDVQQGEwJBVTETMBEGA1UECBMKU29tZSBTdGF0ZTEWMBQGA1UE
BxMNU29tZSBMb2NhbGl0eTEaMBgGA1UEChMRU29tZSBDb21wYW55IEx0ZC4xFDAS
BgNVBAMTC2V4YW1wbGUub3JnMIIBIjANBgkqhkiG9w0BAQEFAAOCAQ8AMIIBCgKC
AQEAvK4wDWo5DAIU9pjCl27D4qMn+OFI2mYX19Qj+UfgbGfqpHtU+rJQIYYLaXpn
ouhEBZ38UILMkT3vItOvg6qQ22mJ1Jzjl4HPw1nZwWQ8qvNCJTyuPSpIzSUlrlnZ
ebvmJtPLRPohW9XjiZtvlvH8OlvEDFKJRkh7QUyEn895EAVSdJzhEinXO9gQuX1E
c9r1YM4eVOmxHX9MrCwj85FZEt/5B6Pavo4YobV0YOL5ZFIwZfnodSIhTfZP4kfE
W/fqsr6QPZoT835Rx24+uz9DnMeq4SYR5kDFq7JK80Q2GY891kpFHdLbA1PuZBaS
lW6SqxkzBtitTaEeOU1EgDzpIwIDAQABo4HBMIG+MAwGA1UdEwEB/wQCMAAwHQYD
VR0OBBYEFO+g+TEthYTPOdA6jBJRWSY1y8WRMA4GA1UdDwEB/wQEAwIFoDAdBgNV
HSUEFjAUBggrBgEFBQcDAQYIKwYBBQUHAwIwFgYDVR0RBA8wDYILZXhhbXBsZS5v
cmcwSAYDVR0gBEEwPzAIBgZngQwBAgIwMwYEKgMEBTArMCkGCCsGAQUFBwIBFh1o
dHRwczovL2NhLnNvbWVjYS1pbmMuY29tL2NwczANBgkqhkiG9w0BAQsFAAOCAgEA
F2p1eZ2u4AAMk550AnCd41iyVU4siLJsiYfF5Owxl8YSsy6SGmDoQCOZk8e82dHO
Zt5LFLGGxcadbCgW4C107oxJuDmtotMljqz4x69+5R2o8hviy2mU4ljhR0w0nfe9
qLDwkuUFlKDAODs0Iu/MXEfb+rCCKvWPJYVT/v4sniLAeALj6TJxEQHLx9Pbp+Un
LHJE0PRMVwjrJjbh7kDOL4FFdRxP0Z3F5fCIPML7C8RqqHym6l0znrhuklevExJR
TRuPLr19L14urFedeCNbHeVLvtPUIBhAJ81LmvIuHBm/bVCAOeIocMGLStwumNpt
Es4eWCn6BP4UaoF8nsL9k/4A8aD75pRfuKoYEoZw4QKa5JGmPhSdjUwzC7Vhlpbp
lb00g3lCqZgZbthopq9WFdrn5dGzba/PlgO7kHNOGEOnMDzc+7VpSJbRJ8iJCiu8
jEhFDGC7FQGE3ozgR8u3esUGlL9qJcVXr2lplBezIWzvdKW8OTpM9zv+qyB9Ubtd
wsyMI11BatOPXsweb3BFH3wc1GJ2Q4r4SDRdoWXBSlrQVpZFMymyOIZ/0BvWU2HZ
xi3qzKa6XtNUpre8CfnZOeN/eOLs/MxG1x/mcF+niMtzdsBXthSAarTcqNwWhwWu
vxYcqKXIauarHGZSmwR3cGdXWNObMinqeXFQJzq2NJ4=
-----END CERTIFICATE-----
