Certificate:
    Data:
        Version: 3 (0x2)
        Serial Number: 5909114158428413719 (0x52016404ee5b5f17)
        Signature Algorithm: sha256WithRSAEncryption
        Issuer: C = IT, ST = Milano, L = Santa Redegonda, O = Certificati Gratis S.p.A., CN = Certificati Gratis CA
        Validity
            Not Before: Sep 13 16:57:00 2023 GMT
            Not After : Aug 13 16:57:00 2024 GMT
        Subject: C = AU, ST = Some State, L = Some Locality, O = Some Company Ltd., CN = example.org
        Subject Public Key Info:
            Public Key Algorithm: rsaEncryption
                RSA Public-Key: (2048 bit)
                Modulus:
                    00:bc:ae:30:0d:6a:39:0c:02:14:f6:98:c2:97:6e:
                    c3:e2:a3:27:f8:e1:48:da:66:17:d7:d4:23:f9:47:
                    e0:6c:67:ea:a4:7b:54:fa:b2:50:21:86:0b:69:7a:
                    67:a2:e8:44:05:9d:fc:50:82:cc:91:3d:ef:22:d3:
                    af:83:aa:90:db:69:89:d4:9c:e3:97:81:cf:c3:59:
                    d9:c1:64:3c:aa:f3:42:25:3c:ae:3d:2a:48:cd:25:
                    25:ae:59:d9:79:bb:e6:26:d3:cb:44:fa:21:5b:d5:
                    e3:89:9b:6f:96:f1:fc:3a:5b:c4:0c:52:89:46:48:
                    7b:41:4c:84:9f:cf:79:10:05:52:74:9c:e1:12:29:
                    d7:3b:d8:10:b9:7d:44:73:da:f5:60:ce:1e:54:e9:
                    b1:1d:7f:4c:ac:2c:23:f3:91:59:12:df:f9:07:a3:
                    da:be:8e:18:a1:b5:74:60:e2:f9:64:52:30:65:f9:
                    e8:75:22:21:4d:f6:4f:e2:47:c4:5b:f7:ea:b2:be:
                    90:3d:9a:13:f3:7e:51:c7:6e:3e:bb:3f:43:9c:c7:
                    aa:e1:26:11:e6:40:c5:ab:b2:4a:f3:44:36:19:8f:
                    3d:d6:4a:45:1d:d2:db:03:53:ee:64:16:92:95:6e:
                    92:ab:19:33:06:d8:ad:4d:a1:1e:39:4d:44:80:3c:
                    e9:23
                Exponent: 65537 (0x10001)
        X509v3 extensions:
            X509v3 Basic Constraints: critical
                CA:FALSE
            X509v3 Subject Key Identifier: 
                EF:A0:F9:31:2D:85:84:CF:39:D0:3A:8C:12:51:59:26:35:CB:C5:91
            X509v3 Key Usage: critical
                Digital Signature, Key Encipherment
            X509v3 Extended Key Usage: 
                TLS Web Server Authentication, TLS Web Client Authentication
            X509v3 Subject Alternative Name: 
                DNS:example.org
            X509v3 Certificate Policies: 
                Policy: 2.23.140.1.2.2
                Policy: 1.2.3.4.5
                  CPS: ftp://www.some-ca.inc/cps

    Signature Algorithm: sha256WithRSAEncryption
         7e:98:f4:4b:2e:e1:88:8e:e1:7a:1c:8e:e2:9a:6b:55:4e:a0:
         74:63:1d:aa:3c:63:fb:a1:e4:e5:16:53:e0:db:a7:8d:e3:08:
         1b:20:82:67:83:53:84:09:9c:c9:0d:a7:dc:e9:22:51:ea:54:
         70:15:32:da:11:84:6b:26:94:20:1d:99:11:2a:1f:ac:96:35:
         3c:75:30:ae:4e:77:83:95:00:b4:16:27:bd:96:a5:17:51:69:
         4a:96:40:78:d0:9f:bb:42:1d:d6:aa:ca:fe:cc:96:53:e3:8d:
         ee:72:15:db:d4:12:2f:98:1a:07:7c:ef:a7:51:c8:9d:d2:c1:
         cb:ba:76:4f:22:95:73:ff:52:fe:3e:f5:1c:9b:cb:e2:36:3e:
         bd:28:ac:d0:f5:f1:e9:a0:bb:44:60:f6:a2:90:88:29:79:d5:
         6e:74:f1:5c:ab:d8:19:5f:c0:0c:bd:94:ab:f0:1f:2f:32:2b:
         94:80:6d:66:9e:97:17:7b:d2:d0:89:73:4b:04:0d:3f:ce:69:
         d6:13:f5:91:2a:a0:75:d9:98:bb:e0:be:38:41:2a:7b:c8:78:
         bf:39:18:9d:fc:62:e2:24:b6:74:49:9b:8c:1e:3c:df:53:81:
         ef:33:4a:7a:83:59:8f:2e:7e:cb:70:32:aa:dc:a1:e8:b0:f7:
         6e:ed:28:1b:1a:1f:d9:4b:b4:90:b1:2c:3a:29:ef:02:b3:4d:
         e7:18:6c:ec:72:4f:a9:85:19:93:d9:b0:12:da:52:d4:17:cb:
         69:44:17:4e:fe:05:b1:d7:f8:e7:42:ee:05:d8:a4:f7:89:31:
         f1:c1:dd:58:1c:2c:ff:ba:c8:bd:46:fa:73:d1:d3:5a:d8:e8:
         21:37:fd:19:3d:1a:ac:06:b2:cb:e0:18:da:9f:61:5a:b6:5c:
         e9:e7:1f:cd:0b:08:1f:c4:ac:56:26:88:09:53:12:e5:42:54:
         50:78:0c:d5:61:11:81:a7:1a:c8:3a:1c:21:7d:05:77:ba:0c:
         8d:28:77:41:5b:c8:f4:6a:65:72:43:ba:d6:67:2f:7e:f2:ee:
         dd:36:8f:7b:aa:cc:ff:f4:11:74:d5:24:5d:31:6c:13:ca:f7:
         3a:dd:35:b5:8c:5b:8f:bc:a7:3d:b1:fd:14:38:29:58:b0:47:
         53:f6:65:b7:fd:93:a1:5d:5e:bb:ad:b0:cd:2a:c2:1a:79:05:
         75:af:ce:fe:43:25:e6:d4:a9:fa:01:b6:ca:c0:b6:2c:a7:1f:
         b1:29:1a:bd:b6:d0:1b:c7:0b:2a:11:65:18:6b:b3:9f:c8:61:
         35:a9:7b:08:2d:5b:3d:01:26:14:89:5c:e1:13:43:d1:5d:bd:
         c7:3a:76:36:a2:10:66:18
-----BEGIN CERTIFICATE-----
MIIFKDCCAxCgAwIBAgIIUgFkBO5bXxcwDQYJKoZIhvcNAQELBQAwfDELMAkGA1UE
BhMCSVQxDzANBgNVBAgTBk1pbGFubzEYMBYGA1UEBxMPU2FudGEgUmVkZWdvbmRh
MSIwIAYDVQQKExlDZXJ0aWZpY2F0aSBHcmF0aXMgUy5wLkEuMR4wHAYDVQQDExVD
ZXJ0aWZpY2F0aSBHcmF0aXMgQ0EwHhcNMjMwOTEzMTY1NzAwWhcNMjQwODEzMTY1
NzAwWjBsMQswCQYDVQQGEwJBVTETMBEGA1UECBMKU29tZSBTdGF0ZTEWMBQGA1UE
BxMNU29tZSBMb2NhbGl0eTEaMBgGA1UEChMRU29tZSBDb21wYW55IEx0ZC4xFDAS
BgNVBAMTC2V4YW1wbGUub3JnMIIBIjANBgkqhkiG9w0BAQEFAAOCAQ8AMIIBCgKC
AQEAvK4wDWo5DAIU9pjCl27D4qMn+OFI2mYX19Qj+UfgbGfqpHtU+rJQIYYLaXpn
ouhEBZ38UILMkT3vItOvg6qQ22mJ1Jzjl4HPw1nZwWQ8qvNCJTyuPSpIzSUlrlnZ
ebvmJtPLRPohW9XjiZtvlvH8OlvEDFKJRkh7QUyEn895EAVSdJzhEinXO9gQuX1E
c9r1YM4eVOmxHX9MrCwj85FZEt/5B6Pavo4YobV0YOL5ZFIwZfnodSIhTfZP4kfE
W/fqsr6QPZoT835Rx24+uz9DnMeq4SYR5kDFq7JK80Q2GY891kpFHdLbA1PuZBaS
lW6SqxkzBtitTaEeOU1EgDzpIwIDAQABo4G9MIG6MAwGA1UdEwEB/wQCMAAwHQYD
VR0OBBYEFO+g+TEthYTPOdA6jBJRWSY1y8WRMA4GA1UdDwEB/wQEAwIFoDAdBgNV
HSUEFjAUBggrBgEFBQcDAQYIKwYBBQUHAwIwFgYDVR0RBA8wDYILZXhhbXBsZS5v
cmcwRAYDVR0gBD0wOzAIBgZngQwBAgIwLwYEKgMEBTAnMCUGCCsGAQUFBwIBFhlm
dHA6Ly93d3cuc29tZS1jYS5pbmMvY3BzMA0GCSqGSIb3DQEBCwUAA4ICAQB+mPRL
LuGIjuF6HI7immtVTqB0Yx2qPGP7oeTlFlPg26eN4wgbIIJng1OECZzJDafc6SJR
6lRwFTLaEYRrJpQgHZkRKh+sljU8dTCuTneDlQC0Fie9lqUXUWlKlkB40J+7Qh3W
qsr+zJZT443uchXb1BIvmBoHfO+nUcid0sHLunZPIpVz/1L+PvUcm8viNj69KKzQ
9fHpoLtEYPaikIgpedVudPFcq9gZX8AMvZSr8B8vMiuUgG1mnpcXe9LQiXNLBA0/
zmnWE/WRKqB12Zi74L44QSp7yHi/ORid/GLiJLZ0SZuMHjzfU4HvM0p6g1mPLn7L
cDKq3KHosPdu7SgbGh/ZS7SQsSw6Ke8Cs03nGGzsck+phRmT2bAS2lLUF8tpRBdO
/gWx1/jnQu4F2KT3iTHxwd1YHCz/usi9Rvpz0dNa2OghN/0ZPRqsBrLL4Bjan2Fa
tlzp5x/NCwgfxKxWJogJUxLlQlRQeAzVYRGBpxrIOhwhfQV3ugyNKHdBW8j0amVy
Q7rWZy9+8u7dNo97qsz/9BF01SRdMWwTyvc63TW1jFuPvKc9sf0UOClYsEdT9mW3
/ZOhXV67rbDNKsIaeQV1r87+QyXm1Kn6AbbKwLYspx+xKRq9ttAbxwsqEWUYa7Of
yGE1qXsILVs9ASYUiVzhE0PRXb3HOnY2ohBmGA==
-----END CERTIFICATE-----
