Certificate:
    Data:
        Version: 3 (0x2)
        Serial Number: 1791917909163485810 (0x18de2bd82a59aa72)
        Signature Algorithm: sha256WithRSAEncryption
        Issuer: C = IT, ST = Milano, L = Santa Redegonda, O = Certificati Gratis S.p.A., CN = Certificati Gratis CA
        Validity
            Not Before: Mar 30 16:57:00 2024 GMT
            Not After : Mar  8 08:50:00 2025 GMT
        Subject: C = AU, ST = Some State, L = Some Locality, O = Some Company Ltd., CN = example.org
        Subject Public Key Info:
            Public Key Algorithm: rsaEncryption
                RSA Public-Key: (2048 bit)
                Modulus:
                    00:bc:ae:30:0d:6a:39:0c:02:14:f6:98:c2:97:6e:
                    c3:e2:a3:27:f8:e1:48:da:66:17:d7:d4:23:f9:47:
                    e0:6c:67:ea:a4:7b:54:fa:b2:50:21:86:0b:69:7a:
                    67:a2:e8:44:05:9d:fc:50:82:cc:91:3d:ef:22:d3:
                    af:83:aa:90:db:69:89:d4:9c:e3:97:81:cf:c3:59:
                    d9:c1:64:3c:aa:f3:42:25:3c:ae:3d:2a:48:cd:25:
                    25:ae:59:d9:79:bb:e6:26:d3:cb:44:fa:21:5b:d5:
                    e3:89:9b:6f:96:f1:fc:3a:5b:c4:0c:52:89:46:48:
                    7b:41:4c:84:9f:cf:79:10:05:52:74:9c:e1:12:29:
                    d7:3b:d8:10:b9:7d:44:73:da:f5:60:ce:1e:54:e9:
                    b1:1d:7f:4c:ac:2c:23:f3:91:59:12:df:f9:07:a3:
                    da:be:8e:18:a1:b5:74:60:e2:f9:64:52:30:65:f9:
                    e8:75:22:21:4d:f6:4f:e2:47:c4:5b:f7:ea:b2:be:
                    90:3d:9a:13:f3:7e:51:c7:6e:3e:bb:3f:43:9c:c7:
                    aa:e1:26:11:e6:40:c5:ab:b2:4a:f3:44:36:19:8f:
                    3d:d6:4a:45:1d:d2:db:03:53:ee:64:16:92:95:6e:
                    92:ab:19:33:06:d8:ad:4d:a1:1e:39:4d:44:80:3c:
                    e9:23
                Exponent: 65537 (0x10001)
        X509v3 extensions:
            X509v3 Basic Constraints: critical
                CA:FALSE
            X509v3 Subject Key Identifier: 
                EF:A0:F9:31:2D:85:84:CF:39:D0:3A:8C:12:51:59:26:35:CB:C5:91
            X509v3 Key Usage: critical
                Digital Signature, Key Encipherment
            X509v3 Extended Key Usage: 
                TLS Web Server Authentication, TLS Web Client Authentication
            X509v3 Subject Alternative Name: 
                DNS:example.org
            X509v3 Certificate Policies: 
                Policy: 2.23.140.1.2.2
                Policy: 1.2.3.4.5

    Signature Algorithm: sha256WithRSAEncryption
         7b:4a:e1:20:a9:28:1c:50:9b:f4:3d:eb:40:b4:02:96:05:4a:
         cf:17:45:6c:6e:d8:4d:bd:d5:4e:26:64:37:4b:b4:7d:d6:b4:
         bf:96:a6:1c:f1:a8:54:57:a3:6d:c9:12:82:c1:db:0d:78:f4:
         f7:64:3b:88:fa:59:c3:3a:b0:a1:50:78:8b:4b:0a:dc:a3:64:
         77:16:2d:dc:ba:81:55:28:18:69:66:5f:94:0a:7a:06:b1:42:
         7d:c7:65:a1:b3:30:f9:2d:a5:20:cc:be:5e:e3:14:ce:67:f5:
         69:ea:11:7e:cd:62:be:89:eb:30:79:70:f3:fd:fd:e1:23:e9:
         27:20:b8:33:84:f2:e0:75:9c:c3:6b:41:69:42:72:9b:c3:21:
         a4:be:fa:fa:87:21:e9:d0:1d:0a:ab:f3:07:a1:8e:f7:ea:47:
         cf:e6:8c:8a:02:58:22:ca:17:3b:de:d7:43:63:63:0c:71:a1:
         dc:77:43:fd:fc:07:e7:62:f8:d4:93:3b:a5:c8:33:1e:db:6c:
         91:03:91:6c:b2:0f:cf:c0:69:d8:60:6a:ea:08:d0:0d:48:47:
         c8:e4:11:61:c4:2f:60:3a:3c:b4:38:90:d0:1b:70:d7:b1:e5:
         fb:fd:35:81:be:38:88:5d:fc:2b:68:02:72:ee:00:ff:dd:40:
         72:63:d8:7b:4e:e8:c7:05:f0:45:73:d8:36:03:b4:65:c5:3b:
         0d:2d:61:99:91:c1:51:bb:f6:45:5d:d2:2a:31:a7:73:65:99:
         64:12:6c:79:96:98:0d:1f:e4:21:12:6f:7d:a3:a2:87:d3:29:
         1d:f3:2d:c9:e1:d5:74:af:09:bd:1e:85:07:f3:86:25:d6:f7:
         6e:37:d8:aa:10:9c:af:71:f6:07:4e:88:13:30:0e:2a:c9:24:
         19:8c:aa:f6:39:a7:36:92:6b:3b:c6:8e:66:2b:7d:0b:13:25:
         e4:3b:30:c4:f9:f4:00:6f:ef:27:c2:45:6f:2e:06:c6:09:3a:
         91:51:28:e3:a6:db:68:51:4d:18:2c:ad:8b:c9:e2:c2:58:e3:
         d7:d2:1f:85:8f:7b:0d:b1:60:08:6e:72:fd:e4:85:e3:68:39:
         4e:6d:b3:6f:4b:8a:71:be:ba:07:ba:e2:32:95:8b:83:ed:18:
         41:7c:b1:da:43:b6:1b:65:0a:61:0a:a9:3a:f8:59:8f:1e:34:
         cd:52:c2:bd:c3:4d:3a:be:e8:10:01:0b:4a:16:1e:5a:0c:26:
         02:0f:a9:58:9d:70:44:a0:d6:ee:64:1c:68:40:f4:04:d5:2d:
         11:a0:76:7e:15:b3:5c:27:b2:87:b1:1c:7f:45:c9:b1:d0:2b:
         6c:c6:5d:80:c3:7b:43:0d
-----BEGIN CERTIFICATE-----
MIIE/zCCAuegAwIBAgIIGN4r2CpZqnIwDQYJKoZIhvcNAQELBQAwfDELMAkGA1UE
BhMCSVQxDzANBgNVBAgTBk1pbGFubzEYMBYGA1UEBxMPU2FudGEgUmVkZWdvbmRh
MSIwIAYDVQQKExlDZXJ0aWZpY2F0aSBHcmF0aXMgUy5wLkEuMR4wHAYDVQQDExVD
ZXJ0aWZpY2F0aSBHcmF0aXMgQ0EwHhcNMjQwMzMwMTY1NzAwWhcNMjUwMzA4MDg1
MDAwWjBsMQswCQYDVQQGEwJBVTETMBEGA1UECBMKU29tZSBTdGF0ZTEWMBQGA1UE
BxMNU29tZSBMb2NhbGl0eTEaMBgGA1UEChMRU29tZSBDb21wYW55IEx0ZC4xFDAS
BgNVBAMTC2V4YW1wbGUub3JnMIIBIjANBgkqhkiG9w0BAQEFAAOCAQ8AMIIBCgKC
AQEAvK4wDWo5DAIU9pjCl27D4qMn+OFI2mYX19Qj+UfgbGfqpHtU+rJQIYYLaXpn
ouhEBZ38UILMkT3vItOvg6qQ22mJ1Jzjl4HPw1nZwWQ8qvNCJTyuPSpIzSUlrlnZ
ebvmJtPLRPohW9XjiZtvlvH8OlvEDFKJRkh7QUyEn895EAVSdJzhEinXO9gQuX1E
c9r1YM4eVOmxHX9MrCwj85FZEt/5B6Pavo4YobV0YOL5ZFIwZfnodSIhTfZP4kfE
W/fqsr6QPZoT835Rx24+uz9DnMeq4SYR5kDFq7JK80Q2GY891kpFHdLbA1PuZBaS
lW6SqxkzBtitTaEeOU1EgDzpIwIDAQABo4GUMIGRMAwGA1UdEwEB/wQCMAAwHQYD
VR0OBBYEFO+g+TEthYTPOdA6jBJRWSY1y8WRMA4GA1UdDwEB/wQEAwIFoDAdBgNV
HSUEFjAUBggrBgEFBQcDAQYIKwYBBQUHAwIwFgYDVR0RBA8wDYILZXhhbXBsZS5v
cmcwGwYDVR0gBBQwEjAIBgZngQwBAgIwBgYEKgMEBTANBgkqhkiG9w0BAQsFAAOC
AgEAe0rhIKkoHFCb9D3rQLQClgVKzxdFbG7YTb3VTiZkN0u0fda0v5amHPGoVFej
bckSgsHbDXj092Q7iPpZwzqwoVB4i0sK3KNkdxYt3LqBVSgYaWZflAp6BrFCfcdl
obMw+S2lIMy+XuMUzmf1aeoRfs1ivonrMHlw8/394SPpJyC4M4Ty4HWcw2tBaUJy
m8MhpL76+och6dAdCqvzB6GO9+pHz+aMigJYIsoXO97XQ2NjDHGh3HdD/fwH52L4
1JM7pcgzHttskQORbLIPz8Bp2GBq6gjQDUhHyOQRYcQvYDo8tDiQ0Btw17Hl+/01
gb44iF38K2gCcu4A/91AcmPYe07oxwXwRXPYNgO0ZcU7DS1hmZHBUbv2RV3SKjGn
c2WZZBJseZaYDR/kIRJvfaOih9MpHfMtyeHVdK8JvR6FB/OGJdb3bjfYqhCcr3H2
B06IEzAOKskkGYyq9jmnNpJrO8aOZit9CxMl5DswxPn0AG/vJ8JFby4Gxgk6kVEo
46bbaFFNGCyti8niwljj19IfhY97DbFgCG5y/eSF42g5Tm2zb0uKcb66B7riMpWL
g+0YQXyx2kO2G2UKYQqpOvhZjx40zVLCvcNNOr7oEAELShYeWgwmAg+pWJ1wRKDW
7mQcaED0BNUtEaB2fhWzXCeyh7Ecf0XJsdArbMZdgMN7Qw0=
-----END CERTIFICATE-----
