Certificate:
    Data:
        Version: 3 (0x2)
        Serial Number:
            32:12:79:89:d3:5f:f9:9c:c7:3f:ea:76:c2:28:fa:d5
        Signature Algorithm: sha256WithRSAEncryption
        Issuer: C = XX, O = Some CA, CN = Fake CA for zlint testing
        Validity
            Not Before: Nov 30 16:32:45 2024 GMT
            Not After : Nov 30 16:32:45 2025 GMT
        Subject: C = XX, ST = Some State or Province, L = Somewhere, O = Some Company Ltd., CN = example.org, serialNumber = 1234567890, organizationIdentifier = ABCES-1234567890
        Subject Public Key Info:
            Public Key Algorithm: rsaEncryption
                RSA Public-Key: (2048 bit)
                Modulus:
                    00:d1:c2:96:44:10:78:23:b6:c5:7f:03:5e:1a:0f:
                    9b:06:86:42:8f:43:7e:3d:a0:48:51:27:98:a3:49:
                    a1:ce:58:e1:1e:f2:e6:53:bb:f2:5b:bf:81:af:9e:
                    b3:81:58:e1:20:db:23:22:73:04:5d:05:20:6c:1a:
                    3b:3b:96:77:52:36:be:dd:c0:07:20:19:f7:57:28:
                    68:8f:51:de:83:09:18:06:ed:54:c5:03:9a:20:af:
                    a7:e6:a2:aa:d8:b2:b1:85:04:e6:ab:ec:3d:cf:1f:
                    81:f1:a8:ba:2a:ff:67:ea:db:08:36:04:78:df:53:
                    04:7c:24:f5:1d:ab:70:d9:f5:c8:6c:dc:9a:c8:a9:
                    5e:71:bb:d6:a4:86:86:c2:c5:d9:3d:46:bf:78:32:
                    74:ce:5c:fe:32:f8:5e:d7:42:d6:ab:df:cd:fc:76:
                    21:ba:44:a2:45:f3:01:b6:5d:b3:15:d6:16:83:9e:
                    10:a5:76:bd:e0:ae:95:4f:a8:90:9f:10:81:6d:dd:
                    1e:ba:11:e3:2c:fa:c3:26:f9:80:ee:5c:e5:df:4a:
                    f1:3d:ac:46:77:48:f8:21:02:bb:2e:0e:61:fd:62:
                    bc:d9:e4:56:1d:1a:1c:8a:a2:ca:f9:8c:d1:9e:0d:
                    4f:20:b2:46:1d:6d:31:a8:b0:40:10:bb:18:91:7c:
                    4d:69
                Exponent: 65537 (0x10001)
        X509v3 extensions:
            X509v3 Key Usage: critical
                Digital Signature, Key Encipherment
            X509v3 Extended Key Usage: 
                TLS Web Client Authentication, TLS Web Server Authentication
            X509v3 Subject Key Identifier: 
                F8:9A:F8:3A:12:A9:62:C8:30:CB:11:F0:21:DF:AC:9A:7D:18:D7:3F
            X509v3 Authority Key Identifier: 
                keyid:E8:B6:F6:76:4B:D0:3B:E5:46:A5:F9:54:D4:7E:07:B3:DE:0D:60:3E

            Authority Information Access: 
                OCSP - URI:http://ca.someca-inc.com/ocsp
                CA Issuers - URI:http://ca.someca-inc.com/root

            X509v3 Subject Alternative Name: 
                DNS:example.org
            X509v3 Certificate Policies: 
                Policy: 2.23.140.1.2.2

            X509v3 CRL Distribution Points: 

                Full Name:
                  URI:http://ca.someca-inc.com/crl

            2.23.140.3.1: 
                0...ABC..ES.
1234567890
    Signature Algorithm: sha256WithRSAEncryption
         43:4a:cc:8b:d4:d8:43:4f:48:53:7a:a9:96:8e:85:00:a2:fc:
         7a:53:9d:b2:63:76:26:cf:ba:41:2d:b8:20:3c:d6:31:9d:a0:
         67:71:cc:e9:39:88:d8:d0:08:16:34:78:88:56:91:0e:08:88:
         0c:98:54:c8:68:78:65:a9:e3:d6:68:10:3f:03:40:a7:8e:db:
         a0:c4:cc:26:19:83:8d:25:c2:97:ae:69:28:06:5c:9d:79:16:
         25:50:a7:34:7a:8e:a8:66:29:24:21:2f:43:75:03:54:21:84:
         71:7f:1a:3a:9a:c9:7b:09:23:13:3a:03:79:19:2a:6d:54:3a:
         4e:df:8d:5e:44:18:ee:b0:86:18:0e:d6:fd:70:6c:6a:cf:76:
         ac:60:9e:da:7a:5b:8e:86:24:d0:72:64:3b:76:53:a5:70:01:
         52:80:a2:d0:43:e4:22:92:5c:9b:6e:66:28:b4:8d:82:5d:ad:
         36:0e:09:ff:21:ca:6e:64:9a:2e:82:13:c4:cf:13:8c:60:67:
         fb:68:54:54:fd:f1:ca:22:ad:47:e6:f7:25:04:50:9e:69:17:
         d2:e4:de:53:ee:ae:fa:ef:02:86:97:35:e3:d4:d0:48:5b:27:
         9e:4b:38:fe:47:ae:df:9d:01:a5:50:5e:18:7c:91:2f:06:6c:
         42:ee:58:89
-----BEGIN CERTIFICATE-----
MIIEyzCCA7OgAwIBAgIQMhJ5idNf+ZzHP+p2wij61TANBgkqhkiG9w0BAQsFADBD
MQswCQYDVQQGEwJYWDEQMA4GA1UEChMHU29tZSBDQTEiMCAGA1UEAxMZRmFrZSBD
QSBmb3IgemxpbnQgdGVzdGluZzAeFw0yNDExMzAxNjMyNDVaFw0yNTExMzAxNjMy
NDVaMIGkMQswCQYDVQQGEwJYWDEfMB0GA1UECBMWU29tZSBTdGF0ZSBvciBQcm92
aW5jZTESMBAGA1UEBxMJU29tZXdoZXJlMRowGAYDVQQKExFTb21lIENvbXBhbnkg
THRkLjEUMBIGA1UEAxMLZXhhbXBsZS5vcmcxEzARBgNVBAUTCjEyMzQ1Njc4OTAx
GTAXBgNVBGETEEFCQ0VTLTEyMzQ1Njc4OTAwggEiMA0GCSqGSIb3DQEBAQUAA4IB
DwAwggEKAoIBAQDRwpZEEHgjtsV/A14aD5sGhkKPQ349oEhRJ5ijSaHOWOEe8uZT
u/Jbv4GvnrOBWOEg2yMicwRdBSBsGjs7lndSNr7dwAcgGfdXKGiPUd6DCRgG7VTF
A5ogr6fmoqrYsrGFBOar7D3PH4HxqLoq/2fq2wg2BHjfUwR8JPUdq3DZ9chs3JrI
qV5xu9akhobCxdk9Rr94MnTOXP4y+F7XQtar3838diG6RKJF8wG2XbMV1haDnhCl
dr3grpVPqJCfEIFt3R66EeMs+sMm+YDuXOXfSvE9rEZ3SPghArsuDmH9YrzZ5FYd
GhyKosr5jNGeDU8gskYdbTGosEAQuxiRfE1pAgMBAAGjggFXMIIBUzAOBgNVHQ8B
Af8EBAMCBaAwHQYDVR0lBBYwFAYIKwYBBQUHAwIGCCsGAQUFBwMBMB0GA1UdDgQW
BBT4mvg6EqliyDDLEfAh36yafRjXPzAfBgNVHSMEGDAWgBTotvZ2S9A75Ual+VTU
fgez3g1gPjBkBggrBgEFBQcBAQRYMFYwKQYIKwYBBQUHMAGGHWh0dHA6Ly9jYS5z
b21lY2EtaW5jLmNvbS9vY3NwMCkGCCsGAQUFBzAChh1odHRwOi8vY2Euc29tZWNh
LWluYy5jb20vcm9vdDAWBgNVHREEDzANggtleGFtcGxlLm9yZzATBgNVHSAEDDAK
MAgGBmeBDAECAjAtBgNVHR8EJjAkMCKgIKAehhxodHRwOi8vY2Euc29tZWNhLWlu
Yy5jb20vY3JsMCAGBWeBDAMBBBcwFRMDQUJDEwJFUwwKMTIzNDU2Nzg5MDANBgkq
hkiG9w0BAQsFAAOCAQEAQ0rMi9TYQ09IU3qplo6FAKL8elOdsmN2Js+6QS24IDzW
MZ2gZ3HM6TmI2NAIFjR4iFaRDgiIDJhUyGh4Zanj1mgQPwNAp47boMTMJhmDjSXC
l65pKAZcnXkWJVCnNHqOqGYpJCEvQ3UDVCGEcX8aOprJewkjEzoDeRkqbVQ6Tt+N
XkQY7rCGGA7W/XBsas92rGCe2npbjoYk0HJkO3ZTpXABUoCi0EPkIpJcm25mKLSN
gl2tNg4J/yHKbmSaLoITxM8TjGBn+2hUVP3xyiKtR+b3JQRQnmkX0uTeU+6u+u8C
hpc149TQSFsnnks4/keu350BpVBeGHyRLwZsQu5YiQ==
-----END CERTIFICATE-----
