Certificate:
    Data:
        Version: 3 (0x2)
        Serial Number:
            0c:2f:d2:21:3a:de:9a:53:6b:c7:d2:c0:7d:70:81:c8
        Signature Algorithm: sha256WithRSAEncryption
        Issuer: C = XX, O = Some CA, CN = Fake CA for zlint testing
        Validity
            Not Before: Jan 25 00:00:00 2020 GMT
            Not After : Jan 24 00:00:00 2021 GMT
        Subject: C = XX, ST = Some State or Province, L = Somewhere, O = Some Company Ltd., CN = example.org, serialNumber = 1234567890, organizationIdentifier = ABCES-1234567890
        Subject Public Key Info:
            Public Key Algorithm: rsaEncryption
                RSA Public-Key: (2048 bit)
                Modulus:
                    00:9c:3c:39:4e:ea:1f:77:4b:57:6f:51:04:52:c3:
                    1a:a9:46:1f:e5:73:3c:b4:13:17:bd:05:e7:06:05:
                    24:27:6a:bb:eb:f3:a5:c3:ea:de:c3:c7:05:67:77:
                    16:f1:66:65:aa:b4:e9:d1:ef:48:29:6e:d1:04:12:
                    86:6a:9a:92:65:bb:fd:f3:55:db:65:08:5c:6c:7c:
                    d0:6d:17:77:58:6c:a3:e1:fd:8b:56:51:44:19:1d:
                    5e:37:6f:11:03:27:63:03:28:25:37:04:5d:3c:8f:
                    40:d7:fc:0b:04:4e:ca:3e:65:98:69:4f:aa:97:9d:
                    fe:17:10:65:cc:6b:ae:65:16:ff:1f:a1:61:f9:10:
                    a1:c8:39:55:8f:90:2b:2b:f9:48:e2:e2:bb:b3:8e:
                    e7:3f:3c:8d:0b:c0:d7:4d:2c:4a:7b:1d:88:49:36:
                    4d:ec:7f:45:71:63:ca:cf:c3:ad:9b:2f:75:88:29:
                    5c:86:be:6e:20:a2:c5:76:9f:e9:5f:29:dc:16:1b:
                    d2:04:bb:aa:da:f4:98:5c:4c:8c:b3:d7:2f:01:3a:
                    0d:f8:f8:02:0a:02:e7:32:ca:a3:1f:54:0e:2c:90:
                    ca:5c:4a:8d:d0:a8:af:1e:29:61:0d:c2:0d:e7:a9:
                    ea:92:9c:6c:af:29:d8:98:6a:0b:ca:0b:c6:84:06:
                    9f:79
                Exponent: 65537 (0x10001)
        X509v3 extensions:
            X509v3 Key Usage: critical
                Digital Signature, Key Encipherment
            X509v3 Extended Key Usage: 
                TLS Web Client Authentication, TLS Web Server Authentication
            X509v3 Subject Key Identifier: 
                84:C3:21:D0:C5:39:FA:C1:75:0D:CA:49:C8:E8:E8:F3:8B:EF:D8:3C
            X509v3 Authority Key Identifier: 
                keyid:E8:B6:F6:76:4B:D0:3B:E5:46:A5:F9:54:D4:7E:07:B3:DE:0D:60:3E

            Authority Information Access: 
                OCSP - URI:http://ca.someca-inc.com/ocsp
                CA Issuers - URI:http://ca.someca-inc.com/root

            X509v3 Subject Alternative Name: 
                DNS:example.org
            X509v3 Certificate Policies: 
                Policy: 2.23.140.1.1

            X509v3 CRL Distribution Points: 

                Full Name:
                  URI:http://ca.someca-inc.com/crl

            2.23.140.3.1: 
                0...ABC..ES.
1234567890
    Signature Algorithm: sha256WithRSAEncryption
         2a:41:22:a8:5d:76:c3:79:3b:01:2d:0e:01:45:f6:a3:67:53:
         1b:4d:f3:2f:1c:41:50:73:c9:42:cb:a3:d5:1d:24:ea:38:97:
         13:de:83:2c:1d:0d:91:d4:be:a3:b5:0d:b5:56:26:36:b4:b8:
         a5:02:b8:3d:59:d2:ff:9b:a7:bd:65:cf:fc:99:9c:ab:7c:4e:
         83:be:d6:df:a6:3b:95:be:5d:2f:e8:62:59:1a:43:5c:1e:5f:
         dc:53:c5:04:6d:cc:84:d2:18:f3:e5:71:d3:7d:88:60:9f:31:
         dc:53:ef:30:5e:64:68:c8:bb:2b:ee:95:e7:fe:f5:f2:fe:81:
         33:05:b8:61:c5:2f:9a:2b:8f:c6:b1:f5:63:1b:2a:d5:53:ef:
         5e:b4:15:22:eb:79:17:b7:4a:e6:6d:7f:8b:23:a7:ed:f0:fd:
         89:75:5e:1b:3b:19:e0:88:79:07:b8:68:68:55:2c:7f:52:5f:
         d0:81:66:0a:41:31:4d:b3:75:2b:a8:ca:76:b2:20:88:93:ef:
         c3:f8:0c:68:25:86:38:41:c1:2c:1e:ce:6c:94:b3:1a:e2:36:
         b0:a1:50:4b:d4:44:7d:81:eb:84:4c:57:d1:2e:75:0f:50:9c:
         ea:e5:17:c7:da:01:ae:9e:03:a3:9b:cf:9c:6e:9a:73:d7:17:
         1b:cf:3c:44
-----BEGIN CERTIFICATE-----
MIIEyjCCA7KgAwIBAgIQDC/SITremlNrx9LAfXCByDANBgkqhkiG9w0BAQsFADBD
MQswCQYDVQQGEwJYWDEQMA4GA1UEChMHU29tZSBDQTEiMCAGA1UEAxMZRmFrZSBD
QSBmb3IgemxpbnQgdGVzdGluZzAeFw0yMDAxMjUwMDAwMDBaFw0yMTAxMjQwMDAw
MDBaMIGkMQswCQYDVQQGEwJYWDEfMB0GA1UECBMWU29tZSBTdGF0ZSBvciBQcm92
aW5jZTESMBAGA1UEBxMJU29tZXdoZXJlMRowGAYDVQQKExFTb21lIENvbXBhbnkg
THRkLjEUMBIGA1UEAxMLZXhhbXBsZS5vcmcxEzARBgNVBAUTCjEyMzQ1Njc4OTAx
GTAXBgNVBGETEEFCQ0VTLTEyMzQ1Njc4OTAwggEiMA0GCSqGSIb3DQEBAQUAA4IB
DwAwggEKAoIBAQCcPDlO6h93S1dvUQRSwxqpRh/lczy0Exe9BecGBSQnarvr86XD
6t7DxwVndxbxZmWqtOnR70gpbtEEEoZqmpJlu/3zVdtlCFxsfNBtF3dYbKPh/YtW
UUQZHV43bxEDJ2MDKCU3BF08j0DX/AsETso+ZZhpT6qXnf4XEGXMa65lFv8foWH5
EKHIOVWPkCsr+Uji4ruzjuc/PI0LwNdNLEp7HYhJNk3sf0VxY8rPw62bL3WIKVyG
vm4gosV2n+lfKdwWG9IEu6ra9JhcTIyz1y8BOg34+AIKAucyyqMfVA4skMpcSo3Q
qK8eKWENwg3nqeqSnGyvKdiYagvKC8aEBp95AgMBAAGjggFWMIIBUjAOBgNVHQ8B
Af8EBAMCBaAwHQYDVR0lBBYwFAYIKwYBBQUHAwIGCCsGAQUFBwMBMB0GA1UdDgQW
BBSEwyHQxTn6wXUNyknI6Ojzi+/YPDAfBgNVHSMEGDAWgBTotvZ2S9A75Ual+VTU
fgez3g1gPjBkBggrBgEFBQcBAQRYMFYwKQYIKwYBBQUHMAGGHWh0dHA6Ly9jYS5z
b21lY2EtaW5jLmNvbS9vY3NwMCkGCCsGAQUFBzAChh1odHRwOi8vY2Euc29tZWNh
LWluYy5jb20vcm9vdDAWBgNVHREEDzANggtleGFtcGxlLm9yZzASBgNVHSAECzAJ
MAcGBWeBDAEBMC0GA1UdHwQmMCQwIqAgoB6GHGh0dHA6Ly9jYS5zb21lY2EtaW5j
LmNvbS9jcmwwIAYFZ4EMAwEEFzAVEwNBQkMTAkVTDAoxMjM0NTY3ODkwMA0GCSqG
SIb3DQEBCwUAA4IBAQAqQSKoXXbDeTsBLQ4BRfajZ1MbTfMvHEFQc8lCy6PVHSTq
OJcT3oMsHQ2R1L6jtQ21ViY2tLilArg9WdL/m6e9Zc/8mZyrfE6DvtbfpjuVvl0v
6GJZGkNcHl/cU8UEbcyE0hjz5XHTfYhgnzHcU+8wXmRoyLsr7pXn/vXy/oEzBbhh
xS+aK4/GsfVjGyrVU+9etBUi63kXt0rmbX+LI6ft8P2JdV4bOxngiHkHuGhoVSx/
Ul/QgWYKQTFNs3UrqMp2siCIk+/D+AxoJYY4QcEsHs5slLMa4jawoVBL1ER9geuE
TFfRLnUPUJzq5RfH2gGungOjm8+cbppz1xcbzzxE
-----END CERTIFICATE-----
