Certificate:
    Data:
        Version: 3 (0x2)
        Serial Number:
            8a:44:21:83:28:2a:38:88:5f:30:b2:75:34:ec:5e:0b
        Signature Algorithm: sha256WithRSAEncryption
        Issuer: C = XX, O = Some CA, CN = Fake Root CA for zlint testing
        Validity
            Not Before: Nov 30 17:01:06 2024 GMT
            Not After : Nov 29 17:01:06 2029 GMT
        Subject: C = XX, ST = Some State, L = Some Locality, O = Some CA, CN = Fake CA for zlint testing
        Subject Public Key Info:
            Public Key Algorithm: rsaEncryption
                RSA Public-Key: (4096 bit)
                Modulus:
                    00:c6:ea:80:aa:6a:e7:8c:ca:cb:8d:02:62:ba:09:
                    30:91:c3:04:3b:1f:0a:74:be:15:79:1d:67:eb:f4:
                    d1:c9:66:56:a0:8e:76:dd:4d:ba:7b:83:2b:b9:1f:
                    f4:e3:cc:92:1e:19:50:27:40:cc:15:0e:71:62:98:
                    e8:77:2c:bb:70:30:0f:5c:73:6f:36:3a:a2:c6:36:
                    2c:1b:59:c8:a8:42:ba:a1:98:9a:fb:26:8e:a7:94:
                    46:64:38:5d:b1:12:26:bf:1c:48:81:77:67:43:a9:
                    2e:85:1a:b4:d5:6b:3c:37:f8:5c:77:12:4e:1d:09:
                    fe:36:91:3c:a6:91:3b:5b:32:d2:30:d3:79:e2:a6:
                    c5:02:db:59:ca:f0:f2:df:ba:e6:5d:26:b6:4d:6e:
                    18:ca:0a:a6:2a:e6:7d:75:92:08:8c:d3:18:39:de:
                    60:3e:21:e1:f2:49:d5:c8:24:d2:ee:a2:96:fc:99:
                    f2:4c:79:7b:de:bb:3e:7c:93:25:2b:e6:04:e0:86:
                    4f:c6:ec:eb:d6:8e:60:23:26:1f:13:ef:d1:a3:bb:
                    1c:e8:e9:7c:34:4a:8f:23:e1:6c:8c:63:f2:bf:3d:
                    fa:a0:ff:03:29:bf:f4:ac:2f:24:3c:f2:43:a4:ec:
                    8f:b8:1c:a8:b8:70:45:be:ef:a5:53:9f:af:e1:91:
                    7d:5b:9c:ce:90:91:c7:4b:8f:2c:28:52:dc:52:81:
                    f1:3e:dc:34:4f:aa:45:e7:66:34:51:9c:ce:ff:61:
                    0d:3c:f2:b7:1f:b3:3c:16:1d:c5:88:b1:71:79:cc:
                    95:ca:53:a4:88:80:6f:5d:79:72:b2:05:b8:f2:e8:
                    40:73:df:25:00:db:16:e8:80:15:08:8e:d1:1c:f3:
                    03:b2:9f:5b:95:f6:36:f4:50:31:26:51:79:e0:8d:
                    c2:d0:39:11:bc:50:1b:4b:48:be:9d:9a:08:86:b7:
                    16:0d:3a:94:5b:54:23:61:41:ad:6d:94:06:b2:9e:
                    22:79:e9:91:da:18:c4:15:0f:63:e2:ec:d7:17:f9:
                    ec:a8:32:d5:94:d6:f8:0a:a6:56:b0:83:01:a2:cf:
                    52:34:86:b9:6d:5a:a7:91:aa:f6:c3:57:a8:a9:a0:
                    85:c2:1e:55:94:fd:8a:bd:e7:65:94:93:4d:26:34:
                    45:f2:17:4e:33:92:2a:39:3c:f9:d6:3e:71:18:43:
                    8e:cb:24:4d:0a:3f:ab:de:9e:95:75:07:e5:e9:c6:
                    ed:d3:d5:98:af:a7:e0:26:2d:50:9e:44:ce:cc:70:
                    4b:56:e3:6d:9f:38:f2:a0:41:66:11:42:2a:cc:1d:
                    5f:c4:a3:11:b7:6b:8f:d7:a8:09:bd:90:26:1c:3c:
                    71:11:7f
                Exponent: 65537 (0x10001)
        X509v3 extensions:
            X509v3 Key Usage: critical
                Certificate Sign, CRL Sign
            X509v3 Extended Key Usage: 
                TLS Web Client Authentication, TLS Web Server Authentication
            X509v3 Basic Constraints: critical
                CA:TRUE
            X509v3 Subject Key Identifier: 
                49:E0:92:BB:E0:0B:F0:9C:29:C6:F2:77:91:19:82:68:1E:91:88:C7
            X509v3 Authority Key Identifier: 
                keyid:E8:B6:F6:76:4B:D0:3B:E5:46:A5:F9:54:D4:7E:07:B3:DE:0D:60:3E

            Authority Information Access: 
                OCSP - URI:http://ca.someca-inc.com/ocsp
                CA Issuers - URI:http://ca.someca-inc.com/root

            X509v3 Certificate Policies: 
                Policy: 2.23.140.1.1

            X509v3 CRL Distribution Points: 

                Full Name:
                  URI:http://ca.someca-inc.com/crl

    Signature Algorithm: sha256WithRSAEncryption
         08:fa:e0:5c:cf:ff:18:8f:7c:50:46:0f:2e:e5:9a:b5:72:6e:
         18:b8:31:4a:2b:46:be:1e:53:66:b3:6c:85:0e:21:fd:d9:0f:
         98:83:35:28:96:0e:65:17:48:ad:ae:32:aa:29:4a:8a:de:96:
         18:59:32:38:2b:4d:bb:c6:ae:d2:31:d7:28:43:d6:11:44:07:
         c5:59:f0:bc:b2:0c:54:ae:e5:3b:03:ca:02:32:e5:1f:f5:9f:
         57:44:fc:60:82:be:39:be:a6:5f:e4:f8:f1:68:38:08:89:3f:
         3b:8a:75:fb:9d:ab:f9:a2:77:3e:c7:50:f4:5e:61:96:de:2d:
         b6:fd:b6:64:70:5e:72:18:62:83:cd:29:08:09:d8:df:75:0d:
         4c:78:2b:cf:9d:42:12:94:64:0f:26:36:21:a6:6e:22:0b:bc:
         b5:1d:66:c9:dc:b2:4e:47:c3:92:c9:1b:d6:1e:c6:e8:63:14:
         e6:04:4c:9d:0f:0b:da:69:b1:ea:dc:24:05:8a:00:8d:3d:02:
         3e:95:f2:ea:6c:1f:e6:d5:a5:d4:90:9e:40:db:98:08:23:32:
         05:8c:61:ad:b4:cb:1c:3d:00:13:2c:85:fd:59:6a:f4:9e:bb:
         12:ba:c3:24:07:b2:cb:f7:c1:2b:14:17:90:95:8e:3c:99:f3:
         31:5e:c6:26:d1:95:3e:ac:13:6b:56:f1:e1:e4:51:29:3d:9f:
         28:e6:db:74:24:49:c0:7b:d1:11:9e:d9:db:09:d4:7d:e2:35:
         0e:13:28:96:46:e9:05:a3:39:2d:5e:a4:a6:44:2e:1e:3e:11:
         da:ba:b8:40:e2:a0:e4:39:36:00:0a:24:43:a4:b1:3c:ec:11:
         4c:9d:35:f7:56:0f:8b:4f:ac:80:1b:92:17:b7:31:24:3b:16:
         95:7d:ea:bd:6e:46:fd:3e:8b:26:82:01:cd:f6:f2:36:cd:c4:
         fc:a7:6a:41:cf:ec:61:52:3b:7d:de:30:a7:67:7c:4e:e9:16:
         41:fa:f2:08:1b:cb:0a:f8:80:e1:35:1b:78:55:14:33:3d:bb:
         99:52:d6:c6:3e:e5:0f:6c:60:e7:f9:d0:9d:7a:ae:59:0c:ed:
         03:96:b3:9f:0a:ef:85:61:49:6c:df:bc:36:c9:b4:be:f6:52:
         cf:5a:82:1e:7d:81:12:0a:0c:7c:1a:94:42:28:a8:d5:f5:2c:
         3f:51:7d:97:4a:70:e7:7d:9d:ed:1a:b2:dd:fc:11:94:f5:d4:
         1b:03:8a:15:44:a1:7d:12:7a:9d:b9:40:88:09:bb:bd:94:5d:
         73:8c:17:bc:88:59:e8:14:16:c6:d5:a0:df:9b:90:3d:79:26:
         45:74:91:76:25:07:63:80
-----BEGIN CERTIFICATE-----
MIIGcjCCBFqgAwIBAgIRAIpEIYMoKjiIXzCydTTsXgswDQYJKoZIhvcNAQELBQAw
SDELMAkGA1UEBhMCWFgxEDAOBgNVBAoTB1NvbWUgQ0ExJzAlBgNVBAMTHkZha2Ug
Um9vdCBDQSBmb3IgemxpbnQgdGVzdGluZzAeFw0yNDExMzAxNzAxMDZaFw0yOTEx
MjkxNzAxMDZaMHAxCzAJBgNVBAYTAlhYMRMwEQYDVQQIEwpTb21lIFN0YXRlMRYw
FAYDVQQHEw1Tb21lIExvY2FsaXR5MRAwDgYDVQQKEwdTb21lIENBMSIwIAYDVQQD
ExlGYWtlIENBIGZvciB6bGludCB0ZXN0aW5nMIICIjANBgkqhkiG9w0BAQEFAAOC
Ag8AMIICCgKCAgEAxuqAqmrnjMrLjQJiugkwkcMEOx8KdL4VeR1n6/TRyWZWoI52
3U26e4MruR/048ySHhlQJ0DMFQ5xYpjodyy7cDAPXHNvNjqixjYsG1nIqEK6oZia
+yaOp5RGZDhdsRImvxxIgXdnQ6kuhRq01Ws8N/hcdxJOHQn+NpE8ppE7WzLSMNN5
4qbFAttZyvDy37rmXSa2TW4YygqmKuZ9dZIIjNMYOd5gPiHh8knVyCTS7qKW/Jny
THl73rs+fJMlK+YE4IZPxuzr1o5gIyYfE+/Ro7sc6Ol8NEqPI+FsjGPyvz36oP8D
Kb/0rC8kPPJDpOyPuByouHBFvu+lU5+v4ZF9W5zOkJHHS48sKFLcUoHxPtw0T6pF
52Y0UZzO/2ENPPK3H7M8Fh3FiLFxecyVylOkiIBvXXlysgW48uhAc98lANsW6IAV
CI7RHPMDsp9blfY29FAxJlF54I3C0DkRvFAbS0i+nZoIhrcWDTqUW1QjYUGtbZQG
sp4ieemR2hjEFQ9j4uzXF/nsqDLVlNb4CqZWsIMBos9SNIa5bVqnkar2w1eoqaCF
wh5VlP2KvedllJNNJjRF8hdOM5IqOTz51j5xGEOOyyRNCj+r3p6VdQfl6cbt09WY
r6fgJi1QnkTOzHBLVuNtnzjyoEFmEUIqzB1fxKMRt2uP16gJvZAmHDxxEX8CAwEA
AaOCAS0wggEpMA4GA1UdDwEB/wQEAwIBBjAdBgNVHSUEFjAUBggrBgEFBQcDAgYI
KwYBBQUHAwEwDwYDVR0TAQH/BAUwAwEB/zAdBgNVHQ4EFgQUSeCSu+AL8JwpxvJ3
kRmCaB6RiMcwHwYDVR0jBBgwFoAU6Lb2dkvQO+VGpflU1H4Hs94NYD4wZAYIKwYB
BQUHAQEEWDBWMCkGCCsGAQUFBzABhh1odHRwOi8vY2Euc29tZWNhLWluYy5jb20v
b2NzcDApBggrBgEFBQcwAoYdaHR0cDovL2NhLnNvbWVjYS1pbmMuY29tL3Jvb3Qw
EgYDVR0gBAswCTAHBgVngQwBATAtBgNVHR8EJjAkMCKgIKAehhxodHRwOi8vY2Eu
c29tZWNhLWluYy5jb20vY3JsMA0GCSqGSIb3DQEBCwUAA4ICAQAI+uBcz/8Yj3xQ
Rg8u5Zq1cm4YuDFKK0a+HlNms2yFDiH92Q+YgzUolg5lF0itrjKqKUqK3pYYWTI4
K027xq7SMdcoQ9YRRAfFWfC8sgxUruU7A8oCMuUf9Z9XRPxggr45vqZf5PjxaDgI
iT87inX7nav5onc+x1D0XmGW3i22/bZkcF5yGGKDzSkICdjfdQ1MeCvPnUISlGQP
JjYhpm4iC7y1HWbJ3LJOR8OSyRvWHsboYxTmBEydDwvaabHq3CQFigCNPQI+lfLq
bB/m1aXUkJ5A25gIIzIFjGGttMscPQATLIX9WWr0nrsSusMkB7LL98ErFBeQlY48
mfMxXsYm0ZU+rBNrVvHh5FEpPZ8o5tt0JEnAe9ERntnbCdR94jUOEyiWRukFozkt
XqSmRC4ePhHaurhA4qDkOTYACiRDpLE87BFMnTX3Vg+LT6yAG5IXtzEkOxaVfeq9
bkb9PosmggHN9vI2zcT8p2pBz+xhUjt93jCnZ3xO6RZB+vIIG8sK+IDhNRt4VRQz
PbuZUtbGPuUPbGDn+dCdeq5ZDO0DlrOfCu+FYUls37w2ybS+9lLPWoIefYESCgx8
GpRCKKjV9Sw/UX2XSnDnfZ3tGrLd/BGU9dQbA4oVRKF9EnqduUCICbu9lF1zjBe8
iFnoFBbG1aDfm5A9eSZFdJF2JQdjgA==
-----END CERTIFICATE-----
