Certificate:
    Data:
        Version: 3 (0x2)
        Serial Number:
            af:18:62:d9:d3:3a:cf:93:91:1a:fb:dc:ea:7b:db:29
        Signature Algorithm: sha256WithRSAEncryption
        Issuer: C = XX, O = Some CA, CN = Fake CA for zlint testing
        Validity
            Not Before: Nov 30 16:26:28 2024 GMT
            Not After : Nov 30 16:26:28 2025 GMT
        Subject: C = XX, ST = Some State or Province, L = Somewhere, O = Some Company Ltd., CN = example.org, serialNumber = 1234567890, organizationIdentifier = VATDE-1234567890
        Subject Public Key Info:
            Public Key Algorithm: rsaEncryption
                RSA Public-Key: (2048 bit)
                Modulus:
                    00:dc:80:4e:96:74:8c:0d:b1:d3:0f:b3:f8:2b:9f:
                    59:17:90:fa:9d:59:32:12:71:82:09:b9:c2:34:3a:
                    9b:ef:2d:25:94:75:a3:5e:5a:bb:31:42:81:cf:5a:
                    cc:f0:08:2c:d7:af:5c:6f:0d:64:a4:fc:61:14:52:
                    27:0b:74:45:92:21:99:d6:f4:4d:c5:4d:d3:36:03:
                    77:3c:04:2b:1f:9c:1c:2a:c6:87:7e:bd:02:b4:10:
                    db:83:e6:13:9f:59:d2:9b:40:08:a9:d4:26:51:97:
                    81:b0:ac:bd:08:50:9f:e2:d9:94:30:83:2c:8e:a3:
                    39:38:74:27:bc:3d:82:27:cb:e6:d1:71:8b:a0:77:
                    81:9b:42:83:2e:ba:33:b9:f1:a7:88:ae:a7:b5:19:
                    8d:1e:18:62:58:d7:16:14:e9:97:f9:2f:e6:20:0c:
                    d8:5b:df:48:56:48:b0:92:0a:98:6b:ea:d8:bf:33:
                    48:93:e0:02:d0:f2:fc:75:fb:db:2d:22:64:26:a5:
                    4b:bb:50:e2:66:9e:37:b5:75:be:54:65:d4:72:36:
                    88:87:78:a0:3e:70:5c:6d:e3:99:e2:ee:c4:84:66:
                    a1:7a:de:3b:35:2a:e8:ca:43:fe:27:37:b1:f5:c1:
                    e6:b6:ee:70:a3:bc:00:6e:4b:14:8d:a3:9c:0c:8e:
                    4a:1f
                Exponent: 65537 (0x10001)
        X509v3 extensions:
            X509v3 Key Usage: critical
                Digital Signature, Key Encipherment
            X509v3 Extended Key Usage: 
                TLS Web Client Authentication, TLS Web Server Authentication
            X509v3 Subject Key Identifier: 
                74:83:AE:F4:37:A9:F4:BC:48:23:19:48:67:0C:D8:E2:77:3B:CB:5A
            X509v3 Authority Key Identifier: 
                keyid:E8:B6:F6:76:4B:D0:3B:E5:46:A5:F9:54:D4:7E:07:B3:DE:0D:60:3E

            Authority Information Access: 
                OCSP - URI:http://ca.someca-inc.com/ocsp
                CA Issuers - URI:http://ca.someca-inc.com/root

            X509v3 Subject Alternative Name: 
                DNS:example.org
            X509v3 Certificate Policies: 
                Policy: 2.23.140.1.1

            X509v3 CRL Distribution Points: 

                Full Name:
                  URI:http://ca.someca-inc.com/crl

            2.23.140.3.1: 
                0...VAT..DE.
1234567890
    Signature Algorithm: sha256WithRSAEncryption
         8d:de:d6:71:03:4c:89:a1:28:85:09:a5:95:2c:90:ca:53:39:
         53:4c:33:4d:50:ef:e9:8e:1b:75:d2:9c:3a:6e:1b:22:52:65:
         78:04:9b:12:f9:0b:12:e8:ae:a1:37:2b:33:38:a8:3a:14:53:
         9a:9d:e1:a0:8c:05:36:19:f0:e6:7a:40:e1:d4:ed:4d:98:e3:
         5b:73:87:46:72:ef:a6:17:30:f5:67:6b:20:8b:00:93:ea:1a:
         06:57:ef:2e:8d:57:d8:77:43:b9:ce:17:76:2f:f0:34:9e:e5:
         8c:52:ae:25:64:69:bb:12:98:a5:f1:b2:3f:e9:e5:85:d5:ce:
         25:a6:f3:ab:38:51:16:b2:73:c9:10:86:2f:80:c1:81:08:60:
         ad:ae:09:bb:0c:49:89:84:0f:2e:10:ee:03:cf:23:74:f2:d7:
         1e:5b:6b:ea:6a:98:4c:79:e8:9f:96:1b:40:09:55:f1:16:fd:
         f4:3a:0c:13:38:de:a3:d5:bc:13:a2:39:ef:1f:b3:db:d0:30:
         ea:2d:d1:d9:8c:ac:56:74:9f:de:e6:db:23:7c:7c:97:bf:38:
         4b:f2:f6:0f:e3:8c:e7:39:f3:8b:cd:df:16:e6:d4:da:73:be:
         1e:48:ff:92:b1:1c:2b:c8:c8:d9:ca:89:bd:cd:a8:73:b3:a9:
         6f:04:00:8f
-----BEGIN CERTIFICATE-----
MIIEyzCCA7OgAwIBAgIRAK8YYtnTOs+TkRr73Op72ykwDQYJKoZIhvcNAQELBQAw
QzELMAkGA1UEBhMCWFgxEDAOBgNVBAoTB1NvbWUgQ0ExIjAgBgNVBAMTGUZha2Ug
Q0EgZm9yIHpsaW50IHRlc3RpbmcwHhcNMjQxMTMwMTYyNjI4WhcNMjUxMTMwMTYy
NjI4WjCBpDELMAkGA1UEBhMCWFgxHzAdBgNVBAgTFlNvbWUgU3RhdGUgb3IgUHJv
dmluY2UxEjAQBgNVBAcTCVNvbWV3aGVyZTEaMBgGA1UEChMRU29tZSBDb21wYW55
IEx0ZC4xFDASBgNVBAMTC2V4YW1wbGUub3JnMRMwEQYDVQQFEwoxMjM0NTY3ODkw
MRkwFwYDVQRhExBWQVRERS0xMjM0NTY3ODkwMIIBIjANBgkqhkiG9w0BAQEFAAOC
AQ8AMIIBCgKCAQEA3IBOlnSMDbHTD7P4K59ZF5D6nVkyEnGCCbnCNDqb7y0llHWj
Xlq7MUKBz1rM8Ags169cbw1kpPxhFFInC3RFkiGZ1vRNxU3TNgN3PAQrH5wcKsaH
fr0CtBDbg+YTn1nSm0AIqdQmUZeBsKy9CFCf4tmUMIMsjqM5OHQnvD2CJ8vm0XGL
oHeBm0KDLrozufGniK6ntRmNHhhiWNcWFOmX+S/mIAzYW99IVkiwkgqYa+rYvzNI
k+AC0PL8dfvbLSJkJqVLu1DiZp43tXW+VGXUcjaIh3igPnBcbeOZ4u7EhGahet47
NSroykP+Jzex9cHmtu5wo7wAbksUjaOcDI5KHwIDAQABo4IBVjCCAVIwDgYDVR0P
AQH/BAQDAgWgMB0GA1UdJQQWMBQGCCsGAQUFBwMCBggrBgEFBQcDATAdBgNVHQ4E
FgQUdIOu9Dep9LxIIxlIZwzY4nc7y1owHwYDVR0jBBgwFoAU6Lb2dkvQO+VGpflU
1H4Hs94NYD4wZAYIKwYBBQUHAQEEWDBWMCkGCCsGAQUFBzABhh1odHRwOi8vY2Eu
c29tZWNhLWluYy5jb20vb2NzcDApBggrBgEFBQcwAoYdaHR0cDovL2NhLnNvbWVj
YS1pbmMuY29tL3Jvb3QwFgYDVR0RBA8wDYILZXhhbXBsZS5vcmcwEgYDVR0gBAsw
CTAHBgVngQwBATAtBgNVHR8EJjAkMCKgIKAehhxodHRwOi8vY2Euc29tZWNhLWlu
Yy5jb20vY3JsMCAGBWeBDAMBBBcwFRMDVkFUEwJERQwKMTIzNDU2Nzg5MDANBgkq
hkiG9w0BAQsFAAOCAQEAjd7WcQNMiaEohQmllSyQylM5U0wzTVDv6Y4bddKcOm4b
IlJleASbEvkLEuiuoTcrMzioOhRTmp3hoIwFNhnw5npA4dTtTZjjW3OHRnLvphcw
9WdrIIsAk+oaBlfvLo1X2HdDuc4Xdi/wNJ7ljFKuJWRpuxKYpfGyP+nlhdXOJabz
qzhRFrJzyRCGL4DBgQhgra4JuwxJiYQPLhDuA88jdPLXHltr6mqYTHnon5YbQAlV
8Rb99DoMEzjeo9W8E6I57x+z29Aw6i3R2YysVnSf3ubbI3x8l784S/L2D+OM5znz
i83fFubU2nO+Hkj/krEcK8jI2cqJvc2oc7OpbwQAjw==
-----END CERTIFICATE-----
