Certificate:
    Data:
        Version: 3 (0x2)
        Serial Number:
            cb:5b:09:44:ce:a7:94:1a:a6:0b:9a:f5:fe:25:79:05
        Signature Algorithm: sha256WithRSAEncryption
        Issuer: C = XX, O = Some CA, CN = Fake CA for zlint testing
        Validity
            Not Before: Jan 25 00:00:00 2020 GMT
            Not After : Jan 24 00:00:00 2021 GMT
        Subject: C = XX, ST = Some State or Province, L = Somewhere, O = Some Company Ltd., CN = example.org, serialNumber = 1234567890
        Subject Public Key Info:
            Public Key Algorithm: rsaEncryption
                RSA Public-Key: (2048 bit)
                Modulus:
                    00:c3:54:fd:d8:8e:46:87:56:f4:bd:76:40:be:79:
                    52:5b:38:78:aa:fc:3f:99:81:22:7d:50:72:9b:df:
                    12:19:1a:4d:06:7d:75:ff:f3:8a:04:8b:78:03:c4:
                    eb:dc:d8:c5:72:d6:8b:dc:0d:52:af:ad:07:e4:21:
                    9a:8e:34:60:1c:8d:c0:a7:49:ea:1d:dd:c5:28:88:
                    4e:98:64:d9:35:79:59:58:48:74:f9:68:48:37:fc:
                    cc:24:49:f8:9b:0a:b6:fc:ea:e7:b6:8b:70:ab:78:
                    40:33:1b:c7:61:04:6d:fd:8d:03:cc:4f:36:50:7f:
                    17:ea:e7:27:ca:32:01:4c:eb:1a:f7:39:d7:54:42:
                    d8:e8:5b:68:5a:a8:d3:bf:6f:06:36:cc:e3:ba:6b:
                    56:2d:b7:85:d1:b7:04:3f:2b:a0:a4:49:86:2c:57:
                    93:6a:e0:d6:d4:b8:9f:7f:bd:36:78:fb:c8:d8:3d:
                    28:46:25:f8:d1:61:ab:f7:51:22:59:bd:da:32:f6:
                    28:09:16:58:6a:d8:ae:96:79:2b:f2:70:54:89:8c:
                    bb:ff:43:8d:af:fc:a5:86:1d:68:0b:a3:d7:3c:0e:
                    e6:59:25:bc:52:52:53:98:62:97:67:21:86:01:fc:
                    d1:4f:24:06:d7:b7:3f:e1:81:87:14:ac:be:0d:d0:
                    31:05
                Exponent: 65537 (0x10001)
        X509v3 extensions:
            X509v3 Key Usage: critical
                Digital Signature, Key Encipherment
            X509v3 Extended Key Usage: 
                TLS Web Client Authentication, TLS Web Server Authentication
            X509v3 Subject Key Identifier: 
                D1:3A:04:DE:B4:2F:2C:C7:89:5E:45:0B:69:7C:60:27:29:02:2F:E5
            X509v3 Authority Key Identifier: 
                keyid:E8:B6:F6:76:4B:D0:3B:E5:46:A5:F9:54:D4:7E:07:B3:DE:0D:60:3E

            Authority Information Access: 
                OCSP - URI:http://ca.someca-inc.com/ocsp
                CA Issuers - URI:http://ca.someca-inc.com/root

            X509v3 Subject Alternative Name: 
                DNS:example.org
            X509v3 Certificate Policies: 
                Policy: 2.23.140.1.1

            X509v3 CRL Distribution Points: 

                Full Name:
                  URI:http://ca.someca-inc.com/crl

    Signature Algorithm: sha256WithRSAEncryption
         4e:bd:ee:c1:06:70:29:4c:0d:93:b1:73:a8:dd:40:a6:ec:a2:
         06:de:3e:7e:c6:ad:9e:a9:42:67:f3:d6:c2:3c:a7:ca:94:b8:
         75:f9:f8:ec:03:8b:16:3a:65:ed:b5:10:52:93:16:fc:0a:10:
         1e:0e:99:63:12:dd:5a:f1:95:8a:ea:b0:10:3d:d7:19:c1:50:
         99:52:75:cb:b2:c1:c6:d6:e8:fd:03:17:0a:0f:e8:c2:a7:d6:
         c1:c8:54:f4:fa:d3:aa:ca:fe:80:05:81:29:8d:ae:70:08:ea:
         8a:45:32:3f:b6:43:5e:40:15:92:ac:f9:9b:2f:9c:51:fc:5c:
         44:4a:68:20:d2:4e:d7:a4:7c:1a:cd:f3:ef:1b:35:f7:79:ee:
         64:2b:4a:3d:b4:14:24:fe:a6:b2:a4:9a:ce:57:85:27:59:ac:
         88:cf:d8:c3:60:d3:ce:96:5a:43:1d:0c:bb:77:a2:c4:0f:1c:
         40:f1:07:9a:e5:54:70:42:20:a2:b3:a3:29:46:4e:53:df:11:
         b8:20:8f:61:b6:4b:17:62:f4:c5:ca:93:57:cc:05:cc:89:67:
         cc:8a:3c:1f:6e:7c:c7:8f:67:47:0a:6c:5c:62:d5:11:a9:35:
         de:ad:34:88:7e:6a:ec:74:4f:f3:d3:20:19:ce:20:a7:36:da:
         bc:2b:60:a5
-----BEGIN CERTIFICATE-----
MIIEjjCCA3agAwIBAgIRAMtbCUTOp5Qapgua9f4leQUwDQYJKoZIhvcNAQELBQAw
QzELMAkGA1UEBhMCWFgxEDAOBgNVBAoTB1NvbWUgQ0ExIjAgBgNVBAMTGUZha2Ug
Q0EgZm9yIHpsaW50IHRlc3RpbmcwHhcNMjAwMTI1MDAwMDAwWhcNMjEwMTI0MDAw
MDAwWjCBiTELMAkGA1UEBhMCWFgxHzAdBgNVBAgTFlNvbWUgU3RhdGUgb3IgUHJv
dmluY2UxEjAQBgNVBAcTCVNvbWV3aGVyZTEaMBgGA1UEChMRU29tZSBDb21wYW55
IEx0ZC4xFDASBgNVBAMTC2V4YW1wbGUub3JnMRMwEQYDVQQFEwoxMjM0NTY3ODkw
MIIBIjANBgkqhkiG9w0BAQEFAAOCAQ8AMIIBCgKCAQEAw1T92I5Gh1b0vXZAvnlS
Wzh4qvw/mYEifVBym98SGRpNBn11//OKBIt4A8Tr3NjFctaL3A1Sr60H5CGajjRg
HI3Ap0nqHd3FKIhOmGTZNXlZWEh0+WhIN/zMJEn4mwq2/Orntotwq3hAMxvHYQRt
/Y0DzE82UH8X6ucnyjIBTOsa9znXVELY6FtoWqjTv28GNszjumtWLbeF0bcEPyug
pEmGLFeTauDW1Liff702ePvI2D0oRiX40WGr91EiWb3aMvYoCRZYatiulnkr8nBU
iYy7/0ONr/ylhh1oC6PXPA7mWSW8UlJTmGKXZyGGAfzRTyQG17c/4YGHFKy+DdAx
BQIDAQABo4IBNDCCATAwDgYDVR0PAQH/BAQDAgWgMB0GA1UdJQQWMBQGCCsGAQUF
BwMCBggrBgEFBQcDATAdBgNVHQ4EFgQU0ToE3rQvLMeJXkULaXxgJykCL+UwHwYD
VR0jBBgwFoAU6Lb2dkvQO+VGpflU1H4Hs94NYD4wZAYIKwYBBQUHAQEEWDBWMCkG
CCsGAQUFBzABhh1odHRwOi8vY2Euc29tZWNhLWluYy5jb20vb2NzcDApBggrBgEF
BQcwAoYdaHR0cDovL2NhLnNvbWVjYS1pbmMuY29tL3Jvb3QwFgYDVR0RBA8wDYIL
ZXhhbXBsZS5vcmcwEgYDVR0gBAswCTAHBgVngQwBATAtBgNVHR8EJjAkMCKgIKAe
hhxodHRwOi8vY2Euc29tZWNhLWluYy5jb20vY3JsMA0GCSqGSIb3DQEBCwUAA4IB
AQBOve7BBnApTA2TsXOo3UCm7KIG3j5+xq2eqUJn89bCPKfKlLh1+fjsA4sWOmXt
tRBSkxb8ChAeDpljEt1a8ZWK6rAQPdcZwVCZUnXLssHG1uj9AxcKD+jCp9bByFT0
+tOqyv6ABYEpja5wCOqKRTI/tkNeQBWSrPmbL5xR/FxESmgg0k7XpHwazfPvGzX3
ee5kK0o9tBQk/qaypJrOV4UnWayIz9jDYNPOllpDHQy7d6LEDxxA8Qea5VRwQiCi
s6MpRk5T3xG4II9htksXYvTFypNXzAXMiWfMijwfbnzHj2dHCmxcYtURqTXerTSI
fmrsdE/z0yAZziCnNtq8K2Cl
-----END CERTIFICATE-----
