Certificate:
    Data:
        Version: 3 (0x2)
        Serial Number: 4804 (0x12c4)
        Signature Algorithm: sha256WithRSAEncryption
        Issuer: C=DE, ST=Bayern, L=N\xC3\x83\xC2\xBCrnberg, O=Siemens AG, OU=Trustcenter, CN=OliverCA/emailAddress=oliver.stiller@siemens.com
        Validity
            Not Before: Dec 31 13:25:07 2020 GMT
            Not After : Dec 31 13:25:07 2021 GMT
        Subject: O=testconstraints07, CN=testconstraints07
        Subject Public Key Info:
            Public Key Algorithm: rsaEncryption
                RSA Public-Key: (2048 bit)
                Modulus:
                    00:b8:51:60:f6:60:4a:97:b6:3f:48:a2:9e:27:ee:
                    b1:91:89:66:a2:4d:dc:4e:67:dc:04:51:e5:a5:34:
                    b5:b9:c3:81:d6:26:0a:0d:80:b4:b4:3c:ff:a7:13:
                    23:ad:29:f0:c2:38:e6:24:90:4f:a3:91:b6:bd:95:
                    24:07:6a:9d:2d:de:dc:14:5b:f8:7a:e1:9b:d4:2c:
                    70:8f:a2:e7:09:ae:6f:9b:68:51:be:f7:46:78:f4:
                    bd:5e:be:63:7a:83:dc:ce:0b:88:3f:05:93:bf:6c:
                    3e:8c:ff:1b:79:1c:94:ba:0f:a2:b2:ec:fb:37:50:
                    5b:36:e9:20:8e:0a:41:81:c8:58:4d:e2:37:38:2b:
                    ed:0e:83:bc:3a:54:18:af:c9:5c:20:84:db:03:6d:
                    2e:ea:ad:62:6b:91:cd:e0:69:07:fe:61:86:d0:86:
                    c8:c5:0b:bd:aa:3c:ff:e3:85:e3:df:4d:20:c3:0e:
                    9f:e0:09:c6:71:cb:39:3c:dd:b5:49:6d:51:71:2e:
                    79:3f:97:77:a6:cc:6f:42:e7:a1:08:6f:17:27:0f:
                    16:10:23:71:eb:d8:3e:37:cd:72:be:be:bc:ee:7b:
                    ff:99:dd:c4:15:d3:f3:7d:d5:ce:4a:66:94:68:a4:
                    6d:73:56:55:be:68:53:15:f3:09:c9:2a:95:b6:5e:
                    47:09
                Exponent: 65537 (0x10001)
        X509v3 extensions:
            X509v3 Extended Key Usage: 
                Any Extended Key Usage, TLS Web Server Authentication
            X509v3 Key Usage: 
                Digital Signature, Key Encipherment
            X509v3 Name Constraints: 
                Permitted:
                  URI:dns://192.168.1.1/ftp.example.org?type=A

    Signature Algorithm: sha256WithRSAEncryption
         86:e1:1a:54:15:cb:f0:7b:8e:d2:e7:c5:bd:5c:69:e0:18:d6:
         37:a8:62:8c:7c:0b:cd:a2:4f:a6:7e:9e:36:2b:b3:ba:f7:dd:
         6d:bf:85:b6:8c:af:45:8a:0b:fc:65:89:1a:29:47:9c:56:40:
         0b:7f:cf:a2:d5:dd:19:44:f0:82:55:19:46:bd:e1:67:8d:0d:
         bf:85:c4:d9:e4:79:37:8b:a5:8e:e1:32:d1:0c:11:a5:6e:09:
         9a:31:ae:ad:c8:74:26:17:ee:b0:cf:cd:81:92:60:2d:dc:a5:
         e2:13:3f:db:58:09:e8:04:03:44:27:40:5e:77:0c:ce:3a:d2:
         fa:46:25:f6:64:98:c5:00:64:c2:1f:70:e3:ba:09:2f:c6:3b:
         d8:dc:e7:06:11:c7:4e:78:0e:89:f1:fc:d7:d5:74:49:fe:10:
         d7:ae:84:fa:64:fe:98:1c:ad:ec:99:b1:7b:b6:58:40:2f:5c:
         79:01:ea:b2:84:67:6d:82:b2:7f:45:49:a1:54:42:e6:02:ba:
         43:64:af:1c:34:33:ab:a3:21:f5:3b:5c:d1:73:98:d5:ff:23:
         c8:56:fd:9d:e4:0f:3b:d9:32:07:3b:72:37:1e:75:93:05:70:
         4b:9a:c9:a8:0b:a6:ef:15:d9:6d:93:1a:ce:91:93:ef:ff:49:
         24:3a:a9:0c:11:2d:9c:fa:5b:42:c1:ca:99:d3:a6:f2:50:da:
         52:88:fb:db:f5:c6:7c:da:c0:19:a0:06:3e:28:14:57:f8:72:
         8b:de:45:ac:61:a6:5e:8d:26:1d:08:f6:1c:d3:a3:de:0f:ce:
         77:91:00:aa:c7:fb:e7:2b:e7:f9:bd:83:9e:24:49:4f:62:3e:
         78:40:0c:8f:17:d6:59:f8:7b:da:c1:2e:47:34:62:83:90:47:
         68:f2:86:07:fe:44:d4:fb:dd:6b:5e:a4:22:1f:04:45:7d:5c:
         1b:05:72:31:4f:e0:5c:29:3f:ab:e2:71:d4:8f:91:bd:a8:42:
         7d:52:fd:a2:2e:96:07:87:55:ed:fa:d5:7b:a8:24:b9:18:98:
         4f:64:97:6b:8c:28:7e:b3:c7:f6:11:f1:cb:8b:6c:0c:c9:d9:
         00:aa:c3:d5:d1:4b:ad:4a:2b:c0:8a:d8:37:db:d3:2f:a9:3f:
         b4:10:a1:23:9f:94:ef:84:78:49:93:63:5d:b4:64:83:40:c9:
         9c:40:a6:e4:5d:4c:5c:af:ca:a1:bf:f3:88:69:dc:b6:b9:17:
         c7:74:c0:d0:4c:37:75:71:e5:7d:b9:60:89:a7:5c:3c:12:fb:
         f1:4c:7b:fe:8e:6f:90:93:93:5f:dd:34:bf:16:29:12:5f:63:
         7a:98:f8:45:b2:aa:41:df
-----BEGIN CERTIFICATE-----
MIIEtTCCAp2gAwIBAgICEsQwDQYJKoZIhvcNAQELBQAwgZ0xCzAJBgNVBAYTAkRF
MQ8wDQYDVQQIDAZCYXllcm4xFDASBgNVBAcMC07Dg8K8cm5iZXJnMRMwEQYDVQQK
DApTaWVtZW5zIEFHMRQwEgYDVQQLDAtUcnVzdGNlbnRlcjERMA8GA1UEAwwIT2xp
dmVyQ0ExKTAnBgkqhkiG9w0BCQEWGm9saXZlci5zdGlsbGVyQHNpZW1lbnMuY29t
MB4XDTIwMTIzMTEzMjUwN1oXDTIxMTIzMTEzMjUwN1owODEaMBgGA1UECgwRdGVz
dGNvbnN0cmFpbnRzMDcxGjAYBgNVBAMMEXRlc3Rjb25zdHJhaW50czA3MIIBIjAN
BgkqhkiG9w0BAQEFAAOCAQ8AMIIBCgKCAQEAuFFg9mBKl7Y/SKKeJ+6xkYlmok3c
TmfcBFHlpTS1ucOB1iYKDYC0tDz/pxMjrSnwwjjmJJBPo5G2vZUkB2qdLd7cFFv4
euGb1Cxwj6LnCa5vm2hRvvdGePS9Xr5jeoPczguIPwWTv2w+jP8beRyUug+isuz7
N1BbNukgjgpBgchYTeI3OCvtDoO8OlQYr8lcIITbA20u6q1ia5HN4GkH/mGG0IbI
xQu9qjz/44Xj300gww6f4AnGccs5PN21SW1RcS55P5d3psxvQuehCG8XJw8WECNx
69g+N81yvr687nv/md3EFdPzfdXOSmaUaKRtc1ZVvmhTFfMJySqVtl5HCQIDAQAB
o2MwYTAZBgNVHSUEEjAQBgRVHSUABggrBgEFBQcDATALBgNVHQ8EBAMCBaAwNwYD
VR0eBDAwLqAsMCqGKGRuczovLzE5Mi4xNjguMS4xL2Z0cC5leGFtcGxlLm9yZz90
eXBlPUEwDQYJKoZIhvcNAQELBQADggIBAIbhGlQVy/B7jtLnxb1caeAY1jeoYox8
C82iT6Z+njYrs7r33W2/hbaMr0WKC/xliRopR5xWQAt/z6LV3RlE8IJVGUa94WeN
Db+FxNnkeTeLpY7hMtEMEaVuCZoxrq3IdCYX7rDPzYGSYC3cpeITP9tYCegEA0Qn
QF53DM460vpGJfZkmMUAZMIfcOO6CS/GO9jc5wYRx054Donx/NfVdEn+ENeuhPpk
/pgcreyZsXu2WEAvXHkB6rKEZ22Csn9FSaFUQuYCukNkrxw0M6ujIfU7XNFzmNX/
I8hW/Z3kDzvZMgc7cjcedZMFcEuayagLpu8V2W2TGs6Rk+//SSQ6qQwRLZz6W0LB
ypnTpvJQ2lKI+9v1xnzawBmgBj4oFFf4coveRaxhpl6NJh0I9hzTo94PzneRAKrH
++cr5/m9g54kSU9iPnhADI8X1ln4e9rBLkc0YoOQR2jyhgf+RNT73WtepCIfBEV9
XBsFcjFP4FwpP6vicdSPkb2oQn1S/aIulgeHVe361XuoJLkYmE9kl2uMKH6zx/YR
8cuLbAzJ2QCqw9XRS61KK8CK2Dfb0y+pP7QQoSOflO+EeEmTY120ZINAyZxApuRd
TFyvyqG/84hp3La5F8d0wNBMN3Vx5X25YImnXDwS+/FMe/6Ob5CTk1/dNL8WKRJf
Y3qY+EWyqkHf
-----END CERTIFICATE-----
