Certificate:
    Data:
        Version: 3 (0x2)
        Serial Number: -5986265944092410477 (-0x53137d28d8a5826d)
    Signature Algorithm: sha1WithRSAEncryption
        Issuer: CN = Microsoft Forefront TMG HTTPS Inspection Certification Authority
        Validity
            Not Before: Jan 18 00:41:00 2014 GMT
            Not After : Nov 15 09:37:56 2015 GMT
        Subject: C = ID, ST = jakarta, L = Indonesia, O = sthonorehotelresort, OU = sthonorehotelresort, CN = mail.sthonorehotelresort.com
        Subject Public Key Info:
            Public Key Algorithm: rsaEncryption
                Public-Key: (2048 bit)
                Modulus:
                    00:af:ba:ed:2a:a4:8f:8a:a3:65:fc:e1:3c:24:7f:
                    ce:1c:44:3f:eb:82:9e:af:a6:07:39:11:b7:a3:c7:
                    f0:f8:3c:45:4e:37:97:9d:66:46:b3:ac:c1:a8:70:
                    af:e8:42:a2:25:47:1c:7f:95:e7:e9:a2:73:7f:72:
                    19:46:72:59:5c:55:53:d6:4e:e1:63:b3:c9:3e:01:
                    ab:7a:4f:5a:a9:e2:25:f1:65:e9:00:a9:7f:94:e1:
                    76:4c:20:62:43:dc:f7:24:3c:be:86:d9:14:12:94:
                    5e:ff:2e:11:82:b1:13:51:74:aa:4c:59:24:db:a2:
                    ed:8c:6b:7f:60:e7:62:9f:82:c9:77:48:af:c6:c0:
                    b8:96:a7:1a:5c:4a:43:50:0f:58:6e:82:0b:84:22:
                    c4:18:2f:16:de:37:0a:5c:85:e5:d9:b7:16:c1:1a:
                    0b:8f:cd:0e:eb:1f:c7:39:be:e2:94:06:43:0e:cd:
                    a8:8d:28:bc:c7:6c:17:45:4a:bb:9a:f0:a5:b0:08:
                    98:3b:e9:57:6a:fe:ad:fa:3b:d1:a5:5b:a6:20:1b:
                    78:be:03:8a:42:26:35:d6:7a:b2:35:95:6c:17:2a:
                    d9:39:57:e4:af:50:71:9e:cb:56:e4:0e:e6:4a:27:
                    a9:b2:32:4d:a9:1a:ba:cf:58:24:fb:8c:fe:d6:b2:
                    40:a1
                Exponent: 65537 (0x10001)
        Issuer Unique ID: 
            42:af:57:60:12:57:a8:70
        X509v3 extensions:
            X509v3 Subject Alternative Name: 
                DNS:mail.sthonorehotelresort.com, DNS:ashchsvr.sthonorehotelresort.com, DNS:AutoDiscover.sthonorehotelresort.com, DNS:AutoDiscover.hotelresort.com, DNS:ASHCHSVR, DNS:sthonorehotelresort.com, DNS:hotelresort.com
            1.3.6.1.4.1.311.20.2: 
                ...W.e.b.S.e.r.v.e.r
            X509v3 Subject Key Identifier: 
                C0:02:DD:44:78:17:00:1D:19:E9:1B:84:C8:27:77:A9:4C:7A:3B:5B
            X509v3 Key Usage: 
                Digital Signature, Key Encipherment
            X509v3 Extended Key Usage: 
                TLS Web Server Authentication
            X509v3 Basic Constraints: 
                CA:FALSE
            2.5.29.1: 
                0....g.......'....V{U..r....0..1..0....U......M.i.c.r.o.s.o.f.t. .F.o.r.e.f.r.o.n.t. .T.M.G. .H.T.T.P.S. .I.n.s.p.e.c.t.i.o.n. .C.e.r.t.i.f.i.c.a.t.i.o.n. .A.u.t.h.o.r.i.t.y..p.W.`W.B
    Signature Algorithm: sha1WithRSAEncryption
         19:52:c7:20:8c:af:7f:80:36:bf:96:98:f4:a3:c8:de:58:08:
         90:60:9d:2d:08:14:2c:09:03:32:18:3f:ce:db:71:3c:9e:fd:
         4f:1e:43:6f:84:e8:fa:86:43:b1:ee:8f:b9:df:1c:4c:3d:aa:
         71:a8:f8:73:72:3e:9d:5a:77:72:8e:47:35:c3:6f:9e:1c:eb:
         11:28:8b:e0:de:b8:fc:d8:1c:f6:e7:e1:cd:e1:94:7e:3d:23:
         46:90:79:65:b6:c3:84:6c:95:25:a9:2e:f3:ba:63:b2:db:a3:
         2c:f6:fd:38:64:fe:cd:a4:77:84:47:c6:49:16:a4:7d:a5:b4:
         fa:89:b9:86:20:dd:7e:a8:33:9f:a0:20:51:c9:58:69:e1:fa:
         88:d9:e5:c9:4a:bd:2e:72:5e:1d:d6:92:3e:fc:33:ab:1b:df:
         62:9f:70:19:34:1f:1e:8d:90:26:0f:b7:ad:0e:0d:89:96:b6:
         fa:b0:b7:0e:ab:ef:7b:b9:4e:74:d8:59:13:6f:a3:6b:2f:5f:
         af:53:ae:22:fe:0a:41:d8:f4:ed:47:93:07:f6:22:de:73:1e:
         5d:e0:36:22:93:25:56:9a:93:c0:2e:13:3f:c2:29:66:67:7a:
         8b:ed:c9:82:f0:85:48:60:dc:f5:f9:0a:8d:55:29:81:3e:f5:
         3c:65:a2:21
-----BEGIN CERTIFICATE-----
MIIFsDCCBJigAwIBAgIIrOyC1ydafZMwDQYJKoZIhvcNAQEFBQAwgY4xgYswgYgG
A1UEAx6BgABNAGkAYwByAG8AcwBvAGYAdAAgAEYAbwByAGUAZgByAG8AbgB0ACAA
VABNAEcAIABIAFQAVABQAFMAIABJAG4AcwBwAGUAYwB0AGkAbwBuACAAQwBlAHIA
dABpAGYAaQBjAGEAdABpAG8AbgAgAEEAdQB0AGgAbwByAGkAdAB5MB4XDTE0MDEx
ODAwNDEwMFoXDTE1MTExNTA5Mzc1NlowgZYxCzAJBgNVBAYTAklEMRAwDgYDVQQI
EwdqYWthcnRhMRIwEAYDVQQHEwlJbmRvbmVzaWExHDAaBgNVBAoTE3N0aG9ub3Jl
aG90ZWxyZXNvcnQxHDAaBgNVBAsTE3N0aG9ub3JlaG90ZWxyZXNvcnQxJTAjBgNV
BAMTHG1haWwuc3Rob25vcmVob3RlbHJlc29ydC5jb20wggEiMA0GCSqGSIb3DQEB
AQUAA4IBDwAwggEKAoIBAQCvuu0qpI+Ko2X84Twkf84cRD/rgp6vpgc5Ebejx/D4
PEVON5edZkazrMGocK/oQqIlRxx/lefponN/chlGcllcVVPWTuFjs8k+Aat6T1qp
4iXxZekAqX+U4XZMIGJD3PckPL6G2RQSlF7/LhGCsRNRdKpMWSTbou2Ma39g52Kf
gsl3SK/GwLiWpxpcSkNQD1hugguEIsQYLxbeNwpcheXZtxbBGguPzQ7rH8c5vuKU
BkMOzaiNKLzHbBdFSrua8KWwCJg76Vdq/q36O9GlW6YgG3i+A4pCJjXWerI1lWwX
Ktk5V+SvUHGey1bkDuZKJ6myMk2pGrrPWCT7jP7WskChAgMBAAGBCQBCr1dgEleo
cKOCAfswggH3MIHDBgNVHREEgbswgbiCHG1haWwuc3Rob25vcmVob3RlbHJlc29y
dC5jb22CIGFzaGNoc3ZyLnN0aG9ub3JlaG90ZWxyZXNvcnQuY29tgiRBdXRvRGlz
Y292ZXIuc3Rob25vcmVob3RlbHJlc29ydC5jb22CHEF1dG9EaXNjb3Zlci5ob3Rl
bHJlc29ydC5jb22CCEFTSENIU1ZSghdzdGhvbm9yZWhvdGVscmVzb3J0LmNvbYIP
aG90ZWxyZXNvcnQuY29tMCEGCSsGAQQBgjcUAgQUHhIAVwBlAGIAUwBlAHIAdgBl
AHIwHQYDVR0OBBYEFMAC3UR4FwAdGekbhMgnd6lMejtbMAsGA1UdDwQEAwIFoDAT
BgNVHSUEDDAKBggrBgEFBQcDATAJBgNVHRMEAjAAMIG/BgNVHQEEgbcwgbSAFGfF
6xihk+gJJ5TfwvtWe1UFnHLQoYGRMIGOMYGLMIGIBgNVBAMegYAATQBpAGMAcgBv
AHMAbwBmAHQAIABGAG8AcgBlAGYAcgBvAG4AdAAgAFQATQBHACAASABUAFQAUABT
ACAASQBuAHMAcABlAGMAdABpAG8AbgAgAEMAZQByAHQAaQBmAGkAYwBhAHQAaQBv
AG4AIABBAHUAdABoAG8AcgBpAHQAeYIIcKhXEmBXr0IwDQYJKoZIhvcNAQEFBQAD
ggEBABlSxyCMr3+ANr+WmPSjyN5YCJBgnS0IFCwJAzIYP87bcTye/U8eQ2+E6PqG
Q7Huj7nfHEw9qnGo+HNyPp1ad3KORzXDb54c6xEoi+DeuPzYHPbn4c3hlH49I0aQ
eWW2w4RslSWpLvO6Y7Lboyz2/Thk/s2kd4RHxkkWpH2ltPqJuYYg3X6oM5+gIFHJ
WGnh+ojZ5clKvS5yXh3Wkj78M6sb32KfcBk0Hx6NkCYPt60ODYmWtvqwtw6r73u5
TnTYWRNvo2svX69TriL+CkHY9O1Hkwf2It5zHl3gNiKTJVaak8AuEz/CKWZneovt
yYLwhUhg3PX5Co1VKYE+9TxloiE=
-----END CERTIFICATE-----
