Certificate:
    Data:
        Version: 3 (0x2)
        Serial Number:
            f8:fd:9d:63:3d:82:fc:c0:d9:ff:99:ba
        Signature Algorithm: ecdsa-with-SHA256
        Issuer: CN = Lint CA, O = Lint, C = DE
        Validity
            Not Before: Mar 14 23:59:59 2026 GMT
            Not After : Mar 15 00:00:00 2027 GMT
        Subject: 
        Subject Public Key Info:
            Public Key Algorithm: id-ecPublicKey
                Public-Key: (256 bit)
                pub:
                    04:4a:53:9a:8e:13:b2:21:bd:47:99:4e:2f:2c:cd:
                    c1:de:63:3b:80:ba:f5:34:67:dd:f5:a2:f4:27:36:
                    a9:dd:6d:77:e2:9c:07:53:e2:95:45:3c:42:9e:bb:
                    07:91:c5:21:56:2c:29:8b:26:da:75:3b:52:8e:09:
                    d9:1d:7a:0a:07
                ASN1 OID: prime256v1
                NIST CURVE: P-256
        X509v3 extensions:
            X509v3 Certificate Policies: 
                Policy: 2.23.140.1.2.1

    Signature Algorithm: ecdsa-with-SHA256
         30:46:02:21:00:ba:2c:ae:ab:51:24:ce:60:c4:3d:d8:6c:4b:
         60:e2:a0:72:cb:6a:dd:36:39:c0:c3:05:0e:8f:e5:2d:81:ff:
         94:02:21:00:b3:65:79:b9:be:e8:32:35:fa:56:6f:dd:76:6c:
         47:fc:3a:57:c1:54:de:66:70:5e:36:ba:bb:e8:76:b4:6e:c0
-----BEGIN CERTIFICATE-----
MIIBQDCB5qADAgECAg0A+P2dYz2C/MDZ/5m6MAoGCCqGSM49BAMCMC4xEDAOBgNV
BAMMB0xpbnQgQ0ExDTALBgNVBAoMBExpbnQxCzAJBgNVBAYTAkRFMB4XDTI2MDMx
NDIzNTk1OVoXDTI3MDMxNTAwMDAwMFowADBZMBMGByqGSM49AgEGCCqGSM49AwEH
A0IABEpTmo4TsiG9R5lOLyzNwd5jO4C69TRn3fWi9Cc2qd1td+KcB1PilUU8Qp67
B5HFIVYsKYsm2nU7Uo4J2R16CgejFzAVMBMGA1UdIAQMMAowCAYGZ4EMAQIBMAoG
CCqGSM49BAMCA0kAMEYCIQC6LK6rUSTOYMQ92GxLYOKgcstq3TY5wMMFDo/lLYH/
lAIhALNlebm+6DI1+lZv3XZsR/w6V8FU3mZwXja6u+h2tG7A
-----END CERTIFICATE-----
