Certificate:
    Data:
        Version: 3 (0x2)
        Serial Number:
            ee:e4:da:9c:bd:4f:f7:5b:2f:04:47:2e
        Signature Algorithm: ecdsa-with-SHA256
        Issuer: CN = Lint CA, O = Lint, C = DE
        Validity
            Not Before: Mar 14 23:59:59 2027 GMT
            Not After : Sep 30 23:59:58 2027 GMT
        Subject: 
        Subject Public Key Info:
            Public Key Algorithm: id-ecPublicKey
                Public-Key: (256 bit)
                pub:
                    04:89:f4:3a:79:89:ac:a5:50:94:c3:35:f3:20:c0:
                    4d:0c:d9:4c:6f:f3:44:e2:5d:8f:0f:d7:61:37:2b:
                    2a:28:06:cf:a3:31:d7:28:de:c5:72:bf:55:84:a8:
                    cb:34:d0:7a:ac:08:fb:69:45:89:c5:44:94:92:85:
                    99:0a:87:a7:e5
                ASN1 OID: prime256v1
                NIST CURVE: P-256
        X509v3 extensions:
            X509v3 Certificate Policies: 
                Policy: 2.23.140.1.2.1

    Signature Algorithm: ecdsa-with-SHA256
         30:46:02:21:00:b5:68:a5:38:09:7c:47:15:07:ec:c1:fa:e6:
         5d:84:dc:b9:6d:92:55:27:3b:63:ff:07:8d:4a:c8:e3:8d:c2:
         d2:02:21:00:d2:4b:b6:98:cf:d3:58:14:e8:b4:c1:bd:66:11:
         28:ad:58:47:b7:92:1c:84:38:9a:58:af:f7:1b:23:45:fe:35
-----BEGIN CERTIFICATE-----
MIIBQDCB5qADAgECAg0A7uTanL1P91svBEcuMAoGCCqGSM49BAMCMC4xEDAOBgNV
BAMMB0xpbnQgQ0ExDTALBgNVBAoMBExpbnQxCzAJBgNVBAYTAkRFMB4XDTI3MDMx
NDIzNTk1OVoXDTI3MDkzMDIzNTk1OFowADBZMBMGByqGSM49AgEGCCqGSM49AwEH
A0IABIn0OnmJrKVQlMM18yDATQzZTG/zROJdjw/XYTcrKigGz6Mx1yjexXK/VYSo
yzTQeqwI+2lFicVElJKFmQqHp+WjFzAVMBMGA1UdIAQMMAowCAYGZ4EMAQIBMAoG
CCqGSM49BAMCA0kAMEYCIQC1aKU4CXxHFQfswfrmXYTcuW2SVSc7Y/8HjUrI443C
0gIhANJLtpjP01gU6LTBvWYRKK1YR7eSHIQ4mliv9xsjRf41
-----END CERTIFICATE-----
