Certificate:
    Data:
        Version: 3 (0x2)
        Serial Number:
            17:37:ee:f7:db:1a:50:24:59:fd:4d:1a
        Signature Algorithm: ecdsa-with-SHA256
        Issuer: CN = Lint CA, O = Lint, C = DE
        Validity
            Not Before: Mar 14 23:59:59 2029 GMT
            Not After : Jun 22 23:59:58 2029 GMT
        Subject: 
        Subject Public Key Info:
            Public Key Algorithm: id-ecPublicKey
                Public-Key: (256 bit)
                pub:
                    04:3c:1e:ba:e3:08:87:84:8b:a5:15:c1:79:f0:6a:
                    2c:d2:75:9b:ca:a7:79:c6:0e:90:5c:15:84:4b:e6:
                    f1:23:bb:40:69:68:b5:14:e5:18:07:20:fc:bb:5b:
                    20:2c:79:67:ae:23:be:07:95:68:64:d1:59:ea:05:
                    27:78:98:e3:02
                ASN1 OID: prime256v1
                NIST CURVE: P-256
        X509v3 extensions:
            X509v3 Certificate Policies: 
                Policy: 2.23.140.1.2.1

    Signature Algorithm: ecdsa-with-SHA256
         30:44:02:20:64:7f:7c:74:66:b4:3a:4a:a3:21:5f:67:9c:ac:
         e3:5e:82:07:a3:87:88:e7:bc:c6:e2:a9:cf:06:c9:a8:fa:96:
         02:20:38:f6:ef:1b:38:94:0b:90:dc:30:16:91:93:ec:b1:9e:
         b8:5d:01:27:84:06:77:1d:51:c6:4e:41:9f:ea:5c:14
-----BEGIN CERTIFICATE-----
MIIBPTCB5aADAgECAgwXN+732xpQJFn9TRowCgYIKoZIzj0EAwIwLjEQMA4GA1UE
AwwHTGludCBDQTENMAsGA1UECgwETGludDELMAkGA1UEBhMCREUwHhcNMjkwMzE0
MjM1OTU5WhcNMjkwNjIyMjM1OTU4WjAAMFkwEwYHKoZIzj0CAQYIKoZIzj0DAQcD
QgAEPB664wiHhIulFcF58Gos0nWbyqd5xg6QXBWES+bxI7tAaWi1FOUYByD8u1sg
LHlnriO+B5VoZNFZ6gUneJjjAqMXMBUwEwYDVR0gBAwwCjAIBgZngQwBAgEwCgYI
KoZIzj0EAwIDRwAwRAIgZH98dGa0OkqjIV9nnKzjXoIHo4eI57zG4qnPBsmo+pYC
IDj27xs4lAuQ3DAWkZPssZ64XQEnhAZ3HVHGTkGf6lwU
-----END CERTIFICATE-----
