Certificate:
    Data:
        Version: 3 (0x2)
        Serial Number:
            06:7f:94:57:58:fe:55:b9:ee:3f:75:83:1d:47:f0:7d:22:6c:8a
        Signature Algorithm: ecdsa-with-SHA256
        Issuer: C = US, O = Example Corp, CN = Test Root CA 3
        Validity
            Not Before: Oct 22 00:00:00 2015 GMT
            Not After : Oct 19 00:00:00 2025 GMT
        Subject: C = US, O = Example Corp, CN = Sneaky Subscriber CA
        Subject Public Key Info:
            Public Key Algorithm: id-ecPublicKey
                Public-Key: (256 bit)
                pub:
                    04:d8:71:8b:0a:99:87:51:d0:68:fc:5f:3e:39:13:
                    f9:5f:71:34:e7:5e:18:36:12:d0:08:60:12:07:c9:
                    7b:ff:65:0c:b2:c8:26:ac:d5:aa:6d:5f:f2:39:4f:
                    57:28:4f:a5:ca:d7:cd:60:9c:1f:21:00:3b:8a:7d:
                    69:4d:a0:86:11
                ASN1 OID: prime256v1
                NIST CURVE: P-256
        X509v3 extensions:
            X509v3 Basic Constraints: critical
                CA:FALSE
            X509v3 Key Usage: critical
                Digital Signature, Certificate Sign, CRL Sign
            X509v3 Subject Key Identifier: 
                04:DC:E0:95:E5:E8:B9:6B:94:A1:EF:8C:5B:31:1E:13:7E:55:97:DA
            X509v3 Authority Key Identifier: 
                AB:B6:DB:D7:06:9F:37:AC:20:86:07:92:70:C7:9C:B4:19:B1:78:C0
            Authority Information Access: 
                OCSP - URI:http://ocsp.rootca3.example.test
                CA Issuers - URI:http://crt.rootca3.example.test/rootca3.cer
            X509v3 CRL Distribution Points: 
                Full Name:
                  URI:http://crl.rootca3.example.test/rootca3.crl
            X509v3 Certificate Policies: 
                Policy: X509v3 Any Policy
    Signature Algorithm: ecdsa-with-SHA256
    Signature Value:
        30:45:02:20:3a:5f:ef:bb:1d:2a:7f:13:66:d3:95:b7:7a:87:
        da:f6:52:b0:cf:aa:0a:bd:db:ba:83:a4:9c:d1:49:70:81:17:
        02:21:00:92:59:24:3a:17:a2:47:2e:87:8e:58:bc:85:14:5e:
        b9:f1:e3:4a:10:a6:e4:10:63:07:cf:7e:20:2d:7f:cd:de
-----BEGIN CERTIFICATE-----
MIICsDCCAlagAwIBAgITBn+UV1j+VbnuP3WDHUfwfSJsijAKBggqhkjOPQQDAjA9
MQswCQYDVQQGEwJVUzEVMBMGA1UEChMMRXhhbXBsZSBDb3JwMRcwFQYDVQQDEw5U
ZXN0IFJvb3QgQ0EgMzAeFw0xNTEwMjIwMDAwMDBaFw0yNTEwMTkwMDAwMDBaMEMx
CzAJBgNVBAYTAlVTMRUwEwYDVQQKEwxFeGFtcGxlIENvcnAxHTAbBgNVBAMTFFNu
ZWFreSBTdWJzY3JpYmVyIENBMFkwEwYHKoZIzj0CAQYIKoZIzj0DAQcDQgAE2HGL
CpmHUdBo/F8+ORP5X3E0514YNhLQCGASB8l7/2UMssgmrNWqbV/yOU9XKE+lytfN
YJwfIQA7in1pTaCGEaOCAS0wggEpMA8GA1UdEwEB/wQFMAMBAQAwDgYDVR0PAQH/
BAQDAgGGMB0GA1UdDgQWBBQE3OCV5ei5a5Sh74xbMR4TflWX2jAfBgNVHSMEGDAW
gBSrttvXBp83rCCGB5Jwx5y0GbF4wDB1BggrBgEFBQcBAQRpMGcwLAYIKwYBBQUH
MAGGIGh0dHA6Ly9vY3NwLnJvb3RjYTMuZXhhbXBsZS50ZXN0MDcGCCsGAQUFBzAC
hitodHRwOi8vY3J0LnJvb3RjYTMuZXhhbXBsZS50ZXN0L3Jvb3RjYTMuY2VyMDwG
A1UdHwQ1MDMwMaAvoC2GK2h0dHA6Ly9jcmwucm9vdGNhMy5leGFtcGxlLnRlc3Qv
cm9vdGNhMy5jcmwwEQYDVR0gBAowCDAGBgRVHSAAMAoGCCqGSM49BAMCA0gAMEUC
IDpf77sdKn8TZtOVt3qH2vZSsM+qCr3buoOknNFJcIEXAiEAklkkOheiRy6Hjli8
hRReufHjShCm5BBjB89+IC1/zd4=
-----END CERTIFICATE-----
