Certificate:
    Data:
        Version: 3 (0x2)
        Serial Number: 3 (0x3)
        Signature Algorithm: ecdsa-with-SHA256
        Issuer: 
        Validity
            Not Before: Mar  2 15:17:12 2018 GMT
            Not After : Mar  2 15:17:12 2020 GMT
        Subject: CN = of3wk4tupf2ws33q.onion
        Subject Public Key Info:
            Public Key Algorithm: rsaEncryption
                RSA Public-Key: (1024 bit)
                Modulus:
                    00:dc:c6:fd:da:ed:19:03:e5:6e:36:13:c6:39:bf:
                    85:5a:d8:c0:34:d9:67:36:32:20:78:03:01:73:6b:
                    e6:40:da:25:8e:ae:2c:29:81:7a:77:d8:22:16:9c:
                    a0:8c:47:e9:67:45:5c:95:42:d1:8c:1c:cc:87:31:
                    7c:43:09:75:f8:9e:96:dc:e7:5e:44:29:4c:6d:28:
                    5c:96:75:aa:b0:98:07:a9:53:9f:dd:d1:a4:68:af:
                    ba:08:a2:23:f1:0d:c5:1f:c0:09:62:5a:9b:c6:ef:
                    43:b0:65:6f:8c:2a:75:e6:66:61:93:2a:29:04:a3:
                    c3:9d:f8:63:d1:a8:8e:3f:1f
                Exponent: 65537 (0x10001)
        X509v3 extensions:
            X509v3 Key Usage: critical
                Certificate Sign, CRL Sign
            X509v3 Subject Alternative Name: 
                DNS:zmap.io, DNS:OF3WK4TUPF2WS33Q.onion
            X509v3 Certificate Policies: 
                Policy: 1.3.6.1.4.1.36305.2

    Signature Algorithm: ecdsa-with-SHA256
         30:45:02:20:22:a8:45:3b:49:6d:18:9e:e3:c3:79:82:8f:f2:
         89:1b:5b:64:fd:a6:a2:ad:a3:14:ec:67:de:e8:96:ab:34:1d:
         02:21:00:d9:7e:e0:3e:d2:ea:43:36:c7:46:5f:55:c1:80:27:
         6b:7d:30:eb:0a:5a:9c:7b:d1:8e:d3:ab:a3:bb:c4:60:fd
-----BEGIN CERTIFICATE-----
MIIBrTCCAVOgAwIBAgIBAzAKBggqhkjOPQQDAjAAMB4XDTE4MDMwMjE1MTcxMloX
DTIwMDMwMjE1MTcxMlowITEfMB0GA1UEAxMWb2Yzd2s0dHVwZjJ3czMzcS5vbmlv
bjCBnzANBgkqhkiG9w0BAQEFAAOBjQAwgYkCgYEA3Mb92u0ZA+VuNhPGOb+FWtjA
NNlnNjIgeAMBc2vmQNoljq4sKYF6d9giFpygjEfpZ0VclULRjBzMhzF8Qwl1+J6W
3OdeRClMbShclnWqsJgHqVOf3dGkaK+6CKIj8Q3FH8AJYlqbxu9DsGVvjCp15mZh
kyopBKPDnfhj0aiOPx8CAwEAAaNWMFQwDgYDVR0PAQH/BAQDAgAGMCoGA1UdEQQj
MCGCB3ptYXAuaW+CFk9GM1dLNFRVUEYyV1MzM1Eub25pb24wFgYDVR0gBA8wDTAL
BgkrBgEEAYKbUQIwCgYIKoZIzj0EAwIDSAAwRQIgIqhFO0ltGJ7jw3mCj/KJG1tk
/aairaMU7Gfe6JarNB0CIQDZfuA+0upDNsdGX1XBgCdrfTDrClqce9GO06uju8Rg
/Q==
-----END CERTIFICATE-----
