Certificate:
    Data:
        Version: 3 (0x2)
        Serial Number: 18008675984 (0x431669690)
    Signature Algorithm: sha256WithRSAEncryption
        Issuer: C = US, O = Mother Nature, OU = Everything, CN = Mother Nature
        Validity
            Not Before: Jul  6 15:46:42 2016 GMT
            Not After : Sep 18 15:46:42 2016 GMT
        Subject: C = US, ST = FL, L = Tallahassee, street = 3210 Holly Mill Run, postalCode = 30062, O = Extreme Discord, OU = Chaos, CN = gov.us
        Subject Public Key Info:
            Public Key Algorithm: rsaEncryption
                Public-Key: (2048 bit)
                Modulus:
                    00:b2:9b:4d:4a:39:47:65:76:5f:0f:fc:3d:62:01:
                    b5:6c:b9:66:9e:d7:c4:09:88:57:ef:ee:ce:b5:80:
                    55:17:c4:0c:5e:7c:d7:7a:81:be:26:a7:5f:1d:6a:
                    f2:2c:ca:04:47:5c:f1:45:44:4c:9e:b7:48:f7:5a:
                    d1:3f:75:d0:51:9a:4b:5a:6a:b4:27:0e:93:dd:c3:
                    ba:8f:d7:27:92:14:28:95:d1:ca:9b:70:d1:b9:fa:
                    70:e7:2d:c0:57:56:6b:5d:8b:c5:8e:93:c0:2b:8e:
                    81:4a:62:72:d8:ff:c9:ef:4b:d0:44:db:9e:dc:88:
                    2f:d4:c9:fe:d5:13:38:17:a4:d7:ab:7b:9a:85:68:
                    cd:f2:0d:04:c8:e8:0c:39:55:4c:21:61:af:f7:c8:
                    e7:d3:c5:2a:c6:7f:5f:8a:f5:1c:a0:7c:77:29:66:
                    6d:5d:ed:73:38:92:30:f8:a7:8a:83:a2:92:fa:d0:
                    ea:7a:ed:48:5c:c8:54:4f:3d:c4:21:3c:e6:b0:39:
                    54:91:67:d8:d4:04:0c:a6:18:de:62:6e:41:64:19:
                    d5:e8:f2:86:8f:a3:d6:50:fc:cb:4b:22:2c:09:2a:
                    69:64:e6:8a:bf:87:2a:dc:52:28:14:89:eb:d9:bf:
                    c5:9e:b9:26:66:69:cd:b0:8e:6e:7b:8f:a6:f9:e0:
                    8d:2b
                Exponent: 65537 (0x10001)
        X509v3 extensions:
            X509v3 Key Usage: critical
                Digital Signature, Key Encipherment, Certificate Sign
            X509v3 Extended Key Usage: 
                TLS Web Client Authentication, TLS Web Server Authentication
            X509v3 Authority Key Identifier: 
                keyid:01:02:03

            Authority Information Access: 
                OCSP - URI:http://theca.net/ocsp
                CA Issuers - URI:http://theca.net/totallythecert.crt

            X509v3 Certificate Policies: 
                Policy: 1.3.6.1.5.5.7.13.1
                Policy: 2.23.140.1.2.2

            X509v3 Subject Key Identifier: 
                04:03:02:01
            X509v3 Subject Alternative Name: 
                DNS:*.gov.us, DNS:gov.us
            X509v3 Issuer Alternative Name: 
                DNS:allthethings.net, DNS:theca.net
    Signature Algorithm: sha256WithRSAEncryption
         a8:e9:f7:7b:0a:86:e4:8e:90:0a:ce:39:35:fc:3f:f6:40:9a:
         ad:07:d5:33:cb:f9:f0:4c:9b:f6:14:30:9a:a4:63:b4:d2:78:
         59:d0:57:b7:67:f4:3f:9f:1c:9e:5a:6b:07:08:03:42:c6:fb:
         fe:81:d5:a7:e7:ac:7d:e7:eb:e3:b3:c0:95:fd:66:e2:b2:66:
         15:fa:3f:e1:a8:73:44:72:dc:bc:5d:b7:6f:bd:41:fc:c8:d6:
         06:5b:00:c0:01:8e:0e:29:ef:a8:42:b1:f3:cf:89:4e:46:b3:
         6f:ac:96:50:dd:9a:62:a9:4a:3d:c5:c6:f6:d5:1c:d6:dc:ca:
         1a:83:1c:97:d5:d8:8a:e8:bc:8f:f3:ec:90:25:bd:69:11:45:
         33:4b:f8:cf:5d:31:45:08:7a:1b:9c:24:a3:25:0c:f5:70:eb:
         cb:e7:b7:f4:d3:0a:8c:88:19:a0:e2:8e:70:d4:da:cd:1c:52:
         65:c1:05:b0:14:42:fb:97:4f:ab:7c:56:00:04:3a:98:df:38:
         a4:49:41:d8:db:46:19:84:3b:dd:44:12:14:b2:ed:c1:86:12:
         ff:9b:04:0b:42:59:be:af:da:31:4b:bc:27:c1:d6:e0:2c:d1:
         dc:98:15:39:84:dc:42:e9:5b:96:43:75:67:fa:60:83:0c:6b:
         ff:9c:29:01
-----BEGIN CERTIFICATE-----
MIIEiTCCA3GgAwIBAgIFBDFmlpAwDQYJKoZIhvcNAQELBQAwUjELMAkGA1UEBhMC
VVMxFjAUBgNVBAoTDU1vdGhlciBOYXR1cmUxEzARBgNVBAsTCkV2ZXJ5dGhpbmcx
FjAUBgNVBAMTDU1vdGhlciBOYXR1cmUwHhcNMTYwNzA2MTU0NjQyWhcNMTYwOTE4
MTU0NjQyWjCBmTELMAkGA1UEBhMCVVMxCzAJBgNVBAgTAkZMMRQwEgYDVQQHEwtU
YWxsYWhhc3NlZTEcMBoGA1UECRMTMzIxMCBIb2xseSBNaWxsIFJ1bjEOMAwGA1UE
ERMFMzAwNjIxGDAWBgNVBAoTD0V4dHJlbWUgRGlzY29yZDEOMAwGA1UECxMFQ2hh
b3MxDzANBgNVBAMTBmdvdi51czCCASIwDQYJKoZIhvcNAQEBBQADggEPADCCAQoC
ggEBALKbTUo5R2V2Xw/8PWIBtWy5Zp7XxAmIV+/uzrWAVRfEDF5813qBvianXx1q
8izKBEdc8UVETJ63SPda0T910FGaS1pqtCcOk93Duo/XJ5IUKJXRyptw0bn6cOct
wFdWa12LxY6TwCuOgUpictj/ye9L0ETbntyIL9TJ/tUTOBek16t7moVozfINBMjo
DDlVTCFhr/fI59PFKsZ/X4r1HKB8dylmbV3tcziSMPinioOikvrQ6nrtSFzIVE89
xCE85rA5VJFn2NQEDKYY3mJuQWQZ1ejyho+j1lD8y0siLAkqaWTmir+HKtxSKBSJ
69m/xZ65JmZpzbCObnuPpvngjSsCAwEAAaOCARwwggEYMA4GA1UdDwEB/wQEAwIC
pDAdBgNVHSUEFjAUBggrBgEFBQcDAgYIKwYBBQUHAwEwDgYDVR0jBAcwBYADAQID
MGIGCCsGAQUFBwEBBFYwVDAhBggrBgEFBQcwAYYVaHR0cDovL3RoZWNhLm5ldC9v
Y3NwMC8GCCsGAQUFBzAChiNodHRwOi8vdGhlY2EubmV0L3RvdGFsbHl0aGVjZXJ0
LmNydDAfBgNVHSAEGDAWMAoGCCsGAQUFBw0BMAgGBmeBDAECAjANBgNVHQ4EBgQE
BAMCATAbBgNVHREEFDASgggqLmdvdi51c4IGZ292LnVzMCYGA1UdEgQfMB2CEGFs
bHRoZXRoaW5ncy5uZXSCCXRoZWNhLm5ldDANBgkqhkiG9w0BAQsFAAOCAQEAqOn3
ewqG5I6QCs45Nfw/9kCarQfVM8v58Eyb9hQwmqRjtNJ4WdBXt2f0P58cnlprBwgD
Qsb7/oHVp+esfefr47PAlf1m4rJmFfo/4ahzRHLcvF23b71B/MjWBlsAwAGODinv
qEKx88+JTkazb6yWUN2aYqlKPcXG9tUc1tzKGoMcl9XYiui8j/PskCW9aRFFM0v4
z10xRQh6G5wkoyUM9XDry+e39NMKjIgZoOKOcNTazRxSZcEFsBRC+5dPq3xWAAQ6
mN84pElB2NtGGYQ73UQSFLLtwYYS/5sEC0JZvq/aMUu8J8HW4CzR3JgVOYTcQulb
lkN1Z/pggwxr/5wpAQ==
-----END CERTIFICATE-----
