Certificate:
    Data:
        Version: 3 (0x2)
        Serial Number: 3 (0x3)
        Signature Algorithm: ecdsa-with-SHA256
        Issuer: 
        Validity
            Not Before: May  1 00:00:00 2008 GMT
            Not After : Nov 30 00:00:00 9998 GMT
        Subject: 
        Subject Public Key Info:
            Public Key Algorithm: id-ecPublicKey
                Public-Key: (256 bit)
                pub:
                    04:ab:9a:98:17:73:5b:d0:cd:bd:8e:ff:a4:18:52:
                    ec:bd:18:e4:3a:b0:44:6a:e8:fc:75:ea:62:76:52:
                    46:a7:dd:00:da:1d:4b:3b:31:f6:df:46:7f:24:8e:
                    49:ec:20:a4:40:fb:11:7f:19:46:9c:b7:15:53:6d:
                    5d:b7:11:77:34
                ASN1 OID: prime256v1
                NIST CURVE: P-256
        X509v3 extensions:
            X509v3 Key Usage: critical
                Digital Signature, Non Repudiation
            X509v3 Extended Key Usage: 
                TLS Web Server Authentication
    Signature Algorithm: ecdsa-with-SHA256
         30:44:02:20:6c:7c:22:2f:f5:87:ca:2f:ee:52:1b:37:d5:35:
         d3:7b:8b:10:63:ea:ac:10:1b:0e:a6:34:78:df:be:e7:85:24:
         02:20:13:d4:bc:dc:46:07:97:35:cf:58:cf:13:cd:f3:c7:a3:
         25:d0:38:61:0d:22:b7:50:25:5e:ba:24:19:a9:92:67
-----BEGIN CERTIFICATE-----
MIIBFjCBvqADAgECAgEDMAoGCCqGSM49BAMCMAAwIBcNMDgwNTAxMDAwMDAwWhgP
OTk5ODExMzAwMDAwMDBaMAAwWTATBgcqhkjOPQIBBggqhkjOPQMBBwNCAASrmpgX
c1vQzb2O/6QYUuy9GOQ6sERq6Px16mJ2Ukan3QDaHUs7MfbfRn8kjknsIKRA+xF/
GUactxVTbV23EXc0oycwJTAOBgNVHQ8BAf8EBAMCAMAwEwYDVR0lBAwwCgYIKwYB
BQUHAwEwCgYIKoZIzj0EAwIDRwAwRAIgbHwiL/WHyi/uUhs31TXTe4sQY+qsEBsO
pjR4377nhSQCIBPUvNxGB5c1z1jPE83zx6Ml0DhhDSK3UCVeuiQZqZJn
-----END CERTIFICATE-----