Certificate:
    Data:
        Version: 3 (0x2)
        Serial Number: 3 (0x3)
        Signature Algorithm: ecdsa-with-SHA256
        Issuer: 
        Validity
            Not Before: May  1 00:00:00 2008 GMT
            Not After : Nov 30 00:00:00 9998 GMT
        Subject: 
        Subject Public Key Info:
            Public Key Algorithm: id-ecPublicKey
                Public-Key: (256 bit)
                pub:
                    04:57:e4:a6:3c:60:a4:c4:b4:3a:ce:88:0e:c9:59:
                    75:66:95:f4:ac:2c:9d:4f:d3:83:5d:cd:af:4c:cf:
                    20:ec:44:d0:23:dd:23:c8:d7:4e:ee:c7:e6:5c:ca:
                    41:da:dd:69:44:d2:27:85:7d:08:08:57:d3:87:8e:
                    3a:a3:04:38:ba
                ASN1 OID: prime256v1
                NIST CURVE: P-256
        X509v3 extensions:
            X509v3 Key Usage: critical
                Digital Signature, Data Encipherment
            X509v3 Extended Key Usage: 
                E-mail Protection, TLS Web Client Authentication
    Signature Algorithm: ecdsa-with-SHA256
         30:44:02:20:30:b1:f1:8b:7c:04:af:90:28:b7:20:5c:65:96:
         a0:cd:fd:46:04:26:82:f7:01:1a:a5:bf:de:ec:54:77:75:e4:
         02:20:60:6c:51:ab:ec:86:0e:31:4b:79:f3:37:8c:12:6c:ff:
         c5:86:c3:14:d6:de:d7:bd:96:39:fa:8d:50:17:79:59
-----BEGIN CERTIFICATE-----
MIIBIDCByKADAgECAgEDMAoGCCqGSM49BAMCMAAwIBcNMDgwNTAxMDAwMDAwWhgP
OTk5ODExMzAwMDAwMDBaMAAwWTATBgcqhkjOPQIBBggqhkjOPQMBBwNCAARX5KY8
YKTEtDrOiA7JWXVmlfSsLJ1P04Ndza9MzyDsRNAj3SPI107ux+ZcykHa3WlE0ieF
fQgIV9OHjjqjBDi6ozEwLzAOBgNVHQ8BAf8EBAMCAJAwHQYDVR0lBBYwFAYIKwYB
BQUHAwQGCCsGAQUFBwMCMAoGCCqGSM49BAMCA0cAMEQCIDCx8Yt8BK+QKLcgXGWW
oM39RgQmgvcBGqW/3uxUd3XkAiBgbFGr7IYOMUt58zeMEmz/xYbDFNbe172WOfqN
UBd5WQ==
-----END CERTIFICATE-----