Certificate:
    Data:
        Version: 3 (0x2)
        Serial Number: 3 (0x3)
        Signature Algorithm: ecdsa-with-SHA256
        Issuer: 
        Validity
            Not Before: May  1 00:00:00 2008 GMT
            Not After : Nov 30 00:00:00 9998 GMT
        Subject: 
        Subject Public Key Info:
            Public Key Algorithm: id-ecPublicKey
                Public-Key: (256 bit)
                pub:
                    04:eb:8a:9c:e0:fd:6a:ad:be:c1:38:81:a5:44:c4:
                    1a:ad:90:29:90:7f:6d:38:2f:83:ce:f2:66:fc:ab:
                    fa:e0:b5:84:6e:ca:20:4b:69:4f:17:68:17:1c:24:
                    ab:51:7e:fa:cb:88:18:51:78:d8:35:bf:ff:86:96:
                    f8:14:d9:1c:8f
                ASN1 OID: prime256v1
                NIST CURVE: P-256
        X509v3 extensions:
            X509v3 Key Usage: critical
                Digital Signature, Non Repudiation
            X509v3 Extended Key Usage: 
                E-mail Protection, TLS Web Client Authentication
    Signature Algorithm: ecdsa-with-SHA256
         30:45:02:21:00:ac:7b:1b:25:7f:56:5d:32:19:ca:de:8f:44:
         e6:52:fa:db:5e:5a:43:92:4e:87:f2:b8:43:7d:be:fd:df:ec:
         38:02:20:6e:59:a6:36:4f:8d:2a:92:b8:9e:b6:43:0d:6a:1e:
         95:ca:a1:f1:7e:3d:bb:97:58:ab:c7:fb:3f:d9:5d:85:09
-----BEGIN CERTIFICATE-----
MIIBITCByKADAgECAgEDMAoGCCqGSM49BAMCMAAwIBcNMDgwNTAxMDAwMDAwWhgP
OTk5ODExMzAwMDAwMDBaMAAwWTATBgcqhkjOPQIBBggqhkjOPQMBBwNCAATripzg
/WqtvsE4gaVExBqtkCmQf204L4PO8mb8q/rgtYRuyiBLaU8XaBccJKtRfvrLiBhR
eNg1v/+GlvgU2RyPozEwLzAOBgNVHQ8BAf8EBAMCAMAwHQYDVR0lBBYwFAYIKwYB
BQUHAwQGCCsGAQUFBwMCMAoGCCqGSM49BAMCA0gAMEUCIQCsexslf1ZdMhnK3o9E
5lL6215aQ5JOh/K4Q32+/d/sOAIgblmmNk+NKpK4nrZDDWoelcqh8X49u5dYq8f7
P9ldhQk=
-----END CERTIFICATE-----