Certificate:
    Data:
        Version: 3 (0x2)
        Serial Number: 3 (0x3)
        Signature Algorithm: ecdsa-with-SHA256
        Issuer: 
        Validity
            Not Before: May  1 00:00:00 2008 GMT
            Not After : Nov 30 00:00:00 9998 GMT
        Subject: 
        Subject Public Key Info:
            Public Key Algorithm: id-ecPublicKey
                Public-Key: (256 bit)
                pub:
                    04:08:95:ad:12:a9:39:ec:b1:df:31:12:e6:79:2f:
                    5e:59:f1:ff:b1:25:b1:92:76:f4:e5:0b:ea:20:ba:
                    02:b2:7b:bd:32:ae:f5:f3:de:77:b2:2d:08:16:8b:
                    8c:df:08:27:25:cd:b9:1c:3c:dd:19:d4:5f:92:19:
                    ab:f7:62:3f:fb
                ASN1 OID: prime256v1
                NIST CURVE: P-256
        X509v3 extensions:
            X509v3 Key Usage: critical
                Digital Signature
            X509v3 Extended Key Usage: 
                TLS Web Server Authentication
    Signature Algorithm: ecdsa-with-SHA256
         30:45:02:21:00:9d:fb:3f:05:b5:28:fb:21:1e:ca:80:fe:07:
         d6:92:25:12:9c:de:46:28:3e:97:f8:5c:9e:7e:17:5a:33:c5:
         60:02:20:3e:8c:a5:8c:37:b5:c2:44:7d:f5:fc:33:f6:d1:e9:
         f6:89:75:39:d8:73:b2:20:fe:54:7f:83:ce:30:34:e3:98
-----BEGIN CERTIFICATE-----
MIIBFzCBvqADAgECAgEDMAoGCCqGSM49BAMCMAAwIBcNMDgwNTAxMDAwMDAwWhgP
OTk5ODExMzAwMDAwMDBaMAAwWTATBgcqhkjOPQIBBggqhkjOPQMBBwNCAAQIla0S
qTnssd8xEuZ5L15Z8f+xJbGSdvTlC+ogugKye70yrvXz3neyLQgWi4zfCCclzbkc
PN0Z1F+SGav3Yj/7oycwJTAOBgNVHQ8BAf8EBAMCAIAwEwYDVR0lBAwwCgYIKwYB
BQUHAwEwCgYIKoZIzj0EAwIDSAAwRQIhAJ37PwW1KPshHsqA/gfWkiUSnN5GKD6X
+FyefhdaM8VgAiA+jKWMN7XCRH31/DP20en2iXU52HOyIP5Uf4POMDTjmA==
-----END CERTIFICATE-----