Certificate:
    Data:
        Version: 3 (0x2)
        Serial Number:
            41:2e:49:a9:85:dc:a2:d1:5d:1f:6f:b2:df:a4:a9:71
        Signature Algorithm: sha256WithRSAEncryption
        Issuer: C=XX, O=Some CA, CN=Fake CA for Zlint testing
        Validity
            Not Before: May 29 11:27:53 2025 GMT
            Not After : May 29 11:27:53 2026 GMT
        Subject: C=BR, ST=Bahia, L=Juazeiro, CN=PSEUDO.AB12345, pseudonym=PSEUDO.AB12345
        Subject Public Key Info:
            Public Key Algorithm: rsaEncryption
                Public-Key: (2048 bit)
                Modulus:
                    00:d4:52:4d:1e:3a:ec:01:95:77:1d:0f:5a:4f:b4:
                    25:4b:ac:1d:fd:e6:1f:89:ce:3b:ad:4c:a4:e5:72:
                    6b:8c:b7:17:83:ac:f0:cd:5d:a9:75:b4:6a:29:c5:
                    0e:60:57:b0:90:1e:48:e6:75:46:4f:2e:c3:4c:67:
                    4a:d0:37:99:f0:d7:fc:c0:57:9a:a8:a5:79:1f:2a:
                    91:ae:3c:78:41:96:a0:9f:63:ae:c9:48:43:fc:22:
                    c9:e9:eb:29:9b:24:7f:5b:5d:cb:01:50:06:5d:0e:
                    1f:2b:3c:6d:95:ef:fd:67:b0:c5:ee:a0:c4:06:13:
                    9b:d5:d9:3b:02:0f:80:44:cd:7a:58:ff:79:e4:a7:
                    a0:52:cd:d0:19:40:e3:e2:9c:13:5c:b9:44:e9:57:
                    3f:d2:fb:1b:3e:83:a3:86:05:34:7a:3a:bc:2a:f4:
                    e2:ba:2e:75:eb:ed:ae:fe:6b:7e:d3:40:6a:6c:fa:
                    15:96:14:61:87:79:a2:e8:a4:2d:1f:e4:7e:42:c1:
                    15:d4:64:8d:99:ac:f5:23:ab:18:38:9e:92:b4:15:
                    3e:dd:04:e6:64:3d:a9:23:22:d5:fb:02:0d:07:a0:
                    cb:74:70:c3:6d:4f:b0:68:49:65:ac:d9:36:0c:88:
                    2d:f9:30:2c:d9:e7:43:9e:65:ea:11:55:0c:54:f3:
                    fb:c7
                Exponent: 65537 (0x10001)
        X509v3 extensions:
            X509v3 Key Usage: critical
                Digital Signature, Key Encipherment
            X509v3 Extended Key Usage: 
                TLS Web Client Authentication, E-mail Protection
            X509v3 Subject Key Identifier: 
                26:09:AF:EE:9C:FE:17:7D:2F:87:99:F4:40:D4:D8:27:E3:60:C3:BD
            X509v3 Authority Key Identifier: 
                E8:B6:F6:76:4B:D0:3B:E5:46:A5:F9:54:D4:7E:07:B3:DE:0D:60:3E
            Authority Information Access: 
                OCSP - URI:http://ca.someca-inc.com/ocsp
                CA Issuers - URI:http://ca.someca-inc.com/root
            X509v3 Subject Alternative Name: 
                email:pseudo.ab12345@example.org
            X509v3 Certificate Policies: 
                Policy: 2.23.140.1.5.4.3
            X509v3 CRL Distribution Points: 
                Full Name:
                  URI:http://ca.someca-inc.com/crl
    Signature Algorithm: sha256WithRSAEncryption
    Signature Value:
        01:00:43:7a:29:cf:c5:91:fa:df:ac:2a:79:73:6b:4b:bf:1b:
        8c:3c:45:05:0f:94:86:72:d4:4b:0b:91:24:a9:6f:11:a6:24:
        a7:3e:5c:2d:3c:41:68:15:4a:95:6f:ae:49:e2:e1:7a:19:31:
        53:03:48:8b:cb:f4:47:d4:8d:0d:42:4b:12:1b:be:38:c1:6f:
        2e:f0:02:f0:0e:93:6e:56:a9:f2:2f:b5:91:7e:55:08:7a:2f:
        9f:1a:cd:7d:0a:87:6f:43:1d:1b:84:bf:c7:fa:52:aa:48:c5:
        31:4c:58:18:c9:34:84:9e:15:ee:f3:ee:a0:81:51:5a:6f:71:
        41:28:53:2c:95:55:13:f8:fd:bb:8a:36:63:be:93:05:9f:09:
        3d:bb:0c:55:11:47:b4:7d:89:18:3b:0f:87:c4:3e:25:83:53:
        41:6f:7a:54:76:2a:58:80:ca:2f:12:bf:3c:b2:e0:e6:5b:74:
        31:15:34:a0:63:46:23:2c:48:da:f3:ee:23:47:25:d8:bf:e1:
        03:03:4c:6c:f2:b0:15:0d:99:c9:f4:c8:8e:78:d3:5c:df:ce:
        59:17:3b:2e:f4:20:45:54:b1:54:0a:73:d2:2a:e5:98:ca:ea:
        da:9b:55:93:be:83:b1:13:4f:c2:da:48:3f:2f:ed:c0:d0:fc:
        aa:02:16:49:27:3a:68:46:c4:98:17:0f:ef:f9:36:0c:ca:d2:
        94:8e:4e:8a:53:68:36:f3:d9:e4:cd:6e:bb:35:c0:44:70:c0:
        94:b8:33:ab:2a:e2:55:a5:4b:6a:98:8d:1f:70:94:a3:0f:6e:
        ec:a1:50:e0:61:66:bb:98:74:79:b3:97:96:7e:0e:86:ff:7c:
        75:a0:44:6f:0b:7d:b0:04:49:b5:6f:46:19:fb:78:02:a0:5b:
        75:7c:55:69:46:93:ec:63:b4:da:db:e1:a4:1b:da:e9:03:e8:
        f3:06:74:b4:12:d4:66:77:23:78:91:10:68:8c:bb:d0:0f:bc:
        75:80:78:af:5b:a5:fe:60:8f:d5:bc:60:6a:4e:f4:1f:5c:14:
        9e:11:1f:6b:ef:2a:cc:7b:72:44:36:09:6b:9b:6c:88:95:67:
        12:3d:59:94:48:df:38:5d:05:81:8c:c8:7b:0d:04:fb:8a:5d:
        bc:69:1f:2b:66:17:c1:46:d9:bc:0d:6c:c7:8d:60:b1:0a:94:
        85:c2:1f:2d:bf:5b:6f:fc:08:48:05:67:be:1d:fb:4d:9b:7e:
        c5:65:4e:57:53:8a:e2:b6:c0:29:df:8d:78:b4:be:93:85:88:
        00:9a:de:c4:e6:ef:8d:1d:0e:0f:a7:76:af:e5:23:4c:bb:bd:
        43:bf:62:84:fa:ec:5f:81
-----BEGIN CERTIFICATE-----
MIIFdjCCA16gAwIBAgIQQS5JqYXcotFdH2+y36SpcTANBgkqhkiG9w0BAQsFADBD
MQswCQYDVQQGEwJYWDEQMA4GA1UEChMHU29tZSBDQTEiMCAGA1UEAxMZRmFrZSBD
QSBmb3IgWmxpbnQgdGVzdGluZzAeFw0yNTA1MjkxMTI3NTNaFw0yNjA1MjkxMTI3
NTNaMGIxCzAJBgNVBAYTAkJSMQ4wDAYDVQQIEwVCYWhpYTERMA8GA1UEBxMISnVh
emVpcm8xFzAVBgNVBAMTDlBTRVVETy5BQjEyMzQ1MRcwFQYDVQRBEw5QU0VVRE8u
QUIxMjM0NTCCASIwDQYJKoZIhvcNAQEBBQADggEPADCCAQoCggEBANRSTR467AGV
dx0PWk+0JUusHf3mH4nOO61MpOVya4y3F4Os8M1dqXW0ainFDmBXsJAeSOZ1Rk8u
w0xnStA3mfDX/MBXmqileR8qka48eEGWoJ9jrslIQ/wiyenrKZskf1tdywFQBl0O
Hys8bZXv/Wewxe6gxAYTm9XZOwIPgETNelj/eeSnoFLN0BlA4+KcE1y5ROlXP9L7
Gz6Do4YFNHo6vCr04roudevtrv5rftNAamz6FZYUYYd5ouikLR/kfkLBFdRkjZms
9SOrGDiekrQVPt0E5mQ9qSMi1fsCDQegy3Rww21PsGhJZazZNgyILfkwLNnnQ55l
6hFVDFTz+8cCAwEAAaOCAUUwggFBMA4GA1UdDwEB/wQEAwIFoDAdBgNVHSUEFjAU
BggrBgEFBQcDAgYIKwYBBQUHAwQwHQYDVR0OBBYEFCYJr+6c/hd9L4eZ9EDU2Cfj
YMO9MB8GA1UdIwQYMBaAFOi29nZL0DvlRqX5VNR+B7PeDWA+MGQGCCsGAQUFBwEB
BFgwVjApBggrBgEFBQcwAYYdaHR0cDovL2NhLnNvbWVjYS1pbmMuY29tL29jc3Aw
KQYIKwYBBQUHMAKGHWh0dHA6Ly9jYS5zb21lY2EtaW5jLmNvbS9yb290MCUGA1Ud
EQQeMByBGnBzZXVkby5hYjEyMzQ1QGV4YW1wbGUub3JnMBQGA1UdIAQNMAswCQYH
Z4EMAQUEAzAtBgNVHR8EJjAkMCKgIKAehhxodHRwOi8vY2Euc29tZWNhLWluYy5j
b20vY3JsMA0GCSqGSIb3DQEBCwUAA4ICAQABAEN6Kc/FkfrfrCp5c2tLvxuMPEUF
D5SGctRLC5EkqW8RpiSnPlwtPEFoFUqVb65J4uF6GTFTA0iLy/RH1I0NQksSG744
wW8u8ALwDpNuVqnyL7WRflUIei+fGs19CodvQx0bhL/H+lKqSMUxTFgYyTSEnhXu
8+6ggVFab3FBKFMslVUT+P27ijZjvpMFnwk9uwxVEUe0fYkYOw+HxD4lg1NBb3pU
dipYgMovEr88suDmW3QxFTSgY0YjLEja8+4jRyXYv+EDA0xs8rAVDZnJ9MiOeNNc
385ZFzsu9CBFVLFUCnPSKuWYyuram1WTvoOxE0/C2kg/L+3A0PyqAhZJJzpoRsSY
Fw/v+TYMytKUjk6KU2g289nkzW67NcBEcMCUuDOrKuJVpUtqmI0fcJSjD27soVDg
YWa7mHR5s5eWfg6G/3x1oERvC32wBEm1b0YZ+3gCoFt1fFVpRpPsY7Ta2+GkG9rp
A+jzBnS0EtRmdyN4kRBojLvQD7x1gHivW6X+YI/VvGBqTvQfXBSeER9r7yrMe3JE
Nglrm2yIlWcSPVmUSN84XQWBjMh7DQT7il28aR8rZhfBRtm8DWzHjWCxCpSFwh8t
v1tv/AhIBWe+HftNm37FZU5XU4ritsAp3414tL6ThYgAmt7E5u+NHQ4Pp3av5SNM
u71Dv2KE+uxfgQ==
-----END CERTIFICATE-----
