Certificate:
    Data:
        Version: 3 (0x2)
        Serial Number:
            08:87:cc:c0:af:82:4e:b3:e0:8d:74:ae:4a:2a:88:63
        Signature Algorithm: sha256WithRSAEncryption
        Issuer: C=XX, O=Some CA, CN=Fake CA for Zlint testing
        Validity
            Not Before: May 29 15:09:06 2025 GMT
            Not After : May 29 15:09:06 2026 GMT
        Subject: C=US, L=Nowhere, O=Some Company Ltd., CN=PSEUDO.AA12345, pseudonym=PSEUDO.AA12345, organizationIdentifier=NTRUS+DE-1234567890
        Subject Public Key Info:
            Public Key Algorithm: rsaEncryption
                Public-Key: (2048 bit)
                Modulus:
                    00:c7:0f:b0:ac:b3:47:40:57:54:e4:c8:52:db:eb:
                    3d:2b:bd:f2:8c:db:9a:3f:ac:62:52:ab:d7:21:a3:
                    94:ff:6e:c6:85:0f:dc:24:0c:f8:4c:c1:8d:bf:c8:
                    9a:1e:13:c9:4b:cc:48:ae:b6:ac:74:61:38:a6:30:
                    a9:ff:71:c1:78:13:71:07:6c:ee:88:ca:24:22:fa:
                    25:82:c3:21:37:d1:0f:2a:bc:bc:a7:87:06:08:9d:
                    db:79:0b:e7:a8:4d:d7:6d:3f:f9:93:9d:26:4a:8a:
                    a7:11:0e:5a:b1:c8:db:f2:d4:f7:1e:f1:68:72:ce:
                    29:74:7e:79:24:1d:f6:45:bb:f2:a1:40:a8:bc:fe:
                    e4:1c:6d:9b:e1:ec:24:84:bd:19:b0:b5:e6:be:de:
                    a1:7b:e2:aa:ee:62:5f:80:f6:63:93:50:c8:86:83:
                    48:0f:89:26:3b:23:a7:41:bd:95:ff:4c:4c:17:10:
                    32:bf:0b:a0:66:0c:c1:9b:9c:76:4f:76:fe:2a:ad:
                    70:49:60:35:f6:b8:4b:d5:6e:3d:d3:95:47:d5:00:
                    d4:1f:43:51:5d:15:75:f7:82:05:07:92:80:24:31:
                    a9:3b:cf:eb:51:16:83:51:96:cc:64:3e:15:22:93:
                    46:3a:e9:37:c3:74:48:be:00:0d:1a:f1:f9:11:e6:
                    b6:ab
                Exponent: 65537 (0x10001)
        X509v3 extensions:
            X509v3 Key Usage: critical
                Digital Signature, Key Encipherment
            X509v3 Extended Key Usage: 
                TLS Web Client Authentication, E-mail Protection
            X509v3 Subject Key Identifier: 
                18:E1:4F:8C:4B:22:1B:D0:A2:E3:F8:38:93:CA:F8:44:6D:32:87:3A
            X509v3 Authority Key Identifier: 
                E8:B6:F6:76:4B:D0:3B:E5:46:A5:F9:54:D4:7E:07:B3:DE:0D:60:3E
            Authority Information Access: 
                OCSP - URI:http://ca.someca-inc.com/ocsp
                CA Issuers - URI:http://ca.someca-inc.com/root
            X509v3 Subject Alternative Name: 
                email:pseudo.aa12345@example.com
            X509v3 Certificate Policies: 
                Policy: 2.23.140.1.5.3.2
            X509v3 CRL Distribution Points: 
                Full Name:
                  URI:http://ca.someca-inc.com/crl
    Signature Algorithm: sha256WithRSAEncryption
    Signature Value:
        78:92:c2:8d:a7:49:d5:c5:1e:62:7a:b4:0a:14:42:ac:a9:05:
        83:3b:28:18:87:ed:d8:97:2f:1a:16:79:00:47:0c:d8:cf:64:
        f7:d3:b7:f2:0e:f5:93:cd:fc:14:37:ce:8b:0d:e9:d8:3d:b9:
        a1:aa:e4:fd:5c:8e:fa:65:c6:55:73:b0:21:64:71:01:8e:07:
        40:a9:88:a8:0a:64:4c:14:45:a2:64:c5:3d:82:30:c1:58:b5:
        25:d5:e1:0d:51:09:c5:4d:ab:c1:18:13:dc:3a:8d:5f:e7:f0:
        b0:25:29:c4:3d:d6:0f:f1:4d:89:35:3b:eb:f7:d0:10:a9:ad:
        62:cb:e3:fe:51:c9:99:cc:fe:71:13:8e:2f:fb:ad:a0:d5:d3:
        85:f5:c5:63:c5:54:25:5d:11:f1:fc:e6:8d:ef:a8:66:a2:6d:
        61:f7:ea:d7:ef:8a:50:aa:d9:3a:e7:cb:c3:4f:79:07:b8:02:
        c3:61:7b:83:05:2c:c5:98:1f:76:f9:a5:29:2b:1c:3c:49:bb:
        67:5d:fe:48:01:bb:69:a5:b0:51:38:95:7a:77:6a:56:f7:5a:
        4d:1c:8a:2b:b6:f3:53:c7:78:c1:b0:6c:4b:cb:58:03:39:9c:
        75:65:79:9c:4d:c6:41:f6:10:52:f4:94:da:25:bd:e0:fc:09:
        3f:1b:78:03:6f:51:61:d3:9e:aa:aa:3c:4c:81:b4:a3:3e:a3:
        97:b8:c7:9f:34:3b:53:2c:39:23:e6:63:ac:c1:3a:2c:60:f9:
        f1:e7:6a:e0:55:b8:b5:3e:68:0e:65:51:14:4c:d5:73:45:7a:
        0a:91:80:59:a2:4b:ef:4d:d0:7f:a5:2a:b0:01:a0:4f:c2:68:
        5a:29:bc:66:16:c6:69:c1:59:6c:1b:9b:b3:dd:07:28:fb:a3:
        0f:61:4d:e0:e7:f1:e3:a5:a6:22:d3:5f:2b:84:c8:b0:b8:08:
        1d:23:b0:0f:fb:e5:0e:00:4f:25:20:93:93:df:b7:d5:4b:ee:
        02:0c:23:0a:4f:0b:4b:3d:89:8f:35:79:a1:a5:c1:61:42:63:
        3b:3f:fb:5b:ef:a1:6b:85:1a:80:c7:8e:49:63:2a:e2:de:52:
        8e:8c:2d:0d:ee:b3:e3:c8:b4:05:df:33:7a:50:b8:45:9d:8e:
        65:aa:6e:fa:e0:7e:1c:c3:08:70:85:ff:7c:16:27:11:fa:e7:
        e2:49:c0:51:dc:ef:26:3f:65:f7:a3:cf:92:64:52:ad:b4:e8:
        31:4f:ed:a5:2e:21:e4:12:33:da:67:ea:64:86:bf:df:f4:b7:
        21:95:0d:72:f3:53:21:e3:99:73:e1:ec:8a:af:26:f0:27:f1:
        da:91:65:9a:24:9c:e1:d0
-----BEGIN CERTIFICATE-----
MIIFoDCCA4igAwIBAgIQCIfMwK+CTrPgjXSuSiqIYzANBgkqhkiG9w0BAQsFADBD
MQswCQYDVQQGEwJYWDEQMA4GA1UEChMHU29tZSBDQTEiMCAGA1UEAxMZRmFrZSBD
QSBmb3IgWmxpbnQgdGVzdGluZzAeFw0yNTA1MjkxNTA5MDZaFw0yNjA1MjkxNTA5
MDZaMIGLMQswCQYDVQQGEwJVUzEQMA4GA1UEBxMHTm93aGVyZTEaMBgGA1UEChMR
U29tZSBDb21wYW55IEx0ZC4xFzAVBgNVBAMTDlBTRVVETy5BQTEyMzQ1MRcwFQYD
VQRBEw5QU0VVRE8uQUExMjM0NTEcMBoGA1UEYRMTTlRSVVMrREUtMTIzNDU2Nzg5
MDCCASIwDQYJKoZIhvcNAQEBBQADggEPADCCAQoCggEBAMcPsKyzR0BXVOTIUtvr
PSu98ozbmj+sYlKr1yGjlP9uxoUP3CQM+EzBjb/Imh4TyUvMSK62rHRhOKYwqf9x
wXgTcQds7ojKJCL6JYLDITfRDyq8vKeHBgid23kL56hN120/+ZOdJkqKpxEOWrHI
2/LU9x7xaHLOKXR+eSQd9kW78qFAqLz+5Bxtm+HsJIS9GbC15r7eoXviqu5iX4D2
Y5NQyIaDSA+JJjsjp0G9lf9MTBcQMr8LoGYMwZucdk92/iqtcElgNfa4S9VuPdOV
R9UA1B9DUV0VdfeCBQeSgCQxqTvP61EWg1GWzGQ+FSKTRjrpN8N0SL4ADRrx+RHm
tqsCAwEAAaOCAUUwggFBMA4GA1UdDwEB/wQEAwIFoDAdBgNVHSUEFjAUBggrBgEF
BQcDAgYIKwYBBQUHAwQwHQYDVR0OBBYEFBjhT4xLIhvQouP4OJPK+ERtMoc6MB8G
A1UdIwQYMBaAFOi29nZL0DvlRqX5VNR+B7PeDWA+MGQGCCsGAQUFBwEBBFgwVjAp
BggrBgEFBQcwAYYdaHR0cDovL2NhLnNvbWVjYS1pbmMuY29tL29jc3AwKQYIKwYB
BQUHMAKGHWh0dHA6Ly9jYS5zb21lY2EtaW5jLmNvbS9yb290MCUGA1UdEQQeMByB
GnBzZXVkby5hYTEyMzQ1QGV4YW1wbGUuY29tMBQGA1UdIAQNMAswCQYHZ4EMAQUD
AjAtBgNVHR8EJjAkMCKgIKAehhxodHRwOi8vY2Euc29tZWNhLWluYy5jb20vY3Js
MA0GCSqGSIb3DQEBCwUAA4ICAQB4ksKNp0nVxR5ierQKFEKsqQWDOygYh+3Yly8a
FnkARwzYz2T307fyDvWTzfwUN86LDenYPbmhquT9XI76ZcZVc7AhZHEBjgdAqYio
CmRMFEWiZMU9gjDBWLUl1eENUQnFTavBGBPcOo1f5/CwJSnEPdYP8U2JNTvr99AQ
qa1iy+P+UcmZzP5xE44v+62g1dOF9cVjxVQlXRHx/OaN76hmom1h9+rX74pQqtk6
58vDT3kHuALDYXuDBSzFmB92+aUpKxw8SbtnXf5IAbtppbBROJV6d2pW91pNHIor
tvNTx3jBsGxLy1gDOZx1ZXmcTcZB9hBS9JTaJb3g/Ak/G3gDb1Fh056qqjxMgbSj
PqOXuMefNDtTLDkj5mOswTosYPnx52rgVbi1PmgOZVEUTNVzRXoKkYBZokvvTdB/
pSqwAaBPwmhaKbxmFsZpwVlsG5uz3Qco+6MPYU3g5/HjpaYi018rhMiwuAgdI7AP
++UOAE8lIJOT37fVS+4CDCMKTwtLPYmPNXmhpcFhQmM7P/tb76FrhRqAx45JYyri
3lKOjC0N7rPjyLQF3zN6ULhFnY5lqm764H4cwwhwhf98FicR+ufiScBR3O8mP2X3
o8+SZFKttOgxT+2lLiHkEjPaZ+pkhr/f9LchlQ1y81Mh45lz4eyKrybwJ/HakWWa
JJzh0A==
-----END CERTIFICATE-----
