Certificate:
    Data:
        Version: 3 (0x2)
        Serial Number:
            66:35:fd:f4:68:13:07:93:23:ca:70:a0:38:06:f4:4f
        Signature Algorithm: sha256WithRSAEncryption
        Issuer: C=XX, O=Some CA, CN=Fake CA for Zlint testing
        Validity
            Not Before: May 29 11:22:49 2025 GMT
            Not After : May 29 11:22:49 2026 GMT
        Subject: C=BR, ST=Bahia, L=Juazeiro, CN=João Gilberto, GN=João, SN=Gilberto
        Subject Public Key Info:
            Public Key Algorithm: rsaEncryption
                Public-Key: (2048 bit)
                Modulus:
                    00:ba:81:5f:11:5e:29:4f:fc:57:57:3f:2b:ab:5b:
                    2a:ed:7f:85:40:e1:70:e1:f7:88:47:fd:74:dd:95:
                    78:f7:58:40:bf:b9:a2:a1:07:9d:8c:97:6c:87:2f:
                    cc:00:8d:43:2c:bb:7c:a3:ca:8d:22:9e:e5:b6:f4:
                    cb:18:fc:2e:c2:62:e1:62:bf:b6:12:88:84:4e:6d:
                    26:80:98:6f:27:e6:f5:1d:a8:5a:df:44:77:a8:4f:
                    0d:f4:9c:df:e0:42:ce:23:cf:f3:59:ba:bb:e9:92:
                    b5:74:ac:58:59:92:f0:40:ea:0b:4d:95:da:8a:da:
                    d4:a9:15:7e:3c:c9:cc:9b:f8:40:a2:8f:0d:0e:81:
                    d6:c6:4b:61:11:28:fb:7d:cb:39:b7:05:bb:1a:f7:
                    da:b1:bf:07:c2:3a:dc:68:f3:90:9b:cb:17:af:66:
                    26:4e:e9:ae:42:f0:e4:2d:4e:12:e9:4a:85:e1:07:
                    23:fa:17:57:85:4d:03:f1:62:10:c5:fc:14:1c:f1:
                    67:ad:aa:c3:89:b1:21:64:4a:73:e2:c8:66:d3:6d:
                    04:29:6d:50:f7:da:e8:15:70:73:b2:21:6e:5e:ce:
                    6d:c1:4d:59:79:7f:c2:ee:f4:e5:31:79:60:5f:68:
                    95:f0:93:25:2e:23:79:2a:5b:93:f0:3e:84:0b:cc:
                    ea:b7
                Exponent: 65537 (0x10001)
        X509v3 extensions:
            X509v3 Key Usage: critical
                Digital Signature, Key Encipherment
            X509v3 Extended Key Usage: 
                TLS Web Client Authentication, E-mail Protection
            X509v3 Subject Key Identifier: 
                05:4A:F6:12:7E:C3:02:E7:3E:CE:71:86:CD:D8:C0:A7:AC:9E:23:C9
            X509v3 Authority Key Identifier: 
                E8:B6:F6:76:4B:D0:3B:E5:46:A5:F9:54:D4:7E:07:B3:DE:0D:60:3E
            Authority Information Access: 
                OCSP - URI:http://ca.someca-inc.com/ocsp
                CA Issuers - URI:http://ca.someca-inc.com/root
            X509v3 Subject Alternative Name: 
                email:joao.gilberto@example.org
            X509v3 Certificate Policies: 
                Policy: 2.23.140.1.5.4.3
            X509v3 CRL Distribution Points: 
                Full Name:
                  URI:http://ca.someca-inc.com/crl
    Signature Algorithm: sha256WithRSAEncryption
    Signature Value:
        a3:65:f1:25:c0:8e:5d:96:49:c3:24:83:e9:55:cd:23:49:42:
        0f:6f:9f:d3:cb:b0:fd:b1:b1:6f:7e:b6:61:2f:52:44:31:a7:
        ae:4d:9a:31:4e:9e:c3:26:0d:59:7e:a2:60:a5:0a:e4:60:e8:
        2d:e0:d5:8b:e6:ec:fa:cd:ba:8e:7e:d0:6e:bb:48:b6:d6:69:
        8c:d8:7b:dc:29:ac:ab:be:dd:7d:4c:23:39:fb:ef:7b:6d:48:
        eb:59:3f:47:dd:8e:f9:bf:f5:6e:7e:0c:e0:d9:53:6d:db:4f:
        5f:2a:d1:42:11:7d:11:ab:fc:11:34:69:ee:32:cf:8c:24:ba:
        81:2f:36:3d:b2:2d:3d:22:96:eb:1d:01:aa:35:ec:26:e6:20:
        25:27:7b:d8:d8:63:f9:3e:a3:fa:0b:d8:4a:81:ae:73:0a:17:
        38:c0:f8:55:53:12:25:bb:ac:d4:e2:e5:3c:07:28:43:42:ca:
        ff:ef:ed:e6:0f:82:45:b5:5c:41:9f:e3:e1:f9:8b:55:b8:6d:
        ef:76:df:5c:2d:ae:3e:59:e7:89:1b:3b:44:57:15:dd:ee:6a:
        fb:16:fc:8e:f9:b7:72:83:85:b5:8d:f9:f0:b8:cd:9c:0b:2d:
        d8:f3:20:96:fd:63:73:b3:54:dc:77:8c:7c:3b:5d:fd:5b:b3:
        a8:0b:21:24:44:cf:75:4c:cc:ee:2a:4a:70:3e:8f:11:97:d7:
        55:94:ae:76:c0:8f:af:5d:7b:01:bf:db:06:7f:e0:11:d9:eb:
        d3:0d:a9:10:d8:8c:05:6f:14:4e:59:6c:41:e7:eb:12:a0:ee:
        70:43:71:62:1d:87:a6:0a:32:c1:cd:50:60:c4:9f:5f:8c:96:
        8f:93:0d:bd:80:48:9c:51:bb:57:f1:45:7e:4a:4b:b4:c2:61:
        1e:81:42:af:4a:c2:1a:76:c4:6f:df:55:09:b9:c3:f9:1f:bc:
        e5:54:be:9e:60:8d:88:33:a8:ec:11:8d:b9:9b:9b:98:1e:40:
        e3:f7:fb:f4:32:91:92:1d:a0:03:85:92:0a:1d:54:a0:de:cd:
        5f:38:86:ba:e9:67:47:fb:32:63:f6:23:10:92:00:8f:65:8c:
        68:32:8a:13:13:f4:5d:42:28:27:b9:11:52:1e:91:18:2e:05:
        92:df:3c:7e:1b:b8:b0:e8:c6:84:18:90:50:59:c5:78:1b:47:
        fa:19:35:86:94:f9:2e:06:95:9a:ba:f5:76:53:9b:84:c7:87:
        6e:66:3e:89:37:05:c1:b5:31:bf:28:99:a3:b0:ce:21:7a:85:
        02:3e:a0:b7:c0:60:de:6e:f5:51:3d:df:fc:e7:14:81:1c:fa:
        e0:58:2f:66:b5:71:16:be
-----BEGIN CERTIFICATE-----
MIIFfzCCA2egAwIBAgIQZjX99GgTB5MjynCgOAb0TzANBgkqhkiG9w0BAQsFADBD
MQswCQYDVQQGEwJYWDEQMA4GA1UEChMHU29tZSBDQTEiMCAGA1UEAxMZRmFrZSBD
QSBmb3IgWmxpbnQgdGVzdGluZzAeFw0yNTA1MjkxMTIyNDlaFw0yNjA1MjkxMTIy
NDlaMGwxCzAJBgNVBAYTAkJSMQ4wDAYDVQQIEwVCYWhpYTERMA8GA1UEBxMISnVh
emVpcm8xFzAVBgNVBAMMDkpvw6NvIEdpbGJlcnRvMQ4wDAYDVQQqDAVKb8OjbzER
MA8GA1UEBBMIR2lsYmVydG8wggEiMA0GCSqGSIb3DQEBAQUAA4IBDwAwggEKAoIB
AQC6gV8RXilP/FdXPyurWyrtf4VA4XDh94hH/XTdlXj3WEC/uaKhB52Ml2yHL8wA
jUMsu3yjyo0inuW29MsY/C7CYuFiv7YSiIRObSaAmG8n5vUdqFrfRHeoTw30nN/g
Qs4jz/NZurvpkrV0rFhZkvBA6gtNldqK2tSpFX48ycyb+ECijw0OgdbGS2ERKPt9
yzm3Bbsa99qxvwfCOtxo85CbyxevZiZO6a5C8OQtThLpSoXhByP6F1eFTQPxYhDF
/BQc8WetqsOJsSFkSnPiyGbTbQQpbVD32ugVcHOyIW5ezm3BTVl5f8Lu9OUxeWBf
aJXwkyUuI3kqW5PwPoQLzOq3AgMBAAGjggFEMIIBQDAOBgNVHQ8BAf8EBAMCBaAw
HQYDVR0lBBYwFAYIKwYBBQUHAwIGCCsGAQUFBwMEMB0GA1UdDgQWBBQFSvYSfsMC
5z7OcYbN2MCnrJ4jyTAfBgNVHSMEGDAWgBTotvZ2S9A75Ual+VTUfgez3g1gPjBk
BggrBgEFBQcBAQRYMFYwKQYIKwYBBQUHMAGGHWh0dHA6Ly9jYS5zb21lY2EtaW5j
LmNvbS9vY3NwMCkGCCsGAQUFBzAChh1odHRwOi8vY2Euc29tZWNhLWluYy5jb20v
cm9vdDAkBgNVHREEHTAbgRlqb2FvLmdpbGJlcnRvQGV4YW1wbGUub3JnMBQGA1Ud
IAQNMAswCQYHZ4EMAQUEAzAtBgNVHR8EJjAkMCKgIKAehhxodHRwOi8vY2Euc29t
ZWNhLWluYy5jb20vY3JsMA0GCSqGSIb3DQEBCwUAA4ICAQCjZfElwI5dlknDJIPp
Vc0jSUIPb5/Ty7D9sbFvfrZhL1JEMaeuTZoxTp7DJg1ZfqJgpQrkYOgt4NWL5uz6
zbqOftBuu0i21mmM2HvcKayrvt19TCM5++97bUjrWT9H3Y75v/Vufgzg2VNt209f
KtFCEX0Rq/wRNGnuMs+MJLqBLzY9si09IpbrHQGqNewm5iAlJ3vY2GP5PqP6C9hK
ga5zChc4wPhVUxIlu6zU4uU8ByhDQsr/7+3mD4JFtVxBn+Ph+YtVuG3vdt9cLa4+
WeeJGztEVxXd7mr7FvyO+bdyg4W1jfnwuM2cCy3Y8yCW/WNzs1Tcd4x8O139W7Oo
CyEkRM91TMzuKkpwPo8Rl9dVlK52wI+vXXsBv9sGf+AR2evTDakQ2IwFbxROWWxB
5+sSoO5wQ3FiHYemCjLBzVBgxJ9fjJaPkw29gEicUbtX8UV+Sku0wmEegUKvSsIa
dsRv31UJucP5H7zlVL6eYI2IM6jsEY25m5uYHkDj9/v0MpGSHaADhZIKHVSg3s1f
OIa66WdH+zJj9iMQkgCPZYxoMooTE/RdQignuRFSHpEYLgWS3zx+G7iw6MaEGJBQ
WcV4G0f6GTWGlPkuBpWauvV2U5uEx4duZj6JNwXBtTG/KJmjsM4heoUCPqC3wGDe
bvVRPd/85xSBHPrgWC9mtXEWvg==
-----END CERTIFICATE-----
