Certificate:
    Data:
        Version: 3 (0x2)
        Serial Number:
            2b:3f:04:17:bc:7f:34:b3:c2:3c:02:94:9d:af:91:dc
        Signature Algorithm: sha256WithRSAEncryption
        Issuer: C=XX, O=Some CA, CN=Fake CA for Zlint testing
        Validity
            Not Before: Aug 15 00:00:00 2023 GMT
            Not After : Aug 14 00:00:00 2024 GMT
        Subject: C=BR, ST=Bahia, L=Juazeiro, CN=João Gilberto
        Subject Public Key Info:
            Public Key Algorithm: rsaEncryption
                Public-Key: (2048 bit)
                Modulus:
                    00:d2:3a:00:01:2b:79:bd:df:ec:a3:30:5a:66:d4:
                    c2:75:b8:0b:1e:fa:35:45:31:d2:f0:6a:49:64:26:
                    14:53:81:49:cd:65:83:23:c6:52:0a:a7:59:43:b7:
                    79:8c:d2:d2:b1:14:9f:89:f8:d5:59:f3:3c:7f:9f:
                    44:25:4f:37:d7:df:00:24:8f:70:a1:fa:fd:39:3c:
                    c2:0d:89:4a:38:6b:e6:51:2a:f8:23:ab:4c:db:78:
                    85:f6:38:1f:0a:96:d3:15:7f:fb:1f:13:3b:e1:cc:
                    e2:f0:c3:5d:3b:e3:21:52:1f:4e:3c:d4:6f:d2:5c:
                    68:36:87:d7:3e:0b:1b:ff:c7:5c:ed:41:48:f2:51:
                    f2:61:a6:a9:cb:db:47:9b:ac:cf:6d:0c:f1:b9:ab:
                    f6:c4:cc:fc:b8:24:b3:e5:54:b7:e4:9e:d0:05:0e:
                    37:9d:71:bb:2b:d0:bb:f2:17:ca:77:b9:ba:4d:b7:
                    bd:45:30:ee:16:ba:d9:d3:30:4d:a3:03:1c:98:e4:
                    c6:64:5d:69:6d:b0:2c:5d:bc:f2:e6:e0:78:ce:2d:
                    fe:c3:30:ad:df:6f:67:ad:03:05:75:4f:bb:ef:41:
                    1e:14:28:1e:99:03:b3:42:59:78:00:c9:51:c0:c3:
                    16:60:77:2e:de:33:cd:3f:23:df:93:b8:ea:86:71:
                    a7:b7
                Exponent: 65537 (0x10001)
        X509v3 extensions:
            X509v3 Key Usage: critical
                Digital Signature, Key Encipherment
            X509v3 Extended Key Usage: 
                TLS Web Client Authentication, E-mail Protection
            X509v3 Subject Key Identifier: 
                CE:F1:EA:1F:91:E8:B0:65:CC:39:E2:A8:0C:1F:5D:29:EA:B0:8D:63
            X509v3 Authority Key Identifier: 
                E8:B6:F6:76:4B:D0:3B:E5:46:A5:F9:54:D4:7E:07:B3:DE:0D:60:3E
            Authority Information Access: 
                OCSP - URI:http://ca.someca-inc.com/ocsp
                CA Issuers - URI:http://ca.someca-inc.com/root
            X509v3 Subject Alternative Name: 
                email:joao.gilberto@example.org
            X509v3 Certificate Policies: 
                Policy: 2.23.140.1.5.4.2
            X509v3 CRL Distribution Points: 
                Full Name:
                  URI:http://ca.someca-inc.com/crl
    Signature Algorithm: sha256WithRSAEncryption
    Signature Value:
        74:83:35:03:14:0d:80:52:3c:66:40:88:77:5e:60:be:5a:28:
        ae:cb:4d:71:e4:83:d2:81:e6:83:a6:b6:8b:98:a1:29:30:97:
        45:93:4b:bf:8f:82:ae:80:c8:6c:c4:86:64:28:b5:43:88:03:
        1e:9a:c1:73:a1:22:9e:08:a5:9a:4c:84:4b:a2:6f:0a:3d:e2:
        66:f3:3f:a7:f7:36:14:04:6a:ad:74:ca:50:13:85:3d:a0:6a:
        da:bf:4b:34:a8:9e:c2:4e:53:b3:90:e3:e9:58:1e:39:fc:36:
        06:0c:33:9a:45:77:2d:30:6f:38:b6:37:e3:81:1c:f3:bc:64:
        a7:a1:9f:f7:f0:19:db:4b:0e:34:82:1b:17:a7:27:44:6f:8c:
        36:49:48:94:61:26:55:3a:f2:d0:47:98:9d:13:9a:15:89:a3:
        1d:23:eb:80:e6:58:2c:ef:2f:a3:74:d1:d5:93:39:fd:4d:e2:
        e4:b7:9c:73:c3:5c:18:f3:ba:7e:2b:db:fd:3b:0d:44:bc:fb:
        17:8b:8e:16:5f:8e:3b:a6:78:6e:02:4b:aa:75:ba:54:2a:3c:
        2b:66:7a:e2:78:1a:69:63:96:b6:71:40:45:7d:90:81:ad:b7:
        73:c0:41:4c:ba:05:f1:45:b1:7d:df:42:4c:95:fa:11:9e:55:
        ba:36:d5:56:1d:e7:4b:87:08:07:b3:05:d1:a5:e1:47:b9:95:
        b1:ff:87:b8:db:6d:62:61:a8:c0:e2:f3:5a:6c:35:5c:43:64:
        2b:77:9e:5d:ee:ef:ba:ed:cf:d1:5a:1b:d4:1d:e7:32:b7:e2:
        1d:1e:88:2c:be:5c:16:71:e7:e5:f1:6c:e2:77:f2:cf:b5:b2:
        42:6f:19:f2:32:7a:4f:6c:11:2e:d2:8f:18:24:1d:89:f1:9d:
        70:4f:e6:1d:b6:1c:88:3c:93:ec:0b:57:9c:59:bd:85:5c:63:
        30:b8:64:07:b3:95:4d:42:4a:fb:b7:4f:f2:3c:a2:d8:1a:d9:
        ea:e1:5f:bf:a1:da:b2:d2:ce:aa:59:13:a0:31:92:41:06:5d:
        4c:1b:a4:27:4a:a9:50:3a:cb:63:49:9a:4c:09:3c:0b:77:a2:
        5d:de:03:b3:b6:ff:26:0a:d7:fc:b9:e5:1f:c4:63:70:ee:fa:
        7b:04:20:e1:8f:f5:b2:69:52:fa:cf:4b:32:50:cb:29:63:56:
        5c:40:b1:50:46:84:3e:cc:e0:fe:8d:09:92:ae:10:72:fd:1b:
        91:97:00:c6:47:26:e1:50:b7:26:7a:c1:21:cc:c2:99:61:48:
        24:d7:88:2c:7b:a7:62:26:44:09:ed:53:68:f4:17:53:ac:aa:
        ac:d1:0b:41:dc:3e:65:c4
-----BEGIN CERTIFICATE-----
MIIFXDCCA0SgAwIBAgIQKz8EF7x/NLPCPAKUna+R3DANBgkqhkiG9w0BAQsFADBD
MQswCQYDVQQGEwJYWDEQMA4GA1UEChMHU29tZSBDQTEiMCAGA1UEAxMZRmFrZSBD
QSBmb3IgWmxpbnQgdGVzdGluZzAeFw0yMzA4MTUwMDAwMDBaFw0yNDA4MTQwMDAw
MDBaMEkxCzAJBgNVBAYTAkJSMQ4wDAYDVQQIEwVCYWhpYTERMA8GA1UEBxMISnVh
emVpcm8xFzAVBgNVBAMMDkpvw6NvIEdpbGJlcnRvMIIBIjANBgkqhkiG9w0BAQEF
AAOCAQ8AMIIBCgKCAQEA0joAASt5vd/sozBaZtTCdbgLHvo1RTHS8GpJZCYUU4FJ
zWWDI8ZSCqdZQ7d5jNLSsRSfifjVWfM8f59EJU83198AJI9wofr9OTzCDYlKOGvm
USr4I6tM23iF9jgfCpbTFX/7HxM74czi8MNdO+MhUh9OPNRv0lxoNofXPgsb/8dc
7UFI8lHyYaapy9tHm6zPbQzxuav2xMz8uCSz5VS35J7QBQ43nXG7K9C78hfKd7m6
Tbe9RTDuFrrZ0zBNowMcmOTGZF1pbbAsXbzy5uB4zi3+wzCt329nrQMFdU+770Ee
FCgemQOzQll4AMlRwMMWYHcu3jPNPyPfk7jqhnGntwIDAQABo4IBRDCCAUAwDgYD
VR0PAQH/BAQDAgWgMB0GA1UdJQQWMBQGCCsGAQUFBwMCBggrBgEFBQcDBDAdBgNV
HQ4EFgQUzvHqH5HosGXMOeKoDB9dKeqwjWMwHwYDVR0jBBgwFoAU6Lb2dkvQO+VG
pflU1H4Hs94NYD4wZAYIKwYBBQUHAQEEWDBWMCkGCCsGAQUFBzABhh1odHRwOi8v
Y2Euc29tZWNhLWluYy5jb20vb2NzcDApBggrBgEFBQcwAoYdaHR0cDovL2NhLnNv
bWVjYS1pbmMuY29tL3Jvb3QwJAYDVR0RBB0wG4EZam9hby5naWxiZXJ0b0BleGFt
cGxlLm9yZzAUBgNVHSAEDTALMAkGB2eBDAEFBAIwLQYDVR0fBCYwJDAioCCgHoYc
aHR0cDovL2NhLnNvbWVjYS1pbmMuY29tL2NybDANBgkqhkiG9w0BAQsFAAOCAgEA
dIM1AxQNgFI8ZkCId15gvloorstNceSD0oHmg6a2i5ihKTCXRZNLv4+CroDIbMSG
ZCi1Q4gDHprBc6EingilmkyES6JvCj3iZvM/p/c2FARqrXTKUBOFPaBq2r9LNKie
wk5Ts5Dj6VgeOfw2BgwzmkV3LTBvOLY344Ec87xkp6Gf9/AZ20sONIIbF6cnRG+M
NklIlGEmVTry0EeYnROaFYmjHSPrgOZYLO8vo3TR1ZM5/U3i5Lecc8NcGPO6fivb
/TsNRLz7F4uOFl+OO6Z4bgJLqnW6VCo8K2Z64ngaaWOWtnFARX2Qga23c8BBTLoF
8UWxfd9CTJX6EZ5VujbVVh3nS4cIB7MF0aXhR7mVsf+HuNttYmGowOLzWmw1XENk
K3eeXe7vuu3P0Vob1B3nMrfiHR6ILL5cFnHn5fFs4nfyz7WyQm8Z8jJ6T2wRLtKP
GCQdifGdcE/mHbYciDyT7AtXnFm9hVxjMLhkB7OVTUJK+7dP8jyi2BrZ6uFfv6Ha
stLOqlkToDGSQQZdTBukJ0qpUDrLY0maTAk8C3eiXd4Ds7b/JgrX/LnlH8RjcO76
ewQg4Y/1smlS+s9LMlDLKWNWXECxUEaEPszg/o0Jkq4Qcv0bkZcAxkcm4VC3JnrB
IczCmWFIJNeILHunYiZECe1TaPQXU6yqrNELQdw+ZcQ=
-----END CERTIFICATE-----
