Certificate:
    Data:
        Version: 3 (0x2)
        Serial Number:
            68:5f:7a:f8:5c:ec:a9:80:de:80:07:a9:12:d3:b0:69
        Signature Algorithm: sha256WithRSAEncryption
        Issuer: C=XX, O=Some CA, CN=Fake CA for Zlint testing
        Validity
            Not Before: May 23 00:00:00 2024 GMT
            Not After : May 23 00:00:00 2025 GMT
        Subject: C=US, L=Nowhere, O=Some Company Ltd., CN=John Foxx, organizationIdentifier=NTRUS+DE-1234567890
        Subject Public Key Info:
            Public Key Algorithm: rsaEncryption
                Public-Key: (2048 bit)
                Modulus:
                    00:bc:bd:db:22:94:4e:56:7e:bf:f4:5b:bb:e8:41:
                    5a:6e:0a:5d:13:18:5c:54:fe:82:60:5a:48:20:81:
                    0f:13:88:64:69:3c:af:df:3e:bb:a4:37:d5:8d:70:
                    cc:7e:5d:03:68:3e:5d:89:51:d0:39:4d:07:9b:3b:
                    be:4f:4e:04:af:03:c7:df:e9:ac:8e:eb:f1:eb:f7:
                    20:f7:be:a5:ce:d9:c1:9d:b4:e6:0c:c5:d6:ed:13:
                    32:a6:1d:77:06:60:c4:2f:eb:b3:0a:6c:91:00:24:
                    23:59:34:0f:89:6c:1f:a9:af:59:af:b5:2e:2b:4d:
                    f0:58:55:a9:3f:88:0f:53:d7:0b:8a:f3:dc:09:b1:
                    a3:a0:0c:66:6a:ab:3a:1e:0c:9e:eb:aa:e0:43:6a:
                    56:c0:7a:3f:51:3a:df:93:67:8a:5c:33:9e:78:31:
                    8c:c9:bb:d4:88:c9:34:fc:d6:90:4d:fe:48:4a:41:
                    c9:9f:d8:46:07:44:54:d1:f2:e4:e3:4c:8d:01:c5:
                    46:04:fd:a4:10:94:88:05:3d:35:50:0f:39:e7:f3:
                    e6:f2:8d:51:47:00:74:66:8e:c5:80:f5:5f:87:e0:
                    46:31:34:41:74:9e:a1:e3:8b:af:44:74:95:12:e8:
                    ef:1d:5c:ae:05:86:a0:c7:93:cf:51:c1:4b:b8:d9:
                    fb:79
                Exponent: 65537 (0x10001)
        X509v3 extensions:
            X509v3 Key Usage: critical
                Digital Signature, Key Encipherment
            X509v3 Extended Key Usage: 
                TLS Web Client Authentication, E-mail Protection
            X509v3 Subject Key Identifier: 
                D5:0D:86:FF:2A:5A:B1:D5:27:5C:CA:4D:40:27:75:93:57:5B:3B:91
            X509v3 Authority Key Identifier: 
                E8:B6:F6:76:4B:D0:3B:E5:46:A5:F9:54:D4:7E:07:B3:DE:0D:60:3E
            Authority Information Access: 
                OCSP - URI:http://ca.someca-inc.com/ocsp
                CA Issuers - URI:http://ca.someca-inc.com/root
            X509v3 Subject Alternative Name: 
                email:john.foxx@example.com
            X509v3 Certificate Policies: 
                Policy: 2.23.140.1.5.3.2
            X509v3 CRL Distribution Points: 
                Full Name:
                  URI:http://ca.someca-inc.com/crl
    Signature Algorithm: sha256WithRSAEncryption
    Signature Value:
        18:77:a5:c8:c1:48:93:88:41:8e:c7:9e:52:d9:e6:3b:06:84:
        02:c6:25:7a:a1:4f:76:90:77:bd:4d:4f:4a:66:28:32:d5:bd:
        f2:f7:e2:ba:34:ab:46:28:60:98:53:ba:df:e2:ec:90:40:17:
        11:68:da:4e:bc:38:43:a1:ca:3f:cb:00:a0:e9:42:86:ca:a7:
        df:5f:2e:87:05:c0:c7:f7:42:4e:b0:60:d0:58:8e:1f:92:a4:
        36:6f:26:d5:10:44:d9:a6:3a:d3:1b:df:ed:48:41:ef:e9:8d:
        4e:5c:be:61:53:45:e5:35:d1:a8:95:07:da:52:0a:ea:92:23:
        68:89:1a:66:0e:91:5c:1f:a9:b5:aa:24:24:30:77:55:60:92:
        71:cf:29:57:4b:82:3c:71:a1:95:ee:fe:72:32:0e:19:ad:ec:
        67:32:7c:49:05:95:e4:8f:d3:cf:3e:97:7b:6d:d2:d9:11:e3:
        7f:b4:43:89:43:6a:79:96:92:52:e2:b7:d4:9e:65:f0:f2:5e:
        ec:af:6b:4c:59:d4:3c:d4:ae:38:ed:40:a9:45:77:c2:76:d8:
        fd:3d:12:4e:5e:b5:78:35:1e:ed:29:a9:e7:ef:18:c4:f2:41:
        7f:e3:25:e9:f9:92:cc:4e:87:01:38:77:94:d4:5a:e1:93:10:
        24:c4:cf:df:8b:29:32:aa:aa:ac:89:62:41:62:91:f4:7a:0b:
        a6:b4:ec:4a:67:0a:f2:4c:54:32:1d:a9:1b:77:c4:e6:9b:3b:
        0c:9b:3c:1e:83:bb:47:af:2e:90:2c:a8:df:db:2e:f0:35:6c:
        51:4d:84:8d:0a:2e:24:76:d3:11:9a:3e:27:a4:17:df:25:a1:
        a3:96:84:af:3e:90:63:e9:ba:1a:bb:cd:9c:6d:4b:14:f5:66:
        32:15:c5:d5:a1:4a:a2:35:dc:16:7b:9f:ae:8b:14:19:20:df:
        02:2f:f7:b5:19:93:33:15:5b:4e:fd:63:8e:b0:28:9a:f7:2d:
        81:0f:12:39:8f:3a:e5:cc:f0:0a:2f:a4:df:ed:39:3b:45:8a:
        5c:96:64:cd:67:c3:51:fd:31:a8:4a:34:fa:1d:1c:56:08:ef:
        b5:55:4e:76:de:a5:58:72:ae:be:f1:99:f9:14:53:3a:c1:68:
        91:31:1b:af:50:2d:81:38:db:d7:29:47:70:75:5e:cc:c2:23:
        9e:7b:05:f0:ef:ed:b2:1a:9c:94:6a:0c:fc:f1:bf:d6:f0:5a:
        62:93:a4:b3:8d:db:53:74:3d:3c:ae:b0:05:0b:98:a2:4c:95:
        ea:20:ce:86:26:c5:27:b9:eb:66:a7:5e:dc:3b:e4:31:e3:ef:
        78:32:fc:fe:f9:7b:ef:61
-----BEGIN CERTIFICATE-----
MIIFfDCCA2SgAwIBAgIQaF96+FzsqYDegAepEtOwaTANBgkqhkiG9w0BAQsFADBD
MQswCQYDVQQGEwJYWDEQMA4GA1UEChMHU29tZSBDQTEiMCAGA1UEAxMZRmFrZSBD
QSBmb3IgWmxpbnQgdGVzdGluZzAeFw0yNDA1MjMwMDAwMDBaFw0yNTA1MjMwMDAw
MDBaMG0xCzAJBgNVBAYTAlVTMRAwDgYDVQQHEwdOb3doZXJlMRowGAYDVQQKExFT
b21lIENvbXBhbnkgTHRkLjESMBAGA1UEAxMJSm9obiBGb3h4MRwwGgYDVQRhExNO
VFJVUytERS0xMjM0NTY3ODkwMIIBIjANBgkqhkiG9w0BAQEFAAOCAQ8AMIIBCgKC
AQEAvL3bIpROVn6/9Fu76EFabgpdExhcVP6CYFpIIIEPE4hkaTyv3z67pDfVjXDM
fl0DaD5diVHQOU0Hmzu+T04ErwPH3+msjuvx6/cg976lztnBnbTmDMXW7RMyph13
BmDEL+uzCmyRACQjWTQPiWwfqa9Zr7UuK03wWFWpP4gPU9cLivPcCbGjoAxmaqs6
Hgye66rgQ2pWwHo/UTrfk2eKXDOeeDGMybvUiMk0/NaQTf5ISkHJn9hGB0RU0fLk
40yNAcVGBP2kEJSIBT01UA855/Pm8o1RRwB0Zo7FgPVfh+BGMTRBdJ6h44uvRHSV
EujvHVyuBYagx5PPUcFLuNn7eQIDAQABo4IBQDCCATwwDgYDVR0PAQH/BAQDAgWg
MB0GA1UdJQQWMBQGCCsGAQUFBwMCBggrBgEFBQcDBDAdBgNVHQ4EFgQU1Q2G/ypa
sdUnXMpNQCd1k1dbO5EwHwYDVR0jBBgwFoAU6Lb2dkvQO+VGpflU1H4Hs94NYD4w
ZAYIKwYBBQUHAQEEWDBWMCkGCCsGAQUFBzABhh1odHRwOi8vY2Euc29tZWNhLWlu
Yy5jb20vb2NzcDApBggrBgEFBQcwAoYdaHR0cDovL2NhLnNvbWVjYS1pbmMuY29t
L3Jvb3QwIAYDVR0RBBkwF4EVam9obi5mb3h4QGV4YW1wbGUuY29tMBQGA1UdIAQN
MAswCQYHZ4EMAQUDAjAtBgNVHR8EJjAkMCKgIKAehhxodHRwOi8vY2Euc29tZWNh
LWluYy5jb20vY3JsMA0GCSqGSIb3DQEBCwUAA4ICAQAYd6XIwUiTiEGOx55S2eY7
BoQCxiV6oU92kHe9TU9KZigy1b3y9+K6NKtGKGCYU7rf4uyQQBcRaNpOvDhDoco/
ywCg6UKGyqffXy6HBcDH90JOsGDQWI4fkqQ2bybVEETZpjrTG9/tSEHv6Y1OXL5h
U0XlNdGolQfaUgrqkiNoiRpmDpFcH6m1qiQkMHdVYJJxzylXS4I8caGV7v5yMg4Z
rexnMnxJBZXkj9PPPpd7bdLZEeN/tEOJQ2p5lpJS4rfUnmXw8l7sr2tMWdQ81K44
7UCpRXfCdtj9PRJOXrV4NR7tKann7xjE8kF/4yXp+ZLMTocBOHeU1FrhkxAkxM/f
iykyqqqsiWJBYpH0egumtOxKZwryTFQyHakbd8TmmzsMmzweg7tHry6QLKjf2y7w
NWxRTYSNCi4kdtMRmj4npBffJaGjloSvPpBj6boau82cbUsU9WYyFcXVoUqiNdwW
e5+uixQZIN8CL/e1GZMzFVtO/WOOsCia9y2BDxI5jzrlzPAKL6Tf7Tk7RYpclmTN
Z8NR/TGoSjT6HRxWCO+1VU523qVYcq6+8Zn5FFM6wWiRMRuvUC2BONvXKUdwdV7M
wiOeewXw7+2yGpyUagz88b/W8Fpik6SzjdtTdD08rrAFC5iiTJXqIM6GJsUnuetm
p17cO+Qx4+94Mvz++XvvYQ==
-----END CERTIFICATE-----
