Certificate:
    Data:
        Version: 3 (0x2)
        Serial Number:
            8f:56:0d:10:ec:5e:0c:d7:7b:93:38:b4:b4:20:e5:1d
        Signature Algorithm: sha256WithRSAEncryption
        Issuer: C=XX, O=Some CA, CN=Fake CA for Zlint testing
        Validity
            Not Before: May 29 15:07:12 2025 GMT
            Not After : May 29 15:07:12 2026 GMT
        Subject: C=US, L=Nowhere, O=Some Company Ltd., CN=Leon Mandrake, SN=Mandrake, organizationIdentifier=NTRUS+DE-1234567890
        Subject Public Key Info:
            Public Key Algorithm: rsaEncryption
                Public-Key: (2048 bit)
                Modulus:
                    00:eb:af:fd:4c:52:01:fc:64:67:14:89:16:85:f0:
                    dd:8c:48:7d:b7:eb:f2:74:a9:c8:d0:e1:91:e9:00:
                    d8:6b:f3:bd:47:91:6b:39:a2:ba:c8:66:20:a8:18:
                    53:c0:47:47:7a:1d:68:bf:fe:a5:b8:6a:0d:89:72:
                    79:ce:6d:41:65:74:ba:2c:3e:5e:17:ef:bb:ac:ed:
                    d2:30:c1:28:cf:5a:b3:c2:f3:5b:37:1f:e9:3a:12:
                    b1:1d:64:e5:24:36:de:47:54:70:99:ab:b1:c2:cb:
                    d9:52:f3:c6:05:dd:fb:24:fa:bc:6c:54:17:44:fd:
                    48:2b:77:7b:1f:18:cc:44:18:60:b2:91:c7:de:13:
                    3a:a2:25:99:75:6f:fb:43:6d:52:87:17:eb:4c:b4:
                    03:c8:a1:dd:bf:55:6c:c2:3e:2a:fa:39:af:73:cf:
                    ad:b3:c6:9b:5b:4d:ad:b5:19:42:22:c7:2a:5b:f4:
                    a6:e4:e4:11:39:90:70:1f:a3:7d:f1:ac:8d:0d:32:
                    81:78:b6:53:47:97:db:fd:d2:bf:0a:2b:60:c3:1e:
                    d4:79:66:51:db:cf:00:cf:46:46:f1:ea:a9:40:c1:
                    2c:5b:69:ff:22:9c:23:bf:85:6f:cc:03:e7:6a:d6:
                    c8:c4:0d:0a:1e:24:bc:60:15:79:b6:c1:e2:21:f1:
                    97:77
                Exponent: 65537 (0x10001)
        X509v3 extensions:
            X509v3 Key Usage: critical
                Digital Signature, Key Encipherment
            X509v3 Extended Key Usage: 
                TLS Web Client Authentication, E-mail Protection
            X509v3 Subject Key Identifier: 
                F2:F5:AC:D4:1D:7A:C7:65:84:E2:CA:70:FC:8A:59:A0:BC:7F:40:F0
            X509v3 Authority Key Identifier: 
                E8:B6:F6:76:4B:D0:3B:E5:46:A5:F9:54:D4:7E:07:B3:DE:0D:60:3E
            Authority Information Access: 
                OCSP - URI:http://ca.someca-inc.com/ocsp
                CA Issuers - URI:http://ca.someca-inc.com/root
            X509v3 Subject Alternative Name: 
                email:Leon.Mandrake@example.com
            X509v3 Certificate Policies: 
                Policy: 2.23.140.1.5.3.2
            X509v3 CRL Distribution Points: 
                Full Name:
                  URI:http://ca.someca-inc.com/crl
    Signature Algorithm: sha256WithRSAEncryption
    Signature Value:
        ae:56:7c:51:ea:45:20:22:bf:13:7d:bf:df:34:43:f8:8e:87:
        6c:d6:aa:ce:40:5a:2a:5f:43:a5:30:d0:a9:04:5c:b3:90:96:
        53:9b:2f:df:75:9d:9a:96:10:ab:99:1c:bb:27:2c:3e:23:04:
        dd:2b:96:f5:66:58:85:4e:00:1c:fd:f8:93:f8:c4:17:87:64:
        01:73:f9:ad:6a:38:31:fd:78:ca:9c:5e:5f:99:d4:54:df:86:
        8a:50:46:5b:d3:26:8d:ce:10:b7:3f:be:52:45:72:d7:43:04:
        9f:a7:0c:19:74:a2:2f:94:7e:75:4f:64:70:02:e7:72:08:ce:
        95:6c:22:8d:58:38:03:5d:49:22:6f:a4:b0:82:59:32:05:d5:
        c2:c0:af:82:cc:0f:0e:d4:89:11:10:dc:ff:23:43:6e:48:c0:
        5d:6d:70:37:8e:08:6a:70:05:4c:75:3a:f9:04:34:fb:b3:5e:
        40:a8:64:f1:08:7f:0b:a3:e5:54:2d:1e:5c:b3:44:5f:05:9f:
        18:fe:35:c8:ff:d2:34:2b:55:5b:df:7d:6f:9d:10:2f:9f:6c:
        7a:56:bb:50:69:09:e2:b6:5d:43:db:1f:1a:e4:09:33:d3:12:
        07:57:0c:59:1b:90:22:63:f1:78:8a:ea:cd:64:37:c5:e1:06:
        9a:b8:2b:26:52:a6:d2:04:88:90:0f:d3:6d:24:64:6e:29:c6:
        82:4d:dc:5a:96:92:86:28:83:ed:60:f0:61:5c:43:9c:42:d7:
        78:10:ac:78:2c:02:4b:09:10:8e:72:76:84:e3:d6:f9:ac:61:
        d3:3c:14:ca:91:e6:7f:db:b2:33:0f:86:c4:88:e3:4e:3e:77:
        45:d4:7b:c5:99:56:3a:60:9b:89:46:94:f5:21:a2:db:49:ff:
        2b:97:b4:71:eb:41:6b:5b:0b:ee:72:71:60:52:a1:0d:d8:24:
        8d:ca:2c:7b:53:46:25:ba:cb:57:4f:30:2b:1f:69:2e:a2:46:
        32:b6:c6:4d:02:3d:7e:ee:5d:d8:7a:47:95:50:c9:3c:b7:fb:
        fd:b4:be:91:48:cb:30:6b:11:eb:6d:b9:06:6d:b2:ce:8f:eb:
        ae:0e:c2:f5:ae:9b:3f:0a:c4:68:78:5a:c5:b7:f6:47:85:48:
        0f:77:df:5c:0c:7b:12:b3:ef:fb:5f:4b:4c:7b:da:f1:98:55:
        ff:d8:cf:04:98:38:f9:b3:cf:30:f2:62:cd:a0:0e:fa:bc:dd:
        fe:46:7e:c4:93:b1:3f:53:83:ce:84:dd:1f:e1:62:db:23:d3:
        65:c5:0f:f3:3c:dd:26:10:41:aa:57:63:c2:84:bf:87:d5:c0:
        97:e3:4f:48:91:18:48:1f
-----BEGIN CERTIFICATE-----
MIIFmTCCA4GgAwIBAgIRAI9WDRDsXgzXe5M4tLQg5R0wDQYJKoZIhvcNAQELBQAw
QzELMAkGA1UEBhMCWFgxEDAOBgNVBAoTB1NvbWUgQ0ExIjAgBgNVBAMTGUZha2Ug
Q0EgZm9yIFpsaW50IHRlc3RpbmcwHhcNMjUwNTI5MTUwNzEyWhcNMjYwNTI5MTUw
NzEyWjCBhDELMAkGA1UEBhMCVVMxEDAOBgNVBAcTB05vd2hlcmUxGjAYBgNVBAoT
EVNvbWUgQ29tcGFueSBMdGQuMRYwFAYDVQQDEw1MZW9uIE1hbmRyYWtlMREwDwYD
VQQEEwhNYW5kcmFrZTEcMBoGA1UEYRMTTlRSVVMrREUtMTIzNDU2Nzg5MDCCASIw
DQYJKoZIhvcNAQEBBQADggEPADCCAQoCggEBAOuv/UxSAfxkZxSJFoXw3YxIfbfr
8nSpyNDhkekA2GvzvUeRazmiushmIKgYU8BHR3odaL/+pbhqDYlyec5tQWV0uiw+
Xhfvu6zt0jDBKM9as8LzWzcf6ToSsR1k5SQ23kdUcJmrscLL2VLzxgXd+yT6vGxU
F0T9SCt3ex8YzEQYYLKRx94TOqIlmXVv+0NtUocX60y0A8ih3b9VbMI+Kvo5r3PP
rbPGm1tNrbUZQiLHKlv0puTkETmQcB+jffGsjQ0ygXi2U0eX2/3SvworYMMe1Hlm
UdvPAM9GRvHqqUDBLFtp/yKcI7+Fb8wD52rWyMQNCh4kvGAVebbB4iHxl3cCAwEA
AaOCAUQwggFAMA4GA1UdDwEB/wQEAwIFoDAdBgNVHSUEFjAUBggrBgEFBQcDAgYI
KwYBBQUHAwQwHQYDVR0OBBYEFPL1rNQdesdlhOLKcPyKWaC8f0DwMB8GA1UdIwQY
MBaAFOi29nZL0DvlRqX5VNR+B7PeDWA+MGQGCCsGAQUFBwEBBFgwVjApBggrBgEF
BQcwAYYdaHR0cDovL2NhLnNvbWVjYS1pbmMuY29tL29jc3AwKQYIKwYBBQUHMAKG
HWh0dHA6Ly9jYS5zb21lY2EtaW5jLmNvbS9yb290MCQGA1UdEQQdMBuBGUxlb24u
TWFuZHJha2VAZXhhbXBsZS5jb20wFAYDVR0gBA0wCzAJBgdngQwBBQMCMC0GA1Ud
HwQmMCQwIqAgoB6GHGh0dHA6Ly9jYS5zb21lY2EtaW5jLmNvbS9jcmwwDQYJKoZI
hvcNAQELBQADggIBAK5WfFHqRSAivxN9v980Q/iOh2zWqs5AWipfQ6Uw0KkEXLOQ
llObL991nZqWEKuZHLsnLD4jBN0rlvVmWIVOABz9+JP4xBeHZAFz+a1qODH9eMqc
Xl+Z1FTfhopQRlvTJo3OELc/vlJFctdDBJ+nDBl0oi+UfnVPZHAC53IIzpVsIo1Y
OANdSSJvpLCCWTIF1cLAr4LMDw7UiREQ3P8jQ25IwF1tcDeOCGpwBUx1OvkENPuz
XkCoZPEIfwuj5VQtHlyzRF8Fnxj+Ncj/0jQrVVvffW+dEC+fbHpWu1BpCeK2XUPb
HxrkCTPTEgdXDFkbkCJj8XiK6s1kN8XhBpq4KyZSptIEiJAP020kZG4pxoJN3FqW
koYog+1g8GFcQ5xC13gQrHgsAksJEI5ydoTj1vmsYdM8FMqR5n/bsjMPhsSI404+
d0XUe8WZVjpgm4lGlPUhottJ/yuXtHHrQWtbC+5ycWBSoQ3YJI3KLHtTRiW6y1dP
MCsfaS6iRjK2xk0CPX7uXdh6R5VQyTy3+/20vpFIyzBrEettuQZtss6P664OwvWu
mz8KxGh4WsW39keFSA9331wMexKz7/tfS0x72vGYVf/YzwSYOPmzzzDyYs2gDvq8
3f5GfsSTsT9Tg86E3R/hYtsj02XFD/M83SYQQapXY8KEv4fVwJfjT0iRGEgf
-----END CERTIFICATE-----
