Certificate:
    Data:
        Version: 3 (0x2)
        Serial Number:
            4b:d5:c3:95:b9:c1:2f:c4:c9:ea:f0:c2:54:64:a9:0f
        Signature Algorithm: sha256WithRSAEncryption
        Issuer: C=XX, O=Some CA, CN=Fake CA for Zlint testing
        Validity
            Not Before: Sep 19 00:00:00 2023 GMT
            Not After : Sep 18 00:00:00 2024 GMT
        Subject: C=BR, ST=Bahia, L=Juazeiro, CN=João Gilberto
        Subject Public Key Info:
            Public Key Algorithm: rsaEncryption
                Public-Key: (2048 bit)
                Modulus:
                    00:f7:a7:80:67:a6:ac:4a:30:4e:83:c2:fb:7c:58:
                    94:b9:b5:c9:bb:be:c6:c5:fa:36:83:eb:7a:1b:97:
                    86:94:7e:82:1b:35:5d:d4:d0:da:9d:c5:7a:e1:70:
                    67:60:af:d5:51:4f:ec:99:5b:6f:f5:c1:c0:30:38:
                    22:42:36:11:22:ac:91:ef:e8:14:e3:25:f8:6f:ef:
                    0c:32:45:8e:41:4c:4b:f6:09:0e:00:ba:66:92:74:
                    ff:7d:ab:8b:68:2d:fe:c9:70:8f:2b:0c:22:85:b5:
                    73:b9:f0:1c:18:78:5b:62:4b:89:18:49:7d:be:ea:
                    e4:29:11:17:ff:97:1e:87:4b:ef:87:33:69:6b:94:
                    47:77:c9:cd:61:2f:5e:02:18:b5:7d:77:dc:c3:db:
                    77:10:c5:20:18:d4:41:36:9f:be:33:61:44:97:0a:
                    24:16:c5:92:c7:b4:61:c3:df:6f:58:87:17:67:f7:
                    ab:ce:13:0c:68:bf:70:f4:ed:97:b3:29:83:11:84:
                    11:a5:0a:f9:11:00:0b:6e:79:66:e1:6f:b2:8b:40:
                    21:d4:9a:52:7a:60:71:a6:ff:58:5b:dc:18:f7:da:
                    fd:95:d4:24:d8:24:82:10:4e:88:c9:fe:68:ab:73:
                    bb:e5:e0:53:49:b4:7e:48:91:7a:88:07:c8:cf:5b:
                    1c:35
                Exponent: 65537 (0x10001)
        X509v3 extensions:
            X509v3 Key Usage: critical
                Digital Signature, Key Encipherment
            X509v3 Extended Key Usage: 
                TLS Web Client Authentication, E-mail Protection
            X509v3 Subject Key Identifier: 
                7D:CE:CC:E6:1C:43:C9:29:4E:47:4D:92:E9:82:81:61:0D:B6:21:72
            X509v3 Authority Key Identifier: 
                E8:B6:F6:76:4B:D0:3B:E5:46:A5:F9:54:D4:7E:07:B3:DE:0D:60:3E
            Authority Information Access: 
                OCSP - URI:http://ca.someca-inc.com/ocsp
                CA Issuers - URI:http://ca.someca-inc.com/root
            X509v3 Subject Alternative Name: 
                email:joao.gilberto@example.org
            X509v3 Certificate Policies: 
                Policy: 2.23.140.1.5.4.2
            X509v3 CRL Distribution Points: 
                Full Name:
                  URI:http://ca.someca-inc.com/crl
    Signature Algorithm: sha256WithRSAEncryption
    Signature Value:
        b3:eb:95:47:c0:2d:80:24:15:b7:c2:a6:21:c3:41:a9:a2:0c:
        9d:1a:45:0f:9b:87:67:1e:1d:df:07:a0:e2:d5:9b:df:60:97:
        ab:1d:70:5b:36:c6:9e:26:80:dd:36:6a:ab:1b:b5:3f:d9:2c:
        03:8b:e2:b5:e5:86:5b:b5:06:78:bc:7a:3e:0a:bd:de:7d:60:
        52:ab:11:a8:98:dd:8c:25:1b:0a:50:95:49:f0:d3:9d:39:cf:
        5a:16:ec:ef:a5:ea:8e:29:b0:8c:69:85:83:65:32:91:e2:5d:
        9c:20:02:4c:59:e6:57:79:fe:1d:88:3b:59:61:63:13:16:f1:
        75:cd:a3:d2:46:22:4f:88:b1:29:b8:20:b5:2b:90:d8:66:0b:
        ab:45:19:b9:14:3f:52:78:41:49:99:34:9d:19:2f:83:bb:f4:
        44:54:62:db:88:1b:f4:0d:7b:22:ea:8b:cf:df:92:6f:4c:16:
        20:64:76:03:42:68:f9:30:ad:13:2d:07:0f:71:f5:12:c7:9c:
        18:c8:20:df:1d:00:68:fe:b6:48:7f:c1:cf:58:4a:6f:e5:ee:
        5e:83:ae:38:e7:fa:d0:33:95:4e:b1:01:05:1f:d1:36:91:93:
        f6:79:13:c3:a4:3d:43:73:de:e6:3b:9d:52:31:35:58:8b:a1:
        5d:7d:fb:e3:cd:1f:9d:b1:64:c2:70:cd:05:83:e4:20:74:d4:
        65:e0:8d:8a:40:ca:be:90:f3:81:aa:a8:83:54:0d:7b:ea:62:
        1d:ae:c9:c3:8d:a9:0a:8f:ae:3c:76:20:cc:19:2d:82:80:99:
        1f:26:2a:86:df:76:63:63:ba:71:5e:a0:6a:49:e2:07:39:f7:
        55:b6:30:8c:a5:14:3a:8d:62:51:30:91:bb:2b:29:00:9e:f5:
        eb:15:ce:5a:9c:9b:f4:40:d4:c2:27:dc:9c:9f:10:00:13:82:
        f4:c1:1e:da:79:37:4e:2b:9c:7d:28:52:83:7c:43:a2:a3:51:
        ad:2d:30:06:64:95:a8:e7:da:96:0b:9f:ab:fa:c6:c9:3e:49:
        51:48:fd:1c:c0:f1:5f:9f:5e:e7:99:52:68:14:3a:b6:24:ac:
        0d:4b:80:03:76:86:e7:04:95:c6:27:16:c9:ab:ce:98:ae:cd:
        37:35:16:d5:d2:fa:b2:7d:6a:3e:22:bf:b0:2e:26:4d:26:58:
        95:e3:66:27:02:36:4b:16:0c:89:25:87:92:f0:f6:8a:5f:53:
        f6:8e:b9:0e:5b:99:49:8f:68:de:95:5e:74:8a:f7:d2:c4:b8:
        39:0d:8f:50:35:5a:d5:8d:96:72:42:11:f3:82:c7:85:53:e1:
        24:69:e6:d2:bd:a5:6c:2d
-----BEGIN CERTIFICATE-----
MIIFXDCCA0SgAwIBAgIQS9XDlbnBL8TJ6vDCVGSpDzANBgkqhkiG9w0BAQsFADBD
MQswCQYDVQQGEwJYWDEQMA4GA1UEChMHU29tZSBDQTEiMCAGA1UEAxMZRmFrZSBD
QSBmb3IgWmxpbnQgdGVzdGluZzAeFw0yMzA5MTkwMDAwMDBaFw0yNDA5MTgwMDAw
MDBaMEkxCzAJBgNVBAYTAkJSMQ4wDAYDVQQIEwVCYWhpYTERMA8GA1UEBxMISnVh
emVpcm8xFzAVBgNVBAMMDkpvw6NvIEdpbGJlcnRvMIIBIjANBgkqhkiG9w0BAQEF
AAOCAQ8AMIIBCgKCAQEA96eAZ6asSjBOg8L7fFiUubXJu77Gxfo2g+t6G5eGlH6C
GzVd1NDancV64XBnYK/VUU/smVtv9cHAMDgiQjYRIqyR7+gU4yX4b+8MMkWOQUxL
9gkOALpmknT/fauLaC3+yXCPKwwihbVzufAcGHhbYkuJGEl9vurkKREX/5ceh0vv
hzNpa5RHd8nNYS9eAhi1fXfcw9t3EMUgGNRBNp++M2FElwokFsWSx7Rhw99vWIcX
Z/erzhMMaL9w9O2XsymDEYQRpQr5EQALbnlm4W+yi0Ah1JpSemBxpv9YW9wY99r9
ldQk2CSCEE6Iyf5oq3O75eBTSbR+SJF6iAfIz1scNQIDAQABo4IBRDCCAUAwDgYD
VR0PAQH/BAQDAgWgMB0GA1UdJQQWMBQGCCsGAQUFBwMCBggrBgEFBQcDBDAdBgNV
HQ4EFgQUfc7M5hxDySlOR02S6YKBYQ22IXIwHwYDVR0jBBgwFoAU6Lb2dkvQO+VG
pflU1H4Hs94NYD4wZAYIKwYBBQUHAQEEWDBWMCkGCCsGAQUFBzABhh1odHRwOi8v
Y2Euc29tZWNhLWluYy5jb20vb2NzcDApBggrBgEFBQcwAoYdaHR0cDovL2NhLnNv
bWVjYS1pbmMuY29tL3Jvb3QwJAYDVR0RBB0wG4EZam9hby5naWxiZXJ0b0BleGFt
cGxlLm9yZzAUBgNVHSAEDTALMAkGB2eBDAEFBAIwLQYDVR0fBCYwJDAioCCgHoYc
aHR0cDovL2NhLnNvbWVjYS1pbmMuY29tL2NybDANBgkqhkiG9w0BAQsFAAOCAgEA
s+uVR8AtgCQVt8KmIcNBqaIMnRpFD5uHZx4d3weg4tWb32CXqx1wWzbGniaA3TZq
qxu1P9ksA4viteWGW7UGeLx6Pgq93n1gUqsRqJjdjCUbClCVSfDTnTnPWhbs76Xq
jimwjGmFg2UykeJdnCACTFnmV3n+HYg7WWFjExbxdc2j0kYiT4ixKbggtSuQ2GYL
q0UZuRQ/UnhBSZk0nRkvg7v0RFRi24gb9A17IuqLz9+Sb0wWIGR2A0Jo+TCtEy0H
D3H1EsecGMgg3x0AaP62SH/Bz1hKb+XuXoOuOOf60DOVTrEBBR/RNpGT9nkTw6Q9
Q3Pe5judUjE1WIuhXX37480fnbFkwnDNBYPkIHTUZeCNikDKvpDzgaqog1QNe+pi
Ha7Jw42pCo+uPHYgzBktgoCZHyYqht92Y2O6cV6gakniBzn3VbYwjKUUOo1iUTCR
uyspAJ716xXOWpyb9EDUwifcnJ8QABOC9MEe2nk3TiucfShSg3xDoqNRrS0wBmSV
qOfalgufq/rGyT5JUUj9HMDxX59e55lSaBQ6tiSsDUuAA3aG5wSVxicWyavOmK7N
NzUW1dL6sn1qPiK/sC4mTSZYleNmJwI2SxYMiSWHkvD2il9T9o65DluZSY9o3pVe
dIr30sS4OQ2PUDVa1Y2WckIR84LHhVPhJGnm0r2lbC0=
-----END CERTIFICATE-----
