Certificate:
    Data:
        Version: 3 (0x2)
        Serial Number:
            75:79:70:e7:63:db:fc:4f:c2:fe:55:cf:9c:2e:02:3b
        Signature Algorithm: sha256WithRSAEncryption
        Issuer: C=XX, O=Some CA, CN=Fake CA for Zlint testing
        Validity
            Not Before: May 29 12:44:19 2025 GMT
            Not After : May 29 12:44:19 2026 GMT
        Subject: C=ES, L=Algún lugar, O=Alguna Compañía, CN=Alguna Compañía, organizationIdentifier=ABCES-1234567890
        Subject Public Key Info:
            Public Key Algorithm: rsaEncryption
                Public-Key: (2048 bit)
                Modulus:
                    00:d3:c1:6a:9c:13:13:58:19:a4:3e:35:06:53:ab:
                    93:66:fe:0e:48:a8:d4:b8:a3:e0:66:99:60:70:46:
                    8f:1b:b2:2f:52:90:d3:64:df:94:5c:b2:61:e7:f9:
                    99:c7:a4:c9:2a:14:16:40:47:70:e7:4e:94:88:63:
                    e8:8f:c8:84:44:75:e4:df:79:f6:1e:ed:ef:c0:37:
                    5e:f0:6c:18:04:a5:5c:45:39:75:88:5a:50:f1:aa:
                    5f:1b:8a:65:ae:95:b0:2b:b1:5c:43:c3:f0:0a:da:
                    4a:cf:5c:65:58:17:ea:c2:ab:02:5a:2b:fc:79:40:
                    b1:22:9f:84:5e:1f:a2:e8:7d:b7:71:15:93:7b:3b:
                    d5:bd:0d:d9:2e:70:58:10:3c:90:e5:af:68:9f:dd:
                    7e:32:f5:f8:21:1e:86:ee:5b:f7:c3:8d:45:e6:21:
                    b6:7b:51:30:46:6a:d4:b4:52:4c:50:83:b7:23:32:
                    12:56:94:a3:35:c2:f9:45:db:77:7a:fe:0a:ce:69:
                    a7:28:15:2d:38:2f:d7:96:fc:98:93:7c:11:59:d5:
                    d1:5f:b9:cb:ec:13:34:ff:8d:b4:2f:0a:a2:d7:59:
                    67:49:70:df:1a:3d:11:d1:32:3e:71:72:8e:3b:79:
                    c2:f9:12:f2:f3:6c:51:5c:ab:cb:fc:85:c0:cf:22:
                    b4:83
                Exponent: 65537 (0x10001)
        X509v3 extensions:
            X509v3 Key Usage: critical
                Digital Signature, Key Encipherment
            X509v3 Extended Key Usage: 
                TLS Web Client Authentication, E-mail Protection
            X509v3 Subject Key Identifier: 
                0A:DF:5D:72:47:AD:1E:24:BF:0D:6F:B4:04:8C:12:49:48:FE:FB:46
            X509v3 Authority Key Identifier: 
                E8:B6:F6:76:4B:D0:3B:E5:46:A5:F9:54:D4:7E:07:B3:DE:0D:60:3E
            Authority Information Access: 
                OCSP - URI:http://ca.someca-inc.com/ocsp
                CA Issuers - URI:http://ca.someca-inc.com/root
            X509v3 Subject Alternative Name: 
                email:Leon.Mandrake@example.com
            X509v3 Certificate Policies: 
                Policy: 2.23.140.1.5.2.3
            X509v3 CRL Distribution Points: 
                Full Name:
                  URI:http://ca.someca-inc.com/crl
    Signature Algorithm: sha256WithRSAEncryption
    Signature Value:
        7a:0b:bb:32:53:50:79:71:c6:d2:52:fe:6e:9b:99:af:a8:6a:
        59:d2:a4:09:f6:73:6d:d3:02:f1:6a:02:82:21:59:12:b1:c3:
        83:70:98:50:a5:7f:54:cf:75:67:f2:ce:e3:1e:0d:49:0a:08:
        4f:1a:59:52:77:28:f8:75:a4:4d:2e:7a:b7:a3:3b:27:a2:7a:
        29:6e:80:f3:1d:bc:d9:f0:42:83:f3:48:d8:6b:53:77:36:0f:
        60:21:9f:86:d5:a8:29:da:24:de:d0:c1:7d:af:f3:0d:c1:c2:
        92:02:ee:95:21:04:21:4f:70:da:25:da:87:34:93:4e:57:9a:
        c5:03:13:45:4f:d5:6a:95:63:4f:cb:05:0e:b4:39:af:2f:c8:
        fa:bf:ba:81:4b:e6:6f:99:fc:12:4e:30:dd:98:5f:ad:7c:94:
        7e:ca:0e:74:96:f3:9a:f0:61:b2:1e:80:0e:fb:00:51:4c:78:
        7a:11:44:f4:2f:26:df:87:90:15:e8:a1:73:49:d2:3e:95:db:
        4c:d5:d7:d9:1e:62:5b:79:f9:3a:76:43:8f:6f:ab:da:f4:a4:
        52:3e:58:7a:d3:6c:32:46:b8:4c:5d:27:3c:0a:67:06:89:cf:
        c6:15:f4:57:38:d4:bc:5a:47:7b:2a:13:83:82:8f:e4:df:7c:
        0b:bc:03:7a:6f:b9:cf:49:76:bf:57:31:cb:ee:2f:fc:e5:07:
        d3:c6:62:e2:24:80:03:62:70:dc:ad:f2:06:6c:26:f7:96:38:
        e9:b9:44:a6:11:b4:5e:65:70:9f:3e:b8:67:0d:c1:01:db:b1:
        41:f7:db:98:2d:42:76:b1:aa:54:96:f8:77:7c:13:3a:86:76:
        02:5c:b6:ec:93:3b:42:10:4b:00:fb:21:5d:46:6f:d2:cd:36:
        6e:9c:6e:8b:99:29:5c:e1:2c:54:5a:eb:79:be:76:49:4a:6c:
        31:f1:52:34:b2:96:4d:69:9e:aa:83:9a:78:e0:ac:8c:e1:b0:
        47:85:06:c5:49:4d:88:b9:a7:13:ac:c9:de:a7:46:3f:da:3a:
        f4:ea:aa:e3:b0:c2:e9:a5:77:cf:b8:d7:91:b8:e0:e5:57:43:
        03:a6:98:f3:51:0f:5b:5b:92:9b:db:96:cd:60:d6:72:fe:db:
        3a:77:f8:10:fe:1e:45:43:e3:fe:84:c4:04:79:77:92:49:4c:
        1f:78:75:85:45:b6:e1:3f:4f:3f:e5:7c:61:cf:2a:45:37:63:
        31:96:9e:42:82:41:36:d6:86:f8:0b:8d:e1:58:5a:22:d9:ff:
        67:55:43:c1:ba:78:db:3d:7e:b3:0d:d9:53:3a:f0:69:8b:c8:
        8b:72:c9:3e:5b:39:e0:2d
-----BEGIN CERTIFICATE-----
MIIFijCCA3KgAwIBAgIQdXlw52Pb/E/C/lXPnC4COzANBgkqhkiG9w0BAQsFADBD
MQswCQYDVQQGEwJYWDEQMA4GA1UEChMHU29tZSBDQTEiMCAGA1UEAxMZRmFrZSBD
QSBmb3IgWmxpbnQgdGVzdGluZzAeFw0yNTA1MjkxMjQ0MTlaFw0yNjA1MjkxMjQ0
MTlaMHcxCzAJBgNVBAYTAkVTMRUwEwYDVQQHDAxBbGfDum4gbHVnYXIxGjAYBgNV
BAoMEUFsZ3VuYSBDb21wYcOxw61hMRowGAYDVQQDDBFBbGd1bmEgQ29tcGHDscOt
YTEZMBcGA1UEYRMQQUJDRVMtMTIzNDU2Nzg5MDCCASIwDQYJKoZIhvcNAQEBBQAD
ggEPADCCAQoCggEBANPBapwTE1gZpD41BlOrk2b+Dkio1Lij4GaZYHBGjxuyL1KQ
02TflFyyYef5mcekySoUFkBHcOdOlIhj6I/IhER15N959h7t78A3XvBsGASlXEU5
dYhaUPGqXxuKZa6VsCuxXEPD8AraSs9cZVgX6sKrAlor/HlAsSKfhF4fouh9t3EV
k3s71b0N2S5wWBA8kOWvaJ/dfjL1+CEehu5b98ONReYhtntRMEZq1LRSTFCDtyMy
ElaUozXC+UXbd3r+Cs5ppygVLTgv15b8mJN8EVnV0V+5y+wTNP+NtC8KotdZZ0lw
3xo9EdEyPnFyjjt5wvkS8vNsUVyry/yFwM8itIMCAwEAAaOCAUQwggFAMA4GA1Ud
DwEB/wQEAwIFoDAdBgNVHSUEFjAUBggrBgEFBQcDAgYIKwYBBQUHAwQwHQYDVR0O
BBYEFArfXXJHrR4kvw1vtASMEklI/vtGMB8GA1UdIwQYMBaAFOi29nZL0DvlRqX5
VNR+B7PeDWA+MGQGCCsGAQUFBwEBBFgwVjApBggrBgEFBQcwAYYdaHR0cDovL2Nh
LnNvbWVjYS1pbmMuY29tL29jc3AwKQYIKwYBBQUHMAKGHWh0dHA6Ly9jYS5zb21l
Y2EtaW5jLmNvbS9yb290MCQGA1UdEQQdMBuBGUxlb24uTWFuZHJha2VAZXhhbXBs
ZS5jb20wFAYDVR0gBA0wCzAJBgdngQwBBQIDMC0GA1UdHwQmMCQwIqAgoB6GHGh0
dHA6Ly9jYS5zb21lY2EtaW5jLmNvbS9jcmwwDQYJKoZIhvcNAQELBQADggIBAHoL
uzJTUHlxxtJS/m6bma+oalnSpAn2c23TAvFqAoIhWRKxw4NwmFClf1TPdWfyzuMe
DUkKCE8aWVJ3KPh1pE0uerejOyeieilugPMdvNnwQoPzSNhrU3c2D2Ahn4bVqCna
JN7QwX2v8w3BwpIC7pUhBCFPcNol2oc0k05XmsUDE0VP1WqVY0/LBQ60Oa8vyPq/
uoFL5m+Z/BJOMN2YX618lH7KDnSW85rwYbIegA77AFFMeHoRRPQvJt+HkBXooXNJ
0j6V20zV19keYlt5+Tp2Q49vq9r0pFI+WHrTbDJGuExdJzwKZwaJz8YV9Fc41Lxa
R3sqE4OCj+TffAu8A3pvuc9Jdr9XMcvuL/zlB9PGYuIkgANicNyt8gZsJveWOOm5
RKYRtF5lcJ8+uGcNwQHbsUH325gtQnaxqlSW+Hd8EzqGdgJctuyTO0IQSwD7IV1G
b9LNNm6cbouZKVzhLFRa63m+dklKbDHxUjSylk1pnqqDmnjgrIzhsEeFBsVJTYi5
pxOsyd6nRj/aOvTqquOwwumld8+415G44OVXQwOmmPNRD1tbkpvbls1g1nL+2zp3
+BD+HkVD4/6ExAR5d5JJTB94dYVFtuE/Tz/lfGHPKkU3YzGWnkKCQTbWhvgLjeFY
WiLZ/2dVQ8G6eNs9frMN2VM68GmLyItyyT5bOeAt
-----END CERTIFICATE-----
