Certificate:
    Data:
        Version: 3 (0x2)
        Serial Number:
            bf:59:96:a1:34:d2:8c:75:49:84:95:97:ef:d4:54:04
        Signature Algorithm: sha256WithRSAEncryption
        Issuer: C=XX, O=Some CA, CN=Fake CA for Zlint testing
        Validity
            Not Before: May 23 00:00:00 2023 GMT
            Not After : May 22 00:00:00 2024 GMT
        Subject: C=US, L=Nowhere, O=Some Company Ltd., CN=PSEUDO.AA12345, organizationIdentifier=NTRUS+DE-1234567890
        Subject Public Key Info:
            Public Key Algorithm: rsaEncryption
                Public-Key: (2048 bit)
                Modulus:
                    00:c7:ed:17:17:89:e6:e5:be:44:33:c5:17:61:fd:
                    76:de:83:d7:ef:26:64:50:40:8b:40:84:71:1a:04:
                    bb:9f:4c:3a:13:d3:5e:2a:04:2c:a4:49:f0:5a:54:
                    24:72:ba:5f:17:9d:30:bc:0b:e5:c3:5f:c8:95:be:
                    4f:bb:07:13:9c:9c:ff:42:fc:80:f8:c8:39:63:e0:
                    23:43:b1:ef:dc:9c:95:1a:d5:a6:3d:eb:fe:58:11:
                    36:8f:c0:be:a4:ee:b6:06:6e:ec:af:4f:ad:bb:52:
                    b6:df:df:ac:1e:ef:f3:2b:59:0f:18:2e:6a:38:72:
                    24:51:e9:eb:9d:94:90:a7:83:7d:22:c5:d7:3a:07:
                    db:f0:2d:be:1f:e2:9c:fc:c1:5c:f8:bf:93:c5:3c:
                    15:f9:51:4e:0c:d8:61:70:5a:bb:de:44:f6:f9:25:
                    2e:84:77:d0:03:11:41:b6:7f:01:da:d7:bb:48:cb:
                    7c:0a:7d:57:1a:58:98:54:ed:0f:05:13:92:36:12:
                    6f:4a:4a:a8:2c:a6:17:9c:62:13:02:9f:5d:4c:81:
                    d0:e8:e4:fa:49:25:18:93:13:bf:a2:88:65:5e:47:
                    8a:46:82:34:2c:de:72:5a:74:8c:1b:67:74:53:ae:
                    ee:5d:2b:18:6a:ab:ce:73:ca:7f:57:c5:78:3b:bd:
                    73:0d
                Exponent: 65537 (0x10001)
        X509v3 extensions:
            X509v3 Key Usage: critical
                Digital Signature, Key Encipherment
            X509v3 Extended Key Usage: 
                TLS Web Client Authentication, E-mail Protection
            X509v3 Subject Key Identifier: 
                44:E7:1A:56:75:86:BE:4A:BC:73:D9:B0:8F:92:90:41:7D:25:5E:89
            X509v3 Authority Key Identifier: 
                E8:B6:F6:76:4B:D0:3B:E5:46:A5:F9:54:D4:7E:07:B3:DE:0D:60:3E
            Authority Information Access: 
                OCSP - URI:http://ca.someca-inc.com/ocsp
                CA Issuers - URI:http://ca.someca-inc.com/root
            X509v3 Subject Alternative Name: 
                email:pseudo.aa12345@example.com
            X509v3 Certificate Policies: 
                Policy: 2.23.140.1.5.3.2
            X509v3 CRL Distribution Points: 
                Full Name:
                  URI:http://ca.someca-inc.com/crl
    Signature Algorithm: sha256WithRSAEncryption
    Signature Value:
        b7:03:4f:06:99:db:5f:12:4f:1c:fa:b6:fd:a8:46:b3:59:74:
        6d:9b:d2:56:d2:98:0a:36:84:ff:53:0a:45:fd:80:3d:f3:45:
        68:55:75:3c:21:36:63:12:82:f4:6e:c6:7a:b4:7d:60:b3:68:
        86:a4:55:e0:2c:04:a5:ea:da:06:7a:bd:69:bf:cf:cf:2c:bd:
        eb:2a:d1:31:7c:c9:87:c8:88:3f:45:9a:f9:8e:17:5e:d4:da:
        cd:13:c2:97:a3:12:9b:54:15:29:ca:80:80:bc:67:8b:34:e1:
        29:f3:31:f2:4c:f7:d2:7c:fd:56:43:5e:e1:03:17:c1:83:40:
        56:a3:bd:9d:2e:4e:02:fc:95:4f:9e:6b:67:c8:01:36:90:99:
        eb:9b:ef:80:e6:17:02:e8:7a:55:30:59:c4:30:cb:67:55:cf:
        1e:36:a0:48:3b:a3:95:81:ea:2b:8b:e2:72:19:58:33:e1:c5:
        9e:aa:ff:9f:ff:48:15:f2:08:80:18:72:13:b2:57:c4:04:fd:
        ef:66:7b:90:f9:61:97:41:e7:4e:75:e2:f8:8b:3c:c9:90:5f:
        99:57:86:85:15:99:5c:9a:d0:13:f0:a0:7b:11:87:34:79:94:
        3c:bd:5c:d6:7e:0a:10:b7:1d:5b:30:8e:5a:97:66:35:26:5a:
        04:cc:cc:19:5d:0c:88:2b:6c:6d:b8:bd:09:a0:e3:c0:2a:1a:
        34:b6:78:9a:b1:d7:d7:c1:1d:95:33:f0:f4:63:c7:76:78:f2:
        0a:1c:e1:92:24:77:68:56:2d:9c:44:0f:c9:f8:42:6b:39:ba:
        69:ee:b3:4e:ec:2c:cc:da:56:24:2c:64:10:a3:8e:9a:67:94:
        e6:27:67:27:ee:4b:a3:df:92:da:df:fb:c9:f9:a4:d6:18:3f:
        a4:90:7b:52:1b:e5:47:ba:87:fb:b1:ff:16:ca:d8:b1:2e:77:
        c8:ed:d9:86:d0:bf:79:97:7c:4a:10:36:b9:db:72:db:75:15:
        9d:2f:7d:a7:56:3f:5f:7f:ae:c6:d8:e9:86:b8:fc:c6:1b:97:
        d0:9b:07:08:d2:be:81:b0:4f:82:30:d8:d3:e6:dc:2e:ca:80:
        c1:98:3e:a8:66:b5:66:f9:cb:a9:a2:ff:a0:f2:70:cd:4f:33:
        6e:ee:26:ad:4a:fd:f3:90:75:19:07:7a:72:62:4e:13:73:d9:
        98:eb:16:05:dc:37:1a:59:04:72:e9:62:fb:42:0d:ee:3c:f2:
        3b:70:9f:00:f9:25:45:a1:c9:51:1f:83:e1:3b:20:dd:e9:9a:
        e6:96:0d:59:91:a1:a0:da:f2:4b:3a:3e:8e:23:14:5a:00:5d:
        9c:65:50:b1:ac:69:8b:df
-----BEGIN CERTIFICATE-----
MIIFhzCCA2+gAwIBAgIRAL9ZlqE00ox1SYSVl+/UVAQwDQYJKoZIhvcNAQELBQAw
QzELMAkGA1UEBhMCWFgxEDAOBgNVBAoTB1NvbWUgQ0ExIjAgBgNVBAMTGUZha2Ug
Q0EgZm9yIFpsaW50IHRlc3RpbmcwHhcNMjMwNTIzMDAwMDAwWhcNMjQwNTIyMDAw
MDAwWjByMQswCQYDVQQGEwJVUzEQMA4GA1UEBxMHTm93aGVyZTEaMBgGA1UEChMR
U29tZSBDb21wYW55IEx0ZC4xFzAVBgNVBAMTDlBTRVVETy5BQTEyMzQ1MRwwGgYD
VQRhExNOVFJVUytERS0xMjM0NTY3ODkwMIIBIjANBgkqhkiG9w0BAQEFAAOCAQ8A
MIIBCgKCAQEAx+0XF4nm5b5EM8UXYf123oPX7yZkUECLQIRxGgS7n0w6E9NeKgQs
pEnwWlQkcrpfF50wvAvlw1/Ilb5PuwcTnJz/QvyA+Mg5Y+AjQ7Hv3JyVGtWmPev+
WBE2j8C+pO62Bm7sr0+tu1K239+sHu/zK1kPGC5qOHIkUenrnZSQp4N9IsXXOgfb
8C2+H+Kc/MFc+L+TxTwV+VFODNhhcFq73kT2+SUuhHfQAxFBtn8B2te7SMt8Cn1X
GliYVO0PBROSNhJvSkqoLKYXnGITAp9dTIHQ6OT6SSUYkxO/oohlXkeKRoI0LN5y
WnSMG2d0U67uXSsYaqvOc8p/V8V4O71zDQIDAQABo4IBRTCCAUEwDgYDVR0PAQH/
BAQDAgWgMB0GA1UdJQQWMBQGCCsGAQUFBwMCBggrBgEFBQcDBDAdBgNVHQ4EFgQU
ROcaVnWGvkq8c9mwj5KQQX0lXokwHwYDVR0jBBgwFoAU6Lb2dkvQO+VGpflU1H4H
s94NYD4wZAYIKwYBBQUHAQEEWDBWMCkGCCsGAQUFBzABhh1odHRwOi8vY2Euc29t
ZWNhLWluYy5jb20vb2NzcDApBggrBgEFBQcwAoYdaHR0cDovL2NhLnNvbWVjYS1p
bmMuY29tL3Jvb3QwJQYDVR0RBB4wHIEacHNldWRvLmFhMTIzNDVAZXhhbXBsZS5j
b20wFAYDVR0gBA0wCzAJBgdngQwBBQMCMC0GA1UdHwQmMCQwIqAgoB6GHGh0dHA6
Ly9jYS5zb21lY2EtaW5jLmNvbS9jcmwwDQYJKoZIhvcNAQELBQADggIBALcDTwaZ
218STxz6tv2oRrNZdG2b0lbSmAo2hP9TCkX9gD3zRWhVdTwhNmMSgvRuxnq0fWCz
aIakVeAsBKXq2gZ6vWm/z88svesq0TF8yYfIiD9FmvmOF17U2s0TwpejEptUFSnK
gIC8Z4s04SnzMfJM99J8/VZDXuEDF8GDQFajvZ0uTgL8lU+ea2fIATaQmeub74Dm
FwLoelUwWcQwy2dVzx42oEg7o5WB6iuL4nIZWDPhxZ6q/5//SBXyCIAYchOyV8QE
/e9me5D5YZdB50514viLPMmQX5lXhoUVmVya0BPwoHsRhzR5lDy9XNZ+ChC3HVsw
jlqXZjUmWgTMzBldDIgrbG24vQmg48AqGjS2eJqx19fBHZUz8PRjx3Z48goc4ZIk
d2hWLZxED8n4Qms5umnus07sLMzaViQsZBCjjppnlOYnZyfuS6Pfktrf+8n5pNYY
P6SQe1Ib5Ue6h/ux/xbK2LEud8jt2YbQv3mXfEoQNrnbctt1FZ0vfadWP19/rsbY
6Ya4/MYbl9CbBwjSvoGwT4Iw2NPm3C7KgMGYPqhmtWb5y6mi/6DycM1PM27uJq1K
/fOQdRkHenJiThNz2ZjrFgXcNxpZBHLpYvtCDe488jtwnwD5JUWhyVEfg+E7IN3p
muaWDVmRoaDa8ks6Po4jFFoAXZxlULGsaYvf
-----END CERTIFICATE-----
