Certificate:
    Data:
        Version: 3 (0x2)
        Serial Number:
            30:ed:31:42:4f:07:04:8a:4c:43:50:94:72:2a:66:ff
        Signature Algorithm: sha256WithRSAEncryption
        Issuer: C=XX, O=Some CA, CN=Fake CA for Zlint testing
        Validity
            Not Before: May 29 12:30:16 2025 GMT
            Not After : May 29 12:30:16 2026 GMT
        Subject: CN=Guenter.Grass@example.com
        Subject Public Key Info:
            Public Key Algorithm: rsaEncryption
                Public-Key: (2048 bit)
                Modulus:
                    00:b4:49:fd:c6:b1:89:2c:f5:59:6d:26:8d:26:52:
                    e3:a8:de:c5:87:c5:6c:ae:e6:21:d9:d0:47:8b:a1:
                    0a:53:c2:09:d2:40:60:e3:e3:b6:4e:22:13:8f:95:
                    32:3b:4f:44:6c:ed:3a:be:80:0c:e4:c8:c8:9c:d8:
                    95:fc:b5:4a:69:5f:90:c7:bf:c0:6a:36:56:b6:14:
                    24:c7:25:94:fb:32:be:0a:98:fa:0a:73:a0:61:c3:
                    b1:9e:f8:9b:52:13:e8:a1:8b:88:79:a7:7e:72:56:
                    34:93:d3:fb:3d:34:47:16:94:71:01:49:1c:f3:87:
                    cc:bd:b7:54:4d:86:d8:79:47:d5:d6:9e:ea:a6:ff:
                    46:6a:13:e6:3b:9c:63:52:28:60:2c:9f:bf:22:90:
                    df:e4:f2:0b:8b:2e:6e:42:07:84:fa:67:55:e8:90:
                    15:fc:4b:52:a7:b6:6f:4b:38:7d:98:08:3f:44:25:
                    b7:41:02:51:06:ba:ff:43:16:8f:47:86:7d:1b:5d:
                    99:4b:2a:14:66:f6:bf:cc:ee:fd:11:53:ea:aa:b1:
                    25:94:2e:37:18:e7:5c:bf:b1:2d:37:54:c7:14:22:
                    96:ea:ea:8d:37:05:12:c7:58:79:f2:aa:e0:62:67:
                    5c:b0:61:7c:47:6f:91:19:34:46:38:30:f7:38:7e:
                    06:7b
                Exponent: 65537 (0x10001)
        X509v3 extensions:
            X509v3 Key Usage: critical
                Digital Signature, Key Encipherment
            X509v3 Extended Key Usage: 
                TLS Web Client Authentication, E-mail Protection
            X509v3 Subject Key Identifier: 
                78:62:C0:34:9E:0C:57:BA:BC:BB:06:66:95:67:1C:80:43:FF:9B:71
            X509v3 Authority Key Identifier: 
                E8:B6:F6:76:4B:D0:3B:E5:46:A5:F9:54:D4:7E:07:B3:DE:0D:60:3E
            Authority Information Access: 
                OCSP - URI:http://ca.someca-inc.com/ocsp
                CA Issuers - URI:http://ca.someca-inc.com/root
            X509v3 Subject Alternative Name: 
                email:Guenter.Grass@example.com
            X509v3 Certificate Policies: 
                Policy: 2.23.140.1.5.1.3
            X509v3 CRL Distribution Points: 
                Full Name:
                  URI:http://ca.someca-inc.com/crl
    Signature Algorithm: sha256WithRSAEncryption
    Signature Value:
        04:30:66:51:a0:5d:ff:24:d7:bd:14:88:8b:11:76:38:a4:2a:
        07:a8:cd:c3:87:cd:9a:07:c7:06:98:87:89:38:dd:7a:25:24:
        e4:8d:63:6a:a1:ac:95:93:ec:4c:0d:2e:24:76:16:c9:a8:e0:
        d9:e6:87:91:04:c6:1e:be:b7:5c:5a:81:c1:21:cb:25:a8:08:
        f8:a7:6d:54:d9:7f:59:52:40:fb:cc:28:bf:a8:96:e1:07:00:
        f1:9d:83:20:82:e2:ba:5a:93:e8:e2:dd:06:0d:eb:6f:c2:33:
        0e:ae:40:68:63:99:9b:c3:31:35:de:48:f6:1d:99:79:80:bb:
        3f:87:7e:8d:af:b7:41:d3:be:8f:c1:05:fb:c3:33:67:51:a0:
        f7:49:71:e5:93:2d:82:3f:21:e5:c2:41:9a:5e:9a:c6:c6:8e:
        f3:0b:c9:9f:4e:97:00:3b:24:ed:78:bd:65:c7:60:66:8f:5d:
        12:60:f5:8f:64:08:64:88:00:64:4c:53:3a:78:32:2f:82:3e:
        2b:e6:e4:7d:3e:2d:b1:a8:df:5a:a3:25:2c:df:0f:b0:6c:16:
        27:1e:0a:3a:1a:c6:1d:a6:d8:42:cf:7d:68:89:cc:26:28:53:
        d6:dd:34:3e:a1:3a:cd:26:ea:ea:fc:ea:7e:70:c7:44:a1:c1:
        63:ac:88:f8:02:9c:fd:5d:55:f0:32:24:d4:a1:0d:61:98:49:
        48:2e:79:f2:ce:c2:17:e0:73:0a:50:9d:0f:b1:39:f6:c9:83:
        80:e9:9d:24:5a:e7:29:ba:62:b4:cd:37:34:9f:6c:e1:6d:ec:
        76:7e:03:42:52:df:df:12:13:47:42:48:24:e4:ec:2d:c2:e3:
        e1:95:69:78:c3:6c:df:e5:ce:08:8c:a7:c3:d5:18:f2:6b:05:
        a8:33:eb:ed:7c:cf:e0:52:91:6f:51:90:2e:bf:70:b4:46:d0:
        f4:01:f5:3a:2a:6b:73:92:d0:7b:05:f4:7a:39:18:dc:00:5b:
        4f:17:a4:4f:13:11:9a:33:12:61:e7:4f:a3:9c:09:c5:f7:89:
        6b:b3:b1:79:7d:20:d7:78:2b:5e:ee:b2:de:05:ef:e2:1d:4b:
        ca:0b:74:43:e2:29:d0:8d:c6:be:d8:23:cb:f6:68:d7:be:2b:
        2e:c4:4f:9b:f8:09:a0:4e:36:60:7e:eb:8e:4f:ea:91:5e:d9:
        eb:c8:55:70:4e:a4:0c:f6:c5:23:65:59:0b:e7:65:46:73:58:
        cf:6d:fd:29:5d:18:22:d5:40:df:3a:c3:3a:6d:19:53:cb:34:
        aa:f0:12:aa:2f:dc:d5:b4:8f:97:17:fa:7a:50:0d:47:56:e2:
        29:17:53:7d:65:90:1b:bb
-----BEGIN CERTIFICATE-----
MIIFNzCCAx+gAwIBAgIQMO0xQk8HBIpMQ1CUcipm/zANBgkqhkiG9w0BAQsFADBD
MQswCQYDVQQGEwJYWDEQMA4GA1UEChMHU29tZSBDQTEiMCAGA1UEAxMZRmFrZSBD
QSBmb3IgWmxpbnQgdGVzdGluZzAeFw0yNTA1MjkxMjMwMTZaFw0yNjA1MjkxMjMw
MTZaMCQxIjAgBgNVBAMMGUd1ZW50ZXIuR3Jhc3NAZXhhbXBsZS5jb20wggEiMA0G
CSqGSIb3DQEBAQUAA4IBDwAwggEKAoIBAQC0Sf3GsYks9VltJo0mUuOo3sWHxWyu
5iHZ0EeLoQpTwgnSQGDj47ZOIhOPlTI7T0Rs7Tq+gAzkyMic2JX8tUppX5DHv8Bq
Nla2FCTHJZT7Mr4KmPoKc6Bhw7Ge+JtSE+ihi4h5p35yVjST0/s9NEcWlHEBSRzz
h8y9t1RNhth5R9XWnuqm/0ZqE+Y7nGNSKGAsn78ikN/k8guLLm5CB4T6Z1XokBX8
S1Kntm9LOH2YCD9EJbdBAlEGuv9DFo9Hhn0bXZlLKhRm9r/M7v0RU+qqsSWULjcY
51y/sS03VMcUIpbq6o03BRLHWHnyquBiZ1ywYXxHb5EZNEY4MPc4fgZ7AgMBAAGj
ggFEMIIBQDAOBgNVHQ8BAf8EBAMCBaAwHQYDVR0lBBYwFAYIKwYBBQUHAwIGCCsG
AQUFBwMEMB0GA1UdDgQWBBR4YsA0ngxXury7BmaVZxyAQ/+bcTAfBgNVHSMEGDAW
gBTotvZ2S9A75Ual+VTUfgez3g1gPjBkBggrBgEFBQcBAQRYMFYwKQYIKwYBBQUH
MAGGHWh0dHA6Ly9jYS5zb21lY2EtaW5jLmNvbS9vY3NwMCkGCCsGAQUFBzAChh1o
dHRwOi8vY2Euc29tZWNhLWluYy5jb20vcm9vdDAkBgNVHREEHTAbgRlHdWVudGVy
LkdyYXNzQGV4YW1wbGUuY29tMBQGA1UdIAQNMAswCQYHZ4EMAQUBAzAtBgNVHR8E
JjAkMCKgIKAehhxodHRwOi8vY2Euc29tZWNhLWluYy5jb20vY3JsMA0GCSqGSIb3
DQEBCwUAA4ICAQAEMGZRoF3/JNe9FIiLEXY4pCoHqM3Dh82aB8cGmIeJON16JSTk
jWNqoayVk+xMDS4kdhbJqODZ5oeRBMYevrdcWoHBIcslqAj4p21U2X9ZUkD7zCi/
qJbhBwDxnYMgguK6WpPo4t0GDetvwjMOrkBoY5mbwzE13kj2HZl5gLs/h36Nr7dB
076PwQX7wzNnUaD3SXHlky2CPyHlwkGaXprGxo7zC8mfTpcAOyTteL1lx2Bmj10S
YPWPZAhkiABkTFM6eDIvgj4r5uR9Pi2xqN9aoyUs3w+wbBYnHgo6GsYdpthCz31o
icwmKFPW3TQ+oTrNJurq/Op+cMdEocFjrIj4Apz9XVXwMiTUoQ1hmElILnnyzsIX
4HMKUJ0PsTn2yYOA6Z0kWucpumK0zTc0n2zhbex2fgNCUt/fEhNHQkgk5OwtwuPh
lWl4w2zf5c4IjKfD1RjyawWoM+vtfM/gUpFvUZAuv3C0RtD0AfU6KmtzktB7BfR6
ORjcAFtPF6RPExGaMxJh50+jnAnF94lrs7F5fSDXeCte7rLeBe/iHUvKC3RD4inQ
jca+2CPL9mjXvisuxE+b+AmgTjZgfuuOT+qRXtnryFVwTqQM9sUjZVkL52VGc1jP
bf0pXRgi1UDfOsM6bRlTyzSq8BKqL9zVtI+XF/p6UA1HVuIpF1N9ZZAbuw==
-----END CERTIFICATE-----
