Certificate:
    Data:
        Version: 3 (0x2)
        Serial Number:
            56:03:fa:15:43:8e:b7:1d:1d:e8:bb:3b:13:a2:cd:ea
        Signature Algorithm: sha256WithRSAEncryption
        Issuer: C=XX, O=Some CA, CN=Fake CA for Zlint testing
        Validity
            Not Before: May 29 12:11:49 2025 GMT
            Not After : May 29 12:11:49 2026 GMT
        Subject: C=BR, ST=Bahia, L=Juazeiro, CN=João Gilberto
        Subject Public Key Info:
            Public Key Algorithm: rsaEncryption
                Public-Key: (2048 bit)
                Modulus:
                    00:d7:d1:2e:8f:4f:66:cc:99:6f:2e:b7:c8:b7:52:
                    42:19:b7:9a:ab:b0:d6:09:0b:09:29:52:a6:3a:3d:
                    cf:ff:05:e7:7d:41:1c:34:2f:99:6d:e0:26:1a:9e:
                    9f:2d:10:8b:a0:76:d9:81:b0:b1:5c:fb:c1:c0:5a:
                    1e:7d:cd:e4:b9:ec:23:dc:a9:64:dc:94:bb:21:61:
                    2f:73:5b:65:d8:e3:d1:16:f4:9f:60:cc:73:fc:a0:
                    0a:15:0c:90:a1:7a:4c:c6:65:a4:75:8c:4f:8c:1e:
                    c2:3e:cb:2c:b1:5f:48:b0:c5:68:f2:54:13:36:7f:
                    47:62:04:43:af:d9:7f:f0:89:31:97:b8:6f:1f:45:
                    8f:f0:cb:da:48:92:22:84:2a:89:ac:c9:d4:bb:12:
                    68:c8:79:fd:8f:78:c9:e6:22:7c:a0:b3:47:5b:f6:
                    61:6b:87:1d:7d:0e:68:ef:8c:a1:48:c6:a2:8e:63:
                    58:4e:ee:f3:86:b2:23:82:78:bd:0a:0f:86:05:bb:
                    fd:42:fa:cb:c3:93:2c:cf:8d:30:3c:6b:f1:b5:35:
                    1a:f5:1b:e1:7d:d9:3b:2d:4d:c8:4b:40:41:a9:00:
                    71:86:63:3e:69:c6:be:0e:10:78:c0:51:7a:f4:95:
                    5e:7d:a8:24:00:2e:51:75:ba:c5:01:44:f6:b2:d3:
                    8e:7d
                Exponent: 65537 (0x10001)
        X509v3 extensions:
            X509v3 Key Usage: critical
                Digital Signature, Key Encipherment
            X509v3 Extended Key Usage: 
                TLS Web Client Authentication, E-mail Protection
            X509v3 Subject Key Identifier: 
                63:BF:A4:4E:1D:E2:50:4F:78:BC:74:6A:EF:94:C0:A5:78:28:A6:BE
            X509v3 Authority Key Identifier: 
                E8:B6:F6:76:4B:D0:3B:E5:46:A5:F9:54:D4:7E:07:B3:DE:0D:60:3E
            Authority Information Access: 
                OCSP - URI:http://ca.someca-inc.com/ocsp
                CA Issuers - URI:http://ca.someca-inc.com/root
            X509v3 Subject Alternative Name: 
                email:joao.gilberto@example.org
            X509v3 Certificate Policies: 
                Policy: 2.23.140.1.5.4.1
            X509v3 CRL Distribution Points: 
                Full Name:
                  URI:http://ca.someca-inc.com/crl
    Signature Algorithm: sha256WithRSAEncryption
    Signature Value:
        83:83:ae:dd:73:9a:6c:82:63:d9:fd:2e:d4:f2:2a:5f:a0:75:
        ed:0d:8a:b1:1f:f4:cb:b1:5a:ef:a1:9e:c1:64:4b:1d:b8:cd:
        97:01:1a:6d:d7:27:13:7e:b4:55:8f:b1:36:87:18:19:26:5b:
        91:6c:b6:74:b6:db:3b:16:00:c9:4a:8f:29:40:62:1d:45:52:
        5e:48:a2:d1:93:ec:0a:9d:9e:fa:16:58:f8:85:8f:c3:61:4d:
        30:72:ae:ca:64:0d:dd:26:52:74:71:ed:d9:7a:73:e5:43:4b:
        4e:0f:91:00:4a:61:4a:7a:2a:e6:31:90:2f:2a:f6:8e:bb:09:
        0f:99:c0:61:b4:2c:4d:b6:86:1e:0f:18:b6:90:74:13:51:16:
        b3:d3:e3:a4:25:0e:05:8a:c0:7f:6b:df:b2:29:2a:d1:84:59:
        0f:fb:2d:36:7f:85:43:4d:b1:09:eb:f4:32:a8:8c:7e:e4:33:
        6f:bb:3f:fb:1c:46:18:e1:08:68:0a:ef:ad:1e:a6:c0:35:a0:
        d5:79:a9:c5:23:2a:70:39:d3:a8:ae:90:06:50:99:d2:6a:b5:
        99:ce:7a:93:0e:57:d5:9e:c6:5d:20:77:d8:2b:2a:8e:9e:73:
        6f:82:2e:2b:47:9d:e7:c7:40:a6:a7:fe:d2:01:82:c2:40:df:
        c1:ae:36:9b:42:9f:f8:17:58:00:e9:e2:ba:77:36:c4:33:b9:
        be:8d:80:17:47:2d:8c:92:fb:57:ee:32:7e:41:d4:ea:ec:dd:
        83:2b:25:02:6b:28:67:15:5e:c1:71:38:14:40:84:02:75:e1:
        01:49:77:c7:83:6c:3e:e3:dd:61:41:cc:10:ee:98:b4:cd:14:
        40:51:1a:02:44:ea:b1:94:0e:ae:55:fd:20:84:0d:b2:c2:73:
        48:f2:a1:87:9a:99:9d:f9:f9:c8:3c:db:f4:17:ae:42:8e:0d:
        a1:99:94:14:8b:c8:d9:d6:68:97:9f:3a:40:fd:a8:a1:89:fc:
        80:7b:82:b6:e8:65:0e:57:b7:36:ca:12:fe:8f:91:f7:48:e9:
        b0:1b:10:87:ce:be:bc:28:3f:2e:aa:5d:76:40:91:30:5e:f7:
        ec:62:01:8f:70:ef:eb:8b:45:86:40:77:33:cb:60:29:f8:27:
        29:03:7d:9a:e9:06:26:7f:e8:91:b0:f3:99:42:26:7c:73:54:
        8b:f4:1c:3c:61:3a:2f:5d:45:2e:ae:50:8d:85:ca:b9:7c:73:
        25:a0:0f:eb:c5:cd:a0:60:48:f3:90:f0:21:4b:1d:61:ce:d7:
        13:57:46:c7:88:2d:4d:a7:fc:2e:e7:99:28:e1:ca:4e:5d:3b:
        66:a6:bb:58:02:09:5f:d2
-----BEGIN CERTIFICATE-----
MIIFXjCCA0agAwIBAgIQVgP6FUOOtx0d6Ls7E6LN6jANBgkqhkiG9w0BAQsFADBD
MQswCQYDVQQGEwJYWDEQMA4GA1UEChMHU29tZSBDQTEiMCAGA1UEAxMZRmFrZSBD
QSBmb3IgWmxpbnQgdGVzdGluZzAeFw0yNTA1MjkxMjExNDlaFw0yNjA1MjkxMjEx
NDlaMEsxCzAJBgNVBAYTAkJSMQ4wDAYDVQQIEwVCYWhpYTERMA8GA1UEBxMISnVh
emVpcm8xGTAXBgNVBAMMEEpvw4PCo28gR2lsYmVydG8wggEiMA0GCSqGSIb3DQEB
AQUAA4IBDwAwggEKAoIBAQDX0S6PT2bMmW8ut8i3UkIZt5qrsNYJCwkpUqY6Pc//
Bed9QRw0L5lt4CYanp8tEIugdtmBsLFc+8HAWh59zeS57CPcqWTclLshYS9zW2XY
49EW9J9gzHP8oAoVDJChekzGZaR1jE+MHsI+yyyxX0iwxWjyVBM2f0diBEOv2X/w
iTGXuG8fRY/wy9pIkiKEKomsydS7EmjIef2PeMnmInygs0db9mFrhx19DmjvjKFI
xqKOY1hO7vOGsiOCeL0KD4YFu/1C+svDkyzPjTA8a/G1NRr1G+F92TstTchLQEGp
AHGGYz5pxr4OEHjAUXr0lV59qCQALlF1usUBRPay0459AgMBAAGjggFEMIIBQDAO
BgNVHQ8BAf8EBAMCBaAwHQYDVR0lBBYwFAYIKwYBBQUHAwIGCCsGAQUFBwMEMB0G
A1UdDgQWBBRjv6ROHeJQT3i8dGrvlMCleCimvjAfBgNVHSMEGDAWgBTotvZ2S9A7
5Ual+VTUfgez3g1gPjBkBggrBgEFBQcBAQRYMFYwKQYIKwYBBQUHMAGGHWh0dHA6
Ly9jYS5zb21lY2EtaW5jLmNvbS9vY3NwMCkGCCsGAQUFBzAChh1odHRwOi8vY2Eu
c29tZWNhLWluYy5jb20vcm9vdDAkBgNVHREEHTAbgRlqb2FvLmdpbGJlcnRvQGV4
YW1wbGUub3JnMBQGA1UdIAQNMAswCQYHZ4EMAQUEATAtBgNVHR8EJjAkMCKgIKAe
hhxodHRwOi8vY2Euc29tZWNhLWluYy5jb20vY3JsMA0GCSqGSIb3DQEBCwUAA4IC
AQCDg67dc5psgmPZ/S7U8ipfoHXtDYqxH/TLsVrvoZ7BZEsduM2XARpt1ycTfrRV
j7E2hxgZJluRbLZ0tts7FgDJSo8pQGIdRVJeSKLRk+wKnZ76Flj4hY/DYU0wcq7K
ZA3dJlJ0ce3ZenPlQ0tOD5EASmFKeirmMZAvKvaOuwkPmcBhtCxNtoYeDxi2kHQT
URaz0+OkJQ4FisB/a9+yKSrRhFkP+y02f4VDTbEJ6/QyqIx+5DNvuz/7HEYY4Qho
Cu+tHqbANaDVeanFIypwOdOorpAGUJnSarWZznqTDlfVnsZdIHfYKyqOnnNvgi4r
R53nx0Cmp/7SAYLCQN/BrjabQp/4F1gA6eK6dzbEM7m+jYAXRy2MkvtX7jJ+QdTq
7N2DKyUCayhnFV7BcTgUQIQCdeEBSXfHg2w+491hQcwQ7pi0zRRAURoCROqxlA6u
Vf0ghA2ywnNI8qGHmpmd+fnIPNv0F65Cjg2hmZQUi8jZ1miXnzpA/aihifyAe4K2
6GUOV7c2yhL+j5H3SOmwGxCHzr68KD8uql12QJEwXvfsYgGPcO/ri0WGQHczy2Ap
+CcpA32a6QYmf+iRsPOZQiZ8c1SL9Bw8YTovXUUurlCNhcq5fHMloA/rxc2gYEjz
kPAhSx1hztcTV0bHiC1Np/wu55ko4cpOXTtmprtYAglf0g==
-----END CERTIFICATE-----
