Certificate:
    Data:
        Version: 3 (0x2)
        Serial Number: 3 (0x3)
        Signature Algorithm: ecdsa-with-SHA256
        Issuer: 
        Validity
            Not Before: Jul  1 00:00:00 2012 GMT
            Not After : Nov 30 00:00:00 9998 GMT
        Subject: L = California:
        Subject Public Key Info:
            Public Key Algorithm: id-ecPublicKey
                Public-Key: (256 bit)
                pub:
                    04:8f:1a:ce:2b:89:49:06:9c:72:89:19:22:ca:1f:
                    46:de:60:49:ca:e0:78:69:f3:af:52:8c:d3:4b:95:
                    74:75:ed:b3:20:6d:94:8f:b7:a4:4c:6b:e6:ad:19:
                    bc:b2:50:38:55:29:91:bc:40:ed:54:74:84:ed:94:
                    e2:2b:df:69:03
                ASN1 OID: prime256v1
                NIST CURVE: P-256
    Signature Algorithm: ecdsa-with-SHA256
    Signature Value:
        30:44:02:20:0e:41:a0:a1:8e:97:30:77:ca:e0:da:0d:63:40:
        b8:1b:7c:1a:93:28:2f:13:70:cb:49:64:52:9a:27:36:82:56:
        02:20:62:cd:37:ca:1f:f1:42:d7:a4:de:62:db:5e:f2:34:b7:
        4f:33:cf:31:ee:06:4a:35:b9:f0:91:0d:b4:02:81:e9
-----BEGIN CERTIFICATE-----
MIIBBzCBr6ADAgECAgEDMAoGCCqGSM49BAMCMAAwIBcNMTIwNzAxMDAwMDAwWhgP
OTk5ODExMzAwMDAwMDBaMBYxFDASBgNVBAcTC0NhbGlmb3JuaWE6MFkwEwYHKoZI
zj0CAQYIKoZIzj0DAQcDQgAEjxrOK4lJBpxyiRkiyh9G3mBJyuB4afOvUozTS5V0
de2zIG2Uj7ekTGvmrRm8slA4VSmRvEDtVHSE7ZTiK99pA6MCMAAwCgYIKoZIzj0E
AwIDRwAwRAIgDkGgoY6XMHfK4NoNY0C4G3wakygvE3DLSWRSmic2glYCIGLNN8of
8ULXpN5i217yNLdPM88x7gZKNbnwkQ20AoHp
-----END CERTIFICATE-----
