Certificate:
    Data:
        Version: 3 (0x2)
        Serial Number: 3 (0x3)
        Signature Algorithm: ecdsa-with-SHA256
        Issuer: 
        Validity
            Not Before: Jul  1 00:00:00 2012 GMT
            Not After : Nov 30 00:00:00 9998 GMT
        Subject: L = California=
        Subject Public Key Info:
            Public Key Algorithm: id-ecPublicKey
                Public-Key: (256 bit)
                pub:
                    04:86:4f:f8:82:cb:69:a5:e3:25:93:40:95:2b:eb:
                    e8:e0:59:cf:3d:a0:34:a0:3d:7c:c7:bd:9f:62:63:
                    32:af:f7:ea:e3:ff:85:b4:60:e7:12:8f:98:3d:c7:
                    53:3b:15:92:18:ca:15:b3:1f:b5:1b:b4:eb:13:e8:
                    8a:98:ce:17:d5
                ASN1 OID: prime256v1
                NIST CURVE: P-256
    Signature Algorithm: ecdsa-with-SHA256
    Signature Value:
        30:46:02:21:00:e2:c2:d0:6d:38:b0:1d:52:25:00:5f:c1:7d:
        d0:a4:e9:b5:0c:79:ac:0b:48:86:63:51:b3:af:65:4b:bd:0e:
        08:02:21:00:f4:72:62:ad:db:f4:2b:7a:fc:7d:59:58:55:77:
        62:e3:d2:f6:ee:11:44:6b:46:a8:cc:c9:4e:64:82:02:dc:48
-----BEGIN CERTIFICATE-----
MIIBCTCBr6ADAgECAgEDMAoGCCqGSM49BAMCMAAwIBcNMTIwNzAxMDAwMDAwWhgP
OTk5ODExMzAwMDAwMDBaMBYxFDASBgNVBAcTC0NhbGlmb3JuaWE9MFkwEwYHKoZI
zj0CAQYIKoZIzj0DAQcDQgAEhk/4gstppeMlk0CVK+vo4FnPPaA0oD18x72fYmMy
r/fq4/+FtGDnEo+YPcdTOxWSGMoVsx+1G7TrE+iKmM4X1aMCMAAwCgYIKoZIzj0E
AwIDSQAwRgIhAOLC0G04sB1SJQBfwX3QpOm1DHmsC0iGY1Gzr2VLvQ4IAiEA9HJi
rdv0K3r8fVlYVXdi49L27hFEa0aozMlOZIIC3Eg=
-----END CERTIFICATE-----
