Certificate:
    Data:
        Version: 3 (0x2)
        Serial Number: 3 (0x3)
        Signature Algorithm: ecdsa-with-SHA256
        Issuer: 
        Validity
            Not Before: Jul  1 00:00:00 2012 GMT
            Not After : Nov 30 00:00:00 9998 GMT
        Subject: L = California
        Subject Public Key Info:
            Public Key Algorithm: id-ecPublicKey
                Public-Key: (256 bit)
                pub:
                    04:b6:27:0e:6d:c2:f0:59:0e:9b:51:9d:83:21:b6:
                    a6:7a:e6:4e:3f:c4:18:2b:2b:79:dc:23:6a:10:13:
                    7f:53:67:ad:8c:93:94:50:69:02:4d:ec:bb:73:a3:
                    65:da:61:c2:03:8d:b0:4e:6f:05:94:0d:ad:46:be:
                    0a:5a:c0:a5:94
                ASN1 OID: prime256v1
                NIST CURVE: P-256
    Signature Algorithm: ecdsa-with-SHA256
    Signature Value:
        30:44:02:20:44:6e:03:6a:5e:17:ae:3a:67:26:27:82:dd:e8:
        13:f5:59:59:18:f8:e6:81:f4:bf:5a:f5:62:73:73:2c:90:b0:
        02:20:35:e3:eb:22:3a:82:a0:22:4f:8c:88:d9:18:c5:bc:93:
        b5:d3:b0:8e:08:ba:1a:96:53:7f:6a:41:44:fc:25:6e
-----BEGIN CERTIFICATE-----
MIIBBjCBrqADAgECAgEDMAoGCCqGSM49BAMCMAAwIBcNMTIwNzAxMDAwMDAwWhgP
OTk5ODExMzAwMDAwMDBaMBUxEzARBgNVBAcTCkNhbGlmb3JuaWEwWTATBgcqhkjO
PQIBBggqhkjOPQMBBwNCAAS2Jw5twvBZDptRnYMhtqZ65k4/xBgrK3ncI2oQE39T
Z62Mk5RQaQJN7Ltzo2XaYcIDjbBObwWUDa1GvgpawKWUowIwADAKBggqhkjOPQQD
AgNHADBEAiBEbgNqXheuOmcmJ4Ld6BP1WVkY+OaB9L9a9WJzcyyQsAIgNePrIjqC
oCJPjIjZGMW8k7XTsI4IuhqWU39qQUT8JW4=
-----END CERTIFICATE-----
