Certificate:
    Data:
        Version: 3 (0x2)
        Serial Number: 3 (0x3)
        Signature Algorithm: ecdsa-with-SHA256
        Issuer: 
        Validity
            Not Before: Jul  1 00:00:00 2012 GMT
            Not After : Nov 30 00:00:00 9998 GMT
        Subject: L = California{
        Subject Public Key Info:
            Public Key Algorithm: id-ecPublicKey
                Public-Key: (256 bit)
                pub:
                    04:e7:4d:bc:c6:5e:db:51:cb:83:c4:b1:0c:9b:14:
                    00:e3:50:b4:44:c1:8f:12:7d:37:58:ad:50:d1:06:
                    56:d3:3c:c8:0e:5d:44:0a:72:dd:78:bd:d6:80:e5:
                    87:6e:a5:5b:4b:bb:33:78:50:f1:e1:fd:df:23:9f:
                    ad:ec:b7:a2:fa
                ASN1 OID: prime256v1
                NIST CURVE: P-256
    Signature Algorithm: ecdsa-with-SHA256
    Signature Value:
        30:45:02:21:00:df:65:bd:c3:5f:3d:9b:f4:4f:58:22:80:05:
        d3:b6:b3:b1:1c:66:c3:97:e8:e6:7b:81:d3:3d:bd:13:55:f1:
        92:02:20:02:bf:e8:a6:9b:db:de:1e:34:35:8c:cc:ad:dc:4b:
        a3:d0:0c:86:b3:f5:57:af:60:b4:ce:36:b3:d1:dc:65:ac
-----BEGIN CERTIFICATE-----
MIIBCDCBr6ADAgECAgEDMAoGCCqGSM49BAMCMAAwIBcNMTIwNzAxMDAwMDAwWhgP
OTk5ODExMzAwMDAwMDBaMBYxFDASBgNVBAcMC0NhbGlmb3JuaWF7MFkwEwYHKoZI
zj0CAQYIKoZIzj0DAQcDQgAE5028xl7bUcuDxLEMmxQA41C0RMGPEn03WK1Q0QZW
0zzIDl1ECnLdeL3WgOWHbqVbS7szeFDx4f3fI5+t7Lei+qMCMAAwCgYIKoZIzj0E
AwIDSAAwRQIhAN9lvcNfPZv0T1gigAXTtrOxHGbDl+jme4HTPb0TVfGSAiACv+im
m9veHjQ1jMyt3Euj0AyGs/VXr2C0zjaz0dxlrA==
-----END CERTIFICATE-----
