Certificate:
    Data:
        Version: 3 (0x2)
        Serial Number: 3 (0x3)
        Signature Algorithm: ecdsa-with-SHA256
        Issuer: 
        Validity
            Not Before: May  2 00:00:00 2023 GMT
            Not After : Nov 30 00:00:00 9998 GMT
        Subject: CN = brains@tracyisland.com
        Subject Public Key Info:
            Public Key Algorithm: id-ecPublicKey
                Public-Key: (256 bit)
                pub:
                    04:ae:c3:b8:71:e1:ea:7f:8e:e7:0f:9a:f5:e0:98:
                    cd:a8:f3:d9:13:4d:fb:1d:1b:37:2b:56:83:5c:5c:
                    de:77:60:f4:f7:05:59:59:38:d3:ff:64:17:e5:da:
                    ef:51:03:20:81:b9:32:00:b2:6f:b6:34:6d:f8:00:
                    a0:ff:0f:eb:03
                ASN1 OID: prime256v1
                NIST CURVE: P-256
        X509v3 extensions:
            X509v3 Certificate Policies: 
                Policy: 2.23.140.1.5.1.1

    Signature Algorithm: ecdsa-with-SHA256
         30:46:02:21:00:d4:34:07:e7:93:dc:44:6b:45:cd:8e:33:fa:
         6b:68:8c:76:ff:bf:f0:69:ca:26:e3:a2:a8:4f:fd:d2:29:4a:
         13:02:21:00:ad:28:cf:d7:ca:7f:a4:91:7c:ca:c3:c9:2d:fe:
         7f:cc:6d:27:c5:3d:31:f6:26:70:69:da:67:bc:9a:98:c6:24
-----BEGIN CERTIFICATE-----
MIIBKjCB0KADAgECAgEDMAoGCCqGSM49BAMCMAAwIBcNMjMwNTAyMDAwMDAwWhgP
OTk5ODExMzAwMDAwMDBaMCExHzAdBgNVBAMMFmJyYWluc0B0cmFjeWlzbGFuZC5j
b20wWTATBgcqhkjOPQIBBggqhkjOPQMBBwNCAASuw7hx4ep/jucPmvXgmM2o89kT
TfsdGzcrVoNcXN53YPT3BVlZONP/ZBfl2u9RAyCBuTIAsm+2NG34AKD/D+sDoxgw
FjAUBgNVHSAEDTALMAkGB2eBDAEFAQEwCgYIKoZIzj0EAwIDSQAwRgIhANQ0B+eT
3ERrRc2OM/praIx2/7/wacom46KoT/3SKUoTAiEArSjP18p/pJF8ysPJLf5/zG0n
xT0x9iZwadpnvJqYxiQ=
-----END CERTIFICATE-----