Certificate:
    Data:
        Version: 3 (0x2)
        Serial Number: 3 (0x3)
        Signature Algorithm: ecdsa-with-SHA256
        Issuer: 
        Validity
            Not Before: Sep  2 00:00:00 2023 GMT
            Not After : Nov 30 00:00:00 9998 GMT
        Subject: CN = brains@tracyisland.com, C = GB
        Subject Public Key Info:
            Public Key Algorithm: id-ecPublicKey
                Public-Key: (256 bit)
                pub:
                    04:99:f1:eb:ed:36:18:ff:2e:50:10:94:be:88:77:
                    a6:a9:7b:f9:86:36:24:89:df:88:98:ac:ff:87:75:
                    c7:af:8e:92:8d:7e:50:54:be:52:f1:48:fc:14:74:
                    e3:3b:16:0f:0b:28:47:55:cd:86:15:33:8e:52:ec:
                    17:1b:38:89:ae
                ASN1 OID: prime256v1
                NIST CURVE: P-256
        X509v3 extensions:
            X509v3 Certificate Policies: 
                Policy: 2.23.140.1.5.1.1

    Signature Algorithm: ecdsa-with-SHA256
         30:46:02:21:00:ef:63:18:62:1f:82:9e:09:92:fb:62:9f:ef:
         00:57:62:9a:6f:c7:4b:4b:f5:af:3b:e5:a7:71:83:88:3b:7f:
         2f:02:21:00:8d:5e:bb:f2:92:15:8d:55:82:89:c2:1d:c9:48:
         97:54:69:af:05:84:cc:f5:54:c3:09:90:1b:b7:97:47:b6:84
-----BEGIN CERTIFICATE-----
MIIBNzCB3aADAgECAgEDMAoGCCqGSM49BAMCMAAwIBcNMjMwOTAyMDAwMDAwWhgP
OTk5ODExMzAwMDAwMDBaMC4xHzAdBgNVBAMMFmJyYWluc0B0cmFjeWlzbGFuZC5j
b20xCzAJBgNVBAYTAkdCMFkwEwYHKoZIzj0CAQYIKoZIzj0DAQcDQgAEmfHr7TYY
/y5QEJS+iHemqXv5hjYkid+ImKz/h3XHr46SjX5QVL5S8Uj8FHTjOxYPCyhHVc2G
FTOOUuwXGziJrqMYMBYwFAYDVR0gBA0wCzAJBgdngQwBBQEBMAoGCCqGSM49BAMC
A0kAMEYCIQDvYxhiH4KeCZL7Yp/vAFdimm/HS0v1rzvlp3GDiDt/LwIhAI1eu/KS
FY1VgonCHclIl1RprwWEzPVUwwmQG7eXR7aE
-----END CERTIFICATE-----