Certificate:
    Data:
        Version: 3 (0x2)
        Serial Number: 3 (0x3)
        Signature Algorithm: ecdsa-with-SHA256
        Issuer: 
        Validity
            Not Before: Sep  2 00:00:00 2023 GMT
            Not After : Nov 30 00:00:00 9998 GMT
        Subject: serialNumber = TB1
        Subject Public Key Info:
            Public Key Algorithm: id-ecPublicKey
                Public-Key: (256 bit)
                pub:
                    04:bf:44:7a:aa:50:08:e6:c7:62:a4:49:91:a7:8b:
                    d8:1b:9a:4d:66:97:e4:04:4a:7b:21:e9:17:37:b8:
                    7b:02:14:49:1b:c1:18:3c:00:43:96:e6:51:91:fd:
                    97:d2:48:6b:fe:f7:12:05:c6:ab:cc:1e:20:69:4b:
                    33:e8:e0:a7:5b
                ASN1 OID: prime256v1
                NIST CURVE: P-256
        X509v3 extensions:
            X509v3 Certificate Policies: 
                Policy: 2.23.140.1.5.1.3

    Signature Algorithm: ecdsa-with-SHA256
         30:46:02:21:00:ad:cc:61:50:2c:cc:ce:bd:48:32:ec:ad:77:
         77:40:22:4d:c5:4f:5d:e0:ac:67:61:db:08:a5:85:69:b9:9a:
         ad:02:21:00:bb:9e:84:6c:d3:61:01:b8:b4:55:96:74:b1:54:
         37:29:c3:51:17:bb:e5:e8:90:4a:5f:6c:82:77:56:4f:e4:ea
-----BEGIN CERTIFICATE-----
MIIBFzCBvaADAgECAgEDMAoGCCqGSM49BAMCMAAwIBcNMjMwOTAyMDAwMDAwWhgP
OTk5ODExMzAwMDAwMDBaMA4xDDAKBgNVBAUTA1RCMTBZMBMGByqGSM49AgEGCCqG
SM49AwEHA0IABL9EeqpQCObHYqRJkaeL2BuaTWaX5ARKeyHpFze4ewIUSRvBGDwA
Q5bmUZH9l9JIa/73EgXGq8weIGlLM+jgp1ujGDAWMBQGA1UdIAQNMAswCQYHZ4EM
AQUBAzAKBggqhkjOPQQDAgNJADBGAiEArcxhUCzMzr1IMuytd3dAIk3FT13grGdh
2wilhWm5mq0CIQC7noRs02EBuLRVlnSxVDcpw1EXu+XokEpfbIJ3Vk/k6g==
-----END CERTIFICATE-----