Certificate:
    Data:
        Version: 3 (0x2)
        Serial Number: 3 (0x3)
        Signature Algorithm: ecdsa-with-SHA256
        Issuer: 
        Validity
            Not Before: Sep  2 00:00:00 2023 GMT
            Not After : Nov 30 00:00:00 9998 GMT
        Subject: emailAddress = 
        Subject Public Key Info:
            Public Key Algorithm: id-ecPublicKey
                Public-Key: (256 bit)
                pub:
                    04:e1:e8:dd:0e:89:86:c5:31:ed:7a:55:81:b8:30:
                    2d:cb:13:88:ff:6b:00:74:56:41:6d:a9:54:bf:fa:
                    8a:24:6d:a8:45:80:14:04:e9:29:c4:aa:62:9c:4d:
                    06:73:3c:77:29:bc:09:d4:3a:ef:9b:47:4b:23:23:
                    61:b4:bc:7e:94
                ASN1 OID: prime256v1
                NIST CURVE: P-256
        X509v3 extensions:
            X509v3 Certificate Policies: 
                Policy: 2.23.140.1.5.1.2

    Signature Algorithm: ecdsa-with-SHA256
         30:45:02:20:4c:03:07:aa:61:61:3e:a7:43:5d:60:f2:e1:99:
         49:24:43:42:80:d6:32:bc:17:cf:86:60:63:26:89:93:85:00:
         02:21:00:9d:4e:d4:37:71:bd:8e:ae:95:7c:60:42:64:b1:73:
         ba:67:8d:56:0f:2c:d3:ca:52:ac:59:77:e4:40:04:71:53
-----BEGIN CERTIFICATE-----
MIIBGTCBwKADAgECAgEDMAoGCCqGSM49BAMCMAAwIBcNMjMwOTAyMDAwMDAwWhgP
OTk5ODExMzAwMDAwMDBaMBExDzANBgkqhkiG9w0BCQETADBZMBMGByqGSM49AgEG
CCqGSM49AwEHA0IABOHo3Q6JhsUx7XpVgbgwLcsTiP9rAHRWQW2pVL/6iiRtqEWA
FATpKcSqYpxNBnM8dym8CdQ675tHSyMjYbS8fpSjGDAWMBQGA1UdIAQNMAswCQYH
Z4EMAQUBAjAKBggqhkjOPQQDAgNIADBFAiBMAweqYWE+p0NdYPLhmUkkQ0KA1jK8
F8+GYGMmiZOFAAIhAJ1O1DdxvY6ulXxgQmSxc7pnjVYPLNPKUqxZd+RABHFT
-----END CERTIFICATE-----