Certificate:
    Data:
        Version: 3 (0x2)
        Serial Number: 3 (0x3)
        Signature Algorithm: ecdsa-with-SHA256
        Issuer: 
        Validity
            Not Before: Sep  2 00:00:00 2023 GMT
            Not After : Nov 30 00:00:00 9998 GMT
        Subject: CN = brains@tracyisland.com
        Subject Public Key Info:
            Public Key Algorithm: id-ecPublicKey
                Public-Key: (256 bit)
                pub:
                    04:8c:b9:d4:53:05:fc:2d:f5:4b:77:63:d7:2c:bf:
                    fc:d9:a0:d7:68:6f:ce:3c:6a:5a:1a:bb:f1:a4:3a:
                    ea:ad:e6:bc:90:ea:a4:70:b8:1f:3c:da:02:c6:7d:
                    6e:b2:93:8b:8f:4b:b2:ed:20:94:6e:6e:59:35:fc:
                    bc:31:7f:75:bc
                ASN1 OID: prime256v1
                NIST CURVE: P-256
        X509v3 extensions:
            X509v3 Certificate Policies: 
                Policy: 2.23.140.1.5.1.1

    Signature Algorithm: ecdsa-with-SHA256
         30:45:02:21:00:e4:9b:da:66:53:b2:f0:52:71:69:da:16:79:
         09:04:12:dc:79:5b:0c:35:b6:df:46:2a:37:0b:c3:1b:15:8c:
         e2:02:20:61:6e:98:a7:3a:b5:bd:32:05:aa:ee:df:fb:20:3a:
         5e:a0:67:4f:6f:fe:ad:f8:2c:b2:53:05:9a:e7:c2:21:62
-----BEGIN CERTIFICATE-----
MIIBKTCB0KADAgECAgEDMAoGCCqGSM49BAMCMAAwIBcNMjMwOTAyMDAwMDAwWhgP
OTk5ODExMzAwMDAwMDBaMCExHzAdBgNVBAMMFmJyYWluc0B0cmFjeWlzbGFuZC5j
b20wWTATBgcqhkjOPQIBBggqhkjOPQMBBwNCAASMudRTBfwt9Ut3Y9csv/zZoNdo
b848aloau/GkOuqt5ryQ6qRwuB882gLGfW6yk4uPS7LtIJRublk1/Lwxf3W8oxgw
FjAUBgNVHSAEDTALMAkGB2eBDAEFAQEwCgYIKoZIzj0EAwIDSAAwRQIhAOSb2mZT
svBScWnaFnkJBBLceVsMNbbfRio3C8MbFYziAiBhbpinOrW9MgWq7t/7IDpeoGdP
b/6t+CyyUwWa58IhYg==
-----END CERTIFICATE-----