Certificate:
    Data:
        Version: 3 (0x2)
        Serial Number: 3 (0x3)
        Signature Algorithm: ecdsa-with-SHA256
        Issuer: 
        Validity
            Not Before: Sep  2 00:00:00 2023 GMT
            Not After : Nov 30 00:00:00 9998 GMT
        Subject: 
        Subject Public Key Info:
            Public Key Algorithm: id-ecPublicKey
                Public-Key: (256 bit)
                pub:
                    04:a1:f6:b3:a1:64:29:f0:ea:65:65:bd:7d:aa:4d:
                    e0:d2:5b:d1:2e:7b:4d:7c:54:d9:15:5c:20:f8:3b:
                    08:9e:cd:dd:fc:74:06:c0:88:fe:07:79:32:f4:92:
                    80:80:dd:9a:f3:80:e6:7b:97:41:56:22:23:05:17:
                    85:5f:9b:be:17
                ASN1 OID: prime256v1
                NIST CURVE: P-256
        X509v3 extensions:
            X509v3 Certificate Policies: 
                Policy: 2.23.140.1.5.1.2

    Signature Algorithm: ecdsa-with-SHA256
         30:45:02:21:00:a0:87:b2:b3:b1:16:18:66:eb:2b:ad:e1:7d:
         b9:8d:d8:b0:e1:99:3b:89:72:de:58:0b:c6:85:2c:3e:33:d9:
         40:02:20:65:6c:60:33:aa:2e:cf:8c:73:2f:5a:3d:10:68:01:
         1e:5e:bd:6a:34:9b:46:cc:53:b9:46:5a:8a:80:ae:b4:d1
-----BEGIN CERTIFICATE-----
MIIBCDCBr6ADAgECAgEDMAoGCCqGSM49BAMCMAAwIBcNMjMwOTAyMDAwMDAwWhgP
OTk5ODExMzAwMDAwMDBaMAAwWTATBgcqhkjOPQIBBggqhkjOPQMBBwNCAASh9rOh
ZCnw6mVlvX2qTeDSW9Eue018VNkVXCD4Owiezd38dAbAiP4HeTL0koCA3ZrzgOZ7
l0FWIiMFF4Vfm74XoxgwFjAUBgNVHSAEDTALMAkGB2eBDAEFAQIwCgYIKoZIzj0E
AwIDSAAwRQIhAKCHsrOxFhhm6yut4X25jdiw4Zk7iXLeWAvGhSw+M9lAAiBlbGAz
qi7PjHMvWj0QaAEeXr1qNJtGzFO5RlqKgK600Q==
-----END CERTIFICATE-----