Certificate:
    Data:
        Version: 3 (0x2)
        Serial Number: 3 (0x3)
        Signature Algorithm: ecdsa-with-SHA256
        Issuer: 
        Validity
            Not Before: Sep  2 00:00:00 2023 GMT
            Not After : Nov 30 00:00:00 9998 GMT
        Subject: emailAddress = brains@tracyisland.com
        Subject Public Key Info:
            Public Key Algorithm: id-ecPublicKey
                Public-Key: (256 bit)
                pub:
                    04:16:fd:e0:d9:5f:ee:fc:ba:4c:45:1c:d3:b8:fb:
                    60:e5:44:d2:8a:ca:f4:6d:9d:61:b3:d4:37:8c:c9:
                    06:1e:fb:b8:5a:7c:1a:2e:99:2f:18:4f:34:9f:0c:
                    51:87:21:91:b7:e7:e3:16:cf:fc:10:2e:66:d0:6d:
                    32:68:d5:e3:92
                ASN1 OID: prime256v1
                NIST CURVE: P-256
        X509v3 extensions:
            X509v3 Certificate Policies: 
                Policy: 2.23.140.1.5.1.3

    Signature Algorithm: ecdsa-with-SHA256
         30:46:02:21:00:eb:7f:0f:95:3b:70:ab:0b:7f:de:c5:cf:01:
         4e:2f:71:1c:2d:a0:d8:66:9d:80:9b:41:3e:82:cd:1f:a4:15:
         a0:02:21:00:f2:31:1e:39:16:24:b5:a8:67:a9:5a:3a:c0:b3:
         22:07:ff:99:47:7e:d9:89:5e:0b:db:ba:72:29:f0:a7:7d:ad
-----BEGIN CERTIFICATE-----
MIIBMDCB1qADAgECAgEDMAoGCCqGSM49BAMCMAAwIBcNMjMwOTAyMDAwMDAwWhgP
OTk5ODExMzAwMDAwMDBaMCcxJTAjBgkqhkiG9w0BCQEMFmJyYWluc0B0cmFjeWlz
bGFuZC5jb20wWTATBgcqhkjOPQIBBggqhkjOPQMBBwNCAAQW/eDZX+78ukxFHNO4
+2DlRNKKyvRtnWGz1DeMyQYe+7hafBoumS8YTzSfDFGHIZG35+MWz/wQLmbQbTJo
1eOSoxgwFjAUBgNVHSAEDTALMAkGB2eBDAEFAQMwCgYIKoZIzj0EAwIDSQAwRgIh
AOt/D5U7cKsLf97FzwFOL3EcLaDYZp2Am0E+gs0fpBWgAiEA8jEeORYktahnqVo6
wLMiB/+ZR37ZiV4L27pyKfCnfa0=
-----END CERTIFICATE-----