Certificate:
    Data:
        Version: 3 (0x2)
        Serial Number: 3 (0x3)
        Signature Algorithm: ecdsa-with-SHA256
        Issuer: CN = Lint CA, O = Lint, C = DE
        Validity
            Not Before: Feb 18 00:00:00 2025 GMT
            Not After : Feb 18 00:00:00 2028 GMT
        Subject: CN = test
        Subject Public Key Info:
            Public Key Algorithm: id-ecPublicKey
                Public-Key: (256 bit)
                pub:
                    04:6e:07:0f:87:2b:05:44:4c:49:e5:ba:1d:48:8b:
                    72:77:82:33:d4:cc:d6:44:ad:e5:4c:06:dd:2a:1d:
                    00:66:be:37:82:d5:26:a4:1a:ca:04:e0:04:04:6b:
                    b7:54:f6:7c:be:b3:cd:f8:33:3c:45:95:42:d8:c0:
                    f6:30:d7:97:6a
                ASN1 OID: prime256v1
                NIST CURVE: P-256
        X509v3 extensions:
            X509v3 Extended Key Usage:
                TLS Web Server Authentication
            qcStatements:
                0.0......F..0......F..0......F...
            X509v3 Certificate Policies: critical
                Policy: 0.4.0.194112.1.1
    Signature Algorithm: ecdsa-with-SHA256
    Signature Value:
        30:45:02:20:27:3c:f9:cb:df:f0:cb:7c:d8:58:72:29:3b:54:
        01:0f:72:4e:97:b1:1f:ae:41:2f:0b:ae:7f:0c:76:6d:35:cf:
        02:21:00:e0:fb:aa:de:6b:c5:a6:1c:a2:76:74:af:e9:6e:4d:
        05:db:85:60:48:56:66:b5:61:1a:55:ed:51:09:0a:ca:20
-----BEGIN CERTIFICATE-----
MIIBizCCATGgAwIBAgIBAzAKBggqhkjOPQQDAjAuMRAwDgYDVQQDEwdMaW50IENB
MQ0wCwYDVQQKEwRMaW50MQswCQYDVQQGEwJERTAeFw0yNTAyMTgwMDAwMDBaFw0y
ODAyMTgwMDAwMDBaMA8xDTALBgNVBAMTBHRlc3QwWTATBgcqhkjOPQIBBggqhkjO
PQMBBwNCAARuBw+HKwVETEnluh1Ii3J3gjPUzNZEreVMBt0qHQBmvjeC1SakGsoE
4AQEa7dU9ny+s834MzxFlULYwPYw15dqo18wXTATBgNVHSUEDDAKBggrBgEFBQcD
ATAtBggrBgEFBQcBAwQhMB8wCAYGBACORgEBMBMGBgQAjkYBBjAJBgcEAI5GAQYC
MBcGA1UdIAEB/wQNMAswCQYHBACL7EABATAKBggqhkjOPQQDAgNIADBFAiAnPPnL
3/DLfNhYcik7VAEPck6XsR+uQS8Lrn8Mdm01zwIhAOD7qt5rxaYconZ0r+luTQXb
hWBIVma1YRpV7VEJCsog
-----END CERTIFICATE-----