Certificate:
    Data:
        Version: 3 (0x2)
        Serial Number:
            0a:06:30:42:7f:5b:bc:ed:69:57:39:65:93:b6:45:1f
        Signature Algorithm: sha256WithRSAEncryption
        Issuer: C = US, O = DigiCert Inc, OU = www.digicert.com, CN = DigiCert SHA2 Extended Validation Server CA
        Validity
            Not Before: May  8 00:00:00 2018 GMT
            Not After : Jun  3 12:00:00 2020 GMT
        Subject: businessCategory = Private Organization, jurisdictionC = US, jurisdictionST = Delaware, serialNumber = 5157550, C = US, ST = California, L = San Francisco, O = "GitHub, Inc.", CN = github.com
        Subject Public Key Info:
            Public Key Algorithm: rsaEncryption
                RSA Public-Key: (2048 bit)
                Modulus:
                    00:c6:3c:aa:f2:3c:97:0c:3a:c1:4f:28:ad:72:70:
                    7d:d3:ce:b9:b5:60:73:a4:74:9b:8a:77:46:fd:7a:
                    98:42:4c:c5:30:19:57:9a:a9:33:0b:e1:5d:4d:10:
                    58:ca:77:99:c3:93:f3:f9:75:90:bc:bf:bb:e0:95:
                    ba:2e:c5:8d:73:61:05:d3:10:84:a8:b3:89:b8:2f:
                    73:8c:f0:2a:6e:be:ee:ae:83:4b:82:11:b1:61:fd:
                    77:61:da:9b:1b:9a:23:ff:8c:7e:a2:01:06:dd:d1:
                    7f:53:96:08:c1:5a:fa:e7:c0:ca:c8:44:8c:57:a7:
                    a8:61:5f:66:0d:57:d3:b8:96:ac:b6:4a:9c:c1:ea:
                    e8:fb:96:40:29:f6:15:30:b5:04:b0:cc:05:b6:84:
                    c3:24:59:95:7f:a2:65:90:e5:b0:b3:1a:75:59:c4:
                    3f:31:14:0a:d5:cc:aa:3a:85:05:52:06:32:96:07:
                    61:df:27:82:0c:f7:85:db:60:31:f0:09:50:c5:b7:
                    1a:23:e1:b0:7d:02:f5:14:1e:c9:cb:e8:7e:2a:33:
                    04:f6:51:3f:52:98:15:e9:0b:76:47:5c:4d:4a:6b:
                    c5:08:15:ae:f8:d1:57:e9:ea:70:14:ff:c9:45:b9:
                    0c:7c:bc:f4:6d:e6:05:52:f9:8c:80:bb:70:56:91:
                    0f:4b
                Exponent: 65537 (0x10001)
        X509v3 extensions:
            X509v3 Authority Key Identifier: 
                keyid:3D:D3:50:A5:D6:A0:AD:EE:F3:4A:60:0A:65:D3:21:D4:F8:F8:D6:0F

            X509v3 Subject Key Identifier: 
                C9:C2:53:61:66:9D:5F:AB:25:F4:26:CD:0F:38:9A:A8:49:EA:48:A9
            X509v3 Subject Alternative Name: 
                DNS:github.com, DNS:www.github.com
            X509v3 Key Usage: critical
                Digital Signature, Key Encipherment
            X509v3 Extended Key Usage: 
                TLS Web Server Authentication, TLS Web Client Authentication
            X509v3 CRL Distribution Points: 

                Full Name:
                  URI:http://crl3.digicert.com/sha2-ev-server-g2.crl

                Full Name:
                  URI:http://crl4.digicert.com/sha2-ev-server-g2.crl

            X509v3 Certificate Policies: 
                Policy: 2.16.840.1.114412.2.1
                  CPS: https://www.digicert.com/CPS
                Policy: 2.23.140.1.1

            Authority Information Access: 
                OCSP - URI:http://ocsp.digicert.com
                CA Issuers - URI:http://cacerts.digicert.com/DigiCertSHA2ExtendedValidationServerCA.crt

            X509v3 Basic Constraints: critical
                CA:FALSE
            CT Precertificate SCTs: 
                Signed Certificate Timestamp:
                    Version   : v1 (0x0)
                    Log ID    : A4:B9:09:90:B4:18:58:14:87:BB:13:A2:CC:67:70:0A:
                                3C:35:98:04:F9:1B:DF:B8:E3:77:CD:0E:C8:0D:DC:10
                    Timestamp : May  8 20:12:39.562 2018 GMT
                    Extensions: none
                    Signature : ecdsa-with-SHA256
                                30:45:02:21:00:D1:66:9D:FC:71:35:AC:58:7D:86:74:
                                1A:5E:FE:E3:D3:5A:7B:2E:FE:6E:01:10:2D:BE:74:87:
                                2F:4B:29:19:62:02:20:08:FE:60:1A:FE:B2:CD:A6:B3:
                                C4:12:B6:37:01:9D:9A:6C:AE:10:53:52:83:6A:40:45:
                                B3:09:95:41:60:53:95
                Signed Certificate Timestamp:
                    Version   : v1 (0x0)
                    Log ID    : 56:14:06:9A:2F:D7:C2:EC:D3:F5:E1:BD:44:B2:3E:C7:
                                46:76:B9:BC:99:11:5C:C0:EF:94:98:55:D6:89:D0:DD
                    Timestamp : May  8 20:12:39.597 2018 GMT
                    Extensions: none
                    Signature : ecdsa-with-SHA256
                                30:45:02:21:00:A2:EE:89:94:BD:82:E6:D1:BD:8B:A1:
                                BB:44:79:10:18:9E:52:28:EE:7E:89:C5:B6:1D:AE:D6:
                                1D:98:F5:16:25:02:20:56:0C:35:01:9E:75:BC:AF:44:
                                36:29:C1:83:6D:85:3F:16:FC:D9:3B:CD:0C:ED:39:4F:
                                5E:E1:C5:74:42:D8:86
                Signed Certificate Timestamp:
                    Version   : v1 (0x0)
                    Log ID    : BB:D9:DF:BC:1F:8A:71:B5:93:94:23:97:AA:92:7B:47:
                                38:57:95:0A:AB:52:E8:1A:90:96:64:36:8E:1E:D1:85
                    Timestamp : May  8 20:12:39.775 2018 GMT
                    Extensions: none
                    Signature : ecdsa-with-SHA256
                                30:45:02:21:00:A1:CD:D4:CA:51:4D:8D:F9:77:2A:70:
                                AD:0E:25:8A:CD:F0:46:32:9E:5A:15:C6:1A:38:C8:F9:
                                3A:0E:AD:C4:3E:02:20:74:D1:F9:BB:CA:C2:DD:47:2C:
                                95:05:78:07:DA:34:6B:4C:36:D3:8A:26:0D:11:06:29:
                                35:6E:12:9C:46:78:E4
    Signature Algorithm: sha256WithRSAEncryption
         70:0f:5a:96:a7:58:e5:bf:8a:9d:a8:27:98:2b:00:7f:26:a9:
         07:da:ba:7b:82:54:4f:af:69:cf:bc:f2:59:03:2b:f2:d5:74:
         58:25:d8:1e:a4:20:76:62:60:29:73:2a:d7:dc:cc:6f:77:85:
         6b:ca:6d:24:f8:35:13:47:3f:d2:e2:69:0a:9d:34:2d:7b:7b:
         9b:cd:1e:75:d5:50:6c:3e:cb:1c:a3:30:b1:aa:92:07:a9:3a:
         76:76:45:bd:78:91:c4:ce:1a:9e:22:e4:0b:89:ba:e6:8c:c1:
         79:82:a3:b8:d4:c0:fc:1f:2d:ed:4d:52:55:41:2a:a8:3a:2c:
         ad:07:72:ae:0a:d2:c6:67:c4:4f:07:17:18:99:f7:65:a9:57:
         60:15:5a:34:4c:11:cf:f6:cf:6b:21:36:80:ef:c6:f1:54:63:
         26:35:39:ee:bb:c4:83:64:9b:24:0a:73:ec:a0:48:16:73:c8:
         b9:d7:48:55:56:98:7a:f7:bb:97:5c:69:a4:06:18:04:78:da:
         fe:98:76:be:22:2f:7f:07:77:87:4e:88:19:9a:f8:55:ec:5c:
         12:2a:59:48:db:49:3e:15:5e:67:5a:a2:5e:ee:cc:53:28:8c:
         0e:33:93:14:03:64:0b:c5:e5:78:09:94:01:5a:75:fc:92:9d:
         af:ed:7a:29
-----BEGIN CERTIFICATE-----
MIIHQjCCBiqgAwIBAgIQCgYwQn9bvO1pVzllk7ZFHzANBgkqhkiG9w0BAQsFADB1
MQswCQYDVQQGEwJVUzEVMBMGA1UEChMMRGlnaUNlcnQgSW5jMRkwFwYDVQQLExB3
d3cuZGlnaWNlcnQuY29tMTQwMgYDVQQDEytEaWdpQ2VydCBTSEEyIEV4dGVuZGVk
IFZhbGlkYXRpb24gU2VydmVyIENBMB4XDTE4MDUwODAwMDAwMFoXDTIwMDYwMzEy
MDAwMFowgccxHTAbBgNVBA8MFFByaXZhdGUgT3JnYW5pemF0aW9uMRMwEQYLKwYB
BAGCNzwCAQMTAlVTMRkwFwYLKwYBBAGCNzwCAQITCERlbGF3YXJlMRAwDgYDVQQF
Ewc1MTU3NTUwMQswCQYDVQQGEwJVUzETMBEGA1UECBMKQ2FsaWZvcm5pYTEWMBQG
A1UEBxMNU2FuIEZyYW5jaXNjbzEVMBMGA1UEChMMR2l0SHViLCBJbmMuMRMwEQYD
VQQDEwpnaXRodWIuY29tMIIBIjANBgkqhkiG9w0BAQEFAAOCAQ8AMIIBCgKCAQEA
xjyq8jyXDDrBTyitcnB90865tWBzpHSbindG/XqYQkzFMBlXmqkzC+FdTRBYyneZ
w5Pz+XWQvL+74JW6LsWNc2EF0xCEqLOJuC9zjPAqbr7uroNLghGxYf13YdqbG5oj
/4x+ogEG3dF/U5YIwVr658DKyESMV6eoYV9mDVfTuJastkqcwero+5ZAKfYVMLUE
sMwFtoTDJFmVf6JlkOWwsxp1WcQ/MRQK1cyqOoUFUgYylgdh3yeCDPeF22Ax8AlQ
xbcaI+GwfQL1FB7Jy+h+KjME9lE/UpgV6Qt2R1xNSmvFCBWu+NFX6epwFP/JRbkM
fLz0beYFUvmMgLtwVpEPSwIDAQABo4IDeTCCA3UwHwYDVR0jBBgwFoAUPdNQpdag
re7zSmAKZdMh1Pj41g8wHQYDVR0OBBYEFMnCU2FmnV+rJfQmzQ84mqhJ6kipMCUG
A1UdEQQeMByCCmdpdGh1Yi5jb22CDnd3dy5naXRodWIuY29tMA4GA1UdDwEB/wQE
AwIFoDAdBgNVHSUEFjAUBggrBgEFBQcDAQYIKwYBBQUHAwIwdQYDVR0fBG4wbDA0
oDKgMIYuaHR0cDovL2NybDMuZGlnaWNlcnQuY29tL3NoYTItZXYtc2VydmVyLWcy
LmNybDA0oDKgMIYuaHR0cDovL2NybDQuZGlnaWNlcnQuY29tL3NoYTItZXYtc2Vy
dmVyLWcyLmNybDBLBgNVHSAERDBCMDcGCWCGSAGG/WwCATAqMCgGCCsGAQUFBwIB
FhxodHRwczovL3d3dy5kaWdpY2VydC5jb20vQ1BTMAcGBWeBDAEBMIGIBggrBgEF
BQcBAQR8MHowJAYIKwYBBQUHMAGGGGh0dHA6Ly9vY3NwLmRpZ2ljZXJ0LmNvbTBS
BggrBgEFBQcwAoZGaHR0cDovL2NhY2VydHMuZGlnaWNlcnQuY29tL0RpZ2lDZXJ0
U0hBMkV4dGVuZGVkVmFsaWRhdGlvblNlcnZlckNBLmNydDAMBgNVHRMBAf8EAjAA
MIIBfgYKKwYBBAHWeQIEAgSCAW4EggFqAWgAdgCkuQmQtBhYFIe7E6LMZ3AKPDWY
BPkb37jjd80OyA3cEAAAAWNBYm0KAAAEAwBHMEUCIQDRZp38cTWsWH2GdBpe/uPT
Wnsu/m4BEC2+dIcvSykZYgIgCP5gGv6yzaazxBK2NwGdmmyuEFNSg2pARbMJlUFg
U5UAdgBWFAaaL9fC7NP14b1Esj7HRna5vJkRXMDvlJhV1onQ3QAAAWNBYm0tAAAE
AwBHMEUCIQCi7omUvYLm0b2LobtEeRAYnlIo7n6JxbYdrtYdmPUWJQIgVgw1AZ51
vK9ENinBg22FPxb82TvNDO05T17hxXRC2IYAdgC72d+8H4pxtZOUI5eqkntHOFeV
CqtS6BqQlmQ2jh7RhQAAAWNBYm3fAAAEAwBHMEUCIQChzdTKUU2N+XcqcK0OJYrN
8EYynloVxho4yPk6Dq3EPgIgdNH5u8rC3UcslQV4B9o0a0w204omDREGKTVuEpxG
eOQwDQYJKoZIhvcNAQELBQADggEBAHAPWpanWOW/ip2oJ5grAH8mqQfaunuCVE+v
ac+88lkDK/LVdFgl2B6kIHZiYClzKtfczG93hWvKbST4NRNHP9LiaQqdNC17e5vN
HnXVUGw+yxyjMLGqkgepOnZ2Rb14kcTOGp4i5AuJuuaMwXmCo7jUwPwfLe1NUlVB
Kqg6LK0Hcq4K0sZnxE8HFxiZ92WpV2AVWjRMEc/2z2shNoDvxvFUYyY1Oe67xINk
myQKc+ygSBZzyLnXSFVWmHr3u5dcaaQGGAR42v6Ydr4iL38Hd4dOiBma+FXsXBIq
WUjbST4VXmdaol7uzFMojA4zkxQDZAvF5XgJlAFadfySna/teik=
-----END CERTIFICATE-----
