Certificate:
    Data:
        Version: 3 (0x2)
        Serial Number:
            0c:ac:8e:2d:a5:3c:1c:06:16:8c:17:b6:58:1f:2d:1b:7d:68:f1:1b
        Signature Algorithm: sha256WithRSAEncryption
        Issuer: C = US, ST = California, L = San Francisco, O = Bogus Inc., OU = Operations, CN = keyexp1.example.com
        Validity
            Not Before: Oct  4 15:00:38 2019 GMT
            Not After : Oct  3 15:00:38 2021 GMT
        Subject: C = US, ST = California, L = San Francisco, O = Bogus Inc., OU = Operations, CN = keyexp1.example.com
        Subject Public Key Info:
            Public Key Algorithm: rsaEncryption
                RSA Public-Key: (2048 bit)
                Modulus:
                    00:f1:3d:ab:73:90:30:53:5f:21:04:ce:e7:50:d4:
                    3e:cc:99:80:ff:9f:9a:50:a2:d5:e5:f5:e9:d7:e6:
                    c7:5c:0a:ee:eb:bd:a7:02:46:f6:88:67:c6:bf:3c:
                    dc:43:bb:72:8c:dc:31:fb:a8:68:6d:8c:b4:92:3d:
                    f5:a0:27:4b:91:8b:ba:f6:e5:21:72:e2:ea:bc:9f:
                    4f:ee:1d:61:94:a0:16:ee:d6:c7:fe:06:c7:2b:e8:
                    84:bd:24:d4:77:dc:49:b3:05:3e:41:ac:04:22:13:
                    83:25:f7:c9:21:b9:4d:85:e7:5d:c8:e9:bb:e2:75:
                    55:4e:43:6a:9d:7c:c8:33:e1:4c:1a:f8:96:3e:22:
                    d3:e5:71:99:70:e0:04:25:86:fb:2a:7c:39:a7:ec:
                    84:c3:ce:1c:d0:cb:10:e3:ee:64:23:01:2b:61:1f:
                    4b:ed:f9:4d:07:f8:ae:54:89:89:b3:27:51:cd:26:
                    b4:52:9a:b7:c6:4d:28:4f:47:a0:a8:12:e5:6f:03:
                    aa:87:2e:b7:6a:e2:e2:6b:9f:b3:6f:f2:ea:07:bb:
                    6d:16:2d:fd:d4:54:c2:e7:e3:63:ac:02:2a:fe:2c:
                    44:df:8d:99:28:5f:e2:99:f3:a3:ae:88:d3:a4:1a:
                    5b:af:af:2b:f0:07:67:7e:f1:bd:2f:05:4f:ed:3e:
                    14:e9
                Exponent: 1 (0x1)
        X509v3 extensions:
            X509v3 Subject Key Identifier: 
                35:79:4B:73:AE:58:5E:58:79:49:B3:EC:A6:C2:B3:61:A3:5D:C3:79
            X509v3 Authority Key Identifier: 
                keyid:35:79:4B:73:AE:58:5E:58:79:49:B3:EC:A6:C2:B3:61:A3:5D:C3:79

            X509v3 Basic Constraints: critical
                CA:TRUE
    Signature Algorithm: sha256WithRSAEncryption
         00:01:ff:ff:ff:ff:ff:ff:ff:ff:ff:ff:ff:ff:ff:ff:ff:ff:
         ff:ff:ff:ff:ff:ff:ff:ff:ff:ff:ff:ff:ff:ff:ff:ff:ff:ff:
         ff:ff:ff:ff:ff:ff:ff:ff:ff:ff:ff:ff:ff:ff:ff:ff:ff:ff:
         ff:ff:ff:ff:ff:ff:ff:ff:ff:ff:ff:ff:ff:ff:ff:ff:ff:ff:
         ff:ff:ff:ff:ff:ff:ff:ff:ff:ff:ff:ff:ff:ff:ff:ff:ff:ff:
         ff:ff:ff:ff:ff:ff:ff:ff:ff:ff:ff:ff:ff:ff:ff:ff:ff:ff:
         ff:ff:ff:ff:ff:ff:ff:ff:ff:ff:ff:ff:ff:ff:ff:ff:ff:ff:
         ff:ff:ff:ff:ff:ff:ff:ff:ff:ff:ff:ff:ff:ff:ff:ff:ff:ff:
         ff:ff:ff:ff:ff:ff:ff:ff:ff:ff:ff:ff:ff:ff:ff:ff:ff:ff:
         ff:ff:ff:ff:ff:ff:ff:ff:ff:ff:ff:ff:ff:ff:ff:ff:ff:ff:
         ff:ff:ff:ff:ff:ff:ff:ff:ff:ff:ff:ff:ff:ff:ff:ff:ff:ff:
         ff:ff:ff:ff:ff:ff:00:30:31:30:0d:06:09:60:86:48:01:65:
         03:04:02:01:05:00:04:20:67:8a:58:54:31:63:a3:83:5d:38:
         da:1e:a6:1e:c3:8e:b6:7a:c6:7d:23:6c:59:f9:78:9c:5d:07:
         d0:e6:73:12
-----BEGIN CERTIFICATE-----
MIID5TCCAs2gAwIBAgIUDKyOLaU8HAYWjBe2WB8tG31o8RswDQYJKoZIhvcNAQEL
BQAwgYIxCzAJBgNVBAYTAlVTMRMwEQYDVQQIDApDYWxpZm9ybmlhMRYwFAYDVQQH
DA1TYW4gRnJhbmNpc2NvMRMwEQYDVQQKDApCb2d1cyBJbmMuMRMwEQYDVQQLDApP
cGVyYXRpb25zMRwwGgYDVQQDDBNrZXlleHAxLmV4YW1wbGUuY29tMB4XDTE5MTAw
NDE1MDAzOFoXDTIxMTAwMzE1MDAzOFowgYIxCzAJBgNVBAYTAlVTMRMwEQYDVQQI
DApDYWxpZm9ybmlhMRYwFAYDVQQHDA1TYW4gRnJhbmNpc2NvMRMwEQYDVQQKDApC
b2d1cyBJbmMuMRMwEQYDVQQLDApPcGVyYXRpb25zMRwwGgYDVQQDDBNrZXlleHAx
LmV4YW1wbGUuY29tMIIBIDANBgkqhkiG9w0BAQEFAAOCAQ0AMIIBCAKCAQEA8T2r
c5AwU18hBM7nUNQ+zJmA/5+aUKLV5fXp1+bHXAru672nAkb2iGfGvzzcQ7tyjNwx
+6hobYy0kj31oCdLkYu69uUhcuLqvJ9P7h1hlKAW7tbH/gbHK+iEvSTUd9xJswU+
QawEIhODJffJIblNheddyOm74nVVTkNqnXzIM+FMGviWPiLT5XGZcOAEJYb7Knw5
p+yEw84c0MsQ4+5kIwErYR9L7flNB/iuVImJsydRzSa0Upq3xk0oT0egqBLlbwOq
hy63auLia5+zb/LqB7ttFi391FTC5+NjrAIq/ixE342ZKF/imfOjrojTpBpbr68r
8AdnfvG9LwVP7T4U6QIBAaNTMFEwHQYDVR0OBBYEFDV5S3OuWF5YeUmz7KbCs2Gj
XcN5MB8GA1UdIwQYMBaAFDV5S3OuWF5YeUmz7KbCs2GjXcN5MA8GA1UdEwEB/wQF
MAMBAf8wDQYJKoZIhvcNAQELBQADggEBAAAB////////////////////////////
////////////////////////////////////////////////////////////////
////////////////////////////////////////////////////////////////
////////////////////////////////////////////////////////////////
/////////////////////////////////////////////////wAwMTANBglghkgB
ZQMEAgEFAAQgZ4pYVDFjo4NdONoeph7DjrZ6xn0jbFn5eJxdB9DmcxI=
-----END CERTIFICATE-----
