Certificate:
    Data:
        Version: 3 (0x2)
        Serial Number: 4811 (0x12cb)
        Signature Algorithm: sha256WithRSAEncryption
        Issuer: C=DE, ST=Bayern, L=N\xC3\x83\xC2\xBCrnberg, O=Siemens AG, OU=Trustcenter, CN=OliverCA/emailAddress=oliver.stiller@siemens.com
        Validity
            Not Before: Jan 11 16:49:14 2021 GMT
            Not After : Jan 11 16:49:14 2022 GMT
        Subject: O=testconstraints23, CN=testconstraints23
        Subject Public Key Info:
            Public Key Algorithm: rsaEncryption
                RSA Public-Key: (2048 bit)
                Modulus:
                    00:cf:e7:05:41:73:62:d7:80:00:23:85:cf:d8:df:
                    88:bf:26:f7:b9:9a:48:5d:e3:40:9f:7c:fd:b0:dd:
                    dc:03:89:30:6f:79:63:b7:6c:37:56:97:b1:28:9e:
                    ed:10:2f:ac:5f:a1:92:a8:41:9f:32:23:74:72:34:
                    3c:ee:0f:53:71:21:67:9c:77:a7:e3:d4:05:c7:71:
                    de:b1:f6:ab:fb:7f:64:d2:f0:52:47:c3:21:a5:a4:
                    bd:9c:58:cb:76:83:9d:37:9f:96:4a:66:15:26:92:
                    97:68:a0:73:4b:0e:ed:25:64:80:cb:54:b5:1e:3f:
                    c8:98:7c:93:14:bb:5e:e3:b6:f4:49:17:9c:03:69:
                    5e:37:a6:e8:b6:bf:b3:86:dc:11:5c:63:63:20:07:
                    37:27:ee:3d:8f:f6:00:79:c3:90:9f:42:4d:33:90:
                    43:01:ad:41:4d:b0:cf:78:a0:01:9e:2c:74:56:87:
                    21:10:fa:3d:62:31:b1:6f:8c:09:50:22:2e:f6:f5:
                    69:64:67:7e:c7:65:21:aa:bd:c2:3f:49:0e:8e:30:
                    ae:eb:c4:93:a0:60:8d:ac:f3:33:af:f4:89:57:7a:
                    c0:53:97:8b:05:06:77:8c:4b:84:ce:a5:ff:a9:b6:
                    69:2e:57:5b:2b:96:4d:10:4c:0f:b1:cd:f9:bc:27:
                    26:4d
                Exponent: 65537 (0x10001)
        X509v3 extensions:
            X509v3 Extended Key Usage: 
                Any Extended Key Usage, TLS Web Server Authentication
            X509v3 Key Usage: 
                Digital Signature, Key Encipherment
            X509v3 Name Constraints: 
                Permitted:
                  URI:example3
                  URI:example4
                Excluded:
                  URI:example
                  URI:example2

    Signature Algorithm: sha256WithRSAEncryption
         42:14:a7:bf:cb:73:91:6b:a0:c0:fa:e5:e4:27:4f:95:8d:56:
         9d:f4:77:ed:04:e9:d7:09:b8:4b:dc:e7:56:ee:92:df:ed:8a:
         63:ef:51:47:85:f4:b8:e6:15:70:e8:87:73:fa:cf:08:7e:7a:
         c0:ce:e3:b1:b4:b1:8b:fd:6a:11:22:47:8f:b2:e0:63:d6:4a:
         b8:84:ec:b6:3e:24:af:22:4f:c5:b0:f7:92:99:cc:88:dd:52:
         95:b4:b3:06:8b:80:e5:19:2f:8c:93:83:f8:6d:cf:47:81:d7:
         e1:5f:89:ec:a9:da:2c:23:27:c4:24:1f:ec:7d:e9:46:d6:cb:
         10:cc:08:80:51:92:15:b4:df:15:ad:5c:16:dc:c0:e1:17:4a:
         27:7f:49:e1:59:0c:1e:34:5d:bb:07:11:8d:e4:74:9d:a1:80:
         67:78:4e:a0:e6:01:f1:41:4c:a4:8c:58:3b:48:de:73:48:f4:
         3b:a3:2a:3d:c5:e6:8c:18:ea:c1:f5:7c:b5:3a:f3:3d:76:ec:
         3f:9e:c4:6c:29:d4:fd:9c:ab:e4:45:a0:b9:eb:ca:da:0e:78:
         a2:91:93:e4:57:df:f0:c1:b2:9a:3d:1b:37:38:a0:58:91:05:
         d7:88:92:da:7b:24:4b:ca:27:a8:ac:e0:e8:85:ea:ac:e5:09:
         4e:9c:2e:c3:19:ba:1d:c1:16:f6:7c:41:2e:6a:db:62:02:74:
         22:30:6e:8f:dd:2b:f6:16:7a:ba:64:5d:06:c1:92:1e:19:9b:
         4d:09:47:b3:de:d1:d2:9e:6d:db:40:16:e1:03:23:5b:fe:c9:
         55:e1:8f:5a:60:81:3b:08:06:0c:1f:bd:00:1b:ae:c5:82:88:
         17:5e:8f:74:00:83:5d:78:ee:f5:d2:da:0d:f6:2c:ac:c8:82:
         69:51:a7:03:66:c0:50:6e:94:c5:e1:02:4c:b3:87:ad:4c:78:
         63:aa:1d:41:f2:c8:09:8d:76:f2:74:28:f3:ec:94:29:4c:a9:
         c1:aa:cf:84:ae:67:f7:f8:7e:79:f2:2c:f3:b9:37:36:65:aa:
         84:18:15:90:fe:32:1c:5f:1e:28:90:81:9d:3d:cc:64:26:8a:
         0e:86:3a:25:ae:36:d3:c6:ec:e2:1f:a3:11:2a:02:50:30:06:
         b7:d1:a5:39:21:69:83:b1:9e:ff:20:0b:50:a8:12:68:70:2e:
         3f:80:2f:04:82:f2:cc:32:e8:35:a7:4d:2b:e0:02:4f:32:38:
         41:74:03:46:60:60:81:ae:62:19:59:c7:99:88:4a:27:8e:3e:
         49:d4:2f:ec:ae:1b:8e:36:b5:71:fd:c7:9d:e9:24:e1:2a:ab:
         03:94:4e:28:8f:5b:14:eb
-----BEGIN CERTIFICATE-----
MIIEujCCAqKgAwIBAgICEsswDQYJKoZIhvcNAQELBQAwgZ0xCzAJBgNVBAYTAkRF
MQ8wDQYDVQQIDAZCYXllcm4xFDASBgNVBAcMC07Dg8K8cm5iZXJnMRMwEQYDVQQK
DApTaWVtZW5zIEFHMRQwEgYDVQQLDAtUcnVzdGNlbnRlcjERMA8GA1UEAwwIT2xp
dmVyQ0ExKTAnBgkqhkiG9w0BCQEWGm9saXZlci5zdGlsbGVyQHNpZW1lbnMuY29t
MB4XDTIxMDExMTE2NDkxNFoXDTIyMDExMTE2NDkxNFowODEaMBgGA1UECgwRdGVz
dGNvbnN0cmFpbnRzMjMxGjAYBgNVBAMMEXRlc3Rjb25zdHJhaW50czIzMIIBIjAN
BgkqhkiG9w0BAQEFAAOCAQ8AMIIBCgKCAQEAz+cFQXNi14AAI4XP2N+Ivyb3uZpI
XeNAn3z9sN3cA4kwb3ljt2w3VpexKJ7tEC+sX6GSqEGfMiN0cjQ87g9TcSFnnHen
49QFx3Hesfar+39k0vBSR8MhpaS9nFjLdoOdN5+WSmYVJpKXaKBzSw7tJWSAy1S1
Hj/ImHyTFLte47b0SRecA2leN6botr+zhtwRXGNjIAc3J+49j/YAecOQn0JNM5BD
Aa1BTbDPeKABnix0VochEPo9YjGxb4wJUCIu9vVpZGd+x2Uhqr3CP0kOjjCu68ST
oGCNrPMzr/SJV3rAU5eLBQZ3jEuEzqX/qbZpLldbK5ZNEEwPsc35vCcmTQIDAQAB
o2gwZjAZBgNVHSUEEjAQBgRVHSUABggrBgEFBQcDATALBgNVHQ8EBAMCBaAwPAYD
VR0eBDUwM6AYMAqGCGV4YW1wbGUzMAqGCGV4YW1wbGU0oRcwCYYHZXhhbXBsZTAK
hghleGFtcGxlMjANBgkqhkiG9w0BAQsFAAOCAgEAQhSnv8tzkWugwPrl5CdPlY1W
nfR37QTp1wm4S9znVu6S3+2KY+9RR4X0uOYVcOiHc/rPCH56wM7jsbSxi/1qESJH
j7LgY9ZKuITstj4kryJPxbD3kpnMiN1SlbSzBouA5RkvjJOD+G3PR4HX4V+J7Kna
LCMnxCQf7H3pRtbLEMwIgFGSFbTfFa1cFtzA4RdKJ39J4VkMHjRduwcRjeR0naGA
Z3hOoOYB8UFMpIxYO0jec0j0O6MqPcXmjBjqwfV8tTrzPXbsP57EbCnU/Zyr5EWg
uevK2g54opGT5Fff8MGymj0bNzigWJEF14iS2nskS8onqKzg6IXqrOUJTpwuwxm6
HcEW9nxBLmrbYgJ0IjBuj90r9hZ6umRdBsGSHhmbTQlHs97R0p5t20AW4QMjW/7J
VeGPWmCBOwgGDB+9ABuuxYKIF16PdACDXXju9dLaDfYsrMiCaVGnA2bAUG6UxeEC
TLOHrUx4Y6odQfLICY128nQo8+yUKUypwarPhK5n9/h+efIs87k3NmWqhBgVkP4y
HF8eKJCBnT3MZCaKDoY6Ja4208bs4h+jESoCUDAGt9GlOSFpg7Ge/yALUKgSaHAu
P4AvBILyzDLoNadNK+ACTzI4QXQDRmBgga5iGVnHmYhKJ44+SdQv7K4bjja1cf3H
nekk4SqrA5ROKI9bFOs=
-----END CERTIFICATE-----
