Certificate:
    Data:
        Version: 3 (0x2)
        Serial Number: 4810 (0x12ca)
        Signature Algorithm: sha256WithRSAEncryption
        Issuer: C=DE, ST=Bayern, L=N\xC3\x83\xC2\xBCrnberg, O=Siemens AG, OU=Trustcenter, CN=OliverCA/emailAddress=oliver.stiller@siemens.com
        Validity
            Not Before: Jan 11 16:48:40 2021 GMT
            Not After : Jan 11 16:48:40 2022 GMT
        Subject: O=testconstraints20, CN=testconstraints20
        Subject Public Key Info:
            Public Key Algorithm: rsaEncryption
                RSA Public-Key: (2048 bit)
                Modulus:
                    00:e3:21:d9:f8:12:f4:46:f6:24:ad:ba:87:d9:6d:
                    3f:c5:9b:b3:e0:e7:20:93:a0:ca:34:6d:e2:f0:d1:
                    60:98:2f:3c:5b:d4:fe:7a:3e:e3:45:32:51:60:5a:
                    aa:32:d0:e5:52:55:f2:a7:4d:fd:2d:3c:c6:44:66:
                    28:82:30:2e:56:04:8e:29:9f:f5:d7:a3:1d:51:50:
                    2d:60:0b:4a:16:a0:65:26:13:53:ed:50:71:e2:8d:
                    ff:35:99:80:9e:fa:6b:01:61:e3:e3:d6:a2:64:a5:
                    70:cd:4c:9c:5b:60:d0:47:db:9e:ed:fd:52:97:55:
                    a6:ba:7a:f9:22:1a:ff:46:2e:46:65:1d:45:a2:b6:
                    59:ca:c4:f6:59:39:bb:d6:35:8f:8a:77:d4:9e:f4:
                    d2:2a:19:3d:81:78:a2:df:50:0a:fd:91:a1:51:74:
                    8e:87:27:e6:0c:8f:ee:e3:cd:9b:05:e9:04:18:fb:
                    42:25:c6:03:40:06:1d:b1:fb:f0:41:d1:e2:b0:85:
                    25:81:33:b0:b8:3d:31:e5:47:97:6e:78:62:b0:3e:
                    7f:5d:13:48:7c:d1:71:81:ec:34:3d:38:95:81:5b:
                    d0:53:87:66:0b:a7:16:52:5c:3f:6e:eb:cc:3d:41:
                    81:93:56:00:7f:63:39:43:1c:76:ff:75:4c:d7:13:
                    a2:2b
                Exponent: 65537 (0x10001)
        X509v3 extensions:
            X509v3 Extended Key Usage: 
                Any Extended Key Usage, TLS Web Server Authentication
            X509v3 Key Usage: 
                Digital Signature, Key Encipherment
            X509v3 Name Constraints: 
                Permitted:
                  URI:example
                Excluded:
                  URI:wrongHost
                  URI:.example
                  URI:wrongHost2

    Signature Algorithm: sha256WithRSAEncryption
         4d:dc:8e:2b:71:57:e7:a0:13:2d:5e:a1:6b:5a:b4:ad:27:a1:
         17:35:55:46:63:44:17:fa:03:2e:9e:de:9d:83:2d:72:e7:17:
         6b:92:78:5f:ae:d6:64:84:55:60:70:70:77:24:7a:b0:d5:db:
         c6:e5:c6:c7:09:07:50:e1:12:6a:c1:90:97:37:ff:2a:22:33:
         8b:22:1b:a2:e2:47:12:a3:b6:ac:63:14:e8:86:c1:d5:ba:8a:
         0d:1b:25:3b:6d:a2:6b:0c:9a:e4:1b:21:61:3d:28:0c:83:48:
         9d:a9:59:d2:6b:35:99:9a:c3:99:a2:f7:2c:cf:e7:e6:bb:09:
         9f:e9:9a:f1:43:c3:15:54:e9:7b:16:a3:c5:5d:a2:aa:4e:9e:
         91:b0:64:a9:d2:07:1c:8d:91:fd:0d:a4:9f:8d:de:db:32:ff:
         66:17:65:47:e5:1f:d5:c8:34:17:d4:73:1f:dd:94:de:40:db:
         ff:1f:2f:dc:8f:29:13:01:6a:dc:da:93:7c:d8:9f:1f:9e:70:
         e2:fc:31:95:7d:99:95:e0:2e:dd:18:5b:f5:14:7c:c7:45:83:
         7d:fd:07:3e:77:e1:cc:82:d6:cd:16:cd:31:f3:67:c1:9a:df:
         ad:ca:99:7a:2d:08:4b:e1:e1:00:1b:d8:e9:27:cb:c4:5c:b4:
         bb:4d:25:ec:9a:53:7a:51:46:21:b3:3e:1a:d7:be:bd:2b:96:
         0b:e0:c5:d8:09:30:4d:9d:e6:6c:80:e9:1f:fc:92:b3:30:5c:
         25:b8:6e:e7:9f:65:32:9a:98:2e:1f:84:ba:f8:7e:1a:ed:c2:
         71:83:df:9a:b4:25:c9:b8:a9:b2:ee:e8:bc:a0:dc:61:91:d9:
         a7:66:1a:82:b5:84:64:58:b9:23:d0:df:26:bc:e7:e2:1b:7c:
         19:ca:d2:20:58:9f:19:ed:e1:0c:c8:d7:50:1f:0e:95:00:a0:
         79:35:e3:e1:7d:8b:28:33:23:e8:c8:64:50:d4:0c:b4:98:37:
         62:f7:0a:1a:a0:ca:e8:88:4e:72:87:5d:d5:46:a7:11:02:4c:
         96:0e:16:52:16:49:e8:cf:82:3f:a4:1a:82:39:66:fc:16:77:
         b5:6f:c4:20:e2:31:64:cb:9b:10:dd:80:cd:2c:9f:a0:9b:7b:
         ae:a8:8e:12:1a:d8:7f:99:70:ee:b5:56:b9:81:62:fb:d6:8e:
         66:56:c7:72:f1:36:be:a8:65:c6:bc:01:2b:ab:bb:13:a5:3b:
         53:c5:63:58:25:0c:b3:16:9f:f7:4e:d4:cf:e2:e5:a0:94:e9:
         ce:3a:03:45:d8:23:14:9d:b6:75:b2:5d:2a:ff:55:2d:aa:de:
         ed:7e:76:1b:d1:e3:89:82
-----BEGIN CERTIFICATE-----
MIIEvTCCAqWgAwIBAgICEsowDQYJKoZIhvcNAQELBQAwgZ0xCzAJBgNVBAYTAkRF
MQ8wDQYDVQQIDAZCYXllcm4xFDASBgNVBAcMC07Dg8K8cm5iZXJnMRMwEQYDVQQK
DApTaWVtZW5zIEFHMRQwEgYDVQQLDAtUcnVzdGNlbnRlcjERMA8GA1UEAwwIT2xp
dmVyQ0ExKTAnBgkqhkiG9w0BCQEWGm9saXZlci5zdGlsbGVyQHNpZW1lbnMuY29t
MB4XDTIxMDExMTE2NDg0MFoXDTIyMDExMTE2NDg0MFowODEaMBgGA1UECgwRdGVz
dGNvbnN0cmFpbnRzMjAxGjAYBgNVBAMMEXRlc3Rjb25zdHJhaW50czIwMIIBIjAN
BgkqhkiG9w0BAQEFAAOCAQ8AMIIBCgKCAQEA4yHZ+BL0RvYkrbqH2W0/xZuz4Ocg
k6DKNG3i8NFgmC88W9T+ej7jRTJRYFqqMtDlUlXyp039LTzGRGYogjAuVgSOKZ/1
16MdUVAtYAtKFqBlJhNT7VBx4o3/NZmAnvprAWHj49aiZKVwzUycW2DQR9ue7f1S
l1Wmunr5Ihr/Ri5GZR1ForZZysT2WTm71jWPinfUnvTSKhk9gXii31AK/ZGhUXSO
hyfmDI/u482bBekEGPtCJcYDQAYdsfvwQdHisIUlgTOwuD0x5UeXbnhisD5/XRNI
fNFxgew0PTiVgVvQU4dmC6cWUlw/buvMPUGBk1YAf2M5Qxx2/3VM1xOiKwIDAQAB
o2swaTAZBgNVHSUEEjAQBgRVHSUABggrBgEFBQcDATALBgNVHQ8EBAMCBaAwPwYD
VR0eBDgwNqALMAmGB2V4YW1wbGWhJzALhgl3cm9uZ0hvc3QwCoYILmV4YW1wbGUw
DIYKd3JvbmdIb3N0MjANBgkqhkiG9w0BAQsFAAOCAgEATdyOK3FX56ATLV6ha1q0
rSehFzVVRmNEF/oDLp7enYMtcucXa5J4X67WZIRVYHBwdyR6sNXbxuXGxwkHUOES
asGQlzf/KiIziyIbouJHEqO2rGMU6IbB1bqKDRslO22iawya5BshYT0oDINInalZ
0ms1mZrDmaL3LM/n5rsJn+ma8UPDFVTpexajxV2iqk6ekbBkqdIHHI2R/Q2kn43e
2zL/ZhdlR+Uf1cg0F9RzH92U3kDb/x8v3I8pEwFq3NqTfNifH55w4vwxlX2ZleAu
3Rhb9RR8x0WDff0HPnfhzILWzRbNMfNnwZrfrcqZei0IS+HhABvY6SfLxFy0u00l
7JpTelFGIbM+Gte+vSuWC+DF2AkwTZ3mbIDpH/ySszBcJbhu559lMpqYLh+Euvh+
Gu3CcYPfmrQlybipsu7ovKDcYZHZp2YagrWEZFi5I9DfJrzn4ht8GcrSIFifGe3h
DMjXUB8OlQCgeTXj4X2LKDMj6MhkUNQMtJg3YvcKGqDK6IhOcodd1UanEQJMlg4W
UhZJ6M+CP6Qagjlm/BZ3tW/EIOIxZMubEN2AzSyfoJt7rqiOEhrYf5lw7rVWuYFi
+9aOZlbHcvE2vqhlxrwBK6u7E6U7U8VjWCUMsxaf907Uz+LloJTpzjoDRdgjFJ22
dbJdKv9VLare7X52G9HjiYI=
-----END CERTIFICATE-----
