Certificate:
    Data:
        Version: 3 (0x2)
        Serial Number: 4808 (0x12c8)
        Signature Algorithm: sha256WithRSAEncryption
        Issuer: C=DE, ST=Bayern, L=N\xC3\x83\xC2\xBCrnberg, O=Siemens AG, OU=Trustcenter, CN=OliverCA/emailAddress=oliver.stiller@siemens.com
        Validity
            Not Before: Jan  7 14:27:48 2021 GMT
            Not After : Jan  7 14:27:48 2022 GMT
        Subject: O=testconstraints13, CN=testconstraints13
        Subject Public Key Info:
            Public Key Algorithm: rsaEncryption
                RSA Public-Key: (2048 bit)
                Modulus:
                    00:a6:63:7d:3c:e4:3a:8b:91:ea:be:bb:ec:b7:db:
                    0b:6c:54:9e:c3:92:10:de:78:a2:78:b1:d3:a6:e9:
                    d1:35:fc:d4:f3:33:9d:4f:c4:f2:c6:2f:a9:ef:65:
                    7b:48:3f:cb:df:71:69:80:75:b3:84:a5:b4:15:21:
                    7c:7d:64:51:cc:8c:8b:37:03:12:a1:c0:2f:89:be:
                    d3:7b:47:0a:5d:4b:8e:a2:f7:60:a4:16:92:55:61:
                    9a:52:80:49:e3:9c:0b:94:77:bd:9f:23:fd:f3:e1:
                    d9:89:c7:ac:18:d1:b8:45:28:20:4d:2c:91:f7:7d:
                    85:0c:57:01:ba:1e:32:92:82:a9:f9:60:46:33:ac:
                    fe:10:8d:d1:06:90:69:ff:6e:21:66:03:ef:66:3d:
                    7e:bc:0f:a0:aa:aa:5c:ae:3e:d3:81:35:b0:6f:c9:
                    e4:09:ba:f4:dd:45:6d:ba:3e:13:ca:29:83:53:54:
                    db:3c:13:3f:91:ce:28:d2:34:f2:78:d7:4d:78:94:
                    63:dc:e9:bd:8e:9d:a5:3b:cc:06:7d:6d:5b:0c:85:
                    60:4f:7c:89:ad:49:28:b6:62:90:9d:8a:d1:c6:f2:
                    42:a8:35:37:4d:95:17:61:a1:a4:68:ee:98:58:67:
                    3e:d6:5a:e3:34:78:68:c1:6f:ea:75:eb:95:02:06:
                    59:b9
                Exponent: 65537 (0x10001)
        X509v3 extensions:
            X509v3 Extended Key Usage: 
                Any Extended Key Usage, TLS Web Server Authentication
            X509v3 Key Usage: 
                Digital Signature, Key Encipherment
            X509v3 Name Constraints: 
                Permitted:
                  URI:example
                  URI:second
                  URI:.example
                  URI:host.example

    Signature Algorithm: sha256WithRSAEncryption
         44:09:0b:10:e8:af:08:71:85:74:90:08:61:dc:65:9c:c4:66:
         a6:76:b1:10:3c:79:32:61:dd:80:35:5b:d3:3b:af:92:20:34:
         57:95:d2:59:8d:c6:21:9d:2e:c7:8a:bb:06:e1:43:da:14:f6:
         ff:88:cc:cd:53:52:78:84:1f:cb:0f:33:1b:6c:2c:3d:e0:6f:
         cd:e1:d3:84:ee:14:30:b9:e2:69:ab:b4:ca:26:b8:d5:a7:0f:
         fa:ff:ba:b1:1b:eb:14:8e:b8:6d:de:39:a7:a1:17:80:c9:64:
         87:4e:c9:57:b9:d6:06:55:04:c9:db:39:12:2c:5e:25:43:15:
         c2:87:ff:e5:84:3a:94:6a:9c:df:93:97:96:11:84:f6:09:dc:
         05:05:09:c3:d9:53:ec:1b:33:30:1a:b4:2b:90:1c:06:5d:b6:
         78:b2:50:4d:22:68:f2:3a:67:62:f9:31:86:9c:83:a7:f3:1c:
         74:76:57:3d:60:61:ea:cc:b5:f0:a6:7c:5e:09:fd:eb:7d:f8:
         4f:b4:9a:42:28:75:22:be:a6:54:7a:89:0e:45:af:3e:16:c4:
         9e:44:7f:fc:28:e1:c0:8c:16:5f:a1:c4:e1:9f:12:d5:74:78:
         2d:52:b8:8e:86:f0:c3:e9:84:06:30:df:10:91:68:19:4d:a8:
         93:6f:39:e9:a9:6e:27:8c:a6:ea:2b:c2:40:6c:00:ee:9c:1c:
         f1:8b:56:4c:4d:26:72:48:d6:c9:60:78:1f:a2:bf:b2:cb:6c:
         e4:55:89:01:ca:9e:ad:b5:5a:20:87:dc:9b:5b:df:e5:e8:41:
         0a:b1:2b:fa:85:2e:69:14:2d:8b:91:c7:cd:73:f8:3e:ca:1f:
         c8:57:db:1e:7b:30:96:37:1b:1d:da:a4:c5:22:f0:76:ea:b8:
         00:f9:bc:95:2d:14:f4:2c:00:d3:6c:f7:20:a7:b2:f5:d8:ec:
         af:ae:a4:8f:08:87:2a:12:3d:3b:ef:14:30:df:58:ee:c2:c8:
         3e:69:21:7f:dd:41:c2:6c:c7:ca:65:77:26:ae:d2:dc:01:d6:
         f8:3c:23:82:cd:48:cf:39:ad:9e:d2:58:e9:7f:e4:cb:be:fc:
         3c:ac:d4:23:e8:5c:01:ca:ed:5b:d8:e0:94:a6:53:33:18:97:
         c0:38:fa:4b:da:62:d2:a9:01:18:5e:45:f0:53:ca:ae:b5:78:
         1d:70:f4:31:73:a2:bb:09:09:cd:12:d3:ad:79:58:e2:94:66:
         47:25:12:6b:53:ea:e4:b5:ab:ee:7d:40:21:53:58:b4:19:88:
         12:58:b4:c8:57:1e:b8:fc:97:6f:ce:7c:42:67:c7:19:09:76:
         b7:3c:b3:e7:c3:bf:52:e5
-----BEGIN CERTIFICATE-----
MIIEujCCAqKgAwIBAgICEsgwDQYJKoZIhvcNAQELBQAwgZ0xCzAJBgNVBAYTAkRF
MQ8wDQYDVQQIDAZCYXllcm4xFDASBgNVBAcMC07Dg8K8cm5iZXJnMRMwEQYDVQQK
DApTaWVtZW5zIEFHMRQwEgYDVQQLDAtUcnVzdGNlbnRlcjERMA8GA1UEAwwIT2xp
dmVyQ0ExKTAnBgkqhkiG9w0BCQEWGm9saXZlci5zdGlsbGVyQHNpZW1lbnMuY29t
MB4XDTIxMDEwNzE0Mjc0OFoXDTIyMDEwNzE0Mjc0OFowODEaMBgGA1UECgwRdGVz
dGNvbnN0cmFpbnRzMTMxGjAYBgNVBAMMEXRlc3Rjb25zdHJhaW50czEzMIIBIjAN
BgkqhkiG9w0BAQEFAAOCAQ8AMIIBCgKCAQEApmN9POQ6i5Hqvrvst9sLbFSew5IQ
3niieLHTpunRNfzU8zOdT8Tyxi+p72V7SD/L33FpgHWzhKW0FSF8fWRRzIyLNwMS
ocAvib7Te0cKXUuOovdgpBaSVWGaUoBJ45wLlHe9nyP98+HZicesGNG4RSggTSyR
932FDFcBuh4ykoKp+WBGM6z+EI3RBpBp/24hZgPvZj1+vA+gqqpcrj7TgTWwb8nk
Cbr03UVtuj4TyimDU1TbPBM/kc4o0jTyeNdNeJRj3Om9jp2lO8wGfW1bDIVgT3yJ
rUkotmKQnYrRxvJCqDU3TZUXYaGkaO6YWGc+1lrjNHhowW/qdeuVAgZZuQIDAQAB
o2gwZjAZBgNVHSUEEjAQBgRVHSUABggrBgEFBQcDATALBgNVHQ8EBAMCBaAwPAYD
VR0eBDUwM6AxMAmGB2V4YW1wbGUwCIYGc2Vjb25kMAqGCC5leGFtcGxlMA6GDGhv
c3QuZXhhbXBsZTANBgkqhkiG9w0BAQsFAAOCAgEARAkLEOivCHGFdJAIYdxlnMRm
pnaxEDx5MmHdgDVb0zuvkiA0V5XSWY3GIZ0ux4q7BuFD2hT2/4jMzVNSeIQfyw8z
G2wsPeBvzeHThO4UMLniaau0yia41acP+v+6sRvrFI64bd45p6EXgMlkh07JV7nW
BlUEyds5EixeJUMVwof/5YQ6lGqc35OXlhGE9gncBQUJw9lT7BszMBq0K5AcBl22
eLJQTSJo8jpnYvkxhpyDp/McdHZXPWBh6sy18KZ8Xgn96334T7SaQih1Ir6mVHqJ
DkWvPhbEnkR//CjhwIwWX6HE4Z8S1XR4LVK4jobww+mEBjDfEJFoGU2ok2856alu
J4ym6ivCQGwA7pwc8YtWTE0mckjWyWB4H6K/ssts5FWJAcqerbVaIIfcm1vf5ehB
CrEr+oUuaRQti5HHzXP4PsofyFfbHnswljcbHdqkxSLwduq4APm8lS0U9CwA02z3
IKey9djsr66kjwiHKhI9O+8UMN9Y7sLIPmkhf91BwmzHymV3Jq7S3AHW+Dwjgs1I
zzmtntJY6X/ky778PKzUI+hcAcrtW9jglKZTMxiXwDj6S9pi0qkBGF5F8FPKrrV4
HXD0MXOiuwkJzRLTrXlY4pRmRyUSa1Pq5LWr7n1AIVNYtBmIEli0yFceuPyXb858
QmfHGQl2tzyz58O/UuU=
-----END CERTIFICATE-----
