Certificate:
    Data:
        Version: 3 (0x2)
        Serial Number: 3 (0x3)
        Signature Algorithm: ecdsa-with-SHA256
        Issuer: 
        Validity
            Not Before: Sep  1 00:00:00 2021 GMT
            Not After : Nov 30 00:00:00 9998 GMT
        Subject: CN = other.example.com, CN = example.com
        Subject Public Key Info:
            Public Key Algorithm: id-ecPublicKey
                Public-Key: (256 bit)
                pub:
                    04:3c:5f:58:b6:bc:ed:d0:ae:b2:88:aa:6a:a7:5b:
                    6a:6a:1b:c0:5d:c5:f0:7d:40:2c:b0:28:cd:a0:46:
                    1d:59:49:c0:67:88:05:2d:54:89:24:96:a9:ca:6c:
                    59:ad:b6:72:da:a7:ef:6a:2b:4e:8c:c0:a9:22:4a:
                    9e:b2:7e:2b:92
                ASN1 OID: prime256v1
                NIST CURVE: P-256
        X509v3 extensions:
            X509v3 Subject Alternative Name: 
                DNS:example.com, DNS:other.example.com, DNS:third.example.com
    Signature Algorithm: ecdsa-with-SHA256
         30:45:02:20:60:a0:ad:42:50:50:08:21:7e:26:82:02:c6:a5:
         7d:c1:c7:11:13:48:fd:16:e1:57:18:b5:c9:56:17:d6:c2:0c:
         02:21:00:a9:8a:a1:ad:72:d8:bd:4d:6b:6e:85:33:d7:e6:5b:
         d2:46:7d:6f:e2:da:b8:03:6f:4d:8e:20:b5:bd:67:19:8a
-----BEGIN CERTIFICATE-----
MIIBYzCCAQmgAwIBAgIBAzAKBggqhkjOPQQDAjAAMCAXDTIxMDkwMTAwMDAwMFoY
Dzk5OTgxMTMwMDAwMDAwWjAyMRowGAYDVQQDExFvdGhlci5leGFtcGxlLmNvbTEU
MBIGA1UEAxMLZXhhbXBsZS5jb20wWTATBgcqhkjOPQIBBggqhkjOPQMBBwNCAAQ8
X1i2vO3QrrKIqmqnW2pqG8BdxfB9QCywKM2gRh1ZScBniAUtVIkklqnKbFmttnLa
p+9qK06MwKkiSp6yfiuSo0AwPjA8BgNVHREENTAzggtleGFtcGxlLmNvbYIRb3Ro
ZXIuZXhhbXBsZS5jb22CEXRoaXJkLmV4YW1wbGUuY29tMAoGCCqGSM49BAMCA0gA
MEUCIGCgrUJQUAghfiaCAsalfcHHERNI/RbhVxi1yVYX1sIMAiEAqYqhrXLYvU1r
boUz1+Zb0kZ9b+LauANvTY4gtb1nGYo=
-----END CERTIFICATE-----