Certificate:
    Data:
        Version: 3 (0x2)
        Serial Number: 1 (0x1)
        Signature Algorithm: sha256WithRSAEncryption
        Issuer: 
        Validity
            Not Before: Nov  1 00:00:00 2017 GMT
            Not After : Nov  1 00:00:00 2017 GMT
        Subject: 
        Subject Public Key Info:
            Public Key Algorithm: rsaEncryption
                RSA Public-Key: (512 bit)
                Modulus:
                    00:db:6b:43:17:4e:44:87:33:25:94:78:f3:36:d0:
                    8b:a4:39:19:43:9c:f7:36:46:49:8a:9f:8e:7a:17:
                    13:de:8d:f8:21:11:c7:e3:da:62:41:ec:44:23:e5:
                    66:4a:89:e7:b7:40:7c:46:a8:fe:5d:99:c8:04:77:
                    d6:39:3c:ca:c1
                Exponent: 65537 (0x10001)
        X509v3 extensions:
            X509v3 Extended Key Usage: 
                TLS Web Server Authentication
            X509v3 Name Constraints: 
                Permitted:
                  IP:166.0.0.0/255.255.255.0

    Signature Algorithm: sha256WithRSAEncryption
         9a:b5:b6:b4:51:d7:81:0c:ce:36:a7:2a:a9:d3:44:67:21:cb:
         46:10:28:c7:0d:1e:82:ee:24:29:df:aa:d6:f5:8a:ca:cc:f3:
         98:dc:0f:f1:5f:9e:bb:1c:24:5b:a4:59:9b:43:01:47:fa:68:
         d1:f1:95:4a:f7:ef:2e:51:ee:51
-----BEGIN CERTIFICATE-----
MIIBIDCBy6ADAgECAgEBMA0GCSqGSIb3DQEBCwUAMAAwHhcNMTcxMTAxMDAwMDAw
WhcNMTcxMTAxMDAwMDAwWjAAMFwwDQYJKoZIhvcNAQEBBQADSwAwSAJBANtrQxdO
RIczJZR48zbQi6Q5GUOc9zZGSYqfjnoXE96N+CERx+PaYkHsRCPlZkqJ57dAfEao
/l2ZyAR31jk8ysECAwEAAaMwMC4wEwYDVR0lBAwwCgYIKwYBBQUHAwEwFwYDVR0e
BBAwDqAMMAqHCKYAAAD///8AMA0GCSqGSIb3DQEBCwUAA0EAmrW2tFHXgQzONqcq
qdNEZyHLRhAoxw0egu4kKd+q1vWKyszzmNwP8V+euxwkW6RZm0MBR/po0fGVSvfv
LlHuUQ==
-----END CERTIFICATE-----
