Certificate:
    Data:
        Version: 3 (0x2)
        Serial Number: 3 (0x3)
        Signature Algorithm: ecdsa-with-SHA256
        Issuer:
        Validity
            Not Before: Jul 31 00:00:00 2023 GMT
            Not After : Nov 30 00:00:00 9998 GMT
        Subject:
        Subject Public Key Info:
            Public Key Algorithm: id-ecPublicKey
                Public-Key: (256 bit)
                pub:
                    04:fe:de:4c:a1:5e:4f:8a:2d:f6:56:1f:b7:dd:d2:
                    d5:7f:34:24:82:4a:53:bd:66:09:2c:e6:e1:1d:46:
                    27:5f:fb:91:3e:d7:3b:fd:78:b8:a0:6d:fc:6b:a8:
                    96:63:bb:97:cf:25:97:4e:3a:98:b0:af:ae:94:cf:
                    24:41:ff:4f:43
                ASN1 OID: prime256v1
                NIST CURVE: P-256
        X509v3 extensions:
            X509v3 Subject Key Identifier:
                01:02:03:04
    Signature Algorithm: ecdsa-with-SHA256
    Signature Value:
        30:44:02:20:01:2f:84:dd:00:95:ed:4c:92:12:2e:cb:dd:65:
        6b:12:07:86:00:5e:c4:97:9b:66:1c:bd:0a:72:96:29:94:d6:
        02:20:71:91:0e:ca:d5:1c:a9:d9:05:2f:d2:c2:f6:8f:6b:8d:
        51:75:d7:66:8a:8a:e0:cb:75:14:75:6a:ce:71:b8:a3
-----BEGIN CERTIFICATE-----
MIIBADCBqKADAgECAgEDMAoGCCqGSM49BAMCMAAwIBcNMjMwNzMxMDAwMDAwWhgP
OTk5ODExMzAwMDAwMDBaMAAwWTATBgcqhkjOPQIBBggqhkjOPQMBBwNCAAT+3kyh
Xk+KLfZWH7fd0tV/NCSCSlO9Zgks5uEdRidf+5E+1zv9eLigbfxrqJZju5fPJZdO
Opiwr66UzyRB/09DoxEwDzANBgNVHQ4EBgQEAQIDBDAKBggqhkjOPQQDAgNHADBE
AiABL4TdAJXtTJISLsvdZWsSB4YAXsSXm2YcvQpylimU1gIgcZEOytUcqdkFL9LC
9o9rjVF112aKiuDLdRR1as5xuKM=
-----END CERTIFICATE-----
