Certificate:
    Data:
        Version: 3 (0x2)
        Serial Number:
            29:cd:fe:ab:51:6f:8e:fe:79:d9:38:7d:07:03:bf:e1
        Signature Algorithm: sha256WithRSAEncryption
        Issuer: C = CH, O = Swiss Government PKI, OU = Services, OU = Certification Authorities, CN = Swiss Government Public Trust Standard CA 02
        Validity
            Not Before: Aug 29 16:44:55 2017 GMT
            Not After : Aug 29 16:44:55 2019 GMT
        Subject: C = CH, ST = BE, L = Bern, O = Bundesamt fuer Informatik und Telekommunikation, OU = Webtechnologies, CN = www.schweizerfilmpreis.ch
        Subject Public Key Info:
            Public Key Algorithm: rsaEncryption
                RSA Public-Key: (2048 bit)
                Modulus:
                    00:b6:6e:da:1a:af:d4:34:e6:7c:36:af:81:bf:1f:
                    20:f6:ad:ce:b3:4c:66:bc:ab:d0:d9:e9:37:0a:d5:
                    da:38:03:1f:1e:e0:58:6a:34:2e:52:24:ff:18:15:
                    e4:05:5f:a9:23:8c:23:62:7b:a9:eb:24:86:76:d9:
                    11:69:a6:c9:0a:20:e4:d3:86:fa:3b:42:ec:ff:4c:
                    b7:98:51:f5:84:8b:a1:23:fc:3b:3b:30:dd:ee:b1:
                    74:35:2e:0b:ed:9b:4f:a0:f4:c2:bf:75:3e:1a:4f:
                    22:be:9c:22:26:eb:85:77:19:73:b2:94:17:f1:fb:
                    08:29:5a:09:ab:d2:65:05:a7:cc:20:a5:1f:15:90:
                    f6:02:66:7b:7b:67:7d:90:d0:2d:d4:d8:33:ba:2e:
                    40:14:cc:3d:28:fc:98:01:ac:2a:b5:16:0a:1a:6a:
                    65:c8:56:27:65:34:b6:4e:2f:b0:f7:3c:12:62:cd:
                    ab:6d:62:3a:4d:42:82:ed:3b:f5:da:80:62:dc:23:
                    4e:c6:37:f2:07:c7:2b:fc:1c:d1:72:b3:06:6a:e2:
                    a6:f5:74:e2:f8:d0:d9:a3:30:65:5b:3a:5c:4a:d6:
                    e1:11:56:cb:47:b6:8d:c2:04:8e:0a:be:82:7c:52:
                    29:a4:8a:ec:d8:9b:ab:f6:e4:6a:21:36:e0:dd:74:
                    fd:53
                Exponent: 65537 (0x10001)
        X509v3 extensions:
            X509v3 Subject Alternative Name: 
                DNS:www.schweizerfilmpreis.ch, DNS:www.prixducinemasuisse.ch, DNS:www.premiodelcinemasvizzero.ch, DNS:www.swissfilmaward.ch, DNS:www.literaturpreise.ch, DNS:www.schweizermusikpreis.ch, DNS:www.tanzpreise.ch, DNS:www.theaterpreise.ch


            X509v3 Key Usage: critical
                Digital Signature, Key Encipherment
            X509v3 Extended Key Usage: 
                TLS Web Server Authentication, TLS Web Client Authentication
            X509v3 Certificate Policies: 
                Policy: 2.16.756.1.17.3.62.15
                  CPS: http://www.pki.admin.ch/cps/CPS_2_16_756_1_17_3_61_0.pdf
                  User Notice:
                    Explicit Text: Reliance on the SG Root CA III Certificate by any party assumes acceptance of the then applicable standard terms and conditions of use and the SG Root CA III CPS

            Authority Information Access: 
                CA Issuers - URI:http://www.pki.admin.ch/aia/PTSTCA02BC.crt
                OCSP - URI:http://www.pki.admin.ch/aia/bcocsp

            X509v3 CRL Distribution Points: 

                Full Name:
                  URI:http://www.pki.admin.ch/crl/PTSTCA02.crl

                Full Name:
                  URI:ldap://admindir.admin.ch:389/cn=Swiss%20Government%20Public%20Trust%20Standard%20CA%2002,ou=Certification%20Authorities,ou=Services,o=Admin,c=CH

            X509v3 Authority Key Identifier: 
                keyid:84:58:4E:87:2D:A5:B0:4E:49:85:BB:BC:01:71:E6:B4:C7:55:FF:10

            X509v3 Subject Key Identifier: 
                53:53:BA:A3:7F:81:47:49:0A:21:34:2A:9E:3B:81:AE:66:BD:78:38
            X509v3 Basic Constraints: critical
                CA:FALSE
    Signature Algorithm: sha256WithRSAEncryption
         79:8b:21:7f:30:f1:1d:2e:05:f0:f4:47:f4:d4:c6:28:e4:f5:
         d0:3f:ec:45:45:5b:af:78:3e:84:e6:ce:65:a7:52:39:0c:dc:
         9d:9d:7b:91:0c:51:02:43:86:bc:6f:78:f7:3a:89:3a:1d:76:
         fc:bf:77:e7:2d:a4:a0:e3:d9:61:69:50:e8:b7:b0:c7:e0:ac:
         ac:c8:58:5d:04:69:f3:dc:8c:0b:d9:e0:e5:4d:da:4c:98:62:
         64:e4:4b:86:89:4a:24:64:34:8d:55:c7:91:3a:52:57:8d:01:
         f3:10:4e:ae:28:12:18:94:4f:ec:2b:e6:12:01:f0:b7:d6:ff:
         54:5d:b3:71:ff:3d:4f:ae:ad:6b:08:c7:dd:a1:87:0c:1f:fa:
         61:3a:39:ba:1d:a7:f6:28:08:86:19:b2:8b:66:16:1c:34:5c:
         81:a0:fc:b2:a3:46:18:4a:b8:8a:33:e7:44:4d:33:12:8b:be:
         0e:e7:e6:f6:a5:db:20:6b:49:32:07:ca:00:89:24:79:8e:fa:
         64:f5:10:47:4c:ba:74:6c:77:25:2b:ea:38:7d:40:f6:6a:f7:
         ef:81:6e:5f:f8:71:87:70:5f:b8:3e:d8:9b:54:37:ab:4b:65:
         ea:1e:56:98:3a:6a:55:59:b1:b6:a7:34:26:0f:fb:33:f6:ce:
         9a:a7:5d:33:1a:7c:d4:a5:bb:20:2e:6e:b9:d0:9c:60:52:ab:
         a1:eb:bf:5c:e4:f1:e0:60:64:f0:e8:7d:db:96:23:d6:36:da:
         e3:80:06:64:a8:0e:68:7b:a0:b6:df:3a:36:e0:e4:7c:54:05:
         60:22:c8:f3:7b:a0:46:9c:32:95:95:14:e0:92:cf:95:97:91:
         b1:f1:70:f7:a9:b6:4a:b7:8b:50:dd:91:49:d6:19:28:2f:07:
         f6:03:53:77:76:6c:1c:4b:21:fe:54:3e:5e:09:1b:e8:85:31:
         f3:bb:b0:8f:22:f3:c8:65:e7:63:2d:2c:7a:3c:83:37:53:55:
         18:6c:70:38:a1:d7:fe:70:10:f7:cb:6c:c4:e0:81:89:52:26:
         5c:81:d1:10:e0:62:0a:c9:7e:1d:8e:da:ce:b9:60:6d:a7:20:
         85:4a:c1:d3:76:00:a8:2b:13:7b:63:62:ee:50:e5:38:7a:a5:
         5b:7d:3b:df:b6:9f:0f:ff:99:3b:85:da:89:76:e5:36:f9:2a:
         6e:a6:97:c5:e3:b8:92:f1:58:0a:fc:74:bf:dd:20:db:d9:31:
         13:45:43:16:bf:d2:2a:02:50:07:09:cc:f0:ff:83:20:3a:44:
         a1:0d:7f:7a:7f:b7:f9:7d:d9:91:df:63:21:e0:62:fc:2d:18:
         84:3e:b5:4c:38:91:89:a7
-----BEGIN CERTIFICATE-----
MIIIkjCCBnqgAwIBAgIQKc3+q1Fvjv552Th9BwO/4TANBgkqhkiG9w0BAQsFADCB
mjELMAkGA1UEBhMCQ0gxHTAbBgNVBAoMFFN3aXNzIEdvdmVybm1lbnQgUEtJMREw
DwYDVQQLDAhTZXJ2aWNlczEiMCAGA1UECwwZQ2VydGlmaWNhdGlvbiBBdXRob3Jp
dGllczE1MDMGA1UEAwwsU3dpc3MgR292ZXJubWVudCBQdWJsaWMgVHJ1c3QgU3Rh
bmRhcmQgQ0EgMDIwHhcNMTcwODI5MTY0NDU1WhcNMTkwODI5MTY0NDU1WjCBoTEL
MAkGA1UEBhMCQ0gxCzAJBgNVBAgMAkJFMQ0wCwYDVQQHDARCZXJuMTgwNgYDVQQK
DC9CdW5kZXNhbXQgZnVlciBJbmZvcm1hdGlrIHVuZCBUZWxla29tbXVuaWthdGlv
bjEYMBYGA1UECwwPV2VidGVjaG5vbG9naWVzMSIwIAYDVQQDDBl3d3cuc2Nod2Vp
emVyZmlsbXByZWlzLmNoMIIBIjANBgkqhkiG9w0BAQEFAAOCAQ8AMIIBCgKCAQEA
tm7aGq/UNOZ8Nq+Bvx8g9q3Os0xmvKvQ2ek3CtXaOAMfHuBYajQuUiT/GBXkBV+p
I4wjYnup6ySGdtkRaabJCiDk04b6O0Ls/0y3mFH1hIuhI/w7OzDd7rF0NS4L7ZtP
oPTCv3U+Gk8ivpwiJuuFdxlzspQX8fsIKVoJq9JlBafMIKUfFZD2AmZ7e2d9kNAt
1Ngzui5AFMw9KPyYAawqtRYKGmplyFYnZTS2Ti+w9zwSYs2rbWI6TUKC7Tv12oBi
3CNOxjfyB8cr/BzRcrMGauKm9XTi+NDZozBlWzpcStbhEVbLR7aNwgSOCr6CfFIp
pIrs2Jur9uRqITbg3XT9UwIDAQABo4IDyTCCA8UwgdcGA1UdEQSBzzCBzIIZd3d3
LnNjaHdlaXplcmZpbG1wcmVpcy5jaIIZd3d3LnByaXhkdWNpbmVtYXN1aXNzZS5j
aIIed3d3LnByZW1pb2RlbGNpbmVtYXN2aXp6ZXJvLmNoghV3d3cuc3dpc3NmaWxt
YXdhcmQuY2iCFnd3dy5saXRlcmF0dXJwcmVpc2UuY2iCGnd3dy5zY2h3ZWl6ZXJt
dXNpa3ByZWlzLmNoghF3d3cudGFuenByZWlzZS5jaIIWd3d3LnRoZWF0ZXJwcmVp
c2UuY2gKCjAOBgNVHQ8BAf8EBAMCBaAwHQYDVR0lBBYwFAYIKwYBBQUHAwEGCCsG
AQUFBwMCMIIBGAYDVR0gBIIBDzCCAQswggEHBghghXQBEQM+DzCB+jBEBggrBgEF
BQcCARY4aHR0cDovL3d3dy5wa2kuYWRtaW4uY2gvY3BzL0NQU18yXzE2Xzc1Nl8x
XzE3XzNfNjFfMC5wZGYwgbEGCCsGAQUFBwICMIGkGoGhUmVsaWFuY2Ugb24gdGhl
IFNHIFJvb3QgQ0EgSUlJIENlcnRpZmljYXRlIGJ5IGFueSBwYXJ0eSBhc3N1bWVz
IGFjY2VwdGFuY2Ugb2YgdGhlIHRoZW4gYXBwbGljYWJsZSBzdGFuZGFyZCB0ZXJt
cyBhbmQgY29uZGl0aW9ucyBvZiB1c2UgYW5kIHRoZSBTRyBSb290IENBIElJSSBD
UFMwdgYIKwYBBQUHAQEEajBoMDYGCCsGAQUFBzAChipodHRwOi8vd3d3LnBraS5h
ZG1pbi5jaC9haWEvUFRTVENBMDJCQy5jcnQwLgYIKwYBBQUHMAGGImh0dHA6Ly93
d3cucGtpLmFkbWluLmNoL2FpYS9iY29jc3AwgdcGA1UdHwSBzzCBzDAuoCygKoYo
aHR0cDovL3d3dy5wa2kuYWRtaW4uY2gvY3JsL1BUU1RDQTAyLmNybDCBmaCBlqCB
k4aBkGxkYXA6Ly9hZG1pbmRpci5hZG1pbi5jaDozODkvY249U3dpc3MlMjBHb3Zl
cm5tZW50JTIwUHVibGljJTIwVHJ1c3QlMjBTdGFuZGFyZCUyMENBJTIwMDIsb3U9
Q2VydGlmaWNhdGlvbiUyMEF1dGhvcml0aWVzLG91PVNlcnZpY2VzLG89QWRtaW4s
Yz1DSDAfBgNVHSMEGDAWgBSEWE6HLaWwTkmFu7wBcea0x1X/EDAdBgNVHQ4EFgQU
U1O6o3+BR0kKITQqnjuBrma9eDgwDAYDVR0TAQH/BAIwADANBgkqhkiG9w0BAQsF
AAOCAgEAeYshfzDxHS4F8PRH9NTGKOT10D/sRUVbr3g+hObOZadSOQzcnZ17kQxR
AkOGvG949zqJOh12/L935y2koOPZYWlQ6Lewx+CsrMhYXQRp89yMC9ng5U3aTJhi
ZORLholKJGQ0jVXHkTpSV40B8xBOrigSGJRP7CvmEgHwt9b/VF2zcf89T66tawjH
3aGHDB/6YTo5uh2n9igIhhmyi2YWHDRcgaD8sqNGGEq4ijPnRE0zEou+Dufm9qXb
IGtJMgfKAIkkeY76ZPUQR0y6dGx3JSvqOH1A9mr374FuX/hxh3BfuD7Ym1Q3q0tl
6h5WmDpqVVmxtqc0Jg/7M/bOmqddMxp81KW7IC5uudCcYFKroeu/XOTx4GBk8Oh9
25Yj1jba44AGZKgOaHugtt86NuDkfFQFYCLI83ugRpwylZUU4JLPlZeRsfFw96m2
SreLUN2RSdYZKC8H9gNTd3ZsHEsh/lQ+Xgkb6IUx87uwjyLzyGXnYy0sejyDN1NV
GGxwOKHX/nAQ98tsxOCBiVImXIHREOBiCsl+HY7azrlgbacghUrB03YAqCsTe2Ni
7lDlOHqlW30737afD/+ZO4XaiXblNvkqbqaXxeO4kvFYCvx0v90g29kxE0VDFr/S
KgJQBwnM8P+DIDpEoQ1/en+3+X3Zkd9jIeBi/C0YhD61TDiRiac=
-----END CERTIFICATE-----
