Certificate:
    Data:
        Version: 3 (0x2)
        Serial Number: 4803 (0x12c3)
        Signature Algorithm: sha256WithRSAEncryption
        Issuer: C=DE, ST=Bayern, L=N\xC3\x83\xC2\xBCrnberg, O=Siemens AG, OU=Trustcenter, CN=OliverCA/emailAddress=oliver.stiller@siemens.com
        Validity
            Not Before: Dec 31 13:21:40 2020 GMT
            Not After : Dec 31 13:21:40 2021 GMT
        Subject: O=testconstraints08, CN=testconstraints08
        Subject Public Key Info:
            Public Key Algorithm: rsaEncryption
                RSA Public-Key: (2048 bit)
                Modulus:
                    00:c4:cb:34:8c:bc:9a:fb:a6:2c:32:76:7b:07:84:
                    e4:45:cb:81:b5:9f:76:a9:e9:ee:d8:19:56:2d:5f:
                    7c:ec:42:2b:dc:97:86:81:f9:26:37:6f:c3:6e:16:
                    92:ec:ca:f3:8d:34:02:2f:d0:fd:07:90:91:60:55:
                    4e:ee:fc:e5:68:a4:0e:01:92:56:b6:c1:c2:d3:89:
                    29:0b:5f:6e:df:a3:27:71:d8:82:68:23:76:d3:2a:
                    a9:50:9b:92:29:1b:63:d5:52:76:14:4c:35:1a:6e:
                    ed:b7:3a:28:e1:a0:39:2e:db:58:8d:24:fd:31:3e:
                    e5:47:b6:a5:36:ef:68:76:1d:64:a4:16:8f:5d:b9:
                    a3:72:96:e7:ae:68:b1:58:0a:06:15:90:00:c5:03:
                    68:cb:b9:77:a2:0a:67:b1:af:d0:05:b7:fe:ee:10:
                    2f:af:0b:74:91:5a:3d:c5:2d:ce:e8:00:bb:74:01:
                    16:d5:31:e9:20:20:62:5a:da:ac:ce:6e:c3:c8:18:
                    38:d8:3e:2b:bd:61:4c:21:72:73:a9:aa:2d:b0:6f:
                    fe:77:b7:51:7f:51:5c:d4:bf:da:94:41:fd:fe:54:
                    5d:25:07:76:99:1b:f7:4e:85:05:92:55:1b:15:b9:
                    18:5f:59:c5:f9:f2:fe:e4:76:8a:da:58:9e:c6:63:
                    51:43
                Exponent: 65537 (0x10001)
        X509v3 extensions:
            X509v3 Extended Key Usage: 
                Any Extended Key Usage, TLS Web Server Authentication
            X509v3 Key Usage: 
                Digital Signature, Key Encipherment
            X509v3 Name Constraints: 
                Permitted:
                  URI:example

    Signature Algorithm: sha256WithRSAEncryption
         ca:02:54:2a:ca:d2:7f:0c:12:0c:8c:91:76:24:0c:11:71:02:
         52:bc:39:89:ee:d4:1b:2d:32:8f:e9:0c:23:0e:7e:6e:dc:91:
         e5:d4:34:eb:b6:38:90:fd:81:ce:03:43:2f:64:ac:6d:46:78:
         bf:16:ca:21:93:89:e5:5c:3f:80:9b:25:3f:5b:b0:12:45:56:
         27:db:09:89:ab:ea:40:2b:45:af:43:f3:88:da:74:09:a7:00:
         76:1a:61:35:60:2f:d2:7c:e2:53:1e:a8:b8:54:80:22:44:e9:
         30:f2:18:97:31:96:65:71:eb:dc:e4:72:86:ca:12:15:95:47:
         af:96:3a:3e:c7:89:c3:d3:51:5d:75:ee:46:33:bb:4f:81:e1:
         1d:35:c3:27:00:cf:76:e5:76:1d:7f:24:87:51:9d:71:f3:12:
         2d:df:df:b4:dc:0b:10:fd:cf:f8:f9:e4:cf:45:91:19:4e:99:
         8a:31:59:17:51:44:ec:f0:ea:1d:d2:4b:f4:e9:5a:b7:24:68:
         bb:40:32:fd:2b:b1:db:d2:ad:09:e1:b7:8f:dc:0d:ea:57:be:
         67:35:4e:3b:1a:cd:de:8e:8b:ed:d2:25:6b:19:27:c3:2e:56:
         ea:49:3f:82:59:86:86:e2:d7:31:ad:8f:2f:bf:35:7c:c4:59:
         8a:9a:5a:66:ce:8b:f0:05:ea:c3:c0:81:d8:8d:d5:41:ef:d7:
         59:7e:d3:8c:cf:ef:d2:63:2b:8b:2c:90:95:70:f4:4d:38:0e:
         58:e4:06:6d:c4:8b:19:c6:5d:fd:19:af:a4:c5:7e:cd:d6:52:
         e8:7c:ac:00:e8:b6:6f:cc:31:2f:e4:fb:4e:a7:ce:2f:0a:fb:
         c6:2b:f8:5f:0a:eb:f8:bf:00:dd:47:4f:e7:59:b5:f7:12:d2:
         2e:01:1a:89:ac:8e:25:e4:a9:40:43:d8:72:f0:fa:a2:74:c4:
         c6:08:55:02:48:ad:62:52:47:92:8a:e2:85:d5:e7:75:38:e8:
         80:eb:70:da:27:74:b6:cc:11:cb:6e:4e:aa:88:cc:9f:ce:d7:
         62:74:59:d9:0c:34:56:25:49:c8:38:d5:78:4e:ae:59:d4:d8:
         db:51:04:b5:c5:07:5c:ba:f8:f0:df:9a:c9:b0:b6:c2:18:2f:
         bb:20:22:42:b1:c5:9a:cc:fc:2b:4a:9c:2f:a9:4a:a3:e5:15:
         f6:1e:30:77:62:9d:97:16:e9:59:60:bd:cb:d1:1d:6d:93:3e:
         e1:e8:16:1c:42:b5:4b:a3:d9:77:c6:f6:c6:e5:be:8d:81:9a:
         c2:0c:ad:33:cb:e8:80:1b:b2:82:32:e4:f4:c5:51:a9:72:0b:
         be:48:1a:9c:86:84:40:a1
-----BEGIN CERTIFICATE-----
MIIElDCCAnygAwIBAgICEsMwDQYJKoZIhvcNAQELBQAwgZ0xCzAJBgNVBAYTAkRF
MQ8wDQYDVQQIDAZCYXllcm4xFDASBgNVBAcMC07Dg8K8cm5iZXJnMRMwEQYDVQQK
DApTaWVtZW5zIEFHMRQwEgYDVQQLDAtUcnVzdGNlbnRlcjERMA8GA1UEAwwIT2xp
dmVyQ0ExKTAnBgkqhkiG9w0BCQEWGm9saXZlci5zdGlsbGVyQHNpZW1lbnMuY29t
MB4XDTIwMTIzMTEzMjE0MFoXDTIxMTIzMTEzMjE0MFowODEaMBgGA1UECgwRdGVz
dGNvbnN0cmFpbnRzMDgxGjAYBgNVBAMMEXRlc3Rjb25zdHJhaW50czA4MIIBIjAN
BgkqhkiG9w0BAQEFAAOCAQ8AMIIBCgKCAQEAxMs0jLya+6YsMnZ7B4TkRcuBtZ92
qenu2BlWLV987EIr3JeGgfkmN2/DbhaS7MrzjTQCL9D9B5CRYFVO7vzlaKQOAZJW
tsHC04kpC19u36MncdiCaCN20yqpUJuSKRtj1VJ2FEw1Gm7ttzoo4aA5LttYjST9
MT7lR7alNu9odh1kpBaPXbmjcpbnrmixWAoGFZAAxQNoy7l3ogpnsa/QBbf+7hAv
rwt0kVo9xS3O6AC7dAEW1THpICBiWtqszm7DyBg42D4rvWFMIXJzqaotsG/+d7dR
f1Fc1L/alEH9/lRdJQd2mRv3ToUFklUbFbkYX1nF+fL+5HaK2liexmNRQwIDAQAB
o0IwQDAZBgNVHSUEEjAQBgRVHSUABggrBgEFBQcDATALBgNVHQ8EBAMCBaAwFgYD
VR0eBA8wDaALMAmGB2V4YW1wbGUwDQYJKoZIhvcNAQELBQADggIBAMoCVCrK0n8M
EgyMkXYkDBFxAlK8OYnu1BstMo/pDCMOfm7ckeXUNOu2OJD9gc4DQy9krG1GeL8W
yiGTieVcP4CbJT9bsBJFVifbCYmr6kArRa9D84jadAmnAHYaYTVgL9J84lMeqLhU
gCJE6TDyGJcxlmVx69zkcobKEhWVR6+WOj7HicPTUV117kYzu0+B4R01wycAz3bl
dh1/JIdRnXHzEi3f37TcCxD9z/j55M9FkRlOmYoxWRdRROzw6h3SS/TpWrckaLtA
Mv0rsdvSrQnht4/cDepXvmc1Tjsazd6Oi+3SJWsZJ8MuVupJP4JZhobi1zGtjy+/
NXzEWYqaWmbOi/AF6sPAgdiN1UHv11l+04zP79JjK4sskJVw9E04DljkBm3EixnG
Xf0Zr6TFfs3WUuh8rADotm/MMS/k+06nzi8K+8Yr+F8K6/i/AN1HT+dZtfcS0i4B
GomsjiXkqUBD2HLw+qJ0xMYIVQJIrWJSR5KK4oXV53U46IDrcNondLbMEctuTqqI
zJ/O12J0WdkMNFYlScg41XhOrlnU2NtRBLXFB1y6+PDfmsmwtsIYL7sgIkKxxZrM
/CtKnC+pSqPlFfYeMHdinZcW6VlgvcvRHW2TPuHoFhxCtUuj2XfG9sblvo2BmsIM
rTPL6IAbsoIy5PTFUalyC75IGpyGhECh
-----END CERTIFICATE-----
