Certificate:
    Data:
        Version: 3 (0x2)
        Serial Number: 4755 (0x1293)
        Signature Algorithm: sha256WithRSAEncryption
        Issuer: C=DE, ST=Bayern, L=N\xC3\x83\xC2\xBCrnberg, O=Siemens AG, OU=Trustcenter, CN=OliverCA/emailAddress=oliver.stiller@siemens.com
        Validity
            Not Before: Oct  8 11:49:14 2020 GMT
            Not After : Oct  8 11:49:14 2021 GMT
        Subject: O=Dont trust me, CN=Ignore me
        Subject Public Key Info:
            Public Key Algorithm: rsaEncryption
                RSA Public-Key: (2048 bit)
                Modulus:
                    00:a2:bf:f5:2f:46:42:ac:91:f5:56:8e:e4:59:bf:
                    62:b6:c4:a6:21:5d:79:48:54:d6:7b:c0:e4:fc:df:
                    09:e3:71:c6:0c:49:a7:86:48:58:a9:a3:86:06:34:
                    64:6f:73:8c:81:54:8b:e5:52:14:d4:0e:f3:c3:8a:
                    e4:42:ac:07:c6:70:6d:62:83:96:0d:db:94:c3:25:
                    1e:3f:a4:ba:ac:33:b8:c7:7d:d4:35:80:69:8b:9b:
                    b8:08:42:2a:28:4b:d8:d0:29:61:66:5b:7f:ee:00:
                    36:ba:9f:c5:50:62:50:28:7d:ae:a9:f3:77:89:8a:
                    fb:cc:b9:dd:35:59:aa:10:4f:c2:f9:a3:c6:94:7f:
                    6c:85:8e:db:49:a3:39:26:ac:20:c3:c0:ef:a7:8e:
                    01:42:f9:8c:f6:2e:e6:f0:2a:be:93:83:8b:eb:23:
                    a6:37:99:6e:02:15:eb:34:2f:8a:99:0a:84:19:b4:
                    f5:ed:6f:02:be:c8:e8:08:62:76:28:89:26:e4:f7:
                    cc:b9:91:46:b0:1a:5d:2c:d9:02:d0:22:ad:dc:4d:
                    b7:50:71:2b:a2:f3:82:92:e4:6d:21:c2:d4:f0:0f:
                    16:4e:41:1a:d0:7a:5b:65:7f:2f:5f:95:dc:d6:4c:
                    ee:e2:70:ea:ba:49:9a:98:2d:cc:ab:65:e6:eb:fd:
                    51:e1
                Exponent: 65537 (0x10001)
        X509v3 extensions:
            X509v3 Extended Key Usage: 
                Any Extended Key Usage, E-mail Protection
    Signature Algorithm: sha256WithRSAEncryption
         1e:e8:80:85:f3:96:9b:2c:6f:89:43:f1:2f:c6:db:1a:90:db:
         09:3c:b0:d0:ed:50:e1:47:37:fb:a8:9a:6d:bc:ff:6e:c4:7a:
         cc:e4:82:1b:2c:5a:8f:d6:61:93:e8:cb:64:ed:bb:eb:17:e9:
         d3:0a:a7:fe:c6:d1:2a:f0:24:fa:db:c1:94:60:94:7f:f5:9f:
         a1:4a:3a:e8:ed:90:5a:49:e0:8b:32:43:3e:e5:b1:ab:e8:17:
         0e:d1:1e:db:f3:f7:1f:71:89:30:e8:91:b4:cb:68:ca:20:a8:
         9c:30:84:e2:2a:7d:a7:b2:6b:8f:cd:a2:d7:9a:11:4e:c7:25:
         f8:ed:26:15:34:da:a0:e7:43:59:06:54:c5:43:25:b0:ae:e1:
         66:50:48:36:4c:ca:7e:b4:4f:97:90:8a:84:c2:43:db:4d:19:
         cd:5e:be:4c:d8:8d:4e:6b:e4:8b:58:34:11:ba:aa:72:55:54:
         fc:0a:ba:09:e9:4d:0e:73:de:05:41:b6:a8:4a:3f:9e:a2:fa:
         b3:74:07:35:ce:48:ab:9e:cc:08:15:88:6b:86:6b:2d:fe:c5:
         eb:47:d3:f5:d6:1f:92:91:18:d8:bd:3f:2d:a9:1a:83:27:45:
         f1:b7:e0:a5:c3:c3:12:1f:cd:e8:38:5d:43:25:c1:4d:f0:80:
         3a:61:b7:b5:48:9f:66:60:8d:43:11:6a:1a:9a:d1:e2:23:6d:
         72:06:1b:61:ff:e5:14:31:ac:e7:91:6a:91:63:df:ce:48:45:
         97:96:35:62:d1:c0:c5:05:31:1c:e6:44:0e:a7:22:19:ad:35:
         be:3f:99:d4:de:fd:78:c9:c2:98:b2:d1:99:ff:05:4a:39:c0:
         07:c5:4b:5a:d9:80:81:68:1b:a1:e3:3b:79:21:b2:59:09:9a:
         5e:da:3f:96:bb:1f:6e:20:e7:50:b0:14:14:cd:39:ca:65:b5:
         be:8e:dd:4e:de:29:51:66:4e:6e:a1:d4:3b:ce:56:61:fa:d4:
         48:e9:43:f3:df:48:85:47:02:f1:49:0a:7e:14:b1:63:da:02:
         04:56:d0:ee:3d:65:cb:96:60:36:0c:ea:4f:ae:3d:82:70:44:
         1b:bf:4c:2f:56:64:e6:a8:46:b2:0e:32:f4:90:70:98:69:04:
         58:e3:b3:9c:ff:8c:d2:4e:c4:37:29:93:45:ae:ef:be:a9:1b:
         d8:c8:a7:0e:6d:af:9b:2a:5b:16:c7:5d:cc:a1:5c:34:da:81:
         67:bc:ff:89:3f:f5:46:5a:aa:0d:31:a0:bd:4a:79:51:64:88:
         e6:80:ac:9c:58:32:bf:8c:fa:29:c2:2e:d6:8b:9e:a9:b9:fa:
         ce:d4:de:4f:41:f0:52:31
-----BEGIN CERTIFICATE-----
MIIEYzCCAkugAwIBAgICEpMwDQYJKoZIhvcNAQELBQAwgZ0xCzAJBgNVBAYTAkRF
MQ8wDQYDVQQIDAZCYXllcm4xFDASBgNVBAcMC07Dg8K8cm5iZXJnMRMwEQYDVQQK
DApTaWVtZW5zIEFHMRQwEgYDVQQLDAtUcnVzdGNlbnRlcjERMA8GA1UEAwwIT2xp
dmVyQ0ExKTAnBgkqhkiG9w0BCQEWGm9saXZlci5zdGlsbGVyQHNpZW1lbnMuY29t
MB4XDTIwMTAwODExNDkxNFoXDTIxMTAwODExNDkxNFowLDEWMBQGA1UECgwNRG9u
dCB0cnVzdCBtZTESMBAGA1UEAwwJSWdub3JlIG1lMIIBIjANBgkqhkiG9w0BAQEF
AAOCAQ8AMIIBCgKCAQEAor/1L0ZCrJH1Vo7kWb9itsSmIV15SFTWe8Dk/N8J43HG
DEmnhkhYqaOGBjRkb3OMgVSL5VIU1A7zw4rkQqwHxnBtYoOWDduUwyUeP6S6rDO4
x33UNYBpi5u4CEIqKEvY0ClhZlt/7gA2up/FUGJQKH2uqfN3iYr7zLndNVmqEE/C
+aPGlH9shY7bSaM5Jqwgw8Dvp44BQvmM9i7m8Cq+k4OL6yOmN5luAhXrNC+KmQqE
GbT17W8CvsjoCGJ2KIkm5PfMuZFGsBpdLNkC0CKt3E23UHErovOCkuRtIcLU8A8W
TkEa0HpbZX8vX5Xc1kzu4nDqukmamC3Mq2Xm6/1R4QIDAQABox0wGzAZBgNVHSUE
EjAQBgRVHSUABggrBgEFBQcDBDANBgkqhkiG9w0BAQsFAAOCAgEAHuiAhfOWmyxv
iUPxL8bbGpDbCTyw0O1Q4Uc3+6iabbz/bsR6zOSCGyxaj9Zhk+jLZO276xfp0wqn
/sbRKvAk+tvBlGCUf/WfoUo66O2QWkngizJDPuWxq+gXDtEe2/P3H3GJMOiRtMto
yiConDCE4ip9p7Jrj82i15oRTscl+O0mFTTaoOdDWQZUxUMlsK7hZlBINkzKfrRP
l5CKhMJD200ZzV6+TNiNTmvki1g0EbqqclVU/Aq6CelNDnPeBUG2qEo/nqL6s3QH
Nc5Iq57MCBWIa4ZrLf7F60fT9dYfkpEY2L0/LakagydF8bfgpcPDEh/N6DhdQyXB
TfCAOmG3tUifZmCNQxFqGprR4iNtcgYbYf/lFDGs55FqkWPfzkhFl5Y1YtHAxQUx
HOZEDqciGa01vj+Z1N79eMnCmLLRmf8FSjnAB8VLWtmAgWgboeM7eSGyWQmaXto/
lrsfbiDnULAUFM05ymW1vo7dTt4pUWZObqHUO85WYfrUSOlD899IhUcC8UkKfhSx
Y9oCBFbQ7j1ly5ZgNgzqT649gnBEG79ML1Zk5qhGsg4y9JBwmGkEWOOznP+M0k7E
NymTRa7vvqkb2MinDm2vmypbFsddzKFcNNqBZ7z/iT/1RlqqDTGgvUp5UWSI5oCs
nFgyv4z6KcIu1oueqbn6ztTeT0HwUjE=
-----END CERTIFICATE-----
