Certificate:
    Data:
        Version: 3 (0x2)
        Serial Number: 4756 (0x1294)
        Signature Algorithm: sha256WithRSAEncryption
        Issuer: C=DE, ST=Bayern, L=N\xC3\x83\xC2\xBCrnberg, O=Siemens AG, OU=Trustcenter, CN=OliverCA/emailAddress=oliver.stiller@siemens.com
        Validity
            Not Before: Oct  8 11:49:26 2020 GMT
            Not After : Oct  8 11:49:26 2021 GMT
        Subject: O=Dont trust me, CN=Ignore me
        Subject Public Key Info:
            Public Key Algorithm: rsaEncryption
                RSA Public-Key: (2048 bit)
                Modulus:
                    00:c4:e4:c1:38:35:ea:28:b4:cc:5b:9b:3b:51:a7:
                    18:f3:97:f4:15:f7:42:99:2e:67:b4:b6:50:11:ab:
                    e2:48:3e:35:f1:19:1f:d8:26:de:fb:1c:b5:41:51:
                    f9:c4:da:d5:2d:dd:a6:83:92:2f:fc:ab:a2:53:8d:
                    4d:59:5c:e0:c7:5d:35:b5:ba:e0:a4:a8:2c:2f:01:
                    0b:91:63:77:d8:f7:e9:98:69:ce:25:97:32:91:0f:
                    a2:df:b9:b5:ba:4b:a1:ad:41:34:3f:69:91:17:83:
                    53:06:b9:01:ff:4e:ee:d2:87:2b:a6:d6:2e:fe:4e:
                    f2:5c:b1:3c:ab:81:ab:a9:ff:b3:e8:5d:8e:5b:36:
                    cb:98:d5:5f:58:09:87:b9:a3:e6:2e:85:c2:f7:e2:
                    99:3b:98:38:82:43:5d:b9:6e:32:e9:9b:37:14:1f:
                    fd:50:80:b7:a4:23:75:49:a5:f3:04:ac:62:ba:44:
                    1c:31:ac:2e:7f:12:0f:5f:ba:15:0f:3c:c8:42:3f:
                    87:16:87:b0:ee:ba:94:b9:48:6c:23:78:e1:81:fd:
                    bd:e9:26:98:33:fd:0a:bf:42:06:3e:2a:d4:ad:e7:
                    8f:04:70:67:39:99:f1:e9:94:e6:7e:07:63:82:a9:
                    c2:09:4e:19:e2:b2:93:b8:0e:f1:c7:ca:99:c6:a8:
                    6e:1f
                Exponent: 65537 (0x10001)
        X509v3 extensions:
            X509v3 Extended Key Usage: 
                Any Extended Key Usage, E-mail Protection
            OCSP No Check: 

    Signature Algorithm: sha256WithRSAEncryption
         86:ea:b9:d2:df:e9:a2:a4:32:0a:1d:67:a8:df:98:c6:2a:bb:
         91:77:80:24:23:a8:ed:51:f2:fc:d0:ff:ad:e3:06:a2:5d:b9:
         02:78:77:e2:fd:ee:f3:c2:8f:2a:95:69:7c:db:48:94:64:f3:
         e3:50:50:57:92:af:6a:71:40:7a:8e:ed:51:95:85:5c:e5:33:
         2f:c3:2f:34:7d:a6:f8:02:6e:99:12:ad:4d:a2:aa:63:a7:2d:
         5f:1d:33:f8:0c:5d:9c:b5:b6:df:f0:8a:4b:81:17:57:69:74:
         9d:b7:ce:e1:e4:c5:29:fc:a9:c9:86:7e:a5:08:64:46:ed:1e:
         a0:f7:8b:cf:eb:36:a1:cd:65:78:7c:9e:b6:8d:82:e1:cb:0e:
         2e:db:8f:da:40:dc:68:9f:0b:2c:8c:f0:99:70:f1:b2:e7:44:
         ee:ef:e6:6f:f2:20:17:f2:c5:5a:4a:dc:b1:20:4b:f5:35:1f:
         ee:e8:ad:0c:e5:5f:7f:26:32:0a:b0:e4:e7:4f:7a:de:49:78:
         57:c3:48:5e:1c:f8:91:68:8c:80:96:57:bc:74:c0:7f:fa:de:
         21:33:52:80:ff:8e:36:73:4b:58:7a:f1:1f:16:62:bf:4d:ce:
         22:ba:07:48:ff:a8:d9:f5:17:82:4b:96:40:27:c4:bf:d3:cc:
         3d:cb:b8:3e:d3:7d:a9:f4:ce:dc:32:3f:03:a2:33:3a:87:ba:
         25:97:51:ec:46:ff:b6:22:47:e0:4d:ed:e8:39:9d:1f:fc:ad:
         ee:23:41:01:91:1b:ea:1f:d4:a6:71:7d:3e:e1:f0:72:ff:4b:
         07:4f:1f:18:d8:b7:38:c3:83:6a:b8:f9:43:a5:7d:bd:b8:dd:
         12:f9:87:c8:16:0f:f2:d0:17:56:1d:7e:59:64:7d:83:5d:c7:
         d1:ae:74:a3:32:1e:46:2d:c7:09:1e:c9:83:d3:59:bc:a2:21:
         32:d3:54:f0:99:95:70:ee:60:47:75:2f:2a:d4:10:ca:c3:ba:
         04:a5:0b:66:df:da:c0:fa:1b:8c:22:4f:76:e3:c9:81:1e:31:
         ca:d8:ab:02:e5:31:7f:f8:fe:6b:c9:b8:ce:66:7c:36:6a:75:
         6c:e4:ad:30:e3:9e:75:80:24:d9:15:62:b8:ac:ff:81:2f:8b:
         07:70:77:b3:b7:b2:52:ee:17:96:a0:42:36:e3:1c:3b:72:8b:
         6e:34:51:6d:c5:10:a0:50:2e:00:ff:61:76:4a:55:ce:5a:97:
         78:4c:49:1b:ad:67:85:fc:24:fb:89:6b:9f:7b:d1:bf:be:c5:
         86:d0:07:eb:52:24:fe:6e:52:76:4e:26:0e:32:e5:b2:58:9d:
         8f:75:de:38:9d:14:a0:69
-----BEGIN CERTIFICATE-----
MIIEdDCCAlygAwIBAgICEpQwDQYJKoZIhvcNAQELBQAwgZ0xCzAJBgNVBAYTAkRF
MQ8wDQYDVQQIDAZCYXllcm4xFDASBgNVBAcMC07Dg8K8cm5iZXJnMRMwEQYDVQQK
DApTaWVtZW5zIEFHMRQwEgYDVQQLDAtUcnVzdGNlbnRlcjERMA8GA1UEAwwIT2xp
dmVyQ0ExKTAnBgkqhkiG9w0BCQEWGm9saXZlci5zdGlsbGVyQHNpZW1lbnMuY29t
MB4XDTIwMTAwODExNDkyNloXDTIxMTAwODExNDkyNlowLDEWMBQGA1UECgwNRG9u
dCB0cnVzdCBtZTESMBAGA1UEAwwJSWdub3JlIG1lMIIBIjANBgkqhkiG9w0BAQEF
AAOCAQ8AMIIBCgKCAQEAxOTBODXqKLTMW5s7UacY85f0FfdCmS5ntLZQEaviSD41
8Rkf2Cbe+xy1QVH5xNrVLd2mg5Iv/KuiU41NWVzgx101tbrgpKgsLwELkWN32Pfp
mGnOJZcykQ+i37m1ukuhrUE0P2mRF4NTBrkB/07u0ocrptYu/k7yXLE8q4Grqf+z
6F2OWzbLmNVfWAmHuaPmLoXC9+KZO5g4gkNduW4y6Zs3FB/9UIC3pCN1SaXzBKxi
ukQcMawufxIPX7oVDzzIQj+HFoew7rqUuUhsI3jhgf296SaYM/0Kv0IGPirUreeP
BHBnOZnx6ZTmfgdjgqnCCU4Z4rKTuA7xx8qZxqhuHwIDAQABoy4wLDAZBgNVHSUE
EjAQBgRVHSUABggrBgEFBQcDBDAPBgkrBgEFBQcwAQUEAgUAMA0GCSqGSIb3DQEB
CwUAA4ICAQCG6rnS3+mipDIKHWeo35jGKruRd4AkI6jtUfL80P+t4waiXbkCeHfi
/e7zwo8qlWl820iUZPPjUFBXkq9qcUB6ju1RlYVc5TMvwy80fab4Am6ZEq1Noqpj
py1fHTP4DF2ctbbf8IpLgRdXaXSdt87h5MUp/KnJhn6lCGRG7R6g94vP6zahzWV4
fJ62jYLhyw4u24/aQNxonwssjPCZcPGy50Tu7+Zv8iAX8sVaStyxIEv1NR/u6K0M
5V9/JjIKsOTnT3reSXhXw0heHPiRaIyAlle8dMB/+t4hM1KA/442c0tYevEfFmK/
Tc4iugdI/6jZ9ReCS5ZAJ8S/08w9y7g+032p9M7cMj8DojM6h7oll1HsRv+2Ikfg
Te3oOZ0f/K3uI0EBkRvqH9SmcX0+4fBy/0sHTx8Y2Lc4w4NquPlDpX29uN0S+YfI
Fg/y0BdWHX5ZZH2DXcfRrnSjMh5GLccJHsmD01m8oiEy01TwmZVw7mBHdS8q1BDK
w7oEpQtm39rA+huMIk9248mBHjHK2KsC5TF/+P5rybjOZnw2anVs5K0w4551gCTZ
FWK4rP+BL4sHcHezt7JS7heWoEI24xw7cotuNFFtxRCgUC4A/2F2SlXOWpd4TEkb
rWeF/CT7iWufe9G/vsWG0AfrUiT+blJ2TiYOMuWyWJ2Pdd44nRSgaQ==
-----END CERTIFICATE-----
