Certificate:
    Data:
        Version: 3 (0x2)
        Serial Number: 4769 (0x12a1)
        Signature Algorithm: sha256WithRSAEncryption
        Issuer: C=DE, ST=Bayern, L=N\xC3\x83\xC2\xBCrnberg, O=Siemens AG, OU=Trustcenter, CN=OliverCA/emailAddress=oliver.stiller@siemens.com
        Validity
            Not Before: Oct  8 11:51:58 2020 GMT
            Not After : Oct  8 11:51:58 2021 GMT
        Subject: O=Dont trust me, CN=Ignore me
        Subject Public Key Info:
            Public Key Algorithm: rsaEncryption
                RSA Public-Key: (2048 bit)
                Modulus:
                    00:c4:6d:ce:c9:5c:46:e7:72:a8:bb:aa:62:eb:d4:
                    30:34:16:0b:8a:07:c9:83:58:a1:b4:81:c2:f1:ac:
                    ca:9c:8b:35:0e:c5:07:68:c1:0d:0d:92:49:92:2b:
                    71:d4:72:96:e3:02:76:7d:ff:65:97:fb:83:bd:4f:
                    5d:58:ec:3c:76:a1:ee:f9:73:5f:9e:28:57:8f:0b:
                    eb:9e:25:30:c7:d7:b0:e9:f2:f0:a0:90:b2:70:e2:
                    24:f4:9a:f9:0d:09:44:1e:3f:6a:23:fb:d2:a0:ab:
                    b1:e8:9c:38:ba:bb:af:cd:04:32:28:3c:89:1f:da:
                    ee:30:d0:65:7e:b2:0f:2d:7b:17:56:c9:ce:1f:7c:
                    66:68:04:d0:b7:94:9e:03:c0:29:6b:bb:6c:56:11:
                    9c:80:ea:35:fb:1e:57:b0:5d:69:92:af:c7:50:6c:
                    86:b3:c5:fc:37:7b:1f:c0:51:42:51:ce:23:ba:dd:
                    fe:ad:1d:d6:93:dd:7d:02:a9:8d:aa:e7:06:1e:83:
                    e2:3c:e1:6b:94:b3:5e:e6:44:3b:1c:11:cf:66:c5:
                    7e:f7:4b:8b:70:26:a8:27:7b:b6:ee:d1:ed:46:89:
                    98:76:3d:cf:e9:40:57:f3:0e:2a:47:c9:cc:3f:1e:
                    65:ea:ae:ce:87:aa:e3:33:4e:1b:83:f3:72:82:b7:
                    13:35
                Exponent: 65537 (0x10001)
        X509v3 extensions:
            X509v3 Extended Key Usage: 
                E-mail Protection
            OCSP No Check: 

    Signature Algorithm: sha256WithRSAEncryption
         c5:a7:82:94:48:6b:cf:a2:55:b5:4d:99:57:61:97:88:7e:90:
         cd:46:15:82:75:31:af:57:20:81:c7:ce:ac:9c:d1:4b:99:0d:
         86:bc:e6:6c:76:0f:d2:77:c3:42:a0:4e:01:73:3f:b1:39:9e:
         8e:21:34:4f:6c:72:48:36:39:c0:28:7c:a6:44:fc:02:c0:7f:
         43:39:bf:21:8f:04:c9:e1:9a:f4:82:a6:ba:34:c9:56:4c:bc:
         d0:9c:14:9a:c1:ec:07:4d:e8:88:0d:79:2b:16:f4:2e:5a:77:
         4a:d4:46:c2:0c:85:01:36:00:81:f5:d8:07:be:ee:89:d3:68:
         c1:d6:2b:f4:b2:0a:e2:55:cd:23:04:fb:4a:ef:31:94:4c:f6:
         4c:0a:8c:53:95:54:05:d9:0c:78:f6:a7:38:19:d9:01:bd:ce:
         71:6b:14:1d:4c:f0:f3:b3:46:cf:3a:55:4b:f8:e3:14:ee:8d:
         37:a4:22:92:c5:92:58:d2:b4:10:95:a7:04:ec:ac:06:e5:3c:
         98:b9:ff:ec:2c:c3:1b:c0:95:0a:e9:b4:87:2c:06:9d:a5:a9:
         ec:b3:8b:14:cd:71:67:6b:bc:4d:a9:b2:d8:d4:20:fe:96:80:
         77:3b:37:4a:b3:7b:29:00:ee:dc:cb:cb:37:a1:16:99:7b:d1:
         e8:fe:4b:3c:a0:f3:53:29:39:59:36:66:a4:12:58:8b:6a:52:
         bc:35:ad:53:ce:7a:4c:7c:70:49:32:a2:b2:16:c4:18:b3:69:
         28:77:f4:e1:01:ec:38:5c:40:8d:7f:a3:f4:fe:6b:59:e1:e6:
         bf:e5:9d:36:07:0e:51:5d:7d:6e:96:d3:13:b2:3f:ab:e6:3b:
         37:a2:ed:93:8f:ba:f5:de:d7:b5:39:80:30:b3:7b:3f:a1:73:
         7f:64:32:1f:01:cb:b6:8d:7f:ba:b6:f6:a2:b5:0a:ab:9d:c1:
         f9:63:ee:49:b0:3d:4d:02:c4:7c:a1:43:44:04:80:13:1a:86:
         61:0d:94:5e:bb:7a:94:75:11:9f:48:e4:c0:1a:4a:79:15:04:
         4b:27:a8:8e:76:dd:7d:a4:bb:41:8d:a1:7c:f1:f1:98:3a:f1:
         e4:2e:47:30:52:bf:f5:5c:40:3b:58:cb:98:3d:c2:76:2b:dc:
         e6:77:c5:87:4f:74:0d:93:95:d7:9c:06:72:aa:f8:46:12:10:
         8a:0d:32:00:15:38:90:c2:5b:55:29:2a:8c:eb:14:d7:eb:c7:
         c6:cd:bf:46:3e:78:bb:63:b1:e8:b6:88:79:cf:f3:4a:d9:01:
         84:d2:d5:f7:38:d1:d1:80:87:dc:7f:73:d5:2d:00:40:67:0f:
         2e:1e:07:65:ef:4b:5b:e6
-----BEGIN CERTIFICATE-----
MIIEbjCCAlagAwIBAgICEqEwDQYJKoZIhvcNAQELBQAwgZ0xCzAJBgNVBAYTAkRF
MQ8wDQYDVQQIDAZCYXllcm4xFDASBgNVBAcMC07Dg8K8cm5iZXJnMRMwEQYDVQQK
DApTaWVtZW5zIEFHMRQwEgYDVQQLDAtUcnVzdGNlbnRlcjERMA8GA1UEAwwIT2xp
dmVyQ0ExKTAnBgkqhkiG9w0BCQEWGm9saXZlci5zdGlsbGVyQHNpZW1lbnMuY29t
MB4XDTIwMTAwODExNTE1OFoXDTIxMTAwODExNTE1OFowLDEWMBQGA1UECgwNRG9u
dCB0cnVzdCBtZTESMBAGA1UEAwwJSWdub3JlIG1lMIIBIjANBgkqhkiG9w0BAQEF
AAOCAQ8AMIIBCgKCAQEAxG3OyVxG53Kou6pi69QwNBYLigfJg1ihtIHC8azKnIs1
DsUHaMENDZJJkitx1HKW4wJ2ff9ll/uDvU9dWOw8dqHu+XNfnihXjwvrniUwx9ew
6fLwoJCycOIk9Jr5DQlEHj9qI/vSoKux6Jw4uruvzQQyKDyJH9ruMNBlfrIPLXsX
VsnOH3xmaATQt5SeA8Apa7tsVhGcgOo1+x5XsF1pkq/HUGyGs8X8N3sfwFFCUc4j
ut3+rR3Wk919AqmNqucGHoPiPOFrlLNe5kQ7HBHPZsV+90uLcCaoJ3u27tHtRomY
dj3P6UBX8w4qR8nMPx5l6q7Oh6rjM04bg/NygrcTNQIDAQABoygwJjATBgNVHSUE
DDAKBggrBgEFBQcDBDAPBgkrBgEFBQcwAQUEAgUAMA0GCSqGSIb3DQEBCwUAA4IC
AQDFp4KUSGvPolW1TZlXYZeIfpDNRhWCdTGvVyCBx86snNFLmQ2GvOZsdg/Sd8NC
oE4Bcz+xOZ6OITRPbHJINjnAKHymRPwCwH9DOb8hjwTJ4Zr0gqa6NMlWTLzQnBSa
wewHTeiIDXkrFvQuWndK1EbCDIUBNgCB9dgHvu6J02jB1iv0sgriVc0jBPtK7zGU
TPZMCoxTlVQF2Qx49qc4GdkBvc5xaxQdTPDzs0bPOlVL+OMU7o03pCKSxZJY0rQQ
lacE7KwG5TyYuf/sLMMbwJUK6bSHLAadpanss4sUzXFna7xNqbLY1CD+loB3OzdK
s3spAO7cy8s3oRaZe9Ho/ks8oPNTKTlZNmakEliLalK8Na1TznpMfHBJMqKyFsQY
s2kod/ThAew4XECNf6P0/mtZ4ea/5Z02Bw5RXX1ultMTsj+r5js3ou2Tj7r13te1
OYAws3s/oXN/ZDIfAcu2jX+6tvaitQqrncH5Y+5JsD1NAsR8oUNEBIATGoZhDZRe
u3qUdRGfSOTAGkp5FQRLJ6iOdt19pLtBjaF88fGYOvHkLkcwUr/1XEA7WMuYPcJ2
K9zmd8WHT3QNk5XXnAZyqvhGEhCKDTIAFTiQwltVKSqM6xTX68fGzb9GPni7Y7Ho
toh5z/NK2QGE0tX3ONHRgIfcf3PVLQBAZw8uHgdl70tb5g==
-----END CERTIFICATE-----
