Certificate:
    Data:
        Version: 3 (0x2)
        Serial Number: 4740 (0x1284)
        Signature Algorithm: sha256WithRSAEncryption
        Issuer: C=DE, ST=Bayern, L=N\xC3\x83\xC2\xBCrnberg, O=Siemens AG, OU=Trustcenter, CN=OliverCA/emailAddress=oliver.stiller@siemens.com
        Validity
            Not Before: Oct  7 11:29:02 2020 GMT
            Not After : Oct  7 11:29:02 2021 GMT
        Subject: O=Dont trust me, CN=Ignore me
        Subject Public Key Info:
            Public Key Algorithm: rsaEncryption
                RSA Public-Key: (2048 bit)
                Modulus:
                    00:ba:8e:1b:eb:4b:9c:2b:9e:45:9a:9e:5e:0a:4d:
                    22:17:d3:4e:f2:cc:22:d1:3e:03:96:d6:48:92:ce:
                    7b:6b:8b:1c:fd:4b:76:b2:9b:78:b6:2e:eb:57:7f:
                    ef:19:bc:4d:9f:8b:25:87:08:a0:df:09:8a:73:06:
                    33:3b:e2:e8:ba:86:ea:66:66:ff:97:c6:ae:2a:ac:
                    95:37:b3:4f:6e:7d:15:c3:64:a7:4c:df:a0:02:f2:
                    1b:e1:c4:1c:06:d1:b0:ad:05:5f:6d:e8:55:d0:2f:
                    8c:0d:b7:0e:95:dc:ac:79:32:e2:d3:05:67:5b:e0:
                    44:f9:dc:81:14:4a:1e:a9:75:05:06:a8:05:07:21:
                    e2:ca:b8:31:d3:b5:4d:d5:4f:14:07:9d:63:e4:34:
                    24:6f:78:7d:e8:fc:58:15:35:60:f8:e9:45:7b:19:
                    06:b1:0f:28:67:a8:4b:10:f3:79:0c:c4:e2:8a:67:
                    c2:3a:68:0c:e7:f8:26:ab:2c:ec:8c:6b:ad:75:1d:
                    b0:f6:48:32:07:9a:72:94:15:8e:b6:aa:90:29:89:
                    5d:60:6b:dd:d7:3a:09:e4:d4:6f:c0:70:99:c6:9d:
                    3c:44:f8:8d:c7:2a:4d:c4:db:90:7d:a6:13:74:69:
                    77:50:04:ce:1b:99:b9:c1:fd:6a:cb:43:28:89:67:
                    a4:ed
                Exponent: 65537 (0x10001)
        X509v3 extensions:
            X509v3 Extended Key Usage: 
                Any Extended Key Usage
            OCSP No Check: 

    Signature Algorithm: sha256WithRSAEncryption
         80:d6:16:b8:0d:7c:e4:c6:09:b2:41:39:1e:d8:06:52:e4:5d:
         cc:ff:32:7e:c1:dc:cf:4f:ca:91:84:a3:fb:30:56:02:5b:d9:
         ad:ae:0b:ad:94:46:1a:95:e5:d8:c4:20:2b:8c:d4:5a:e3:f9:
         2b:76:c0:88:53:e7:35:90:33:a7:27:c0:9c:a4:30:9f:c4:5a:
         e3:30:dd:f1:23:d5:06:19:2f:9c:51:e8:da:ca:7f:a6:47:ad:
         42:f7:4b:da:07:b3:40:ac:82:37:59:fa:e4:e0:19:7c:7e:15:
         e6:33:0a:7b:8d:51:f2:49:fb:94:8d:75:6c:6d:55:f4:db:06:
         55:84:93:a9:20:11:f9:80:19:f3:52:75:79:77:8d:1f:5a:9a:
         c1:f7:67:ce:46:e1:18:a9:47:ef:09:9e:90:95:d4:d6:57:88:
         d3:3b:74:16:73:bf:a4:fd:84:63:2f:dd:e0:81:f9:82:5a:20:
         11:51:92:c1:5d:81:8c:93:28:3b:d3:99:24:7c:e3:3b:eb:85:
         9f:5e:93:e6:bb:e7:f2:a4:88:3f:d2:49:aa:1f:7f:0b:74:42:
         60:9a:a2:ab:c9:4f:7f:29:cb:66:6c:e0:32:c7:40:c8:41:69:
         d9:f6:b8:4d:28:31:cd:fc:d4:8c:f0:1d:a9:d9:51:69:fc:50:
         37:ea:60:ab:2e:fd:bc:69:ee:6d:0d:f6:cd:e9:28:42:db:62:
         ed:bd:31:6e:54:f5:42:b8:33:91:b2:94:11:1a:ab:24:fe:75:
         7e:74:bf:7e:a8:ae:3e:47:6a:15:5d:6b:28:e9:f1:34:64:9e:
         a2:d2:4c:0d:2e:28:ff:16:58:28:be:9b:8e:4a:7d:5f:83:c5:
         fa:7f:7a:f2:a8:68:58:96:ad:47:9e:cd:7e:d6:27:51:17:e6:
         50:bf:fb:15:29:10:de:9b:4b:6b:06:00:94:0a:58:4a:0b:63:
         3c:af:cd:34:91:a3:45:d2:99:de:48:cd:86:82:2b:68:4d:a6:
         da:33:48:a1:d1:d8:c2:6d:37:94:a5:ab:c5:96:3a:e7:73:73:
         31:df:77:40:78:18:72:db:f3:38:c7:67:43:83:4e:ed:1d:97:
         b2:98:c7:e4:7f:73:a6:ff:a8:8c:4e:25:cd:ee:4a:a3:b8:33:
         6a:d7:cc:b4:75:9b:2b:cc:dd:3d:71:43:9b:67:91:00:f2:c8:
         46:6e:04:6e:88:9c:7f:4e:40:d0:99:4a:ab:93:6c:30:1d:a3:
         b4:b8:cc:9d:8a:21:8e:81:57:6a:38:02:80:e5:55:9f:7f:7b:
         63:a2:9d:cf:ca:7b:1b:3a:3f:5e:2c:4f:bc:93:29:db:78:f1:
         d5:f0:39:a1:7d:e5:9f:89
-----BEGIN CERTIFICATE-----
MIIEajCCAlKgAwIBAgICEoQwDQYJKoZIhvcNAQELBQAwgZ0xCzAJBgNVBAYTAkRF
MQ8wDQYDVQQIDAZCYXllcm4xFDASBgNVBAcMC07Dg8K8cm5iZXJnMRMwEQYDVQQK
DApTaWVtZW5zIEFHMRQwEgYDVQQLDAtUcnVzdGNlbnRlcjERMA8GA1UEAwwIT2xp
dmVyQ0ExKTAnBgkqhkiG9w0BCQEWGm9saXZlci5zdGlsbGVyQHNpZW1lbnMuY29t
MB4XDTIwMTAwNzExMjkwMloXDTIxMTAwNzExMjkwMlowLDEWMBQGA1UECgwNRG9u
dCB0cnVzdCBtZTESMBAGA1UEAwwJSWdub3JlIG1lMIIBIjANBgkqhkiG9w0BAQEF
AAOCAQ8AMIIBCgKCAQEAuo4b60ucK55Fmp5eCk0iF9NO8swi0T4DltZIks57a4sc
/Ut2spt4ti7rV3/vGbxNn4slhwig3wmKcwYzO+LouobqZmb/l8auKqyVN7NPbn0V
w2SnTN+gAvIb4cQcBtGwrQVfbehV0C+MDbcOldyseTLi0wVnW+BE+dyBFEoeqXUF
BqgFByHiyrgx07VN1U8UB51j5DQkb3h96PxYFTVg+OlFexkGsQ8oZ6hLEPN5DMTi
imfCOmgM5/gmqyzsjGutdR2w9kgyB5pylBWOtqqQKYldYGvd1zoJ5NRvwHCZxp08
RPiNxypNxNuQfaYTdGl3UATOG5m5wf1qy0MoiWek7QIDAQABoyQwIjAPBgNVHSUE
CDAGBgRVHSUAMA8GCSsGAQUFBzABBQQCBQAwDQYJKoZIhvcNAQELBQADggIBAIDW
FrgNfOTGCbJBOR7YBlLkXcz/Mn7B3M9PypGEo/swVgJb2a2uC62URhqV5djEICuM
1Frj+St2wIhT5zWQM6cnwJykMJ/EWuMw3fEj1QYZL5xR6NrKf6ZHrUL3S9oHs0Cs
gjdZ+uTgGXx+FeYzCnuNUfJJ+5SNdWxtVfTbBlWEk6kgEfmAGfNSdXl3jR9amsH3
Z85G4RipR+8JnpCV1NZXiNM7dBZzv6T9hGMv3eCB+YJaIBFRksFdgYyTKDvTmSR8
4zvrhZ9ek+a75/KkiD/SSaoffwt0QmCaoqvJT38py2Zs4DLHQMhBadn2uE0oMc38
1IzwHanZUWn8UDfqYKsu/bxp7m0N9s3pKELbYu29MW5U9UK4M5GylBEaqyT+dX50
v36orj5HahVdayjp8TRknqLSTA0uKP8WWCi+m45KfV+Dxfp/evKoaFiWrUeezX7W
J1EX5lC/+xUpEN6bS2sGAJQKWEoLYzyvzTSRo0XSmd5IzYaCK2hNptozSKHR2MJt
N5Slq8WWOudzczHfd0B4GHLb8zjHZ0ODTu0dl7KYx+R/c6b/qIxOJc3uSqO4M2rX
zLR1myvM3T1xQ5tnkQDyyEZuBG6InH9OQNCZSquTbDAdo7S4zJ2KIY6BV2o4AoDl
VZ9/e2Oinc/Kexs6P14sT7yTKdt48dXwOaF95Z+J
-----END CERTIFICATE-----
