Certificate:
    Data:
        Version: 3 (0x2)
        Serial Number: 4738 (0x1282)
        Signature Algorithm: sha256WithRSAEncryption
        Issuer: C=DE, ST=Bayern, L=N\xC3\x83\xC2\xBCrnberg, O=Siemens AG, OU=Trustcenter, CN=OliverCA/emailAddress=oliver.stiller@siemens.com
        Validity
            Not Before: Oct  7 11:28:38 2020 GMT
            Not After : Oct  7 11:28:38 2021 GMT
        Subject: O=Dont trust me, CN=Ignore me
        Subject Public Key Info:
            Public Key Algorithm: rsaEncryption
                RSA Public-Key: (2048 bit)
                Modulus:
                    00:c6:c9:f5:a0:e5:25:f1:ff:19:0a:a1:cf:b6:38:
                    17:b4:f8:80:a3:b2:05:fc:f8:b2:97:3b:03:37:3d:
                    4d:5f:22:45:6c:2c:8e:94:99:e4:e3:e0:9a:87:75:
                    97:6d:e6:8a:a7:92:cb:95:d9:bb:67:35:0e:8d:96:
                    5c:93:54:e5:06:0c:27:95:ba:5b:fc:87:22:d4:85:
                    76:e0:68:73:44:fb:dc:60:85:22:87:34:a0:94:31:
                    ba:ae:45:8c:83:15:57:b0:85:34:e5:73:8f:88:d2:
                    03:ab:c6:bd:2f:fa:97:1b:94:ce:80:8b:26:92:49:
                    93:9b:4e:df:79:21:40:53:be:fc:8e:58:7b:6e:0d:
                    52:0a:3b:fa:c6:5e:d8:8c:74:ef:69:86:90:c7:ed:
                    71:5a:1b:28:10:1e:61:cb:9d:06:c6:02:9c:ed:5a:
                    5c:32:5c:22:fc:35:c3:61:9f:8b:7a:0d:53:bf:d8:
                    49:7b:b1:3a:5f:c6:78:5a:05:18:7e:0d:61:e1:a7:
                    0f:56:56:29:4c:e1:3b:cb:f9:24:c2:78:91:90:08:
                    b2:ec:6e:fa:e5:53:cc:9e:fa:a7:bb:10:63:1b:01:
                    97:d8:1b:66:69:2e:b8:46:5d:d5:2f:34:5d:ca:21:
                    af:00:0d:53:11:dc:a4:aa:a9:2e:d9:e8:45:43:2b:
                    97:53
                Exponent: 65537 (0x10001)
        X509v3 extensions:
            OCSP No Check: 

    Signature Algorithm: sha256WithRSAEncryption
         aa:94:74:54:4e:ab:e6:ea:b1:8b:70:57:5c:68:f1:bf:be:ff:
         3b:71:fd:72:61:b4:a2:91:d6:46:5c:24:ec:a0:9d:d3:b0:39:
         e7:08:2a:c3:0d:07:de:7b:f0:89:33:c9:62:78:65:a3:74:12:
         0c:22:4b:d7:bd:9a:85:b7:a0:bc:43:4f:bb:b3:e4:ad:08:6a:
         58:48:ef:6e:85:aa:cf:6a:46:3f:65:a1:f2:36:d2:78:ee:4a:
         cc:2b:a0:49:7e:a5:05:2f:a3:f8:06:fe:34:07:29:93:01:cf:
         a2:af:c8:59:77:aa:00:53:ad:cd:c7:64:1b:80:46:cd:90:49:
         d0:a7:8c:7c:58:ec:f5:50:27:d4:45:a2:d1:47:ef:74:92:78:
         cd:2c:69:15:e1:36:d0:dc:0e:b4:58:41:af:39:0a:75:40:a4:
         8a:d7:ed:c6:bb:c4:bb:b0:76:6d:af:8f:c6:83:eb:8a:5c:2f:
         04:44:a3:3c:08:91:1a:29:59:61:75:f9:a6:8a:e0:c1:70:cf:
         73:86:71:71:40:7b:c7:7f:e8:ab:84:b2:54:1f:65:d8:69:bb:
         0e:02:a8:4d:aa:e6:33:46:12:5e:3d:25:2c:9c:f2:db:ad:27:
         f7:a6:97:94:93:01:f9:4e:b9:48:5b:29:cf:59:74:36:f8:a7:
         22:28:0a:29:cc:75:ed:81:1e:46:36:be:b8:2e:51:37:6c:0d:
         da:12:1d:58:92:50:0b:46:23:1b:29:92:d0:a6:88:b2:d9:5e:
         85:6a:a7:ac:cd:8c:c2:e9:70:a1:00:9e:72:b3:05:c4:2d:13:
         0b:61:0b:99:c7:49:e2:c4:d6:d0:8c:05:51:47:a2:e0:c4:55:
         dd:e4:2e:ff:20:ba:07:2f:40:e3:8e:9d:34:c0:6b:d2:37:55:
         2d:39:16:9d:4e:44:1c:36:c8:1c:86:ce:b6:cd:c2:e7:7b:68:
         5c:b9:77:8c:3a:22:2f:8f:68:1c:bc:b8:c4:ef:2f:ce:d2:cf:
         7c:bb:f8:a7:46:cc:b3:fb:06:e5:0e:2b:4a:34:f5:69:1c:ec:
         f9:c8:1d:dd:59:e5:5e:e5:cf:d6:89:42:10:a6:80:3d:13:42:
         9c:01:11:6a:b4:3e:b1:0b:2b:cd:35:24:ea:d5:12:11:31:79:
         a4:19:79:87:c6:f1:d8:32:80:c7:45:30:45:60:fa:15:dd:6b:
         d9:11:f6:41:5c:cd:9b:08:85:7a:5b:34:b4:05:cd:15:49:df:
         11:cd:6f:e1:d4:ee:1c:9a:64:cc:35:6b:be:aa:b7:aa:73:d9:
         49:c3:62:73:11:88:40:c1:ba:50:0c:32:a9:e5:fa:b9:c1:09:
         12:b0:25:6f:01:43:ea:be
-----BEGIN CERTIFICATE-----
MIIEWTCCAkGgAwIBAgICEoIwDQYJKoZIhvcNAQELBQAwgZ0xCzAJBgNVBAYTAkRF
MQ8wDQYDVQQIDAZCYXllcm4xFDASBgNVBAcMC07Dg8K8cm5iZXJnMRMwEQYDVQQK
DApTaWVtZW5zIEFHMRQwEgYDVQQLDAtUcnVzdGNlbnRlcjERMA8GA1UEAwwIT2xp
dmVyQ0ExKTAnBgkqhkiG9w0BCQEWGm9saXZlci5zdGlsbGVyQHNpZW1lbnMuY29t
MB4XDTIwMTAwNzExMjgzOFoXDTIxMTAwNzExMjgzOFowLDEWMBQGA1UECgwNRG9u
dCB0cnVzdCBtZTESMBAGA1UEAwwJSWdub3JlIG1lMIIBIjANBgkqhkiG9w0BAQEF
AAOCAQ8AMIIBCgKCAQEAxsn1oOUl8f8ZCqHPtjgXtPiAo7IF/PiylzsDNz1NXyJF
bCyOlJnk4+Cah3WXbeaKp5LLldm7ZzUOjZZck1TlBgwnlbpb/Ici1IV24GhzRPvc
YIUihzSglDG6rkWMgxVXsIU05XOPiNIDq8a9L/qXG5TOgIsmkkmTm07feSFAU778
jlh7bg1SCjv6xl7YjHTvaYaQx+1xWhsoEB5hy50GxgKc7VpcMlwi/DXDYZ+Leg1T
v9hJe7E6X8Z4WgUYfg1h4acPVlYpTOE7y/kkwniRkAiy7G765VPMnvqnuxBjGwGX
2BtmaS64Rl3VLzRdyiGvAA1TEdykqqku2ehFQyuXUwIDAQABoxMwETAPBgkrBgEF
BQcwAQUEAgUAMA0GCSqGSIb3DQEBCwUAA4ICAQCqlHRUTqvm6rGLcFdcaPG/vv87
cf1yYbSikdZGXCTsoJ3TsDnnCCrDDQfee/CJM8lieGWjdBIMIkvXvZqFt6C8Q0+7
s+StCGpYSO9uharPakY/ZaHyNtJ47krMK6BJfqUFL6P4Bv40BymTAc+ir8hZd6oA
U63Nx2QbgEbNkEnQp4x8WOz1UCfURaLRR+90knjNLGkV4TbQ3A60WEGvOQp1QKSK
1+3Gu8S7sHZtr4/Gg+uKXC8ERKM8CJEaKVlhdfmmiuDBcM9zhnFxQHvHf+irhLJU
H2XYabsOAqhNquYzRhJePSUsnPLbrSf3ppeUkwH5TrlIWynPWXQ2+KciKAopzHXt
gR5GNr64LlE3bA3aEh1YklALRiMbKZLQpoiy2V6FaqeszYzC6XChAJ5yswXELRML
YQuZx0nixNbQjAVRR6LgxFXd5C7/ILoHL0Djjp00wGvSN1UtORadTkQcNsgchs62
zcLne2hcuXeMOiIvj2gcvLjE7y/O0s98u/inRsyz+wblDitKNPVpHOz5yB3dWeVe
5c/WiUIQpoA9E0KcARFqtD6xCyvNNSTq1RIRMXmkGXmHxvHYMoDHRTBFYPoV3WvZ
EfZBXM2bCIV6WzS0Bc0VSd8RzW/h1O4cmmTMNWu+qreqc9lJw2JzEYhAwbpQDDKp
5fq5wQkSsCVvAUPqvg==
-----END CERTIFICATE-----
