Certificate:
    Data:
        Version: 3 (0x2)
        Serial Number: 4754 (0x1292)
        Signature Algorithm: sha256WithRSAEncryption
        Issuer: C=DE, ST=Bayern, L=N\xC3\x83\xC2\xBCrnberg, O=Siemens AG, OU=Trustcenter, CN=OliverCA/emailAddress=oliver.stiller@siemens.com
        Validity
            Not Before: Oct  8 11:49:02 2020 GMT
            Not After : Oct  8 11:49:02 2021 GMT
        Subject: O=Dont trust me, CN=Ignore me
        Subject Public Key Info:
            Public Key Algorithm: rsaEncryption
                RSA Public-Key: (2048 bit)
                Modulus:
                    00:a7:45:75:07:af:df:22:ac:11:42:e9:e8:0b:29:
                    99:9d:b8:26:10:40:fa:e1:bf:1c:3d:82:da:b0:a3:
                    06:a4:21:7e:a7:97:95:46:99:9a:6e:e4:ef:1d:fb:
                    8a:f9:9f:74:a6:8f:44:05:d2:04:e8:e3:23:09:58:
                    c6:1d:64:81:b1:bc:70:59:8e:1c:c0:e6:03:82:34:
                    8c:9a:76:5f:31:7a:06:b1:d8:9d:db:81:d8:1f:ef:
                    98:af:25:cf:63:02:e1:2f:5d:64:98:a9:2c:3a:24:
                    9e:b9:a9:e7:9f:d8:20:08:98:b4:64:dc:95:ae:94:
                    cb:da:9e:0f:9b:8b:8d:09:0c:75:2b:d8:d6:8a:a0:
                    c7:76:e5:8a:af:17:be:6f:ca:e5:3c:e8:8c:5e:27:
                    c7:d7:16:98:98:c5:a3:28:8b:c1:b9:a3:9a:4e:63:
                    44:e5:f4:c2:f2:1e:59:e6:02:48:6c:24:c7:3e:fc:
                    e0:bf:f1:3c:05:e9:74:71:59:2a:04:30:ad:ff:e8:
                    e3:68:08:67:8e:2b:ff:01:0d:8e:f6:72:aa:2c:1e:
                    be:1d:83:8d:2b:10:78:fc:f8:31:ad:0c:d7:58:8b:
                    9b:87:fa:63:9a:96:8b:24:fe:b7:0d:77:a3:c1:b2:
                    ef:fa:12:aa:0c:77:58:e2:51:13:b4:78:73:29:2b:
                    da:e5
                Exponent: 65537 (0x10001)
        X509v3 extensions:
            X509v3 Extended Key Usage: 
                E-mail Protection
            OCSP No Check: 

    Signature Algorithm: sha256WithRSAEncryption
         80:9d:70:f4:72:12:c9:92:e9:08:69:d3:24:84:df:d1:ee:a8:
         ca:91:bd:bf:02:0a:d1:0b:cd:f0:59:d3:18:94:91:96:ec:03:
         1e:34:51:ff:93:bc:b5:62:46:71:ed:da:a2:47:38:36:a0:a4:
         e8:a3:48:cb:b6:c6:f2:c6:a7:bc:39:d9:04:1f:6b:97:60:b8:
         7a:b7:df:89:30:02:20:77:56:fe:80:47:76:1d:a5:45:fd:a9:
         f7:3d:2b:18:26:9e:2a:ae:f8:39:31:87:30:a8:f5:9a:0d:95:
         b2:9d:4d:b4:4b:24:40:e1:2e:cc:7b:17:74:1c:1c:ea:1d:56:
         ec:14:87:ce:77:c8:d2:23:9a:a5:92:53:0f:96:4f:a4:6f:f3:
         84:cc:0f:26:4f:95:c9:48:0c:fb:27:89:54:1f:75:3c:f0:3d:
         dd:a9:7f:2c:a9:bd:6e:4b:69:6c:cd:3c:c1:bd:20:f7:17:2a:
         35:9e:e3:56:af:86:85:73:69:4a:2c:ba:d0:3b:b5:d1:69:25:
         fe:c8:29:65:39:07:ac:31:2c:8c:64:41:9b:f2:62:69:ef:3c:
         4a:99:e4:dd:9a:56:fe:aa:bc:20:20:97:7d:7c:7e:7f:0e:46:
         cc:c8:0f:e3:f3:2a:45:16:f5:97:a8:89:fd:0f:96:ab:98:c9:
         57:c9:0d:b8:de:3b:13:d2:ac:07:1f:5d:3b:cb:6a:44:f1:2b:
         ff:7d:1e:8e:53:77:1e:9a:b2:d4:62:e7:0a:94:dd:52:ce:61:
         c0:26:72:f8:4f:c5:be:34:f8:4b:91:de:4e:ab:71:12:27:1c:
         8f:db:2a:c3:30:df:1e:ba:7c:cf:9c:a9:f0:2f:30:77:ba:de:
         38:9f:13:ca:2f:1d:01:da:92:81:5c:68:8f:ec:11:38:4c:24:
         f3:86:82:70:80:c3:45:73:19:31:1f:d0:3b:93:f4:ff:d4:d0:
         70:05:44:66:6e:b1:32:aa:52:65:aa:85:9e:48:0b:ea:75:8d:
         1a:9c:1d:e7:54:e8:4c:55:9a:2c:30:50:06:26:77:5c:f9:23:
         d6:e4:a9:a2:0e:55:9c:da:8d:24:f8:4c:2e:5f:6e:ec:8d:b6:
         16:f7:16:ab:24:f9:e3:ff:23:f7:94:ab:ee:2c:0c:69:ad:51:
         1c:48:37:af:81:b9:3c:2a:b6:bb:87:bc:aa:31:5d:12:9f:ed:
         25:be:0e:6d:02:bd:c9:24:5c:aa:e3:f7:b0:96:90:da:ed:4e:
         fd:13:ca:3d:09:7e:e3:83:01:02:ea:ca:2b:e1:19:ad:48:e9:
         5f:1d:0a:08:8c:c6:5e:26:c6:84:f8:88:63:e8:ea:76:ee:aa:
         00:d4:a3:dc:6f:38:3f:24
-----BEGIN CERTIFICATE-----
MIIEbjCCAlagAwIBAgICEpIwDQYJKoZIhvcNAQELBQAwgZ0xCzAJBgNVBAYTAkRF
MQ8wDQYDVQQIDAZCYXllcm4xFDASBgNVBAcMC07Dg8K8cm5iZXJnMRMwEQYDVQQK
DApTaWVtZW5zIEFHMRQwEgYDVQQLDAtUcnVzdGNlbnRlcjERMA8GA1UEAwwIT2xp
dmVyQ0ExKTAnBgkqhkiG9w0BCQEWGm9saXZlci5zdGlsbGVyQHNpZW1lbnMuY29t
MB4XDTIwMTAwODExNDkwMloXDTIxMTAwODExNDkwMlowLDEWMBQGA1UECgwNRG9u
dCB0cnVzdCBtZTESMBAGA1UEAwwJSWdub3JlIG1lMIIBIjANBgkqhkiG9w0BAQEF
AAOCAQ8AMIIBCgKCAQEAp0V1B6/fIqwRQunoCymZnbgmEED64b8cPYLasKMGpCF+
p5eVRpmabuTvHfuK+Z90po9EBdIE6OMjCVjGHWSBsbxwWY4cwOYDgjSMmnZfMXoG
sdid24HYH++YryXPYwLhL11kmKksOiSeuannn9ggCJi0ZNyVrpTL2p4Pm4uNCQx1
K9jWiqDHduWKrxe+b8rlPOiMXifH1xaYmMWjKIvBuaOaTmNE5fTC8h5Z5gJIbCTH
Pvzgv/E8Bel0cVkqBDCt/+jjaAhnjiv/AQ2O9nKqLB6+HYONKxB4/PgxrQzXWIub
h/pjmpaLJP63DXejwbLv+hKqDHdY4lETtHhzKSva5QIDAQABoygwJjATBgNVHSUE
DDAKBggrBgEFBQcDBDAPBgkrBgEFBQcwAQUEAgUAMA0GCSqGSIb3DQEBCwUAA4IC
AQCAnXD0chLJkukIadMkhN/R7qjKkb2/AgrRC83wWdMYlJGW7AMeNFH/k7y1YkZx
7dqiRzg2oKToo0jLtsbyxqe8OdkEH2uXYLh6t9+JMAIgd1b+gEd2HaVF/an3PSsY
Jp4qrvg5MYcwqPWaDZWynU20SyRA4S7Mexd0HBzqHVbsFIfOd8jSI5qlklMPlk+k
b/OEzA8mT5XJSAz7J4lUH3U88D3dqX8sqb1uS2lszTzBvSD3Fyo1nuNWr4aFc2lK
LLrQO7XRaSX+yCllOQesMSyMZEGb8mJp7zxKmeTdmlb+qrwgIJd9fH5/DkbMyA/j
8ypFFvWXqIn9D5armMlXyQ243jsT0qwHH107y2pE8Sv/fR6OU3cemrLUYucKlN1S
zmHAJnL4T8W+NPhLkd5Oq3ESJxyP2yrDMN8eunzPnKnwLzB3ut44nxPKLx0B2pKB
XGiP7BE4TCTzhoJwgMNFcxkxH9A7k/T/1NBwBURmbrEyqlJlqoWeSAvqdY0anB3n
VOhMVZosMFAGJndc+SPW5KmiDlWc2o0k+EwuX27sjbYW9xarJPnj/yP3lKvuLAxp
rVEcSDevgbk8Kra7h7yqMV0Sn+0lvg5tAr3JJFyq4/ewlpDa7U79E8o9CX7jgwEC
6sor4RmtSOlfHQoIjMZeJsaE+Ihj6Op27qoA1KPcbzg/JA==
-----END CERTIFICATE-----
