Certificate:
    Data:
        Version: 1 (0x0)
        Serial Number: 4737 (0x1281)
        Signature Algorithm: sha256WithRSAEncryption
        Issuer: C=DE, ST=Bayern, L=N\xC3\x83\xC2\xBCrnberg, O=Siemens AG, OU=Trustcenter, CN=OliverCA/emailAddress=oliver.stiller@siemens.com
        Validity
            Not Before: Oct  7 11:28:17 2020 GMT
            Not After : Oct  7 11:28:17 2021 GMT
        Subject: O=Dont trust me, CN=Ignore me
        Subject Public Key Info:
            Public Key Algorithm: rsaEncryption
                RSA Public-Key: (2048 bit)
                Modulus:
                    00:a2:a6:8b:23:af:83:40:ed:ef:4e:f5:4e:f3:42:
                    d7:00:5e:c3:b9:f8:7a:8f:3f:13:f5:86:cd:46:43:
                    84:7d:dc:f1:15:e9:a4:9e:a8:14:ba:bc:f6:e4:35:
                    43:b2:0d:35:c2:32:f3:1a:b6:dc:cf:7e:9e:9e:25:
                    54:c3:c9:6c:47:5d:70:83:1a:f8:59:38:4a:cd:96:
                    12:71:0a:f1:aa:57:20:c0:87:6f:ab:2c:26:4d:e5:
                    05:fe:61:3a:5e:36:90:83:c6:ef:9f:d5:f7:ee:b6:
                    ac:b4:8b:ed:3a:91:27:77:36:18:64:75:53:33:6e:
                    6b:9a:a5:14:30:c5:3f:10:04:a7:53:aa:d6:de:40:
                    09:be:a8:75:ab:c8:5e:27:62:c3:94:7f:52:63:50:
                    15:4a:cb:8f:06:bb:07:c5:d2:4f:1d:2d:81:83:eb:
                    f2:cf:4f:00:af:40:14:88:52:e6:20:93:c6:fb:cf:
                    4e:4d:a3:85:8e:a3:cf:01:81:67:dc:4d:04:aa:2e:
                    ce:ba:22:2c:9a:98:1d:10:db:de:4f:18:65:86:50:
                    bd:0f:df:c7:35:f4:c0:21:1a:60:87:72:b5:ee:fc:
                    f6:fc:8f:c4:d1:1b:8f:aa:76:27:a4:aa:79:63:90:
                    f9:9a:c4:d7:78:cc:32:de:de:d1:e7:83:57:7b:c9:
                    19:7b
                Exponent: 65537 (0x10001)
    Signature Algorithm: sha256WithRSAEncryption
         2d:09:42:47:e7:a9:39:94:ee:a7:ab:5f:fc:ad:9a:fd:64:2a:
         9e:44:c2:45:c9:8a:4d:39:9b:0a:de:31:8d:46:ce:21:23:55:
         65:47:44:db:3d:07:ad:19:a3:cf:f5:46:18:2f:b5:65:a0:ba:
         b2:7a:56:81:bd:cd:fa:08:96:d7:6d:33:64:1b:74:e1:a2:0e:
         a5:a4:94:db:fe:20:9a:f3:9a:29:28:a7:dd:f3:ed:13:a7:cb:
         b8:ec:bb:97:c0:a4:5b:9d:72:a9:bc:86:0a:e5:e1:2a:16:04:
         bc:4b:c0:00:f2:85:29:b2:1f:36:81:73:8c:ea:10:77:79:cc:
         c4:0d:81:e9:e4:f4:73:7a:60:6f:73:bf:6e:c0:4a:d9:63:48:
         02:af:6c:d5:e9:0c:c7:cd:5b:69:c4:e6:a3:45:ce:13:3f:3e:
         89:a8:e0:be:2f:7e:cd:96:79:e3:0c:38:00:82:52:d6:2e:d9:
         d2:df:11:e8:47:61:db:a7:8a:10:90:12:10:84:a3:b2:67:52:
         f2:35:b7:b3:86:55:79:9e:62:9d:3b:a0:9e:d9:0e:4a:24:50:
         23:d3:22:16:e0:b0:a9:8f:0d:a8:56:c5:c0:ea:61:c7:ef:8a:
         88:8b:5d:a8:7d:8c:4a:70:f9:9c:4e:13:7e:ea:26:38:85:2e:
         dc:f6:df:6b:2a:92:27:0c:2b:1f:a5:92:7f:38:cf:04:70:8f:
         09:10:e2:3c:6b:19:cb:32:23:36:79:0a:5b:33:7e:59:57:83:
         da:0f:2e:dd:e5:4c:e7:a4:c1:9f:46:d9:c3:65:1a:7d:9a:af:
         a4:ef:3d:80:75:0a:be:6e:47:06:fa:41:ff:85:79:b3:a2:e1:
         7d:60:94:56:18:81:4c:63:69:53:ae:f4:61:d7:37:e3:37:dc:
         43:6e:1d:5f:4d:77:78:99:bb:e8:2f:13:39:48:d2:06:95:4d:
         b1:9b:b3:ac:68:19:e6:97:7b:8e:ae:d4:91:3c:ab:8b:48:08:
         66:62:2d:f2:d1:0f:cc:82:a9:9e:6a:1a:3e:b8:0f:22:bb:5e:
         cf:e3:67:c8:3c:49:d7:32:f0:ac:e1:bd:41:7e:f9:23:3a:5a:
         77:29:75:2b:77:72:44:5f:bd:0d:09:4f:0e:3e:d2:c5:14:98:
         88:2f:46:b5:cf:42:e3:ca:67:74:a4:5e:41:54:15:f3:9b:0a:
         36:0c:72:5d:ef:e1:86:75:70:00:69:cb:21:35:e4:15:be:c8:
         93:f4:b2:30:5f:a9:8f:a4:97:09:6c:3f:86:0b:87:77:9e:bb:
         e8:45:6a:ae:b5:20:2b:98:a4:0c:8f:62:c6:b2:56:3c:85:d8:
         f1:aa:c4:5e:7e:05:dd:26
-----BEGIN CERTIFICATE-----
MIIEPzCCAicCAhKBMA0GCSqGSIb3DQEBCwUAMIGdMQswCQYDVQQGEwJERTEPMA0G
A1UECAwGQmF5ZXJuMRQwEgYDVQQHDAtOw4PCvHJuYmVyZzETMBEGA1UECgwKU2ll
bWVucyBBRzEUMBIGA1UECwwLVHJ1c3RjZW50ZXIxETAPBgNVBAMMCE9saXZlckNB
MSkwJwYJKoZIhvcNAQkBFhpvbGl2ZXIuc3RpbGxlckBzaWVtZW5zLmNvbTAeFw0y
MDEwMDcxMTI4MTdaFw0yMTEwMDcxMTI4MTdaMCwxFjAUBgNVBAoMDURvbnQgdHJ1
c3QgbWUxEjAQBgNVBAMMCUlnbm9yZSBtZTCCASIwDQYJKoZIhvcNAQEBBQADggEP
ADCCAQoCggEBAKKmiyOvg0Dt7071TvNC1wBew7n4eo8/E/WGzUZDhH3c8RXppJ6o
FLq89uQ1Q7INNcIy8xq23M9+np4lVMPJbEddcIMa+Fk4Ss2WEnEK8apXIMCHb6ss
Jk3lBf5hOl42kIPG75/V9+62rLSL7TqRJ3c2GGR1UzNua5qlFDDFPxAEp1Oq1t5A
Cb6odavIXidiw5R/UmNQFUrLjwa7B8XSTx0tgYPr8s9PAK9AFIhS5iCTxvvPTk2j
hY6jzwGBZ9xNBKouzroiLJqYHRDb3k8YZYZQvQ/fxzX0wCEaYIdyte789vyPxNEb
j6p2J6SqeWOQ+ZrE13jMMt7e0eeDV3vJGXsCAwEAATANBgkqhkiG9w0BAQsFAAOC
AgEALQlCR+epOZTup6tf/K2a/WQqnkTCRcmKTTmbCt4xjUbOISNVZUdE2z0HrRmj
z/VGGC+1ZaC6snpWgb3N+giW120zZBt04aIOpaSU2/4gmvOaKSin3fPtE6fLuOy7
l8CkW51yqbyGCuXhKhYEvEvAAPKFKbIfNoFzjOoQd3nMxA2B6eT0c3pgb3O/bsBK
2WNIAq9s1ekMx81bacTmo0XOEz8+iajgvi9+zZZ54ww4AIJS1i7Z0t8R6Edh26eK
EJASEISjsmdS8jW3s4ZVeZ5inTugntkOSiRQI9MiFuCwqY8NqFbFwOphx++KiItd
qH2MSnD5nE4TfuomOIUu3PbfayqSJwwrH6WSfzjPBHCPCRDiPGsZyzIjNnkKWzN+
WVeD2g8u3eVM56TBn0bZw2UafZqvpO89gHUKvm5HBvpB/4V5s6LhfWCUVhiBTGNp
U670Ydc34zfcQ24dX013eJm76C8TOUjSBpVNsZuzrGgZ5pd7jq7UkTyri0gIZmIt
8tEPzIKpnmoaPrgPIrtez+NnyDxJ1zLwrOG9QX75Izpadyl1K3dyRF+9DQlPDj7S
xRSYiC9Gtc9C48pndKReQVQV85sKNgxyXe/hhnVwAGnLITXkFb7Ik/SyMF+pj6SX
CWw/hguHd5676EVqrrUgK5ikDI9ixrJWPIXY8arEXn4F3SY=
-----END CERTIFICATE-----
