Certificate:
    Data:
        Version: 3 (0x2)
        Serial Number: 4743 (0x1287)
        Signature Algorithm: sha256WithRSAEncryption
        Issuer: C=DE, ST=Bayern, L=N\xC3\x83\xC2\xBCrnberg, O=Siemens AG, OU=Trustcenter, CN=OliverCA/emailAddress=oliver.stiller@siemens.com
        Validity
            Not Before: Oct  7 11:30:11 2020 GMT
            Not After : Oct  7 11:30:11 2021 GMT
        Subject: O=Dont trust me, CN=Ignore me
        Subject Public Key Info:
            Public Key Algorithm: rsaEncryption
                RSA Public-Key: (2048 bit)
                Modulus:
                    00:ce:34:72:2f:45:90:5a:d5:a8:f1:47:b9:f1:17:
                    0e:91:7c:a5:e2:aa:e3:3d:ca:59:6d:06:e7:db:31:
                    0d:20:60:9a:a5:ba:94:0c:f1:c0:d7:b2:09:5e:67:
                    2d:e7:48:8c:6d:f7:66:4d:cc:5f:ec:d3:d1:67:a9:
                    06:a5:89:6b:3b:b2:bf:b4:a8:32:a9:67:c3:6b:dc:
                    95:36:ff:2b:8a:cb:df:3e:ac:4c:3c:fb:c5:cb:d7:
                    c5:80:6b:90:f1:ff:56:50:23:d8:bf:62:dc:30:5e:
                    d2:1e:f7:57:94:7d:7a:0a:58:18:a1:e0:5c:c5:25:
                    aa:ef:cc:3c:15:0f:06:5d:20:39:4d:4d:b7:86:95:
                    2a:d6:aa:75:1f:62:37:d3:2f:f9:75:58:74:ad:5d:
                    8d:ac:bc:90:c4:20:3d:f6:e6:b7:b2:5b:87:93:57:
                    6d:67:d2:59:fc:9b:a3:ef:38:e8:06:d6:8f:99:ea:
                    cf:53:92:73:0e:3b:ac:ff:6d:0a:7b:2f:63:bd:0d:
                    35:83:07:b0:65:07:79:7e:3a:fe:13:fd:a6:1a:ac:
                    92:e8:a2:ef:93:72:48:ed:78:a1:03:0c:65:bc:f4:
                    45:c0:4d:29:29:fd:96:db:59:4d:2d:cc:f8:1d:d5:
                    d7:39:44:a7:44:3d:44:b8:ed:4b:9c:30:7c:79:9c:
                    31:5d
                Exponent: 65537 (0x10001)
        X509v3 extensions:
            X509v3 Extended Key Usage: 
                TLS Web Server Authentication, Any Extended Key Usage
    Signature Algorithm: sha256WithRSAEncryption
         cc:32:82:71:06:95:a2:15:4a:b4:80:b7:52:af:d8:b4:80:7a:
         6d:b6:b3:4e:51:87:a4:a4:45:fe:0f:97:d1:85:8b:c2:38:e3:
         dc:a1:09:e9:86:87:ea:69:ff:2d:dc:07:b2:d6:b5:06:78:ca:
         2f:4d:6a:0f:67:f7:97:df:ae:94:5f:6c:15:cf:69:37:ae:19:
         32:ea:74:9d:5a:f0:7a:72:21:93:ee:04:ca:99:2b:5c:d5:a3:
         76:55:02:37:ed:7b:9d:ae:a1:60:17:03:af:25:74:29:83:5c:
         8a:60:08:61:3c:96:02:2c:46:83:5b:ff:1e:1c:55:dd:dc:5b:
         a9:42:65:9a:08:ed:f6:91:5e:75:73:59:76:a0:98:a3:dc:50:
         77:e2:5b:b4:95:8b:71:1e:43:b6:6d:3b:83:50:5b:cf:d9:82:
         28:d7:17:9a:51:55:8e:ba:cc:d0:d9:0e:ee:f3:d5:60:7d:a6:
         16:ca:0e:fa:60:62:8c:8c:2a:c6:44:9e:1b:bb:4c:cc:e0:c8:
         28:9f:0e:6c:ae:67:c9:40:d0:8e:a2:30:7a:83:9f:00:81:29:
         a1:dd:0a:bf:7a:f1:e5:ca:4b:7d:0f:d7:fb:03:4a:9c:38:8f:
         de:e4:d6:cc:71:98:94:8e:b4:0b:29:0c:f3:83:c4:b7:51:9f:
         11:b8:40:81:6e:01:02:36:3a:75:84:fd:75:41:83:1f:b1:16:
         1c:fb:9a:eb:84:d1:6f:dd:c8:9f:b2:54:54:e8:81:33:54:a6:
         f3:99:53:12:38:f4:1e:1f:fb:8a:e5:cb:0f:b3:91:ba:14:40:
         32:9e:98:8a:63:e7:78:1e:39:f4:29:12:18:af:7d:5b:8f:d6:
         6c:3d:e6:35:f8:15:90:de:44:48:2c:27:ce:17:48:8e:e7:e9:
         80:20:30:de:f6:e6:e9:91:07:bc:ee:9f:ec:ff:37:c7:75:e0:
         44:32:ca:30:d8:66:aa:a3:b0:fe:5d:16:55:80:76:f6:9f:0a:
         e0:39:00:00:b5:41:cd:55:bf:6e:fc:5c:16:e1:31:45:6f:b1:
         b5:4c:d2:5d:e5:f7:b9:c1:47:3e:c3:c4:a9:17:06:d3:c3:85:
         99:cb:a4:37:2e:b0:3d:3f:20:23:1b:bc:89:71:79:e8:11:92:
         09:a8:1b:7e:73:05:61:8c:04:56:d7:40:22:15:69:79:5f:d0:
         d9:0e:53:d2:5d:f2:aa:99:a3:f4:fa:c3:13:65:dc:94:e6:4e:
         69:26:d9:d2:2f:85:04:75:a8:46:36:63:84:ca:df:5d:54:79:
         31:cf:64:c0:80:0f:32:67:b0:21:1e:99:32:2b:2e:af:6e:5b:
         22:44:f0:fd:e6:41:0b:04
-----BEGIN CERTIFICATE-----
MIIEYzCCAkugAwIBAgICEocwDQYJKoZIhvcNAQELBQAwgZ0xCzAJBgNVBAYTAkRF
MQ8wDQYDVQQIDAZCYXllcm4xFDASBgNVBAcMC07Dg8K8cm5iZXJnMRMwEQYDVQQK
DApTaWVtZW5zIEFHMRQwEgYDVQQLDAtUcnVzdGNlbnRlcjERMA8GA1UEAwwIT2xp
dmVyQ0ExKTAnBgkqhkiG9w0BCQEWGm9saXZlci5zdGlsbGVyQHNpZW1lbnMuY29t
MB4XDTIwMTAwNzExMzAxMVoXDTIxMTAwNzExMzAxMVowLDEWMBQGA1UECgwNRG9u
dCB0cnVzdCBtZTESMBAGA1UEAwwJSWdub3JlIG1lMIIBIjANBgkqhkiG9w0BAQEF
AAOCAQ8AMIIBCgKCAQEAzjRyL0WQWtWo8Ue58RcOkXyl4qrjPcpZbQbn2zENIGCa
pbqUDPHA17IJXmct50iMbfdmTcxf7NPRZ6kGpYlrO7K/tKgyqWfDa9yVNv8risvf
PqxMPPvFy9fFgGuQ8f9WUCPYv2LcMF7SHvdXlH16ClgYoeBcxSWq78w8FQ8GXSA5
TU23hpUq1qp1H2I30y/5dVh0rV2NrLyQxCA99ua3sluHk1dtZ9JZ/Juj7zjoBtaP
merPU5JzDjus/20Key9jvQ01gwewZQd5fjr+E/2mGqyS6KLvk3JI7XihAwxlvPRF
wE0pKf2W21lNLcz4HdXXOUSnRD1EuO1LnDB8eZwxXQIDAQABox0wGzAZBgNVHSUE
EjAQBggrBgEFBQcDAQYEVR0lADANBgkqhkiG9w0BAQsFAAOCAgEAzDKCcQaVohVK
tIC3Uq/YtIB6bbazTlGHpKRF/g+X0YWLwjjj3KEJ6YaH6mn/LdwHsta1BnjKL01q
D2f3l9+ulF9sFc9pN64ZMup0nVrwenIhk+4EypkrXNWjdlUCN+17na6hYBcDryV0
KYNcimAIYTyWAixGg1v/HhxV3dxbqUJlmgjt9pFedXNZdqCYo9xQd+JbtJWLcR5D
tm07g1Bbz9mCKNcXmlFVjrrM0NkO7vPVYH2mFsoO+mBijIwqxkSeG7tMzODIKJ8O
bK5nyUDQjqIweoOfAIEpod0Kv3rx5cpLfQ/X+wNKnDiP3uTWzHGYlI60CykM84PE
t1GfEbhAgW4BAjY6dYT9dUGDH7EWHPua64TRb93In7JUVOiBM1Sm85lTEjj0Hh/7
iuXLD7ORuhRAMp6YimPneB459CkSGK99W4/WbD3mNfgVkN5ESCwnzhdIjufpgCAw
3vbm6ZEHvO6f7P83x3XgRDLKMNhmqqOw/l0WVYB29p8K4DkAALVBzVW/bvxcFuEx
RW+xtUzSXeX3ucFHPsPEqRcG08OFmcukNy6wPT8gIxu8iXF56BGSCagbfnMFYYwE
VtdAIhVpeV/Q2Q5T0l3yqpmj9PrDE2XclOZOaSbZ0i+FBHWoRjZjhMrfXVR5Mc9k
wIAPMmewIR6ZMisur25bIkTw/eZBCwQ=
-----END CERTIFICATE-----
