Certificate:
    Data:
        Version: 3 (0x2)
        Serial Number: 4758 (0x1296)
        Signature Algorithm: sha256WithRSAEncryption
        Issuer: C=DE, ST=Bayern, L=N\xC3\x83\xC2\xBCrnberg, O=Siemens AG, OU=Trustcenter, CN=OliverCA/emailAddress=oliver.stiller@siemens.com
        Validity
            Not Before: Oct  8 11:49:46 2020 GMT
            Not After : Oct  8 11:49:46 2021 GMT
        Subject: O=Dont trust me, CN=Ignore me
        Subject Public Key Info:
            Public Key Algorithm: rsaEncryption
                RSA Public-Key: (2048 bit)
                Modulus:
                    00:d3:73:d1:78:fe:2c:4b:82:ea:87:fb:24:ff:b2:
                    ba:71:5e:f8:42:fd:32:00:19:2c:c4:d8:59:d6:ca:
                    e3:19:3d:32:c4:06:f5:e4:c5:01:f8:bb:c2:dc:eb:
                    dc:52:63:0c:3c:fa:ec:3f:8e:d0:22:3f:b0:12:8e:
                    6b:1c:0d:37:ca:ed:b2:4e:51:75:db:52:41:e9:d5:
                    e5:1b:75:a0:8c:37:ba:fb:70:de:36:e9:98:01:5c:
                    6c:df:e8:93:0a:3f:fa:33:4d:29:d7:5f:d5:3e:09:
                    dc:1a:10:23:33:f3:42:7f:e6:59:79:94:9d:aa:06:
                    47:ce:ab:92:fe:3e:d4:13:b9:05:10:a8:b2:d3:0b:
                    17:b9:b0:78:f3:ab:83:7c:31:19:8d:9a:37:0f:20:
                    3e:2e:83:b1:03:99:e3:5d:48:53:b5:94:2c:e3:c8:
                    c5:4e:11:4c:de:6b:da:72:b3:f9:5c:7a:6e:30:32:
                    77:85:70:64:bf:31:35:77:11:45:5b:69:36:4b:41:
                    21:53:e6:da:ec:15:c4:ec:e1:50:40:e0:9b:5b:76:
                    fb:15:1b:8c:87:31:79:ae:2c:55:f4:4b:25:a5:18:
                    e7:4d:b2:aa:57:2a:dc:ec:97:66:92:27:69:40:d8:
                    24:f1:3b:77:41:72:4d:6b:ee:04:da:42:d7:2c:ac:
                    85:7d
                Exponent: 65537 (0x10001)
        X509v3 extensions:
            X509v3 Extended Key Usage: 
                TLS Web Server Authentication, E-mail Protection
            OCSP No Check: 

    Signature Algorithm: sha256WithRSAEncryption
         de:e8:cb:ca:31:78:aa:80:30:a1:d9:9b:41:2a:64:84:7a:1f:
         f6:8e:0f:71:b9:c1:5e:2c:12:a1:e1:f3:6b:22:0d:0a:cf:60:
         c8:78:ae:4a:af:8c:b9:14:20:b4:89:f5:c6:15:92:43:f3:2f:
         bf:df:6f:88:48:c9:3c:ef:6f:da:48:f4:ce:d5:29:20:21:03:
         d6:bf:49:bf:f5:20:8b:4f:3e:f7:8d:15:16:e1:8b:e2:d4:a0:
         99:66:db:11:5f:35:f3:d7:c0:b4:25:43:8a:c6:6d:07:e1:3b:
         87:53:2d:3b:42:08:63:90:ca:e6:c6:db:b0:d9:04:f7:29:18:
         e6:73:58:be:60:71:43:2e:52:33:75:fd:a2:b9:3b:28:02:33:
         42:69:8b:83:d3:9b:4e:b5:64:5c:25:ab:08:42:0b:34:12:07:
         53:18:3f:b3:bd:91:59:44:be:a3:0f:a1:c8:fc:73:d0:5e:34:
         b8:e6:9c:33:3d:1c:80:a1:f7:ad:85:6b:cb:b0:f6:b6:8f:e8:
         32:82:88:26:f6:ae:09:cf:4d:b6:2e:58:78:5f:76:8a:09:61:
         b7:5f:d9:d5:1e:21:50:77:ae:09:f2:1f:87:dd:44:7f:45:2d:
         64:0b:8c:f0:d3:f0:43:2e:0d:8d:10:ca:db:e0:9e:14:ae:b9:
         b9:2e:9c:c3:ee:21:b1:28:ab:82:75:0c:3b:83:ad:8f:3a:1e:
         66:b4:cb:c3:9d:57:1b:a5:be:01:fd:9e:63:47:ce:a9:02:62:
         44:67:38:17:f0:a7:74:94:ed:22:6b:95:f3:55:ff:3d:7c:21:
         f8:a1:ca:54:cd:ec:2b:30:e5:ba:9b:23:1e:e5:51:82:22:ab:
         c6:d6:1f:b5:8e:a8:16:da:1e:29:0f:75:2a:05:6c:10:84:9d:
         35:9e:2d:43:0f:97:85:72:f6:a3:9d:99:33:bb:a1:4a:f3:b9:
         dc:b8:7e:d7:f2:10:01:02:78:92:a5:d2:c7:eb:b5:e1:43:7a:
         c3:c9:b3:ea:26:42:1f:4e:6e:07:bb:49:3f:b9:2a:e5:5c:b4:
         50:d6:dd:3d:b1:e0:d2:69:2b:d6:d1:bb:6f:78:ff:9d:6f:e6:
         45:59:f8:bd:98:f4:e7:2b:d9:7c:93:1f:49:33:4f:7f:e7:53:
         47:0c:fb:0c:f2:34:f4:1a:d2:51:f8:b3:cb:28:52:e3:62:e2:
         61:d8:af:f9:f6:3d:09:f9:1e:29:ec:27:b8:b3:ab:9a:a4:bc:
         7e:e0:70:5e:78:7b:cc:05:2e:3e:3f:37:4c:a1:af:a0:ac:23:
         64:67:af:4a:7a:b2:85:a0:9d:d3:db:76:23:03:ed:c3:ff:84:
         aa:60:bb:8f:30:47:f7:93
-----BEGIN CERTIFICATE-----
MIIEeDCCAmCgAwIBAgICEpYwDQYJKoZIhvcNAQELBQAwgZ0xCzAJBgNVBAYTAkRF
MQ8wDQYDVQQIDAZCYXllcm4xFDASBgNVBAcMC07Dg8K8cm5iZXJnMRMwEQYDVQQK
DApTaWVtZW5zIEFHMRQwEgYDVQQLDAtUcnVzdGNlbnRlcjERMA8GA1UEAwwIT2xp
dmVyQ0ExKTAnBgkqhkiG9w0BCQEWGm9saXZlci5zdGlsbGVyQHNpZW1lbnMuY29t
MB4XDTIwMTAwODExNDk0NloXDTIxMTAwODExNDk0NlowLDEWMBQGA1UECgwNRG9u
dCB0cnVzdCBtZTESMBAGA1UEAwwJSWdub3JlIG1lMIIBIjANBgkqhkiG9w0BAQEF
AAOCAQ8AMIIBCgKCAQEA03PReP4sS4Lqh/sk/7K6cV74Qv0yABksxNhZ1srjGT0y
xAb15MUB+LvC3OvcUmMMPPrsP47QIj+wEo5rHA03yu2yTlF121JB6dXlG3WgjDe6
+3DeNumYAVxs3+iTCj/6M00p11/VPgncGhAjM/NCf+ZZeZSdqgZHzquS/j7UE7kF
EKiy0wsXubB486uDfDEZjZo3DyA+LoOxA5njXUhTtZQs48jFThFM3mvacrP5XHpu
MDJ3hXBkvzE1dxFFW2k2S0EhU+ba7BXE7OFQQOCbW3b7FRuMhzF5rixV9EslpRjn
TbKqVyrc7JdmkidpQNgk8Tt3QXJNa+4E2kLXLKyFfQIDAQABozIwMDAdBgNVHSUE
FjAUBggrBgEFBQcDAQYIKwYBBQUHAwQwDwYJKwYBBQUHMAEFBAIFADANBgkqhkiG
9w0BAQsFAAOCAgEA3ujLyjF4qoAwodmbQSpkhHof9o4PcbnBXiwSoeHzayINCs9g
yHiuSq+MuRQgtIn1xhWSQ/Mvv99viEjJPO9v2kj0ztUpICED1r9Jv/Ugi08+940V
FuGL4tSgmWbbEV8189fAtCVDisZtB+E7h1MtO0IIY5DK5sbbsNkE9ykY5nNYvmBx
Qy5SM3X9ork7KAIzQmmLg9ObTrVkXCWrCEILNBIHUxg/s72RWUS+ow+hyPxz0F40
uOacMz0cgKH3rYVry7D2to/oMoKIJvauCc9Nti5YeF92iglht1/Z1R4hUHeuCfIf
h91Ef0UtZAuM8NPwQy4NjRDK2+CeFK65uS6cw+4hsSirgnUMO4OtjzoeZrTLw51X
G6W+Af2eY0fOqQJiRGc4F/CndJTtImuV81X/PXwh+KHKVM3sKzDlupsjHuVRgiKr
xtYftY6oFtoeKQ91KgVsEISdNZ4tQw+XhXL2o52ZM7uhSvO53Lh+1/IQAQJ4kqXS
x+u14UN6w8mz6iZCH05uB7tJP7kq5Vy0UNbdPbHg0mkr1tG7b3j/nW/mRVn4vZj0
5yvZfJMfSTNPf+dTRwz7DPI09BrSUfizyyhS42LiYdiv+fY9CfkeKewnuLOrmqS8
fuBwXnh7zAUuPj83TKGvoKwjZGevSnqyhaCd09t2IwPtw/+EqmC7jzBH95M=
-----END CERTIFICATE-----
