Certificate:
    Data:
        Version: 3 (0x2)
        Serial Number: 4744 (0x1288)
        Signature Algorithm: sha256WithRSAEncryption
        Issuer: C=DE, ST=Bayern, L=N\xC3\x83\xC2\xBCrnberg, O=Siemens AG, OU=Trustcenter, CN=OliverCA/emailAddress=oliver.stiller@siemens.com
        Validity
            Not Before: Oct  7 11:30:23 2020 GMT
            Not After : Oct  7 11:30:23 2021 GMT
        Subject: O=Dont trust me, CN=Ignore me
        Subject Public Key Info:
            Public Key Algorithm: rsaEncryption
                RSA Public-Key: (2048 bit)
                Modulus:
                    00:a4:d5:50:c1:2d:a7:1a:a1:5e:6e:5c:77:5c:9b:
                    42:c4:84:91:da:53:ee:32:d2:6d:da:e8:8a:15:e6:
                    20:d6:53:27:97:d8:45:53:c1:86:28:2b:c0:59:09:
                    c5:d5:9c:51:e7:61:62:5c:d4:c7:d2:65:86:22:c1:
                    8b:40:9f:fa:b0:c4:1c:80:c2:cc:ea:24:4a:e3:7a:
                    66:a4:2d:a3:7e:5d:03:26:96:2c:5f:44:c7:99:de:
                    44:8c:7a:22:fc:cc:27:59:e3:79:04:90:81:33:41:
                    4d:60:53:24:90:fa:74:a5:c4:b5:ca:07:45:5d:ec:
                    35:0f:5f:40:d2:63:7d:3b:0a:3b:70:71:a1:d6:07:
                    3d:ce:50:6b:b2:14:bc:b8:79:ea:ea:ea:ef:1c:80:
                    7a:8d:bd:d0:1d:56:a4:c4:e4:e6:3a:02:f5:9a:64:
                    45:10:cc:ba:35:4f:8a:1c:c4:cb:bb:b3:8b:36:79:
                    3e:87:8d:26:6b:48:9f:bb:ef:f0:ce:03:4b:ff:cf:
                    96:db:23:72:1f:08:45:97:c8:c8:b8:08:ca:bd:74:
                    64:45:21:df:fb:49:29:c1:1b:bd:77:0d:de:e6:8a:
                    b9:25:1c:23:cc:c9:e8:73:ab:3a:ff:cc:4a:09:93:
                    7c:44:e5:79:3c:e2:ae:f9:a0:31:06:d5:30:17:b0:
                    cb:3b
                Exponent: 65537 (0x10001)
        X509v3 extensions:
            X509v3 Extended Key Usage: 
                TLS Web Server Authentication, Any Extended Key Usage
            OCSP No Check: 

    Signature Algorithm: sha256WithRSAEncryption
         3d:61:46:18:cb:95:40:fa:ff:8a:fc:ea:0a:ee:54:ec:1c:b8:
         b4:f3:ae:98:55:a0:7a:66:08:05:05:41:36:76:79:55:cc:2b:
         33:ac:4b:1a:78:1d:c1:2b:ec:d7:24:ad:2c:d1:92:a2:5f:96:
         64:d4:95:33:e1:12:6f:5e:9c:b5:90:ab:3e:99:8a:b4:83:59:
         0a:2f:c8:4d:ba:6a:2c:1b:68:4d:47:b9:c5:cc:fe:47:be:41:
         0d:6a:0d:33:62:84:1a:df:22:3c:c6:a9:3d:6a:b3:3a:e0:43:
         40:c0:f5:16:b9:7d:cc:03:4f:56:d2:d3:a9:c9:69:9d:9e:7c:
         e1:47:e1:01:ec:60:5e:af:02:d0:ca:f7:7c:a5:03:db:25:8e:
         2f:9f:11:82:62:b3:3b:35:f6:c0:9f:0c:7f:74:83:1a:ba:be:
         30:98:8f:87:7f:3a:f8:8f:0b:fa:55:55:7c:10:45:4f:96:77:
         63:81:97:81:3e:2b:b4:0a:54:05:61:47:94:32:a9:89:48:ed:
         8d:dd:a5:4e:b9:3c:49:9a:75:c5:52:54:79:ce:5d:4c:29:cd:
         74:3e:98:7c:a2:af:7d:b3:fd:7e:d6:7e:30:c4:ed:43:49:10:
         31:74:45:3c:d1:b0:09:21:80:16:05:aa:0b:07:d8:5b:8f:9c:
         66:6e:34:fa:df:b4:08:70:b0:2c:90:f8:6f:13:e2:92:4b:ca:
         8d:b8:91:c6:ca:bf:04:76:4e:10:c0:2e:c6:64:c3:9c:e6:8c:
         81:77:c5:c3:a3:57:00:2f:f4:5a:4d:e3:4b:33:e2:ff:fb:48:
         9a:8e:a0:b1:e6:43:f1:0a:c6:9b:ab:14:09:26:f8:d2:ee:ae:
         31:33:93:dc:8a:d7:a1:6a:2b:95:d0:89:34:9c:06:48:2a:b5:
         be:f5:83:9f:06:95:87:1b:10:6b:5c:62:3b:d3:ad:e7:bc:09:
         04:e8:ed:8c:f9:ea:0c:4b:b0:83:b8:5f:a5:24:d9:d2:4b:b9:
         50:81:39:02:06:af:07:23:d6:30:35:02:ec:f4:76:5c:83:97:
         69:f3:7c:ed:f8:77:37:aa:92:c6:54:8f:67:bd:b6:b9:c0:49:
         e5:de:81:fe:9d:c2:87:8b:02:ae:72:db:7a:3b:75:e2:c6:81:
         5d:98:11:14:62:03:71:43:44:82:69:da:44:3d:4c:a8:b1:18:
         91:5b:3e:9f:ca:31:53:f7:6e:3e:a1:fa:1b:12:c3:5a:d6:65:
         6f:5b:26:42:1c:b1:49:92:c5:3b:d2:f5:c7:89:38:0b:2a:5c:
         bf:b2:76:fc:77:83:3e:92:f0:cb:11:8d:04:09:35:80:8d:00:
         11:0d:c7:74:98:fd:2c:36
-----BEGIN CERTIFICATE-----
MIIEdDCCAlygAwIBAgICEogwDQYJKoZIhvcNAQELBQAwgZ0xCzAJBgNVBAYTAkRF
MQ8wDQYDVQQIDAZCYXllcm4xFDASBgNVBAcMC07Dg8K8cm5iZXJnMRMwEQYDVQQK
DApTaWVtZW5zIEFHMRQwEgYDVQQLDAtUcnVzdGNlbnRlcjERMA8GA1UEAwwIT2xp
dmVyQ0ExKTAnBgkqhkiG9w0BCQEWGm9saXZlci5zdGlsbGVyQHNpZW1lbnMuY29t
MB4XDTIwMTAwNzExMzAyM1oXDTIxMTAwNzExMzAyM1owLDEWMBQGA1UECgwNRG9u
dCB0cnVzdCBtZTESMBAGA1UEAwwJSWdub3JlIG1lMIIBIjANBgkqhkiG9w0BAQEF
AAOCAQ8AMIIBCgKCAQEApNVQwS2nGqFeblx3XJtCxISR2lPuMtJt2uiKFeYg1lMn
l9hFU8GGKCvAWQnF1ZxR52FiXNTH0mWGIsGLQJ/6sMQcgMLM6iRK43pmpC2jfl0D
JpYsX0THmd5EjHoi/MwnWeN5BJCBM0FNYFMkkPp0pcS1ygdFXew1D19A0mN9Owo7
cHGh1gc9zlBrshS8uHnq6urvHIB6jb3QHVakxOTmOgL1mmRFEMy6NU+KHMTLu7OL
Nnk+h40ma0ifu+/wzgNL/8+W2yNyHwhFl8jIuAjKvXRkRSHf+0kpwRu9dw3e5oq5
JRwjzMnoc6s6/8xKCZN8ROV5POKu+aAxBtUwF7DLOwIDAQABoy4wLDAZBgNVHSUE
EjAQBggrBgEFBQcDAQYEVR0lADAPBgkrBgEFBQcwAQUEAgUAMA0GCSqGSIb3DQEB
CwUAA4ICAQA9YUYYy5VA+v+K/OoK7lTsHLi0866YVaB6ZggFBUE2dnlVzCszrEsa
eB3BK+zXJK0s0ZKiX5Zk1JUz4RJvXpy1kKs+mYq0g1kKL8hNumosG2hNR7nFzP5H
vkENag0zYoQa3yI8xqk9arM64ENAwPUWuX3MA09W0tOpyWmdnnzhR+EB7GBerwLQ
yvd8pQPbJY4vnxGCYrM7NfbAnwx/dIMaur4wmI+Hfzr4jwv6VVV8EEVPlndjgZeB
Piu0ClQFYUeUMqmJSO2N3aVOuTxJmnXFUlR5zl1MKc10Pph8oq99s/1+1n4wxO1D
SRAxdEU80bAJIYAWBaoLB9hbj5xmbjT637QIcLAskPhvE+KSS8qNuJHGyr8Edk4Q
wC7GZMOc5oyBd8XDo1cAL/RaTeNLM+L/+0iajqCx5kPxCsabqxQJJvjS7q4xM5Pc
itehaiuV0Ik0nAZIKrW+9YOfBpWHGxBrXGI7063nvAkE6O2M+eoMS7CDuF+lJNnS
S7lQgTkCBq8HI9YwNQLs9HZcg5dp83zt+Hc3qpLGVI9nvba5wEnl3oH+ncKHiwKu
ctt6O3XixoFdmBEUYgNxQ0SCadpEPUyosRiRWz6fyjFT924+ofobEsNa1mVvWyZC
HLFJksU70vXHiTgLKly/snb8d4M+kvDLEY0ECTWAjQARDcd0mP0sNg==
-----END CERTIFICATE-----
