Certificate:
    Data:
        Version: 3 (0x2)
        Serial Number: 4759 (0x1297)
        Signature Algorithm: sha256WithRSAEncryption
        Issuer: C=DE, ST=Bayern, L=N\xC3\x83\xC2\xBCrnberg, O=Siemens AG, OU=Trustcenter, CN=OliverCA/emailAddress=oliver.stiller@siemens.com
        Validity
            Not Before: Oct  8 11:49:55 2020 GMT
            Not After : Oct  8 11:49:55 2021 GMT
        Subject: O=Dont trust me, CN=Ignore me
        Subject Public Key Info:
            Public Key Algorithm: rsaEncryption
                RSA Public-Key: (2048 bit)
                Modulus:
                    00:be:ed:c2:3c:23:a5:87:70:5f:02:fe:27:1e:e4:
                    87:8f:0f:21:5b:a8:2d:d2:e3:04:50:ec:8c:ca:43:
                    45:fa:cc:32:ee:95:ce:7a:90:e4:36:ef:f1:81:a8:
                    ea:56:51:fb:56:91:f5:b5:20:4a:40:35:2b:38:c1:
                    bb:c4:1d:a8:6b:0d:55:97:6d:44:4b:c2:d1:0c:3a:
                    12:2e:cd:63:1d:aa:bc:57:3f:7d:ab:3a:a4:51:22:
                    8f:f5:20:54:6b:a7:50:6c:c8:73:26:5d:ba:07:89:
                    a1:34:55:49:1d:5d:40:96:59:5b:53:62:94:ac:17:
                    5c:bc:b8:b4:1f:37:ad:5a:fc:94:72:2e:06:3c:7f:
                    ae:d4:ac:66:64:c1:5b:8b:58:04:de:3f:6c:f7:40:
                    25:84:bb:35:83:5b:2a:d5:a5:c9:02:44:7f:73:b1:
                    4a:6e:64:d7:82:66:ae:31:95:61:3a:fb:aa:f7:a3:
                    c3:9f:06:b4:98:fb:69:ec:30:b0:eb:e6:e8:3c:3e:
                    2b:7f:a2:94:04:10:e8:a7:1c:c4:7e:8c:bd:3a:7d:
                    4f:56:a2:91:8d:83:bb:32:a8:dc:ce:7f:c1:ca:89:
                    40:59:12:15:0f:5a:8e:6f:1f:86:ae:70:df:81:d5:
                    ce:30:aa:93:0d:7e:cf:72:2f:12:d7:68:a4:bf:09:
                    49:bd
                Exponent: 65537 (0x10001)
        X509v3 extensions:
            X509v3 Extended Key Usage: 
                TLS Web Server Authentication, Any Extended Key Usage, E-mail Protection
    Signature Algorithm: sha256WithRSAEncryption
         b5:0a:3c:bf:6a:72:9b:b3:29:c3:d2:af:2c:b8:fd:26:65:32:
         64:10:d3:9d:e0:46:88:39:68:c8:70:09:15:e5:f5:48:8a:91:
         c3:8f:c1:73:f6:08:6c:36:8f:af:51:fb:b4:51:f4:1d:af:0e:
         0d:8d:ed:a9:cf:22:bc:0b:81:9c:2f:14:d2:6a:88:0f:b6:a1:
         6b:0d:d2:2a:3f:09:ac:f1:f1:c5:5d:46:21:e6:6c:d3:40:33:
         b3:58:4f:79:5a:1a:a2:4c:42:e8:81:84:05:80:36:3a:bd:f0:
         3f:c3:d5:18:53:09:40:a6:e8:ab:d5:10:22:9e:b9:56:4f:29:
         c3:6a:b3:3c:23:84:ea:c5:e3:64:33:57:f5:08:6a:6e:35:07:
         9c:39:5c:58:23:05:df:84:27:f3:45:6f:ed:6f:2d:3d:14:52:
         30:c0:3e:e3:9d:dc:5b:a7:4e:30:23:2d:21:4f:8e:8c:fd:9c:
         69:43:bc:c3:e0:af:bd:2d:10:4c:f7:12:08:ff:b7:94:78:95:
         99:58:30:f3:a2:59:96:6d:05:fc:b7:98:e7:30:24:bd:bc:0e:
         ec:cb:55:d6:15:fd:d2:79:7b:a3:03:5c:92:d6:5b:9e:b6:b1:
         d4:bd:9e:75:9c:e7:d8:a6:4c:61:34:b0:3e:7b:82:aa:77:70:
         3a:b2:7f:e3:ed:36:e4:62:4c:e0:ac:fb:c9:65:45:5c:67:bc:
         24:9f:9c:9c:ce:fe:1b:41:d8:16:64:54:86:96:01:db:3d:e4:
         8b:f3:10:83:a5:df:1b:24:90:01:89:3c:24:9c:a2:fe:f8:07:
         47:54:ab:0e:88:40:57:4e:3c:4c:71:11:96:81:0f:c6:61:e1:
         f8:f5:f3:84:9f:fc:37:ba:d7:bc:fe:43:6c:37:3e:92:d2:8b:
         ca:25:dc:fa:39:e3:0c:0c:58:6e:ea:ac:e0:1a:bf:fc:90:2a:
         74:a3:0c:7a:a2:ed:b7:ca:fe:26:2b:31:ed:8a:f3:cf:1c:5d:
         b9:03:56:0f:70:61:f9:84:30:24:83:85:fa:d7:a3:69:74:fb:
         e5:b6:8c:e2:f0:fe:70:d8:59:7d:72:81:39:ba:20:9b:92:d0:
         f5:33:95:40:80:db:5c:a2:b9:bb:65:09:5e:cf:6a:de:6e:98:
         97:b4:90:76:9f:81:0c:4a:fb:a4:d7:f2:1a:af:f1:b6:0a:b1:
         f6:46:2c:8e:85:67:a0:aa:63:45:03:29:ef:1e:e4:91:f5:b9:
         f0:a1:02:82:d2:75:59:a9:fc:4f:ee:aa:9c:e6:77:5c:bb:bd:
         e2:d0:0f:d7:81:da:15:8a:3a:d6:27:86:f0:18:6d:5f:6c:e8:
         dd:34:ed:9c:d1:ff:95:80
-----BEGIN CERTIFICATE-----
MIIEbTCCAlWgAwIBAgICEpcwDQYJKoZIhvcNAQELBQAwgZ0xCzAJBgNVBAYTAkRF
MQ8wDQYDVQQIDAZCYXllcm4xFDASBgNVBAcMC07Dg8K8cm5iZXJnMRMwEQYDVQQK
DApTaWVtZW5zIEFHMRQwEgYDVQQLDAtUcnVzdGNlbnRlcjERMA8GA1UEAwwIT2xp
dmVyQ0ExKTAnBgkqhkiG9w0BCQEWGm9saXZlci5zdGlsbGVyQHNpZW1lbnMuY29t
MB4XDTIwMTAwODExNDk1NVoXDTIxMTAwODExNDk1NVowLDEWMBQGA1UECgwNRG9u
dCB0cnVzdCBtZTESMBAGA1UEAwwJSWdub3JlIG1lMIIBIjANBgkqhkiG9w0BAQEF
AAOCAQ8AMIIBCgKCAQEAvu3CPCOlh3BfAv4nHuSHjw8hW6gt0uMEUOyMykNF+swy
7pXOepDkNu/xgajqVlH7VpH1tSBKQDUrOMG7xB2oaw1Vl21ES8LRDDoSLs1jHaq8
Vz99qzqkUSKP9SBUa6dQbMhzJl26B4mhNFVJHV1AlllbU2KUrBdcvLi0HzetWvyU
ci4GPH+u1KxmZMFbi1gE3j9s90AlhLs1g1sq1aXJAkR/c7FKbmTXgmauMZVhOvuq
96PDnwa0mPtp7DCw6+boPD4rf6KUBBDopxzEfoy9On1PVqKRjYO7Mqjczn/ByolA
WRIVD1qObx+GrnDfgdXOMKqTDX7Pci8S12ikvwlJvQIDAQABoycwJTAjBgNVHSUE
HDAaBggrBgEFBQcDAQYEVR0lAAYIKwYBBQUHAwQwDQYJKoZIhvcNAQELBQADggIB
ALUKPL9qcpuzKcPSryy4/SZlMmQQ053gRog5aMhwCRXl9UiKkcOPwXP2CGw2j69R
+7RR9B2vDg2N7anPIrwLgZwvFNJqiA+2oWsN0io/Cazx8cVdRiHmbNNAM7NYT3la
GqJMQuiBhAWANjq98D/D1RhTCUCm6KvVECKeuVZPKcNqszwjhOrF42QzV/UIam41
B5w5XFgjBd+EJ/NFb+1vLT0UUjDAPuOd3FunTjAjLSFPjoz9nGlDvMPgr70tEEz3
Egj/t5R4lZlYMPOiWZZtBfy3mOcwJL28DuzLVdYV/dJ5e6MDXJLWW562sdS9nnWc
59imTGE0sD57gqp3cDqyf+PtNuRiTOCs+8llRVxnvCSfnJzO/htB2BZkVIaWAds9
5IvzEIOl3xskkAGJPCScov74B0dUqw6IQFdOPExxEZaBD8Zh4fj184Sf/De617z+
Q2w3PpLSi8ol3Po54wwMWG7qrOAav/yQKnSjDHqi7bfK/iYrMe2K888cXbkDVg9w
YfmEMCSDhfrXo2l0++W2jOLw/nDYWX1ygTm6IJuS0PUzlUCA21yiubtlCV7Pat5u
mJe0kHafgQxK+6TX8hqv8bYKsfZGLI6FZ6CqY0UDKe8e5JH1ufChAoLSdVmp/E/u
qpzmd1y7veLQD9eB2hWKOtYnhvAYbV9s6N007ZzR/5WA
-----END CERTIFICATE-----
