Certificate:
    Data:
        Version: 3 (0x2)
        Serial Number: 4760 (0x1298)
        Signature Algorithm: sha256WithRSAEncryption
        Issuer: C=DE, ST=Bayern, L=N\xC3\x83\xC2\xBCrnberg, O=Siemens AG, OU=Trustcenter, CN=OliverCA/emailAddress=oliver.stiller@siemens.com
        Validity
            Not Before: Oct  8 11:50:06 2020 GMT
            Not After : Oct  8 11:50:06 2021 GMT
        Subject: O=Dont trust me, CN=Ignore me
        Subject Public Key Info:
            Public Key Algorithm: rsaEncryption
                RSA Public-Key: (2048 bit)
                Modulus:
                    00:b5:e0:cb:b3:1f:12:84:06:ea:b0:9b:a1:af:c8:
                    88:1e:da:fd:5d:e0:ab:be:05:a9:e3:a0:6f:69:b2:
                    35:54:10:c7:07:a9:bb:f2:e3:36:f1:17:cd:ce:ff:
                    71:ad:c2:41:b2:ac:21:89:2c:2a:cf:2e:22:b1:2e:
                    11:34:ba:7c:ee:12:b1:2c:a2:86:9b:27:12:88:35:
                    c7:d4:a4:d9:e2:10:03:10:5e:41:dc:a8:6c:cb:1c:
                    eb:cf:cf:41:b4:95:ac:14:01:ff:82:bb:fe:e1:c0:
                    27:64:80:e6:7b:65:80:0f:17:b7:44:28:ce:23:89:
                    0a:bc:1e:ac:55:4f:3c:51:95:76:a8:2e:78:90:77:
                    91:c9:9c:7a:b9:54:09:95:e0:54:c7:88:0d:98:88:
                    e0:99:5f:c7:7b:a9:53:3a:12:d5:0b:6e:57:e1:53:
                    1d:2b:46:62:01:88:8f:0b:e0:bd:04:77:ef:2d:f1:
                    78:64:b0:a7:a5:5b:b2:8e:11:2e:5d:9c:02:ef:ad:
                    19:2f:26:8a:a9:9f:eb:07:f1:c8:30:16:9c:f6:31:
                    05:bd:93:e5:65:23:a5:89:34:c9:b5:50:d4:26:4e:
                    32:86:4a:92:67:f2:93:61:ea:3e:a1:dd:ca:1c:0a:
                    2b:2b:10:41:9e:c4:07:a1:53:b7:98:a7:c4:61:3c:
                    a4:85
                Exponent: 65537 (0x10001)
        X509v3 extensions:
            X509v3 Extended Key Usage: 
                TLS Web Server Authentication, Any Extended Key Usage, E-mail Protection
            OCSP No Check: 

    Signature Algorithm: sha256WithRSAEncryption
         68:df:cc:a9:17:45:f6:21:11:e7:cc:f2:f7:78:88:a9:ea:36:
         0b:a5:88:b4:6f:7a:f4:b6:c7:2c:cb:18:e5:99:63:26:f9:d3:
         d7:ec:7e:75:77:9d:ec:f4:50:67:a3:2e:32:a2:c1:b9:a1:37:
         95:66:c3:d3:42:a2:7e:05:45:5e:6a:83:dc:3e:9f:e7:8c:3b:
         f9:ab:d6:b9:54:11:e2:94:26:7a:8a:1e:40:c8:bf:68:87:22:
         10:9b:44:d1:59:20:cc:2f:9b:4e:4f:02:0a:7d:fd:24:9f:0c:
         21:24:00:8b:7f:6e:7b:07:ab:ee:33:d6:d7:39:59:04:11:21:
         23:8a:23:69:49:1e:2e:4b:f9:66:76:97:0b:6a:ea:11:93:d9:
         4e:59:b5:16:27:5e:6d:5d:8d:20:5d:f6:0e:ef:b2:ae:fe:cf:
         58:f7:a8:a6:0d:c8:48:e3:c7:cd:f8:6c:c9:e2:86:26:88:5d:
         b8:ff:93:57:d3:eb:f4:85:df:03:61:2e:ba:cc:6c:47:a6:25:
         a3:bf:c5:a3:b3:b6:d5:a9:af:98:a1:d5:03:ba:9c:d1:cc:4d:
         c3:39:ab:40:6f:f7:15:27:ac:19:61:da:a1:a9:9b:d9:c7:d8:
         95:77:a5:90:88:fe:41:46:4b:d9:a0:34:e6:2c:3b:19:d5:69:
         f7:21:7e:7b:ce:8d:e5:5d:1a:8b:d4:bc:b7:3d:d4:ea:06:7c:
         1f:67:81:6c:53:e5:66:3d:af:50:fe:50:10:69:92:b8:2d:bf:
         ff:6c:8a:54:5e:70:b8:7a:66:08:01:2d:26:cd:67:13:e6:eb:
         7f:4f:f8:f7:c9:ef:9f:fb:c5:38:50:15:46:3d:ea:a5:d6:1f:
         66:de:40:31:32:93:d4:3e:6e:22:1f:91:1e:65:2f:43:58:b4:
         05:37:91:1b:ae:83:a0:44:2d:41:a2:55:9d:31:b0:f2:b8:ee:
         95:eb:4b:82:8e:70:2b:90:fc:11:f2:5a:15:42:7e:1d:b5:7c:
         c9:1e:9a:70:c5:90:74:43:bb:04:ec:dc:b5:fb:86:64:6f:e4:
         8b:84:99:db:13:f5:0f:7d:e6:e7:fc:7b:37:fc:d6:5c:e8:a0:
         ce:4e:29:36:7b:19:4b:74:dd:f3:bf:72:ce:64:db:3e:74:97:
         e4:d1:3b:b5:4e:d6:15:ab:4a:91:ef:dd:ae:ec:89:47:bb:c5:
         73:d3:2c:38:7e:14:93:77:89:a8:86:0d:8b:ed:e3:da:82:a2:
         fb:8d:43:b4:e3:ec:c2:69:1b:52:b8:47:f5:1e:66:a3:b8:9f:
         ac:af:71:13:8c:84:50:69:d3:4b:44:6d:f4:62:d1:b9:64:3f:
         07:71:b9:1a:44:2a:3a:d4
-----BEGIN CERTIFICATE-----
MIIEfjCCAmagAwIBAgICEpgwDQYJKoZIhvcNAQELBQAwgZ0xCzAJBgNVBAYTAkRF
MQ8wDQYDVQQIDAZCYXllcm4xFDASBgNVBAcMC07Dg8K8cm5iZXJnMRMwEQYDVQQK
DApTaWVtZW5zIEFHMRQwEgYDVQQLDAtUcnVzdGNlbnRlcjERMA8GA1UEAwwIT2xp
dmVyQ0ExKTAnBgkqhkiG9w0BCQEWGm9saXZlci5zdGlsbGVyQHNpZW1lbnMuY29t
MB4XDTIwMTAwODExNTAwNloXDTIxMTAwODExNTAwNlowLDEWMBQGA1UECgwNRG9u
dCB0cnVzdCBtZTESMBAGA1UEAwwJSWdub3JlIG1lMIIBIjANBgkqhkiG9w0BAQEF
AAOCAQ8AMIIBCgKCAQEAteDLsx8ShAbqsJuhr8iIHtr9XeCrvgWp46BvabI1VBDH
B6m78uM28RfNzv9xrcJBsqwhiSwqzy4isS4RNLp87hKxLKKGmycSiDXH1KTZ4hAD
EF5B3Khsyxzrz89BtJWsFAH/grv+4cAnZIDme2WADxe3RCjOI4kKvB6sVU88UZV2
qC54kHeRyZx6uVQJleBUx4gNmIjgmV/He6lTOhLVC25X4VMdK0ZiAYiPC+C9BHfv
LfF4ZLCnpVuyjhEuXZwC760ZLyaKqZ/rB/HIMBac9jEFvZPlZSOliTTJtVDUJk4y
hkqSZ/KTYeo+od3KHAorKxBBnsQHoVO3mKfEYTykhQIDAQABozgwNjAjBgNVHSUE
HDAaBggrBgEFBQcDAQYEVR0lAAYIKwYBBQUHAwQwDwYJKwYBBQUHMAEFBAIFADAN
BgkqhkiG9w0BAQsFAAOCAgEAaN/MqRdF9iER58zy93iIqeo2C6WItG969LbHLMsY
5ZljJvnT1+x+dXed7PRQZ6MuMqLBuaE3lWbD00KifgVFXmqD3D6f54w7+avWuVQR
4pQmeooeQMi/aIciEJtE0VkgzC+bTk8CCn39JJ8MISQAi39uewer7jPW1zlZBBEh
I4ojaUkeLkv5ZnaXC2rqEZPZTlm1FidebV2NIF32Du+yrv7PWPeopg3ISOPHzfhs
yeKGJohduP+TV9Pr9IXfA2EuusxsR6Ylo7/Fo7O21amvmKHVA7qc0cxNwzmrQG/3
FSesGWHaoamb2cfYlXelkIj+QUZL2aA05iw7GdVp9yF+e86N5V0ai9S8tz3U6gZ8
H2eBbFPlZj2vUP5QEGmSuC2//2yKVF5wuHpmCAEtJs1nE+brf0/498nvn/vFOFAV
Rj3qpdYfZt5AMTKT1D5uIh+RHmUvQ1i0BTeRG66DoEQtQaJVnTGw8rjuletLgo5w
K5D8EfJaFUJ+HbV8yR6acMWQdEO7BOzctfuGZG/ki4SZ2xP1D33m5/x7N/zWXOig
zk4pNnsZS3Td879yzmTbPnSX5NE7tU7WFatKke/druyJR7vFc9MsOH4Uk3eJqIYN
i+3j2oKi+41DtOPswmkbUrhH9R5mo7ifrK9xE4yEUGnTS0Rt9GLRuWQ/B3G5GkQq
OtQ=
-----END CERTIFICATE-----
