Certificate:
    Data:
        Version: 3 (0x2)
        Serial Number: 4757 (0x1295)
        Signature Algorithm: sha256WithRSAEncryption
        Issuer: C=DE, ST=Bayern, L=N\xC3\x83\xC2\xBCrnberg, O=Siemens AG, OU=Trustcenter, CN=OliverCA/emailAddress=oliver.stiller@siemens.com
        Validity
            Not Before: Oct  8 11:49:35 2020 GMT
            Not After : Oct  8 11:49:35 2021 GMT
        Subject: O=Dont trust me, CN=Ignore me
        Subject Public Key Info:
            Public Key Algorithm: rsaEncryption
                RSA Public-Key: (2048 bit)
                Modulus:
                    00:d3:1c:9c:2e:11:77:f4:a1:6f:cc:c4:7d:c1:a0:
                    ca:44:d1:38:f7:4b:a6:6b:df:72:08:4c:5d:58:40:
                    3f:a4:c8:4e:8d:26:c8:ac:a9:30:bf:84:d0:c5:8a:
                    b2:7d:2b:9b:d2:8f:0b:38:47:dc:8a:6d:91:a5:1f:
                    b4:70:c9:72:76:b6:7d:43:ac:0e:10:a5:8f:2b:57:
                    db:7a:93:58:cc:89:81:db:24:c2:f6:a1:e0:f7:1e:
                    f1:ac:b3:7d:2b:99:ff:34:85:9a:19:ae:d6:f8:34:
                    a2:71:7c:cd:23:f1:95:8b:c7:41:63:38:79:d5:c9:
                    2e:8e:03:f4:a2:35:fd:cd:a3:5c:b3:56:f1:f4:db:
                    c7:ca:ec:a5:28:f7:b7:44:b2:6f:cc:c7:14:9f:5c:
                    a9:bb:83:07:72:7a:b1:3f:e6:cd:1d:23:b7:26:04:
                    cd:d4:63:6f:db:94:42:6c:b4:e1:6e:15:54:7b:1f:
                    a5:81:5f:e2:08:00:f5:4e:93:4a:98:82:92:6c:1e:
                    38:1e:7b:f6:5a:7d:10:0b:80:10:02:c8:f8:1c:f6:
                    e1:99:ec:bb:05:5b:b5:e8:27:c9:09:0e:a4:ec:10:
                    0f:fb:4b:9a:33:f2:5a:00:03:31:a3:0d:06:26:c5:
                    68:3f:e7:b4:c3:19:1f:ca:ac:76:18:44:36:9e:35:
                    9a:11
                Exponent: 65537 (0x10001)
        X509v3 extensions:
            X509v3 Extended Key Usage: 
                TLS Web Server Authentication, E-mail Protection
    Signature Algorithm: sha256WithRSAEncryption
         22:3d:40:41:ae:4d:cc:6d:00:f2:aa:53:fa:31:02:e4:a1:d6:
         2b:ba:e7:0b:8e:b7:77:cf:a2:18:0e:a5:df:70:47:66:2f:55:
         9a:22:73:8d:7d:18:e4:c9:ea:7d:58:ee:a0:28:05:a8:a0:f4:
         af:4c:48:a3:e3:53:83:15:a7:b3:9d:f0:43:82:9a:36:28:8f:
         ab:87:04:d2:b2:a4:98:56:91:73:31:ed:57:8b:a7:7d:05:16:
         c9:4e:8e:f5:67:c6:8b:af:1d:ad:53:e6:57:05:e4:64:a2:21:
         aa:22:ef:63:da:e7:8e:89:45:56:49:6d:0e:73:d0:62:aa:c5:
         1b:78:e9:38:4a:bc:dd:b0:ad:3e:54:2b:7e:80:3b:43:de:e0:
         c5:26:71:03:9e:b6:75:af:4c:ea:01:24:91:f6:50:e9:d5:d3:
         36:cc:f4:d4:1c:73:c9:4c:82:5f:40:65:21:80:87:36:ea:a6:
         43:9e:d8:22:92:15:9c:fc:37:ba:15:c2:5a:93:19:3a:54:ad:
         0b:42:48:ff:b5:f6:e4:ba:a4:ae:93:83:a1:02:fd:f9:71:76:
         0d:6b:bd:f2:a8:8a:09:3e:7d:49:56:f7:6c:c1:cf:b0:5b:4f:
         12:f5:e9:89:5e:4d:7f:c0:c3:67:63:20:ce:92:52:1c:c5:09:
         82:3e:d5:94:43:59:49:fa:f6:96:33:40:ec:78:7c:27:7e:f9:
         eb:0b:d5:b0:34:52:04:dc:97:40:2b:98:c4:78:2b:fe:44:78:
         db:b1:94:50:ff:5a:34:42:1b:e8:2a:01:d3:71:5e:79:51:53:
         a2:49:4b:9d:6c:42:7b:db:45:67:66:13:53:55:69:74:14:57:
         d1:4c:78:29:fd:82:34:c8:44:06:24:4e:14:81:da:41:fa:be:
         cd:d3:f6:d4:71:ac:41:5d:0d:01:e1:f5:d8:3f:98:f3:19:47:
         ce:a2:43:ba:b5:16:c3:ae:49:ae:f2:fa:7a:40:48:d6:a7:78:
         74:d9:1f:57:8c:e4:88:78:ed:3a:91:ea:38:36:2d:32:0c:2a:
         82:04:f3:8c:89:a4:d4:83:6a:95:0e:03:4d:63:04:5a:ff:43:
         d4:8a:d7:09:d7:42:29:22:a7:35:73:f8:53:97:5e:5a:72:4d:
         3b:83:64:18:1f:f1:13:45:a6:77:c8:09:2a:d9:4f:4b:42:45:
         94:9d:3a:19:84:96:f6:c0:33:c2:17:93:81:c2:41:d9:bd:72:
         ec:24:28:6d:eb:14:62:6d:c7:22:e6:c3:00:93:60:38:f8:49:
         c5:41:f0:44:04:7e:d0:08:11:08:47:56:f7:7a:0e:71:bc:40:
         26:dc:64:65:02:83:8b:36
-----BEGIN CERTIFICATE-----
MIIEZzCCAk+gAwIBAgICEpUwDQYJKoZIhvcNAQELBQAwgZ0xCzAJBgNVBAYTAkRF
MQ8wDQYDVQQIDAZCYXllcm4xFDASBgNVBAcMC07Dg8K8cm5iZXJnMRMwEQYDVQQK
DApTaWVtZW5zIEFHMRQwEgYDVQQLDAtUcnVzdGNlbnRlcjERMA8GA1UEAwwIT2xp
dmVyQ0ExKTAnBgkqhkiG9w0BCQEWGm9saXZlci5zdGlsbGVyQHNpZW1lbnMuY29t
MB4XDTIwMTAwODExNDkzNVoXDTIxMTAwODExNDkzNVowLDEWMBQGA1UECgwNRG9u
dCB0cnVzdCBtZTESMBAGA1UEAwwJSWdub3JlIG1lMIIBIjANBgkqhkiG9w0BAQEF
AAOCAQ8AMIIBCgKCAQEA0xycLhF39KFvzMR9waDKRNE490uma99yCExdWEA/pMhO
jSbIrKkwv4TQxYqyfSub0o8LOEfcim2RpR+0cMlydrZ9Q6wOEKWPK1fbepNYzImB
2yTC9qHg9x7xrLN9K5n/NIWaGa7W+DSicXzNI/GVi8dBYzh51ckujgP0ojX9zaNc
s1bx9NvHyuylKPe3RLJvzMcUn1ypu4MHcnqxP+bNHSO3JgTN1GNv25RCbLThbhVU
ex+lgV/iCAD1TpNKmIKSbB44Hnv2Wn0QC4AQAsj4HPbhmey7BVu16CfJCQ6k7BAP
+0uaM/JaAAMxow0GJsVoP+e0wxkfyqx2GEQ2njWaEQIDAQABoyEwHzAdBgNVHSUE
FjAUBggrBgEFBQcDAQYIKwYBBQUHAwQwDQYJKoZIhvcNAQELBQADggIBACI9QEGu
TcxtAPKqU/oxAuSh1iu65wuOt3fPohgOpd9wR2YvVZoic419GOTJ6n1Y7qAoBaig
9K9MSKPjU4MVp7Od8EOCmjYoj6uHBNKypJhWkXMx7VeLp30FFslOjvVnxouvHa1T
5lcF5GSiIaoi72Pa546JRVZJbQ5z0GKqxRt46ThKvN2wrT5UK36AO0Pe4MUmcQOe
tnWvTOoBJJH2UOnV0zbM9NQcc8lMgl9AZSGAhzbqpkOe2CKSFZz8N7oVwlqTGTpU
rQtCSP+19uS6pK6Tg6EC/flxdg1rvfKoigk+fUlW92zBz7BbTxL16YleTX/Aw2dj
IM6SUhzFCYI+1ZRDWUn69pYzQOx4fCd++esL1bA0UgTcl0ArmMR4K/5EeNuxlFD/
WjRCG+gqAdNxXnlRU6JJS51sQnvbRWdmE1NVaXQUV9FMeCn9gjTIRAYkThSB2kH6
vs3T9tRxrEFdDQHh9dg/mPMZR86iQ7q1FsOuSa7y+npASNaneHTZH1eM5Ih47TqR
6jg2LTIMKoIE84yJpNSDapUOA01jBFr/Q9SK1wnXQikipzVz+FOXXlpyTTuDZBgf
8RNFpnfICSrZT0tCRZSdOhmElvbAM8IXk4HCQdm9cuwkKG3rFGJtxyLmwwCTYDj4
ScVB8EQEftAIEQhHVvd6DnG8QCbcZGUCg4s2
-----END CERTIFICATE-----
