Certificate:
    Data:
        Version: 3 (0x2)
        Serial Number: 4741 (0x1285)
        Signature Algorithm: sha256WithRSAEncryption
        Issuer: C=DE, ST=Bayern, L=N\xC3\x83\xC2\xBCrnberg, O=Siemens AG, OU=Trustcenter, CN=OliverCA/emailAddress=oliver.stiller@siemens.com
        Validity
            Not Before: Oct  7 11:29:14 2020 GMT
            Not After : Oct  7 11:29:14 2021 GMT
        Subject: O=Dont trust me, CN=Ignore me
        Subject Public Key Info:
            Public Key Algorithm: rsaEncryption
                RSA Public-Key: (2048 bit)
                Modulus:
                    00:e0:e6:c0:f3:9e:3d:21:ca:fd:3f:bb:ec:81:ca:
                    9c:02:60:ea:ab:4a:07:6a:cc:e6:32:81:d4:55:fe:
                    51:cc:d9:47:2b:b4:d9:43:0a:3c:e5:bf:13:ff:fb:
                    c8:bf:a2:6f:25:1d:92:a7:62:c7:4d:9e:3a:e1:1e:
                    e6:45:05:1b:34:ac:94:c8:0c:61:92:8f:80:e9:0d:
                    6f:d3:07:fe:8f:9e:62:ef:bf:63:37:d1:5d:8b:75:
                    c4:51:31:40:5d:2a:9a:a1:be:89:79:20:93:86:64:
                    bd:79:be:70:19:52:7b:d0:66:b4:07:8c:c1:f6:36:
                    cc:df:25:b9:ff:db:45:b7:a8:bb:17:92:78:38:ee:
                    f1:59:c1:aa:3c:35:b7:3a:eb:76:e8:ac:e4:30:3b:
                    a1:8d:f0:0d:23:ae:52:6b:95:84:dd:40:22:a4:e9:
                    38:82:aa:7e:b2:b8:a9:60:ae:40:7d:0c:59:ff:7a:
                    7f:2e:5c:6a:38:9d:70:72:f4:ee:ee:c6:21:51:6a:
                    91:dc:b7:f8:6b:40:c7:a1:59:32:41:e5:61:a4:00:
                    7e:90:80:c8:f2:1d:b5:6f:3c:69:b2:b4:2a:04:1e:
                    94:f1:fd:49:e7:2a:90:9e:41:23:7c:ce:0a:3a:0f:
                    d5:ba:78:5e:3d:b4:3e:f0:d3:4e:fd:98:86:3f:65:
                    b5:a1
                Exponent: 65537 (0x10001)
        X509v3 extensions:
            X509v3 Extended Key Usage: 
                TLS Web Server Authentication
    Signature Algorithm: sha256WithRSAEncryption
         99:4a:b6:3f:da:e0:2f:4f:c0:30:5d:f1:74:fa:c9:42:66:dd:
         bc:3c:3a:53:57:d5:d3:4a:4f:9c:02:0c:d4:00:5b:a7:8e:ac:
         58:c4:c7:62:bd:0c:52:87:3c:f4:27:00:84:b8:49:fd:98:39:
         83:83:5b:b2:2c:d1:b7:fd:18:59:d9:f3:d7:7e:03:e8:d8:d1:
         33:c8:5e:c8:bc:94:a2:fd:a2:ee:fa:90:23:c6:35:2c:69:f3:
         1e:09:59:6f:a9:ab:e8:13:3c:5d:61:37:97:af:96:89:fc:5a:
         08:8a:54:4a:92:f9:04:89:5a:e7:19:f4:5d:78:69:cb:78:3f:
         45:e5:73:3f:74:e5:25:c7:72:7d:1c:5b:db:98:06:28:47:2c:
         e7:eb:f7:ad:7b:54:de:66:13:80:df:12:96:50:26:e6:b7:c5:
         18:31:33:ca:08:39:70:1c:60:9f:63:ac:b7:f9:ba:93:a8:fb:
         48:42:ad:67:02:f2:46:6d:93:a3:4c:74:62:a2:9d:a7:49:b2:
         44:ee:cf:7d:dc:4c:c9:66:b5:cb:26:4d:d4:76:e3:08:81:e6:
         ea:ab:6e:51:e8:c4:65:4e:12:dc:fc:a2:e0:07:1c:a0:e3:08:
         57:97:f7:61:ca:7c:0f:55:8a:b5:07:3e:ea:d6:b6:16:ec:7b:
         38:e5:af:83:10:5d:51:3d:88:eb:9d:dc:c1:d9:80:02:b8:36:
         aa:d0:c9:34:f0:e5:31:e3:5a:03:24:25:26:09:96:c5:a2:bb:
         84:b5:d6:99:61:fd:dc:eb:fa:5a:74:a8:b5:05:f4:b3:8e:4b:
         30:e9:97:e6:c7:19:79:ab:b3:f7:75:8e:51:17:c1:58:86:7a:
         c1:b0:77:91:c6:87:d8:0d:d6:42:c3:e4:73:c9:18:fb:5d:c5:
         cf:ef:8c:93:eb:aa:5b:d9:5d:47:28:77:60:02:b8:91:64:46:
         a3:3c:dd:11:c8:6d:3e:67:54:d5:c9:22:1a:fa:76:42:f8:8e:
         d6:6a:aa:53:ea:d1:81:2d:73:cd:b2:3f:c4:71:23:61:40:b2:
         d9:8a:8c:a5:90:83:b4:ef:21:e8:a3:c4:c7:91:18:47:58:8d:
         cf:d3:0d:0b:a7:3d:16:5f:13:90:8f:9b:76:64:3e:d7:20:e3:
         7c:13:b5:87:dc:b0:18:1e:02:ed:b8:f8:f8:67:18:06:53:09:
         59:e8:47:a1:f1:fd:17:1d:98:80:45:9e:de:9e:d7:53:56:19:
         63:0c:a2:de:18:da:20:06:c1:e6:8f:63:89:78:11:ef:37:09:
         9c:bd:7f:cc:97:d0:3b:ba:11:73:d6:ac:01:b3:b4:10:df:e9:
         06:79:55:85:37:94:fd:8e
-----BEGIN CERTIFICATE-----
MIIEXTCCAkWgAwIBAgICEoUwDQYJKoZIhvcNAQELBQAwgZ0xCzAJBgNVBAYTAkRF
MQ8wDQYDVQQIDAZCYXllcm4xFDASBgNVBAcMC07Dg8K8cm5iZXJnMRMwEQYDVQQK
DApTaWVtZW5zIEFHMRQwEgYDVQQLDAtUcnVzdGNlbnRlcjERMA8GA1UEAwwIT2xp
dmVyQ0ExKTAnBgkqhkiG9w0BCQEWGm9saXZlci5zdGlsbGVyQHNpZW1lbnMuY29t
MB4XDTIwMTAwNzExMjkxNFoXDTIxMTAwNzExMjkxNFowLDEWMBQGA1UECgwNRG9u
dCB0cnVzdCBtZTESMBAGA1UEAwwJSWdub3JlIG1lMIIBIjANBgkqhkiG9w0BAQEF
AAOCAQ8AMIIBCgKCAQEA4ObA8549Icr9P7vsgcqcAmDqq0oHaszmMoHUVf5RzNlH
K7TZQwo85b8T//vIv6JvJR2Sp2LHTZ464R7mRQUbNKyUyAxhko+A6Q1v0wf+j55i
779jN9Fdi3XEUTFAXSqaob6JeSCThmS9eb5wGVJ70Ga0B4zB9jbM3yW5/9tFt6i7
F5J4OO7xWcGqPDW3Out26KzkMDuhjfANI65Sa5WE3UAipOk4gqp+sripYK5AfQxZ
/3p/LlxqOJ1wcvTu7sYhUWqR3Lf4a0DHoVkyQeVhpAB+kIDI8h21bzxpsrQqBB6U
8f1J5yqQnkEjfM4KOg/VunhePbQ+8NNO/ZiGP2W1oQIDAQABoxcwFTATBgNVHSUE
DDAKBggrBgEFBQcDATANBgkqhkiG9w0BAQsFAAOCAgEAmUq2P9rgL0/AMF3xdPrJ
QmbdvDw6U1fV00pPnAIM1ABbp46sWMTHYr0MUoc89CcAhLhJ/Zg5g4NbsizRt/0Y
Wdnz134D6NjRM8heyLyUov2i7vqQI8Y1LGnzHglZb6mr6BM8XWE3l6+WifxaCIpU
SpL5BIla5xn0XXhpy3g/ReVzP3TlJcdyfRxb25gGKEcs5+v3rXtU3mYTgN8SllAm
5rfFGDEzygg5cBxgn2Ost/m6k6j7SEKtZwLyRm2To0x0YqKdp0myRO7PfdxMyWa1
yyZN1HbjCIHm6qtuUejEZU4S3Pyi4AccoOMIV5f3Ycp8D1WKtQc+6ta2Fux7OOWv
gxBdUT2I653cwdmAArg2qtDJNPDlMeNaAyQlJgmWxaK7hLXWmWH93Ov6WnSotQX0
s45LMOmX5scZeauz93WOURfBWIZ6wbB3kcaH2A3WQsPkc8kY+13Fz++Mk+uqW9ld
Ryh3YAK4kWRGozzdEchtPmdU1ckiGvp2QviO1mqqU+rRgS1zzbI/xHEjYUCy2YqM
pZCDtO8h6KPEx5EYR1iNz9MNC6c9Fl8TkI+bdmQ+1yDjfBO1h9ywGB4C7bj4+GcY
BlMJWehHofH9Fx2YgEWe3p7XU1YZYwyi3hjaIAbB5o9jiXgR7zcJnL1/zJfQO7oR
c9asAbO0EN/pBnlVhTeU/Y4=
-----END CERTIFICATE-----
