Certificate:
    Data:
        Version: 3 (0x2)
        Serial Number: 4742 (0x1286)
        Signature Algorithm: sha256WithRSAEncryption
        Issuer: C=DE, ST=Bayern, L=N\xC3\x83\xC2\xBCrnberg, O=Siemens AG, OU=Trustcenter, CN=OliverCA/emailAddress=oliver.stiller@siemens.com
        Validity
            Not Before: Oct  7 11:29:59 2020 GMT
            Not After : Oct  7 11:29:59 2021 GMT
        Subject: O=Dont trust me, CN=Ignore me
        Subject Public Key Info:
            Public Key Algorithm: rsaEncryption
                RSA Public-Key: (2048 bit)
                Modulus:
                    00:b6:cb:e2:68:16:7b:c3:99:c2:55:57:f6:18:92:
                    7d:b0:f0:b4:ad:68:b6:ee:50:29:d0:27:be:2f:b4:
                    32:3e:9e:81:b5:84:f3:1d:f6:63:e0:31:2a:b9:61:
                    be:2c:94:3e:70:fa:60:f4:c4:80:a4:5c:26:f4:22:
                    11:e2:c7:40:ec:8d:ad:70:ac:65:be:2d:7b:0f:35:
                    13:45:bd:c2:91:b2:04:6e:16:3c:26:7a:c8:96:1d:
                    9e:93:ac:85:97:2a:aa:d5:53:a8:e9:9f:4e:3d:2e:
                    30:f0:8c:72:fe:19:f7:7a:1c:d3:ef:02:36:35:02:
                    c8:50:ce:58:55:fa:36:f8:22:fa:3f:1a:6d:4d:55:
                    7e:77:dc:90:eb:60:ea:09:0f:54:b4:ab:e8:d5:9d:
                    89:9c:18:29:a6:39:40:18:ce:ce:b1:91:03:a0:a0:
                    cc:e1:ef:9d:1a:d9:2e:6e:8d:a6:04:0f:1b:c9:79:
                    6d:7b:2e:6e:d8:9a:11:01:15:9a:04:05:e1:68:75:
                    12:6b:a1:61:a0:16:6d:8e:9d:2f:89:45:17:a2:d1:
                    dc:8a:4a:31:e5:7c:ca:24:c1:ef:92:e7:57:5e:34:
                    71:b8:2c:24:4f:f1:e5:a1:eb:77:ae:6d:1e:e3:ae:
                    c8:54:2b:26:03:ee:a6:08:25:2b:69:b3:17:26:66:
                    e9:99
                Exponent: 65537 (0x10001)
        X509v3 extensions:
            X509v3 Extended Key Usage: 
                TLS Web Server Authentication
            OCSP No Check: 

    Signature Algorithm: sha256WithRSAEncryption
         db:b7:22:09:84:71:34:c9:ef:86:61:01:36:78:29:42:a3:08:
         0a:55:e5:a3:76:e3:89:61:9c:12:c7:5e:e2:b2:5a:0c:89:16:
         ca:5a:78:1a:47:0e:54:3d:a3:ed:2c:35:39:16:65:7f:db:fd:
         b4:11:ce:1b:a1:c5:9b:8d:72:cc:63:17:fe:21:e6:1c:3d:a2:
         f6:cc:eb:c3:94:3c:df:7f:01:fa:f9:07:e3:94:2e:2d:35:65:
         ae:cd:87:29:0c:34:18:89:db:0c:b1:a9:37:26:f0:aa:85:4a:
         e4:be:da:9f:b6:f2:2d:7c:2c:b5:de:5d:b7:6d:fd:04:fb:10:
         42:53:99:96:03:bd:b0:8c:d8:78:48:4b:cf:09:22:36:f4:2b:
         02:48:e0:9d:78:63:18:6e:2b:b1:d5:48:f8:5e:2e:3c:b3:ae:
         97:a4:41:92:9d:e7:92:cc:c5:6c:f0:a1:e9:cc:fe:0b:95:4e:
         df:20:1f:5f:68:09:11:e5:d3:40:e2:44:7f:5e:fb:1d:d1:ba:
         42:25:c3:c0:90:1d:28:ab:80:f5:6a:ba:6e:40:74:60:89:13:
         9f:82:c0:c3:19:10:aa:ad:88:36:2d:96:5e:2e:2e:8a:fc:e4:
         50:53:fb:f9:a1:13:fc:3c:8c:5c:6e:c8:83:35:9b:1c:20:0f:
         0c:4d:d9:40:ac:b7:db:07:c2:ae:54:f2:32:dd:3b:58:9e:19:
         4d:37:27:dc:58:ed:6a:f2:e6:c4:13:58:29:3d:1a:d8:3e:44:
         92:21:66:4e:e3:74:7b:28:81:19:d6:2e:9a:53:c7:8a:df:9d:
         d3:97:fa:7b:79:30:25:62:76:86:c2:8b:94:95:06:e3:58:8d:
         28:a9:a3:9b:ef:32:3c:4c:5e:26:d0:4b:e9:22:82:c2:f0:c1:
         2e:55:74:3f:e2:f4:06:53:39:f1:75:11:ef:df:1f:d5:74:8a:
         5c:e7:2a:22:c3:17:10:68:71:2e:cb:8c:d5:fe:da:7b:27:49:
         4a:2c:d6:35:e6:91:23:5c:d3:19:71:71:36:4b:38:e8:9e:5b:
         3f:8d:e2:f0:44:d0:ee:f9:a5:61:55:90:16:d4:80:23:90:b8:
         b6:63:6f:86:71:86:e1:c0:f6:ee:5d:1e:06:31:75:00:d7:59:
         37:9c:23:09:30:68:d6:99:a1:0f:a8:2e:5e:3b:07:aa:82:25:
         27:b5:00:22:bf:61:0a:0d:ea:bc:c4:3d:bc:85:9a:12:00:cc:
         43:ce:11:fd:a8:db:b1:4d:44:9b:a2:84:63:22:42:14:a8:62:
         f2:5e:47:9a:c2:a7:7e:40:55:aa:54:b9:09:b2:1a:3a:ce:f6:
         f3:49:0f:ee:40:47:fc:6c
-----BEGIN CERTIFICATE-----
MIIEbjCCAlagAwIBAgICEoYwDQYJKoZIhvcNAQELBQAwgZ0xCzAJBgNVBAYTAkRF
MQ8wDQYDVQQIDAZCYXllcm4xFDASBgNVBAcMC07Dg8K8cm5iZXJnMRMwEQYDVQQK
DApTaWVtZW5zIEFHMRQwEgYDVQQLDAtUcnVzdGNlbnRlcjERMA8GA1UEAwwIT2xp
dmVyQ0ExKTAnBgkqhkiG9w0BCQEWGm9saXZlci5zdGlsbGVyQHNpZW1lbnMuY29t
MB4XDTIwMTAwNzExMjk1OVoXDTIxMTAwNzExMjk1OVowLDEWMBQGA1UECgwNRG9u
dCB0cnVzdCBtZTESMBAGA1UEAwwJSWdub3JlIG1lMIIBIjANBgkqhkiG9w0BAQEF
AAOCAQ8AMIIBCgKCAQEAtsviaBZ7w5nCVVf2GJJ9sPC0rWi27lAp0Ce+L7QyPp6B
tYTzHfZj4DEquWG+LJQ+cPpg9MSApFwm9CIR4sdA7I2tcKxlvi17DzUTRb3CkbIE
bhY8JnrIlh2ek6yFlyqq1VOo6Z9OPS4w8Ixy/hn3ehzT7wI2NQLIUM5YVfo2+CL6
PxptTVV+d9yQ62DqCQ9UtKvo1Z2JnBgppjlAGM7OsZEDoKDM4e+dGtkubo2mBA8b
yXltey5u2JoRARWaBAXhaHUSa6FhoBZtjp0viUUXotHcikox5XzKJMHvkudXXjRx
uCwkT/Hloet3rm0e467IVCsmA+6mCCUrabMXJmbpmQIDAQABoygwJjATBgNVHSUE
DDAKBggrBgEFBQcDATAPBgkrBgEFBQcwAQUEAgUAMA0GCSqGSIb3DQEBCwUAA4IC
AQDbtyIJhHE0ye+GYQE2eClCowgKVeWjduOJYZwSx17isloMiRbKWngaRw5UPaPt
LDU5FmV/2/20Ec4bocWbjXLMYxf+IeYcPaL2zOvDlDzffwH6+QfjlC4tNWWuzYcp
DDQYidsMsak3JvCqhUrkvtqftvItfCy13l23bf0E+xBCU5mWA72wjNh4SEvPCSI2
9CsCSOCdeGMYbiux1Uj4Xi48s66XpEGSneeSzMVs8KHpzP4LlU7fIB9faAkR5dNA
4kR/Xvsd0bpCJcPAkB0oq4D1arpuQHRgiROfgsDDGRCqrYg2LZZeLi6K/ORQU/v5
oRP8PIxcbsiDNZscIA8MTdlArLfbB8KuVPIy3TtYnhlNNyfcWO1q8ubEE1gpPRrY
PkSSIWZO43R7KIEZ1i6aU8eK353Tl/p7eTAlYnaGwouUlQbjWI0oqaOb7zI8TF4m
0EvpIoLC8MEuVXQ/4vQGUznxdRHv3x/VdIpc5yoiwxcQaHEuy4zV/tp7J0lKLNY1
5pEjXNMZcXE2Szjonls/jeLwRNDu+aVhVZAW1IAjkLi2Y2+GcYbhwPbuXR4GMXUA
11k3nCMJMGjWmaEPqC5eOweqgiUntQAiv2EKDeq8xD28hZoSAMxDzhH9qNuxTUSb
ooRjIkIUqGLyXkeawqd+QFWqVLkJsho6zvbzSQ/uQEf8bA==
-----END CERTIFICATE-----
