Certificate:
    Data:
        Version: 3 (0x2)
        Serial Number: 4748 (0x128c)
        Signature Algorithm: sha256WithRSAEncryption
        Issuer: C=DE, ST=Bayern, L=N\xC3\x83\xC2\xBCrnberg, O=Siemens AG, OU=Trustcenter, CN=OliverCA/emailAddress=oliver.stiller@siemens.com
        Validity
            Not Before: Oct  7 11:31:05 2020 GMT
            Not After : Oct  7 11:31:05 2021 GMT
        Subject: O=Dont trust me, CN=Ignore me
        Subject Public Key Info:
            Public Key Algorithm: rsaEncryption
                RSA Public-Key: (2048 bit)
                Modulus:
                    00:ce:ab:cb:7c:ac:70:fa:47:5c:b5:4c:20:9c:96:
                    22:9e:35:56:3b:6c:db:6a:b3:4f:d4:00:cc:76:73:
                    c4:91:41:a3:58:31:2a:d7:8d:e8:a7:c5:a3:ad:02:
                    18:d4:8a:63:14:c1:a4:7f:4b:b9:9b:67:bd:0e:f9:
                    84:99:15:28:b5:3e:69:39:ad:09:fa:45:27:fd:b6:
                    81:a4:35:ca:6b:fb:c6:3a:72:a6:53:d5:35:d1:bc:
                    1c:99:7b:10:4f:22:ec:dc:f5:dd:68:42:d5:d7:74:
                    5b:6c:ac:15:bd:67:51:44:53:c0:52:f3:2e:7c:bc:
                    f2:0e:e4:6b:5f:1d:39:49:30:0b:ae:ea:01:0d:33:
                    b3:d6:69:45:ed:a8:23:bc:f8:44:ee:90:d2:d8:85:
                    c9:55:51:91:b9:fb:56:52:89:11:44:8a:c5:e7:b5:
                    d8:8c:ee:94:42:13:e0:f9:0c:6b:15:f8:51:9c:20:
                    c8:23:04:80:56:bd:01:5c:c5:2d:15:d8:7b:1d:1d:
                    57:aa:e6:96:88:e8:42:60:1f:65:1b:9e:fb:ac:2a:
                    87:88:31:92:46:81:46:a9:a8:24:58:57:05:7b:7a:
                    62:d3:36:39:c5:c0:b0:3d:ed:91:f1:80:77:7c:91:
                    3e:bc:b4:58:87:4c:de:c8:ce:48:f7:05:3d:ce:5e:
                    c1:bd
                Exponent: 65537 (0x10001)
        X509v3 extensions:
            X509v3 Extended Key Usage: 
                OCSP Signing, Any Extended Key Usage
            OCSP No Check: 

    Signature Algorithm: sha256WithRSAEncryption
         9e:05:c2:6e:73:6f:e6:6d:b8:a3:7a:55:84:dc:b4:dc:90:b4:
         4d:28:2b:ff:88:48:ac:b5:e1:cc:1e:ba:fa:bf:7f:27:ff:ef:
         3c:49:79:33:93:54:3b:72:98:22:a8:79:c6:6c:5c:2f:45:ce:
         8b:7a:9a:9f:1a:bd:f7:2d:f7:44:44:f2:df:9d:d0:30:ce:b8:
         44:54:4f:2c:39:f7:10:76:ae:6f:e3:4d:2a:f2:3f:2f:f6:28:
         70:02:6e:91:cd:fb:5e:9d:e0:f3:ec:fa:d9:0d:7b:0f:fe:ee:
         76:dc:6a:9e:e1:52:ea:4c:82:65:3a:69:58:09:ad:56:78:ca:
         b8:fb:eb:f5:4a:f7:78:1e:e9:52:d4:bd:da:65:9a:7a:41:a5:
         f3:e8:82:c5:f8:77:f9:19:73:14:8f:23:c0:fc:ad:2c:04:f0:
         29:fc:48:2e:b9:45:87:64:9f:c3:0d:2b:1c:bd:b7:0c:a4:fa:
         74:74:54:12:81:24:fb:7a:99:ff:93:3f:f6:63:4d:cb:69:e2:
         2c:3f:0d:2d:c2:fd:e0:17:7f:a0:cd:02:5d:57:28:fb:ea:5e:
         68:1c:23:bc:1b:2c:1d:14:d1:9e:9d:32:05:4a:b3:e0:1f:77:
         95:29:19:14:4e:53:81:38:31:41:ee:b4:16:93:33:af:5b:d0:
         5b:65:e8:e3:2e:b9:ae:65:95:97:f0:7e:d9:32:a8:9c:9e:a1:
         33:23:5f:01:0f:2c:94:c4:5f:31:e0:ce:89:35:47:27:8f:2b:
         de:35:76:07:ad:57:09:98:41:7f:6b:01:99:ee:bd:3c:bd:c2:
         56:cb:a7:c1:64:dd:43:10:b8:16:14:d5:9b:6e:34:f9:9d:ac:
         b3:d6:0d:ec:11:67:7a:c6:2c:6b:64:ed:69:d7:ee:90:5f:c8:
         f3:80:b9:74:e6:17:7c:b9:30:89:74:2a:3c:e6:7a:7c:5f:73:
         70:ae:1c:95:5b:6c:c8:5a:8f:2e:63:ee:61:30:c4:12:9e:3b:
         10:41:1f:87:e9:d2:76:77:06:56:2b:73:9b:1e:38:2d:26:17:
         e0:e8:db:42:35:c6:f3:67:ac:5e:55:d6:a7:78:71:04:b1:3e:
         49:ae:10:ce:94:af:38:72:f2:96:86:9c:3f:af:2f:c3:ed:78:
         ca:0d:e3:87:10:2d:c4:48:e2:63:16:b8:9e:84:ed:3d:b0:09:
         fd:59:e9:7e:8d:63:77:fc:4f:72:f3:4c:b6:87:e6:ae:3a:c4:
         44:d1:eb:c0:8f:7e:fe:75:14:af:3b:5f:79:07:9d:df:10:d9:
         de:73:13:37:58:8c:c3:6a:03:dd:b9:b4:36:28:4c:b1:f7:06:
         07:b0:12:60:68:cb:3f:f4
-----BEGIN CERTIFICATE-----
MIIEdDCCAlygAwIBAgICEowwDQYJKoZIhvcNAQELBQAwgZ0xCzAJBgNVBAYTAkRF
MQ8wDQYDVQQIDAZCYXllcm4xFDASBgNVBAcMC07Dg8K8cm5iZXJnMRMwEQYDVQQK
DApTaWVtZW5zIEFHMRQwEgYDVQQLDAtUcnVzdGNlbnRlcjERMA8GA1UEAwwIT2xp
dmVyQ0ExKTAnBgkqhkiG9w0BCQEWGm9saXZlci5zdGlsbGVyQHNpZW1lbnMuY29t
MB4XDTIwMTAwNzExMzEwNVoXDTIxMTAwNzExMzEwNVowLDEWMBQGA1UECgwNRG9u
dCB0cnVzdCBtZTESMBAGA1UEAwwJSWdub3JlIG1lMIIBIjANBgkqhkiG9w0BAQEF
AAOCAQ8AMIIBCgKCAQEAzqvLfKxw+kdctUwgnJYinjVWO2zbarNP1ADMdnPEkUGj
WDEq143op8WjrQIY1IpjFMGkf0u5m2e9DvmEmRUotT5pOa0J+kUn/baBpDXKa/vG
OnKmU9U10bwcmXsQTyLs3PXdaELV13RbbKwVvWdRRFPAUvMufLzyDuRrXx05STAL
ruoBDTOz1mlF7agjvPhE7pDS2IXJVVGRuftWUokRRIrF57XYjO6UQhPg+QxrFfhR
nCDIIwSAVr0BXMUtFdh7HR1XquaWiOhCYB9lG577rCqHiDGSRoFGqagkWFcFe3pi
0zY5xcCwPe2R8YB3fJE+vLRYh0zeyM5I9wU9zl7BvQIDAQABoy4wLDAZBgNVHSUE
EjAQBggrBgEFBQcDCQYEVR0lADAPBgkrBgEFBQcwAQUEAgUAMA0GCSqGSIb3DQEB
CwUAA4ICAQCeBcJuc2/mbbijelWE3LTckLRNKCv/iEisteHMHrr6v38n/+88SXkz
k1Q7cpgiqHnGbFwvRc6LepqfGr33LfdERPLfndAwzrhEVE8sOfcQdq5v400q8j8v
9ihwAm6RzfteneDz7PrZDXsP/u523Gqe4VLqTIJlOmlYCa1WeMq4++v1Svd4HulS
1L3aZZp6QaXz6ILF+Hf5GXMUjyPA/K0sBPAp/EguuUWHZJ/DDSscvbcMpPp0dFQS
gST7epn/kz/2Y03LaeIsPw0twv3gF3+gzQJdVyj76l5oHCO8GywdFNGenTIFSrPg
H3eVKRkUTlOBODFB7rQWkzOvW9BbZejjLrmuZZWX8H7ZMqicnqEzI18BDyyUxF8x
4M6JNUcnjyveNXYHrVcJmEF/awGZ7r08vcJWy6fBZN1DELgWFNWbbjT5nayz1g3s
EWd6xixrZO1p1+6QX8jzgLl05hd8uTCJdCo85np8X3NwrhyVW2zIWo8uY+5hMMQS
njsQQR+H6dJ2dwZWK3ObHjgtJhfg6NtCNcbzZ6xeVdaneHEEsT5JrhDOlK84cvKW
hpw/ry/D7XjKDeOHEC3ESOJjFriehO09sAn9Wel+jWN3/E9y80y2h+auOsRE0evA
j37+dRSvO195B53fENnecxM3WIzDagPdubQ2KEyx9wYHsBJgaMs/9A==
-----END CERTIFICATE-----
