Certificate:
    Data:
        Version: 3 (0x2)
        Serial Number: 4746 (0x128a)
        Signature Algorithm: sha256WithRSAEncryption
        Issuer: C=DE, ST=Bayern, L=N\xC3\x83\xC2\xBCrnberg, O=Siemens AG, OU=Trustcenter, CN=OliverCA/emailAddress=oliver.stiller@siemens.com
        Validity
            Not Before: Oct  7 11:30:45 2020 GMT
            Not After : Oct  7 11:30:45 2021 GMT
        Subject: O=Dont trust me, CN=Ignore me
        Subject Public Key Info:
            Public Key Algorithm: rsaEncryption
                RSA Public-Key: (2048 bit)
                Modulus:
                    00:b3:52:13:7b:e4:1c:93:7c:32:35:31:1b:e2:9e:
                    b4:a3:f1:a7:68:4a:b6:d2:48:3f:e5:dd:6d:5f:9d:
                    c8:0a:b8:0d:2e:40:2d:fc:ba:f1:84:3e:50:a3:95:
                    5e:ab:1e:c3:86:85:20:13:c8:48:e4:f8:17:27:5f:
                    7d:7d:6b:ae:66:81:dc:92:25:f8:c0:68:76:e1:db:
                    b8:30:48:a9:f6:61:11:de:11:76:10:d8:2f:06:0d:
                    fb:92:76:d8:2f:ce:f1:f7:bb:e5:5f:33:08:e0:e7:
                    a1:b8:eb:69:c8:d1:63:06:4b:3e:ec:45:8a:40:90:
                    6c:74:f4:51:58:ef:2e:8c:0f:67:e4:60:ff:7b:6f:
                    7c:e3:f1:fb:c9:40:77:6b:ef:6a:3c:63:17:70:75:
                    e4:ba:cf:9b:69:bd:6d:5e:18:2d:dc:c7:7e:ac:8f:
                    86:15:f2:e3:f8:44:bc:6e:b5:13:c4:a3:7c:b5:b0:
                    2f:d6:51:26:cc:22:c1:46:c4:04:be:3a:8f:be:04:
                    70:1b:e3:d6:7d:26:08:43:12:8c:fd:58:56:3d:99:
                    d0:73:8a:1d:13:3e:a9:7f:3c:f2:20:85:12:c1:5e:
                    3c:1a:3c:4d:5b:7d:ef:5f:ec:34:09:00:e1:f9:f5:
                    1f:6f:95:5e:6f:32:4b:35:cd:08:ae:a3:c2:eb:6d:
                    0f:95
                Exponent: 65537 (0x10001)
        X509v3 extensions:
            X509v3 Extended Key Usage: 
                OCSP Signing
            OCSP No Check: 

    Signature Algorithm: sha256WithRSAEncryption
         9b:c8:e2:1e:ac:f3:f4:f4:c6:0d:a4:60:59:7a:79:6e:96:93:
         1f:84:1b:a3:b3:c1:c6:f3:5a:5e:5a:7f:e7:79:06:0d:ba:2f:
         25:d6:3b:8e:b2:97:a2:27:a1:39:75:c4:c4:b7:a0:46:44:03:
         ba:51:5b:f6:df:31:e4:fa:42:98:00:32:a5:e8:1a:7a:e8:84:
         f9:c0:bd:e1:ac:66:43:8a:e4:bd:23:15:13:38:52:25:46:52:
         3d:3e:70:a1:30:20:83:b2:72:35:17:d2:eb:8d:b8:c6:b2:4e:
         af:1b:dd:49:d6:78:40:3e:1e:80:37:91:f5:d2:2c:76:bd:92:
         68:b2:27:cf:74:1b:86:06:8e:ac:52:96:a6:73:8a:c3:4c:a5:
         42:3f:b6:36:9b:cb:d0:de:91:39:13:e3:c7:ed:fc:d3:a2:06:
         8b:e1:5f:e8:bb:05:5d:7d:cc:5e:a6:36:2e:b4:1d:49:b3:ae:
         64:11:23:9b:4e:a9:1d:e8:0e:70:62:93:a6:02:85:38:4a:72:
         86:b7:30:fe:cd:85:7e:6a:cd:8a:7f:80:66:c0:85:81:24:94:
         b3:5b:8d:b5:cb:8c:6c:15:62:5f:4e:a0:f5:6e:9a:60:2a:df:
         1b:25:f6:c5:0b:4f:3a:80:2d:a4:47:62:75:70:bc:f1:04:e7:
         1d:58:e4:b4:a1:95:cc:f7:24:39:70:11:bf:74:0f:62:e6:e5:
         ed:59:4b:48:9e:87:c2:57:04:79:86:bd:7f:42:e0:28:0a:d8:
         ed:6b:8d:c4:a3:ef:9e:c2:35:02:ac:8f:83:ba:0d:2d:33:4d:
         84:d9:35:9c:08:51:3a:84:0a:ee:4a:d0:f8:45:82:93:c5:e1:
         64:27:cc:02:41:cb:a3:51:e8:b7:8a:4a:64:68:97:ad:59:9c:
         d4:db:14:7c:64:21:cc:09:e7:87:97:e5:06:08:27:bd:a5:19:
         f4:f5:da:3c:7f:2c:fd:00:51:85:25:ad:56:ea:7f:9c:73:c1:
         2a:59:54:0e:94:a9:81:16:89:73:46:5a:5f:66:34:57:e6:18:
         e2:57:13:b8:74:b6:88:13:83:16:f9:2c:61:fa:c9:a1:fb:d9:
         e8:3b:53:a2:4c:b5:ce:47:56:23:aa:1c:f9:f0:98:ec:47:39:
         78:fa:59:2b:ed:96:98:c6:36:de:fc:ec:8a:97:05:8f:27:78:
         12:7a:82:6e:17:00:8a:76:86:45:4e:d8:6c:ff:07:b3:29:7c:
         ee:f9:90:1c:1f:4d:c1:20:f5:b6:94:b1:3e:3f:1f:fd:1d:3b:
         2b:2f:94:82:ff:4e:af:1c:43:c1:3d:53:89:6d:28:1e:8e:5f:
         07:00:36:0f:52:7a:35:54
-----BEGIN CERTIFICATE-----
MIIEbjCCAlagAwIBAgICEoowDQYJKoZIhvcNAQELBQAwgZ0xCzAJBgNVBAYTAkRF
MQ8wDQYDVQQIDAZCYXllcm4xFDASBgNVBAcMC07Dg8K8cm5iZXJnMRMwEQYDVQQK
DApTaWVtZW5zIEFHMRQwEgYDVQQLDAtUcnVzdGNlbnRlcjERMA8GA1UEAwwIT2xp
dmVyQ0ExKTAnBgkqhkiG9w0BCQEWGm9saXZlci5zdGlsbGVyQHNpZW1lbnMuY29t
MB4XDTIwMTAwNzExMzA0NVoXDTIxMTAwNzExMzA0NVowLDEWMBQGA1UECgwNRG9u
dCB0cnVzdCBtZTESMBAGA1UEAwwJSWdub3JlIG1lMIIBIjANBgkqhkiG9w0BAQEF
AAOCAQ8AMIIBCgKCAQEAs1ITe+Qck3wyNTEb4p60o/GnaEq20kg/5d1tX53ICrgN
LkAt/LrxhD5Qo5Veqx7DhoUgE8hI5PgXJ199fWuuZoHckiX4wGh24du4MEip9mER
3hF2ENgvBg37knbYL87x97vlXzMI4OehuOtpyNFjBks+7EWKQJBsdPRRWO8ujA9n
5GD/e2984/H7yUB3a+9qPGMXcHXkus+bab1tXhgt3Md+rI+GFfLj+ES8brUTxKN8
tbAv1lEmzCLBRsQEvjqPvgRwG+PWfSYIQxKM/VhWPZnQc4odEz6pfzzyIIUSwV48
GjxNW33vX+w0CQDh+fUfb5VebzJLNc0IrqPC620PlQIDAQABoygwJjATBgNVHSUE
DDAKBggrBgEFBQcDCTAPBgkrBgEFBQcwAQUEAgUAMA0GCSqGSIb3DQEBCwUAA4IC
AQCbyOIerPP09MYNpGBZenlulpMfhBujs8HG81peWn/neQYNui8l1juOspeiJ6E5
dcTEt6BGRAO6UVv23zHk+kKYADKl6Bp66IT5wL3hrGZDiuS9IxUTOFIlRlI9PnCh
MCCDsnI1F9LrjbjGsk6vG91J1nhAPh6AN5H10ix2vZJosifPdBuGBo6sUpamc4rD
TKVCP7Y2m8vQ3pE5E+PH7fzTogaL4V/ouwVdfcxepjYutB1Js65kESObTqkd6A5w
YpOmAoU4SnKGtzD+zYV+as2Kf4BmwIWBJJSzW421y4xsFWJfTqD1bppgKt8bJfbF
C086gC2kR2J1cLzxBOcdWOS0oZXM9yQ5cBG/dA9i5uXtWUtInofCVwR5hr1/QuAo
Ctjta43Eo++ewjUCrI+Dug0tM02E2TWcCFE6hAruStD4RYKTxeFkJ8wCQcujUei3
ikpkaJetWZzU2xR8ZCHMCeeHl+UGCCe9pRn09do8fyz9AFGFJa1W6n+cc8EqWVQO
lKmBFolzRlpfZjRX5hjiVxO4dLaIE4MW+Sxh+smh+9noO1OiTLXOR1Yjqhz58Jjs
Rzl4+lkr7ZaYxjbe/OyKlwWPJ3gSeoJuFwCKdoZFTths/wezKXzu+ZAcH03BIPW2
lLE+Px/9HTsrL5SC/06vHEPBPVOJbSgejl8HADYPUno1VA==
-----END CERTIFICATE-----
