Certificate:
    Data:
        Version: 3 (0x2)
        Serial Number: 4761 (0x1299)
        Signature Algorithm: sha256WithRSAEncryption
        Issuer: C=DE, ST=Bayern, L=N\xC3\x83\xC2\xBCrnberg, O=Siemens AG, OU=Trustcenter, CN=OliverCA/emailAddress=oliver.stiller@siemens.com
        Validity
            Not Before: Oct  8 11:50:16 2020 GMT
            Not After : Oct  8 11:50:16 2021 GMT
        Subject: O=Dont trust me, CN=Ignore me
        Subject Public Key Info:
            Public Key Algorithm: rsaEncryption
                RSA Public-Key: (2048 bit)
                Modulus:
                    00:de:55:13:17:b3:05:24:03:ee:f6:80:98:e5:8e:
                    ca:22:18:54:38:2c:3d:e6:51:1a:1a:00:21:66:2f:
                    28:e2:f6:51:a3:78:48:d6:98:70:8f:3a:4b:b5:17:
                    0a:e1:55:78:fe:b7:e2:95:f3:d8:37:4e:0c:0b:ff:
                    31:22:6a:39:f9:4b:be:41:7d:b3:a6:58:a4:f5:3d:
                    a5:09:51:b4:ef:79:3a:2e:21:2f:b0:9c:8b:e0:c6:
                    d6:8f:1f:e3:5d:1c:b4:16:14:84:51:10:16:c1:97:
                    4d:24:30:86:cf:20:c5:29:18:1e:a8:e7:2a:3e:ad:
                    ca:44:7b:40:d6:a5:13:55:09:be:71:b9:cf:4d:62:
                    82:de:39:d5:a3:12:de:d2:dd:c2:c2:6d:88:75:e6:
                    49:17:87:1f:49:95:9f:3c:be:25:71:16:3c:17:7d:
                    bf:13:60:82:89:aa:c1:ca:82:c4:73:d2:cf:85:fb:
                    ae:2c:de:98:b3:d8:a7:5c:9b:41:7d:02:63:31:56:
                    84:ac:b3:07:26:19:19:3d:45:fd:de:0a:9e:d3:b3:
                    16:02:23:0f:0a:35:6f:55:81:3e:87:d0:78:48:93:
                    44:4e:39:5d:b5:d4:da:65:48:9d:6c:c0:11:e4:91:
                    0c:d5:ef:8b:16:7d:c6:6d:59:84:61:39:5f:8c:3d:
                    af:05
                Exponent: 65537 (0x10001)
        X509v3 extensions:
            X509v3 Extended Key Usage: 
                OCSP Signing, E-mail Protection
    Signature Algorithm: sha256WithRSAEncryption
         77:f2:46:2d:66:97:8b:00:79:37:92:f5:ca:d7:3c:50:b9:26:
         4a:a5:d5:2b:c8:30:21:ea:62:de:d3:ac:9e:a2:22:03:0c:88:
         ff:63:e5:4c:86:58:2a:ce:67:68:71:b5:54:6f:8c:a4:cd:35:
         3d:3f:14:07:d7:5a:65:8d:e6:e9:ce:7b:40:b4:d0:b3:80:39:
         20:69:f4:4f:68:cf:84:34:a8:b9:97:83:89:ad:8b:70:ae:40:
         a7:3a:71:1a:0d:7b:7b:cc:c5:4d:67:81:2d:10:c9:c4:b2:f3:
         59:bd:a0:ee:bb:d2:60:c5:88:20:b9:cc:85:a1:df:11:8d:16:
         8f:2f:5e:ed:be:9c:b5:10:ac:cb:a1:71:1c:82:0c:3b:09:11:
         ed:1c:3f:36:5c:79:66:9c:20:50:b1:ee:7a:c5:db:e0:78:a6:
         22:c8:04:b0:b9:3e:28:5c:c8:dc:91:63:a4:c8:c6:41:64:82:
         1e:d4:d4:90:40:cb:83:39:c6:75:81:e4:3d:d9:e0:0a:0f:fe:
         70:6d:a4:98:4c:7f:57:10:e4:d2:38:3a:e9:bd:28:d4:c6:7a:
         90:69:a5:e9:36:ba:b6:3f:80:b7:d1:64:ac:44:b2:c2:76:7b:
         82:0f:f9:01:cd:b9:9f:9c:92:b7:d9:84:53:22:a6:3a:4b:07:
         4a:6a:ed:07:d1:a4:31:be:18:13:66:9d:39:d4:57:c9:e8:ee:
         ff:d2:aa:05:aa:0c:74:98:d0:e1:33:2a:71:3f:e9:16:0a:f9:
         33:18:2f:aa:f1:ac:e0:1d:28:04:ae:e4:a4:2e:4e:4e:5b:e8:
         54:03:ca:6b:ce:9a:c7:5d:f6:97:3b:cc:6a:3c:39:fe:5f:8b:
         5d:3a:de:c9:a8:eb:41:c6:96:62:ee:87:f5:f6:27:a4:2e:b8:
         59:bf:36:04:7a:5e:47:b7:b5:59:8f:c5:5c:d8:b6:14:7f:8d:
         25:ab:fd:46:53:9d:3d:64:17:12:d4:8f:50:1c:80:b7:d7:b0:
         94:52:5e:11:54:8f:6c:fb:53:f1:39:8e:6d:3f:cc:af:c3:f2:
         67:83:1a:29:45:9d:ee:5d:97:46:f3:fc:c2:4f:5f:37:02:cd:
         c9:2f:6e:98:8f:5d:f5:ab:73:e9:4b:ce:f4:46:9e:a0:41:72:
         08:77:f5:02:be:d3:ff:65:fd:d8:a5:23:9b:a4:b6:cd:4d:35:
         cf:62:3c:59:e3:80:4a:d8:2d:b2:d9:28:8d:a2:95:97:26:ec:
         68:c1:02:4e:96:29:ad:c6:8f:c3:dc:5c:a5:f6:ec:d5:c6:24:
         d8:06:0d:71:6f:e3:58:ed:04:37:29:f6:35:ee:64:b4:db:23:
         15:16:62:58:94:34:49:ef
-----BEGIN CERTIFICATE-----
MIIEZzCCAk+gAwIBAgICEpkwDQYJKoZIhvcNAQELBQAwgZ0xCzAJBgNVBAYTAkRF
MQ8wDQYDVQQIDAZCYXllcm4xFDASBgNVBAcMC07Dg8K8cm5iZXJnMRMwEQYDVQQK
DApTaWVtZW5zIEFHMRQwEgYDVQQLDAtUcnVzdGNlbnRlcjERMA8GA1UEAwwIT2xp
dmVyQ0ExKTAnBgkqhkiG9w0BCQEWGm9saXZlci5zdGlsbGVyQHNpZW1lbnMuY29t
MB4XDTIwMTAwODExNTAxNloXDTIxMTAwODExNTAxNlowLDEWMBQGA1UECgwNRG9u
dCB0cnVzdCBtZTESMBAGA1UEAwwJSWdub3JlIG1lMIIBIjANBgkqhkiG9w0BAQEF
AAOCAQ8AMIIBCgKCAQEA3lUTF7MFJAPu9oCY5Y7KIhhUOCw95lEaGgAhZi8o4vZR
o3hI1phwjzpLtRcK4VV4/rfilfPYN04MC/8xImo5+Uu+QX2zplik9T2lCVG073k6
LiEvsJyL4MbWjx/jXRy0FhSEURAWwZdNJDCGzyDFKRgeqOcqPq3KRHtA1qUTVQm+
cbnPTWKC3jnVoxLe0t3Cwm2IdeZJF4cfSZWfPL4lcRY8F32/E2CCiarByoLEc9LP
hfuuLN6Ys9inXJtBfQJjMVaErLMHJhkZPUX93gqe07MWAiMPCjVvVYE+h9B4SJNE
TjldtdTaZUidbMAR5JEM1e+LFn3GbVmEYTlfjD2vBQIDAQABoyEwHzAdBgNVHSUE
FjAUBggrBgEFBQcDCQYIKwYBBQUHAwQwDQYJKoZIhvcNAQELBQADggIBAHfyRi1m
l4sAeTeS9crXPFC5Jkql1SvIMCHqYt7TrJ6iIgMMiP9j5UyGWCrOZ2hxtVRvjKTN
NT0/FAfXWmWN5unOe0C00LOAOSBp9E9oz4Q0qLmXg4mti3CuQKc6cRoNe3vMxU1n
gS0QycSy81m9oO670mDFiCC5zIWh3xGNFo8vXu2+nLUQrMuhcRyCDDsJEe0cPzZc
eWacIFCx7nrF2+B4piLIBLC5PihcyNyRY6TIxkFkgh7U1JBAy4M5xnWB5D3Z4AoP
/nBtpJhMf1cQ5NI4Oum9KNTGepBppek2urY/gLfRZKxEssJ2e4IP+QHNuZ+ckrfZ
hFMipjpLB0pq7QfRpDG+GBNmnTnUV8no7v/SqgWqDHSY0OEzKnE/6RYK+TMYL6rx
rOAdKASu5KQuTk5b6FQDymvOmsdd9pc7zGo8Of5fi1063smo60HGlmLuh/X2J6Qu
uFm/NgR6Xke3tVmPxVzYthR/jSWr/UZTnT1kFxLUj1AcgLfXsJRSXhFUj2z7U/E5
jm0/zK/D8meDGilFne5dl0bz/MJPXzcCzckvbpiPXfWrc+lLzvRGnqBBcgh39QK+
0/9l/dilI5ukts1NNc9iPFnjgErYLbLZKI2ilZcm7GjBAk6WKa3Gj8PcXKX27NXG
JNgGDXFv41jtBDcp9jXuZLTbIxUWYliUNEnv
-----END CERTIFICATE-----
