Certificate:
    Data:
        Version: 3 (0x2)
        Serial Number: 4762 (0x129a)
        Signature Algorithm: sha256WithRSAEncryption
        Issuer: C=DE, ST=Bayern, L=N\xC3\x83\xC2\xBCrnberg, O=Siemens AG, OU=Trustcenter, CN=OliverCA/emailAddress=oliver.stiller@siemens.com
        Validity
            Not Before: Oct  8 11:50:26 2020 GMT
            Not After : Oct  8 11:50:26 2021 GMT
        Subject: O=Dont trust me, CN=Ignore me
        Subject Public Key Info:
            Public Key Algorithm: rsaEncryption
                RSA Public-Key: (2048 bit)
                Modulus:
                    00:c2:92:fa:8f:30:62:06:a7:80:6d:e8:08:a7:09:
                    cb:98:05:74:54:f3:3d:1b:8e:01:47:dc:90:8a:c8:
                    ee:58:69:04:95:2b:73:e0:6a:12:6f:6f:35:84:0d:
                    38:f9:3f:c8:c8:cc:34:cd:70:ae:2b:4b:cf:ee:11:
                    fd:3e:b7:59:85:86:29:3e:60:05:58:e3:46:76:91:
                    c1:fc:4d:49:43:58:02:39:08:0a:ab:53:78:ac:85:
                    83:c3:de:7b:4d:dc:c6:2c:51:4d:36:d5:89:2e:73:
                    b9:f8:59:42:83:de:19:61:d0:40:30:62:f9:5b:bc:
                    2f:d5:f0:fe:f9:47:cc:8d:75:de:4f:9b:c7:32:41:
                    55:8b:6f:13:3f:d9:96:a9:d8:aa:d7:b9:ba:4b:a6:
                    5c:b9:4d:06:5f:57:69:69:2b:87:90:3e:8d:d3:20:
                    9b:6e:d0:0a:7d:a9:25:53:f3:f4:b4:ca:3c:24:59:
                    07:7f:ea:f2:52:b0:6e:46:74:28:3e:99:e2:ca:ce:
                    0c:97:af:5e:cc:e3:a6:63:7d:aa:e4:81:e9:20:99:
                    e6:5c:c4:0f:9a:dc:f4:a8:d3:d2:09:ff:87:ee:7a:
                    3f:35:31:78:1a:2d:fb:1d:a9:cd:4a:9f:9d:3f:a1:
                    25:da:5e:c0:9f:5b:c4:8b:53:b2:df:2a:d8:f0:b9:
                    a7:91
                Exponent: 65537 (0x10001)
        X509v3 extensions:
            X509v3 Extended Key Usage: 
                OCSP Signing, E-mail Protection
            OCSP No Check: 

    Signature Algorithm: sha256WithRSAEncryption
         4a:48:c6:32:cd:0b:60:b6:c9:c1:84:fc:e7:6c:d2:85:fb:3f:
         1e:bb:7d:d2:6c:55:cb:ee:f1:65:d6:4b:8b:bd:40:a6:25:f7:
         5f:ef:83:6c:ac:ad:b8:91:3d:d5:9e:9b:9f:3b:a1:31:8b:68:
         35:ce:63:bf:0f:8b:0d:7f:af:21:e3:f7:c0:17:95:2b:3b:b5:
         51:da:78:ba:8a:c5:37:ea:bd:4a:1a:63:66:1b:c8:8d:87:66:
         cf:1e:86:4f:3c:79:07:3d:d4:a2:00:c6:1d:9e:3d:59:dd:e0:
         5f:4e:45:24:4d:c9:0f:47:92:5d:36:87:1f:04:53:f8:5d:c5:
         52:a7:87:bd:02:22:55:02:73:eb:18:98:f3:98:77:f4:0a:52:
         c3:d0:e4:f3:89:3a:ce:62:2b:29:c5:e7:b3:9b:c0:dc:f5:db:
         3c:54:b4:93:45:14:3b:d3:53:2e:ac:51:a7:f2:fb:0a:b1:78:
         5b:2c:ef:94:61:9d:76:9a:41:91:4c:58:e0:8d:b2:03:74:5e:
         83:2b:df:18:5e:34:d0:55:64:af:e0:a4:e3:52:35:b4:66:23:
         ff:7b:b8:19:b9:98:f0:5f:60:9f:95:f3:68:0a:4f:d9:75:93:
         82:a6:bb:3a:d5:f9:db:67:92:78:d4:07:4e:cb:b7:29:ad:b8:
         c1:bd:1b:38:e3:e4:85:2e:97:2f:dd:2d:1c:5b:75:46:01:6c:
         e5:e1:56:97:07:5e:cc:38:bb:f7:7a:ef:33:1c:ed:8e:47:55:
         30:e3:fa:22:e3:30:53:3c:5d:b6:03:13:75:fa:da:2a:46:08:
         f6:88:94:1e:f2:eb:99:91:e7:6e:78:4c:ec:e9:08:e9:ab:07:
         d7:09:6f:0f:57:a3:a6:1b:00:12:b6:e4:6b:86:0e:8e:d6:d8:
         93:0b:51:2c:cc:3e:8e:d9:f7:d4:e5:c9:cf:eb:cb:83:a5:f9:
         00:fb:2a:2b:26:a4:f6:b6:2a:16:39:c7:04:c2:35:6a:76:50:
         b5:f3:1b:5e:5d:14:22:df:3f:65:3b:15:62:ae:a2:72:61:b6:
         df:57:d7:4d:17:39:88:6d:55:fe:f9:27:e5:79:e0:d3:75:2d:
         d7:8d:fd:b2:9f:38:35:c0:f2:72:72:9a:62:b7:ae:7e:64:2a:
         ba:8f:6e:eb:23:34:06:85:ae:ec:43:91:0d:8e:d6:d2:97:37:
         2a:99:e0:a2:8c:3e:ff:f8:8c:d0:52:15:86:19:cd:d1:9b:e9:
         94:b1:27:b5:83:79:40:8d:b8:08:6f:d5:c4:51:58:05:36:94:
         b3:a1:4d:0d:ca:3c:35:05:24:ad:64:96:3a:43:4a:b1:f2:33:
         5f:b9:0b:26:1b:31:3c:d8
-----BEGIN CERTIFICATE-----
MIIEeDCCAmCgAwIBAgICEpowDQYJKoZIhvcNAQELBQAwgZ0xCzAJBgNVBAYTAkRF
MQ8wDQYDVQQIDAZCYXllcm4xFDASBgNVBAcMC07Dg8K8cm5iZXJnMRMwEQYDVQQK
DApTaWVtZW5zIEFHMRQwEgYDVQQLDAtUcnVzdGNlbnRlcjERMA8GA1UEAwwIT2xp
dmVyQ0ExKTAnBgkqhkiG9w0BCQEWGm9saXZlci5zdGlsbGVyQHNpZW1lbnMuY29t
MB4XDTIwMTAwODExNTAyNloXDTIxMTAwODExNTAyNlowLDEWMBQGA1UECgwNRG9u
dCB0cnVzdCBtZTESMBAGA1UEAwwJSWdub3JlIG1lMIIBIjANBgkqhkiG9w0BAQEF
AAOCAQ8AMIIBCgKCAQEAwpL6jzBiBqeAbegIpwnLmAV0VPM9G44BR9yQisjuWGkE
lStz4GoSb281hA04+T/IyMw0zXCuK0vP7hH9PrdZhYYpPmAFWONGdpHB/E1JQ1gC
OQgKq1N4rIWDw957TdzGLFFNNtWJLnO5+FlCg94ZYdBAMGL5W7wv1fD++UfMjXXe
T5vHMkFVi28TP9mWqdiq17m6S6ZcuU0GX1dpaSuHkD6N0yCbbtAKfaklU/P0tMo8
JFkHf+ryUrBuRnQoPpniys4Ml69ezOOmY32q5IHpIJnmXMQPmtz0qNPSCf+H7no/
NTF4Gi37HanNSp+dP6El2l7An1vEi1Oy3yrY8LmnkQIDAQABozIwMDAdBgNVHSUE
FjAUBggrBgEFBQcDCQYIKwYBBQUHAwQwDwYJKwYBBQUHMAEFBAIFADANBgkqhkiG
9w0BAQsFAAOCAgEASkjGMs0LYLbJwYT852zShfs/Hrt90mxVy+7xZdZLi71ApiX3
X++DbKytuJE91Z6bnzuhMYtoNc5jvw+LDX+vIeP3wBeVKzu1Udp4uorFN+q9Shpj
ZhvIjYdmzx6GTzx5Bz3UogDGHZ49Wd3gX05FJE3JD0eSXTaHHwRT+F3FUqeHvQIi
VQJz6xiY85h39ApSw9Dk84k6zmIrKcXns5vA3PXbPFS0k0UUO9NTLqxRp/L7CrF4
WyzvlGGddppBkUxY4I2yA3RegyvfGF400FVkr+Ck41I1tGYj/3u4GbmY8F9gn5Xz
aApP2XWTgqa7OtX522eSeNQHTsu3Ka24wb0bOOPkhS6XL90tHFt1RgFs5eFWlwde
zDi793rvMxztjkdVMOP6IuMwUzxdtgMTdfraKkYI9oiUHvLrmZHnbnhM7OkI6asH
1wlvD1ejphsAErbka4YOjtbYkwtRLMw+jtn31OXJz+vLg6X5APsqKyak9rYqFjnH
BMI1anZQtfMbXl0UIt8/ZTsVYq6icmG231fXTRc5iG1V/vkn5Xng03Ut1439sp84
NcDycnKaYreufmQquo9u6yM0BoWu7EORDY7W0pc3Kpngoow+//iM0FIVhhnN0Zvp
lLEntYN5QI24CG/VxFFYBTaUs6FNDco8NQUkrWSWOkNKsfIzX7kLJhsxPNg=
-----END CERTIFICATE-----
