Certificate:
    Data:
        Version: 3 (0x2)
        Serial Number: 4764 (0x129c)
        Signature Algorithm: sha256WithRSAEncryption
        Issuer: C=DE, ST=Bayern, L=N\xC3\x83\xC2\xBCrnberg, O=Siemens AG, OU=Trustcenter, CN=OliverCA/emailAddress=oliver.stiller@siemens.com
        Validity
            Not Before: Oct  8 11:50:46 2020 GMT
            Not After : Oct  8 11:50:46 2021 GMT
        Subject: O=Dont trust me, CN=Ignore me
        Subject Public Key Info:
            Public Key Algorithm: rsaEncryption
                RSA Public-Key: (2048 bit)
                Modulus:
                    00:c6:78:9a:b9:61:09:7b:85:5c:f0:4b:31:1b:bc:
                    d9:c4:8f:0e:68:4d:e1:88:6d:38:50:91:7d:64:d2:
                    fd:65:72:34:05:bc:ac:02:bb:d2:45:d7:dc:58:a1:
                    f7:2c:f6:7f:a9:de:1b:6f:79:88:ba:97:5e:dc:12:
                    39:77:5f:c2:ea:6c:e7:0e:fd:ce:1b:2c:18:6c:ad:
                    2f:c0:f5:be:ed:3e:e3:47:ea:a0:bb:1f:b7:2f:06:
                    da:56:42:fe:d3:40:5b:fd:a6:3e:dc:0b:95:e2:68:
                    ab:37:f6:d1:5f:d4:1f:2f:79:a1:b4:21:fb:ec:55:
                    c7:a9:41:db:6d:a1:2b:60:ff:20:5e:8e:01:b1:75:
                    15:16:9b:f3:5c:51:99:df:a4:62:3a:af:db:58:ae:
                    13:52:ed:ac:0b:c9:3c:9e:37:35:14:5c:7a:05:6a:
                    e7:d1:09:f3:1a:86:1a:31:60:cc:34:38:22:48:70:
                    3d:7d:c4:7d:00:76:8b:3e:14:e0:cd:71:3a:39:f4:
                    e0:52:6f:6b:54:1c:40:88:4e:4a:be:fc:8e:e6:16:
                    02:b5:55:72:06:4d:e0:ac:07:32:0a:29:35:6a:44:
                    ab:4b:6c:55:a4:00:b6:09:bc:99:15:87:69:9d:eb:
                    22:ee:a7:c2:07:f5:08:72:f4:1f:48:27:00:de:fb:
                    e7:51
                Exponent: 65537 (0x10001)
        X509v3 extensions:
            X509v3 Extended Key Usage: 
                OCSP Signing, Any Extended Key Usage, E-mail Protection
            OCSP No Check: 

    Signature Algorithm: sha256WithRSAEncryption
         2a:13:61:0e:de:38:df:07:81:f9:9a:e4:e6:f5:13:75:9e:9e:
         f3:04:66:b0:29:fe:83:72:a5:e8:35:f0:d2:c3:7e:fa:44:48:
         4f:d0:46:ea:d8:27:60:fd:22:8d:c9:19:55:a8:2b:57:02:11:
         1c:55:f6:e0:3d:0f:1a:78:e6:b6:6a:91:60:19:d7:8e:86:93:
         34:d4:bd:c0:fc:e5:f0:06:33:5e:e6:cb:b2:6d:bc:7e:99:47:
         77:ba:a4:a9:14:49:d7:e3:17:8b:55:8f:91:42:38:1a:01:e4:
         b8:19:22:ca:ae:2c:54:df:e9:b5:8a:1c:b5:17:6b:c0:8e:43:
         67:d1:7c:17:49:b1:0b:52:51:3a:02:af:2a:8a:2c:aa:81:fe:
         f2:f0:d3:9d:8e:3c:b8:67:fa:ef:01:53:71:74:48:32:2d:ce:
         3f:cd:40:e6:e1:c7:8e:28:ac:4b:10:7c:70:3b:e2:6d:f5:34:
         80:f1:41:7d:e5:57:96:a5:7b:e1:86:89:c1:95:d2:52:0a:eb:
         68:d4:68:0b:c4:28:96:ed:64:1e:71:84:f6:e3:28:43:79:13:
         5c:14:1e:1b:f5:0f:03:35:89:a3:87:e5:18:8d:9b:93:d6:b2:
         3b:1d:70:e0:51:da:aa:34:cd:26:dd:9b:d8:64:90:be:96:ae:
         a7:4d:86:cc:d4:85:b5:9e:25:4f:8d:72:12:b3:02:e5:71:55:
         61:7e:53:b7:ea:2f:0c:0a:0a:06:22:da:2c:b5:d5:38:74:ff:
         e7:bd:a2:11:d9:0c:f2:a4:55:e9:29:b7:15:ec:40:13:2d:da:
         22:9b:e7:66:b1:ce:25:b7:0e:6e:e2:e8:52:32:89:a8:b5:b3:
         cd:de:a4:c5:ec:19:e5:a7:28:9d:49:47:44:8e:6f:b4:b3:1c:
         7f:7b:8d:27:a0:2a:ff:73:a6:b1:e1:9c:28:1a:c3:23:19:a8:
         a6:31:73:c3:0a:23:d9:22:7b:43:d0:3a:0d:d4:5b:dd:34:08:
         0c:18:cf:89:b7:07:d8:f8:2a:cf:43:3b:70:9b:fa:5b:fe:56:
         7b:10:cf:da:6d:28:b5:b4:bd:e5:6c:07:e2:18:46:ce:d5:e8:
         c8:e8:d3:13:ba:46:d1:ee:c2:cc:88:dd:86:8f:54:e3:95:23:
         3e:a0:0b:61:40:b7:e5:b7:99:b7:61:64:7b:f3:be:24:50:c0:
         ab:f7:2e:8d:92:04:57:a3:10:e4:13:47:99:0f:b9:10:fe:36:
         25:64:ae:a9:eb:4f:48:7f:cf:9f:b8:1f:e5:68:68:e4:6b:69:
         d8:e0:4a:07:74:9c:6f:cd:9e:b7:a6:1b:eb:c1:20:29:9d:fc:
         be:84:ba:4f:2f:54:b5:8b
-----BEGIN CERTIFICATE-----
MIIEfjCCAmagAwIBAgICEpwwDQYJKoZIhvcNAQELBQAwgZ0xCzAJBgNVBAYTAkRF
MQ8wDQYDVQQIDAZCYXllcm4xFDASBgNVBAcMC07Dg8K8cm5iZXJnMRMwEQYDVQQK
DApTaWVtZW5zIEFHMRQwEgYDVQQLDAtUcnVzdGNlbnRlcjERMA8GA1UEAwwIT2xp
dmVyQ0ExKTAnBgkqhkiG9w0BCQEWGm9saXZlci5zdGlsbGVyQHNpZW1lbnMuY29t
MB4XDTIwMTAwODExNTA0NloXDTIxMTAwODExNTA0NlowLDEWMBQGA1UECgwNRG9u
dCB0cnVzdCBtZTESMBAGA1UEAwwJSWdub3JlIG1lMIIBIjANBgkqhkiG9w0BAQEF
AAOCAQ8AMIIBCgKCAQEAxniauWEJe4Vc8EsxG7zZxI8OaE3hiG04UJF9ZNL9ZXI0
BbysArvSRdfcWKH3LPZ/qd4bb3mIupde3BI5d1/C6mznDv3OGywYbK0vwPW+7T7j
R+qgux+3LwbaVkL+00Bb/aY+3AuV4mirN/bRX9QfL3mhtCH77FXHqUHbbaErYP8g
Xo4BsXUVFpvzXFGZ36RiOq/bWK4TUu2sC8k8njc1FFx6BWrn0QnzGoYaMWDMNDgi
SHA9fcR9AHaLPhTgzXE6OfTgUm9rVBxAiE5KvvyO5hYCtVVyBk3grAcyCik1akSr
S2xVpAC2CbyZFYdpnesi7qfCB/UIcvQfSCcA3vvnUQIDAQABozgwNjAjBgNVHSUE
HDAaBggrBgEFBQcDCQYEVR0lAAYIKwYBBQUHAwQwDwYJKwYBBQUHMAEFBAIFADAN
BgkqhkiG9w0BAQsFAAOCAgEAKhNhDt443weB+Zrk5vUTdZ6e8wRmsCn+g3Kl6DXw
0sN++kRIT9BG6tgnYP0ijckZVagrVwIRHFX24D0PGnjmtmqRYBnXjoaTNNS9wPzl
8AYzXubLsm28fplHd7qkqRRJ1+MXi1WPkUI4GgHkuBkiyq4sVN/ptYoctRdrwI5D
Z9F8F0mxC1JROgKvKoosqoH+8vDTnY48uGf67wFTcXRIMi3OP81A5uHHjiisSxB8
cDvibfU0gPFBfeVXlqV74YaJwZXSUgrraNRoC8Qolu1kHnGE9uMoQ3kTXBQeG/UP
AzWJo4flGI2bk9ayOx1w4FHaqjTNJt2b2GSQvpaup02GzNSFtZ4lT41yErMC5XFV
YX5Tt+ovDAoKBiLaLLXVOHT/572iEdkM8qRV6Sm3FexAEy3aIpvnZrHOJbcObuLo
UjKJqLWzzd6kxewZ5aconUlHRI5vtLMcf3uNJ6Aq/3OmseGcKBrDIxmopjFzwwoj
2SJ7Q9A6DdRb3TQIDBjPibcH2Pgqz0M7cJv6W/5WexDP2m0otbS95WwH4hhGztXo
yOjTE7pG0e7CzIjdho9U45UjPqALYUC35beZt2Fke/O+JFDAq/cujZIEV6MQ5BNH
mQ+5EP42JWSuqetPSH/Pn7gf5Who5Gtp2OBKB3Scb82et6Yb68EgKZ38voS6Ty9U
tYs=
-----END CERTIFICATE-----
