Certificate:
    Data:
        Version: 3 (0x2)
        Serial Number: 4763 (0x129b)
        Signature Algorithm: sha256WithRSAEncryption
        Issuer: C=DE, ST=Bayern, L=N\xC3\x83\xC2\xBCrnberg, O=Siemens AG, OU=Trustcenter, CN=OliverCA/emailAddress=oliver.stiller@siemens.com
        Validity
            Not Before: Oct  8 11:50:36 2020 GMT
            Not After : Oct  8 11:50:36 2021 GMT
        Subject: O=Dont trust me, CN=Ignore me
        Subject Public Key Info:
            Public Key Algorithm: rsaEncryption
                RSA Public-Key: (2048 bit)
                Modulus:
                    00:bb:f0:88:f3:4f:99:0c:d2:d0:97:3c:e0:34:af:
                    83:34:6d:d4:5b:e5:73:4a:fa:75:31:2a:2c:69:cd:
                    0d:50:11:ba:0e:3e:38:cb:f0:a0:54:2a:17:7a:2d:
                    47:04:15:5f:e4:75:99:e6:ca:ca:12:25:26:d0:6e:
                    05:3a:f7:ad:27:da:4b:b2:95:14:b5:04:cc:c5:83:
                    1b:f4:3b:ec:32:70:4f:60:b6:40:c6:6c:24:55:f5:
                    01:64:f7:73:fd:04:4c:07:65:ef:a2:aa:c1:40:48:
                    11:09:e3:a0:40:b4:8a:86:9a:f5:a6:08:44:87:dd:
                    a9:92:89:f6:ff:68:eb:b1:7b:22:a3:61:ac:f9:55:
                    bb:c7:83:7c:e3:7a:9f:8a:bf:3a:00:fd:63:98:3e:
                    e1:27:fd:18:41:56:5b:4e:58:94:a2:42:0a:12:98:
                    6c:ea:32:7a:77:3f:be:7a:2c:57:2b:e5:70:f7:69:
                    b4:b5:32:dd:07:27:2c:22:cc:5a:00:df:a1:fe:b6:
                    a9:51:bd:db:f2:cf:04:7c:60:a1:fe:19:2f:b7:b2:
                    27:82:d1:6b:a9:5d:ed:77:e5:0c:5b:03:0e:70:dd:
                    52:fb:b1:5e:56:bd:7a:42:bd:df:5d:f3:6f:fe:1a:
                    a9:e0:f1:49:16:9c:41:9c:1b:c3:92:aa:18:70:b5:
                    ed:45
                Exponent: 65537 (0x10001)
        X509v3 extensions:
            X509v3 Extended Key Usage: 
                OCSP Signing, Any Extended Key Usage, E-mail Protection
    Signature Algorithm: sha256WithRSAEncryption
         2c:0b:3c:1d:4f:f1:bb:ae:ef:af:00:2e:62:1e:72:ff:34:ff:
         3e:40:20:89:22:1c:f7:6f:fa:3d:dc:a0:fd:79:de:0e:3e:a4:
         76:64:63:56:36:d6:43:f7:7f:25:d7:b4:ac:50:3a:67:80:8c:
         1b:5e:d3:67:eb:af:4b:6f:5c:b0:be:0b:a0:06:fe:73:7b:5b:
         75:51:ae:d0:61:ef:6d:40:f4:7b:30:32:97:63:7a:f1:4e:b7:
         fa:ca:0f:1b:d8:98:e3:8b:02:71:c7:20:5b:ed:d8:e0:af:cb:
         fa:be:e9:56:1e:08:cb:9f:28:73:b8:e8:f1:c7:0a:03:71:36:
         46:52:6a:e3:09:c0:30:51:39:ce:ed:48:7d:6f:36:4a:6d:fc:
         e6:92:75:68:17:6e:1f:56:3f:a4:cc:2c:ed:4f:7f:c3:a4:1f:
         46:b1:4a:d3:e5:49:9e:43:cb:4d:26:a4:bb:50:af:21:10:70:
         d2:7d:c0:52:73:5f:61:22:ba:91:33:af:fa:a6:14:7c:c5:3f:
         6b:7a:51:62:29:fc:fa:be:89:55:d5:9a:f5:b3:0e:fc:16:09:
         14:1b:c7:af:18:1b:fb:7f:92:54:2a:07:40:a5:f5:a9:39:52:
         05:92:c3:1a:65:e3:3a:d0:2d:74:f2:f1:66:c9:92:e8:93:b2:
         32:0b:06:cf:f0:49:5f:b6:f4:d3:4c:76:b4:98:15:d0:c4:6b:
         48:24:ae:58:e3:97:14:c0:2a:01:4f:ef:90:f9:33:9e:b5:da:
         62:e3:36:37:1c:21:35:9a:f2:21:cb:7c:c7:6f:0a:ba:a2:36:
         35:b5:9e:e8:36:ce:64:b9:ba:67:29:6f:cf:73:39:3f:0a:b2:
         b1:18:3c:82:28:a8:d9:04:ac:8e:d6:d6:b2:89:e3:4f:3f:3c:
         bd:0b:1a:ad:2b:63:34:0c:87:a5:96:0b:50:29:ff:d3:1e:57:
         01:7e:d4:41:f1:51:b0:df:f6:07:45:fd:28:1d:c3:18:77:87:
         9b:cc:76:9a:f0:c7:56:af:c3:42:29:d5:f1:39:c4:28:73:44:
         26:02:64:c3:68:8a:ce:7c:38:90:d1:35:53:8d:be:34:63:a8:
         e1:8c:50:f8:23:87:ba:12:be:31:b5:b9:b5:89:4e:1b:b2:69:
         24:60:2b:50:73:07:e5:03:bd:73:c0:2f:ed:a0:54:35:34:c1:
         76:48:52:1d:d2:68:88:9d:ea:65:8f:f6:3e:9a:b5:d2:af:55:
         a7:90:18:c2:74:7d:65:0b:ef:86:6f:67:c6:b1:75:50:16:43:
         8d:80:87:0f:57:76:7e:27:40:df:9e:a6:ff:b4:3d:ff:2b:3a:
         30:bb:7c:6d:bb:9e:75:97
-----BEGIN CERTIFICATE-----
MIIEbTCCAlWgAwIBAgICEpswDQYJKoZIhvcNAQELBQAwgZ0xCzAJBgNVBAYTAkRF
MQ8wDQYDVQQIDAZCYXllcm4xFDASBgNVBAcMC07Dg8K8cm5iZXJnMRMwEQYDVQQK
DApTaWVtZW5zIEFHMRQwEgYDVQQLDAtUcnVzdGNlbnRlcjERMA8GA1UEAwwIT2xp
dmVyQ0ExKTAnBgkqhkiG9w0BCQEWGm9saXZlci5zdGlsbGVyQHNpZW1lbnMuY29t
MB4XDTIwMTAwODExNTAzNloXDTIxMTAwODExNTAzNlowLDEWMBQGA1UECgwNRG9u
dCB0cnVzdCBtZTESMBAGA1UEAwwJSWdub3JlIG1lMIIBIjANBgkqhkiG9w0BAQEF
AAOCAQ8AMIIBCgKCAQEAu/CI80+ZDNLQlzzgNK+DNG3UW+VzSvp1MSosac0NUBG6
Dj44y/CgVCoXei1HBBVf5HWZ5srKEiUm0G4FOvetJ9pLspUUtQTMxYMb9DvsMnBP
YLZAxmwkVfUBZPdz/QRMB2XvoqrBQEgRCeOgQLSKhpr1pghEh92pkon2/2jrsXsi
o2Gs+VW7x4N843qfir86AP1jmD7hJ/0YQVZbTliUokIKEphs6jJ6dz++eixXK+Vw
92m0tTLdBycsIsxaAN+h/rapUb3b8s8EfGCh/hkvt7IngtFrqV3td+UMWwMOcN1S
+7FeVr16Qr3fXfNv/hqp4PFJFpxBnBvDkqoYcLXtRQIDAQABoycwJTAjBgNVHSUE
HDAaBggrBgEFBQcDCQYEVR0lAAYIKwYBBQUHAwQwDQYJKoZIhvcNAQELBQADggIB
ACwLPB1P8buu768ALmIecv80/z5AIIkiHPdv+j3coP153g4+pHZkY1Y21kP3fyXX
tKxQOmeAjBte02frr0tvXLC+C6AG/nN7W3VRrtBh721A9HswMpdjevFOt/rKDxvY
mOOLAnHHIFvt2OCvy/q+6VYeCMufKHO46PHHCgNxNkZSauMJwDBROc7tSH1vNkpt
/OaSdWgXbh9WP6TMLO1Pf8OkH0axStPlSZ5Dy00mpLtQryEQcNJ9wFJzX2EiupEz
r/qmFHzFP2t6UWIp/Pq+iVXVmvWzDvwWCRQbx68YG/t/klQqB0Cl9ak5UgWSwxpl
4zrQLXTy8WbJkuiTsjILBs/wSV+29NNMdrSYFdDEa0gkrljjlxTAKgFP75D5M561
2mLjNjccITWa8iHLfMdvCrqiNjW1nug2zmS5umcpb89zOT8KsrEYPIIoqNkErI7W
1rKJ408/PL0LGq0rYzQMh6WWC1Ap/9MeVwF+1EHxUbDf9gdF/Sgdwxh3h5vMdprw
x1avw0Ip1fE5xChzRCYCZMNois58OJDRNVONvjRjqOGMUPgjh7oSvjG1ubWJThuy
aSRgK1BzB+UDvXPAL+2gVDU0wXZIUh3SaIid6mWP9j6atdKvVaeQGMJ0fWUL74Zv
Z8axdVAWQ42Ahw9Xdn4nQN+epv+0Pf8rOjC7fG27nnWX
-----END CERTIFICATE-----
