Certificate:
    Data:
        Version: 3 (0x2)
        Serial Number: 4745 (0x1289)
        Signature Algorithm: sha256WithRSAEncryption
        Issuer: C=DE, ST=Bayern, L=N\xC3\x83\xC2\xBCrnberg, O=Siemens AG, OU=Trustcenter, CN=OliverCA/emailAddress=oliver.stiller@siemens.com
        Validity
            Not Before: Oct  7 11:30:34 2020 GMT
            Not After : Oct  7 11:30:34 2021 GMT
        Subject: O=Dont trust me, CN=Ignore me
        Subject Public Key Info:
            Public Key Algorithm: rsaEncryption
                RSA Public-Key: (2048 bit)
                Modulus:
                    00:b4:55:a3:5a:ce:27:db:fc:91:3f:06:d6:ab:f9:
                    f5:c4:f2:16:75:8f:bf:52:29:4a:aa:e1:33:57:28:
                    d6:75:0f:d1:d5:4d:9c:5c:e4:9a:48:a0:1f:d8:e4:
                    80:14:cf:9d:aa:65:f2:f0:a8:0e:67:2c:51:40:ab:
                    f6:e7:1c:3e:5c:82:6d:dd:f5:61:1f:34:51:5a:5b:
                    67:38:f8:ad:a7:00:2f:a4:9f:59:27:ad:30:24:95:
                    9d:17:bc:a3:a2:bb:95:e5:c7:bb:7f:ea:d2:ae:88:
                    47:10:6d:a3:e0:84:c8:a4:da:4a:7c:f6:37:37:d5:
                    93:7b:6c:57:bc:86:3f:c4:8f:9f:ea:65:d5:fb:3c:
                    11:89:f7:58:84:fd:3a:ad:f4:02:3a:09:7b:20:39:
                    e9:8d:bd:00:c7:91:1b:e1:8a:ce:99:0b:63:b9:34:
                    6a:bd:a8:d4:28:69:55:2d:7a:23:93:cc:48:5d:14:
                    01:20:d0:27:15:b4:2e:6f:df:02:e4:69:0d:a8:c8:
                    4a:bd:da:a2:06:6e:cc:99:f6:12:2d:28:ea:39:fb:
                    cb:97:f9:5d:00:9f:4e:47:ed:d6:0c:39:17:c7:58:
                    c9:9f:87:ee:be:50:fc:da:f0:75:5a:2b:af:cb:f5:
                    8a:f9:72:36:86:14:7a:a4:9f:fe:ed:bb:e3:9d:66:
                    ac:45
                Exponent: 65537 (0x10001)
        X509v3 extensions:
            X509v3 Extended Key Usage: 
                OCSP Signing
    Signature Algorithm: sha256WithRSAEncryption
         33:6f:ea:33:5b:1c:e0:21:d3:73:75:ee:83:fa:bf:7d:b4:f4:
         e2:97:bb:92:e3:71:b5:05:36:cf:0d:93:78:fd:4f:1a:3f:04:
         0e:60:35:db:1d:0d:59:d0:ed:c8:aa:9a:89:e4:88:95:77:3d:
         b5:2f:92:5e:c3:a7:f6:22:37:0d:c3:5c:f9:85:81:39:37:15:
         8a:a0:80:ae:a8:69:bb:6d:70:18:ac:22:35:99:e2:2d:06:be:
         d2:e2:02:db:33:a3:9a:aa:da:8f:b9:bf:72:19:66:60:a6:16:
         29:21:62:38:a5:3d:21:12:21:e2:5c:99:5b:0e:f0:b2:a2:78:
         37:1c:1f:79:f9:4f:fc:26:27:a3:34:e5:07:a4:87:2c:21:bb:
         82:36:79:b0:91:b4:a0:7e:ce:46:bf:61:a2:50:97:38:1f:b5:
         8a:52:de:63:b7:95:ab:ec:f1:c8:2e:0f:b8:98:60:77:72:61:
         37:11:c7:00:5e:ff:7e:41:2f:19:47:21:15:fa:0a:22:75:8b:
         17:72:4f:28:e7:14:43:7c:c4:8c:3c:09:b5:b6:e4:fe:9c:96:
         62:83:57:6f:1c:9c:68:fc:e5:b9:e4:ac:4b:e6:02:9c:91:98:
         89:5e:74:f8:6e:e9:4e:2c:98:da:fb:d0:1f:a9:57:a4:9f:58:
         69:ac:e0:2a:c5:19:05:d2:1a:91:99:37:a4:e2:1b:08:ce:6c:
         c6:d2:17:3a:7d:73:08:d4:77:22:5a:db:55:d0:da:77:0f:2c:
         3d:6b:0a:6c:3a:84:97:80:b9:a9:e1:b4:0c:72:57:3b:b6:0b:
         e4:71:b5:63:eb:5c:84:d4:9c:48:1f:e6:6b:bb:1f:9a:13:b5:
         e9:d9:5c:fd:80:3e:7f:b8:c9:48:01:59:54:0c:57:b3:3a:37:
         23:61:0a:2e:e4:d7:76:db:60:2b:62:4b:67:a5:c3:e7:25:7b:
         ba:7c:6f:33:74:3b:3b:c3:42:b4:1f:74:85:d0:47:c2:92:72:
         c3:a8:34:2e:88:ad:e7:13:5e:3c:a8:1c:bd:9e:66:d1:9a:bf:
         c5:58:a7:3d:82:ce:95:37:4e:36:81:af:7e:cb:3b:04:d4:e8:
         a7:5d:b5:7b:da:06:f9:f3:43:7c:37:d9:93:76:79:48:a8:05:
         1a:6f:17:a7:e4:2a:8c:a7:91:71:2c:b6:76:1c:b7:06:0c:86:
         d1:3d:14:14:8f:a5:bb:a8:9f:56:2c:eb:a7:fa:0f:6c:de:c0:
         4a:77:8d:20:26:c3:45:01:61:4b:cd:8a:f5:78:d7:36:f5:8e:
         f8:b7:e5:e5:17:c9:62:eb:47:24:35:fd:de:2c:4b:76:ee:dd:
         aa:2a:32:8f:01:bc:84:57
-----BEGIN CERTIFICATE-----
MIIEXTCCAkWgAwIBAgICEokwDQYJKoZIhvcNAQELBQAwgZ0xCzAJBgNVBAYTAkRF
MQ8wDQYDVQQIDAZCYXllcm4xFDASBgNVBAcMC07Dg8K8cm5iZXJnMRMwEQYDVQQK
DApTaWVtZW5zIEFHMRQwEgYDVQQLDAtUcnVzdGNlbnRlcjERMA8GA1UEAwwIT2xp
dmVyQ0ExKTAnBgkqhkiG9w0BCQEWGm9saXZlci5zdGlsbGVyQHNpZW1lbnMuY29t
MB4XDTIwMTAwNzExMzAzNFoXDTIxMTAwNzExMzAzNFowLDEWMBQGA1UECgwNRG9u
dCB0cnVzdCBtZTESMBAGA1UEAwwJSWdub3JlIG1lMIIBIjANBgkqhkiG9w0BAQEF
AAOCAQ8AMIIBCgKCAQEAtFWjWs4n2/yRPwbWq/n1xPIWdY+/UilKquEzVyjWdQ/R
1U2cXOSaSKAf2OSAFM+dqmXy8KgOZyxRQKv25xw+XIJt3fVhHzRRWltnOPitpwAv
pJ9ZJ60wJJWdF7yjoruV5ce7f+rSrohHEG2j4ITIpNpKfPY3N9WTe2xXvIY/xI+f
6mXV+zwRifdYhP06rfQCOgl7IDnpjb0Ax5Eb4YrOmQtjuTRqvajUKGlVLXojk8xI
XRQBINAnFbQub98C5GkNqMhKvdqiBm7MmfYSLSjqOfvLl/ldAJ9OR+3WDDkXx1jJ
n4fuvlD82vB1Wiuvy/WK+XI2hhR6pJ/+7bvjnWasRQIDAQABoxcwFTATBgNVHSUE
DDAKBggrBgEFBQcDCTANBgkqhkiG9w0BAQsFAAOCAgEAM2/qM1sc4CHTc3Xug/q/
fbT04pe7kuNxtQU2zw2TeP1PGj8EDmA12x0NWdDtyKqaieSIlXc9tS+SXsOn9iI3
DcNc+YWBOTcViqCArqhpu21wGKwiNZniLQa+0uIC2zOjmqraj7m/chlmYKYWKSFi
OKU9IRIh4lyZWw7wsqJ4NxwfeflP/CYnozTlB6SHLCG7gjZ5sJG0oH7ORr9holCX
OB+1ilLeY7eVq+zxyC4PuJhgd3JhNxHHAF7/fkEvGUchFfoKInWLF3JPKOcUQ3zE
jDwJtbbk/pyWYoNXbxycaPzlueSsS+YCnJGYiV50+G7pTiyY2vvQH6lXpJ9Yaazg
KsUZBdIakZk3pOIbCM5sxtIXOn1zCNR3IlrbVdDadw8sPWsKbDqEl4C5qeG0DHJX
O7YL5HG1Y+tchNScSB/ma7sfmhO16dlc/YA+f7jJSAFZVAxXszo3I2EKLuTXdttg
K2JLZ6XD5yV7unxvM3Q7O8NCtB90hdBHwpJyw6g0Loit5xNePKgcvZ5m0Zq/xVin
PYLOlTdONoGvfss7BNTop121e9oG+fNDfDfZk3Z5SKgFGm8Xp+QqjKeRcSy2dhy3
BgyG0T0UFI+lu6ifVizrp/oPbN7ASneNICbDRQFhS82K9XjXNvWO+Lfl5RfJYutH
JDX93ixLdu7dqioyjwG8hFc=
-----END CERTIFICATE-----
