Certificate:
    Data:
        Version: 3 (0x2)
        Serial Number: 4747 (0x128b)
        Signature Algorithm: sha256WithRSAEncryption
        Issuer: C=DE, ST=Bayern, L=N\xC3\x83\xC2\xBCrnberg, O=Siemens AG, OU=Trustcenter, CN=OliverCA/emailAddress=oliver.stiller@siemens.com
        Validity
            Not Before: Oct  7 11:30:55 2020 GMT
            Not After : Oct  7 11:30:55 2021 GMT
        Subject: O=Dont trust me, CN=Ignore me
        Subject Public Key Info:
            Public Key Algorithm: rsaEncryption
                RSA Public-Key: (2048 bit)
                Modulus:
                    00:bb:85:5e:1e:2b:13:56:0d:52:88:1c:35:7f:36:
                    90:74:97:98:7a:32:8f:e7:f9:dc:e7:e9:cb:a7:71:
                    09:fc:7b:94:37:5b:1d:e1:42:2a:46:95:ce:eb:4b:
                    30:2b:a1:88:c8:1d:c2:3f:84:10:0a:75:ef:85:47:
                    93:ed:65:f9:a3:df:88:f9:9f:e0:d9:2e:f0:aa:f3:
                    c9:f9:90:15:a8:61:40:7e:a9:b9:02:11:e7:ce:05:
                    a5:25:bd:66:9c:a8:d0:3e:9b:b6:9f:7f:5c:42:ab:
                    3a:65:9a:50:dc:32:82:6a:d6:bd:14:91:7b:1d:ac:
                    39:a9:55:b4:11:c9:f2:eb:a1:9d:a5:f8:55:0b:58:
                    51:33:01:b1:8e:b2:e5:b3:10:23:b5:ae:6b:11:cd:
                    38:05:35:b0:53:4f:ce:04:73:0d:3d:9f:dc:6f:83:
                    05:33:c5:76:f7:ae:60:8c:5e:0d:a0:93:76:56:8d:
                    59:87:94:f3:09:2d:80:42:52:7a:b6:2b:5d:c6:1f:
                    55:00:f5:15:ae:9c:da:f0:4a:74:c1:13:d3:23:47:
                    26:9f:9a:c3:fc:fa:d5:be:84:2c:d0:2f:cd:ad:eb:
                    d4:6c:d5:7b:2c:69:5f:0b:f3:31:a2:bf:61:c1:60:
                    65:54:cf:ed:0e:5b:5c:ff:58:96:a5:fb:5d:37:d3:
                    77:f7
                Exponent: 65537 (0x10001)
        X509v3 extensions:
            X509v3 Extended Key Usage: 
                OCSP Signing, Any Extended Key Usage
    Signature Algorithm: sha256WithRSAEncryption
         c0:b9:c4:d4:e8:d6:ed:8e:aa:a9:85:5a:57:ca:d8:9d:30:3f:
         78:bd:b7:63:a6:57:c8:8b:79:16:f5:e8:70:ee:6a:53:9d:5f:
         d3:5b:5e:8f:85:e0:bc:60:0c:da:91:23:b9:13:93:c8:79:4d:
         f1:18:2c:83:7d:4d:ea:a7:54:31:46:46:02:35:ce:e4:ba:4c:
         a6:73:31:65:6a:52:9d:11:8c:5e:d7:a1:61:5e:ff:c2:6d:ef:
         65:ae:38:f3:5e:12:6b:95:86:0a:5c:ca:e9:bc:27:98:a0:0d:
         55:f8:d4:ed:ac:20:19:fc:92:b0:fe:68:79:75:fc:89:b7:2e:
         f4:3f:ad:17:5a:ad:c5:55:6f:55:c8:aa:40:f2:54:92:f4:7e:
         69:a9:da:e6:3e:89:80:45:84:5b:f4:64:a4:58:13:88:d3:93:
         ac:50:7a:5f:4c:41:07:2f:03:69:5f:40:75:f6:4c:3d:de:e2:
         bb:b8:1e:99:16:bb:de:f2:a4:8b:e0:b1:f1:f3:a4:0d:fe:ad:
         d3:82:23:c9:46:75:08:21:68:4b:ad:be:b5:8d:5e:a5:b9:5a:
         8e:eb:d7:6c:b9:f8:2e:dd:c8:a4:04:44:27:d6:56:0d:d3:be:
         a2:e0:cf:ba:38:ff:59:a2:45:5f:77:62:1b:71:e8:5e:24:2f:
         fe:a4:e4:1d:f1:70:c7:a3:02:82:57:3a:5d:aa:d8:39:7c:76:
         bc:ad:91:67:e9:59:08:e2:6d:c5:b4:87:9e:fa:64:05:e4:da:
         59:4b:71:a8:5b:1f:cf:dc:7a:58:49:25:56:f3:7c:ad:56:61:
         e1:65:32:c7:e6:82:ad:49:e3:8c:27:a8:4a:57:c7:a0:04:d6:
         27:93:68:09:c1:5f:c2:5a:bd:3d:17:28:2b:33:e2:64:39:8e:
         25:45:bf:f4:1f:2b:57:c4:92:5d:76:7d:7b:3a:65:c1:60:c8:
         0b:18:2a:9a:be:53:90:16:4a:49:ea:58:91:8f:89:da:84:55:
         72:23:4f:83:d9:6f:0a:7a:bb:e1:47:46:9d:b4:14:06:6a:a9:
         77:9b:60:e8:10:ac:9a:15:4c:17:57:76:23:a0:aa:5d:cf:8b:
         ef:01:cf:22:2e:fc:36:ca:da:74:ec:9e:2f:04:3c:35:ed:a5:
         f5:56:99:f7:84:49:63:d9:dd:d2:95:c1:80:43:14:88:d8:e8:
         b6:57:e7:16:17:72:2c:c1:0c:c1:b0:56:d6:41:f5:61:d8:30:
         d1:71:34:0a:04:0a:b3:58:4b:e6:d5:6c:90:a8:23:22:f6:b5:
         79:5e:25:ee:7e:59:3e:7e:80:b9:c0:f8:22:a6:0c:e5:b8:21:
         8c:50:20:6c:f4:1f:e1:ae
-----BEGIN CERTIFICATE-----
MIIEYzCCAkugAwIBAgICEoswDQYJKoZIhvcNAQELBQAwgZ0xCzAJBgNVBAYTAkRF
MQ8wDQYDVQQIDAZCYXllcm4xFDASBgNVBAcMC07Dg8K8cm5iZXJnMRMwEQYDVQQK
DApTaWVtZW5zIEFHMRQwEgYDVQQLDAtUcnVzdGNlbnRlcjERMA8GA1UEAwwIT2xp
dmVyQ0ExKTAnBgkqhkiG9w0BCQEWGm9saXZlci5zdGlsbGVyQHNpZW1lbnMuY29t
MB4XDTIwMTAwNzExMzA1NVoXDTIxMTAwNzExMzA1NVowLDEWMBQGA1UECgwNRG9u
dCB0cnVzdCBtZTESMBAGA1UEAwwJSWdub3JlIG1lMIIBIjANBgkqhkiG9w0BAQEF
AAOCAQ8AMIIBCgKCAQEAu4VeHisTVg1SiBw1fzaQdJeYejKP5/nc5+nLp3EJ/HuU
N1sd4UIqRpXO60swK6GIyB3CP4QQCnXvhUeT7WX5o9+I+Z/g2S7wqvPJ+ZAVqGFA
fqm5AhHnzgWlJb1mnKjQPpu2n39cQqs6ZZpQ3DKCata9FJF7Haw5qVW0Ecny66Gd
pfhVC1hRMwGxjrLlsxAjta5rEc04BTWwU0/OBHMNPZ/cb4MFM8V2965gjF4NoJN2
Vo1Zh5TzCS2AQlJ6titdxh9VAPUVrpza8Ep0wRPTI0cmn5rD/PrVvoQs0C/NrevU
bNV7LGlfC/Mxor9hwWBlVM/tDltc/1iWpftdN9N39wIDAQABox0wGzAZBgNVHSUE
EjAQBggrBgEFBQcDCQYEVR0lADANBgkqhkiG9w0BAQsFAAOCAgEAwLnE1OjW7Y6q
qYVaV8rYnTA/eL23Y6ZXyIt5FvXocO5qU51f01tej4XgvGAM2pEjuROTyHlN8Rgs
g31N6qdUMUZGAjXO5LpMpnMxZWpSnRGMXtehYV7/wm3vZa44814Sa5WGClzK6bwn
mKANVfjU7awgGfySsP5oeXX8ibcu9D+tF1qtxVVvVciqQPJUkvR+aana5j6JgEWE
W/RkpFgTiNOTrFB6X0xBBy8DaV9AdfZMPd7iu7gemRa73vKki+Cx8fOkDf6t04Ij
yUZ1CCFoS62+tY1epblajuvXbLn4Lt3IpAREJ9ZWDdO+ouDPujj/WaJFX3diG3Ho
XiQv/qTkHfFwx6MCglc6XarYOXx2vK2RZ+lZCOJtxbSHnvpkBeTaWUtxqFsfz9x6
WEklVvN8rVZh4WUyx+aCrUnjjCeoSlfHoATWJ5NoCcFfwlq9PRcoKzPiZDmOJUW/
9B8rV8SSXXZ9ezplwWDICxgqmr5TkBZKSepYkY+J2oRVciNPg9lvCnq74UdGnbQU
Bmqpd5tg6BCsmhVMF1d2I6CqXc+L7wHPIi78NsradOyeLwQ8Ne2l9VaZ94RJY9nd
0pXBgEMUiNjotlfnFhdyLMEMwbBW1kH1Ydgw0XE0CgQKs1hL5tVskKgjIva1eV4l
7n5ZPn6AucD4IqYM5bghjFAgbPQf4a4=
-----END CERTIFICATE-----
