Certificate:
    Data:
        Version: 3 (0x2)
        Serial Number: 4766 (0x129e)
        Signature Algorithm: sha256WithRSAEncryption
        Issuer: C=DE, ST=Bayern, L=N\xC3\x83\xC2\xBCrnberg, O=Siemens AG, OU=Trustcenter, CN=OliverCA/emailAddress=oliver.stiller@siemens.com
        Validity
            Not Before: Oct  8 11:51:04 2020 GMT
            Not After : Oct  8 11:51:04 2021 GMT
        Subject: O=Dont trust me, CN=Ignore me
        Subject Public Key Info:
            Public Key Algorithm: rsaEncryption
                RSA Public-Key: (2048 bit)
                Modulus:
                    00:d1:24:0b:4b:db:6c:5c:b4:2c:80:b0:8b:da:60:
                    0b:de:93:9b:70:66:d2:ab:c2:b4:48:3b:dd:d5:4b:
                    3e:89:fb:55:04:59:33:1a:59:f5:7f:8c:e4:ff:d2:
                    ce:f3:3a:b3:e0:c4:61:b3:84:52:e1:58:b5:06:91:
                    9e:d3:91:88:94:d6:1d:f4:82:0c:21:70:ad:1d:cf:
                    4a:2c:6e:7a:5c:1c:45:dc:0f:ce:60:95:d0:1b:f6:
                    1c:01:69:28:a2:87:32:e9:2c:3b:6c:a4:8a:bf:a2:
                    05:4a:dd:96:b0:d3:ee:39:25:bf:29:fe:bc:10:ee:
                    85:93:b9:10:96:35:ca:80:e9:4e:9c:b9:53:b7:9a:
                    3a:91:d9:4a:86:7c:49:3d:f8:84:39:65:49:07:28:
                    76:94:d4:99:2e:7c:87:3c:b7:8e:47:de:bf:b6:50:
                    c1:ac:21:a8:53:7d:5d:d6:32:d3:3f:53:bb:69:f2:
                    5f:62:26:7d:06:bf:7f:1a:87:b0:05:71:27:6c:9b:
                    af:14:06:b1:5b:0c:c3:4a:04:9d:0f:24:e3:df:09:
                    45:7b:d8:cf:d7:75:f9:93:3e:af:cd:0c:bd:22:e5:
                    f6:6a:c4:2c:b2:34:53:aa:b6:bc:95:4f:77:00:04:
                    c7:c6:bc:9e:ce:cd:44:9d:52:2e:d1:12:e0:e7:9a:
                    16:c3
                Exponent: 65537 (0x10001)
        X509v3 extensions:
            X509v3 Extended Key Usage: 
                OCSP Signing, TLS Web Server Authentication, E-mail Protection
            OCSP No Check: 

    Signature Algorithm: sha256WithRSAEncryption
         57:91:3e:6a:8e:61:3a:5f:8f:e0:6a:35:47:53:79:4e:ec:03:
         85:66:ec:bf:c6:8f:b7:81:e1:1b:34:6f:09:f1:33:3b:65:f0:
         51:aa:a9:78:5e:47:25:a0:5b:e9:a5:04:74:24:8a:e3:f4:18:
         bb:a5:fa:6f:15:3e:63:cd:72:d0:61:1c:5c:ae:8f:e8:30:f8:
         11:09:8b:94:35:f6:c3:86:8a:7c:83:6c:e6:e6:bf:ba:62:c8:
         49:5f:55:89:16:69:ee:51:aa:bf:91:42:c3:6f:56:5e:76:32:
         f2:85:f7:52:06:38:ba:c4:7b:ca:69:98:3e:66:dd:66:31:a3:
         ac:32:64:3d:4d:1e:d5:3a:bc:03:d8:d9:ad:cb:c0:37:c2:4b:
         84:db:e4:d2:90:19:b9:54:3d:13:45:bf:3f:1e:7c:e8:e4:7d:
         46:ba:a1:78:ad:bf:cd:c1:0d:8d:1d:c6:59:63:2b:35:19:44:
         ae:ce:15:45:0c:22:e1:dc:3f:a5:80:b6:e5:39:bf:bc:79:0e:
         2d:2e:5f:75:03:83:55:ff:68:cb:ee:1d:c7:9e:cb:4d:ce:9f:
         ef:6f:ca:8c:d8:d8:6a:26:ab:6b:c9:e7:9b:ad:0b:18:21:be:
         ae:d7:5b:82:4b:64:61:98:ea:c7:6f:33:c0:07:a1:84:0b:b4:
         99:73:b8:08:f9:fa:be:93:34:d4:9f:e8:2f:f0:26:8a:e3:36:
         7b:22:5f:fb:2e:50:9c:37:fd:5f:a5:5b:44:67:e4:fb:fb:2d:
         10:d0:8d:de:57:88:5e:42:1d:26:71:72:00:52:76:31:ab:29:
         eb:e7:90:26:e4:51:69:a3:3c:9e:3b:cf:fc:f7:08:6d:ac:db:
         fb:89:02:0a:be:66:ae:b6:53:39:cc:1e:2a:c4:8b:b7:dd:fe:
         7b:81:0f:95:ca:ed:4a:8f:5d:c9:8f:4f:bb:6e:c5:7d:15:dd:
         7a:89:91:1e:a5:f1:06:de:27:85:1e:69:38:07:6a:9b:8f:e8:
         c2:f7:b7:33:df:4b:bf:cd:99:2b:1a:24:6c:26:5c:05:4e:18:
         30:e5:7b:4f:d2:af:67:6e:1a:68:26:20:1a:12:cf:40:85:5e:
         3b:cd:31:9d:b3:60:77:57:17:57:b2:1c:9e:f4:0f:98:fd:74:
         30:f9:bc:62:55:51:38:8d:af:16:d4:9d:95:d0:af:33:f4:4d:
         ce:9b:58:d1:0c:87:31:53:8a:2a:f3:d3:a2:7c:34:9d:6d:37:
         06:f8:c9:5a:e4:93:5b:58:b3:6a:21:d6:4b:2d:01:0c:c1:85:
         df:8c:c3:bb:c6:9e:21:2f:b5:43:b9:dc:b3:2a:55:82:37:6b:
         20:37:70:c3:d2:dd:a0:3b
-----BEGIN CERTIFICATE-----
MIIEgjCCAmqgAwIBAgICEp4wDQYJKoZIhvcNAQELBQAwgZ0xCzAJBgNVBAYTAkRF
MQ8wDQYDVQQIDAZCYXllcm4xFDASBgNVBAcMC07Dg8K8cm5iZXJnMRMwEQYDVQQK
DApTaWVtZW5zIEFHMRQwEgYDVQQLDAtUcnVzdGNlbnRlcjERMA8GA1UEAwwIT2xp
dmVyQ0ExKTAnBgkqhkiG9w0BCQEWGm9saXZlci5zdGlsbGVyQHNpZW1lbnMuY29t
MB4XDTIwMTAwODExNTEwNFoXDTIxMTAwODExNTEwNFowLDEWMBQGA1UECgwNRG9u
dCB0cnVzdCBtZTESMBAGA1UEAwwJSWdub3JlIG1lMIIBIjANBgkqhkiG9w0BAQEF
AAOCAQ8AMIIBCgKCAQEA0SQLS9tsXLQsgLCL2mAL3pObcGbSq8K0SDvd1Us+iftV
BFkzGln1f4zk/9LO8zqz4MRhs4RS4Vi1BpGe05GIlNYd9IIMIXCtHc9KLG56XBxF
3A/OYJXQG/YcAWkooocy6Sw7bKSKv6IFSt2WsNPuOSW/Kf68EO6Fk7kQljXKgOlO
nLlTt5o6kdlKhnxJPfiEOWVJByh2lNSZLnyHPLeOR96/tlDBrCGoU31d1jLTP1O7
afJfYiZ9Br9/GoewBXEnbJuvFAaxWwzDSgSdDyTj3wlFe9jP13X5kz6vzQy9IuX2
asQssjRTqra8lU93AATHxryezs1EnVIu0RLg55oWwwIDAQABozwwOjAnBgNVHSUE
IDAeBggrBgEFBQcDCQYIKwYBBQUHAwEGCCsGAQUFBwMEMA8GCSsGAQUFBzABBQQC
BQAwDQYJKoZIhvcNAQELBQADggIBAFeRPmqOYTpfj+BqNUdTeU7sA4Vm7L/Gj7eB
4Rs0bwnxMztl8FGqqXheRyWgW+mlBHQkiuP0GLul+m8VPmPNctBhHFyuj+gw+BEJ
i5Q19sOGinyDbObmv7piyElfVYkWae5Rqr+RQsNvVl52MvKF91IGOLrEe8ppmD5m
3WYxo6wyZD1NHtU6vAPY2a3LwDfCS4Tb5NKQGblUPRNFvz8efOjkfUa6oXitv83B
DY0dxlljKzUZRK7OFUUMIuHcP6WAtuU5v7x5Di0uX3UDg1X/aMvuHceey03On+9v
yozY2Gomq2vJ55utCxghvq7XW4JLZGGY6sdvM8AHoYQLtJlzuAj5+r6TNNSf6C/w
JorjNnsiX/suUJw3/V+lW0Rn5Pv7LRDQjd5XiF5CHSZxcgBSdjGrKevnkCbkUWmj
PJ47z/z3CG2s2/uJAgq+Zq62UznMHirEi7fd/nuBD5XK7UqPXcmPT7tuxX0V3XqJ
kR6l8QbeJ4UeaTgHapuP6ML3tzPfS7/NmSsaJGwmXAVOGDDle0/Sr2duGmgmIBoS
z0CFXjvNMZ2zYHdXF1eyHJ70D5j9dDD5vGJVUTiNrxbUnZXQrzP0Tc6bWNEMhzFT
iirz06J8NJ1tNwb4yVrkk1tYs2oh1kstAQzBhd+Mw7vGniEvtUO53LMqVYI3ayA3
cMPS3aA7
-----END CERTIFICATE-----
