Certificate:
    Data:
        Version: 3 (0x2)
        Serial Number: 4752 (0x1290)
        Signature Algorithm: sha256WithRSAEncryption
        Issuer: C=DE, ST=Bayern, L=N\xC3\x83\xC2\xBCrnberg, O=Siemens AG, OU=Trustcenter, CN=OliverCA/emailAddress=oliver.stiller@siemens.com
        Validity
            Not Before: Oct  7 11:31:56 2020 GMT
            Not After : Oct  7 11:31:56 2021 GMT
        Subject: O=Dont trust me, CN=Ignore me
        Subject Public Key Info:
            Public Key Algorithm: rsaEncryption
                RSA Public-Key: (2048 bit)
                Modulus:
                    00:e4:ea:d1:3d:85:1e:8a:c6:e0:1d:e1:1a:b6:f5:
                    34:86:ef:18:1a:fa:09:a5:ca:dc:b8:cb:77:45:cb:
                    43:91:bc:af:9e:86:11:00:5f:56:57:b8:d6:97:18:
                    92:77:e8:38:fd:ce:ea:6c:a0:e5:80:04:3b:c5:ef:
                    f9:4f:23:01:c7:27:a3:8e:24:2d:cb:17:8c:99:c5:
                    92:75:aa:d9:08:62:c1:0b:19:a5:c3:e1:5c:09:de:
                    a7:9c:86:fa:5f:ef:51:9b:2d:11:68:d0:a1:4d:f0:
                    c8:18:64:9b:45:e8:6a:a8:8b:47:92:80:39:e8:9d:
                    7e:c5:c2:50:90:22:38:fa:ac:68:24:75:6a:b9:73:
                    c2:67:fd:84:f9:69:0c:b8:b8:3c:b1:3f:c5:d9:57:
                    61:5c:a4:06:5f:9b:2a:01:c3:d2:07:1d:74:df:1b:
                    c8:8a:b5:17:6d:b9:6d:ac:c7:51:76:de:2c:0b:69:
                    ad:90:94:2f:91:a7:38:ce:cf:2f:2d:fe:11:d5:02:
                    bd:77:11:2e:f8:47:02:b8:fe:5a:07:54:58:1b:cc:
                    56:d7:82:57:69:6c:39:d1:bc:39:4b:a8:66:dc:57:
                    4e:c8:51:2b:61:aa:14:4a:f3:9d:86:f5:ff:2e:53:
                    f4:29:b6:e8:d5:30:67:e7:a1:2c:fc:d9:03:4e:0f:
                    bd:85
                Exponent: 65537 (0x10001)
        X509v3 extensions:
            X509v3 Extended Key Usage: 
                OCSP Signing, TLS Web Server Authentication, Any Extended Key Usage
            OCSP No Check: 

    Signature Algorithm: sha256WithRSAEncryption
         00:95:23:6b:6d:3b:32:e3:a7:3b:ba:2b:78:28:eb:77:fd:8c:
         2a:3a:57:c9:b7:82:8c:20:45:29:56:2c:e8:b1:94:d5:cc:f2:
         d7:2c:8b:d3:4c:cd:2c:92:7d:82:5c:b6:10:21:96:da:01:01:
         40:a8:30:f1:3c:10:44:fd:e2:c5:e1:a8:e8:d0:d2:d0:52:3c:
         c4:ef:b2:e7:63:4c:71:f8:12:b6:d9:a1:58:36:e1:75:c4:ac:
         89:81:c1:d7:30:35:ad:91:44:78:bd:86:31:d3:4b:85:fc:1c:
         4d:c7:d7:b4:37:d5:e9:4c:46:8c:ba:fc:4d:30:18:e2:11:0f:
         0b:d5:27:05:d0:18:3a:dc:00:6a:c6:8a:b4:c0:bd:94:0d:f6:
         76:f0:1f:b3:9d:17:93:1c:3c:8c:02:d5:1b:02:46:f3:57:f6:
         25:15:1b:b5:47:19:11:00:13:a0:2c:34:1c:62:3c:f6:48:c6:
         10:dc:cb:dd:96:db:a3:6a:97:d3:3f:8b:40:62:97:73:03:87:
         09:0d:43:cd:61:9e:ad:07:2c:bb:c0:fc:18:d2:52:65:10:53:
         6a:bd:f2:d4:4a:00:74:8e:46:8d:f0:63:2f:1a:80:fc:1d:64:
         8f:9e:4e:cd:5c:3f:9c:c2:d5:05:cf:2c:67:a0:25:56:a4:bf:
         c7:da:8d:f1:d9:eb:b4:38:7a:0a:d2:1f:86:6b:e3:6b:e8:b5:
         72:ec:ae:52:8b:6b:3d:2f:98:f3:a9:b9:5c:9d:80:ee:3d:a3:
         65:f0:60:05:67:33:cc:19:20:73:92:e9:29:ad:66:cf:b2:25:
         07:f5:8d:39:6e:db:f4:16:48:68:96:72:42:05:64:df:56:a4:
         84:cb:bd:ee:88:99:0f:2b:4e:3b:6a:5f:72:b2:b9:6b:1a:e6:
         02:f6:70:e4:1d:91:a5:e6:ac:dc:36:2e:82:77:11:21:a6:9a:
         eb:ab:ac:86:4f:6d:e8:f3:aa:a1:84:c0:ef:de:9d:f8:a6:3e:
         dc:a2:b8:90:69:72:ff:4d:94:c1:b1:b7:3a:96:9c:b5:c7:a4:
         93:93:48:7c:8a:16:ea:7e:d5:46:2c:6b:6f:29:70:0e:ce:4b:
         2f:25:3f:b8:5e:93:ef:ad:ab:54:26:5c:94:51:76:69:6f:9b:
         33:c9:36:d1:eb:6e:5e:fb:ea:43:64:90:b4:71:d8:3c:e0:16:
         e0:14:5d:83:51:f8:18:33:88:db:ff:b5:b7:53:64:a8:67:f2:
         e5:8d:1b:99:62:b4:70:9c:09:8f:ba:ed:1c:32:b9:5e:45:b5:
         ea:a7:33:b0:ab:59:5e:56:ce:62:f9:53:61:61:46:58:cb:f8:
         56:18:56:58:93:af:6c:62
-----BEGIN CERTIFICATE-----
MIIEfjCCAmagAwIBAgICEpAwDQYJKoZIhvcNAQELBQAwgZ0xCzAJBgNVBAYTAkRF
MQ8wDQYDVQQIDAZCYXllcm4xFDASBgNVBAcMC07Dg8K8cm5iZXJnMRMwEQYDVQQK
DApTaWVtZW5zIEFHMRQwEgYDVQQLDAtUcnVzdGNlbnRlcjERMA8GA1UEAwwIT2xp
dmVyQ0ExKTAnBgkqhkiG9w0BCQEWGm9saXZlci5zdGlsbGVyQHNpZW1lbnMuY29t
MB4XDTIwMTAwNzExMzE1NloXDTIxMTAwNzExMzE1NlowLDEWMBQGA1UECgwNRG9u
dCB0cnVzdCBtZTESMBAGA1UEAwwJSWdub3JlIG1lMIIBIjANBgkqhkiG9w0BAQEF
AAOCAQ8AMIIBCgKCAQEA5OrRPYUeisbgHeEatvU0hu8YGvoJpcrcuMt3RctDkbyv
noYRAF9WV7jWlxiSd+g4/c7qbKDlgAQ7xe/5TyMBxyejjiQtyxeMmcWSdarZCGLB
Cxmlw+FcCd6nnIb6X+9Rmy0RaNChTfDIGGSbRehqqItHkoA56J1+xcJQkCI4+qxo
JHVquXPCZ/2E+WkMuLg8sT/F2VdhXKQGX5sqAcPSBx103xvIirUXbbltrMdRdt4s
C2mtkJQvkac4zs8vLf4R1QK9dxEu+EcCuP5aB1RYG8xW14JXaWw50bw5S6hm3FdO
yFErYaoUSvOdhvX/LlP0Kbbo1TBn56Es/NkDTg+9hQIDAQABozgwNjAjBgNVHSUE
HDAaBggrBgEFBQcDCQYIKwYBBQUHAwEGBFUdJQAwDwYJKwYBBQUHMAEFBAIFADAN
BgkqhkiG9w0BAQsFAAOCAgEAAJUja207MuOnO7oreCjrd/2MKjpXybeCjCBFKVYs
6LGU1czy1yyL00zNLJJ9gly2ECGW2gEBQKgw8TwQRP3ixeGo6NDS0FI8xO+y52NM
cfgSttmhWDbhdcSsiYHB1zA1rZFEeL2GMdNLhfwcTcfXtDfV6UxGjLr8TTAY4hEP
C9UnBdAYOtwAasaKtMC9lA32dvAfs50Xkxw8jALVGwJG81f2JRUbtUcZEQAToCw0
HGI89kjGENzL3Zbbo2qX0z+LQGKXcwOHCQ1DzWGerQcsu8D8GNJSZRBTar3y1EoA
dI5GjfBjLxqA/B1kj55OzVw/nMLVBc8sZ6AlVqS/x9qN8dnrtDh6CtIfhmvja+i1
cuyuUotrPS+Y86m5XJ2A7j2jZfBgBWczzBkgc5LpKa1mz7IlB/WNOW7b9BZIaJZy
QgVk31akhMu97oiZDytOO2pfcrK5axrmAvZw5B2Rpeas3DYugncRIaaa66ushk9t
6POqoYTA796d+KY+3KK4kGly/02UwbG3Opactcekk5NIfIoW6n7VRixrbylwDs5L
LyU/uF6T762rVCZclFF2aW+bM8k20etuXvvqQ2SQtHHYPOAW4BRdg1H4GDOI2/+1
t1NkqGfy5Y0bmWK0cJwJj7rtHDK5XkW16qczsKtZXlbOYvlTYWFGWMv4VhhWWJOv
bGI=
-----END CERTIFICATE-----
