Certificate:
    Data:
        Version: 3 (0x2)
        Serial Number: 4765 (0x129d)
        Signature Algorithm: sha256WithRSAEncryption
        Issuer: C=DE, ST=Bayern, L=N\xC3\x83\xC2\xBCrnberg, O=Siemens AG, OU=Trustcenter, CN=OliverCA/emailAddress=oliver.stiller@siemens.com
        Validity
            Not Before: Oct  8 11:50:55 2020 GMT
            Not After : Oct  8 11:50:55 2021 GMT
        Subject: O=Dont trust me, CN=Ignore me
        Subject Public Key Info:
            Public Key Algorithm: rsaEncryption
                RSA Public-Key: (2048 bit)
                Modulus:
                    00:e2:5a:0c:3c:5e:f9:32:a1:9a:7e:79:cc:1b:38:
                    dd:3c:e8:87:bc:9b:26:08:3a:1e:fc:84:d4:ba:41:
                    38:97:49:6b:42:27:f6:7a:d9:c8:b3:98:d5:a3:fe:
                    47:01:65:18:9d:e1:12:fb:7a:62:e2:5c:f0:10:b1:
                    c5:6f:fa:fd:85:90:fe:e5:c5:0e:cd:bc:47:49:ef:
                    18:11:05:63:b8:15:e2:28:ee:1e:3e:20:4b:df:3f:
                    01:e3:7c:e4:17:d4:54:80:dc:ae:63:2a:a6:75:d3:
                    f2:93:c4:f6:9e:c7:2d:34:e1:6a:63:2a:a5:43:f5:
                    60:45:e2:fe:fe:bd:cd:18:89:bf:07:3c:1e:fc:c6:
                    a4:c3:eb:84:3d:05:30:f3:35:59:34:df:e7:84:27:
                    2f:43:6c:5d:ff:67:a3:85:20:35:71:c9:84:ec:5d:
                    4d:fb:2a:f4:ab:a3:b1:e7:70:59:5e:28:e9:06:3d:
                    11:58:0c:3c:9c:1c:3e:99:a2:f8:3b:4b:71:b9:76:
                    fe:9d:92:3c:07:90:60:0b:78:ef:ae:d4:95:9e:67:
                    0b:cb:db:44:cc:77:f8:f3:b3:86:13:f6:fb:5d:cf:
                    04:f6:a2:b1:9f:81:2c:e2:c5:b3:86:80:76:40:f0:
                    b2:62:21:c9:c0:75:a0:41:a2:94:b6:5d:3b:4b:36:
                    ac:a3
                Exponent: 65537 (0x10001)
        X509v3 extensions:
            X509v3 Extended Key Usage: 
                OCSP Signing, TLS Web Server Authentication, E-mail Protection
    Signature Algorithm: sha256WithRSAEncryption
         1e:73:2a:18:8e:d9:66:c6:ca:53:af:88:f6:41:ed:6a:ca:9e:
         ec:35:96:59:da:53:94:55:94:f9:7d:91:6f:50:76:11:de:c6:
         f4:a4:6a:18:06:b7:08:26:1f:5b:a7:58:14:be:d4:60:8c:17:
         d6:df:10:ab:90:fa:af:31:d6:87:06:4e:67:cf:b1:2d:c8:a9:
         2b:32:a7:71:0e:df:6a:89:78:13:39:41:6c:dd:96:01:96:a9:
         47:16:a9:bb:cd:7f:f7:da:b1:ae:58:24:04:4f:d8:5e:88:68:
         bb:dc:0c:74:d3:e4:27:e4:12:9a:f0:83:93:ab:67:ad:92:bd:
         ad:37:b5:c2:fc:8c:fa:ca:60:d0:55:a8:15:0c:48:d5:c1:86:
         70:39:e5:72:d9:28:51:8d:8d:a3:c4:9f:dd:cc:8d:c1:ec:c4:
         19:74:28:e0:41:31:c8:03:01:ab:0c:3c:ea:20:8d:fe:d4:a5:
         78:14:be:27:c9:eb:e7:48:8b:75:ed:6b:52:35:86:f0:a1:29:
         bc:55:f8:89:f6:47:84:3e:72:95:e5:18:41:f5:2b:37:1e:fe:
         46:bc:c7:73:c1:b1:fc:4f:39:be:78:cb:f3:cf:56:89:33:d8:
         a6:46:cf:cc:ed:48:99:a0:51:c1:79:1a:60:d4:54:23:08:2c:
         51:64:d5:1f:be:60:a7:77:95:6c:fe:2f:74:81:3d:2d:57:e8:
         5d:75:64:13:1e:fd:68:a6:12:2b:58:7b:8f:fc:c1:98:f6:46:
         7e:9e:9e:84:83:49:84:1b:0f:9c:9d:79:79:e1:62:55:8c:dd:
         1d:09:b6:46:d0:f4:ef:04:2b:f2:71:9f:5a:14:a5:63:5d:bd:
         29:0f:35:5d:7c:ec:a6:be:5d:77:4e:b2:c0:56:20:df:47:9c:
         4f:ae:d5:4c:cb:d6:9a:2c:17:ba:1a:54:af:a4:e6:9e:2b:65:
         8b:8f:3c:42:3e:38:d0:94:0f:ba:07:4c:0f:7b:5a:5d:80:32:
         ca:f5:09:8e:68:f8:65:02:4f:d1:72:40:ad:33:cd:31:c5:90:
         03:48:5c:e2:03:40:95:f8:16:fb:7b:95:2a:24:47:ea:b8:59:
         8e:3a:80:e5:97:9a:a3:44:70:7b:30:9e:c4:66:2b:53:c2:6b:
         7d:6a:bc:81:4e:6c:b4:24:4a:4b:bf:1c:6a:ff:2f:0a:34:57:
         1b:15:51:70:42:68:3e:99:46:57:04:dc:e8:fe:43:98:a9:6c:
         e8:8e:3d:68:f8:71:97:30:f8:97:c9:66:bc:4b:e0:0b:fb:ee:
         3b:67:1f:0a:a9:ed:7b:ba:c7:11:80:3f:c0:87:b8:ce:d4:db:
         0f:a1:eb:4e:e6:90:31:2c
-----BEGIN CERTIFICATE-----
MIIEcTCCAlmgAwIBAgICEp0wDQYJKoZIhvcNAQELBQAwgZ0xCzAJBgNVBAYTAkRF
MQ8wDQYDVQQIDAZCYXllcm4xFDASBgNVBAcMC07Dg8K8cm5iZXJnMRMwEQYDVQQK
DApTaWVtZW5zIEFHMRQwEgYDVQQLDAtUcnVzdGNlbnRlcjERMA8GA1UEAwwIT2xp
dmVyQ0ExKTAnBgkqhkiG9w0BCQEWGm9saXZlci5zdGlsbGVyQHNpZW1lbnMuY29t
MB4XDTIwMTAwODExNTA1NVoXDTIxMTAwODExNTA1NVowLDEWMBQGA1UECgwNRG9u
dCB0cnVzdCBtZTESMBAGA1UEAwwJSWdub3JlIG1lMIIBIjANBgkqhkiG9w0BAQEF
AAOCAQ8AMIIBCgKCAQEA4loMPF75MqGafnnMGzjdPOiHvJsmCDoe/ITUukE4l0lr
Qif2etnIs5jVo/5HAWUYneES+3pi4lzwELHFb/r9hZD+5cUOzbxHSe8YEQVjuBXi
KO4ePiBL3z8B43zkF9RUgNyuYyqmddPyk8T2nsctNOFqYyqlQ/VgReL+/r3NGIm/
Bzwe/Makw+uEPQUw8zVZNN/nhCcvQ2xd/2ejhSA1ccmE7F1N+yr0q6Ox53BZXijp
Bj0RWAw8nBw+maL4O0txuXb+nZI8B5BgC3jvrtSVnmcLy9tEzHf487OGE/b7Xc8E
9qKxn4Es4sWzhoB2QPCyYiHJwHWgQaKUtl07SzasowIDAQABoyswKTAnBgNVHSUE
IDAeBggrBgEFBQcDCQYIKwYBBQUHAwEGCCsGAQUFBwMEMA0GCSqGSIb3DQEBCwUA
A4ICAQAecyoYjtlmxspTr4j2Qe1qyp7sNZZZ2lOUVZT5fZFvUHYR3sb0pGoYBrcI
Jh9bp1gUvtRgjBfW3xCrkPqvMdaHBk5nz7EtyKkrMqdxDt9qiXgTOUFs3ZYBlqlH
Fqm7zX/32rGuWCQET9heiGi73Ax00+Qn5BKa8IOTq2etkr2tN7XC/Iz6ymDQVagV
DEjVwYZwOeVy2ShRjY2jxJ/dzI3B7MQZdCjgQTHIAwGrDDzqII3+1KV4FL4nyevn
SIt17WtSNYbwoSm8VfiJ9keEPnKV5RhB9Ss3Hv5GvMdzwbH8Tzm+eMvzz1aJM9im
Rs/M7UiZoFHBeRpg1FQjCCxRZNUfvmCnd5Vs/i90gT0tV+hddWQTHv1ophIrWHuP
/MGY9kZ+np6Eg0mEGw+cnXl54WJVjN0dCbZG0PTvBCvycZ9aFKVjXb0pDzVdfOym
vl13TrLAViDfR5xPrtVMy9aaLBe6GlSvpOaeK2WLjzxCPjjQlA+6B0wPe1pdgDLK
9QmOaPhlAk/RckCtM80xxZADSFziA0CV+Bb7e5UqJEfquFmOOoDll5qjRHB7MJ7E
ZitTwmt9aryBTmy0JEpLvxxq/y8KNFcbFVFwQmg+mUZXBNzo/kOYqWzojj1o+HGX
MPiXyWa8S+AL++47Zx8Kqe17uscRgD/Ah7jO1NsPoetO5pAxLA==
-----END CERTIFICATE-----
