Certificate:
    Data:
        Version: 3 (0x2)
        Serial Number: 4749 (0x128d)
        Signature Algorithm: sha256WithRSAEncryption
        Issuer: C=DE, ST=Bayern, L=N\xC3\x83\xC2\xBCrnberg, O=Siemens AG, OU=Trustcenter, CN=OliverCA/emailAddress=oliver.stiller@siemens.com
        Validity
            Not Before: Oct  7 11:31:24 2020 GMT
            Not After : Oct  7 11:31:24 2021 GMT
        Subject: O=Dont trust me, CN=Ignore me
        Subject Public Key Info:
            Public Key Algorithm: rsaEncryption
                RSA Public-Key: (2048 bit)
                Modulus:
                    00:e2:a1:a1:78:f9:e0:40:f1:c0:c3:8a:4e:a3:30:
                    5e:3d:33:ea:40:17:65:44:9a:2e:bc:54:99:c2:b6:
                    4f:43:a5:a1:88:79:21:20:fb:55:20:55:1b:ba:05:
                    ce:ac:c7:6e:99:9c:59:a5:db:e7:b0:4e:ff:41:ef:
                    d3:0b:35:fb:86:e4:4d:49:b1:2f:6a:06:43:e4:01:
                    da:62:72:95:d9:1d:ad:2a:aa:43:39:7f:2f:ed:e6:
                    c2:bb:38:a9:c6:26:32:14:89:15:ee:9f:c9:89:d6:
                    d1:e9:47:c8:ef:44:94:32:25:fc:24:82:13:72:a0:
                    40:39:67:90:14:5a:99:63:e2:f8:13:f4:5f:d3:d3:
                    b4:53:9c:e7:02:6f:32:6c:15:73:78:d4:3c:79:1c:
                    81:24:98:3f:35:5e:7f:63:e2:82:63:4b:36:f3:34:
                    b6:7a:f4:29:1c:0b:bb:a4:d7:49:59:c0:26:9b:ea:
                    64:3c:51:81:fa:26:0c:d3:cb:1f:39:bc:83:14:35:
                    bd:71:ae:49:fe:58:ad:6c:f8:24:49:08:78:b5:da:
                    94:a7:ac:2b:d3:91:15:17:d0:ce:ad:88:45:14:28:
                    56:28:e1:5b:e8:6a:aa:ab:ec:e9:3d:90:50:f5:fd:
                    ce:a5:64:70:53:b9:63:56:5f:1f:d9:0b:75:43:2b:
                    bb:cb
                Exponent: 65537 (0x10001)
        X509v3 extensions:
            X509v3 Extended Key Usage: 
                OCSP Signing, TLS Web Server Authentication
    Signature Algorithm: sha256WithRSAEncryption
         d2:aa:75:31:d4:c7:21:08:36:70:20:38:e1:2d:c2:53:df:91:
         1d:c2:a9:cb:f1:27:59:f4:d2:42:66:d6:38:ea:48:66:62:9f:
         b7:5e:22:08:c4:f2:14:85:be:73:17:41:50:f0:08:f6:ac:04:
         67:e0:3b:77:fb:12:b0:2e:c8:c3:41:08:71:d5:8a:a4:0a:17:
         99:23:44:75:6e:e5:30:ca:91:48:64:15:fc:66:06:ef:f6:df:
         70:15:03:d2:43:65:e4:3d:b4:5e:44:5d:79:84:94:4c:d8:90:
         37:d1:fc:51:61:c1:52:31:96:dc:73:d8:19:cc:06:7b:1d:29:
         37:3a:04:ed:62:f0:be:02:8e:f0:b7:6e:0e:16:f7:87:f2:68:
         74:e6:be:ad:80:20:04:27:bf:e3:f5:f7:4c:44:ed:32:45:9f:
         8e:ec:40:35:5e:a9:4f:ef:b0:2b:12:97:c0:16:6d:bb:3d:37:
         99:ff:9b:a4:8f:da:65:39:f8:38:66:6f:73:80:86:c6:83:84:
         cc:2b:69:d4:5a:28:9c:77:c3:1b:bc:79:47:02:f5:90:8a:73:
         bd:d2:c9:e6:a4:0b:1a:7b:b2:0e:9c:10:69:ee:3a:86:83:df:
         97:62:67:d0:3e:f0:f4:5f:b9:1b:3f:2c:10:b1:f7:78:f7:8b:
         1e:e0:32:86:9c:f2:32:31:d9:10:71:00:d8:44:63:62:f2:58:
         49:b4:53:60:7f:7e:37:79:8a:6d:69:e5:3f:be:c9:e8:1e:14:
         24:f4:58:8b:03:06:b7:24:7d:f0:0c:41:e6:c4:01:70:e0:8b:
         7b:72:51:84:29:82:bc:72:88:56:5e:8d:6d:cf:cf:2e:e2:3b:
         0b:2d:e8:77:3a:49:46:59:4f:13:67:fd:74:6f:ca:a9:7e:59:
         28:a9:b7:85:2d:6f:20:ad:03:35:b6:16:98:38:9a:79:2c:c6:
         77:b0:f4:aa:65:12:17:9f:6d:21:f2:e2:76:cf:0b:ce:20:cd:
         59:e2:d7:d6:da:42:b3:c5:b4:fb:ad:91:5d:92:2c:85:af:5c:
         f0:dc:09:d0:23:6b:8c:0b:98:a9:d1:2b:5a:f4:1c:cf:bc:0e:
         d4:c4:39:5b:d9:cf:10:75:08:9c:91:1b:13:41:71:6f:65:97:
         e2:d8:43:fb:c1:3e:a3:1b:b9:a5:cf:7d:69:05:d8:1f:e9:6c:
         42:e8:8e:b1:25:e7:15:88:4e:87:69:00:9f:5c:9d:7e:1a:27:
         16:11:99:7c:a2:88:c0:60:e5:d0:58:c4:06:29:ef:43:70:1c:
         84:73:74:23:20:79:56:c6:92:6d:19:49:e6:9e:6f:d0:57:78:
         c1:2d:e6:da:45:fa:94:c5
-----BEGIN CERTIFICATE-----
MIIEZzCCAk+gAwIBAgICEo0wDQYJKoZIhvcNAQELBQAwgZ0xCzAJBgNVBAYTAkRF
MQ8wDQYDVQQIDAZCYXllcm4xFDASBgNVBAcMC07Dg8K8cm5iZXJnMRMwEQYDVQQK
DApTaWVtZW5zIEFHMRQwEgYDVQQLDAtUcnVzdGNlbnRlcjERMA8GA1UEAwwIT2xp
dmVyQ0ExKTAnBgkqhkiG9w0BCQEWGm9saXZlci5zdGlsbGVyQHNpZW1lbnMuY29t
MB4XDTIwMTAwNzExMzEyNFoXDTIxMTAwNzExMzEyNFowLDEWMBQGA1UECgwNRG9u
dCB0cnVzdCBtZTESMBAGA1UEAwwJSWdub3JlIG1lMIIBIjANBgkqhkiG9w0BAQEF
AAOCAQ8AMIIBCgKCAQEA4qGhePngQPHAw4pOozBePTPqQBdlRJouvFSZwrZPQ6Wh
iHkhIPtVIFUbugXOrMdumZxZpdvnsE7/Qe/TCzX7huRNSbEvagZD5AHaYnKV2R2t
KqpDOX8v7ebCuzipxiYyFIkV7p/JidbR6UfI70SUMiX8JIITcqBAOWeQFFqZY+L4
E/Rf09O0U5znAm8ybBVzeNQ8eRyBJJg/NV5/Y+KCY0s28zS2evQpHAu7pNdJWcAm
m+pkPFGB+iYM08sfObyDFDW9ca5J/litbPgkSQh4tdqUp6wr05EVF9DOrYhFFChW
KOFb6Gqqq+zpPZBQ9f3OpWRwU7ljVl8f2Qt1Qyu7ywIDAQABoyEwHzAdBgNVHSUE
FjAUBggrBgEFBQcDCQYIKwYBBQUHAwEwDQYJKoZIhvcNAQELBQADggIBANKqdTHU
xyEINnAgOOEtwlPfkR3CqcvxJ1n00kJm1jjqSGZin7deIgjE8hSFvnMXQVDwCPas
BGfgO3f7ErAuyMNBCHHViqQKF5kjRHVu5TDKkUhkFfxmBu/233AVA9JDZeQ9tF5E
XXmElEzYkDfR/FFhwVIxltxz2BnMBnsdKTc6BO1i8L4CjvC3bg4W94fyaHTmvq2A
IAQnv+P190xE7TJFn47sQDVeqU/vsCsSl8AWbbs9N5n/m6SP2mU5+Dhmb3OAhsaD
hMwradRaKJx3wxu8eUcC9ZCKc73SyeakCxp7sg6cEGnuOoaD35diZ9A+8PRfuRs/
LBCx93j3ix7gMoac8jIx2RBxANhEY2LyWEm0U2B/fjd5im1p5T++yegeFCT0WIsD
BrckffAMQebEAXDgi3tyUYQpgrxyiFZejW3Pzy7iOwst6Hc6SUZZTxNn/XRvyql+
WSipt4UtbyCtAzW2Fpg4mnksxnew9KplEhefbSHy4nbPC84gzVni19baQrPFtPut
kV2SLIWvXPDcCdAja4wLmKnRK1r0HM+8DtTEOVvZzxB1CJyRGxNBcW9ll+LYQ/vB
PqMbuaXPfWkF2B/pbELojrEl5xWITodpAJ9cnX4aJxYRmXyiiMBg5dBYxAYp70Nw
HIRzdCMgeVbGkm0ZSeaeb9BXeMEt5tpF+pTF
-----END CERTIFICATE-----
