Certificate:
    Data:
        Version: 3 (0x2)
        Serial Number: 4750 (0x128e)
        Signature Algorithm: sha256WithRSAEncryption
        Issuer: C=DE, ST=Bayern, L=N\xC3\x83\xC2\xBCrnberg, O=Siemens AG, OU=Trustcenter, CN=OliverCA/emailAddress=oliver.stiller@siemens.com
        Validity
            Not Before: Oct  7 11:31:34 2020 GMT
            Not After : Oct  7 11:31:34 2021 GMT
        Subject: O=Dont trust me, CN=Ignore me
        Subject Public Key Info:
            Public Key Algorithm: rsaEncryption
                RSA Public-Key: (2048 bit)
                Modulus:
                    00:bf:90:13:64:7f:56:40:71:db:89:f1:10:a3:28:
                    93:e6:60:0d:bb:01:c9:f6:7a:2c:f3:8f:40:2c:19:
                    b6:2c:aa:35:1a:27:c0:02:60:43:d3:c0:8d:e6:4d:
                    c0:d2:eb:e7:3d:d0:06:f2:b7:70:0f:0f:1f:2c:be:
                    08:b6:e8:e8:5d:a2:f2:e0:ce:b0:48:e3:50:b3:a5:
                    26:e6:11:8e:f4:6c:4f:52:e3:f4:bd:00:e0:f9:52:
                    d3:9d:29:39:7f:de:4b:2e:12:a0:78:62:73:f6:d9:
                    24:55:48:d9:13:01:2b:e8:10:9f:f9:a5:80:43:c0:
                    d3:98:35:90:7e:76:12:93:78:2d:29:90:79:aa:18:
                    6f:f2:7f:b0:92:46:57:bf:f7:ca:17:cc:f1:56:95:
                    92:a6:59:54:9f:97:11:9b:ba:ff:62:70:37:e0:96:
                    f3:29:61:a0:70:06:6e:2b:f8:51:6e:54:b5:81:76:
                    77:fe:93:f1:13:e0:b9:78:01:01:fe:d0:bc:27:d2:
                    dd:52:15:fd:40:70:37:60:fa:0f:f7:e8:49:a2:08:
                    3c:e7:a8:86:2e:50:75:37:e1:66:26:18:a7:08:51:
                    ff:c5:be:fa:2a:44:a4:da:90:d7:5b:2a:a7:71:fd:
                    d8:b1:64:27:ca:38:b9:fe:e4:d8:56:42:0a:6e:b8:
                    bd:ed
                Exponent: 65537 (0x10001)
        X509v3 extensions:
            X509v3 Extended Key Usage: 
                OCSP Signing, TLS Web Server Authentication
            OCSP No Check: 

    Signature Algorithm: sha256WithRSAEncryption
         93:6e:46:a1:7d:5b:3d:22:23:22:5e:d8:5a:73:cc:bd:05:a3:
         45:f0:97:ef:e3:44:53:fb:25:f2:20:24:a9:6a:26:77:2e:9e:
         44:d8:64:df:3f:37:db:76:b9:85:5d:28:9e:71:8f:2e:0a:59:
         fd:fc:9b:cb:15:ff:87:1c:7f:c9:85:11:d5:59:2f:60:2e:28:
         20:af:d9:21:da:fb:f9:98:38:e3:fd:1f:2e:72:b1:97:35:e1:
         26:22:ad:0b:2d:0a:1a:3e:60:19:dc:f3:37:00:0c:fe:7d:5b:
         8c:62:9c:f2:07:22:ec:ca:54:40:3c:88:6d:0a:4d:9c:ca:0b:
         c1:b2:82:e2:3d:db:34:35:1d:38:bd:60:32:0e:8b:dc:cd:97:
         13:26:18:dc:c8:74:e6:db:97:87:cc:95:a4:9e:02:49:94:c1:
         54:24:fa:73:f7:ae:9e:ad:1a:8a:d1:97:00:89:68:1b:3b:60:
         d2:28:53:59:54:56:88:85:24:ef:be:ae:24:b9:de:40:19:16:
         a1:2c:04:cd:a1:a6:89:9c:77:a9:77:50:6c:af:3c:a9:ff:69:
         a9:6e:07:58:be:d0:77:70:ed:89:a6:c3:30:9a:fd:8c:65:88:
         6c:4d:20:6a:a8:49:ee:27:82:08:79:5a:8b:a6:f7:e4:4f:6e:
         06:c0:b7:97:40:99:81:ec:99:95:d1:ad:6f:85:48:da:2e:3b:
         82:9e:cd:34:a8:70:55:65:3e:f2:76:9f:90:15:8b:cb:25:89:
         66:1e:d0:cf:87:86:f4:c4:46:5f:92:ad:58:61:aa:64:6f:c3:
         9e:46:75:ab:d4:3e:cf:46:a1:42:23:08:b0:d7:7f:fe:5c:34:
         81:5a:0a:7a:9f:cd:3b:16:0e:c6:d8:bf:7b:38:d5:96:9e:b5:
         79:74:89:49:56:16:53:38:30:1c:b3:f3:98:ae:9f:d4:6f:e2:
         5b:2d:3f:d8:5a:83:9c:a7:b6:0c:97:ab:b4:6b:89:26:d2:a3:
         d4:a0:b4:b4:fd:de:00:3a:04:2f:1b:84:87:14:b2:12:ca:1f:
         f1:44:48:31:49:bc:91:af:36:b9:95:42:74:aa:3f:c7:b6:20:
         6f:20:3e:c7:e1:a3:e8:58:36:90:61:77:a2:44:37:8b:4e:11:
         2e:9a:36:d1:0a:18:62:4c:f9:9a:c0:24:20:86:1b:fc:74:19:
         02:07:3d:70:aa:33:38:ea:f6:96:0b:ad:90:a5:2e:84:95:bb:
         84:c8:74:c3:82:47:63:35:17:81:62:d4:c1:00:58:fb:86:8b:
         e0:53:cf:3e:a4:c8:6b:bc:1f:7d:01:d9:cc:52:20:d4:03:24:
         06:b4:87:9a:b5:b0:2b:83
-----BEGIN CERTIFICATE-----
MIIEeDCCAmCgAwIBAgICEo4wDQYJKoZIhvcNAQELBQAwgZ0xCzAJBgNVBAYTAkRF
MQ8wDQYDVQQIDAZCYXllcm4xFDASBgNVBAcMC07Dg8K8cm5iZXJnMRMwEQYDVQQK
DApTaWVtZW5zIEFHMRQwEgYDVQQLDAtUcnVzdGNlbnRlcjERMA8GA1UEAwwIT2xp
dmVyQ0ExKTAnBgkqhkiG9w0BCQEWGm9saXZlci5zdGlsbGVyQHNpZW1lbnMuY29t
MB4XDTIwMTAwNzExMzEzNFoXDTIxMTAwNzExMzEzNFowLDEWMBQGA1UECgwNRG9u
dCB0cnVzdCBtZTESMBAGA1UEAwwJSWdub3JlIG1lMIIBIjANBgkqhkiG9w0BAQEF
AAOCAQ8AMIIBCgKCAQEAv5ATZH9WQHHbifEQoyiT5mANuwHJ9nos849ALBm2LKo1
GifAAmBD08CN5k3A0uvnPdAG8rdwDw8fLL4ItujoXaLy4M6wSONQs6Um5hGO9GxP
UuP0vQDg+VLTnSk5f95LLhKgeGJz9tkkVUjZEwEr6BCf+aWAQ8DTmDWQfnYSk3gt
KZB5qhhv8n+wkkZXv/fKF8zxVpWSpllUn5cRm7r/YnA34JbzKWGgcAZuK/hRblS1
gXZ3/pPxE+C5eAEB/tC8J9LdUhX9QHA3YPoP9+hJogg856iGLlB1N+FmJhinCFH/
xb76KkSk2pDXWyqncf3YsWQnyji5/uTYVkIKbri97QIDAQABozIwMDAdBgNVHSUE
FjAUBggrBgEFBQcDCQYIKwYBBQUHAwEwDwYJKwYBBQUHMAEFBAIFADANBgkqhkiG
9w0BAQsFAAOCAgEAk25GoX1bPSIjIl7YWnPMvQWjRfCX7+NEU/sl8iAkqWomdy6e
RNhk3z8323a5hV0onnGPLgpZ/fybyxX/hxx/yYUR1VkvYC4oIK/ZIdr7+Zg44/0f
LnKxlzXhJiKtCy0KGj5gGdzzNwAM/n1bjGKc8gci7MpUQDyIbQpNnMoLwbKC4j3b
NDUdOL1gMg6L3M2XEyYY3Mh05tuXh8yVpJ4CSZTBVCT6c/eunq0aitGXAIloGztg
0ihTWVRWiIUk776uJLneQBkWoSwEzaGmiZx3qXdQbK88qf9pqW4HWL7Qd3DtiabD
MJr9jGWIbE0gaqhJ7ieCCHlai6b35E9uBsC3l0CZgeyZldGtb4VI2i47gp7NNKhw
VWU+8nafkBWLyyWJZh7Qz4eG9MRGX5KtWGGqZG/DnkZ1q9Q+z0ahQiMIsNd//lw0
gVoKep/NOxYOxti/ezjVlp61eXSJSVYWUzgwHLPzmK6f1G/iWy0/2FqDnKe2DJer
tGuJJtKj1KC0tP3eADoELxuEhxSyEsof8URIMUm8ka82uZVCdKo/x7YgbyA+x+Gj
6Fg2kGF3okQ3i04RLpo20QoYYkz5msAkIIYb/HQZAgc9cKozOOr2lgutkKUuhJW7
hMh0w4JHYzUXgWLUwQBY+4aL4FPPPqTIa7wffQHZzFIg1AMkBrSHmrWwK4M=
-----END CERTIFICATE-----
