Certificate:
    Data:
        Version: 3 (0x2)
        Serial Number: 4751 (0x128f)
        Signature Algorithm: sha256WithRSAEncryption
        Issuer: C=DE, ST=Bayern, L=N\xC3\x83\xC2\xBCrnberg, O=Siemens AG, OU=Trustcenter, CN=OliverCA/emailAddress=oliver.stiller@siemens.com
        Validity
            Not Before: Oct  7 11:31:47 2020 GMT
            Not After : Oct  7 11:31:47 2021 GMT
        Subject: O=Dont trust me, CN=Ignore me
        Subject Public Key Info:
            Public Key Algorithm: rsaEncryption
                RSA Public-Key: (2048 bit)
                Modulus:
                    00:b9:85:ef:9e:16:3c:a5:86:86:a7:62:ac:db:e2:
                    51:a8:7b:b5:9b:e6:c2:a0:82:78:e4:bf:05:71:39:
                    54:49:4b:a2:f1:79:95:c0:14:c5:6f:97:b2:24:76:
                    b6:98:cb:32:76:23:28:c2:23:02:af:5e:79:57:85:
                    12:8d:fc:1c:6c:ab:53:32:08:b1:89:9f:bf:c5:5f:
                    91:4f:65:67:d2:a9:e0:cd:dd:e7:00:63:24:e9:8b:
                    f6:b5:c3:11:d5:89:44:98:af:13:04:a1:86:7e:b7:
                    ab:86:e0:d1:85:ad:03:7a:ee:96:db:c0:a9:c2:af:
                    43:37:0f:d9:2b:15:6b:8b:17:19:89:29:8b:67:6b:
                    a5:7c:85:f9:f5:84:22:51:8e:fd:63:99:2f:bd:5e:
                    cb:74:5b:5a:43:37:d3:a1:47:1d:32:4e:a4:f9:94:
                    ed:9c:d7:1f:fc:6e:b4:df:f0:d7:6a:57:cb:12:d8:
                    85:4a:8b:53:04:a0:15:4f:b3:0c:1f:8d:27:a7:54:
                    b5:cf:9f:b4:1a:19:fa:03:ff:e5:04:3b:e0:10:1a:
                    85:81:85:44:67:ad:09:2d:dd:08:82:75:00:6f:69:
                    1a:7a:26:5f:47:75:e8:34:e0:35:82:18:09:81:f0:
                    1c:d9:30:2d:da:59:2b:f6:f4:64:f4:46:e7:4a:4a:
                    65:95
                Exponent: 65537 (0x10001)
        X509v3 extensions:
            X509v3 Extended Key Usage: 
                OCSP Signing, TLS Web Server Authentication, Any Extended Key Usage
    Signature Algorithm: sha256WithRSAEncryption
         0b:32:4e:4a:ae:0d:f6:7a:6f:e8:e3:0f:f2:42:00:6c:0e:bd:
         1b:e6:aa:4e:bd:4f:19:a9:ca:e7:54:42:91:69:f5:96:a7:93:
         dd:cc:10:9c:f6:0a:07:3f:62:1b:45:65:60:aa:32:78:08:ec:
         7a:ff:46:9a:75:65:21:2e:cf:48:1b:5a:9d:1e:fb:cd:1d:65:
         3e:e2:41:26:53:77:c7:d6:aa:8d:5c:6f:30:9f:aa:8a:37:25:
         02:1d:e5:fa:d8:f4:16:09:fb:d7:4b:e2:f0:7a:73:21:cc:09:
         05:4d:6f:35:80:ed:a8:04:eb:55:32:a9:ce:f1:29:8d:8f:db:
         21:34:26:8b:6a:37:10:f6:94:32:87:52:db:36:7e:c8:1c:7f:
         36:45:25:58:3f:a8:f5:99:84:19:c7:53:af:38:36:af:e0:ff:
         62:b0:00:f1:2a:8b:5a:93:52:bf:40:96:b6:9b:0c:7f:bd:09:
         92:f3:ad:ef:ab:80:76:70:72:c2:3d:88:d2:9c:b2:5f:66:15:
         c8:d0:eb:aa:8a:74:98:d3:aa:0b:a4:33:ed:51:de:ee:f4:34:
         d8:b0:74:e3:3e:94:63:c8:22:5c:d0:5b:4d:7a:01:07:0e:03:
         df:f7:65:0e:8d:f8:e2:d2:01:80:f2:03:42:ea:f7:9e:1b:60:
         96:b2:69:f1:ee:f0:12:c2:8b:ee:8a:b0:e4:d3:29:c9:6f:df:
         21:5e:29:17:42:8b:20:2d:fc:f6:79:65:b6:ac:4c:4b:05:50:
         91:6d:26:6d:f4:bc:45:db:59:68:29:95:a0:b0:16:ea:0d:ad:
         ba:f6:5c:b2:e5:8d:e8:d4:89:da:c5:c5:10:75:af:de:24:76:
         db:eb:80:40:73:9b:d1:0a:1c:93:92:08:5e:a8:38:ae:05:cd:
         b9:23:2c:7c:de:28:fa:e1:bc:c6:2b:df:64:7b:f9:91:a8:c8:
         91:94:33:55:b3:90:35:1c:67:38:89:bf:e0:df:eb:0e:dd:97:
         68:bf:7e:79:8c:b5:f1:93:c8:99:c4:8c:fc:45:b1:33:15:7e:
         fd:3f:67:fb:2c:1d:70:3b:8f:e5:e7:11:7c:79:d9:a6:b3:3a:
         b9:32:e3:cc:c4:b4:8d:a9:76:fa:72:49:cf:9c:14:28:c4:12:
         2c:97:b6:f4:9f:67:71:0d:1d:d4:ae:27:4e:4b:30:c8:91:c7:
         89:e6:f9:5a:01:d4:17:0c:4b:1d:93:13:2b:33:d8:3b:4a:05:
         ba:50:e5:6f:2e:c5:bb:fe:ab:9e:8e:c3:e2:a6:bc:12:01:07:
         e6:cd:78:51:e2:eb:cf:ee:d4:6b:2c:c2:f8:95:2e:1d:b3:50:
         e7:d6:4e:7f:c1:b4:65:f7
-----BEGIN CERTIFICATE-----
MIIEbTCCAlWgAwIBAgICEo8wDQYJKoZIhvcNAQELBQAwgZ0xCzAJBgNVBAYTAkRF
MQ8wDQYDVQQIDAZCYXllcm4xFDASBgNVBAcMC07Dg8K8cm5iZXJnMRMwEQYDVQQK
DApTaWVtZW5zIEFHMRQwEgYDVQQLDAtUcnVzdGNlbnRlcjERMA8GA1UEAwwIT2xp
dmVyQ0ExKTAnBgkqhkiG9w0BCQEWGm9saXZlci5zdGlsbGVyQHNpZW1lbnMuY29t
MB4XDTIwMTAwNzExMzE0N1oXDTIxMTAwNzExMzE0N1owLDEWMBQGA1UECgwNRG9u
dCB0cnVzdCBtZTESMBAGA1UEAwwJSWdub3JlIG1lMIIBIjANBgkqhkiG9w0BAQEF
AAOCAQ8AMIIBCgKCAQEAuYXvnhY8pYaGp2Ks2+JRqHu1m+bCoIJ45L8FcTlUSUui
8XmVwBTFb5eyJHa2mMsydiMowiMCr155V4USjfwcbKtTMgixiZ+/xV+RT2Vn0qng
zd3nAGMk6Yv2tcMR1YlEmK8TBKGGfrerhuDRha0Deu6W28Cpwq9DNw/ZKxVrixcZ
iSmLZ2ulfIX59YQiUY79Y5kvvV7LdFtaQzfToUcdMk6k+ZTtnNcf/G603/DXalfL
EtiFSotTBKAVT7MMH40np1S1z5+0Ghn6A//lBDvgEBqFgYVEZ60JLd0IgnUAb2ka
eiZfR3XoNOA1ghgJgfAc2TAt2lkr9vRk9EbnSkpllQIDAQABoycwJTAjBgNVHSUE
HDAaBggrBgEFBQcDCQYIKwYBBQUHAwEGBFUdJQAwDQYJKoZIhvcNAQELBQADggIB
AAsyTkquDfZ6b+jjD/JCAGwOvRvmqk69TxmpyudUQpFp9Zank93MEJz2Cgc/YhtF
ZWCqMngI7Hr/Rpp1ZSEuz0gbWp0e+80dZT7iQSZTd8fWqo1cbzCfqoo3JQId5frY
9BYJ+9dL4vB6cyHMCQVNbzWA7agE61Uyqc7xKY2P2yE0JotqNxD2lDKHUts2fsgc
fzZFJVg/qPWZhBnHU684Nq/g/2KwAPEqi1qTUr9AlrabDH+9CZLzre+rgHZwcsI9
iNKcsl9mFcjQ66qKdJjTqgukM+1R3u70NNiwdOM+lGPIIlzQW016AQcOA9/3ZQ6N
+OLSAYDyA0Lq954bYJayafHu8BLCi+6KsOTTKclv3yFeKRdCiyAt/PZ5ZbasTEsF
UJFtJm30vEXbWWgplaCwFuoNrbr2XLLljejUidrFxRB1r94kdtvrgEBzm9EKHJOS
CF6oOK4FzbkjLHzeKPrhvMYr32R7+ZGoyJGUM1WzkDUcZziJv+Df6w7dl2i/fnmM
tfGTyJnEjPxFsTMVfv0/Z/ssHXA7j+XnEXx52aazOrky48zEtI2pdvpySc+cFCjE
EiyXtvSfZ3ENHdSuJ05LMMiRx4nm+VoB1BcMSx2TEysz2DtKBbpQ5W8uxbv+q56O
w+KmvBIBB+bNeFHi68/u1GsswviVLh2zUOfWTn/BtGX3
-----END CERTIFICATE-----
