Certificate:
    Data:
        Version: 3 (0x2)
        Serial Number: 4767 (0x129f)
        Signature Algorithm: sha256WithRSAEncryption
        Issuer: C=DE, ST=Bayern, L=N\xC3\x83\xC2\xBCrnberg, O=Siemens AG, OU=Trustcenter, CN=OliverCA/emailAddress=oliver.stiller@siemens.com
        Validity
            Not Before: Oct  8 11:51:14 2020 GMT
            Not After : Oct  8 11:51:14 2021 GMT
        Subject: O=Dont trust me, CN=Ignore me
        Subject Public Key Info:
            Public Key Algorithm: rsaEncryption
                RSA Public-Key: (2048 bit)
                Modulus:
                    00:c6:4f:b2:9c:38:c0:05:50:de:c3:c5:43:22:d2:
                    dc:35:1c:e8:44:fc:e7:43:e3:e4:5d:d0:c5:33:f7:
                    e3:fd:59:51:01:4d:e4:23:8e:33:a2:3e:01:01:39:
                    dd:aa:2f:7e:b2:2e:e9:37:5b:7e:b0:14:21:d7:08:
                    8a:e5:48:91:fd:ab:ec:8e:32:bb:b2:e2:9a:b8:5e:
                    9b:9b:89:ae:f3:2a:db:91:ce:b1:61:26:61:8e:ef:
                    fa:7b:de:82:c4:d7:47:fb:ef:da:ad:7b:0b:de:e3:
                    4b:39:7a:3c:17:3e:bf:bb:31:ef:e2:58:00:9e:b5:
                    32:93:38:7e:bf:a0:68:ef:04:ad:92:09:6a:a9:08:
                    51:5c:86:78:f2:03:e9:c6:24:43:9c:92:b3:72:07:
                    a8:2a:fd:b2:f9:b7:df:48:91:33:8d:07:ab:30:04:
                    16:55:88:d3:92:53:63:ca:13:7a:1c:26:e3:b9:32:
                    46:57:cf:6e:bf:df:7c:13:da:9c:0a:de:82:fe:d8:
                    f5:37:91:15:85:82:ad:a3:81:e7:25:8c:38:85:a3:
                    c4:34:61:8b:85:c5:27:4b:9f:60:8c:6d:21:38:c3:
                    75:36:8a:8e:6f:7c:b7:24:9d:9b:a0:39:79:74:89:
                    9a:b1:c2:49:aa:d3:91:58:bc:ac:22:32:1c:5c:b1:
                    33:63
                Exponent: 65537 (0x10001)
        X509v3 extensions:
            X509v3 Extended Key Usage: 
                OCSP Signing, TLS Web Server Authentication, Any Extended Key Usage, E-mail Protection
    Signature Algorithm: sha256WithRSAEncryption
         46:2b:b4:69:e0:22:97:6e:68:a9:bd:c0:32:c8:67:ad:2e:03:
         ca:df:aa:96:40:58:58:e1:1d:a4:f6:8c:0b:f2:d2:24:9c:2e:
         93:1c:02:b0:49:65:f9:93:96:c2:43:f3:87:eb:32:a7:e1:6f:
         ad:c5:ac:9c:18:e1:5d:68:4d:e9:7c:7a:30:5b:9f:21:1e:c9:
         88:bf:86:8c:74:d9:c1:90:ba:8f:96:91:b3:52:1e:18:e1:d0:
         2d:ed:5b:58:37:f6:ee:ed:72:15:8c:5a:06:5f:39:5b:a0:8d:
         6c:38:24:c8:13:22:ad:21:b1:dc:d2:e0:da:25:74:8f:56:5a:
         32:e2:9a:3a:ad:e5:0a:6b:21:fd:8a:09:fd:1d:7a:9c:b0:ba:
         f7:28:5c:b1:53:66:7f:50:2e:a5:d1:d5:a0:ac:d6:cc:c2:0a:
         15:f4:bf:a8:74:f5:ae:f2:5d:7c:05:7b:1f:be:e1:d1:8e:00:
         8e:94:f0:1f:20:09:cc:f4:c7:51:33:cb:73:e5:ea:fc:08:54:
         98:6d:d0:91:c7:7f:7d:b9:f7:ea:4d:b3:d6:85:a5:ab:04:a1:
         cc:81:2d:5d:f3:d2:b6:18:39:b2:9d:75:8a:7d:69:30:b5:a3:
         db:71:10:cb:af:af:ac:a6:e5:ff:8a:55:47:a3:e7:ac:b1:5f:
         3c:78:47:ef:51:1a:c1:5c:26:6f:a5:53:cb:7e:56:ea:e0:ee:
         e2:1f:fa:92:fc:dc:58:d0:89:e9:fa:8a:7d:9a:00:c2:b5:64:
         50:21:33:70:ec:0a:cc:0c:86:cd:0a:8f:cc:14:fb:25:72:b3:
         53:d4:3d:b4:54:c2:f8:76:68:02:69:5a:64:f1:bb:89:16:16:
         9b:96:0d:ca:c8:41:35:4b:e4:57:23:c0:9b:a8:14:04:d7:92:
         e2:5c:0c:d5:5d:95:7f:07:be:c8:4e:7d:07:d8:8a:b7:8c:31:
         83:e5:bb:b7:d0:a7:44:34:e9:25:76:a9:40:48:92:a0:c9:35:
         17:97:b8:8d:bc:3d:28:e1:3d:72:3e:d6:1b:b6:0f:33:41:6e:
         5b:39:a4:4c:d1:c5:93:71:9b:c8:ee:4a:91:59:68:0f:16:14:
         c5:cb:4d:bf:4c:3c:45:85:e6:b4:bf:a6:a9:96:5e:ae:96:53:
         18:9c:39:a6:93:32:04:43:76:e0:09:01:30:06:03:98:ab:b6:
         83:96:15:e8:66:6c:a3:8d:03:f2:13:14:7e:61:c4:f7:3e:4f:
         68:30:e7:a0:76:71:b4:cc:8b:54:40:77:90:b0:e2:a0:41:e1:
         55:6d:1d:6e:19:70:3e:4c:3d:3f:0f:33:ea:8c:f6:33:f8:8a:
         5b:f7:45:6c:8f:40:0f:27
-----BEGIN CERTIFICATE-----
MIIEdzCCAl+gAwIBAgICEp8wDQYJKoZIhvcNAQELBQAwgZ0xCzAJBgNVBAYTAkRF
MQ8wDQYDVQQIDAZCYXllcm4xFDASBgNVBAcMC07Dg8K8cm5iZXJnMRMwEQYDVQQK
DApTaWVtZW5zIEFHMRQwEgYDVQQLDAtUcnVzdGNlbnRlcjERMA8GA1UEAwwIT2xp
dmVyQ0ExKTAnBgkqhkiG9w0BCQEWGm9saXZlci5zdGlsbGVyQHNpZW1lbnMuY29t
MB4XDTIwMTAwODExNTExNFoXDTIxMTAwODExNTExNFowLDEWMBQGA1UECgwNRG9u
dCB0cnVzdCBtZTESMBAGA1UEAwwJSWdub3JlIG1lMIIBIjANBgkqhkiG9w0BAQEF
AAOCAQ8AMIIBCgKCAQEAxk+ynDjABVDew8VDItLcNRzoRPznQ+PkXdDFM/fj/VlR
AU3kI44zoj4BATndqi9+si7pN1t+sBQh1wiK5UiR/avsjjK7suKauF6bm4mu8yrb
kc6xYSZhju/6e96CxNdH++/arXsL3uNLOXo8Fz6/uzHv4lgAnrUykzh+v6Bo7wSt
kglqqQhRXIZ48gPpxiRDnJKzcgeoKv2y+bffSJEzjQerMAQWVYjTklNjyhN6HCbj
uTJGV89uv998E9qcCt6C/tj1N5EVhYKto4HnJYw4haPENGGLhcUnS59gjG0hOMN1
NoqOb3y3JJ2boDl5dImascJJqtORWLysIjIcXLEzYwIDAQABozEwLzAtBgNVHSUE
JjAkBggrBgEFBQcDCQYIKwYBBQUHAwEGBFUdJQAGCCsGAQUFBwMEMA0GCSqGSIb3
DQEBCwUAA4ICAQBGK7Rp4CKXbmipvcAyyGetLgPK36qWQFhY4R2k9owL8tIknC6T
HAKwSWX5k5bCQ/OH6zKn4W+txaycGOFdaE3pfHowW58hHsmIv4aMdNnBkLqPlpGz
Uh4Y4dAt7VtYN/bu7XIVjFoGXzlboI1sOCTIEyKtIbHc0uDaJXSPVloy4po6reUK
ayH9ign9HXqcsLr3KFyxU2Z/UC6l0dWgrNbMwgoV9L+odPWu8l18BXsfvuHRjgCO
lPAfIAnM9MdRM8tz5er8CFSYbdCRx399uffqTbPWhaWrBKHMgS1d89K2GDmynXWK
fWkwtaPbcRDLr6+spuX/ilVHo+essV88eEfvURrBXCZvpVPLflbq4O7iH/qS/NxY
0Inp+op9mgDCtWRQITNw7ArMDIbNCo/MFPslcrNT1D20VML4dmgCaVpk8buJFhab
lg3KyEE1S+RXI8CbqBQE15LiXAzVXZV/B77ITn0H2Iq3jDGD5bu30KdENOkldqlA
SJKgyTUXl7iNvD0o4T1yPtYbtg8zQW5bOaRM0cWTcZvI7kqRWWgPFhTFy02/TDxF
hea0v6apll6ullMYnDmmkzIEQ3bgCQEwBgOYq7aDlhXoZmyjjQPyExR+YcT3Pk9o
MOegdnG0zItUQHeQsOKgQeFVbR1uGXA+TD0/DzPqjPYz+Ipb90Vsj0APJw==
-----END CERTIFICATE-----
