Certificate:
    Data:
        Version: 3 (0x2)
        Serial Number:
            0b:be:c6:d3:b4:bd:3c:c3:17:4a:5b:59:ac:77:e4:e2
        Signature Algorithm: sha256WithRSAEncryption
        Issuer: C=XX, O=Some CA, CN=Fake CA for zlint testing
        Validity
            Not Before: Oct 31 09:54:00 2025 GMT
            Not After : Oct 31 09:54:00 2026 GMT
        Subject: C=XX, ST=Some State or Province, L=Somew Locality, O=Some CA, CN=Some CA - OCSP Responder
        Subject Public Key Info:
            Public Key Algorithm: rsaEncryption
                Public-Key: (2048 bit)
                Modulus:
                    00:e2:32:59:da:5a:6a:40:63:d6:a5:72:c3:e0:05:
                    aa:8e:0c:41:87:05:4b:31:7b:9f:6a:90:e5:9f:27:
                    94:71:e5:7c:06:4c:f8:ae:61:20:9d:92:e2:0d:13:
                    44:10:0e:e5:1a:3d:a4:72:40:b0:36:4b:ed:6d:05:
                    e8:a1:42:1e:99:c2:6d:11:7d:d8:f6:09:91:f0:1f:
                    f4:ea:f0:60:93:95:ea:12:70:dd:48:ba:ee:ab:34:
                    f5:f8:b3:af:8e:e6:73:ce:ee:41:15:ff:5b:5d:a0:
                    7a:e7:91:b8:8f:5b:c2:06:97:f0:1b:70:c5:0a:2f:
                    02:f6:c3:c4:2a:1d:e4:55:fe:1e:c2:bf:d1:2c:f5:
                    b0:ef:14:70:21:e5:7e:9d:4b:0e:fe:71:bc:5b:e1:
                    cf:55:b3:c1:14:1a:d9:03:2a:39:b5:d6:9d:f6:e3:
                    cf:0d:be:5c:41:c7:1e:15:76:5f:4e:73:1e:f3:bb:
                    a6:a2:c5:1e:7e:0c:9c:92:99:62:a6:cd:36:97:4d:
                    e0:9f:4d:a2:bc:e2:35:fd:ad:20:1c:f0:db:38:7a:
                    91:1e:ad:ab:a8:d0:27:8e:7e:1d:61:69:f2:ca:e5:
                    db:64:16:00:41:8b:88:12:6d:8f:d2:a1:9e:26:f9:
                    0c:51:c2:7c:75:6e:ed:2e:16:44:f6:e9:79:e7:69:
                    88:e9
                Exponent: 65537 (0x10001)
        X509v3 extensions:
            X509v3 Key Usage: critical
                Digital Signature
            X509v3 Extended Key Usage: 
                OCSP Signing
            X509v3 Subject Key Identifier: 
                EA:64:67:F1:47:4B:CC:61:D1:B6:53:EC:FE:A0:56:4E:96:29:CA:AD
            X509v3 Authority Key Identifier: 
                E8:B6:F6:76:4B:D0:3B:E5:46:A5:F9:54:D4:7E:07:B3:DE:0D:60:3E
            OCSP No Check: 

    Signature Algorithm: sha256WithRSAEncryption
    Signature Value:
        59:36:56:ce:45:91:38:25:de:f2:13:23:50:92:47:56:e5:a3:
        6e:af:14:c1:6b:f0:5b:4a:f6:60:f8:49:3c:f9:16:0e:4f:72:
        99:e7:45:08:3b:ce:01:3b:38:33:93:06:08:24:7a:86:0c:21:
        65:64:b0:3a:5d:e7:6d:67:98:2e:9b:be:27:4c:8a:e0:83:5c:
        3c:b1:68:cb:64:e3:f3:65:86:79:93:ad:10:ea:6f:3d:37:d8:
        cf:a3:60:bc:87:06:b1:22:c7:b7:26:48:58:6f:d9:2a:47:af:
        68:7b:76:e3:68:c2:05:75:ad:8a:aa:80:f9:84:98:b0:1b:11:
        4c:02:21:48:df:3b:06:fe:f1:a0:df:71:1b:df:17:86:a6:ff:
        b4:92:39:2a:28:84:3a:6e:07:52:92:e0:c7:6f:85:b7:a2:50:
        af:c3:4d:06:24:63:64:43:2b:38:41:86:a5:37:f3:85:a7:8a:
        be:ad:5b:37:f7:36:91:ff:8a:52:06:30:17:eb:10:5c:64:7e:
        3e:87:bd:62:71:7a:7c:d8:bf:43:39:be:61:61:ae:84:f9:d5:
        03:99:0a:c3:67:c9:b6:61:f2:99:22:7c:af:17:d7:30:63:23:
        92:18:6a:25:e0:67:f4:0c:5e:61:14:12:49:65:aa:90:ca:70:
        83:fd:8b:b1
-----BEGIN CERTIFICATE-----
MIIDwTCCAqmgAwIBAgIQC77G07S9PMMXSltZrHfk4jANBgkqhkiG9w0BAQsFADBD
MQswCQYDVQQGEwJYWDEQMA4GA1UEChMHU29tZSBDQTEiMCAGA1UEAxMZRmFrZSBD
QSBmb3IgemxpbnQgdGVzdGluZzAeFw0yNTEwMzEwOTU0MDBaFw0yNjEwMzEwOTU0
MDBaMHwxCzAJBgNVBAYTAlhYMR8wHQYDVQQIExZTb21lIFN0YXRlIG9yIFByb3Zp
bmNlMRcwFQYDVQQHEw5Tb21ldyBMb2NhbGl0eTEQMA4GA1UEChMHU29tZSBDQTEh
MB8GA1UEAxMYU29tZSBDQSAtIE9DU1AgUmVzcG9uZGVyMIIBIjANBgkqhkiG9w0B
AQEFAAOCAQ8AMIIBCgKCAQEA4jJZ2lpqQGPWpXLD4AWqjgxBhwVLMXufapDlnyeU
ceV8Bkz4rmEgnZLiDRNEEA7lGj2kckCwNkvtbQXooUIemcJtEX3Y9gmR8B/06vBg
k5XqEnDdSLruqzT1+LOvjuZzzu5BFf9bXaB655G4j1vCBpfwG3DFCi8C9sPEKh3k
Vf4ewr/RLPWw7xRwIeV+nUsO/nG8W+HPVbPBFBrZAyo5tdad9uPPDb5cQcceFXZf
TnMe87umosUefgyckplips02l03gn02ivOI1/a0gHPDbOHqRHq2rqNAnjn4dYWny
yuXbZBYAQYuIEm2P0qGeJvkMUcJ8dW7tLhZE9ul552mI6QIDAQABo3gwdjAOBgNV
HQ8BAf8EBAMCB4AwEwYDVR0lBAwwCgYIKwYBBQUHAwkwHQYDVR0OBBYEFOpkZ/FH
S8xh0bZT7P6gVk6WKcqtMB8GA1UdIwQYMBaAFOi29nZL0DvlRqX5VNR+B7PeDWA+
MA8GCSsGAQUFBzABBQQCBQAwDQYJKoZIhvcNAQELBQADggEBAFk2Vs5FkTgl3vIT
I1CSR1blo26vFMFr8FtK9mD4STz5Fg5PcpnnRQg7zgE7ODOTBggkeoYMIWVksDpd
521nmC6bvidMiuCDXDyxaMtk4/NlhnmTrRDqbz032M+jYLyHBrEix7cmSFhv2SpH
r2h7duNowgV1rYqqgPmEmLAbEUwCIUjfOwb+8aDfcRvfF4am/7SSOSoohDpuB1KS
4MdvhbeiUK/DTQYkY2RDKzhBhqU384Wnir6tWzf3NpH/ilIGMBfrEFxkfj6HvWJx
enzYv0M5vmFhroT51QOZCsNnybZh8pkifK8X1zBjI5IYaiXgZ/QMXmEUEkllqpDK
cIP9i7E=
-----END CERTIFICATE-----
