Certificate:
    Data:
        Version: 3 (0x2)
        Serial Number:
            7b:b8:5f:5c:78:b8:ea:c2:83:f9:25:a9:27:d2:d7:12
        Signature Algorithm: sha256WithRSAEncryption
        Issuer: C=XX, O=Some CA, CN=Fake CA for zlint testing
        Validity
            Not Before: Nov  2 08:15:22 2025 GMT
            Not After : Nov  2 08:15:22 2026 GMT
        Subject: C=XX, ST=Some State or Province, L=Somew Locality, O=Some CA, CN=Some CA - OCSP Responder
        Subject Public Key Info:
            Public Key Algorithm: rsaEncryption
                Public-Key: (2048 bit)
                Modulus:
                    00:b9:c8:c3:ba:ce:3c:1f:00:f6:aa:f7:3b:93:df:
                    1d:09:86:12:17:ba:b7:a8:29:d0:61:e6:ea:33:2e:
                    73:cd:08:3e:83:be:38:15:18:7d:5e:75:d1:78:0c:
                    75:9b:fc:9b:17:dd:f0:aa:2c:48:e8:bc:a8:df:e7:
                    01:a0:55:cc:73:dd:ba:ac:b3:47:ee:fc:cd:01:8e:
                    66:c4:9a:3a:2a:f8:00:09:1c:d4:45:44:27:63:8c:
                    8e:3f:65:c9:b8:1a:6d:44:c8:6a:8a:ec:9e:18:18:
                    e7:2c:d8:03:48:0f:5a:e0:d9:15:7b:34:50:61:d3:
                    e0:ec:8c:55:e7:08:28:c4:0c:e7:c5:65:bc:6a:84:
                    29:56:2a:85:54:74:5a:32:46:d1:84:dc:3c:2d:ab:
                    07:46:03:0d:d9:df:2b:fe:c7:bf:cc:a6:fa:1d:98:
                    69:03:be:41:05:16:f1:91:21:ee:23:e7:eb:7b:86:
                    77:d3:4b:c4:02:ae:53:a9:b6:cc:7a:74:d1:95:24:
                    1c:58:20:ee:d8:f3:fe:77:39:d4:2c:a8:50:b4:b6:
                    65:de:0c:02:e1:c2:db:02:29:f2:11:cf:0a:ff:61:
                    4c:c9:88:bc:cf:63:02:82:bb:99:e9:37:b7:09:0e:
                    3d:d3:90:ed:4d:ff:5f:2b:c4:46:e7:78:e3:b1:ae:
                    0f:49
                Exponent: 65537 (0x10001)
        X509v3 extensions:
            X509v3 Key Usage: critical
                Digital Signature
            X509v3 Extended Key Usage: 
                OCSP Signing
            X509v3 Subject Key Identifier: 
                4B:14:17:A6:EE:F8:7B:23:66:E8:D3:B3:22:CB:E2:C5:9B:7B:13:C0
            X509v3 Authority Key Identifier: 
                E8:B6:F6:76:4B:D0:3B:E5:46:A5:F9:54:D4:7E:07:B3:DE:0D:60:3E
            X509v3 CRL Distribution Points: 
                Full Name:
                  URI:http://ca.someca-inc.com/crl

            OCSP No Check: 

    Signature Algorithm: sha256WithRSAEncryption
    Signature Value:
        71:9f:2f:5d:27:e9:48:a1:6a:4e:c1:1f:3c:94:96:8c:2b:62:
        ea:89:a4:2e:c1:ab:42:9d:61:91:f3:39:72:06:40:85:6b:a1:
        ab:2d:fd:50:9c:f6:94:b2:63:05:4b:d7:32:65:7a:4e:a2:1c:
        7b:c6:2a:c0:27:e0:65:c6:8d:10:69:e5:6b:b4:45:72:38:eb:
        bc:66:8a:2a:83:87:5a:bd:12:4b:7f:f6:cd:36:65:3f:83:55:
        fa:c2:64:4a:a4:86:db:15:c5:73:da:35:9c:9c:3d:cd:cb:be:
        8a:75:d6:0f:2c:13:7c:78:75:6e:57:6d:69:38:99:e7:d9:4a:
        c8:0f:fe:18:3b:b0:1f:d9:78:5f:c4:f6:46:77:6a:a4:81:e6:
        ab:26:8e:21:42:6d:98:12:b3:6e:ad:b1:15:cc:0e:e3:69:e4:
        85:3e:2a:d4:41:86:8c:c3:e4:b4:cf:cf:82:db:66:e8:90:e5:
        1e:5a:45:2a:be:11:ab:69:0c:ed:74:41:62:d8:f5:2c:71:b0:
        bd:1c:4c:7d:72:70:2c:f8:fc:c9:61:b5:c8:fc:ac:02:5a:d5:
        99:f7:c9:e0:45:43:cc:26:24:d9:22:f5:d4:e1:f9:69:e7:ef:
        ae:5d:d5:5f:54:38:7f:ef:f1:50:53:f9:cd:c6:09:f0:2b:e5:
        84:27:0e:53
-----BEGIN CERTIFICATE-----
MIID8jCCAtqgAwIBAgIQe7hfXHi46sKD+SWpJ9LXEjANBgkqhkiG9w0BAQsFADBD
MQswCQYDVQQGEwJYWDEQMA4GA1UEChMHU29tZSBDQTEiMCAGA1UEAxMZRmFrZSBD
QSBmb3IgemxpbnQgdGVzdGluZzAeFw0yNTExMDIwODE1MjJaFw0yNjExMDIwODE1
MjJaMHwxCzAJBgNVBAYTAlhYMR8wHQYDVQQIExZTb21lIFN0YXRlIG9yIFByb3Zp
bmNlMRcwFQYDVQQHEw5Tb21ldyBMb2NhbGl0eTEQMA4GA1UEChMHU29tZSBDQTEh
MB8GA1UEAxMYU29tZSBDQSAtIE9DU1AgUmVzcG9uZGVyMIIBIjANBgkqhkiG9w0B
AQEFAAOCAQ8AMIIBCgKCAQEAucjDus48HwD2qvc7k98dCYYSF7q3qCnQYebqMy5z
zQg+g744FRh9XnXReAx1m/ybF93wqixI6Lyo3+cBoFXMc926rLNH7vzNAY5mxJo6
KvgACRzURUQnY4yOP2XJuBptRMhqiuyeGBjnLNgDSA9a4NkVezRQYdPg7IxV5wgo
xAznxWW8aoQpViqFVHRaMkbRhNw8LasHRgMN2d8r/se/zKb6HZhpA75BBRbxkSHu
I+fre4Z300vEAq5TqbbMenTRlSQcWCDu2PP+dznULKhQtLZl3gwC4cLbAinyEc8K
/2FMyYi8z2MCgruZ6Te3CQ4905DtTf9fK8RG53jjsa4PSQIDAQABo4GoMIGlMA4G
A1UdDwEB/wQEAwIHgDATBgNVHSUEDDAKBggrBgEFBQcDCTAdBgNVHQ4EFgQUSxQX
pu74eyNm6NOzIsvixZt7E8AwHwYDVR0jBBgwFoAU6Lb2dkvQO+VGpflU1H4Hs94N
YD4wLQYDVR0fBCYwJDAioCCgHoYcaHR0cDovL2NhLnNvbWVjYS1pbmMuY29tL2Ny
bDAPBgkrBgEFBQcwAQUEAgUAMA0GCSqGSIb3DQEBCwUAA4IBAQBxny9dJ+lIoWpO
wR88lJaMK2LqiaQuwatCnWGR8zlyBkCFa6GrLf1QnPaUsmMFS9cyZXpOohx7xirA
J+Blxo0QaeVrtEVyOOu8Zooqg4davRJLf/bNNmU/g1X6wmRKpIbbFcVz2jWcnD3N
y76KddYPLBN8eHVuV21pOJnn2UrID/4YO7Af2XhfxPZGd2qkgearJo4hQm2YErNu
rbEVzA7jaeSFPirUQYaMw+S0z8+C22bokOUeWkUqvhGraQztdEFi2PUscbC9HEx9
cnAs+PzJYbXI/KwCWtWZ98ngRUPMJiTZIvXU4flp5++uXdVfVDh/7/FQU/nNxgnw
K+WEJw5T
-----END CERTIFICATE-----
