Certificate:
    Data:
        Version: 3 (0x2)
        Serial Number:
            61:09:1a:72:00:00:00:00:00:03
        Signature Algorithm: sha256WithRSAEncryption
        Issuer: C = US, O = Wells Fargo WellsSecure, OU = Wells Fargo Bank NA, CN = WellsSecure Public Root Certification Authority 01 G2
        Validity
            Not Before: Oct 16 23:18:40 2012 GMT
            Not After : Dec 26 16:46:33 2030 GMT
        Subject: C = US, O = Wells Fargo, OU = Wells Fargo Certification Authority, CN = Wells Fargo Default Responder 10
        Subject Public Key Info:
            Public Key Algorithm: rsaEncryption
                RSA Public-Key: (2048 bit)
                Modulus:
                    00:f2:9d:8a:ea:5b:47:a1:6f:77:ab:5d:ac:6f:3c:
                    d7:be:8c:67:cf:06:0a:de:d7:84:b3:c8:f6:f7:ba:
                    b1:09:a6:bb:75:33:e2:9d:ba:17:64:3c:27:67:46:
                    6b:65:08:69:5e:09:d4:a1:cd:7e:f4:b6:d8:78:01:
                    a2:79:2e:5c:69:62:6c:17:61:ab:ad:9d:03:28:95:
                    3c:d6:db:b7:98:6b:84:6a:c5:fc:f6:03:a8:1c:4d:
                    3e:f9:18:5b:33:4c:6d:1e:c7:e6:33:d3:55:5d:eb:
                    6b:68:0c:70:c1:ea:49:c4:36:8d:eb:59:79:72:02:
                    e3:08:dc:a8:bd:28:2e:c3:b5:1a:3a:31:a9:28:e3:
                    0c:cc:a3:49:6b:32:ce:58:f8:c6:15:ee:b1:55:30:
                    37:5f:5a:93:27:ec:98:8a:b0:77:5a:4d:2f:6a:10:
                    dd:e8:88:1b:fa:02:01:bf:43:6f:2f:f5:c9:96:b7:
                    5a:e0:79:b4:10:59:a3:78:ea:4b:72:59:e9:77:cc:
                    ea:d6:42:04:62:e2:1c:93:d5:6c:47:c2:9f:76:94:
                    f3:7b:60:7e:af:69:53:5e:93:4b:1e:28:69:f6:4e:
                    e9:9b:b2:77:49:d5:ab:05:da:b0:b2:59:09:9d:c0:
                    cf:81:8d:4f:1e:e6:39:9f:44:dd:75:8f:63:9c:9a:
                    10:5f
                Exponent: 65537 (0x10001)
        X509v3 extensions:
            X509v3 Extended Key Usage: 
                OCSP Signing
            OCSP No Check: 
                
            X509v3 Subject Key Identifier: 
                A0:4E:26:23:D6:5D:19:63:5B:94:93:AB:0C:F1:5B:2A:9B:F9:7B:A2
            X509v3 Key Usage: critical
                Digital Signature
            X509v3 Authority Key Identifier: 
                keyid:21:C9:25:D3:6A:FE:A4:12:FF:E6:DD:57:57:CF:8F:3E:72:84:08:CD

            X509v3 CRL Distribution Points: 

                Full Name:
                  URI:http://crl.pki.wellsfargo.com/wsprca01G2.crl

            Authority Information Access: 
                CA Issuers - URI:http://crl.pki.wellsfargo.com/wsprca01G2.crt
                OCSP - URI:http://validator.wellsfargo.com/

            X509v3 Basic Constraints: critical
                CA:FALSE
    Signature Algorithm: sha256WithRSAEncryption
         a9:b4:af:b2:f2:6c:00:83:11:48:71:ed:86:23:14:72:5c:89:
         4d:9b:95:b2:ba:db:51:a8:0e:17:9f:ff:1c:ca:29:77:8c:64:
         bf:40:4f:1a:61:5a:d8:2e:e9:21:e3:56:ee:25:0c:5d:0f:61:
         78:52:6e:e2:c3:aa:06:0b:42:19:11:62:ec:d6:97:82:4f:fc:
         26:32:a9:50:76:8e:ab:a9:87:f5:16:81:69:a4:89:a2:3b:bd:
         18:ff:1b:cf:0d:8d:3e:cf:52:5b:af:91:d5:45:2d:2f:8b:85:
         0d:d2:6b:5b:6a:71:cc:6b:d9:05:b1:c4:0e:28:6f:ab:66:a2:
         73:00:91:41:cd:59:91:d1:ed:ee:a5:04:5b:74:98:77:7e:43:
         ec:15:c1:21:b3:dc:e8:90:7e:d1:f3:75:6e:37:07:5d:13:b4:
         54:73:89:6a:9c:7b:92:dd:cc:54:ac:d0:b0:60:6d:51:b2:97:
         30:c3:7a:57:b6:b8:c8:0f:ed:de:1c:82:ff:34:5b:95:bb:8d:
         ac:0d:80:78:11:af:cd:62:1b:73:b3:13:85:60:98:db:05:8f:
         d3:d7:04:82:6f:6d:61:db:53:9d:65:03:b1:85:4c:65:74:59:
         9b:1e:6c:de:b6:01:f1:8c:ce:2f:e1:19:50:51:d2:82:42:a0:
         ce:f7:7b:bf
-----BEGIN CERTIFICATE-----
MIIEzTCCA7WgAwIBAgIKYQkacgAAAAAAAzANBgkqhkiG9w0BAQsFADCBjTELMAkG
A1UEBhMCVVMxIDAeBgNVBAoTF1dlbGxzIEZhcmdvIFdlbGxzU2VjdXJlMRwwGgYD
VQQLExNXZWxscyBGYXJnbyBCYW5rIE5BMT4wPAYDVQQDEzVXZWxsc1NlY3VyZSBQ
dWJsaWMgUm9vdCBDZXJ0aWZpY2F0aW9uIEF1dGhvcml0eSAwMSBHMjAeFw0xMjEw
MTYyMzE4NDBaFw0zMDEyMjYxNjQ2MzNaMHwxCzAJBgNVBAYTAlVTMRQwEgYDVQQK
EwtXZWxscyBGYXJnbzEsMCoGA1UECxMjV2VsbHMgRmFyZ28gQ2VydGlmaWNhdGlv
biBBdXRob3JpdHkxKTAnBgNVBAMTIFdlbGxzIEZhcmdvIERlZmF1bHQgUmVzcG9u
ZGVyIDEwMIIBIjANBgkqhkiG9w0BAQEFAAOCAQ8AMIIBCgKCAQEA8p2K6ltHoW93
q12sbzzXvoxnzwYK3teEs8j297qxCaa7dTPinboXZDwnZ0ZrZQhpXgnUoc1+9LbY
eAGieS5caWJsF2GrrZ0DKJU81tu3mGuEasX89gOoHE0++RhbM0xtHsfmM9NVXetr
aAxwwepJxDaN61l5cgLjCNyovSguw7UaOjGpKOMMzKNJazLOWPjGFe6xVTA3X1qT
J+yYirB3Wk0vahDd6Igb+gIBv0NvL/XJlrda4Hm0EFmjeOpLclnpd8zq1kIEYuIc
k9VsR8KfdpTze2B+r2lTXpNLHihp9k7pm7J3SdWrBdqwslkJncDPgY1PHuY5n0Td
dY9jnJoQXwIDAQABo4IBPTCCATkwEwYDVR0lBAwwCgYIKwYBBQUHAwkwDQYJKwYB
BQUHMAEFBAAwHQYDVR0OBBYEFKBOJiPWXRljW5STqwzxWyqb+XuiMA4GA1UdDwEB
/wQEAwIHgDAfBgNVHSMEGDAWgBQhySXTav6kEv/m3VdXz48+coQIzTA9BgNVHR8E
NjA0MDKgMKAuhixodHRwOi8vY3JsLnBraS53ZWxsc2ZhcmdvLmNvbS93c3ByY2Ew
MUcyLmNybDB2BggrBgEFBQcBAQRqMGgwOAYIKwYBBQUHMAKGLGh0dHA6Ly9jcmwu
cGtpLndlbGxzZmFyZ28uY29tL3dzcHJjYTAxRzIuY3J0MCwGCCsGAQUFBzABhiBo
dHRwOi8vdmFsaWRhdG9yLndlbGxzZmFyZ28uY29tLzAMBgNVHRMBAf8EAjAAMA0G
CSqGSIb3DQEBCwUAA4IBAQCptK+y8mwAgxFIce2GIxRyXIlNm5WyuttRqA4Xn/8c
yil3jGS/QE8aYVrYLukh41buJQxdD2F4Um7iw6oGC0IZEWLs1peCT/wmMqlQdo6r
qYf1FoFppImiO70Y/xvPDY0+z1Jbr5HVRS0vi4UN0mtbanHMa9kFscQOKG+rZqJz
AJFBzVmR0e3upQRbdJh3fkPsFcEhs9zokH7R83VuNwddE7RUc4lqnHuS3cxUrNCw
YG1Rspcww3pXtrjID+3eHIL/NFuVu42sDYB4Ea/NYhtzsxOFYJjbBY/T1wSCb21h
21OdZQOxhUxldFmbHmzetgHxjM4v4RlQUdKCQqDO93u/
-----END CERTIFICATE-----
