Certificate:
    Data:
        Version: 3 (0x2)
        Serial Number:
            cd:7a:93:91:9e:e6:bb:86:43:ca:dc:b9:55:f6:c3:61
        Signature Algorithm: sha256WithRSAEncryption
        Issuer: C=XX, O=Some CA, CN=Fake CA for zlint testing
        Validity
            Not Before: Oct 31 09:54:11 2025 GMT
            Not After : Oct 31 09:54:11 2026 GMT
        Subject: C=XX, ST=Some State or Province, L=Somew Locality, O=Some CA, CN=Some CA - OCSP Responder
        Subject Public Key Info:
            Public Key Algorithm: rsaEncryption
                Public-Key: (2048 bit)
                Modulus:
                    00:9c:82:d6:2f:0d:ce:dc:aa:8d:49:ca:3b:2e:30:
                    9d:11:e0:ff:d4:26:4f:3f:07:3b:20:7e:1f:c5:1c:
                    80:4d:84:94:5d:1b:ea:28:4c:e2:1e:a4:e9:d4:97:
                    dd:88:88:bd:8f:cb:9e:f0:74:ee:39:13:74:62:a4:
                    26:bb:e3:bc:f0:c4:27:59:c0:0b:62:2d:7a:b6:6a:
                    88:59:ec:87:53:9e:23:1c:22:90:a5:6c:5b:3c:3e:
                    d6:4e:0b:8b:f5:6e:02:60:a4:13:8d:45:c1:cc:56:
                    ba:25:07:a2:9f:8e:23:3a:1e:88:cf:a6:6f:a3:ec:
                    15:ca:86:15:68:29:a5:70:20:66:a5:20:eb:07:84:
                    99:43:7c:4c:c0:a2:6c:6c:50:ad:37:bf:3c:1c:bc:
                    54:d5:3e:97:99:47:31:22:a2:66:90:39:e6:84:cb:
                    8a:ce:d1:5a:aa:05:93:e4:4a:67:b0:0e:29:1a:eb:
                    c8:2b:b7:dc:b9:4e:35:28:c2:f1:c9:bc:21:e6:63:
                    55:9c:40:9b:b6:56:7d:c8:b0:ab:96:ac:91:8d:c9:
                    00:85:dd:0c:8a:ee:c2:79:40:f4:5c:63:2c:fb:fc:
                    0d:10:82:59:7a:76:84:e9:0b:bd:52:86:21:18:79:
                    36:a1:63:eb:9c:04:b0:30:e9:ee:5d:67:c7:0b:cb:
                    51:8b
                Exponent: 65537 (0x10001)
        X509v3 extensions:
            X509v3 Key Usage: critical
                Digital Signature, Non Repudiation
            X509v3 Extended Key Usage: 
                OCSP Signing
            X509v3 Subject Key Identifier: 
                37:C4:6E:0E:BE:91:A9:B7:C2:93:BC:A8:5D:5F:D4:4E:A0:EC:8B:84
            X509v3 Authority Key Identifier: 
                E8:B6:F6:76:4B:D0:3B:E5:46:A5:F9:54:D4:7E:07:B3:DE:0D:60:3E
            OCSP No Check: 

    Signature Algorithm: sha256WithRSAEncryption
    Signature Value:
        0a:ce:a4:37:f4:bf:fb:d6:93:54:7b:5a:e4:b9:2a:bf:df:85:
        8e:eb:8f:1a:80:eb:47:45:6d:3c:9c:25:f6:45:84:38:4c:fd:
        37:82:83:c1:16:ab:fa:b7:28:a0:48:8a:4b:fa:4f:25:bf:e5:
        8d:22:83:38:40:86:23:c8:39:3d:95:53:88:60:dc:3a:a5:aa:
        c8:68:2f:a1:52:52:4c:3a:10:6a:13:cc:c0:1d:af:b5:8f:48:
        70:5a:af:82:db:f2:c9:53:17:4e:e6:5a:33:fd:ec:35:00:96:
        3e:b8:4a:29:d9:1d:b4:85:a7:1a:6c:30:22:5e:dc:21:58:dd:
        a2:16:0c:32:1a:fe:56:3c:04:20:e3:f3:12:f9:d7:78:09:61:
        c2:3f:0b:46:98:95:4b:aa:fb:12:6d:8a:e0:ce:cc:d0:31:76:
        19:c0:e5:3d:0b:01:79:e7:57:2a:1f:cb:79:5f:06:13:1b:f6:
        51:50:06:4a:2f:ac:1f:d9:47:16:00:9e:b1:f9:82:1a:d0:d9:
        3e:71:13:6d:18:1b:db:89:f7:fc:f2:c8:0b:05:4a:64:a3:cd:
        66:22:5c:15:19:38:4e:0b:92:4f:38:1a:cc:d2:00:6d:85:44:
        9d:f2:08:53:28:23:e4:9d:e3:2a:8e:7c:9f:88:7a:57:13:36:
        51:c2:5c:77
-----BEGIN CERTIFICATE-----
MIIDwjCCAqqgAwIBAgIRAM16k5Ge5ruGQ8rcuVX2w2EwDQYJKoZIhvcNAQELBQAw
QzELMAkGA1UEBhMCWFgxEDAOBgNVBAoTB1NvbWUgQ0ExIjAgBgNVBAMTGUZha2Ug
Q0EgZm9yIHpsaW50IHRlc3RpbmcwHhcNMjUxMDMxMDk1NDExWhcNMjYxMDMxMDk1
NDExWjB8MQswCQYDVQQGEwJYWDEfMB0GA1UECBMWU29tZSBTdGF0ZSBvciBQcm92
aW5jZTEXMBUGA1UEBxMOU29tZXcgTG9jYWxpdHkxEDAOBgNVBAoTB1NvbWUgQ0Ex
ITAfBgNVBAMTGFNvbWUgQ0EgLSBPQ1NQIFJlc3BvbmRlcjCCASIwDQYJKoZIhvcN
AQEBBQADggEPADCCAQoCggEBAJyC1i8NztyqjUnKOy4wnRHg/9QmTz8HOyB+H8Uc
gE2ElF0b6ihM4h6k6dSX3YiIvY/LnvB07jkTdGKkJrvjvPDEJ1nAC2IterZqiFns
h1OeIxwikKVsWzw+1k4Li/VuAmCkE41FwcxWuiUHop+OIzoeiM+mb6PsFcqGFWgp
pXAgZqUg6weEmUN8TMCibGxQrTe/PBy8VNU+l5lHMSKiZpA55oTLis7RWqoFk+RK
Z7AOKRrryCu33LlONSjC8cm8IeZjVZxAm7ZWfciwq5askY3JAIXdDIruwnlA9Fxj
LPv8DRCCWXp2hOkLvVKGIRh5NqFj65wEsDDp7l1nxwvLUYsCAwEAAaN4MHYwDgYD
VR0PAQH/BAQDAgbAMBMGA1UdJQQMMAoGCCsGAQUFBwMJMB0GA1UdDgQWBBQ3xG4O
vpGpt8KTvKhdX9ROoOyLhDAfBgNVHSMEGDAWgBTotvZ2S9A75Ual+VTUfgez3g1g
PjAPBgkrBgEFBQcwAQUEAgUAMA0GCSqGSIb3DQEBCwUAA4IBAQAKzqQ39L/71pNU
e1rkuSq/34WO648agOtHRW08nCX2RYQ4TP03goPBFqv6tyigSIpL+k8lv+WNIoM4
QIYjyDk9lVOIYNw6parIaC+hUlJMOhBqE8zAHa+1j0hwWq+C2/LJUxdO5loz/ew1
AJY+uEop2R20hacabDAiXtwhWN2iFgwyGv5WPAQg4/MS+dd4CWHCPwtGmJVLqvsS
bYrgzszQMXYZwOU9CwF551cqH8t5XwYTG/ZRUAZKL6wf2UcWAJ6x+YIa0Nk+cRNt
GBvbiff88sgLBUpko81mIlwVGThOC5JPOBrM0gBthUSd8ghTKCPkneMqjnyfiHpX
EzZRwlx3
-----END CERTIFICATE-----
