Certificate:
    Data:
        Version: 3 (0x2)
        Serial Number:
            95:26:bf:1e:31:c1:6f:82:5e:01:d7:f1:9d:60:27:a0
        Signature Algorithm: sha256WithRSAEncryption
        Issuer: C=XX, O=Some CA, CN=Fake CA for zlint testing
        Validity
            Not Before: Nov  2 08:35:16 2025 GMT
            Not After : Nov  2 08:35:16 2026 GMT
        Subject: C=XX, ST=Some State or Province, L=Somew Locality, O=Some CA, CN=Some CA - OCSP Responder
        Subject Public Key Info:
            Public Key Algorithm: rsaEncryption
                Public-Key: (2048 bit)
                Modulus:
                    00:d3:b9:d2:fc:86:92:d3:fd:5f:39:ce:33:2c:92:
                    8c:48:a3:b2:da:b4:6a:d8:4e:4b:c3:45:c8:44:23:
                    db:b8:ab:fa:cd:84:43:75:5a:b8:63:88:f5:fe:e4:
                    31:e4:31:4c:eb:a1:34:af:c7:ff:28:29:f1:21:9e:
                    ed:e4:13:ae:6c:76:b5:93:2a:c5:46:9d:a8:2c:e7:
                    c3:95:8b:97:05:31:c8:f1:49:cc:9e:b8:f4:d6:ea:
                    dc:cb:12:b1:44:e1:21:d3:a1:53:e6:66:b7:61:b7:
                    ae:43:c6:7d:23:58:56:a0:5d:f9:b1:2b:2b:76:1c:
                    5e:ac:df:0b:c1:a9:f5:a8:a8:8f:b6:56:13:e9:d2:
                    1c:aa:68:0b:c6:57:44:87:45:92:19:56:b6:21:d2:
                    87:4b:4c:8b:9e:f5:41:2e:5d:51:49:11:09:b3:72:
                    fb:a8:5e:fa:d4:f9:6c:a0:22:06:6e:78:60:7d:08:
                    5a:07:ac:79:be:29:c4:ab:5b:23:2c:da:57:53:c5:
                    92:95:32:0e:82:c9:a1:9f:cc:0b:73:b8:29:4b:21:
                    1a:6b:1e:12:e7:90:4d:ae:58:4a:42:16:cd:51:f9:
                    a6:c9:95:2d:63:89:37:43:ae:87:7b:fe:c9:4e:45:
                    25:f8:11:f5:c8:3a:f1:fd:5f:ac:56:c3:aa:e7:09:
                    aa:db
                Exponent: 65537 (0x10001)
        X509v3 extensions:
            X509v3 Key Usage: critical
                Digital Signature
            X509v3 Extended Key Usage: 
                OCSP Signing
            X509v3 Subject Key Identifier: 
                D7:7A:64:F3:AC:04:E0:7B:8F:14:A4:2B:ED:1E:B2:98:54:5C:8D:A2
            X509v3 Authority Key Identifier: 
                E8:B6:F6:76:4B:D0:3B:E5:46:A5:F9:54:D4:7E:07:B3:DE:0D:60:3E
            X509v3 Certificate Policies: 
                Policy: X509v3 Any Policy
            OCSP No Check: 

    Signature Algorithm: sha256WithRSAEncryption
    Signature Value:
        42:84:cf:a5:48:4c:37:f3:c6:33:73:0d:86:3a:35:b5:bb:b2:
        de:be:b5:fe:0d:12:1d:57:4e:ba:12:ec:4b:92:14:9d:48:02:
        00:13:6d:22:71:76:8c:c5:54:df:d2:4d:b8:93:3c:f8:61:51:
        92:33:72:37:49:c8:e9:a7:85:81:ed:6d:12:4b:65:bc:a9:ef:
        e2:b4:38:a0:f6:67:96:cf:9d:24:2f:3a:80:32:09:b7:92:cf:
        a4:75:33:61:f9:f2:ed:34:0e:df:69:db:04:af:38:98:cb:0e:
        e0:d5:9b:62:8e:ab:f1:1e:b1:2b:ac:f7:7b:2d:6c:1c:f1:94:
        17:65:74:74:cf:9d:f6:fc:b3:0e:21:52:89:cf:d8:2c:d9:d9:
        53:77:fc:2a:4d:0b:48:73:63:fc:49:49:c4:88:85:80:1c:81:
        1e:55:19:46:95:6f:f0:d9:0b:c7:c4:5e:65:31:bd:75:2a:ed:
        2e:c7:b1:38:00:ac:8e:05:ed:0c:fa:9a:d7:4b:74:8e:66:e6:
        9a:f2:d6:c4:21:96:b2:b4:bd:53:95:a9:82:d2:bd:73:df:cc:
        a2:b3:04:94:cb:52:57:66:9d:48:42:6c:59:86:f8:a9:e9:45:
        73:fe:82:6e:c7:2e:31:21:d3:14:d5:28:7d:19:81:4c:b1:b5:
        3a:f6:96:b2
-----BEGIN CERTIFICATE-----
MIID1zCCAr+gAwIBAgIRAJUmvx4xwW+CXgHX8Z1gJ6AwDQYJKoZIhvcNAQELBQAw
QzELMAkGA1UEBhMCWFgxEDAOBgNVBAoTB1NvbWUgQ0ExIjAgBgNVBAMTGUZha2Ug
Q0EgZm9yIHpsaW50IHRlc3RpbmcwHhcNMjUxMTAyMDgzNTE2WhcNMjYxMTAyMDgz
NTE2WjB8MQswCQYDVQQGEwJYWDEfMB0GA1UECBMWU29tZSBTdGF0ZSBvciBQcm92
aW5jZTEXMBUGA1UEBxMOU29tZXcgTG9jYWxpdHkxEDAOBgNVBAoTB1NvbWUgQ0Ex
ITAfBgNVBAMTGFNvbWUgQ0EgLSBPQ1NQIFJlc3BvbmRlcjCCASIwDQYJKoZIhvcN
AQEBBQADggEPADCCAQoCggEBANO50vyGktP9XznOMyySjEijstq0athOS8NFyEQj
27ir+s2EQ3VauGOI9f7kMeQxTOuhNK/H/ygp8SGe7eQTrmx2tZMqxUadqCznw5WL
lwUxyPFJzJ649Nbq3MsSsUThIdOhU+Zmt2G3rkPGfSNYVqBd+bErK3YcXqzfC8Gp
9aioj7ZWE+nSHKpoC8ZXRIdFkhlWtiHSh0tMi571QS5dUUkRCbNy+6he+tT5bKAi
Bm54YH0IWgeseb4pxKtbIyzaV1PFkpUyDoLJoZ/MC3O4KUshGmseEueQTa5YSkIW
zVH5psmVLWOJN0Ouh3v+yU5FJfgR9cg68f1frFbDqucJqtsCAwEAAaOBjDCBiTAO
BgNVHQ8BAf8EBAMCB4AwEwYDVR0lBAwwCgYIKwYBBQUHAwkwHQYDVR0OBBYEFNd6
ZPOsBOB7jxSkK+0esphUXI2iMB8GA1UdIwQYMBaAFOi29nZL0DvlRqX5VNR+B7Pe
DWA+MBEGA1UdIAQKMAgwBgYEVR0gADAPBgkrBgEFBQcwAQUEAgUAMA0GCSqGSIb3
DQEBCwUAA4IBAQBChM+lSEw388Yzcw2GOjW1u7LevrX+DRIdV066EuxLkhSdSAIA
E20icXaMxVTf0k24kzz4YVGSM3I3Scjpp4WB7W0SS2W8qe/itDig9meWz50kLzqA
Mgm3ks+kdTNh+fLtNA7fadsErziYyw7g1ZtijqvxHrErrPd7LWwc8ZQXZXR0z532
/LMOIVKJz9gs2dlTd/wqTQtIc2P8SUnEiIWAHIEeVRlGlW/w2QvHxF5lMb11Ku0u
x7E4AKyOBe0M+prXS3SOZuaa8tbEIZaytL1TlamC0r1z38yiswSUy1JXZp1IQmxZ
hvip6UVz/oJuxy4xIdMU1Sh9GYFMsbU69pay
-----END CERTIFICATE-----
