Certificate:
    Data:
        Version: 3 (0x2)
        Serial Number: 18008675309 (0x4316693ed)
    Signature Algorithm: sha256WithRSAEncryption
        Issuer: C = US, O = Mother Nature, OU = Everything, CN = Mother Nature
        Validity
            Not Before: Jan  1 00:00:00 2010 GMT
            Not After : Jan  1 00:00:00 2013 GMT
        Subject: C = US, O = Extreme Discord, OU = Chaos, L = Tallahassee, ST = FL, street = 3210 Holly Mill Run, postalCode = 30062, CN = gov.us
        Subject Public Key Info:
            Public Key Algorithm: rsaEncryption
                Public-Key: (512 bit)
                Modulus:
                    00:cb:a7:a4:e4:92:72:88:d6:38:93:c4:d5:8c:cd:
                    c2:fe:d1:5b:89:a0:5a:15:03:88:3c:db:db:55:a1:
                    e4:77:a6:21:96:69:c4:07:65:cc:b9:a0:cd:a4:89:
                    be:7a:e6:e6:12:b3:12:11:0b:b0:78:e4:d1:6b:f2:
                    05:97:39:17:ab
                Exponent: 65537 (0x10001)
        X509v3 extensions:
            X509v3 Key Usage: critical
                Digital Signature, Key Encipherment
            X509v3 Extended Key Usage: 
                TLS Web Client Authentication, TLS Web Server Authentication
            X509v3 Basic Constraints: critical
                CA:TRUE
            X509v3 Authority Key Identifier: 
                keyid:01:02:03

            Authority Information Access: 
                OCSP - URI:http://theca.net/ocsp
                CA Issuers - URI:http://theca.net/totallythecert.crt

            X509v3 Certificate Policies: 
                Policy: 2.23.140.1.2.2

            X509v3 Subject Key Identifier: 
                04:03:02:01
            X509v3 Subject Alternative Name: 
                DNS:*.gov.us, DNS:gov.us
    Signature Algorithm: sha256WithRSAEncryption
         70:9b:55:f4:c5:df:7a:ae:cd:76:9e:79:fb:b2:00:50:a5:34:
         68:53:2f:43:3e:3e:33:54:7d:cd:9f:48:3d:18:7d:9a:bc:ca:
         68:71:d0:2f:84:56:8e:00:41:8a:2c:90:4b:69:60:39:55:99:
         c3:85:1f:42:b9:4f:fc:90:9c:b1
-----BEGIN CERTIFICATE-----
MIIC2jCCAoSgAwIBAgIFBDFmk+0wDQYJKoZIhvcNAQELBQAwUjELMAkGA1UEBhMC
VVMxFjAUBgNVBAoTDU1vdGhlciBOYXR1cmUxEzARBgNVBAsTCkV2ZXJ5dGhpbmcx
FjAUBgNVBAMTDU1vdGhlciBOYXR1cmUwHhcNMTAwMTAxMDAwMDAwWhcNMTMwMTAx
MDAwMDAwWjCBmTELMAkGA1UEBhMCVVMxGDAWBgNVBAoTD0V4dHJlbWUgRGlzY29y
ZDEOMAwGA1UECxMFQ2hhb3MxFDASBgNVBAcTC1RhbGxhaGFzc2VlMQswCQYDVQQI
EwJGTDEcMBoGA1UECRMTMzIxMCBIb2xseSBNaWxsIFJ1bjEOMAwGA1UEERMFMzAw
NjIxDzANBgNVBAMTBmdvdi51czBcMA0GCSqGSIb3DQEBAQUAA0sAMEgCQQDLp6Tk
knKI1jiTxNWMzcL+0VuJoFoVA4g829tVoeR3piGWacQHZcy5oM2kib565uYSsxIR
C7B45NFr8gWXORerAgMBAAGjgfgwgfUwDgYDVR0PAQH/BAQDAgWgMB0GA1UdJQQW
MBQGCCsGAQUFBwMCBggrBgEFBQcDATAPBgNVHRMBAf8EBTADAQH/MA4GA1UdIwQH
MAWAAwECAzBiBggrBgEFBQcBAQRWMFQwIQYIKwYBBQUHMAGGFWh0dHA6Ly90aGVj
YS5uZXQvb2NzcDAvBggrBgEFBQcwAoYjaHR0cDovL3RoZWNhLm5ldC90b3RhbGx5
dGhlY2VydC5jcnQwEwYDVR0gBAwwCjAIBgZngQwBAgIwDQYDVR0OBAYEBAQDAgEw
GwYDVR0RBBQwEoIIKi5nb3YudXOCBmdvdi51czANBgkqhkiG9w0BAQsFAANBAHCb
VfTF33quzXaeefuyAFClNGhTL0M+PjNUfc2fSD0YfZq8ymhx0C+EVo4AQYoskEtp
YDlVmcOFH0K5T/yQnLE=
-----END CERTIFICATE-----
