Certificate:
    Data:
        Version: 3 (0x2)
        Serial Number: 1337 (0x539)
        Signature Algorithm: sha256WithRSAEncryption
        Issuer: CN = Zmap Onion CA
        Validity
            Not Before: Mar  2 21:08:01 2019 GMT
            Not After : Mar  2 21:08:01 2020 GMT
        Subject: CN = zmap.io
        Subject Public Key Info:
            Public Key Algorithm: rsaEncryption
                RSA Public-Key: (512 bit)
                Modulus:
                    00:d6:ef:37:e0:b6:cd:df:31:08:70:4f:bc:ea:d8:
                    f5:b3:55:4b:d7:69:ce:9a:41:f7:57:01:6c:3b:62:
                    70:10:c6:75:43:eb:e1:ec:9d:20:34:2b:a0:de:1f:
                    c6:23:cc:d2:36:f4:36:99:03:c3:29:0a:06:27:bb:
                    26:13:ef:fc:0d
                Exponent: 65537 (0x10001)
        X509v3 extensions:
            X509v3 Extended Key Usage: 
                TLS Web Server Authentication, TLS Web Client Authentication
            X509v3 Basic Constraints: critical
                CA:FALSE
            X509v3 Subject Alternative Name: 
                DNS:zmap.io, DNS:zmap.onion
            2.23.140.1.31: 
                0..0D..https://zmap.onion0...`.H.e.....!..I..I..e\..?.>.{{}.G*.bx0q.9.f8\0E..https://other.onion0...`.H.e.....!..I..I..e\..?.>.{{}.G*.bx0q.9.f8\
    Signature Algorithm: sha256WithRSAEncryption
         4c:aa:c0:d1:17:1d:4d:6f:01:1e:88:4a:2d:c0:77:67:1a:24:
         af:b0:2a:bd:6c:24:df:cc:b9:2c:25:ad:0f:e4:0b:02:49:c6:
         da:ba:13:ea:c8:15:ff:99:e9:78:23:9a:5b:88:04:81:43:dc:
         d0:9c:58:60:30:f6:8a:13:99:c2
-----BEGIN CERTIFICATE-----
MIICCjCCAbSgAwIBAgICBTkwDQYJKoZIhvcNAQELBQAwGDEWMBQGA1UEAxMNWm1h
cCBPbmlvbiBDQTAeFw0xOTAzMDIyMTA4MDFaFw0yMDAzMDIyMTA4MDFaMBIxEDAO
BgNVBAMTB3ptYXAuaW8wXDANBgkqhkiG9w0BAQEFAANLADBIAkEA1u834LbN3zEI
cE+86tj1s1VL12nOmkH3VwFsO2JwEMZ1Q+vh7J0gNCug3h/GI8zSNvQ2mQPDKQoG
J7smE+/8DQIDAQABo4HtMIHqMB0GA1UdJQQWMBQGCCsGAQUFBwMBBggrBgEFBQcD
AjAMBgNVHRMBAf8EAjAAMB4GA1UdEQQXMBWCB3ptYXAuaW+CCnptYXAub25pb24w
gZoGBWeBDAEfBIGQMIGNMEQMEmh0dHBzOi8vem1hcC5vbmlvbjALBglghkgBZQME
AgEDIQDHSfWySZyPZVwZsz/5PgN7e32+RyqsYngwcbA5uGY4XDBFDBNodHRwczov
L290aGVyLm9uaW9uMAsGCWCGSAFlAwQCAQMhAMdJ9bJJnI9lXBmzP/k+A3t7fb5H
KqxieDBxsDm4ZjhcMA0GCSqGSIb3DQEBCwUAA0EATKrA0RcdTW8BHohKLcB3Zxok
r7AqvWwk38y5LCWtD+QLAknG2roT6sgV/5npeCOaW4gEgUPc0JxYYDD2ihOZwg==
-----END CERTIFICATE-----
