Certificate:
    Data:
        Version: 3 (0x2)
        Serial Number: 3 (0x3)
        Signature Algorithm: ecdsa-with-SHA256
        Issuer: 
        Validity
            Not Before: Jun  2 15:17:12 2017 GMT
            Not After : Mar  2 15:17:12 2018 GMT
        Subject: CN = 1234567890abcdef.onion
        Subject Public Key Info:
            Public Key Algorithm: rsaEncryption
                RSA Public-Key: (1024 bit)
                Modulus:
                    00:dc:c6:fd:da:ed:19:03:e5:6e:36:13:c6:39:bf:
                    85:5a:d8:c0:34:d9:67:36:32:20:78:03:01:73:6b:
                    e6:40:da:25:8e:ae:2c:29:81:7a:77:d8:22:16:9c:
                    a0:8c:47:e9:67:45:5c:95:42:d1:8c:1c:cc:87:31:
                    7c:43:09:75:f8:9e:96:dc:e7:5e:44:29:4c:6d:28:
                    5c:96:75:aa:b0:98:07:a9:53:9f:dd:d1:a4:68:af:
                    ba:08:a2:23:f1:0d:c5:1f:c0:09:62:5a:9b:c6:ef:
                    43:b0:65:6f:8c:2a:75:e6:66:61:93:2a:29:04:a3:
                    c3:9d:f8:63:d1:a8:8e:3f:1f
                Exponent: 65537 (0x10001)
        X509v3 extensions:
            X509v3 Subject Alternative Name: 
                DNS:zmap.io, DNS:1234567890abcdef.onion
            X509v3 Certificate Policies: 
                Policy: 1.3.6.1.4.1.36305.2

    Signature Algorithm: ecdsa-with-SHA256
         30:46:02:21:00:cf:c2:4e:83:97:c7:6c:52:c6:e8:1f:8f:e9:
         36:8b:88:d5:17:d6:b4:87:b0:fc:2b:fa:20:da:7e:69:ca:7d:
         d5:02:21:00:dc:42:e9:fb:d1:f6:2e:31:c1:a8:23:3b:3b:02:
         77:40:2d:d4:27:b8:22:15:bb:19:7b:e9:ab:19:29:6d:a0:9a
-----BEGIN CERTIFICATE-----
MIIBnjCCAUOgAwIBAgIBAzAKBggqhkjOPQQDAjAAMB4XDTE3MDYwMjE1MTcxMloX
DTE4MDMwMjE1MTcxMlowITEfMB0GA1UEAxMWMTIzNDU2Nzg5MGFiY2RlZi5vbmlv
bjCBnzANBgkqhkiG9w0BAQEFAAOBjQAwgYkCgYEA3Mb92u0ZA+VuNhPGOb+FWtjA
NNlnNjIgeAMBc2vmQNoljq4sKYF6d9giFpygjEfpZ0VclULRjBzMhzF8Qwl1+J6W
3OdeRClMbShclnWqsJgHqVOf3dGkaK+6CKIj8Q3FH8AJYlqbxu9DsGVvjCp15mZh
kyopBKPDnfhj0aiOPx8CAwEAAaNGMEQwKgYDVR0RBCMwIYIHem1hcC5pb4IWMTIz
NDU2Nzg5MGFiY2RlZi5vbmlvbjAWBgNVHSAEDzANMAsGCSsGAQQBgptRAjAKBggq
hkjOPQQDAgNJADBGAiEAz8JOg5fHbFLG6B+P6TaLiNUX1rSHsPwr+iDafmnKfdUC
IQDcQun70fYuMcGoIzs7AndALdQnuCIVuxl76asZKW2gmg==
-----END CERTIFICATE-----
