Certificate:
    Data:
        Version: 3 (0x2)
        Serial Number: 1337 (0x539)
        Signature Algorithm: sha256WithRSAEncryption
        Issuer: CN = Zmap Onion CA
        Validity
            Not Before: Mar  2 20:51:53 2019 GMT
            Not After : Mar  2 20:51:53 2020 GMT
        Subject: CN = zmap.io
        Subject Public Key Info:
            Public Key Algorithm: rsaEncryption
                RSA Public-Key: (512 bit)
                Modulus:
                    00:f4:b4:81:a4:24:7f:65:2f:40:7d:bf:74:27:03:
                    61:d1:af:a1:df:65:4c:da:3d:38:7e:61:f4:4b:78:
                    fa:59:d4:09:fa:27:0d:e8:74:4e:ee:13:56:79:9b:
                    0c:d0:18:79:3f:3f:d5:14:4c:dd:e5:17:1e:01:de:
                    9a:5c:f3:e8:45
                Exponent: 65537 (0x10001)
        X509v3 extensions:
            X509v3 Extended Key Usage: 
                TLS Web Server Authentication, TLS Web Client Authentication
            X509v3 Basic Constraints: critical
                CA:FALSE
            X509v3 Subject Alternative Name: 
                DNS:zmap.io, DNS:zmap.onion
            2.23.140.1.31: 
                0604..https://zmap.onion0...`.H.e........I..I..e\..?.>.{
    Signature Algorithm: sha256WithRSAEncryption
         d1:c4:56:81:b8:3c:14:c8:f9:26:f4:0e:1f:dc:cb:8d:4f:b9:
         15:b9:58:36:f7:23:38:25:3b:40:78:5b:2a:0b:84:1f:80:d6:
         d1:6b:d7:0f:40:71:54:fb:44:bd:1f:64:0c:77:17:3b:54:19:
         b6:42:44:22:e2:9b:33:7f:91:d9
-----BEGIN CERTIFICATE-----
MIIBsDCCAVqgAwIBAgICBTkwDQYJKoZIhvcNAQELBQAwGDEWMBQGA1UEAxMNWm1h
cCBPbmlvbiBDQTAeFw0xOTAzMDIyMDUxNTNaFw0yMDAzMDIyMDUxNTNaMBIxEDAO
BgNVBAMTB3ptYXAuaW8wXDANBgkqhkiG9w0BAQEFAANLADBIAkEA9LSBpCR/ZS9A
fb90JwNh0a+h32VM2j04fmH0S3j6WdQJ+icN6HRO7hNWeZsM0Bh5Pz/VFEzd5Rce
Ad6aXPPoRQIDAQABo4GTMIGQMB0GA1UdJQQWMBQGCCsGAQUFBwMBBggrBgEFBQcD
AjAMBgNVHRMBAf8EAjAAMB4GA1UdEQQXMBWCB3ptYXAuaW+CCnptYXAub25pb24w
QQYFZ4EMAR8EODA2MDQMEmh0dHBzOi8vem1hcC5vbmlvbjALBglghkgBZQMEAgED
EQDHSfWySZyPZVwZsz/5PgN7MA0GCSqGSIb3DQEBCwUAA0EA0cRWgbg8FMj5JvQO
H9zLjU+5FblYNvcjOCU7QHhbKguEH4DW0WvXD0BxVPtEvR9kDHcXO1QZtkJEIuKb
M3+R2Q==
-----END CERTIFICATE-----
