Certificate:
    Data:
        Version: 3 (0x2)
        Serial Number: 1337 (0x539)
        Signature Algorithm: sha256WithRSAEncryption
        Issuer: CN = Zmap Onion CA
        Validity
            Not Before: Mar  2 21:24:22 2009 GMT
            Not After : Jul  2 20:24:22 2020 GMT
        Subject: CN = zmap.io
        Subject Public Key Info:
            Public Key Algorithm: rsaEncryption
                RSA Public-Key: (512 bit)
                Modulus:
                    00:b2:a9:0c:43:93:2d:84:49:21:ea:ec:48:1c:6e:
                    a4:d8:14:ce:9a:b0:68:29:83:72:b7:3a:5d:c0:9b:
                    04:12:24:88:90:46:7c:a9:0d:e7:26:54:64:2c:0d:
                    0d:1f:0f:34:df:98:d5:6c:98:bb:6f:b3:6d:47:a2:
                    02:7f:9c:09:87
                Exponent: 65537 (0x10001)
        X509v3 extensions:
            X509v3 Extended Key Usage: 
                TLS Web Server Authentication, TLS Web Client Authentication
            X509v3 Basic Constraints: critical
                CA:FALSE
            X509v3 Subject Alternative Name: 
                DNS:zmap.io, DNS:zmap.onion
            2.23.140.1.31: 
                0F0D..https://zmap.onion0...`.H.e.....!..I..I..e\..?.>.{{}.G*.bx0q.9.f8\
    Signature Algorithm: sha256WithRSAEncryption
         20:47:0f:ce:fd:0b:5d:7b:f0:63:e9:f0:ca:b5:e1:72:64:de:
         14:f0:f0:40:e9:49:67:79:c6:72:23:c6:a4:42:e1:6d:d1:63:
         4e:a4:03:d3:13:bc:52:1b:4f:aa:42:e0:7c:70:35:d5:7b:2c:
         1a:14:80:e4:6c:50:64:a2:f2:4d
-----BEGIN CERTIFICATE-----
MIIBwDCCAWqgAwIBAgICBTkwDQYJKoZIhvcNAQELBQAwGDEWMBQGA1UEAxMNWm1h
cCBPbmlvbiBDQTAeFw0wOTAzMDIyMTI0MjJaFw0yMDA3MDIyMDI0MjJaMBIxEDAO
BgNVBAMTB3ptYXAuaW8wXDANBgkqhkiG9w0BAQEFAANLADBIAkEAsqkMQ5MthEkh
6uxIHG6k2BTOmrBoKYNytzpdwJsEEiSIkEZ8qQ3nJlRkLA0NHw8035jVbJi7b7Nt
R6ICf5wJhwIDAQABo4GjMIGgMB0GA1UdJQQWMBQGCCsGAQUFBwMBBggrBgEFBQcD
AjAMBgNVHRMBAf8EAjAAMB4GA1UdEQQXMBWCB3ptYXAuaW+CCnptYXAub25pb24w
UQYFZ4EMAR8ESDBGMEQMEmh0dHBzOi8vem1hcC5vbmlvbjALBglghkgBZQMEAgED
IQDHSfWySZyPZVwZsz/5PgN7e32+RyqsYngwcbA5uGY4XDANBgkqhkiG9w0BAQsF
AANBACBHD879C1178GPp8Mq14XJk3hTw8EDpSWd5xnIjxqRC4W3RY06kA9MTvFIb
T6pC4HxwNdV7LBoUgORsUGSi8k0=
-----END CERTIFICATE-----
