Certificate:
    Data:
        Version: 3 (0x2)
        Serial Number: 1337 (0x539)
        Signature Algorithm: sha256WithRSAEncryption
        Issuer: CN = Zmap Onion CA
        Validity
            Not Before: Mar  2 15:17:12 2019 GMT
            Not After : Mar  2 15:17:12 2020 GMT
        Subject: CN = zmap.io
        Subject Public Key Info:
            Public Key Algorithm: rsaEncryption
                RSA Public-Key: (512 bit)
                Modulus:
                    00:e7:b5:d2:75:b1:04:c6:24:e7:b2:1f:b1:22:2b:
                    30:35:e9:ae:d8:b4:40:a2:34:19:01:80:a4:2e:a8:
                    0a:de:43:49:3d:70:a2:22:0a:a8:51:bd:9b:13:fb:
                    6e:cc:60:65:88:32:fc:33:21:06:4d:a3:27:fe:b0:
                    75:80:cc:d4:df
                Exponent: 65537 (0x10001)
        X509v3 extensions:
            X509v3 Extended Key Usage: 
                TLS Web Server Authentication, TLS Web Client Authentication
            X509v3 Basic Constraints: critical
                CA:FALSE
            X509v3 Subject Alternative Name: 
                DNS:zmap.io, DNS:zmap.onion
            X509v3 Certificate Policies: 
                Policy: 1.3.6.1.4.1.36305.2

    Signature Algorithm: sha256WithRSAEncryption
         4a:8a:2f:03:b5:b0:c1:fa:ea:7f:64:2b:c2:2e:50:2e:ce:11:
         e4:a7:6f:90:0b:da:4d:82:cb:6c:8b:1d:1f:f2:b4:0d:f9:c7:
         bc:3f:19:ac:59:be:89:38:58:0d:56:9b:a1:ad:a7:57:00:1f:
         7b:38:13:ff:a2:13:3a:47:3e:63
-----BEGIN CERTIFICATE-----
MIIBgzCCAS2gAwIBAgICBTkwDQYJKoZIhvcNAQELBQAwGDEWMBQGA1UEAxMNWm1h
cCBPbmlvbiBDQTAeFw0xOTAzMDIxNTE3MTJaFw0yMDAzMDIxNTE3MTJaMBIxEDAO
BgNVBAMTB3ptYXAuaW8wXDANBgkqhkiG9w0BAQEFAANLADBIAkEA57XSdbEExiTn
sh+xIiswNemu2LRAojQZAYCkLqgK3kNJPXCiIgqoUb2bE/tuzGBliDL8MyEGTaMn
/rB1gMzU3wIDAQABo2cwZTAdBgNVHSUEFjAUBggrBgEFBQcDAQYIKwYBBQUHAwIw
DAYDVR0TAQH/BAIwADAeBgNVHREEFzAVggd6bWFwLmlvggp6bWFwLm9uaW9uMBYG
A1UdIAQPMA0wCwYJKwYBBAGCm1ECMA0GCSqGSIb3DQEBCwUAA0EASoovA7Wwwfrq
f2Qrwi5QLs4R5KdvkAvaTYLLbIsdH/K0DfnHvD8ZrFm+iThYDVaboa2nVwAfezgT
/6ITOkc+Yw==
-----END CERTIFICATE-----
