Certificate:
    Data:
        Version: 3 (0x2)
        Serial Number: 2050924719016116738 (0x1c76592a6a060202)
        Signature Algorithm: sha256WithRSAEncryption
        Issuer: CN = zlint test 6fb5f7
        Validity
            Not Before: Mar 28 00:00:00 2020 GMT
            Not After : Mar 28 00:00:00 2021 GMT
        Subject: CN = example.test
        Subject Public Key Info:
            Public Key Algorithm: rsaEncryption
                RSA Public-Key: (2048 bit)
                Modulus:
                    00:d3:cf:55:71:96:a8:51:60:82:3d:12:84:61:82:
                    01:67:64:d8:38:07:b7:93:7b:d1:40:c3:67:cd:dd:
                    b0:bc:84:67:38:65:5c:69:91:33:30:84:6c:38:ae:
                    65:c5:5f:02:39:7a:38:f1:55:9d:79:57:b8:75:47:
                    07:55:63:9e:ff:21:a7:56:8b:be:9c:99:88:86:f9:
                    36:64:2b:ac:a1:d8:7c:31:ad:c5:59:1e:c1:b3:06:
                    53:d5:77:27:39:d6:68:a3:c6:5c:65:c3:d8:90:2d:
                    2b:bd:9d:c4:39:9c:3f:53:53:af:1b:9c:6b:0f:3e:
                    04:96:dd:40:7a:21:29:eb:76:e8:2c:95:7b:73:da:
                    65:d0:cc:a4:51:cc:f7:6d:4c:d7:8c:e6:d8:bf:20:
                    d9:01:a6:a4:b3:35:60:ac:c2:04:d4:02:d7:1c:8d:
                    71:62:76:a5:10:4c:36:bf:16:c2:be:1d:71:45:95:
                    66:17:32:d0:06:94:67:36:90:db:20:53:36:c4:55:
                    5c:bb:cb:9c:68:29:43:b6:76:11:da:6e:c2:6c:da:
                    ae:1c:57:c6:13:a9:2e:c0:cb:8d:de:2f:19:24:79:
                    d8:28:83:27:5d:29:e9:4a:f7:3b:04:5a:6c:db:c9:
                    bb:00:e1:30:e0:8e:a1:cf:92:1c:87:77:ab:82:29:
                    66:f1
                Exponent: 65537 (0x10001)
        X509v3 extensions:
            X509v3 Key Usage: critical
                Digital Signature, Key Encipherment
            X509v3 Extended Key Usage: 
                TLS Web Server Authentication, TLS Web Client Authentication
            X509v3 Basic Constraints: critical
                CA:FALSE
            X509v3 Subject Alternative Name: 
                DNS:l5satjgud6gucryazcyvyvhuxhr74u6ygigiuyixe3a6ysis67ororad.onion, DNS:example.test
    Signature Algorithm: sha256WithRSAEncryption
         aa:ea:24:45:7a:f2:84:6f:bd:0f:43:63:0d:d0:6f:56:cb:43:
         1a:81:b3:38:fa:79:28:f7:16:1b:a7:6a:79:6d:05:98:46:3f:
         27:fa:21:8a:0d:2d:8c:43:ba:6c:e9:4f:7a:60:fd:fa:9d:e7:
         cf:f4:63:e6:ce:25:76:64:59:d8:49:29:50:d1:88:90:fb:3d:
         06:77:de:4c:25:e5:3a:87:ff:1e:80:c6:18:11:ca:69:c5:6b:
         eb:d4:e7:a7:76:ca:45:5c:77:ec:46:ea:c9:55:6f:4b:69:cb:
         71:9d:90:24:c7:3f:42:13:97:54:5e:ef:aa:d6:87:89:97:1b:
         6e:cb:c3:53:61:b0:1c:1b:5e:7c:82:5f:2f:bc:d5:4b:b5:a9:
         5b:db:36:05:99:7a:26:2b:7d:88:12:a1:6a:29:28:84:86:62:
         df:dd:92:eb:eb:5e:28:a1:47:8a:a2:f1:8e:a4:50:20:d4:21:
         81:e1:93:e1:b4:7a:2c:0f:96:ac:d8:07:d8:cc:39:c9:93:11:
         7f:95:c5:9a:91:b8:09:cb:06:7f:2d:24:6f:53:14:43:68:d8:
         3b:4d:31:2f:68:cd:8a:34:12:6d:d5:57:02:61:e4:4b:72:31:
         d1:2c:f1:3c:db:85:4e:6b:f6:32:8c:88:1a:22:a0:b2:11:0e:
         25:4d:be:7e
-----BEGIN CERTIFICATE-----
MIIDTzCCAjegAwIBAgIIHHZZKmoGAgIwDQYJKoZIhvcNAQELBQAwHDEaMBgGA1UE
AxMRemxpbnQgdGVzdCA2ZmI1ZjcwHhcNMjAwMzI4MDAwMDAwWhcNMjEwMzI4MDAw
MDAwWjAXMRUwEwYDVQQDEwxleGFtcGxlLnRlc3QwggEiMA0GCSqGSIb3DQEBAQUA
A4IBDwAwggEKAoIBAQDTz1VxlqhRYII9EoRhggFnZNg4B7eTe9FAw2fN3bC8hGc4
ZVxpkTMwhGw4rmXFXwI5ejjxVZ15V7h1RwdVY57/IadWi76cmYiG+TZkK6yh2Hwx
rcVZHsGzBlPVdyc51mijxlxlw9iQLSu9ncQ5nD9TU68bnGsPPgSW3UB6ISnrdugs
lXtz2mXQzKRRzPdtTNeM5ti/INkBpqSzNWCswgTUAtccjXFidqUQTDa/FsK+HXFF
lWYXMtAGlGc2kNsgUzbEVVy7y5xoKUO2dhHabsJs2q4cV8YTqS7Ay43eLxkkedgo
gyddKelK9zsEWmzbybsA4TDgjqHPkhyHd6uCKWbxAgMBAAGjgZkwgZYwDgYDVR0P
AQH/BAQDAgWgMB0GA1UdJQQWMBQGCCsGAQUFBwMBBggrBgEFBQcDAjAMBgNVHRMB
Af8EAjAAMFcGA1UdEQRQME6CPmw1c2F0amd1ZDZndWNyeWF6Y3l2eXZodXhocjc0
dTZ5Z2lnaXV5aXhlM2E2eXNpczY3b3JvcmFkLm9uaW9uggxleGFtcGxlLnRlc3Qw
DQYJKoZIhvcNAQELBQADggEBAKrqJEV68oRvvQ9DYw3Qb1bLQxqBszj6eSj3Fhun
anltBZhGPyf6IYoNLYxDumzpT3pg/fqd58/0Y+bOJXZkWdhJKVDRiJD7PQZ33kwl
5TqH/x6AxhgRymnFa+vU56d2ykVcd+xG6slVb0tpy3GdkCTHP0ITl1Re76rWh4mX
G27Lw1NhsBwbXnyCXy+81Uu1qVvbNgWZeiYrfYgSoWopKISGYt/dkuvrXiihR4qi
8Y6kUCDUIYHhk+G0eiwPlqzYB9jMOcmTEX+VxZqRuAnLBn8tJG9TFENo2DtNMS9o
zYo0Em3VVwJh5EtyMdEs8TzbhU5r9jKMiBoioLIRDiVNvn4=
-----END CERTIFICATE-----
