Certificate:
    Data:
        Version: 3 (0x2)
        Serial Number: 1337 (0x539)
        Signature Algorithm: sha256WithRSAEncryption
        Issuer: CN = Zmap Onion CA
        Validity
            Not Before: Mar  2 21:00:46 2019 GMT
            Not After : Mar  2 21:00:46 2020 GMT
        Subject: CN = zmap.io
        Subject Public Key Info:
            Public Key Algorithm: rsaEncryption
                RSA Public-Key: (512 bit)
                Modulus:
                    00:ab:72:43:90:82:b9:31:b2:c5:b2:43:62:17:2f:
                    42:65:3f:a3:e8:7b:e8:03:a5:95:54:61:e4:d1:cd:
                    87:64:28:53:a9:d5:ff:42:98:05:b6:74:4c:46:aa:
                    af:98:78:71:ea:63:2b:6e:7e:96:36:14:5e:19:64:
                    21:b2:d8:3c:07
                Exponent: 65537 (0x10001)
        X509v3 extensions:
            X509v3 Extended Key Usage: 
                TLS Web Server Authentication, TLS Web Client Authentication
            X509v3 Basic Constraints: critical
                CA:FALSE
            X509v3 Subject Alternative Name: 
                DNS:zmap.io, DNS:zmap.onion
            2.23.140.1.31: 
                0}0D..https://zmap.onion0...`.H.e.....!..I..I..e\..?.>.{{}.G*.bx0q.9.f8\05.....0...`.H.e.....!..I..I..e\..?.>.{{}.G*.bx0q.9.f8\
    Signature Algorithm: sha256WithRSAEncryption
         a8:87:aa:86:97:8d:a0:03:52:f9:74:dd:0c:50:35:3f:74:d3:
         3c:32:94:58:ee:17:d5:41:fd:03:70:6b:4f:30:5a:d5:80:76:
         7d:fe:e4:b6:5f:3c:05:ac:45:63:f3:20:34:95:fa:17:50:2b:
         c7:82:12:66:3a:8c:17:9c:ff:ce
-----BEGIN CERTIFICATE-----
MIIB+DCCAaKgAwIBAgICBTkwDQYJKoZIhvcNAQELBQAwGDEWMBQGA1UEAxMNWm1h
cCBPbmlvbiBDQTAeFw0xOTAzMDIyMTAwNDZaFw0yMDAzMDIyMTAwNDZaMBIxEDAO
BgNVBAMTB3ptYXAuaW8wXDANBgkqhkiG9w0BAQEFAANLADBIAkEAq3JDkIK5MbLF
skNiFy9CZT+j6HvoA6WVVGHk0c2HZChTqdX/QpgFtnRMRqqvmHhx6mMrbn6WNhRe
GWQhstg8BwIDAQABo4HbMIHYMB0GA1UdJQQWMBQGCCsGAQUFBwMBBggrBgEFBQcD
AjAMBgNVHRMBAf8EAjAAMB4GA1UdEQQXMBWCB3ptYXAuaW+CCnptYXAub25pb24w
gYgGBWeBDAEfBH8wfTBEDBJodHRwczovL3ptYXAub25pb24wCwYJYIZIAWUDBAIB
AyEAx0n1skmcj2VcGbM/+T4De3t9vkcqrGJ4MHGwObhmOFwwNQwD//79MAsGCWCG
SAFlAwQCAQMhAMdJ9bJJnI9lXBmzP/k+A3t7fb5HKqxieDBxsDm4ZjhcMA0GCSqG
SIb3DQEBCwUAA0EAqIeqhpeNoANS+XTdDFA1P3TTPDKUWO4X1UH9A3BrTzBa1YB2
ff7ktl88BaxFY/MgNJX6F1Arx4ISZjqMF5z/zg==
-----END CERTIFICATE-----
