Certificate:
    Data:
        Version: 3 (0x2)
        Serial Number: 2050924719016117252 (0x1c76592a6a060404)
        Signature Algorithm: sha256WithRSAEncryption
        Issuer: CN = zlint test 6fb5e2
        Validity
            Not Before: Mar 28 00:00:00 2020 GMT
            Not After : Mar 28 00:00:00 2021 GMT
        Subject: CN = example.test
        Subject Public Key Info:
            Public Key Algorithm: rsaEncryption
                RSA Public-Key: (2048 bit)
                Modulus:
                    00:d3:cf:55:71:96:a8:51:60:82:3d:12:84:61:82:
                    01:67:64:d8:38:07:b7:93:7b:d1:40:c3:67:cd:dd:
                    b0:bc:84:67:38:65:5c:69:91:33:30:84:6c:38:ae:
                    65:c5:5f:02:39:7a:38:f1:55:9d:79:57:b8:75:47:
                    07:55:63:9e:ff:21:a7:56:8b:be:9c:99:88:86:f9:
                    36:64:2b:ac:a1:d8:7c:31:ad:c5:59:1e:c1:b3:06:
                    53:d5:77:27:39:d6:68:a3:c6:5c:65:c3:d8:90:2d:
                    2b:bd:9d:c4:39:9c:3f:53:53:af:1b:9c:6b:0f:3e:
                    04:96:dd:40:7a:21:29:eb:76:e8:2c:95:7b:73:da:
                    65:d0:cc:a4:51:cc:f7:6d:4c:d7:8c:e6:d8:bf:20:
                    d9:01:a6:a4:b3:35:60:ac:c2:04:d4:02:d7:1c:8d:
                    71:62:76:a5:10:4c:36:bf:16:c2:be:1d:71:45:95:
                    66:17:32:d0:06:94:67:36:90:db:20:53:36:c4:55:
                    5c:bb:cb:9c:68:29:43:b6:76:11:da:6e:c2:6c:da:
                    ae:1c:57:c6:13:a9:2e:c0:cb:8d:de:2f:19:24:79:
                    d8:28:83:27:5d:29:e9:4a:f7:3b:04:5a:6c:db:c9:
                    bb:00:e1:30:e0:8e:a1:cf:92:1c:87:77:ab:82:29:
                    66:f1
                Exponent: 65537 (0x10001)
        X509v3 extensions:
            X509v3 Key Usage: critical
                Digital Signature, Key Encipherment
            X509v3 Extended Key Usage: 
                TLS Web Server Authentication, TLS Web Client Authentication
            X509v3 Basic Constraints: critical
                CA:FALSE
            X509v3 Subject Alternative Name: 
                DNS:v2cbb2l4lsnpio4q.onion, DNS:example.test
            X509v3 Certificate Policies: 
                Policy: 1.3.6.1.4.1.36305.2

    Signature Algorithm: sha256WithRSAEncryption
         11:33:f2:c1:fc:a3:10:23:bd:36:d7:f0:74:44:b3:1c:3e:9c:
         c3:c2:e8:c7:58:12:18:e8:e1:a0:5f:78:45:0e:9e:e5:b9:6b:
         4f:31:05:f3:2d:d6:f9:77:a0:b7:e4:81:5d:24:45:81:e8:00:
         28:0f:b9:6c:0f:b0:43:eb:8d:c4
-----BEGIN CERTIFICATE-----
MIICfTCCAiegAwIBAgIIHHZZKmoGBAQwDQYJKoZIhvcNAQELBQAwHDEaMBgGA1UE
AxMRemxpbnQgdGVzdCA2ZmI1ZTIwHhcNMjAwMzI4MDAwMDAwWhcNMjEwMzI4MDAw
MDAwWjAXMRUwEwYDVQQDEwxleGFtcGxlLnRlc3QwggEiMA0GCSqGSIb3DQEBAQUA
A4IBDwAwggEKAoIBAQDTz1VxlqhRYII9EoRhggFnZNg4B7eTe9FAw2fN3bC8hGc4
ZVxpkTMwhGw4rmXFXwI5ejjxVZ15V7h1RwdVY57/IadWi76cmYiG+TZkK6yh2Hwx
rcVZHsGzBlPVdyc51mijxlxlw9iQLSu9ncQ5nD9TU68bnGsPPgSW3UB6ISnrdugs
lXtz2mXQzKRRzPdtTNeM5ti/INkBpqSzNWCswgTUAtccjXFidqUQTDa/FsK+HXFF
lWYXMtAGlGc2kNsgUzbEVVy7y5xoKUO2dhHabsJs2q4cV8YTqS7Ay43eLxkkedgo
gyddKelK9zsEWmzbybsA4TDgjqHPkhyHd6uCKWbxAgMBAAGjgYkwgYYwDgYDVR0P
AQH/BAQDAgWgMB0GA1UdJQQWMBQGCCsGAQUFBwMBBggrBgEFBQcDAjAMBgNVHRMB
Af8EAjAAMC8GA1UdEQQoMCaCFnYyY2JiMmw0bHNucGlvNHEub25pb26CDGV4YW1w
bGUudGVzdDAWBgNVHSAEDzANMAsGCSsGAQQBgptRAjANBgkqhkiG9w0BAQsFAANB
ABEz8sH8oxAjvTbX8HREsxw+nMPC6MdYEhjo4aBfeEUOnuW5a08xBfMt1vl3oLfk
gV0kRYHoACgPuWwPsEPrjcQ=
-----END CERTIFICATE-----
