Certificate:
    Data:
        Version: 3 (0x2)
        Serial Number: 3 (0x3)
        Signature Algorithm: ecdsa-with-SHA256
        Issuer: 
        Validity
            Not Before: Mar  2 15:17:12 2017 GMT
            Not After : Mar  2 15:17:12 2018 GMT
        Subject: CN = OF3WK4TUPF2WS33Q.onion
        Subject Public Key Info:
            Public Key Algorithm: rsaEncryption
                RSA Public-Key: (1024 bit)
                Modulus:
                    00:dc:c6:fd:da:ed:19:03:e5:6e:36:13:c6:39:bf:
                    85:5a:d8:c0:34:d9:67:36:32:20:78:03:01:73:6b:
                    e6:40:da:25:8e:ae:2c:29:81:7a:77:d8:22:16:9c:
                    a0:8c:47:e9:67:45:5c:95:42:d1:8c:1c:cc:87:31:
                    7c:43:09:75:f8:9e:96:dc:e7:5e:44:29:4c:6d:28:
                    5c:96:75:aa:b0:98:07:a9:53:9f:dd:d1:a4:68:af:
                    ba:08:a2:23:f1:0d:c5:1f:c0:09:62:5a:9b:c6:ef:
                    43:b0:65:6f:8c:2a:75:e6:66:61:93:2a:29:04:a3:
                    c3:9d:f8:63:d1:a8:8e:3f:1f
                Exponent: 65537 (0x10001)
        X509v3 extensions:
            X509v3 Subject Alternative Name: 
                DNS:zmap.io, DNS:OF3WK4TUPF2WS33Q.onion
            X509v3 Certificate Policies: 
                Policy: 1.3.6.1.4.1.36305.2

    Signature Algorithm: ecdsa-with-SHA256
         30:45:02:21:00:d9:fd:85:2f:46:93:9e:18:f3:81:5e:f0:6f:
         f1:27:6b:74:ca:8e:c9:32:4d:f0:9a:17:ae:53:95:85:c7:be:
         ea:02:20:17:a1:43:43:09:ec:69:ab:9b:00:d1:97:95:77:ae:
         49:a7:34:7e:fe:59:a1:5e:71:90:ac:cb:a5:40:1c:41:96
-----BEGIN CERTIFICATE-----
MIIBnTCCAUOgAwIBAgIBAzAKBggqhkjOPQQDAjAAMB4XDTE3MDMwMjE1MTcxMloX
DTE4MDMwMjE1MTcxMlowITEfMB0GA1UEAxMWT0YzV0s0VFVQRjJXUzMzUS5vbmlv
bjCBnzANBgkqhkiG9w0BAQEFAAOBjQAwgYkCgYEA3Mb92u0ZA+VuNhPGOb+FWtjA
NNlnNjIgeAMBc2vmQNoljq4sKYF6d9giFpygjEfpZ0VclULRjBzMhzF8Qwl1+J6W
3OdeRClMbShclnWqsJgHqVOf3dGkaK+6CKIj8Q3FH8AJYlqbxu9DsGVvjCp15mZh
kyopBKPDnfhj0aiOPx8CAwEAAaNGMEQwKgYDVR0RBCMwIYIHem1hcC5pb4IWT0Yz
V0s0VFVQRjJXUzMzUS5vbmlvbjAWBgNVHSAEDzANMAsGCSsGAQQBgptRAjAKBggq
hkjOPQQDAgNIADBFAiEA2f2FL0aTnhjzgV7wb/Ena3TKjskyTfCaF65TlYXHvuoC
IBehQ0MJ7GmrmwDRl5V3rkmnNH7+WaFecZCsy6VAHEGW
-----END CERTIFICATE-----
