Certificate:
    Data:
        Version: 3 (0x2)
        Serial Number: 4805 (0x12c5)
        Signature Algorithm: sha256WithRSAEncryption
        Issuer: C=DE, ST=Bayern, L=N\xC3\x83\xC2\xBCrnberg, O=Siemens AG, OU=Trustcenter, CN=OliverCA/emailAddress=oliver.stiller@siemens.com
        Validity
            Not Before: Dec 31 13:26:04 2020 GMT
            Not After : Dec 31 13:26:04 2021 GMT
        Subject: O=testconstraints06, CN=testconstraints06
        Subject Public Key Info:
            Public Key Algorithm: rsaEncryption
                RSA Public-Key: (2048 bit)
                Modulus:
                    00:d7:b1:80:b8:0d:07:bf:6d:ab:23:5b:07:92:b5:
                    3a:63:67:61:54:0a:d0:6d:8d:cb:b6:85:05:62:e6:
                    ac:ca:d4:ed:7f:f6:75:f5:7d:2f:01:7d:0a:61:31:
                    8b:25:fd:8b:3f:56:9c:25:ed:81:04:e0:74:62:28:
                    44:ab:39:9b:79:7d:16:53:70:83:4f:eb:12:ed:3b:
                    05:a0:00:3d:0c:7b:41:60:35:d0:fa:51:f1:bb:1e:
                    a4:1b:22:18:94:e2:4e:02:d2:96:51:26:68:4c:34:
                    76:4e:35:03:6f:c7:74:80:63:7f:4f:da:e5:23:b5:
                    93:f1:c0:a8:e7:bd:36:b3:8a:7b:a2:38:d6:c5:af:
                    33:d7:91:ce:77:b6:e7:2d:ed:38:ac:b0:d6:00:58:
                    48:5f:0e:e7:1b:c5:6f:ac:a2:ae:1d:87:90:0e:ca:
                    64:b1:0b:2b:f6:9a:40:98:1b:52:5d:f9:19:b3:3e:
                    8b:3e:1f:30:0e:d2:14:05:47:f2:c5:2d:e7:e6:e7:
                    60:fb:3e:46:1f:c1:44:0a:cf:4f:6f:cc:54:30:e6:
                    fe:96:d4:44:9e:30:77:0f:40:c5:27:81:33:e5:78:
                    43:5b:bf:e2:90:1d:d4:32:f1:7e:f6:1b:b7:94:19:
                    18:79:1d:af:a2:17:6d:d9:f4:9b:1c:48:91:da:93:
                    99:a3
                Exponent: 65537 (0x10001)
        X509v3 extensions:
            X509v3 Extended Key Usage: 
                Any Extended Key Usage, TLS Web Server Authentication
            X509v3 Key Usage: 
                Digital Signature, Key Encipherment
            X509v3 Name Constraints: 
                Permitted:
                  URI:host.example.com

    Signature Algorithm: sha256WithRSAEncryption
         26:d5:be:48:62:e2:0d:37:c9:d5:09:40:64:9c:bb:17:8c:a1:
         99:d4:31:48:c4:dc:53:4f:3b:f4:32:89:0c:a2:23:b4:4d:16:
         3a:36:c0:71:b1:73:3f:99:5a:c2:66:5c:92:45:28:ba:b8:34:
         96:94:da:0b:b7:1b:37:a5:a0:70:ca:26:ac:29:2c:e9:97:61:
         72:b3:bd:d2:11:cd:ca:6d:b3:8a:e4:e8:31:a7:fc:11:4c:85:
         99:c0:27:6d:1a:46:80:6b:62:f2:9d:34:37:4a:6f:a4:5d:c8:
         99:45:3a:d0:88:3a:71:01:d8:21:69:a1:e7:c7:a3:0f:d5:c9:
         16:42:af:91:26:81:6d:65:47:3f:d7:eb:f5:4b:a3:e8:50:d1:
         fe:e2:ea:ac:de:2f:19:b5:21:7d:a3:30:27:c8:54:79:23:e4:
         27:91:38:a9:bb:32:e2:e2:62:9e:d9:90:b6:98:0d:7a:aa:1d:
         08:9b:f2:88:f5:34:d4:e3:7a:8f:90:30:ed:1a:49:05:f3:af:
         de:51:2a:b5:01:51:a4:13:90:ec:e7:25:4b:8a:98:0b:5f:0f:
         71:aa:fd:68:79:63:1c:48:82:26:52:c2:2a:0f:fb:92:7d:30:
         3a:a8:e0:c7:f7:a2:16:7c:ba:6c:25:de:e9:b3:d2:59:91:dc:
         1a:e1:01:17:b4:41:cc:2f:9a:ad:f1:10:b5:0e:ad:b7:05:a9:
         ce:f9:91:07:8a:93:ea:42:b0:8e:53:91:fe:f8:6e:5f:36:df:
         6d:65:01:3f:26:4c:90:35:bc:8c:33:31:08:73:bc:05:2f:49:
         7c:6c:0d:d7:61:66:69:1c:bf:ab:2a:56:49:1c:95:de:49:18:
         0f:5f:52:b6:30:91:dc:09:dd:c7:95:80:92:1c:7e:4d:ea:e4:
         d5:e0:fe:20:ea:4c:52:2c:8a:df:86:e3:04:d0:89:74:0e:8d:
         3a:4b:0a:87:e9:f0:1c:ca:04:86:b7:cd:52:bb:22:18:66:e4:
         83:28:fc:ae:7b:2d:36:05:45:d5:10:47:7f:ca:46:10:fb:9c:
         d2:d9:1e:fe:f6:3c:51:a2:de:4c:09:d0:fd:83:df:39:41:56:
         82:20:98:4b:d3:ac:0a:d7:22:ec:d2:8a:8d:89:da:73:2e:cf:
         4d:c4:33:3b:77:88:29:37:9d:f9:16:d0:c9:14:50:df:2f:7b:
         a1:07:4d:12:60:72:a9:3e:56:e1:c0:fb:01:28:c3:f5:ad:f5:
         fd:35:68:14:e3:40:08:1c:d9:19:0f:29:e9:36:fd:42:76:76:
         3e:10:0f:f3:30:30:95:91:03:ef:55:24:d8:5c:7d:5d:b4:ab:
         46:a6:23:d4:ae:a1:71:47
-----BEGIN CERTIFICATE-----
MIIEnTCCAoWgAwIBAgICEsUwDQYJKoZIhvcNAQELBQAwgZ0xCzAJBgNVBAYTAkRF
MQ8wDQYDVQQIDAZCYXllcm4xFDASBgNVBAcMC07Dg8K8cm5iZXJnMRMwEQYDVQQK
DApTaWVtZW5zIEFHMRQwEgYDVQQLDAtUcnVzdGNlbnRlcjERMA8GA1UEAwwIT2xp
dmVyQ0ExKTAnBgkqhkiG9w0BCQEWGm9saXZlci5zdGlsbGVyQHNpZW1lbnMuY29t
MB4XDTIwMTIzMTEzMjYwNFoXDTIxMTIzMTEzMjYwNFowODEaMBgGA1UECgwRdGVz
dGNvbnN0cmFpbnRzMDYxGjAYBgNVBAMMEXRlc3Rjb25zdHJhaW50czA2MIIBIjAN
BgkqhkiG9w0BAQEFAAOCAQ8AMIIBCgKCAQEA17GAuA0Hv22rI1sHkrU6Y2dhVArQ
bY3LtoUFYuasytTtf/Z19X0vAX0KYTGLJf2LP1acJe2BBOB0YihEqzmbeX0WU3CD
T+sS7TsFoAA9DHtBYDXQ+lHxux6kGyIYlOJOAtKWUSZoTDR2TjUDb8d0gGN/T9rl
I7WT8cCo5702s4p7ojjWxa8z15HOd7bnLe04rLDWAFhIXw7nG8VvrKKuHYeQDspk
sQsr9ppAmBtSXfkZsz6LPh8wDtIUBUfyxS3n5udg+z5GH8FECs9Pb8xUMOb+ltRE
njB3D0DFJ4Ez5XhDW7/ikB3UMvF+9hu3lBkYeR2vohdt2fSbHEiR2pOZowIDAQAB
o0swSTAZBgNVHSUEEjAQBgRVHSUABggrBgEFBQcDATALBgNVHQ8EBAMCBaAwHwYD
VR0eBBgwFqAUMBKGEGhvc3QuZXhhbXBsZS5jb20wDQYJKoZIhvcNAQELBQADggIB
ACbVvkhi4g03ydUJQGScuxeMoZnUMUjE3FNPO/QyiQyiI7RNFjo2wHGxcz+ZWsJm
XJJFKLq4NJaU2gu3GzeloHDKJqwpLOmXYXKzvdIRzcpts4rk6DGn/BFMhZnAJ20a
RoBrYvKdNDdKb6RdyJlFOtCIOnEB2CFpoefHow/VyRZCr5EmgW1lRz/X6/VLo+hQ
0f7i6qzeLxm1IX2jMCfIVHkj5CeROKm7MuLiYp7ZkLaYDXqqHQib8oj1NNTjeo+Q
MO0aSQXzr95RKrUBUaQTkOznJUuKmAtfD3Gq/Wh5YxxIgiZSwioP+5J9MDqo4Mf3
ohZ8umwl3umz0lmR3BrhARe0Qcwvmq3xELUOrbcFqc75kQeKk+pCsI5Tkf74bl82
321lAT8mTJA1vIwzMQhzvAUvSXxsDddhZmkcv6sqVkkcld5JGA9fUrYwkdwJ3ceV
gJIcfk3q5NXg/iDqTFIsit+G4wTQiXQOjTpLCofp8BzKBIa3zVK7Ihhm5IMo/K57
LTYFRdUQR3/KRhD7nNLZHv72PFGi3kwJ0P2D3zlBVoIgmEvTrArXIuzSio2J2nMu
z03EMzt3iCk3nfkW0MkUUN8ve6EHTRJgcqk+VuHA+wEow/Wt9f01aBTjQAgc2RkP
Kek2/UJ2dj4QD/MwMJWRA+9VJNhcfV20q0amI9SuoXFH
-----END CERTIFICATE-----
