Certificate:
    Data:
        Version: 3 (0x2)
        Serial Number:
            c7:57:87:54:50:2f:fb:c8:d4:74:2d:7c:6e:71:a6:92
        Signature Algorithm: sha256WithRSAEncryption
        Issuer: C = EU, O = Some CA, CN = Fake CA for zlint testing
        Validity
            Not Before: Mar 29 13:31:00 2024 GMT
            Not After : Mar 29 13:31:00 2025 GMT
        Subject: C = IT, ST = Some State or Province, L = Somewhere, O = Some Company Ltd., CN = example.com, serialNumber = 1234567890, businessCategory = Private Organization, organizationIdentifier = VATIT-1234567890
        Subject Public Key Info:
            Public Key Algorithm: rsaEncryption
                RSA Public-Key: (2048 bit)
                Modulus:
                    00:e9:67:65:8b:3c:82:79:e9:43:31:3a:80:4b:d8:
                    0e:43:b8:a5:fd:fa:25:3c:57:41:1e:7e:bb:f8:ff:
                    11:cc:64:97:57:a4:a2:46:f1:ef:fe:6f:cd:71:c1:
                    a7:10:34:4f:15:13:05:1b:fc:dc:fe:1b:45:13:d9:
                    d3:69:4d:7a:a4:72:53:f1:64:32:fb:16:34:df:9f:
                    25:47:1f:cb:25:5f:01:3d:7f:3d:49:c1:0b:7f:a4:
                    e0:a9:aa:4a:9e:30:c2:4c:1d:fe:41:a8:09:7a:c9:
                    6b:11:22:36:8c:df:db:d1:ec:cc:03:fd:a4:92:6b:
                    6f:5f:24:6d:f3:e6:a1:b2:a8:31:09:72:2b:bd:cb:
                    0e:f7:26:9b:be:56:66:d2:c3:58:26:29:9c:ec:d4:
                    f7:e0:65:c2:c0:78:32:05:6e:6d:e1:2c:61:f0:5b:
                    9b:a3:f4:05:0a:1e:49:c3:cf:60:10:a5:32:b1:1a:
                    55:32:bc:28:4f:15:5f:bf:3a:ac:21:9c:2f:20:94:
                    d0:4d:4a:f4:0d:63:06:4c:b3:c7:8c:ac:bb:3e:a9:
                    6e:b6:07:32:60:c2:27:bb:c0:9a:70:b2:73:43:62:
                    a5:d5:64:52:4d:d7:e5:46:20:0f:53:a6:d3:1d:9d:
                    da:7d:ad:e6:6d:dd:bf:60:14:78:11:db:f2:34:3a:
                    ba:55
                Exponent: 65537 (0x10001)
        X509v3 extensions:
            X509v3 Key Usage: critical
                Digital Signature, Key Encipherment
            X509v3 Extended Key Usage: 
                TLS Web Client Authentication, TLS Web Server Authentication
            X509v3 Subject Key Identifier: 
                10:CB:CA:80:71:74:B0:06:2B:D7:CA:CC:62:DB:B1:59:2E:DF:C2:E1
            X509v3 Authority Key Identifier: 
                keyid:E8:B6:F6:76:4B:D0:3B:E5:46:A5:F9:54:D4:7E:07:B3:DE:0D:60:3E

            Authority Information Access: 
                OCSP - URI:http://ca.someca-inc.com/ocsp
                CA Issuers - URI:http://ca.someca-inc.com/root

            X509v3 Subject Alternative Name: 
                DNS:example.com
            X509v3 Certificate Policies: 
                Policy: 2.23.140.1.1

            X509v3 CRL Distribution Points: 

                Full Name:
                  URI:http://ca.someca-inc.com/crl

            2.23.140.3.1: 
                0...VAT..IT.
1234567890
    Signature Algorithm: sha256WithRSAEncryption
         0f:36:91:78:5e:4d:c4:f1:53:b6:8c:e8:4e:05:de:ee:70:16:
         73:29:9b:36:e1:5d:72:91:71:2d:79:44:9b:4b:9a:da:01:54:
         2c:f7:43:cb:49:a4:aa:2c:f9:e6:0d:1a:a3:49:4a:e0:a3:ba:
         40:b9:76:0a:bf:b5:b4:db:91:3b:a5:5a:73:8b:ef:96:f7:40:
         44:b8:92:79:f5:14:03:d7:14:49:ab:09:8d:73:1d:18:89:fb:
         b9:25:b7:8b:5e:8f:16:14:17:12:72:f9:9d:b0:a6:98:1b:47:
         26:76:a8:33:02:60:c7:68:ee:3d:f3:95:6e:c7:a3:31:cf:9a:
         d8:c1:c3:b5:9d:69:c0:8a:a3:92:cb:8e:4c:e2:25:85:82:d5:
         cf:db:10:83:cf:19:11:73:10:a4:a1:65:fb:a0:72:fe:08:a3:
         8d:f3:49:12:36:50:8a:6e:3d:09:b8:73:cb:50:89:55:99:0f:
         2f:33:35:a9:0f:c9:52:7d:e5:23:0a:9d:2d:77:33:9c:5d:e0:
         fa:c9:92:6d:66:32:cf:6a:d7:ad:47:2b:b0:fd:e7:b1:70:96:
         36:0b:e7:eb:da:f2:df:79:f1:a0:fe:0a:84:48:a0:b8:d2:36:
         d2:74:8e:fc:50:cd:8f:37:02:dc:b4:63:55:ce:46:b0:76:b1:
         d8:1a:53:93
-----BEGIN CERTIFICATE-----
MIIE6jCCA9KgAwIBAgIRAMdXh1RQL/vI1HQtfG5xppIwDQYJKoZIhvcNAQELBQAw
QzELMAkGA1UEBhMCRVUxEDAOBgNVBAoTB1NvbWUgQ0ExIjAgBgNVBAMTGUZha2Ug
Q0EgZm9yIHpsaW50IHRlc3RpbmcwHhcNMjQwMzI5MTMzMTAwWhcNMjUwMzI5MTMz
MTAwWjCBwzELMAkGA1UEBhMCSVQxHzAdBgNVBAgTFlNvbWUgU3RhdGUgb3IgUHJv
dmluY2UxEjAQBgNVBAcTCVNvbWV3aGVyZTEaMBgGA1UEChMRU29tZSBDb21wYW55
IEx0ZC4xFDASBgNVBAMTC2V4YW1wbGUuY29tMRMwEQYDVQQFEwoxMjM0NTY3ODkw
MR0wGwYDVQQPExRQcml2YXRlIE9yZ2FuaXphdGlvbjEZMBcGA1UEYRMQVkFUSVQt
MTIzNDU2Nzg5MDCCASIwDQYJKoZIhvcNAQEBBQADggEPADCCAQoCggEBAOlnZYs8
gnnpQzE6gEvYDkO4pf36JTxXQR5+u/j/Ecxkl1ekokbx7/5vzXHBpxA0TxUTBRv8
3P4bRRPZ02lNeqRyU/FkMvsWNN+fJUcfyyVfAT1/PUnBC3+k4KmqSp4wwkwd/kGo
CXrJaxEiNozf29HszAP9pJJrb18kbfPmobKoMQlyK73LDvcmm75WZtLDWCYpnOzU
9+BlwsB4MgVubeEsYfBbm6P0BQoeScPPYBClMrEaVTK8KE8VX786rCGcLyCU0E1K
9A1jBkyzx4ysuz6pbrYHMmDCJ7vAmnCyc0NipdVkUk3X5UYgD1Om0x2d2n2t5m3d
v2AUeBHb8jQ6ulUCAwEAAaOCAVYwggFSMA4GA1UdDwEB/wQEAwIFoDAdBgNVHSUE
FjAUBggrBgEFBQcDAgYIKwYBBQUHAwEwHQYDVR0OBBYEFBDLyoBxdLAGK9fKzGLb
sVku38LhMB8GA1UdIwQYMBaAFOi29nZL0DvlRqX5VNR+B7PeDWA+MGQGCCsGAQUF
BwEBBFgwVjApBggrBgEFBQcwAYYdaHR0cDovL2NhLnNvbWVjYS1pbmMuY29tL29j
c3AwKQYIKwYBBQUHMAKGHWh0dHA6Ly9jYS5zb21lY2EtaW5jLmNvbS9yb290MBYG
A1UdEQQPMA2CC2V4YW1wbGUuY29tMBIGA1UdIAQLMAkwBwYFZ4EMAQEwLQYDVR0f
BCYwJDAioCCgHoYcaHR0cDovL2NhLnNvbWVjYS1pbmMuY29tL2NybDAgBgVngQwD
AQQXMBUTA1ZBVBMCSVQMCjEyMzQ1Njc4OTAwDQYJKoZIhvcNAQELBQADggEBAA82
kXheTcTxU7aM6E4F3u5wFnMpmzbhXXKRcS15RJtLmtoBVCz3Q8tJpKos+eYNGqNJ
SuCjukC5dgq/tbTbkTulWnOL75b3QES4knn1FAPXFEmrCY1zHRiJ+7klt4tejxYU
FxJy+Z2wppgbRyZ2qDMCYMdo7j3zlW7HozHPmtjBw7WdacCKo5LLjkziJYWC1c/b
EIPPGRFzEKShZfugcv4Io43zSRI2UIpuPQm4c8tQiVWZDy8zNakPyVJ95SMKnS13
M5xd4PrJkm1mMs9q161HK7D957FwljYL5+va8t958aD+CoRIoLjSNtJ0jvxQzY83
Aty0Y1XORrB2sdgaU5M=
-----END CERTIFICATE-----
