Certificate:
    Data:
        Version: 3 (0x2)
        Serial Number:
            44:94:07:44:46:97:7c:ba:96:a2:d0:d5:53:54:05:00
        Signature Algorithm: sha256WithRSAEncryption
        Issuer: C = EU, O = Some CA, CN = Fake CA for zlint testing
        Validity
            Not Before: Mar 30 09:08:27 2024 GMT
            Not After : Mar 30 09:08:27 2025 GMT
        Subject: C = IT, ST = Some State or Province, L = Somewhere, O = Some Company Ltd., CN = example.com, serialNumber = 1234567890, businessCategory = Private Organization, organizationIdentifier = VATIT-1234567890
        Subject Public Key Info:
            Public Key Algorithm: rsaEncryption
                RSA Public-Key: (2048 bit)
                Modulus:
                    00:f0:5d:f1:11:dd:94:9d:28:e6:b2:fc:9f:cd:74:
                    9c:20:58:1b:f9:0d:85:bb:9d:a6:b2:5d:23:3c:78:
                    c0:42:be:15:de:56:01:13:73:60:a4:39:a1:4c:38:
                    dd:5f:df:f6:18:13:c7:e5:24:de:14:e5:56:00:87:
                    10:03:fd:7b:cc:b6:79:57:62:3d:86:e3:8a:46:a5:
                    9a:99:85:a4:f3:b4:60:d3:81:16:11:f6:7a:77:27:
                    0e:ca:27:29:fe:b9:79:2d:48:18:a2:ec:7b:31:b6:
                    0f:64:88:ea:42:87:31:9f:52:a6:41:62:3e:9e:20:
                    d7:3b:28:9f:d0:89:cc:13:87:71:e8:2d:a2:3d:cc:
                    96:e7:1d:b1:b4:23:cc:3a:47:4b:4a:79:3a:b4:97:
                    5b:f1:68:f3:be:33:fc:dc:1d:24:3c:3f:1b:7a:6c:
                    84:d8:22:c2:ac:46:55:f6:fd:1c:d6:34:4e:85:47:
                    a2:f3:f0:ac:25:58:f3:fb:5b:0b:ef:c7:1b:64:1c:
                    3f:7a:38:69:be:06:67:76:a5:0e:9e:ba:14:f3:0b:
                    36:0c:26:3a:1e:38:d5:0f:7a:ee:96:3a:2d:ed:74:
                    f8:c9:87:8a:51:96:1a:1c:e9:57:98:e2:bc:d6:e6:
                    6d:f3:2f:4c:ef:61:da:4c:b7:52:32:6f:e7:ba:0a:
                    16:15
                Exponent: 65537 (0x10001)
        X509v3 extensions:
            X509v3 Key Usage: critical
                Digital Signature, Key Encipherment
            X509v3 Extended Key Usage: 
                TLS Web Client Authentication, TLS Web Server Authentication
            X509v3 Subject Key Identifier: 
                34:67:E3:3B:A9:07:DF:54:DD:6D:7B:55:DB:E3:53:BA:3C:06:2F:AB
            X509v3 Authority Key Identifier: 
                keyid:E8:B6:F6:76:4B:D0:3B:E5:46:A5:F9:54:D4:7E:07:B3:DE:0D:60:3E

            Authority Information Access: 
                OCSP - URI:http://ca.someca-inc.com/ocsp
                CA Issuers - URI:http://ca.someca-inc.com/root

            X509v3 Subject Alternative Name: 
                DNS:example.com
            X509v3 Certificate Policies: 
                Policy: 2.23.140.1.1

            X509v3 CRL Distribution Points: 

                Full Name:
                  URI:http://ca.someca-inc.com/crl

    Signature Algorithm: sha256WithRSAEncryption
         00:f6:56:fa:d5:b9:62:35:7e:61:93:f7:8a:a7:7f:ca:ff:2b:
         e6:ec:11:f4:34:81:ca:00:f7:19:e3:64:e3:0b:ec:51:b7:59:
         2f:5d:bc:b8:eb:e6:d3:1a:b5:eb:49:da:fb:83:73:0d:75:68:
         92:41:83:62:6a:5b:67:89:67:db:a3:0d:fd:8b:c6:27:32:af:
         7f:db:ab:2c:b9:99:c3:06:38:df:79:26:d8:4a:53:2a:01:96:
         b4:59:d8:52:f8:76:80:d2:dd:d8:c2:aa:c5:26:dc:6c:9c:15:
         96:5c:10:07:88:a1:37:e3:07:0b:89:b7:ea:85:13:b7:6c:a7:
         3d:37:a2:67:43:d2:84:44:88:90:6f:26:87:93:a9:f7:9e:61:
         13:cf:9b:85:7d:c2:d0:9e:2b:64:a9:35:65:ff:cc:ec:b4:9b:
         1f:63:3b:6a:e7:83:25:75:18:e7:08:7f:8e:8b:97:94:d1:0d:
         63:67:bf:b3:58:8c:bc:ba:a0:dd:59:c5:4e:3a:ba:6f:28:80:
         e0:fd:1d:4d:09:55:1a:c6:7f:27:44:d4:5a:0e:01:f6:a3:15:
         ee:4d:0a:5c:0a:6d:6b:53:4a:80:12:11:0f:60:d5:f2:53:93:
         93:c2:fe:13:5b:ca:67:f9:3a:5c:13:52:33:bd:ea:c3:69:f9:
         b5:29:6b:26
-----BEGIN CERTIFICATE-----
MIIExzCCA6+gAwIBAgIQRJQHREaXfLqWotDVU1QFADANBgkqhkiG9w0BAQsFADBD
MQswCQYDVQQGEwJFVTEQMA4GA1UEChMHU29tZSBDQTEiMCAGA1UEAxMZRmFrZSBD
QSBmb3IgemxpbnQgdGVzdGluZzAeFw0yNDAzMzAwOTA4MjdaFw0yNTAzMzAwOTA4
MjdaMIHDMQswCQYDVQQGEwJJVDEfMB0GA1UECBMWU29tZSBTdGF0ZSBvciBQcm92
aW5jZTESMBAGA1UEBxMJU29tZXdoZXJlMRowGAYDVQQKExFTb21lIENvbXBhbnkg
THRkLjEUMBIGA1UEAxMLZXhhbXBsZS5jb20xEzARBgNVBAUTCjEyMzQ1Njc4OTAx
HTAbBgNVBA8TFFByaXZhdGUgT3JnYW5pemF0aW9uMRkwFwYDVQRhExBWQVRJVC0x
MjM0NTY3ODkwMIIBIjANBgkqhkiG9w0BAQEFAAOCAQ8AMIIBCgKCAQEA8F3xEd2U
nSjmsvyfzXScIFgb+Q2Fu52msl0jPHjAQr4V3lYBE3NgpDmhTDjdX9/2GBPH5STe
FOVWAIcQA/17zLZ5V2I9huOKRqWamYWk87Rg04EWEfZ6dycOyicp/rl5LUgYoux7
MbYPZIjqQocxn1KmQWI+niDXOyif0InME4dx6C2iPcyW5x2xtCPMOkdLSnk6tJdb
8WjzvjP83B0kPD8bemyE2CLCrEZV9v0c1jROhUei8/CsJVjz+1sL78cbZBw/ejhp
vgZndqUOnroU8ws2DCY6HjjVD3ruljot7XT4yYeKUZYaHOlXmOK81uZt8y9M72Ha
TLdSMm/nugoWFQIDAQABo4IBNDCCATAwDgYDVR0PAQH/BAQDAgWgMB0GA1UdJQQW
MBQGCCsGAQUFBwMCBggrBgEFBQcDATAdBgNVHQ4EFgQUNGfjO6kH31TdbXtV2+NT
ujwGL6swHwYDVR0jBBgwFoAU6Lb2dkvQO+VGpflU1H4Hs94NYD4wZAYIKwYBBQUH
AQEEWDBWMCkGCCsGAQUFBzABhh1odHRwOi8vY2Euc29tZWNhLWluYy5jb20vb2Nz
cDApBggrBgEFBQcwAoYdaHR0cDovL2NhLnNvbWVjYS1pbmMuY29tL3Jvb3QwFgYD
VR0RBA8wDYILZXhhbXBsZS5jb20wEgYDVR0gBAswCTAHBgVngQwBATAtBgNVHR8E
JjAkMCKgIKAehhxodHRwOi8vY2Euc29tZWNhLWluYy5jb20vY3JsMA0GCSqGSIb3
DQEBCwUAA4IBAQAA9lb61bliNX5hk/eKp3/K/yvm7BH0NIHKAPcZ42TjC+xRt1kv
Xby46+bTGrXrSdr7g3MNdWiSQYNialtniWfbow39i8YnMq9/26ssuZnDBjjfeSbY
SlMqAZa0WdhS+HaA0t3YwqrFJtxsnBWWXBAHiKE34wcLibfqhRO3bKc9N6JnQ9KE
RIiQbyaHk6n3nmETz5uFfcLQnitkqTVl/8zstJsfYztq54MldRjnCH+Oi5eU0Q1j
Z7+zWIy8uqDdWcVOOrpvKIDg/R1NCVUaxn8nRNRaDgH2oxXuTQpcCm1rU0qAEhEP
YNXyU5OTwv4TW8pn+TpcE1IzverDafm1KWsm
-----END CERTIFICATE-----
