Certificate:
    Data:
        Version: 3 (0x2)
        Serial Number:
            8f:c6:55:69:97:15:5a:40:79:c6:1d:e4:22:21:72:ca
        Signature Algorithm: sha256WithRSAEncryption
        Issuer: C = EU, O = Some CA, CN = Fake CA for zlint testing
        Validity
            Not Before: Mar 29 14:59:53 2024 GMT
            Not After : Mar 29 14:59:53 2025 GMT
        Subject: C = IT, ST = Some State or Province, L = Somewhere, O = Some Company Ltd., CN = example.com, serialNumber = 1234567890, businessCategory = Private Organization, organizationIdentifier = "NTRUS+CA-1234567890"
        Subject Public Key Info:
            Public Key Algorithm: rsaEncryption
                RSA Public-Key: (2048 bit)
                Modulus:
                    00:b3:75:b6:18:05:68:18:12:6e:97:c2:8a:75:a9:
                    d7:90:fb:51:d1:84:39:e6:b7:6c:97:2c:82:17:42:
                    e7:b2:a4:4a:a9:b7:80:d8:38:07:3c:f4:b2:8f:78:
                    3d:1c:36:0d:aa:f2:e8:0a:1f:6d:c7:3c:70:7a:26:
                    1f:c4:ba:e5:02:e1:6b:cc:9e:23:6e:b0:67:67:3a:
                    5e:92:58:d5:db:99:84:08:6d:44:11:f4:97:f9:c6:
                    10:29:4b:8b:8a:65:b0:55:c7:74:2d:f7:96:9a:3f:
                    9a:d9:bb:3e:76:88:ae:77:07:33:36:59:65:88:cd:
                    d0:8d:7f:45:90:db:ef:ef:9e:f7:12:69:86:92:6b:
                    e5:7d:a1:8c:62:ce:16:07:53:df:91:a8:2f:ab:97:
                    b0:dd:9a:1d:3e:b5:b4:b7:c8:8d:3e:3e:9e:3c:d7:
                    33:df:63:fb:c1:4c:eb:ca:03:c6:3a:89:9f:f1:d1:
                    a0:28:c9:54:58:20:38:bd:45:09:ea:47:38:39:ae:
                    b5:3a:46:e8:bf:4f:f8:03:dd:33:28:0c:60:a7:39:
                    ed:86:4d:a4:7a:61:4d:e3:80:1a:30:96:95:72:44:
                    42:8d:42:14:f4:3b:86:94:17:f5:12:ea:e7:09:da:
                    7d:02:2d:a2:e4:5b:75:3a:c4:f1:97:d3:f7:aa:ba:
                    d3:db
                Exponent: 65537 (0x10001)
        X509v3 extensions:
            X509v3 Key Usage: critical
                Digital Signature, Key Encipherment
            X509v3 Extended Key Usage: 
                TLS Web Client Authentication, TLS Web Server Authentication
            X509v3 Subject Key Identifier: 
                E7:D3:82:87:FB:05:52:CE:5B:2E:67:3A:92:B3:52:B6:4A:B9:C9:84
            X509v3 Authority Key Identifier: 
                keyid:E8:B6:F6:76:4B:D0:3B:E5:46:A5:F9:54:D4:7E:07:B3:DE:0D:60:3E

            Authority Information Access: 
                OCSP - URI:http://ca.someca-inc.com/ocsp
                CA Issuers - URI:http://ca.someca-inc.com/root

            X509v3 Subject Alternative Name: 
                DNS:example.com
            X509v3 Certificate Policies: 
                Policy: 2.23.140.1.1

            X509v3 CRL Distribution Points: 

                Full Name:
                  URI:http://ca.someca-inc.com/crl

            2.23.140.3.1: 
                0...NTR..US.
1234567890
    Signature Algorithm: sha256WithRSAEncryption
         0d:ec:f2:c8:ed:e5:0f:eb:e6:2f:24:c1:01:7a:de:3a:ea:9b:
         ea:d3:c8:51:25:fa:42:2c:1c:37:55:d1:66:a3:21:55:c8:af:
         0a:b7:20:10:70:31:7e:2c:8a:c2:67:04:3e:36:55:64:be:48:
         7c:21:01:60:2b:17:25:cd:29:24:3f:f1:70:1c:d4:96:b7:02:
         4e:12:72:e8:fb:80:09:b1:0f:4b:3d:e7:e8:13:02:ba:79:fc:
         83:e7:29:f6:91:a0:79:57:b1:72:6d:b0:b4:dc:3b:54:ea:83:
         bc:e0:7b:d6:b3:85:ea:50:e7:dd:0c:b5:02:d0:13:c3:ca:e1:
         cc:49:d5:f9:40:d8:74:a1:a2:9b:12:81:c7:40:36:9a:16:26:
         d1:44:24:4e:4e:ec:8a:89:79:b0:3b:39:1f:6d:c7:c7:41:dd:
         2a:10:10:b5:27:34:9f:24:d2:e2:2c:9d:8d:ba:ae:c1:58:d8:
         28:d0:39:74:24:f6:94:1b:41:b3:4a:98:6c:d7:6f:4e:87:5f:
         76:eb:33:a5:7e:9b:bb:46:9b:b9:a3:ef:f8:ae:6f:bb:46:72:
         f2:5d:c3:c5:ef:90:ed:cc:dc:f4:da:22:ba:24:47:9f:0f:c3:
         79:7b:9f:3b:48:ee:1c:e2:f7:7c:82:f3:f8:49:d0:a3:3d:c8:
         98:ff:a5:27
-----BEGIN CERTIFICATE-----
MIIE7TCCA9WgAwIBAgIRAI/GVWmXFVpAecYd5CIhcsowDQYJKoZIhvcNAQELBQAw
QzELMAkGA1UEBhMCRVUxEDAOBgNVBAoTB1NvbWUgQ0ExIjAgBgNVBAMTGUZha2Ug
Q0EgZm9yIHpsaW50IHRlc3RpbmcwHhcNMjQwMzI5MTQ1OTUzWhcNMjUwMzI5MTQ1
OTUzWjCBxjELMAkGA1UEBhMCSVQxHzAdBgNVBAgTFlNvbWUgU3RhdGUgb3IgUHJv
dmluY2UxEjAQBgNVBAcTCVNvbWV3aGVyZTEaMBgGA1UEChMRU29tZSBDb21wYW55
IEx0ZC4xFDASBgNVBAMTC2V4YW1wbGUuY29tMRMwEQYDVQQFEwoxMjM0NTY3ODkw
MR0wGwYDVQQPExRQcml2YXRlIE9yZ2FuaXphdGlvbjEcMBoGA1UEYRMTTlRSVVMr
Q0EtMTIzNDU2Nzg5MDCCASIwDQYJKoZIhvcNAQEBBQADggEPADCCAQoCggEBALN1
thgFaBgSbpfCinWp15D7UdGEOea3bJcsghdC57KkSqm3gNg4Bzz0so94PRw2Dary
6Aofbcc8cHomH8S65QLha8yeI26wZ2c6XpJY1duZhAhtRBH0l/nGEClLi4plsFXH
dC33lpo/mtm7PnaIrncHMzZZZYjN0I1/RZDb7++e9xJphpJr5X2hjGLOFgdT35Go
L6uXsN2aHT61tLfIjT4+njzXM99j+8FM68oDxjqJn/HRoCjJVFggOL1FCepHODmu
tTpG6L9P+APdMygMYKc57YZNpHphTeOAGjCWlXJEQo1CFPQ7hpQX9RLq5wnafQIt
ouRbdTrE8ZfT96q609sCAwEAAaOCAVYwggFSMA4GA1UdDwEB/wQEAwIFoDAdBgNV
HSUEFjAUBggrBgEFBQcDAgYIKwYBBQUHAwEwHQYDVR0OBBYEFOfTgof7BVLOWy5n
OpKzUrZKucmEMB8GA1UdIwQYMBaAFOi29nZL0DvlRqX5VNR+B7PeDWA+MGQGCCsG
AQUFBwEBBFgwVjApBggrBgEFBQcwAYYdaHR0cDovL2NhLnNvbWVjYS1pbmMuY29t
L29jc3AwKQYIKwYBBQUHMAKGHWh0dHA6Ly9jYS5zb21lY2EtaW5jLmNvbS9yb290
MBYGA1UdEQQPMA2CC2V4YW1wbGUuY29tMBIGA1UdIAQLMAkwBwYFZ4EMAQEwLQYD
VR0fBCYwJDAioCCgHoYcaHR0cDovL2NhLnNvbWVjYS1pbmMuY29tL2NybDAgBgVn
gQwDAQQXMBUTA05UUhMCVVMMCjEyMzQ1Njc4OTAwDQYJKoZIhvcNAQELBQADggEB
AA3s8sjt5Q/r5i8kwQF63jrqm+rTyFEl+kIsHDdV0WajIVXIrwq3IBBwMX4sisJn
BD42VWS+SHwhAWArFyXNKSQ/8XAc1Ja3Ak4Scuj7gAmxD0s95+gTArp5/IPnKfaR
oHlXsXJtsLTcO1Tqg7zge9azhepQ590MtQLQE8PK4cxJ1flA2HShopsSgcdANpoW
JtFEJE5O7IqJebA7OR9tx8dB3SoQELUnNJ8k0uIsnY26rsFY2CjQOXQk9pQbQbNK
mGzXb06HX3brM6V+m7tGm7mj7/iub7tGcvJdw8XvkO3M3PTaIrokR58Pw3l7nztI
7hzi93yC8/hJ0KM9yJj/pSc=
-----END CERTIFICATE-----
