Certificate:
    Data:
        Version: 3 (0x2)
        Serial Number:
            c2:1d:b7:06:b1:40:2a:f4:e9:15:d7:3c:bf:fd:e5:47
        Signature Algorithm: sha256WithRSAEncryption
        Issuer: C = EU, O = Some CA, CN = Fake CA for zlint testing
        Validity
            Not Before: Jan 29 00:00:00 2020 GMT
            Not After : Jan 28 00:00:00 2021 GMT
        Subject: C = IT, ST = Some State or Province, L = Somewhere, O = Some Company Ltd., CN = example.com, serialNumber = 1234567890, businessCategory = Private Organization, organizationIdentifier = VATIT-1234567890
        Subject Public Key Info:
            Public Key Algorithm: rsaEncryption
                RSA Public-Key: (2048 bit)
                Modulus:
                    00:a6:70:69:9d:8b:34:fb:33:f2:d8:ca:54:4a:d6:
                    32:2f:1b:bf:9b:cf:38:2c:9c:30:33:12:19:34:4e:
                    1b:ae:df:92:67:a4:65:3c:68:c3:63:06:40:ca:aa:
                    ca:ce:d2:d9:11:69:b4:db:d3:c8:46:7b:7c:21:6f:
                    fc:1f:4d:97:c4:0c:5b:74:a6:ed:3a:ea:1a:5f:8d:
                    3b:9f:ed:e2:02:96:a9:b6:a3:4b:8f:6a:00:97:cd:
                    4a:10:24:28:b2:68:b0:3a:1d:7d:37:44:1a:6a:86:
                    44:6e:9e:f6:0c:3e:74:d2:cc:eb:fc:88:4a:3b:67:
                    fa:f8:a4:77:fd:a3:69:1d:bc:02:62:60:7f:a3:b3:
                    92:c0:ec:07:1c:5b:70:be:54:73:fb:44:8d:12:32:
                    96:f6:ec:28:32:4b:5a:a5:d4:1b:e9:e3:2e:fb:0b:
                    b0:6b:13:e6:84:ce:74:7f:cc:bf:40:cb:d7:ab:df:
                    7b:c1:d9:a7:33:5e:e3:e8:57:95:b7:ce:3c:52:a7:
                    18:38:c0:05:15:18:c0:4f:4c:42:5f:97:03:f6:fd:
                    12:d4:6e:51:d8:da:d0:af:3b:fd:e4:74:ba:5c:ae:
                    30:7e:d4:04:16:cb:56:2a:50:8e:28:2c:ef:33:ca:
                    e0:09:20:1d:b0:1e:e6:3d:bf:c0:b5:7a:74:c1:d3:
                    f2:f9
                Exponent: 65537 (0x10001)
        X509v3 extensions:
            X509v3 Key Usage: critical
                Digital Signature, Key Encipherment
            X509v3 Extended Key Usage: 
                TLS Web Client Authentication, TLS Web Server Authentication
            X509v3 Subject Key Identifier: 
                08:5F:A7:9D:24:99:DD:23:49:03:66:4D:CC:18:D6:72:87:B5:9D:9D
            X509v3 Authority Key Identifier: 
                keyid:E8:B6:F6:76:4B:D0:3B:E5:46:A5:F9:54:D4:7E:07:B3:DE:0D:60:3E

            Authority Information Access: 
                OCSP - URI:http://ca.someca-inc.com/ocsp
                CA Issuers - URI:http://ca.someca-inc.com/root

            X509v3 Subject Alternative Name: 
                DNS:example.com
            X509v3 Certificate Policies: 
                Policy: 2.23.140.1.1

            X509v3 CRL Distribution Points: 

                Full Name:
                  URI:http://ca.someca-inc.com/crl

            2.23.140.3.1: 
                0...VAT..BE.
1234567890
    Signature Algorithm: sha256WithRSAEncryption
         91:c2:e0:45:ff:c7:d2:b2:ca:49:ae:bc:84:99:b9:1e:f7:d5:
         d3:2b:26:6f:54:af:57:48:fb:d9:8e:8a:b7:f0:3c:23:21:56:
         db:92:b8:cf:90:33:9b:44:da:49:6d:58:26:80:d6:3b:c9:db:
         3e:30:8a:ed:9c:eb:b8:49:02:40:5a:d8:4a:47:3a:10:ae:9c:
         43:37:e2:de:cf:63:d8:8b:8f:81:f1:cd:f3:ae:26:de:90:b6:
         96:0c:e9:b0:9a:ee:cf:21:95:f4:8e:38:dc:f4:ac:d0:41:04:
         68:fc:e9:d5:e8:8a:3b:af:0f:2a:5f:51:2d:e9:2d:53:7b:c6:
         19:84:30:38:5d:f3:6a:e7:4b:7e:e5:18:05:b8:f4:38:af:d4:
         cb:ff:93:ab:e2:1e:35:f6:b7:d6:10:7e:d1:d1:fd:26:4c:39:
         73:88:85:4e:0d:5e:3b:3a:94:fa:c0:2c:86:8d:23:bc:d2:20:
         c4:14:6f:1a:98:71:b4:8c:1d:5e:78:98:89:57:f9:79:d6:4f:
         3a:30:ff:6d:9c:39:6b:77:03:ee:4e:fd:8a:2e:98:0a:d0:d6:
         a4:65:6b:03:e8:d6:ad:0f:b3:c7:83:4d:90:0f:9c:7e:5f:8b:
         b3:31:39:bd:f4:62:1a:2b:d6:ad:09:c8:67:eb:dc:58:aa:36:
         be:f5:a4:65
-----BEGIN CERTIFICATE-----
MIIE6jCCA9KgAwIBAgIRAMIdtwaxQCr06RXXPL/95UcwDQYJKoZIhvcNAQELBQAw
QzELMAkGA1UEBhMCRVUxEDAOBgNVBAoTB1NvbWUgQ0ExIjAgBgNVBAMTGUZha2Ug
Q0EgZm9yIHpsaW50IHRlc3RpbmcwHhcNMjAwMTI5MDAwMDAwWhcNMjEwMTI4MDAw
MDAwWjCBwzELMAkGA1UEBhMCSVQxHzAdBgNVBAgTFlNvbWUgU3RhdGUgb3IgUHJv
dmluY2UxEjAQBgNVBAcTCVNvbWV3aGVyZTEaMBgGA1UEChMRU29tZSBDb21wYW55
IEx0ZC4xFDASBgNVBAMTC2V4YW1wbGUuY29tMRMwEQYDVQQFEwoxMjM0NTY3ODkw
MR0wGwYDVQQPExRQcml2YXRlIE9yZ2FuaXphdGlvbjEZMBcGA1UEYRMQVkFUSVQt
MTIzNDU2Nzg5MDCCASIwDQYJKoZIhvcNAQEBBQADggEPADCCAQoCggEBAKZwaZ2L
NPsz8tjKVErWMi8bv5vPOCycMDMSGTROG67fkmekZTxow2MGQMqqys7S2RFptNvT
yEZ7fCFv/B9Nl8QMW3Sm7TrqGl+NO5/t4gKWqbajS49qAJfNShAkKLJosDodfTdE
GmqGRG6e9gw+dNLM6/yISjtn+vikd/2jaR28AmJgf6OzksDsBxxbcL5Uc/tEjRIy
lvbsKDJLWqXUG+njLvsLsGsT5oTOdH/Mv0DL16vfe8HZpzNe4+hXlbfOPFKnGDjA
BRUYwE9MQl+XA/b9EtRuUdja0K87/eR0ulyuMH7UBBbLVipQjigs7zPK4AkgHbAe
5j2/wLV6dMHT8vkCAwEAAaOCAVYwggFSMA4GA1UdDwEB/wQEAwIFoDAdBgNVHSUE
FjAUBggrBgEFBQcDAgYIKwYBBQUHAwEwHQYDVR0OBBYEFAhfp50kmd0jSQNmTcwY
1nKHtZ2dMB8GA1UdIwQYMBaAFOi29nZL0DvlRqX5VNR+B7PeDWA+MGQGCCsGAQUF
BwEBBFgwVjApBggrBgEFBQcwAYYdaHR0cDovL2NhLnNvbWVjYS1pbmMuY29tL29j
c3AwKQYIKwYBBQUHMAKGHWh0dHA6Ly9jYS5zb21lY2EtaW5jLmNvbS9yb290MBYG
A1UdEQQPMA2CC2V4YW1wbGUuY29tMBIGA1UdIAQLMAkwBwYFZ4EMAQEwLQYDVR0f
BCYwJDAioCCgHoYcaHR0cDovL2NhLnNvbWVjYS1pbmMuY29tL2NybDAgBgVngQwD
AQQXMBUTA1ZBVBMCQkUMCjEyMzQ1Njc4OTAwDQYJKoZIhvcNAQELBQADggEBAJHC
4EX/x9KyykmuvISZuR731dMrJm9Ur1dI+9mOirfwPCMhVtuSuM+QM5tE2kltWCaA
1jvJ2z4wiu2c67hJAkBa2EpHOhCunEM34t7PY9iLj4HxzfOuJt6QtpYM6bCa7s8h
lfSOONz0rNBBBGj86dXoijuvDypfUS3pLVN7xhmEMDhd82rnS37lGAW49Div1Mv/
k6viHjX2t9YQftHR/SZMOXOIhU4NXjs6lPrALIaNI7zSIMQUbxqYcbSMHV54mIlX
+XnWTzow/22cOWt3A+5O/YoumArQ1qRlawPo1q0Ps8eDTZAPnH5fi7MxOb30Yhor
1q0JyGfr3FiqNr71pGU=
-----END CERTIFICATE-----
