Certificate:
    Data:
        Version: 3 (0x2)
        Serial Number:
            f7:27:d7:bd:69:ed:73:0b:8e:65:c8:6d:fa:93:99:43
        Signature Algorithm: sha256WithRSAEncryption
        Issuer: C = EU, O = Some CA, CN = Fake CA for zlint testing
        Validity
            Not Before: Mar 29 13:44:08 2024 GMT
            Not After : Mar 29 13:44:08 2025 GMT
        Subject: C = IT, ST = Some State or Province, L = Somewhere, O = Some Company Ltd., CN = example.com, serialNumber = 1234567890, businessCategory = Private Organization, organizationIdentifier = VATIT-1234567890
        Subject Public Key Info:
            Public Key Algorithm: rsaEncryption
                RSA Public-Key: (2048 bit)
                Modulus:
                    00:f0:0f:d1:5d:1d:7c:b3:6d:32:12:91:de:fe:e6:
                    d0:e1:b1:4a:e8:20:47:7e:2b:90:07:36:57:09:4e:
                    69:6e:99:2f:0d:73:0d:87:2e:e0:5d:ff:93:bf:97:
                    6c:ed:76:e4:aa:c9:78:94:15:e9:c5:16:5b:a1:29:
                    3f:05:93:b0:31:ac:ec:66:91:aa:e7:32:2b:2f:41:
                    dc:cd:ac:16:84:f6:e7:c3:1b:46:f2:1a:4e:05:3d:
                    aa:d6:28:a5:0f:30:3d:92:2b:a8:1a:7b:2b:c1:46:
                    b3:69:c5:aa:53:22:62:38:66:55:94:37:99:7d:29:
                    10:32:92:8b:c4:6b:f2:df:20:63:a2:01:a3:7b:33:
                    2f:ca:32:07:fd:ee:03:70:15:7e:8a:d5:51:b9:70:
                    20:5a:f1:dc:e5:cd:c1:ac:10:01:69:f5:28:4b:9b:
                    1f:c0:3b:9f:bb:5a:8d:15:d0:10:ab:b0:b1:be:06:
                    d7:35:e6:69:1f:49:8e:72:98:98:fd:b0:f5:a4:96:
                    93:47:c2:0a:7d:b8:b0:b7:f8:98:e1:50:3a:93:af:
                    89:ba:82:27:6f:64:7c:e4:12:6c:ed:cd:99:26:d2:
                    00:48:aa:88:80:aa:6d:27:d4:3e:da:6e:81:df:af:
                    ed:62:71:5c:5c:2e:04:d2:40:41:9e:27:41:a5:83:
                    80:a9
                Exponent: 65537 (0x10001)
        X509v3 extensions:
            X509v3 Key Usage: critical
                Digital Signature, Key Encipherment
            X509v3 Extended Key Usage: 
                TLS Web Client Authentication, TLS Web Server Authentication
            X509v3 Subject Key Identifier: 
                9F:27:0B:BA:3F:95:33:55:C2:00:FA:86:DA:F6:9A:D4:21:E8:34:EF
            X509v3 Authority Key Identifier: 
                keyid:E8:B6:F6:76:4B:D0:3B:E5:46:A5:F9:54:D4:7E:07:B3:DE:0D:60:3E

            Authority Information Access: 
                OCSP - URI:http://ca.someca-inc.com/ocsp
                CA Issuers - URI:http://ca.someca-inc.com/root

            X509v3 Subject Alternative Name: 
                DNS:example.com
            X509v3 Certificate Policies: 
                Policy: 2.23.140.1.2.2

            X509v3 CRL Distribution Points: 

                Full Name:
                  URI:http://ca.someca-inc.com/crl

            2.23.140.3.1: 
                0...NTR..IT.
1234567890
    Signature Algorithm: sha256WithRSAEncryption
         a8:e4:dc:fb:9d:f5:cd:5e:8c:e4:43:c1:d8:cc:f7:0f:c4:57:
         09:ef:47:15:c4:a4:81:56:13:c3:f1:ae:a7:f0:12:fe:90:97:
         da:97:60:b2:32:19:68:b1:19:b4:ec:58:b4:0b:7c:d8:ed:08:
         3b:a5:38:dd:c3:f0:86:6b:c4:7c:24:d5:e3:7f:52:4d:af:c2:
         4c:b2:43:5d:9a:12:e6:11:7d:a3:4e:28:24:39:94:b0:82:2c:
         2a:fc:ef:5f:2e:77:0c:35:f8:26:5d:ef:5d:3c:f2:a0:61:78:
         f8:7c:ad:43:73:f7:64:be:ad:6c:6e:a0:6b:3e:14:dd:f7:15:
         bf:e3:e0:d9:89:8d:df:73:68:0b:30:ab:31:3c:a6:53:d6:ed:
         0c:39:32:09:ed:aa:ae:65:4a:1f:ce:9b:2d:a7:a1:13:00:a4:
         5a:d1:95:7f:7d:77:31:72:a7:4b:35:e2:9d:ff:d1:45:5f:34:
         01:1f:40:8b:ce:2a:b8:3f:7e:39:6e:23:29:6e:07:d5:f3:d1:
         dd:10:07:ef:fc:3d:78:81:2d:23:10:95:1f:89:a0:54:ef:e1:
         1b:bb:22:cf:eb:0d:1a:05:3f:1c:f1:d9:9d:6d:42:f8:a8:b8:
         48:5f:95:82:aa:c3:7e:a5:a5:3f:bf:24:ab:4a:0c:16:43:1d:
         70:37:ca:7c
-----BEGIN CERTIFICATE-----
MIIE6zCCA9OgAwIBAgIRAPcn171p7XMLjmXIbfqTmUMwDQYJKoZIhvcNAQELBQAw
QzELMAkGA1UEBhMCRVUxEDAOBgNVBAoTB1NvbWUgQ0ExIjAgBgNVBAMTGUZha2Ug
Q0EgZm9yIHpsaW50IHRlc3RpbmcwHhcNMjQwMzI5MTM0NDA4WhcNMjUwMzI5MTM0
NDA4WjCBwzELMAkGA1UEBhMCSVQxHzAdBgNVBAgTFlNvbWUgU3RhdGUgb3IgUHJv
dmluY2UxEjAQBgNVBAcTCVNvbWV3aGVyZTEaMBgGA1UEChMRU29tZSBDb21wYW55
IEx0ZC4xFDASBgNVBAMTC2V4YW1wbGUuY29tMRMwEQYDVQQFEwoxMjM0NTY3ODkw
MR0wGwYDVQQPExRQcml2YXRlIE9yZ2FuaXphdGlvbjEZMBcGA1UEYRMQVkFUSVQt
MTIzNDU2Nzg5MDCCASIwDQYJKoZIhvcNAQEBBQADggEPADCCAQoCggEBAPAP0V0d
fLNtMhKR3v7m0OGxSuggR34rkAc2VwlOaW6ZLw1zDYcu4F3/k7+XbO125KrJeJQV
6cUWW6EpPwWTsDGs7GaRqucyKy9B3M2sFoT258MbRvIaTgU9qtYopQ8wPZIrqBp7
K8FGs2nFqlMiYjhmVZQ3mX0pEDKSi8Rr8t8gY6IBo3szL8oyB/3uA3AVforVUblw
IFrx3OXNwawQAWn1KEubH8A7n7tajRXQEKuwsb4G1zXmaR9JjnKYmP2w9aSWk0fC
Cn24sLf4mOFQOpOvibqCJ29kfOQSbO3NmSbSAEiqiICqbSfUPtpugd+v7WJxXFwu
BNJAQZ4nQaWDgKkCAwEAAaOCAVcwggFTMA4GA1UdDwEB/wQEAwIFoDAdBgNVHSUE
FjAUBggrBgEFBQcDAgYIKwYBBQUHAwEwHQYDVR0OBBYEFJ8nC7o/lTNVwgD6htr2
mtQh6DTvMB8GA1UdIwQYMBaAFOi29nZL0DvlRqX5VNR+B7PeDWA+MGQGCCsGAQUF
BwEBBFgwVjApBggrBgEFBQcwAYYdaHR0cDovL2NhLnNvbWVjYS1pbmMuY29tL29j
c3AwKQYIKwYBBQUHMAKGHWh0dHA6Ly9jYS5zb21lY2EtaW5jLmNvbS9yb290MBYG
A1UdEQQPMA2CC2V4YW1wbGUuY29tMBMGA1UdIAQMMAowCAYGZ4EMAQICMC0GA1Ud
HwQmMCQwIqAgoB6GHGh0dHA6Ly9jYS5zb21lY2EtaW5jLmNvbS9jcmwwIAYFZ4EM
AwEEFzAVEwNOVFITAklUDAoxMjM0NTY3ODkwMA0GCSqGSIb3DQEBCwUAA4IBAQCo
5Nz7nfXNXozkQ8HYzPcPxFcJ70cVxKSBVhPD8a6n8BL+kJfal2CyMhlosRm07Fi0
C3zY7Qg7pTjdw/CGa8R8JNXjf1JNr8JMskNdmhLmEX2jTigkOZSwgiwq/O9fLncM
NfgmXe9dPPKgYXj4fK1Dc/dkvq1sbqBrPhTd9xW/4+DZiY3fc2gLMKsxPKZT1u0M
OTIJ7aquZUofzpstp6ETAKRa0ZV/fXcxcqdLNeKd/9FFXzQBH0CLziq4P345biMp
bgfV89HdEAfv/D14gS0jEJUfiaBU7+EbuyLP6w0aBT8c8dmdbUL4qLhIX5WCqsN+
paU/vySrSgwWQx1wN8p8
-----END CERTIFICATE-----
