Certificate:
    Data:
        Version: 3 (0x2)
        Serial Number:
            a6:94:17:72:37:47:c7:98:f1:a3:59:27:3a:60:6a:4d
        Signature Algorithm: sha256WithRSAEncryption
        Issuer: C = EU, O = Some CA, CN = Fake CA for zlint testing
        Validity
            Not Before: Mar 29 15:05:33 2024 GMT
            Not After : Mar 29 15:05:33 2025 GMT
        Subject: C = IT, ST = Some State or Province, L = Somewhere, O = Some Company Ltd., CN = example.com, serialNumber = 1234567890, businessCategory = Private Organization
        Subject Public Key Info:
            Public Key Algorithm: rsaEncryption
                RSA Public-Key: (2048 bit)
                Modulus:
                    00:ef:fe:60:e2:81:13:db:ff:b7:ee:2d:5a:f4:ec:
                    3c:44:a7:e0:7a:8f:98:31:70:53:29:85:d0:77:02:
                    a0:49:93:89:6c:82:c4:95:12:44:a5:8a:d9:46:f1:
                    19:84:d8:91:e7:be:5a:5e:2e:92:b4:f8:ae:b5:d9:
                    37:5b:fc:b8:6c:44:4b:74:af:e7:7c:44:5c:2e:b3:
                    26:be:77:99:95:9a:f3:51:78:24:38:48:d4:9c:94:
                    3c:2d:ea:c7:9f:d7:1c:56:50:71:2f:f1:56:3e:2e:
                    e4:33:de:ba:28:c9:79:aa:e4:69:bf:46:f1:35:b3:
                    70:13:45:67:55:84:e2:a3:1f:e2:9a:3d:8a:bc:62:
                    4b:fd:fd:a0:a1:46:0a:5d:97:fc:81:ee:11:d9:a4:
                    05:b8:b2:b9:05:44:15:47:ef:ec:3c:10:6f:04:04:
                    93:7a:ce:b5:9b:92:bb:c1:49:2a:61:cc:3e:0e:cc:
                    2a:8a:7a:14:6c:a6:cd:39:d5:33:a6:e8:b6:e0:95:
                    76:92:ea:91:ee:76:4d:6b:1d:17:6f:7a:20:f2:5b:
                    3d:8c:94:30:5b:db:5d:98:8f:ea:3a:85:0f:e3:07:
                    8b:84:93:e5:e1:45:34:66:d3:9c:26:91:cb:28:03:
                    0a:07:0b:9c:7e:17:8b:06:a5:c4:8d:5a:77:97:4f:
                    47:f5
                Exponent: 65537 (0x10001)
        X509v3 extensions:
            X509v3 Key Usage: critical
                Digital Signature, Key Encipherment
            X509v3 Extended Key Usage: 
                TLS Web Client Authentication, TLS Web Server Authentication
            X509v3 Subject Key Identifier: 
                E6:C2:40:43:AB:57:32:1A:E1:E6:48:76:C4:67:7A:9F:3D:57:E1:6E
            X509v3 Authority Key Identifier: 
                keyid:E8:B6:F6:76:4B:D0:3B:E5:46:A5:F9:54:D4:7E:07:B3:DE:0D:60:3E

            Authority Information Access: 
                OCSP - URI:http://ca.someca-inc.com/ocsp
                CA Issuers - URI:http://ca.someca-inc.com/root

            X509v3 Subject Alternative Name: 
                DNS:example.com
            X509v3 Certificate Policies: 
                Policy: 2.23.140.1.1

            X509v3 CRL Distribution Points: 

                Full Name:
                  URI:http://ca.someca-inc.com/crl

    Signature Algorithm: sha256WithRSAEncryption
         a7:6d:a4:f3:d5:db:f7:73:79:43:3f:b6:f5:7a:fc:00:88:58:
         cf:ec:05:6e:55:df:82:25:6b:f8:d8:0c:0a:c0:00:d9:5a:57:
         94:e6:0e:02:3a:43:fb:d1:b9:68:11:d8:2f:04:49:2e:ea:fc:
         33:16:d9:2f:f7:05:7d:06:1f:2e:f6:47:a2:78:ab:f3:25:01:
         aa:dc:3c:d7:62:60:9b:7f:bb:46:fa:ab:ed:56:61:58:87:f2:
         24:db:4c:0b:ad:3a:56:d3:73:2c:04:2c:33:d7:1a:52:76:a3:
         db:85:a9:ce:01:42:38:dc:77:5a:fe:9a:0f:d2:9a:70:e2:f9:
         26:f9:e8:fd:be:a7:a3:37:9d:f5:21:81:1d:69:06:f5:37:43:
         2b:30:92:be:20:df:b3:e4:5b:ec:04:9a:ba:64:65:17:a9:2a:
         4b:7d:ea:fa:ad:83:8c:00:f6:ea:1b:bb:cd:22:26:99:ba:1f:
         3e:4f:bd:e9:b0:67:d7:27:91:97:9d:e6:cb:c4:a4:7e:bf:31:
         de:2b:e6:d7:14:89:fe:13:b2:db:ed:74:ab:8e:16:15:be:a6:
         1c:60:52:4f:8f:bf:67:bb:0d:7d:62:e2:66:70:2b:89:1e:32:
         a5:1a:8e:b2:82:e2:90:bc:15:19:8f:93:41:2c:a4:ac:cb:df:
         f7:8c:43:7a
-----BEGIN CERTIFICATE-----
MIIErTCCA5WgAwIBAgIRAKaUF3I3R8eY8aNZJzpgak0wDQYJKoZIhvcNAQELBQAw
QzELMAkGA1UEBhMCRVUxEDAOBgNVBAoTB1NvbWUgQ0ExIjAgBgNVBAMTGUZha2Ug
Q0EgZm9yIHpsaW50IHRlc3RpbmcwHhcNMjQwMzI5MTUwNTMzWhcNMjUwMzI5MTUw
NTMzWjCBqDELMAkGA1UEBhMCSVQxHzAdBgNVBAgTFlNvbWUgU3RhdGUgb3IgUHJv
dmluY2UxEjAQBgNVBAcTCVNvbWV3aGVyZTEaMBgGA1UEChMRU29tZSBDb21wYW55
IEx0ZC4xFDASBgNVBAMTC2V4YW1wbGUuY29tMRMwEQYDVQQFEwoxMjM0NTY3ODkw
MR0wGwYDVQQPExRQcml2YXRlIE9yZ2FuaXphdGlvbjCCASIwDQYJKoZIhvcNAQEB
BQADggEPADCCAQoCggEBAO/+YOKBE9v/t+4tWvTsPESn4HqPmDFwUymF0HcCoEmT
iWyCxJUSRKWK2UbxGYTYkee+Wl4ukrT4rrXZN1v8uGxES3Sv53xEXC6zJr53mZWa
81F4JDhI1JyUPC3qx5/XHFZQcS/xVj4u5DPeuijJearkab9G8TWzcBNFZ1WE4qMf
4po9irxiS/39oKFGCl2X/IHuEdmkBbiyuQVEFUfv7DwQbwQEk3rOtZuSu8FJKmHM
Pg7MKop6FGymzTnVM6botuCVdpLqke52TWsdF296IPJbPYyUMFvbXZiP6jqFD+MH
i4ST5eFFNGbTnCaRyygDCgcLnH4XiwalxI1ad5dPR/UCAwEAAaOCATQwggEwMA4G
A1UdDwEB/wQEAwIFoDAdBgNVHSUEFjAUBggrBgEFBQcDAgYIKwYBBQUHAwEwHQYD
VR0OBBYEFObCQEOrVzIa4eZIdsRnep89V+FuMB8GA1UdIwQYMBaAFOi29nZL0Dvl
RqX5VNR+B7PeDWA+MGQGCCsGAQUFBwEBBFgwVjApBggrBgEFBQcwAYYdaHR0cDov
L2NhLnNvbWVjYS1pbmMuY29tL29jc3AwKQYIKwYBBQUHMAKGHWh0dHA6Ly9jYS5z
b21lY2EtaW5jLmNvbS9yb290MBYGA1UdEQQPMA2CC2V4YW1wbGUuY29tMBIGA1Ud
IAQLMAkwBwYFZ4EMAQEwLQYDVR0fBCYwJDAioCCgHoYcaHR0cDovL2NhLnNvbWVj
YS1pbmMuY29tL2NybDANBgkqhkiG9w0BAQsFAAOCAQEAp22k89Xb93N5Qz+29Xr8
AIhYz+wFblXfgiVr+NgMCsAA2VpXlOYOAjpD+9G5aBHYLwRJLur8MxbZL/cFfQYf
LvZHonir8yUBqtw812Jgm3+7Rvqr7VZhWIfyJNtMC606VtNzLAQsM9caUnaj24Wp
zgFCONx3Wv6aD9KacOL5Jvno/b6nozed9SGBHWkG9TdDKzCSviDfs+Rb7ASaumRl
F6kqS33q+q2DjAD26hu7zSImmbofPk+96bBn1yeRl53my8Skfr8x3ivm1xSJ/hOy
2+10q44WFb6mHGBST4+/Z7sNfWLiZnAriR4ypRqOsoLikLwVGY+TQSykrMvf94xD
eg==
-----END CERTIFICATE-----
