Certificate:
    Data:
        Version: 3 (0x2)
        Serial Number: 18008675309 (0x4316693ed)
    Signature Algorithm: sha256WithRSAEncryption
        Issuer: C = US, O = Mother Nature, OU = Everything, CN = Mother Nature
        Validity
            Not Before: Jun 30 19:03:31 2016 GMT
            Not After : Sep 11 19:03:31 2016 GMT
        Subject: C = US, O = Extreme Discord, OU = Chaos, street = 3210 Holly Mill Run, postalCode = 30062, CN = gov.us
        Subject Public Key Info:
            Public Key Algorithm: rsaEncryption
                Public-Key: (2048 bit)
                Modulus:
                    00:c2:d1:68:e1:0a:1e:de:2c:7c:e9:49:7b:d2:9d:
                    e2:dc:d6:bd:a0:3c:d1:25:25:63:08:5e:d3:2c:54:
                    9b:87:8b:38:a4:0a:55:ec:37:4a:91:8c:17:1b:ad:
                    f1:02:3f:ea:a3:e2:61:84:02:ac:3f:74:35:5c:ad:
                    38:14:a4:94:48:92:e6:4b:4c:2b:e1:17:1c:b8:91:
                    b4:02:dd:a1:7e:81:72:c8:4a:8d:72:c5:17:42:a2:
                    51:a9:ad:e9:65:a1:dc:1d:81:b1:6a:37:a4:ce:99:
                    78:48:bd:66:67:91:81:a8:b8:2d:ca:be:bf:c7:f0:
                    d2:f3:c2:16:8d:f9:de:21:7f:53:fd:da:b5:1d:cf:
                    a3:d3:8e:ff:12:d4:7a:5b:62:29:5e:98:29:5c:4f:
                    8f:61:7c:c7:57:b6:a4:e5:00:9b:e7:10:0d:61:ba:
                    49:01:30:fc:3d:0a:fc:8b:34:a0:4b:2c:15:b3:63:
                    48:9b:a7:43:f4:d2:b2:84:1d:4e:eb:48:ab:76:a7:
                    19:26:22:a5:8a:27:d4:20:5f:23:00:b3:56:d3:17:
                    f1:83:69:46:d2:2c:70:c5:15:2e:37:24:34:c3:a2:
                    6d:20:8b:8a:17:c9:41:d5:bd:ac:f5:04:ad:c7:14:
                    40:9b:1f:c0:08:59:62:28:29:c0:1e:1e:67:f6:dd:
                    41:59
                Exponent: 65537 (0x10001)
        X509v3 extensions:
            X509v3 Key Usage: critical
                Digital Signature, Key Encipherment
            X509v3 Extended Key Usage: 
                TLS Web Client Authentication, TLS Web Server Authentication
            X509v3 Basic Constraints: critical
                CA:FALSE
            X509v3 Authority Key Identifier: 
                keyid:01:02:03

            Authority Information Access: 
                OCSP - URI:http://theca.net/ocsp
                CA Issuers - URI:http://theca.net/totallythecert.crt

            X509v3 Certificate Policies: 
                Policy: 2.23.140.1.2.2

            X509v3 Subject Key Identifier: 
                04:03:02:01
            X509v3 Subject Alternative Name: 
                DNS:*.gov.us, DNS:gov.us
    Signature Algorithm: sha256WithRSAEncryption
         45:28:67:74:bf:b9:d2:6b:f3:e9:62:bb:d9:53:63:e3:10:13:
         52:9d:1e:12:8a:5b:02:7a:19:82:bd:9d:d8:aa:e2:6a:ff:d3:
         9c:c3:88:04:0d:09:df:01:c8:a5:e5:e9:b2:19:86:bb:51:fa:
         83:bc:8f:eb:07:86:4b:f3:b7:94:11:24:0b:be:e7:be:31:56:
         f9:de:ae:c4:b9:42:b2:5f:14:ee:7e:ff:78:fe:b2:12:a9:a7:
         70:94:50:3d:77:07:c5:23:f9:4b:89:67:c3:8d:4d:4e:42:42:
         25:30:e0:4d:bf:69:21:34:06:a9:47:83:f2:2f:51:2a:d5:08:
         04:74:80:1a:7c:66:54:0d:7a:a4:5a:26:d8:f8:54:bd:7f:e8:
         0b:3d:f7:48:35:12:14:6c:1b:bd:06:8f:2b:34:07:71:db:37:
         65:85:43:99:76:03:e6:d8:53:c6:a0:f4:f9:4b:7c:c0:2c:24:
         ff:7d:32:56:75:b8:d8:bd:66:81:b8:18:8b:5c:5c:2c:b9:74:
         ba:1c:fc:1c:25:ae:92:31:cb:24:b2:79:a7:15:38:db:b0:62:
         53:a6:e0:cf:0a:fd:14:fa:d0:e3:37:f5:76:e7:17:ba:99:d2:
         fd:0b:a9:ab:10:4e:5b:97:9a:37:e1:41:ff:9d:bb:45:a2:2c:
         b7:07:b5:b1
-----BEGIN CERTIFICATE-----
MIIEPTCCAyWgAwIBAgIFBDFmk+0wDQYJKoZIhvcNAQELBQAwUjELMAkGA1UEBhMC
VVMxFjAUBgNVBAoTDU1vdGhlciBOYXR1cmUxEzARBgNVBAsTCkV2ZXJ5dGhpbmcx
FjAUBgNVBAMTDU1vdGhlciBOYXR1cmUwHhcNMTYwNjMwMTkwMzMxWhcNMTYwOTEx
MTkwMzMxWjB2MQswCQYDVQQGEwJVUzEYMBYGA1UEChMPRXh0cmVtZSBEaXNjb3Jk
MQ4wDAYDVQQLEwVDaGFvczEcMBoGA1UECRMTMzIxMCBIb2xseSBNaWxsIFJ1bjEO
MAwGA1UEERMFMzAwNjIxDzANBgNVBAMTBmdvdi51czCCASIwDQYJKoZIhvcNAQEB
BQADggEPADCCAQoCggEBAMLRaOEKHt4sfOlJe9Kd4tzWvaA80SUlYwhe0yxUm4eL
OKQKVew3SpGMFxut8QI/6qPiYYQCrD90NVytOBSklEiS5ktMK+EXHLiRtALdoX6B
cshKjXLFF0KiUamt6WWh3B2BsWo3pM6ZeEi9ZmeRgai4Lcq+v8fw0vPCFo353iF/
U/3atR3Po9OO/xLUeltiKV6YKVxPj2F8x1e2pOUAm+cQDWG6SQEw/D0K/Is0oEss
FbNjSJunQ/TSsoQdTutIq3anGSYipYon1CBfIwCzVtMX8YNpRtIscMUVLjckNMOi
bSCLihfJQdW9rPUErccUQJsfwAhZYigpwB4eZ/bdQVkCAwEAAaOB9TCB8jAOBgNV
HQ8BAf8EBAMCBaAwHQYDVR0lBBYwFAYIKwYBBQUHAwIGCCsGAQUFBwMBMAwGA1Ud
EwEB/wQCMAAwDgYDVR0jBAcwBYADAQIDMGIGCCsGAQUFBwEBBFYwVDAhBggrBgEF
BQcwAYYVaHR0cDovL3RoZWNhLm5ldC9vY3NwMC8GCCsGAQUFBzAChiNodHRwOi8v
dGhlY2EubmV0L3RvdGFsbHl0aGVjZXJ0LmNydDATBgNVHSAEDDAKMAgGBmeBDAEC
AjANBgNVHQ4EBgQEBAMCATAbBgNVHREEFDASgggqLmdvdi51c4IGZ292LnVzMA0G
CSqGSIb3DQEBCwUAA4IBAQBFKGd0v7nSa/PpYrvZU2PjEBNSnR4SilsCehmCvZ3Y
quJq/9Ocw4gEDQnfAcil5emyGYa7UfqDvI/rB4ZL87eUESQLvue+MVb53q7EuUKy
XxTufv94/rISqadwlFA9dwfFI/lLiWfDjU1OQkIlMOBNv2khNAapR4PyL1Eq1QgE
dIAafGZUDXqkWibY+FS9f+gLPfdINRIUbBu9Bo8rNAdx2zdlhUOZdgPm2FPGoPT5
S3zALCT/fTJWdbjYvWaBuBiLXFwsuXS6HPwcJa6SMcsksnmnFTjbsGJTpuDPCv0U
+tDjN/V25xe6mdL9C6mrEE5bl5o34UH/nbtFoiy3B7Wx
-----END CERTIFICATE-----
