Certificate:
    Data:
        Version: 3 (0x2)
        Serial Number: 18008675309 (0x4316693ed)
    Signature Algorithm: sha256WithRSAEncryption
        Issuer: C = US, O = Mother Nature, OU = Everything, CN = Mother Nature
        Validity
            Not Before: Jun 30 19:01:54 2016 GMT
            Not After : Sep 11 19:01:54 2016 GMT
        Subject: C = US, O = Extreme Discord, OU = Chaos, L = Tallahassee, street = 3210 Holly Mill Run, postalCode = 30062, CN = gov.us
        Subject Public Key Info:
            Public Key Algorithm: rsaEncryption
                Public-Key: (2048 bit)
                Modulus:
                    00:e9:26:82:b4:3e:d2:89:7e:d2:80:cb:4a:6d:ff:
                    5d:7f:85:e9:3f:32:ba:70:6a:64:52:d7:29:28:4d:
                    96:5b:3d:99:2b:ca:41:91:6c:0b:e6:53:48:5d:eb:
                    b2:00:28:e1:fa:91:a8:d4:80:9c:c2:55:f0:09:00:
                    39:e7:9d:e2:51:aa:10:ee:32:26:0f:6c:fe:94:f7:
                    ce:77:91:21:a0:b6:7b:a5:92:ff:c7:0c:41:97:c5:
                    50:85:bc:cd:d6:4b:14:f2:55:e2:01:f8:ca:e9:34:
                    94:2c:3d:b9:15:67:5b:d0:ec:b5:d9:39:23:04:7b:
                    cc:8b:a7:aa:ed:9c:e5:51:99:a6:22:c7:a9:20:d1:
                    16:a0:77:95:03:60:76:99:a8:c3:e2:90:07:d3:71:
                    73:32:f9:43:c8:f8:80:a6:68:d0:ea:bb:2a:1d:35:
                    07:a1:8b:ea:76:7c:a0:77:de:54:c7:ed:63:84:67:
                    76:63:b8:d6:5e:61:b7:fe:b1:5c:59:6e:31:b3:e2:
                    00:e2:e0:2c:3f:b1:1b:66:92:1d:74:cd:da:fe:dd:
                    cc:39:e5:0d:2c:c4:02:5a:a9:9f:a4:fc:0f:d3:c3:
                    55:fe:11:a3:98:2c:d4:28:be:9e:25:5c:76:5c:50:
                    4d:b7:66:23:82:69:b0:3c:34:b7:90:5f:6c:06:ee:
                    b8:01
                Exponent: 65537 (0x10001)
        X509v3 extensions:
            X509v3 Key Usage: critical
                Digital Signature, Key Encipherment
            X509v3 Extended Key Usage: 
                TLS Web Client Authentication, TLS Web Server Authentication
            X509v3 Basic Constraints: critical
                CA:FALSE
            X509v3 Authority Key Identifier: 
                keyid:01:02:03

            Authority Information Access: 
                OCSP - URI:http://theca.net/ocsp
                CA Issuers - URI:http://theca.net/totallythecert.crt

            X509v3 Certificate Policies: 
                Policy: 2.23.140.1.2.2

            X509v3 Subject Key Identifier: 
                04:03:02:01
            X509v3 Subject Alternative Name: 
                DNS:*.gov.us, DNS:gov.us
    Signature Algorithm: sha256WithRSAEncryption
         4d:18:7f:69:0c:19:6d:45:29:a5:42:6e:26:df:f0:d4:f0:31:
         cd:86:34:e7:e1:c3:cf:15:c8:91:9a:3a:e4:b6:da:21:5a:98:
         15:f9:c4:0c:f9:35:d6:49:3d:ca:94:05:58:fe:d7:c7:23:23:
         7c:49:20:58:a7:3b:2e:de:61:1f:98:e4:07:47:05:1c:7b:9a:
         06:50:df:95:f3:d7:ff:8b:6c:96:e7:d4:69:1e:f2:89:56:d9:
         fd:ed:f7:9d:62:36:72:52:6f:09:bd:2b:c1:11:cf:d8:4a:1d:
         94:b8:e9:b8:c9:55:19:48:08:02:65:d0:5d:11:76:d0:aa:dc:
         a6:45:f3:bc:0e:58:aa:02:69:5b:b8:50:92:a3:e4:a4:58:3e:
         94:8a:55:bb:bd:ac:e4:f5:6f:f7:75:53:65:ab:5c:c2:92:9c:
         90:f3:ea:d3:94:97:38:a3:88:ca:a1:5d:eb:ad:4b:51:a4:b5:
         7a:a9:f6:83:99:91:fc:da:a1:d8:ef:f6:77:50:e3:f0:5a:15:
         8c:8e:c0:06:9d:10:8e:39:e3:ce:b5:27:84:7a:f1:5a:92:56:
         f9:dd:5e:a8:85:50:31:13:6d:f2:90:0a:37:31:96:1d:1f:57:
         8e:97:12:85:2b:a8:ae:73:7a:9d:57:56:9c:7d:fd:78:5f:59:
         56:6c:bc:73
-----BEGIN CERTIFICATE-----
MIIEVDCCAzygAwIBAgIFBDFmk+0wDQYJKoZIhvcNAQELBQAwUjELMAkGA1UEBhMC
VVMxFjAUBgNVBAoTDU1vdGhlciBOYXR1cmUxEzARBgNVBAsTCkV2ZXJ5dGhpbmcx
FjAUBgNVBAMTDU1vdGhlciBOYXR1cmUwHhcNMTYwNjMwMTkwMTU0WhcNMTYwOTEx
MTkwMTU0WjCBjDELMAkGA1UEBhMCVVMxGDAWBgNVBAoTD0V4dHJlbWUgRGlzY29y
ZDEOMAwGA1UECxMFQ2hhb3MxFDASBgNVBAcTC1RhbGxhaGFzc2VlMRwwGgYDVQQJ
ExMzMjEwIEhvbGx5IE1pbGwgUnVuMQ4wDAYDVQQREwUzMDA2MjEPMA0GA1UEAxMG
Z292LnVzMIIBIjANBgkqhkiG9w0BAQEFAAOCAQ8AMIIBCgKCAQEA6SaCtD7SiX7S
gMtKbf9df4XpPzK6cGpkUtcpKE2WWz2ZK8pBkWwL5lNIXeuyACjh+pGo1ICcwlXw
CQA5553iUaoQ7jImD2z+lPfOd5EhoLZ7pZL/xwxBl8VQhbzN1ksU8lXiAfjK6TSU
LD25FWdb0Oy12TkjBHvMi6eq7ZzlUZmmIsepINEWoHeVA2B2majD4pAH03FzMvlD
yPiApmjQ6rsqHTUHoYvqdnygd95Ux+1jhGd2Y7jWXmG3/rFcWW4xs+IA4uAsP7Eb
ZpIddM3a/t3MOeUNLMQCWqmfpPwP08NV/hGjmCzUKL6eJVx2XFBNt2YjgmmwPDS3
kF9sBu64AQIDAQABo4H1MIHyMA4GA1UdDwEB/wQEAwIFoDAdBgNVHSUEFjAUBggr
BgEFBQcDAgYIKwYBBQUHAwEwDAYDVR0TAQH/BAIwADAOBgNVHSMEBzAFgAMBAgMw
YgYIKwYBBQUHAQEEVjBUMCEGCCsGAQUFBzABhhVodHRwOi8vdGhlY2EubmV0L29j
c3AwLwYIKwYBBQUHMAKGI2h0dHA6Ly90aGVjYS5uZXQvdG90YWxseXRoZWNlcnQu
Y3J0MBMGA1UdIAQMMAowCAYGZ4EMAQICMA0GA1UdDgQGBAQEAwIBMBsGA1UdEQQU
MBKCCCouZ292LnVzggZnb3YudXMwDQYJKoZIhvcNAQELBQADggEBAE0Yf2kMGW1F
KaVCbibf8NTwMc2GNOfhw88VyJGaOuS22iFamBX5xAz5NdZJPcqUBVj+18cjI3xJ
IFinOy7eYR+Y5AdHBRx7mgZQ35Xz1/+LbJbn1Gke8olW2f3t951iNnJSbwm9K8ER
z9hKHZS46bjJVRlICAJl0F0RdtCq3KZF87wOWKoCaVu4UJKj5KRYPpSKVbu9rOT1
b/d1U2WrXMKSnJDz6tOUlzijiMqhXeutS1GktXqp9oOZkfzaodjv9ndQ4/BaFYyO
wAadEI454861J4R68VqSVvndXqiFUDETbfKQCjcxlh0fV46XEoUrqK5zep1XVpx9
/XhfWVZsvHM=
-----END CERTIFICATE-----
