Certificate:
    Data:
        Version: 3 (0x2)
        Serial Number:
            4f:5a:a5:a9:90:c8:26:0d:1f:b1:84:99:a5:96:f1:90
        Signature Algorithm: sha256WithRSAEncryption
        Issuer: C = XX, O = Some CA, CN = Fake Root CA for zlint testing
        Validity
            Not Before: Nov 19 00:00:00 2023 GMT
            Not After : Nov 17 00:00:00 2028 GMT
        Subject: C = XX, ST = Some State, L = Some Locality, O = Some CA, OU = Some Department, CN = Fake CA for zlint testing
        Subject Public Key Info:
            Public Key Algorithm: rsaEncryption
                RSA Public-Key: (4096 bit)
                Modulus:
                    00:b6:fd:a9:6d:3a:3f:28:d4:b7:de:de:7b:40:7b:
                    4a:2b:3b:5e:a8:5a:e8:bb:09:cd:8d:0c:fa:8d:db:
                    e7:e0:c1:9e:90:ab:5f:c3:54:d3:ee:ec:76:ef:ba:
                    03:b4:01:ac:82:23:12:34:df:15:32:a8:02:5f:0d:
                    69:27:1e:79:4c:42:67:1f:12:5e:c4:12:cf:fd:b2:
                    a1:2e:ca:57:d6:f8:83:e9:33:0b:af:85:41:75:95:
                    2c:11:18:a5:51:4f:bb:03:b2:46:01:e8:79:0b:ab:
                    02:fd:18:37:b8:20:28:ad:bd:e8:e3:bf:27:58:ff:
                    c3:7c:c5:fa:0f:50:0b:3d:29:5f:ec:75:5e:13:6c:
                    4f:42:64:6e:92:3e:07:87:db:d9:21:78:53:d3:d4:
                    a4:c6:e6:62:9b:cc:b3:4e:db:df:de:4a:da:70:47:
                    2a:25:cf:da:2e:93:03:19:eb:0e:f2:fc:d3:84:02:
                    a1:43:81:75:1e:cb:a0:94:32:92:72:19:1b:84:37:
                    a2:5d:87:08:a9:d8:61:c7:7a:5c:1a:7f:08:21:bd:
                    1d:b2:0c:07:28:dc:1f:c7:3a:18:a5:8f:a0:90:53:
                    1c:a0:3f:06:37:a4:0e:33:53:79:8b:88:3c:36:96:
                    ff:e3:f6:e0:e2:09:1a:5e:fb:29:d6:f5:35:4d:3d:
                    b1:41:69:71:4e:80:12:ed:89:6b:6c:c7:ff:64:02:
                    51:28:9b:26:cc:1b:3d:03:53:ab:c6:a6:87:14:5f:
                    ea:29:3c:89:b8:49:3f:9f:7a:b5:e4:d1:bc:b4:0e:
                    7b:7f:e1:b4:46:9b:40:ad:d1:4d:cf:28:c9:82:03:
                    d6:4f:b1:25:10:d2:ec:83:07:c6:d1:d4:03:ca:b3:
                    f5:e4:1a:b1:f7:f1:40:03:23:9e:73:9e:f5:ba:c7:
                    65:7d:7b:61:77:9d:25:28:fe:a9:a0:8a:03:07:df:
                    72:e4:07:61:db:89:d5:de:1e:f7:0b:85:7e:23:05:
                    d3:96:f9:8c:24:42:69:36:7f:f8:30:df:e6:99:29:
                    8c:29:19:41:b6:0c:64:ac:1b:3b:10:32:b9:8f:12:
                    01:2c:7f:7b:f3:7a:bd:7e:2a:65:75:29:6a:b7:c2:
                    b0:74:f2:80:f3:0f:43:3c:50:98:b2:e8:36:e1:0b:
                    e6:f7:9d:90:c8:7b:80:c3:60:e2:f3:ec:a0:04:83:
                    7a:a2:17:16:bb:7e:a6:9f:98:1c:99:c7:05:15:5d:
                    bb:2a:7e:74:e0:07:8e:95:f7:7b:61:da:99:8f:e9:
                    42:93:8b:28:6f:77:f5:d7:31:49:19:bf:2b:c4:ac:
                    f5:72:8d:77:96:dc:ea:ec:3a:3f:2b:d4:1f:89:07:
                    14:47:87
                Exponent: 65537 (0x10001)
        X509v3 extensions:
            X509v3 Key Usage: critical
                Certificate Sign, CRL Sign
            X509v3 Extended Key Usage: 
                TLS Web Client Authentication, E-mail Protection
            X509v3 Basic Constraints: critical
                CA:TRUE
            X509v3 Subject Key Identifier: 
                13:4F:0B:AC:7A:3B:90:09:EE:E4:23:26:54:57:88:23:22:89:B8:1F
            X509v3 Authority Key Identifier: 
                keyid:E8:B6:F6:76:4B:D0:3B:E5:46:A5:F9:54:D4:7E:07:B3:DE:0D:60:3E

            Authority Information Access: 
                OCSP - URI:http://ca.someca-inc.com/ocsp
                CA Issuers - URI:http://ca.someca-inc.com/root

            X509v3 Certificate Policies: 
                Policy: X509v3 Any Policy

            X509v3 CRL Distribution Points: 

                Full Name:
                  URI:http://ca.someca-inc.com/crl

    Signature Algorithm: sha256WithRSAEncryption
         2d:b7:bb:f6:8f:b6:63:2e:e1:b6:97:9e:81:22:33:32:3c:03:
         f3:6c:14:1d:c1:44:7f:34:30:e5:01:47:5d:d2:b3:9d:34:cb:
         41:99:b2:c2:93:bc:5b:66:5e:99:08:f3:25:38:bf:1c:57:c8:
         2e:14:20:d8:6f:97:8c:f6:3c:b3:8a:53:e1:24:a4:c3:f8:38:
         1b:37:08:41:df:0d:1a:96:05:6f:15:12:a5:cf:4d:f0:08:4a:
         78:be:d1:c3:db:3c:de:e1:e7:91:a0:31:85:40:8c:ba:ab:c8:
         a2:16:86:c7:0c:64:81:d4:c1:6d:e0:c3:64:83:c8:3a:04:17:
         ab:6e:13:a1:f8:8d:e1:12:cf:f1:33:22:29:52:e0:a4:85:4e:
         69:97:45:8a:3f:75:4e:d3:4d:8f:18:f8:75:a2:6d:12:26:17:
         69:a4:c4:12:d3:c9:aa:cb:02:b6:aa:e8:1a:35:86:81:8d:cf:
         5f:41:e7:f0:e4:a8:fb:d4:35:51:8b:c5:4c:e8:a6:6a:28:a3:
         ae:c9:db:16:e2:a4:aa:1e:52:83:50:b4:49:60:c7:71:4a:be:
         2b:11:33:75:fe:18:b6:37:36:c4:b5:d2:66:18:bd:ac:39:b8:
         3d:26:ad:93:53:dc:c0:be:0c:58:4d:e7:eb:ca:eb:27:13:ed:
         30:e2:35:83:30:61:c5:6c:58:1b:e2:7e:23:af:c3:25:b4:c8:
         bc:fc:26:66:3a:a1:13:87:9b:94:c6:08:94:e5:80:a8:61:dc:
         a5:93:7c:58:db:3b:89:b4:39:bb:fa:c0:50:36:a3:84:29:90:
         e8:e7:63:39:2b:f1:d9:61:fb:29:09:09:32:e4:ce:30:b4:30:
         0d:a1:01:03:89:90:73:88:a5:e9:69:27:2e:d5:50:04:d9:aa:
         77:74:64:75:bb:3e:09:6c:2c:76:03:ad:49:69:24:57:ed:85:
         86:82:f4:8e:43:07:0e:67:b4:33:3b:af:c7:66:81:41:57:90:
         0d:c2:af:49:da:48:49:30:00:57:f8:32:ff:d0:6c:f2:fa:ea:
         5d:4e:0a:71:5a:d5:22:0a:65:78:72:28:64:6a:6d:bb:7a:72:
         84:af:05:92:35:d5:98:90:bd:3c:77:e6:32:cb:c4:a3:d9:a0:
         6b:cf:c5:f0:78:80:ac:4a:d5:05:e6:25:5c:68:9f:e2:ca:87:
         72:0d:e1:84:bd:10:46:dc:d8:8d:2d:5c:a6:13:d4:f6:0c:75:
         fe:2e:3d:9e:c8:71:52:3b:28:b6:6a:2d:b2:28:f4:86:9f:b1:
         0e:16:4a:24:7a:4d:ba:ce:95:0b:e3:c8:6d:b6:cd:e6:c0:bd:
         5d:0b:59:b6:5d:f8:be:5d
-----BEGIN CERTIFICATE-----
MIIGizCCBHOgAwIBAgIQT1qlqZDIJg0fsYSZpZbxkDANBgkqhkiG9w0BAQsFADBI
MQswCQYDVQQGEwJYWDEQMA4GA1UEChMHU29tZSBDQTEnMCUGA1UEAxMeRmFrZSBS
b290IENBIGZvciB6bGludCB0ZXN0aW5nMB4XDTIzMTExOTAwMDAwMFoXDTI4MTEx
NzAwMDAwMFowgYoxCzAJBgNVBAYTAlhYMRMwEQYDVQQIEwpTb21lIFN0YXRlMRYw
FAYDVQQHEw1Tb21lIExvY2FsaXR5MRAwDgYDVQQKEwdTb21lIENBMRgwFgYDVQQL
Ew9Tb21lIERlcGFydG1lbnQxIjAgBgNVBAMTGUZha2UgQ0EgZm9yIHpsaW50IHRl
c3RpbmcwggIiMA0GCSqGSIb3DQEBAQUAA4ICDwAwggIKAoICAQC2/altOj8o1Lfe
3ntAe0orO16oWui7Cc2NDPqN2+fgwZ6Qq1/DVNPu7HbvugO0AayCIxI03xUyqAJf
DWknHnlMQmcfEl7EEs/9sqEuylfW+IPpMwuvhUF1lSwRGKVRT7sDskYB6HkLqwL9
GDe4ICitvejjvydY/8N8xfoPUAs9KV/sdV4TbE9CZG6SPgeH29kheFPT1KTG5mKb
zLNO29/eStpwRyolz9oukwMZ6w7y/NOEAqFDgXUey6CUMpJyGRuEN6Jdhwip2GHH
elwafwghvR2yDAco3B/HOhilj6CQUxygPwY3pA4zU3mLiDw2lv/j9uDiCRpe+ynW
9TVNPbFBaXFOgBLtiWtsx/9kAlEomybMGz0DU6vGpocUX+opPIm4ST+ferXk0by0
Dnt/4bRGm0Ct0U3PKMmCA9ZPsSUQ0uyDB8bR1APKs/XkGrH38UADI55znvW6x2V9
e2F3nSUo/qmgigMH33LkB2HbidXeHvcLhX4jBdOW+YwkQmk2f/gw3+aZKYwpGUG2
DGSsGzsQMrmPEgEsf3vzer1+KmV1KWq3wrB08oDzD0M8UJiy6DbhC+b3nZDIe4DD
YOLz7KAEg3qiFxa7fqafmByZxwUVXbsqfnTgB46V93th2pmP6UKTiyhvd/XXMUkZ
vyvErPVyjXeW3OrsOj8r1B+JBxRHhwIDAQABo4IBLDCCASgwDgYDVR0PAQH/BAQD
AgEGMB0GA1UdJQQWMBQGCCsGAQUFBwMCBggrBgEFBQcDBDAPBgNVHRMBAf8EBTAD
AQH/MB0GA1UdDgQWBBQTTwusejuQCe7kIyZUV4gjIom4HzAfBgNVHSMEGDAWgBTo
tvZ2S9A75Ual+VTUfgez3g1gPjBkBggrBgEFBQcBAQRYMFYwKQYIKwYBBQUHMAGG
HWh0dHA6Ly9jYS5zb21lY2EtaW5jLmNvbS9vY3NwMCkGCCsGAQUFBzAChh1odHRw
Oi8vY2Euc29tZWNhLWluYy5jb20vcm9vdDARBgNVHSAECjAIMAYGBFUdIAAwLQYD
VR0fBCYwJDAioCCgHoYcaHR0cDovL2NhLnNvbWVjYS1pbmMuY29tL2NybDANBgkq
hkiG9w0BAQsFAAOCAgEALbe79o+2Yy7htpeegSIzMjwD82wUHcFEfzQw5QFHXdKz
nTTLQZmywpO8W2ZemQjzJTi/HFfILhQg2G+XjPY8s4pT4SSkw/g4GzcIQd8NGpYF
bxUSpc9N8AhKeL7Rw9s83uHnkaAxhUCMuqvIohaGxwxkgdTBbeDDZIPIOgQXq24T
ofiN4RLP8TMiKVLgpIVOaZdFij91TtNNjxj4daJtEiYXaaTEEtPJqssCtqroGjWG
gY3PX0Hn8OSo+9Q1UYvFTOimaiijrsnbFuKkqh5Sg1C0SWDHcUq+KxEzdf4Ytjc2
xLXSZhi9rDm4PSatk1PcwL4MWE3n68rrJxPtMOI1gzBhxWxYG+J+I6/DJbTIvPwm
ZjqhE4eblMYIlOWAqGHcpZN8WNs7ibQ5u/rAUDajhCmQ6OdjOSvx2WH7KQkJMuTO
MLQwDaEBA4mQc4il6WknLtVQBNmqd3Rkdbs+CWwsdgOtSWkkV+2FhoL0jkMHDme0
Mzuvx2aBQVeQDcKvSdpISTAAV/gy/9Bs8vrqXU4KcVrVIgpleHIoZGptu3pyhK8F
kjXVmJC9PHfmMsvEo9mga8/F8HiArErVBeYlXGif4sqHcg3hhL0QRtzYjS1cphPU
9gx1/i49nshxUjsotmotsij0hp+xDhZKJHpNus6VC+PIbbbN5sC9XQtZtl34vl0=
-----END CERTIFICATE-----
