Certificate:
    Data:
        Version: 3 (0x2)
        Serial Number:
            33:75:11:c3:a4:0f:ec:98:44:3d:3b:a4:82:f5:3d:c6
        Signature Algorithm: sha256WithRSAEncryption
        Issuer: C = XX, O = Some CA, CN = Fake Root CA for zlint testing
        Validity
            Not Before: May 24 04:12:01 2024 GMT
            Not After : May 23 04:12:01 2029 GMT
        Subject: C = XX, ST = Some State, L = Some Locality, O = Some CA, CN = Fake CA for zlint testing
        Subject Public Key Info:
            Public Key Algorithm: rsaEncryption
                RSA Public-Key: (4096 bit)
                Modulus:
                    00:c6:b4:69:32:22:ea:e3:2a:3a:46:0f:9f:7b:ff:
                    76:c6:39:29:9b:19:d9:d3:9c:b8:c1:f4:03:6f:9f:
                    87:d2:69:19:a9:15:3f:2d:47:47:d6:ea:c1:dc:5f:
                    f6:76:49:c4:c0:bd:c2:f3:57:da:93:a9:65:df:09:
                    35:f8:53:f8:bb:1a:92:04:ab:c6:90:25:34:61:26:
                    ae:58:55:e0:70:61:d7:0e:c7:de:0e:89:d9:0f:ca:
                    2e:cc:3a:99:42:51:4d:49:be:16:83:9d:b7:80:26:
                    cf:f5:bd:d8:cd:50:a6:2c:82:e6:53:5e:2b:5d:e8:
                    12:16:e3:e1:ff:b8:3f:bb:39:dd:48:15:19:df:14:
                    60:e1:54:8e:1d:4f:df:a2:29:5e:89:7c:fb:58:19:
                    e0:d2:58:c7:79:5e:b0:14:90:09:17:f6:2c:11:10:
                    3a:c2:ba:ce:3a:93:85:83:41:3a:a8:13:01:b9:4b:
                    33:09:ab:4b:4a:9a:e7:4f:24:36:c9:f6:1f:3c:b8:
                    a8:db:d1:93:37:f6:27:67:05:0b:40:7a:64:96:ec:
                    3a:4b:b2:66:f4:c1:37:e2:99:a9:d0:bc:1e:c6:b0:
                    04:43:37:52:53:20:27:9b:0b:43:07:0f:0f:39:cc:
                    47:27:e8:8a:ec:5e:d3:f7:f5:b1:cc:45:4a:94:db:
                    22:1d:9e:92:5d:0e:cd:8d:fb:1a:ab:c0:c2:18:1f:
                    1f:33:2a:3e:92:f9:b8:49:7b:96:ac:9d:af:80:45:
                    cb:0d:66:f2:e6:26:ea:08:24:bf:82:1f:5a:52:e9:
                    8b:d8:e9:f1:2a:da:28:02:ae:05:07:5b:a6:b7:19:
                    ef:b7:d8:16:e6:88:d6:03:f1:c9:cf:7b:0f:59:d5:
                    33:cb:af:18:8a:a4:b2:a0:0c:78:fd:7d:50:5a:97:
                    cb:cb:0d:8a:3a:5f:fe:6b:88:8b:28:82:a8:1e:62:
                    5c:d9:f4:37:af:25:e3:6b:9e:11:6d:7d:01:b1:8a:
                    ac:95:fd:f5:5e:b9:c4:ed:d6:39:da:b3:61:e2:d8:
                    49:58:df:a5:c5:d0:17:c9:b2:ef:8c:e5:0b:6d:e9:
                    26:50:14:a9:02:73:c9:be:72:b6:27:f7:63:c0:8b:
                    9b:50:cf:a9:a4:f0:02:43:82:43:06:a9:b1:6d:1f:
                    da:f1:c2:30:a9:54:d2:a6:5d:bb:72:4d:36:e3:ab:
                    92:e2:84:c4:85:5b:59:6b:1f:98:48:a8:74:27:c0:
                    24:e5:81:e1:0b:2e:27:28:0c:c9:b0:6f:6a:46:8d:
                    93:5a:ee:2f:3b:60:59:a1:57:4b:3b:dc:d3:dc:75:
                    1b:ba:bc:e9:38:bf:99:74:12:85:fe:c0:40:cc:fe:
                    04:05:df
                Exponent: 65537 (0x10001)
        X509v3 extensions:
            X509v3 Key Usage: critical
                Certificate Sign, CRL Sign
            X509v3 Extended Key Usage: 
                TLS Web Client Authentication, TLS Web Server Authentication
            X509v3 Basic Constraints: critical
                CA:TRUE
            X509v3 Subject Key Identifier: 
                41:14:32:79:7E:51:BB:07:76:5B:E6:73:F7:B6:09:3C:02:3C:57:C5
            X509v3 Authority Key Identifier: 
                keyid:E8:B6:F6:76:4B:D0:3B:E5:46:A5:F9:54:D4:7E:07:B3:DE:0D:60:3E

            Authority Information Access: 
                OCSP - URI:http://ca.someca-inc.com/ocsp
                CA Issuers - URI:http://ca.someca-inc.com/root

            X509v3 Certificate Policies: 
                Policy: 2.23.140.1.2.1
                Policy: 2.23.140.1.2.2

            X509v3 CRL Distribution Points: 

                Full Name:
                  URI:http://ca.someca-inc.com/crl

    Signature Algorithm: sha256WithRSAEncryption
         24:85:e2:83:95:e5:de:34:a3:b8:83:8e:22:87:23:b1:29:42:
         1b:c8:79:54:6a:e1:74:b1:6b:ef:c5:96:73:73:20:7d:a0:40:
         22:64:83:dd:d3:cd:5c:46:76:19:9f:b3:e8:5d:d6:85:5c:9a:
         a4:ff:48:6e:3a:18:4a:a3:85:75:12:d1:85:c2:2c:da:c5:c9:
         3e:0c:26:54:ba:56:41:fa:7d:75:7a:96:68:70:98:fd:04:a6:
         ed:25:35:60:a7:82:ed:cd:56:05:87:60:e2:03:57:01:28:ef:
         16:14:3e:a0:df:03:12:9b:cc:f5:dd:8c:c9:9f:cd:13:62:96:
         48:67:63:a6:93:0e:c6:6b:ce:71:af:18:01:29:82:9f:4d:d9:
         67:cc:3a:6e:e0:fe:2f:01:88:63:5e:c7:b1:ae:1d:a8:b2:32:
         ca:ab:7f:bf:51:79:8c:8c:8b:1c:a7:3a:21:de:8d:cb:1c:3e:
         f6:76:2c:cf:60:5c:06:a0:26:39:52:65:0c:bb:85:e9:d2:80:
         75:f4:2c:bc:2c:ef:5d:a3:b4:93:6e:97:78:5c:5d:9d:71:16:
         6c:29:ce:9c:0c:5b:ec:52:21:1b:77:f7:73:5e:81:80:12:3f:
         90:c6:b4:46:a5:78:dc:61:4f:0a:7a:c2:a1:57:8a:2e:cb:54:
         19:ec:71:9c:d6:12:cb:a3:56:b2:6f:46:ea:ac:ad:88:1e:96:
         65:54:17:32:69:de:84:48:76:2e:0f:4e:28:fa:07:ae:f9:50:
         a4:22:6f:fc:79:72:dd:fa:94:36:5c:9c:c2:a0:31:8a:9a:1d:
         8e:ab:92:23:80:35:46:1a:f4:19:4d:fa:7f:8a:fc:5e:d0:c4:
         1c:ba:53:35:21:2c:bb:ac:0d:f2:de:49:0c:c6:53:04:78:d5:
         bc:fa:69:5d:27:01:f7:05:31:cc:ef:cc:e9:a6:88:5a:66:9a:
         a6:ae:56:13:7c:88:1b:60:90:37:c2:bd:04:44:7d:0e:43:92:
         ed:24:29:59:82:18:62:d1:a0:25:71:93:fe:6c:f0:48:3f:21:
         2f:6e:06:20:6a:b1:64:6f:1e:18:72:f0:3a:32:e4:c6:0e:f0:
         82:19:f7:41:a6:1e:1d:b1:38:67:f6:72:f7:0f:34:8e:6e:7b:
         ea:7e:3f:a8:ce:d5:10:93:a1:c6:51:48:da:5d:58:12:0b:c9:
         c0:eb:d8:29:21:3b:42:68:13:75:f3:2f:0c:35:24:7b:d5:79:
         73:cf:d5:d9:87:c0:35:7e:5c:94:f6:91:cd:73:36:b6:42:ed:
         6e:32:6a:ce:07:5a:6e:d2:b6:d2:2c:b8:37:3a:d9:09:fe:59:
         b3:0f:22:d2:80:9f:a1:14
-----BEGIN CERTIFICATE-----
MIIGfDCCBGSgAwIBAgIQM3URw6QP7JhEPTukgvU9xjANBgkqhkiG9w0BAQsFADBI
MQswCQYDVQQGEwJYWDEQMA4GA1UEChMHU29tZSBDQTEnMCUGA1UEAxMeRmFrZSBS
b290IENBIGZvciB6bGludCB0ZXN0aW5nMB4XDTI0MDUyNDA0MTIwMVoXDTI5MDUy
MzA0MTIwMVowcDELMAkGA1UEBhMCWFgxEzARBgNVBAgTClNvbWUgU3RhdGUxFjAU
BgNVBAcTDVNvbWUgTG9jYWxpdHkxEDAOBgNVBAoTB1NvbWUgQ0ExIjAgBgNVBAMT
GUZha2UgQ0EgZm9yIHpsaW50IHRlc3RpbmcwggIiMA0GCSqGSIb3DQEBAQUAA4IC
DwAwggIKAoICAQDGtGkyIurjKjpGD597/3bGOSmbGdnTnLjB9ANvn4fSaRmpFT8t
R0fW6sHcX/Z2ScTAvcLzV9qTqWXfCTX4U/i7GpIEq8aQJTRhJq5YVeBwYdcOx94O
idkPyi7MOplCUU1JvhaDnbeAJs/1vdjNUKYsguZTXitd6BIW4+H/uD+7Od1IFRnf
FGDhVI4dT9+iKV6JfPtYGeDSWMd5XrAUkAkX9iwREDrCus46k4WDQTqoEwG5SzMJ
q0tKmudPJDbJ9h88uKjb0ZM39idnBQtAemSW7DpLsmb0wTfimanQvB7GsARDN1JT
ICebC0MHDw85zEcn6IrsXtP39bHMRUqU2yIdnpJdDs2N+xqrwMIYHx8zKj6S+bhJ
e5asna+ARcsNZvLmJuoIJL+CH1pS6YvY6fEq2igCrgUHW6a3Ge+32BbmiNYD8cnP
ew9Z1TPLrxiKpLKgDHj9fVBal8vLDYo6X/5riIsogqgeYlzZ9DevJeNrnhFtfQGx
iqyV/fVeucTt1jnas2Hi2ElY36XF0BfJsu+M5Qtt6SZQFKkCc8m+crYn92PAi5tQ
z6mk8AJDgkMGqbFtH9rxwjCpVNKmXbtyTTbjq5LihMSFW1lrH5hIqHQnwCTlgeEL
LicoDMmwb2pGjZNa7i87YFmhV0s73NPcdRu6vOk4v5l0EoX+wEDM/gQF3wIDAQAB
o4IBODCCATQwDgYDVR0PAQH/BAQDAgEGMB0GA1UdJQQWMBQGCCsGAQUFBwMCBggr
BgEFBQcDATAPBgNVHRMBAf8EBTADAQH/MB0GA1UdDgQWBBRBFDJ5flG7B3Zb5nP3
tgk8AjxXxTAfBgNVHSMEGDAWgBTotvZ2S9A75Ual+VTUfgez3g1gPjBkBggrBgEF
BQcBAQRYMFYwKQYIKwYBBQUHMAGGHWh0dHA6Ly9jYS5zb21lY2EtaW5jLmNvbS9v
Y3NwMCkGCCsGAQUFBzAChh1odHRwOi8vY2Euc29tZWNhLWluYy5jb20vcm9vdDAd
BgNVHSAEFjAUMAgGBmeBDAECATAIBgZngQwBAgIwLQYDVR0fBCYwJDAioCCgHoYc
aHR0cDovL2NhLnNvbWVjYS1pbmMuY29tL2NybDANBgkqhkiG9w0BAQsFAAOCAgEA
JIXig5Xl3jSjuIOOIocjsSlCG8h5VGrhdLFr78WWc3MgfaBAImSD3dPNXEZ2GZ+z
6F3WhVyapP9IbjoYSqOFdRLRhcIs2sXJPgwmVLpWQfp9dXqWaHCY/QSm7SU1YKeC
7c1WBYdg4gNXASjvFhQ+oN8DEpvM9d2MyZ/NE2KWSGdjppMOxmvOca8YASmCn03Z
Z8w6buD+LwGIY17Hsa4dqLIyyqt/v1F5jIyLHKc6Id6Nyxw+9nYsz2BcBqAmOVJl
DLuF6dKAdfQsvCzvXaO0k26XeFxdnXEWbCnOnAxb7FIhG3f3c16BgBI/kMa0RqV4
3GFPCnrCoVeKLstUGexxnNYSy6NWsm9G6qytiB6WZVQXMmnehEh2Lg9OKPoHrvlQ
pCJv/Hly3fqUNlycwqAxipodjquSI4A1Rhr0GU36f4r8XtDEHLpTNSEsu6wN8t5J
DMZTBHjVvPppXScB9wUxzO/M6aaIWmaapq5WE3yIG2CQN8K9BER9DkOS7SQpWYIY
YtGgJXGT/mzwSD8hL24GIGqxZG8eGHLwOjLkxg7wghn3QaYeHbE4Z/Zy9w80jm57
6n4/qM7VEJOhxlFI2l1YEgvJwOvYKSE7QmgTdfMvDDUke9V5c8/V2YfANX5clPaR
zXM2tkLtbjJqzgdabtK20iy4NzrZCf5Zsw8i0oCfoRQ=
-----END CERTIFICATE-----
