Certificate:
    Data:
        Version: 3 (0x2)
        Serial Number:
            b9:70:28:7e:b0:e4:d4:15:b1:ec:a1:21:27:54:7e:c8
        Signature Algorithm: sha256WithRSAEncryption
        Issuer: C = XX, ST = Some State or Province, L = Somewhere, O = Some Company, CN = Some CA
        Validity
            Not Before: Oct 23 00:00:00 2022 GMT
            Not After : Oct 23 00:00:00 2023 GMT
        Subject: C = XX, ST = Some State or Province, L = Somewhere else, O = Some Other Company, OU = Some Department, CN = example.com
        Subject Public Key Info:
            Public Key Algorithm: rsaEncryption
                RSA Public-Key: (4096 bit)
                Modulus:
                    00:b5:35:fb:47:0e:56:23:04:83:ec:d6:b1:33:d3:
                    6d:78:87:ac:06:8b:71:33:3b:65:68:b6:fb:90:74:
                    4f:d1:8e:a8:81:c7:3f:73:ce:56:00:44:85:d4:e9:
                    3b:60:bb:08:85:61:36:d9:69:36:83:39:a9:06:19:
                    3d:91:a9:9a:92:5a:80:a7:0c:13:0e:1c:58:7e:41:
                    97:30:56:87:d7:74:5f:e2:f9:11:16:dc:7a:ce:0c:
                    14:b1:94:da:a5:a1:e9:e9:65:e6:b8:54:fe:51:14:
                    39:85:0f:89:7e:8d:b0:8d:3b:e5:a4:88:21:fe:0c:
                    db:81:f5:8b:fd:2f:bc:4c:7a:a9:2b:78:67:58:1f:
                    d8:ce:4b:8e:11:7d:fd:40:a9:eb:32:5e:91:2b:eb:
                    51:59:df:97:32:8e:8a:a8:40:a6:de:30:a0:8e:ff:
                    b1:bd:ad:7b:ff:14:8b:8f:65:84:3e:3b:d2:be:51:
                    1a:78:16:10:90:33:75:fb:13:21:b3:6f:cc:92:7b:
                    56:4f:6d:e3:15:9c:5f:ce:45:f8:f5:1c:1f:d0:6e:
                    49:4f:e5:31:a2:e5:15:39:ff:9e:f1:ca:4e:ce:7f:
                    88:48:73:c3:59:61:c0:aa:bd:68:22:5e:96:bf:56:
                    63:86:c9:2a:0b:95:85:a4:d4:2e:09:9f:5e:19:f4:
                    ba:a8:3b:41:de:83:eb:b1:db:ee:0f:f8:95:3b:e2:
                    bc:a2:9e:c2:72:62:1a:95:cf:14:6f:1b:26:4e:86:
                    02:d3:29:d6:6e:e1:75:e0:2b:66:88:8c:5e:df:2b:
                    99:1a:6c:5e:f6:cc:3d:e5:4b:ae:05:0e:b6:ff:d0:
                    6a:d4:c1:74:3b:0b:b6:31:d6:99:64:f4:80:19:8f:
                    4c:46:c9:5d:1a:2a:96:62:8c:05:4e:70:1b:19:f6:
                    ef:98:1f:01:6e:9f:fb:9f:e4:23:9c:97:c3:1a:30:
                    a0:0c:af:e1:e1:cd:36:fe:8e:d1:6f:87:90:8f:f0:
                    84:ad:73:04:28:e5:fb:57:2d:1a:26:0d:7f:19:16:
                    ec:5d:d4:c9:d2:86:bc:23:6c:e9:bc:67:a5:d2:bf:
                    ba:fb:d0:1e:53:40:9d:f1:53:18:62:17:52:14:6e:
                    a2:ec:23:c4:89:63:f6:53:57:d9:cd:d1:68:32:95:
                    d1:e7:b8:2b:d4:71:f8:f3:1b:0b:9e:cd:42:36:c1:
                    a7:24:7d:3c:37:4f:60:a2:61:95:19:27:45:5b:57:
                    ac:65:a8:b3:d6:a6:7a:04:9c:eb:49:24:f6:ec:f9:
                    0d:9c:b7:5a:fc:32:18:cf:fe:65:66:91:10:5e:7e:
                    c6:df:5a:9e:7e:fe:23:62:a7:b2:c3:c3:04:43:1b:
                    9d:f1:11
                Exponent: 65537 (0x10001)
        X509v3 extensions:
            X509v3 Key Usage: critical
                Digital Signature, Key Encipherment
            X509v3 Extended Key Usage: 
                TLS Web Client Authentication, TLS Web Server Authentication
            X509v3 Subject Key Identifier: 
                3E:54:B0:A8:83:F0:73:FF:2B:FB:A9:B2:35:38:91:38:97:CD:27:EC
            X509v3 Authority Key Identifier: 
                keyid:E8:B6:F6:76:4B:D0:3B:E5:46:A5:F9:54:D4:7E:07:B3:DE:0D:60:3E

            Authority Information Access: 
                OCSP - URI:http://ca.someca-inc.com/ocsp
                CA Issuers - URI:http://ca.someca-inc.com/root

            X509v3 Subject Alternative Name: 
                DNS:example.com
            X509v3 Certificate Policies: 
                Policy: 2.23.140.1.2.2

            X509v3 CRL Distribution Points: 

                Full Name:
                  URI:http://ca.someca-inc.com/crl

    Signature Algorithm: sha256WithRSAEncryption
         b3:f4:21:73:1e:e4:99:2a:82:9d:d7:ce:79:fc:a1:10:87:bf:
         53:8c:50:5a:09:8b:19:70:d0:a7:23:05:09:00:4d:51:3c:16:
         f7:86:17:1b:d8:4c:fc:71:0d:74:82:e9:1b:21:ff:12:fb:80:
         e9:2d:f0:ea:ff:9a:cd:0b:1a:2b:d9:ba:5b:17:32:21:fb:11:
         b8:51:e6:b2:b6:bd:27:c9:26:e8:50:49:ca:2d:6e:aa:a7:9c:
         a9:3f:eb:bd:06:dc:ea:5c:be:cf:7a:e6:83:72:03:f4:3a:2c:
         d9:d0:cf:e9:72:bd:fd:cd:04:aa:af:ff:60:f4:86:69:08:52:
         d6:24:7a:51:17:46:0c:52:6f:79:fc:10:2f:79:d4:04:d5:e9:
         c5:d6:22:f4:97:d6:61:52:4f:c0:93:c4:03:47:6f:73:d2:0c:
         b1:1e:e3:be:39:54:1d:86:2d:e9:37:76:91:b5:1e:51:e4:34:
         ad:90:65:78:d9:31:2d:95:24:fd:a3:da:20:2b:b2:f4:cf:78:
         6a:4e:96:98:7a:f8:57:7b:e3:10:32:37:14:a6:90:17:c2:e5:
         98:7d:ee:d3:c5:c6:28:0c:1d:c6:a0:29:2f:af:cd:fa:90:87:
         f1:1f:3d:fd:57:f2:41:23:70:6d:c5:61:59:2a:e1:53:4b:8c:
         29:9c:ce:0c:a9:c4:f4:8d:d9:54:82:4b:6a:4b:8a:97:38:b2:
         af:43:88:a5:84:a0:6e:2c:10:0a:e4:a4:9d:e9:83:2e:e0:cc:
         80:58:de:1c:0f:4d:41:8c:b7:cc:1d:a8:0e:d2:15:d3:96:41:
         5e:d8:19:e4:84:77:f4:af:23:72:eb:5c:f7:55:24:39:ab:ec:
         83:59:eb:8d:60:a0:f6:d4:30:8b:79:6b:14:ea:8a:6f:2a:6e:
         6c:e0:85:35:1c:e6:ff:cf:3b:8d:ac:88:09:ad:57:2e:8a:13:
         74:c2:29:bb:a2:74:f9:34:70:46:8c:99:cb:31:95:d2:f3:dc:
         34:86:60:79:63:1f:cb:38:b9:bf:02:79:e4:12:f5:c5:ee:a1:
         15:24:39:b8:0e:69:f3:ed:38:ed:39:8a:01:0a:4c:e9:c1:67:
         4c:ef:dc:31:53:5e:a7:4e:6e:34:15:6f:f0:7f:ae:c4:72:db:
         63:37:bd:68:44:00:03:90:c7:33:66:12:35:d8:ee:9c:da:fc:
         91:de:07:45:ae:64:9c:b6:57:eb:39:48:87:f8:e6:92:c5:ba:
         e6:49:42:6e:f3:62:ab:32:3e:33:4f:02:fb:9f:93:29:8e:e3:
         27:45:00:69:96:01:2b:3b:10:df:de:96:23:8a:da:1f:39:c3:
         40:a2:37:b3:a6:68:ed:08
-----BEGIN CERTIFICATE-----
MIIGwjCCBKqgAwIBAgIRALlwKH6w5NQVseyhISdUfsgwDQYJKoZIhvcNAQELBQAw
azELMAkGA1UEBhMCWFgxHzAdBgNVBAgTFlNvbWUgU3RhdGUgb3IgUHJvdmluY2Ux
EjAQBgNVBAcTCVNvbWV3aGVyZTEVMBMGA1UEChMMU29tZSBDb21wYW55MRAwDgYD
VQQDEwdTb21lIENBMB4XDTIyMTAyMzAwMDAwMFoXDTIzMTAyMzAwMDAwMFowgZQx
CzAJBgNVBAYTAlhYMR8wHQYDVQQIExZTb21lIFN0YXRlIG9yIFByb3ZpbmNlMRcw
FQYDVQQHEw5Tb21ld2hlcmUgZWxzZTEbMBkGA1UEChMSU29tZSBPdGhlciBDb21w
YW55MRgwFgYDVQQLEw9Tb21lIERlcGFydG1lbnQxFDASBgNVBAMTC2V4YW1wbGUu
Y29tMIICIjANBgkqhkiG9w0BAQEFAAOCAg8AMIICCgKCAgEAtTX7Rw5WIwSD7Nax
M9NteIesBotxMztlaLb7kHRP0Y6ogcc/c85WAESF1Ok7YLsIhWE22Wk2gzmpBhk9
kamaklqApwwTDhxYfkGXMFaH13Rf4vkRFtx6zgwUsZTapaHp6WXmuFT+URQ5hQ+J
fo2wjTvlpIgh/gzbgfWL/S+8THqpK3hnWB/YzkuOEX39QKnrMl6RK+tRWd+XMo6K
qECm3jCgjv+xva17/xSLj2WEPjvSvlEaeBYQkDN1+xMhs2/MkntWT23jFZxfzkX4
9Rwf0G5JT+UxouUVOf+e8cpOzn+ISHPDWWHAqr1oIl6Wv1ZjhskqC5WFpNQuCZ9e
GfS6qDtB3oPrsdvuD/iVO+K8op7CcmIalc8UbxsmToYC0ynWbuF14CtmiIxe3yuZ
Gmxe9sw95UuuBQ62/9Bq1MF0Owu2MdaZZPSAGY9MRsldGiqWYowFTnAbGfbvmB8B
bp/7n+QjnJfDGjCgDK/h4c02/o7Rb4eQj/CErXMEKOX7Vy0aJg1/GRbsXdTJ0oa8
I2zpvGel0r+6+9AeU0Cd8VMYYhdSFG6i7CPEiWP2U1fZzdFoMpXR57gr1HH48xsL
ns1CNsGnJH08N09gomGVGSdFW1esZaiz1qZ6BJzrSST27PkNnLda/DIYz/5lZpEQ
Xn7G31qefv4jYqeyw8MEQxud8RECAwEAAaOCATUwggExMA4GA1UdDwEB/wQEAwIF
oDAdBgNVHSUEFjAUBggrBgEFBQcDAgYIKwYBBQUHAwEwHQYDVR0OBBYEFD5UsKiD
8HP/K/upsjU4kTiXzSfsMB8GA1UdIwQYMBaAFOi29nZL0DvlRqX5VNR+B7PeDWA+
MGQGCCsGAQUFBwEBBFgwVjApBggrBgEFBQcwAYYdaHR0cDovL2NhLnNvbWVjYS1p
bmMuY29tL29jc3AwKQYIKwYBBQUHMAKGHWh0dHA6Ly9jYS5zb21lY2EtaW5jLmNv
bS9yb290MBYGA1UdEQQPMA2CC2V4YW1wbGUuY29tMBMGA1UdIAQMMAowCAYGZ4EM
AQICMC0GA1UdHwQmMCQwIqAgoB6GHGh0dHA6Ly9jYS5zb21lY2EtaW5jLmNvbS9j
cmwwDQYJKoZIhvcNAQELBQADggIBALP0IXMe5Jkqgp3Xznn8oRCHv1OMUFoJixlw
0KcjBQkATVE8FveGFxvYTPxxDXSC6Rsh/xL7gOkt8Or/ms0LGivZulsXMiH7EbhR
5rK2vSfJJuhQScotbqqnnKk/670G3Opcvs965oNyA/Q6LNnQz+lyvf3NBKqv/2D0
hmkIUtYkelEXRgxSb3n8EC951ATV6cXWIvSX1mFST8CTxANHb3PSDLEe4745VB2G
Lek3dpG1HlHkNK2QZXjZMS2VJP2j2iArsvTPeGpOlph6+Fd74xAyNxSmkBfC5Zh9
7tPFxigMHcagKS+vzfqQh/EfPf1X8kEjcG3FYVkq4VNLjCmczgypxPSN2VSCS2pL
ipc4sq9DiKWEoG4sEArkpJ3pgy7gzIBY3hwPTUGMt8wdqA7SFdOWQV7YGeSEd/Sv
I3LrXPdVJDmr7INZ641goPbUMIt5axTqim8qbmzghTUc5v/PO42siAmtVy6KE3TC
KbuidPk0cEaMmcsxldLz3DSGYHljH8s4ub8CeeQS9cXuoRUkObgOafPtOO05igEK
TOnBZ0zv3DFTXqdObjQVb/B/rsRy22M3vWhEAAOQxzNmEjXY7pza/JHeB0WuZJy2
V+s5SIf45pLFuuZJQm7zYqsyPjNPAvufkymO4ydFAGmWASs7EN/eliOK2h85w0Ci
N7OmaO0I
-----END CERTIFICATE-----
