Certificate:
    Data:
        Version: 3 (0x2)
        Serial Number:
            be:4d:f0:7e:b4:4e:12:a3:9f:3f:71:0c:9c:10:60:4e
        Signature Algorithm: sha256WithRSAEncryption
        Issuer: C = XX, O = Some CA, CN = Fake Root CA for zlint testing
        Validity
            Not Before: Apr 23 00:00:00 2022 GMT
            Not After : Apr 22 00:00:00 2027 GMT
        Subject: C = XX, ST = Some State, L = Some Locality, O = Some CA, OU = Some Department, CN = Fake CA for zlint testing
        Subject Public Key Info:
            Public Key Algorithm: rsaEncryption
                RSA Public-Key: (4096 bit)
                Modulus:
                    00:e4:0e:2d:27:b4:f2:50:7a:ff:78:e4:b0:6d:eb:
                    03:af:34:b2:20:37:01:72:81:6b:7b:ac:40:3f:20:
                    c5:93:a3:e6:e3:c7:a0:33:68:24:1e:ad:31:de:d6:
                    e7:25:bb:d4:43:e7:95:87:d2:67:e3:8c:21:d0:ab:
                    e2:9c:e6:47:0b:91:2d:83:c1:c3:1b:68:85:88:07:
                    e5:9d:40:b9:17:84:c1:fb:37:8e:47:2a:cd:38:95:
                    93:95:18:02:4d:90:52:1b:14:4d:4a:67:8d:fe:85:
                    69:d1:60:63:bf:54:40:a9:7e:6c:df:9b:76:33:28:
                    b1:d9:51:b9:28:b5:db:b7:6f:dd:16:72:98:6f:59:
                    3c:02:a7:fb:64:72:b1:23:e5:b2:fd:9d:a7:39:32:
                    e1:e0:36:a7:de:b0:70:28:46:76:36:27:65:ff:3d:
                    49:db:09:ce:54:48:5b:2e:ac:31:46:40:33:1e:db:
                    f9:10:a4:19:d4:78:b4:81:e0:ee:aa:76:0b:a7:f0:
                    32:be:f4:c1:b2:a5:dc:cb:69:45:a4:ed:34:be:80:
                    67:f0:17:5f:0c:b8:94:74:a3:23:47:16:52:f9:e2:
                    a3:04:70:5b:1d:f1:a0:23:e5:a8:d7:53:ac:eb:5c:
                    3c:94:ce:1e:24:db:8f:99:b9:a9:19:49:20:bd:a2:
                    9e:b9:8e:68:cb:fd:19:a2:e6:7e:46:f0:d9:7d:b3:
                    84:7b:c4:51:12:94:14:5d:a1:53:f4:21:51:52:df:
                    3b:3c:70:62:d5:82:53:9b:74:ca:2a:5f:be:f3:09:
                    db:e9:86:94:f1:6f:cf:3c:c5:61:2b:a2:d0:90:b4:
                    80:dd:45:54:b5:ba:a6:c2:a3:fe:7f:66:26:bd:dd:
                    c9:be:74:06:23:a9:e4:25:6f:05:8b:84:cb:50:ab:
                    c6:b0:ee:86:d8:4a:ce:d2:ff:f5:1e:c5:50:78:e1:
                    0e:b0:6d:1e:60:bc:fd:16:16:2f:7f:1d:6b:fc:b5:
                    5b:27:17:86:26:b0:08:49:85:ea:f9:35:fb:00:04:
                    be:72:fd:36:fe:e2:5b:9c:ea:3a:e4:02:04:fe:3f:
                    f3:d1:71:fc:de:c7:f2:c6:76:9e:e4:80:4f:41:c4:
                    29:5a:d0:6f:11:24:89:a4:46:f0:c4:68:f7:c0:8a:
                    ad:12:fc:bb:65:d8:fe:73:d1:79:76:33:42:cf:8f:
                    6a:e6:c4:44:d4:56:44:82:e5:dd:37:cd:cd:23:f6:
                    9d:bc:24:80:e2:b0:e2:a1:8b:a3:a1:7e:eb:71:2c:
                    4a:ed:b5:c1:f3:d1:62:d5:6f:31:da:41:6f:d3:e8:
                    98:b9:d4:13:1f:68:e0:0d:7a:5c:e5:b8:64:0d:09:
                    4a:44:e7
                Exponent: 65537 (0x10001)
        X509v3 extensions:
            X509v3 Key Usage: critical
                Certificate Sign, CRL Sign
            X509v3 Basic Constraints: critical
                CA:TRUE
            X509v3 Subject Key Identifier: 
                02:D4:2D:4C:03:F1:75:0E:F7:81:A7:55:EB:FC:B5:CB:0F:4E:27:6D
            X509v3 Authority Key Identifier: 
                keyid:E8:B6:F6:76:4B:D0:3B:E5:46:A5:F9:54:D4:7E:07:B3:DE:0D:60:3E

            Authority Information Access: 
                OCSP - URI:http://ca.someca-inc.com/ocsp
                CA Issuers - URI:http://ca.someca-inc.com/root

            X509v3 Certificate Policies: 
                Policy: X509v3 Any Policy

            X509v3 CRL Distribution Points: 

                Full Name:
                  URI:http://ca.someca-inc.com/crl

    Signature Algorithm: sha256WithRSAEncryption
         4e:44:49:50:9a:ad:35:b9:59:50:00:55:50:81:97:7a:66:d9:
         c5:15:a7:9f:18:8d:0b:26:08:3d:3d:40:72:bd:0d:be:b1:37:
         6d:83:2b:3f:c7:28:ef:0d:a8:7c:59:6f:b9:27:65:6b:62:42:
         8e:fd:04:b1:34:11:f0:d2:91:29:c0:ad:d7:6c:85:d4:e0:72:
         3b:f7:29:37:8b:99:dc:46:b6:24:35:53:f2:4a:45:24:e0:e7:
         80:a8:9c:02:26:c9:19:31:4a:57:4a:40:5c:a3:57:20:df:1c:
         bb:30:76:4d:2c:f2:82:80:44:8c:e3:53:4b:a8:33:2a:22:17:
         7c:26:6a:28:5c:28:72:d6:d0:43:45:b6:1b:51:91:0b:ca:49:
         77:79:fa:ef:ed:92:55:0b:05:22:53:a2:dc:2f:97:86:d4:bd:
         e1:35:a8:89:5e:56:fe:d6:e4:2e:ff:5c:ca:37:4d:4b:0b:77:
         63:ac:ad:78:62:76:75:b6:ee:42:c8:23:6a:1f:9c:5e:82:22:
         a8:b0:03:1e:7d:85:91:3f:17:50:f3:14:85:a5:44:88:17:81:
         c6:fb:08:54:87:7d:7a:70:63:d2:ae:d5:7c:80:36:19:cc:9b:
         55:13:47:28:da:a6:14:fe:e8:0a:55:67:43:9f:7d:ff:55:07:
         59:bd:37:f3:47:88:ad:17:fb:b5:8f:9b:45:3d:c3:b9:fc:80:
         7e:aa:4a:20:d0:ab:2b:25:44:cb:11:27:56:67:73:11:fd:c1:
         5c:e8:fb:f3:f7:25:64:7e:49:d3:06:69:05:6d:9c:64:d3:5c:
         94:f5:a9:b2:f8:74:a3:36:47:9f:17:46:f3:07:6e:06:50:68:
         79:e9:ad:a3:06:13:5b:6c:fd:9d:ab:ea:cb:6a:69:40:63:41:
         06:d5:22:a2:5c:6b:af:24:c1:f5:d0:0b:33:ce:e9:b0:fb:6c:
         d8:ea:c5:0a:55:53:02:07:f5:0e:40:c9:11:cc:95:2b:e4:ea:
         64:1b:00:62:dd:5d:40:d0:08:68:cd:44:9d:40:9e:4a:59:9c:
         d2:67:54:2d:bd:20:b5:7b:ab:a9:af:7e:31:09:07:12:75:83:
         6c:d3:53:ff:0f:2e:98:70:7b:6c:b8:6d:dc:68:f8:bc:a7:e0:
         78:84:e2:43:3e:7f:8f:30:c6:61:6e:6f:e2:f0:63:42:86:17:
         75:b8:49:e3:16:78:e5:f0:0b:8b:dd:60:8f:26:05:47:f3:5f:
         cc:b4:c1:37:ec:bf:1b:d3:a4:bb:ef:d9:c9:1e:f8:4b:e4:bb:
         61:11:8e:b1:d2:cb:d0:c3:44:cb:90:46:6b:bb:bc:be:95:82:
         c1:14:88:b3:a0:01:d5:b7
-----BEGIN CERTIFICATE-----
MIIGbTCCBFWgAwIBAgIRAL5N8H60ThKjnz9xDJwQYE4wDQYJKoZIhvcNAQELBQAw
SDELMAkGA1UEBhMCWFgxEDAOBgNVBAoTB1NvbWUgQ0ExJzAlBgNVBAMTHkZha2Ug
Um9vdCBDQSBmb3IgemxpbnQgdGVzdGluZzAeFw0yMjA0MjMwMDAwMDBaFw0yNzA0
MjIwMDAwMDBaMIGKMQswCQYDVQQGEwJYWDETMBEGA1UECBMKU29tZSBTdGF0ZTEW
MBQGA1UEBxMNU29tZSBMb2NhbGl0eTEQMA4GA1UEChMHU29tZSBDQTEYMBYGA1UE
CxMPU29tZSBEZXBhcnRtZW50MSIwIAYDVQQDExlGYWtlIENBIGZvciB6bGludCB0
ZXN0aW5nMIICIjANBgkqhkiG9w0BAQEFAAOCAg8AMIICCgKCAgEA5A4tJ7TyUHr/
eOSwbesDrzSyIDcBcoFre6xAPyDFk6Pm48egM2gkHq0x3tbnJbvUQ+eVh9Jn44wh
0KvinOZHC5Etg8HDG2iFiAflnUC5F4TB+zeORyrNOJWTlRgCTZBSGxRNSmeN/oVp
0WBjv1RAqX5s35t2Myix2VG5KLXbt2/dFnKYb1k8Aqf7ZHKxI+Wy/Z2nOTLh4Dan
3rBwKEZ2Nidl/z1J2wnOVEhbLqwxRkAzHtv5EKQZ1Hi0geDuqnYLp/AyvvTBsqXc
y2lFpO00voBn8BdfDLiUdKMjRxZS+eKjBHBbHfGgI+Wo11Os61w8lM4eJNuPmbmp
GUkgvaKeuY5oy/0ZouZ+RvDZfbOEe8RREpQUXaFT9CFRUt87PHBi1YJTm3TKKl++
8wnb6YaU8W/PPMVhK6LQkLSA3UVUtbqmwqP+f2Ymvd3JvnQGI6nkJW8Fi4TLUKvG
sO6G2ErO0v/1HsVQeOEOsG0eYLz9FhYvfx1r/LVbJxeGJrAISYXq+TX7AAS+cv02
/uJbnOo65AIE/j/z0XH83sfyxnae5IBPQcQpWtBvESSJpEbwxGj3wIqtEvy7Zdj+
c9F5djNCz49q5sRE1FZEguXdN83NI/advCSA4rDioYujoX7rcSxK7bXB89Fi1W8x
2kFv0+iYudQTH2jgDXpc5bhkDQlKROcCAwEAAaOCAQ0wggEJMA4GA1UdDwEB/wQE
AwIBBjAPBgNVHRMBAf8EBTADAQH/MB0GA1UdDgQWBBQC1C1MA/F1DveBp1Xr/LXL
D04nbTAfBgNVHSMEGDAWgBTotvZ2S9A75Ual+VTUfgez3g1gPjBkBggrBgEFBQcB
AQRYMFYwKQYIKwYBBQUHMAGGHWh0dHA6Ly9jYS5zb21lY2EtaW5jLmNvbS9vY3Nw
MCkGCCsGAQUFBzAChh1odHRwOi8vY2Euc29tZWNhLWluYy5jb20vcm9vdDARBgNV
HSAECjAIMAYGBFUdIAAwLQYDVR0fBCYwJDAioCCgHoYcaHR0cDovL2NhLnNvbWVj
YS1pbmMuY29tL2NybDANBgkqhkiG9w0BAQsFAAOCAgEATkRJUJqtNblZUABVUIGX
embZxRWnnxiNCyYIPT1Acr0NvrE3bYMrP8co7w2ofFlvuSdla2JCjv0EsTQR8NKR
KcCt12yF1OByO/cpN4uZ3Ea2JDVT8kpFJODngKicAibJGTFKV0pAXKNXIN8cuzB2
TSzygoBEjONTS6gzKiIXfCZqKFwoctbQQ0W2G1GRC8pJd3n67+2SVQsFIlOi3C+X
htS94TWoiV5W/tbkLv9cyjdNSwt3Y6yteGJ2dbbuQsgjah+cXoIiqLADHn2FkT8X
UPMUhaVEiBeBxvsIVId9enBj0q7VfIA2GcybVRNHKNqmFP7oClVnQ599/1UHWb03
80eIrRf7tY+bRT3DufyAfqpKINCrKyVEyxEnVmdzEf3BXOj78/clZH5J0wZpBW2c
ZNNclPWpsvh0ozZHnxdG8wduBlBoeemtowYTW2z9navqy2ppQGNBBtUiolxrryTB
9dALM87psPts2OrFClVTAgf1DkDJEcyVK+TqZBsAYt1dQNAIaM1EnUCeSlmc0mdU
Lb0gtXurqa9+MQkHEnWDbNNT/w8umHB7bLht3Gj4vKfgeITiQz5/jzDGYW5v4vBj
QoYXdbhJ4xZ45fALi91gjyYFR/NfzLTBN+y/G9Oku+/ZyR74S+S7YRGOsdLL0MNE
y5BGa7u8vpWCwRSIs6AB1bc=
-----END CERTIFICATE-----
