Certificate:
    Data:
        Version: 3 (0x2)
        Serial Number: 18008675309 (0x4316693ed)
    Signature Algorithm: sha256WithRSAEncryption
        Issuer: C = US, O = Mother Nature, OU = Everything, CN = Mother Nature
        Validity
            Not Before: Jun 27 23:05:48 2016 GMT
            Not After : Sep  8 23:05:48 2016 GMT
        Subject: ST = FL, L = Tallahassee, O = Extreme Discord, OU = Chaos, CN = gov.us
        Subject Public Key Info:
            Public Key Algorithm: rsaEncryption
                Public-Key: (2048 bit)
                Modulus:
                    00:a9:05:2d:2e:c1:82:89:43:cf:97:0f:b3:6e:f0:
                    d9:e6:fd:8b:b3:54:1d:fe:27:ff:41:4b:22:f8:f0:
                    95:d5:73:56:07:8a:e2:20:51:c9:f4:35:b8:3b:7c:
                    e2:72:33:ef:f4:89:71:59:49:4c:75:57:45:40:27:
                    f1:76:b0:9c:cc:e9:42:80:3e:93:ff:3d:ea:83:ec:
                    2a:3e:20:7d:d4:22:35:eb:f0:f4:be:99:0e:86:e8:
                    42:7c:7e:9a:51:b7:28:95:9b:25:06:55:ee:d6:e4:
                    c8:2c:98:a3:7e:e0:4e:50:bf:57:3b:97:53:26:fd:
                    13:cf:aa:71:5a:62:26:eb:5d:8a:be:c8:88:e7:07:
                    4d:5b:7d:a5:a3:c7:0b:7d:24:e4:ac:8c:4a:4c:0d:
                    55:9f:65:8f:1f:c7:84:a8:8f:fa:43:c2:f0:d9:ff:
                    8f:0d:d7:1a:d7:dd:29:ee:32:38:7d:27:26:59:31:
                    32:6e:00:e1:4a:7d:1b:53:76:a1:59:0c:10:85:0c:
                    9c:64:fa:f7:a9:c3:55:05:cf:a2:7f:41:c6:ec:94:
                    76:08:87:88:67:39:b9:63:fa:84:0c:a2:ec:c5:13:
                    93:b6:7c:2e:6f:fa:d8:04:17:75:96:90:0b:af:4e:
                    f1:de:86:0e:bf:97:4f:88:39:68:ed:01:8b:70:8c:
                    a1:3d
                Exponent: 65537 (0x10001)
        X509v3 extensions:
            X509v3 Key Usage: critical
                Digital Signature, Key Encipherment
            X509v3 Extended Key Usage: 
                TLS Web Client Authentication, TLS Web Server Authentication
            X509v3 Basic Constraints: critical
                CA:FALSE
            X509v3 Authority Key Identifier: 
                keyid:01:02:03

            Authority Information Access: 
                OCSP - URI:http://theca.net/ocsp
                CA Issuers - URI:http://theca.net/totallythecert.crt

            X509v3 Certificate Policies: 
                Policy: 2.23.140.1.2.2

            X509v3 Subject Key Identifier: 
                04:03:02:01
            X509v3 Subject Alternative Name: 
                DNS:*.gov.us, DNS:gov.us
    Signature Algorithm: sha256WithRSAEncryption
         52:f3:16:af:8c:c7:74:83:c5:49:21:d7:dc:84:63:be:c3:f3:
         e9:1e:2e:cd:7c:bc:26:21:97:62:3e:2e:6a:e8:d4:e1:d2:bc:
         35:8d:36:b3:84:94:69:c1:f7:3e:8b:c4:86:53:81:1b:0e:a3:
         55:71:ef:e7:24:9d:19:c6:65:ef:b7:c7:f9:2c:8a:a0:78:91:
         19:4c:83:62:b7:2c:4b:c1:ef:e3:7f:8b:0e:ca:a0:bf:3a:65:
         f1:db:d2:f7:27:cf:03:35:aa:6f:7a:e9:14:ce:3a:fc:18:ee:
         fe:cd:25:98:28:e6:ea:03:4e:4b:d9:4a:23:ed:37:29:dc:0c:
         da:50:fb:8e:4c:b0:4f:c6:97:25:ae:9b:18:25:d2:95:9f:79:
         07:2b:40:e8:db:46:0f:38:f4:db:e4:9f:17:7f:85:13:7e:61:
         8a:d2:28:cb:0f:d2:40:03:a5:33:ed:ed:ef:af:d3:de:c6:8f:
         f0:ad:a4:2b:e6:1c:85:e3:66:d9:ee:ee:0a:18:64:f1:9b:bb:
         05:b3:4f:7f:a5:8c:2f:fb:fb:32:30:fa:e2:f3:90:e3:1a:18:
         f1:89:ba:df:1b:41:f9:a5:1e:5b:54:ae:cd:93:6f:73:37:37:
         10:21:4b:04:27:8e:50:3f:a5:c9:6e:c8:e8:ba:c8:74:ef:aa:
         f2:dd:08:07
-----BEGIN CERTIFICATE-----
MIIEJTCCAw2gAwIBAgIFBDFmk+0wDQYJKoZIhvcNAQELBQAwUjELMAkGA1UEBhMC
VVMxFjAUBgNVBAoTDU1vdGhlciBOYXR1cmUxEzARBgNVBAsTCkV2ZXJ5dGhpbmcx
FjAUBgNVBAMTDU1vdGhlciBOYXR1cmUwHhcNMTYwNjI3MjMwNTQ4WhcNMTYwOTA4
MjMwNTQ4WjBeMQswCQYDVQQIEwJGTDEUMBIGA1UEBxMLVGFsbGFoYXNzZWUxGDAW
BgNVBAoTD0V4dHJlbWUgRGlzY29yZDEOMAwGA1UECxMFQ2hhb3MxDzANBgNVBAMT
Bmdvdi51czCCASIwDQYJKoZIhvcNAQEBBQADggEPADCCAQoCggEBAKkFLS7BgolD
z5cPs27w2eb9i7NUHf4n/0FLIvjwldVzVgeK4iBRyfQ1uDt84nIz7/SJcVlJTHVX
RUAn8XawnMzpQoA+k/896oPsKj4gfdQiNevw9L6ZDoboQnx+mlG3KJWbJQZV7tbk
yCyYo37gTlC/VzuXUyb9E8+qcVpiJutdir7IiOcHTVt9paPHC30k5KyMSkwNVZ9l
jx/HhKiP+kPC8Nn/jw3XGtfdKe4yOH0nJlkxMm4A4Up9G1N2oVkMEIUMnGT696nD
VQXPon9BxuyUdgiHiGc5uWP6hAyi7MUTk7Z8Lm/62AQXdZaQC69O8d6GDr+XT4g5
aO0Bi3CMoT0CAwEAAaOB9TCB8jAOBgNVHQ8BAf8EBAMCBaAwHQYDVR0lBBYwFAYI
KwYBBQUHAwIGCCsGAQUFBwMBMAwGA1UdEwEB/wQCMAAwDgYDVR0jBAcwBYADAQID
MGIGCCsGAQUFBwEBBFYwVDAhBggrBgEFBQcwAYYVaHR0cDovL3RoZWNhLm5ldC9v
Y3NwMC8GCCsGAQUFBzAChiNodHRwOi8vdGhlY2EubmV0L3RvdGFsbHl0aGVjZXJ0
LmNydDATBgNVHSAEDDAKMAgGBmeBDAECAjANBgNVHQ4EBgQEBAMCATAbBgNVHREE
FDASgggqLmdvdi51c4IGZ292LnVzMA0GCSqGSIb3DQEBCwUAA4IBAQBS8xavjMd0
g8VJIdfchGO+w/PpHi7NfLwmIZdiPi5q6NTh0rw1jTazhJRpwfc+i8SGU4EbDqNV
ce/nJJ0ZxmXvt8f5LIqgeJEZTINityxLwe/jf4sOyqC/OmXx29L3J88DNapveukU
zjr8GO7+zSWYKObqA05L2Uoj7Tcp3AzaUPuOTLBPxpclrpsYJdKVn3kHK0Do20YP
OPTb5J8Xf4UTfmGK0ijLD9JAA6Uz7e3vr9Pexo/wraQr5hyF42bZ7u4KGGTxm7sF
s09/pYwv+/syMPri85DjGhjxibrfG0H5pR5bVK7Nk29zNzcQIUsEJ45QP6XJbsjo
ush076ry3QgH
-----END CERTIFICATE-----
