Certificate:
    Data:
        Version: 3 (0x2)
        Serial Number: 3 (0x3)
        Signature Algorithm: ecdsa-with-SHA256
        Issuer: 
        Validity
            Not Before: Sep  1 00:00:00 2022 GMT
            Not After : Nov 30 00:00:00 9998 GMT
        Subject: CN = example.com
        Subject Public Key Info:
            Public Key Algorithm: id-ecPublicKey
                Public-Key: (256 bit)
                pub:
                    04:5c:cf:65:b6:bd:f2:a2:91:9c:ad:9d:3b:c0:51:
                    8d:7d:6c:8c:3b:d8:9c:91:ff:9f:2e:22:33:cf:82:
                    c8:3c:f5:47:79:52:0f:da:ca:84:93:17:8e:4e:1f:
                    39:a1:a9:68:ed:45:61:0d:19:a6:51:e8:43:fe:33:
                    2d:3c:be:cf:0c
                ASN1 OID: prime256v1
                NIST CURVE: P-256
        X509v3 extensions:
            X509v3 Subject Alternative Name: 
                DNS:example.com, DNS:other.example.com, DNS:third.example.com
    Signature Algorithm: ecdsa-with-SHA256
         30:46:02:21:00:be:db:5f:81:3e:6b:8c:db:59:03:af:23:55:
         dc:2c:63:b1:15:a6:54:bd:3e:1a:a0:3a:da:80:ee:96:af:e5:
         a0:02:21:00:9b:57:70:11:bb:f7:9d:e8:f6:1a:90:e0:50:44:
         27:30:25:a1:50:a2:5d:e8:85:37:42:7c:09:10:d6:3c:fa:10
-----BEGIN CERTIFICATE-----
MIIBRzCB7aADAgECAgEDMAoGCCqGSM49BAMCMAAwIBcNMjIwOTAxMDAwMDAwWhgP
OTk5ODExMzAwMDAwMDBaMBYxFDASBgNVBAMTC2V4YW1wbGUuY29tMFkwEwYHKoZI
zj0CAQYIKoZIzj0DAQcDQgAEXM9ltr3yopGcrZ07wFGNfWyMO9ickf+fLiIzz4LI
PPVHeVIP2sqEkxeOTh85oalo7UVhDRmmUehD/jMtPL7PDKNAMD4wPAYDVR0RBDUw
M4ILZXhhbXBsZS5jb22CEW90aGVyLmV4YW1wbGUuY29tghF0aGlyZC5leGFtcGxl
LmNvbTAKBggqhkjOPQQDAgNJADBGAiEAvttfgT5rjNtZA68jVdwsY7EVplS9Phqg
OtqA7pav5aACIQCbV3ARu/ed6PYakOBQRCcwJaFQol3ohTdCfAkQ1jz6EA==
-----END CERTIFICATE-----