Certificate:
    Data:
        Version: 3 (0x2)
        Serial Number: 3 (0x3)
        Signature Algorithm: ecdsa-with-SHA256
        Issuer: 
        Validity
            Not Before: Sep  1 00:00:00 2022 GMT
            Not After : Nov 30 00:00:00 9998 GMT
        Subject: CN = example.com, OU = Example Unit
        Subject Public Key Info:
            Public Key Algorithm: id-ecPublicKey
                Public-Key: (256 bit)
                pub:
                    04:9b:73:61:fc:f7:cc:07:a4:33:50:9f:53:d0:96:
                    9e:e7:9f:0d:e1:b8:6a:78:b6:90:b8:9c:02:7d:41:
                    3a:98:54:49:06:8e:da:03:b7:9f:db:7e:eb:6b:0e:
                    89:1e:b0:e6:4c:18:71:c2:68:17:9c:cb:9d:37:d4:
                    70:90:f9:15:be
                ASN1 OID: prime256v1
                NIST CURVE: P-256
        X509v3 extensions:
            X509v3 Subject Alternative Name: 
                DNS:example.com, DNS:other.example.com, DNS:third.example.com
    Signature Algorithm: ecdsa-with-SHA256
         30:45:02:21:00:8b:09:c7:c2:2e:fa:1d:2e:8a:ba:bf:1c:14:
         3c:44:9a:3c:d1:67:16:8f:60:fb:7e:be:4b:b3:a9:93:1e:04:
         73:02:20:3b:16:71:3d:34:80:f9:78:83:20:e2:07:bb:8b:71:
         03:f9:12:b7:38:68:56:d5:a9:fc:6b:1f:9e:06:eb:e6:35
-----BEGIN CERTIFICATE-----
MIIBXjCCAQSgAwIBAgIBAzAKBggqhkjOPQQDAjAAMCAXDTIyMDkwMTAwMDAwMFoY
Dzk5OTgxMTMwMDAwMDAwWjAtMRQwEgYDVQQDEwtleGFtcGxlLmNvbTEVMBMGA1UE
CxMMRXhhbXBsZSBVbml0MFkwEwYHKoZIzj0CAQYIKoZIzj0DAQcDQgAEm3Nh/PfM
B6QzUJ9T0Jae558N4bhqeLaQuJwCfUE6mFRJBo7aA7ef237raw6JHrDmTBhxwmgX
nMudN9RwkPkVvqNAMD4wPAYDVR0RBDUwM4ILZXhhbXBsZS5jb22CEW90aGVyLmV4
YW1wbGUuY29tghF0aGlyZC5leGFtcGxlLmNvbTAKBggqhkjOPQQDAgNIADBFAiEA
iwnHwi76HS6Kur8cFDxEmjzRZxaPYPt+vkuzqZMeBHMCIDsWcT00gPl4gyDiB7uL
cQP5Erc4aFbVqfxrH54G6+Y1
-----END CERTIFICATE-----