Certificate:
    Data:
        Version: 3 (0x2)
        Serial Number: 3 (0x3)
        Signature Algorithm: ecdsa-with-SHA256
        Issuer: 
        Validity
            Not Before: Aug  1 00:00:00 2022 GMT
            Not After : Nov 30 00:00:00 9998 GMT
        Subject: CN = example.com, OU = Example Unit
        Subject Public Key Info:
            Public Key Algorithm: id-ecPublicKey
                Public-Key: (256 bit)
                pub:
                    04:cd:73:2d:da:e1:5a:e4:6a:0d:fe:b7:b7:35:5d:
                    e2:97:35:20:3f:60:36:09:09:74:f2:9f:af:94:e3:
                    ef:1f:de:8c:2b:da:4c:47:5b:de:1e:63:da:cc:bf:
                    b1:80:27:e1:a2:1a:b6:5d:b2:5c:7a:56:37:89:7a:
                    cb:a0:54:ef:c6
                ASN1 OID: prime256v1
                NIST CURVE: P-256
        X509v3 extensions:
            X509v3 Subject Alternative Name: 
                DNS:example.com, DNS:other.example.com, DNS:third.example.com
    Signature Algorithm: ecdsa-with-SHA256
         30:44:02:20:0c:7e:03:28:74:1c:57:63:f9:99:0a:e4:22:97:
         cd:77:77:1a:6b:48:70:d0:c5:6d:41:a1:11:76:32:2b:02:d7:
         02:20:6c:de:d7:d4:93:0d:67:54:f5:f6:e4:f3:9b:ba:4a:07:
         9e:6f:4e:74:13:6f:a2:c3:de:cc:68:6c:0a:9f:7e:e4
-----BEGIN CERTIFICATE-----
MIIBXTCCAQSgAwIBAgIBAzAKBggqhkjOPQQDAjAAMCAXDTIyMDgwMTAwMDAwMFoY
Dzk5OTgxMTMwMDAwMDAwWjAtMRQwEgYDVQQDEwtleGFtcGxlLmNvbTEVMBMGA1UE
CxMMRXhhbXBsZSBVbml0MFkwEwYHKoZIzj0CAQYIKoZIzj0DAQcDQgAEzXMt2uFa
5GoN/re3NV3ilzUgP2A2CQl08p+vlOPvH96MK9pMR1veHmPazL+xgCfhohq2XbJc
elY3iXrLoFTvxqNAMD4wPAYDVR0RBDUwM4ILZXhhbXBsZS5jb22CEW90aGVyLmV4
YW1wbGUuY29tghF0aGlyZC5leGFtcGxlLmNvbTAKBggqhkjOPQQDAgNHADBEAiAM
fgModBxXY/mZCuQil813dxprSHDQxW1BoRF2MisC1wIgbN7X1JMNZ1T19uTzm7pK
B55vTnQTb6LD3sxobAqffuQ=
-----END CERTIFICATE-----