Certificate:
    Data:
        Version: 3 (0x2)
        Serial Number:
            bf:13:ed:69:30:61:c5:d2:e9:e8:cd:a3
        Signature Algorithm: ecdsa-with-SHA256
        Issuer: CN = Lint CA, O = Lint, C = DE
        Validity
            Not Before: Feb 18 00:00:00 2025 GMT
            Not After : Feb 18 00:00:00 2028 GMT
        Subject: CN = test
        Subject Public Key Info:
            Public Key Algorithm: id-ecPublicKey
                Public-Key: (256 bit)
                pub:
                    04:34:6c:3e:21:2e:e9:f7:30:69:04:57:18:24:84:
                    6e:18:24:cb:84:b0:3e:22:51:66:92:05:0e:ef:c0:
                    22:9f:21:04:be:43:a3:cd:19:84:67:87:58:d2:78:
                    a8:8b:08:28:52:c8:3f:e3:4f:54:68:eb:d5:7d:ab:
                    98:74:48:f8:df
                ASN1 OID: prime256v1
                NIST CURVE: P-256
        X509v3 extensions:
            X509v3 Certificate Policies: critical
                Policy: 0.4.0.194112.1.1

            qcStatements: 
                0Z0X.....F..0N0%..https://example.com/en/test.pdf..en0%..https://example.com/de/test.pdf..de
    Signature Algorithm: ecdsa-with-SHA256
         30:45:02:21:00:df:7f:14:8d:e0:f0:94:3f:0a:96:c4:57:f7:
         84:3d:47:48:bd:72:a7:77:27:0b:52:22:80:d5:d9:ca:70:9f:
         2a:02:20:13:f5:f4:46:ba:39:d8:88:32:03:72:5f:cc:36:af:
         01:e0:c3:5e:dd:c5:73:6d:23:b8:24:07:7e:06:4b:ed:17
-----BEGIN CERTIFICATE-----
MIIBvzCCAWWgAwIBAgINAL8T7WkwYcXS6ejNozAKBggqhkjOPQQDAjAuMRAwDgYD
VQQDDAdMaW50IENBMQ0wCwYDVQQKDARMaW50MQswCQYDVQQGEwJERTAeFw0yNTAy
MTgwMDAwMDBaFw0yODAyMTgwMDAwMDBaMA8xDTALBgNVBAMMBHRlc3QwWTATBgcq
hkjOPQIBBggqhkjOPQMBBwNCAAQ0bD4hLun3MGkEVxgkhG4YJMuEsD4iUWaSBQ7v
wCKfIQS+Q6PNGYRnh1jSeKiLCChSyD/jT1Ro69V9q5h0SPjfo4GGMIGDMBcGA1Ud
IAEB/wQNMAswCQYHBACL7EABATBoBggrBgEFBQcBAwRcMFowWAYGBACORgEFME4w
JRYfaHR0cHM6Ly9leGFtcGxlLmNvbS9lbi90ZXN0LnBkZhMCZW4wJRYfaHR0cHM6
Ly9leGFtcGxlLmNvbS9kZS90ZXN0LnBkZhMCZGUwCgYIKoZIzj0EAwIDSAAwRQIh
AN9/FI3g8JQ/CpbEV/eEPUdIvXKndycLUiKA1dnKcJ8qAiAT9fRGujnYiDIDcl/M
Nq8B4MNe3cVzbSO4JAd+BkvtFw==
-----END CERTIFICATE-----
