Certificate:
    Data:
        Version: 3 (0x2)
        Serial Number:
            64:a2:f5:22:91:b8:7f:d7:04:06:0a:d3
        Signature Algorithm: ecdsa-with-SHA256
        Issuer: CN = Lint CA, O = Lint, C = DE
        Validity
            Not Before: Feb 18 00:00:00 2025 GMT
            Not After : Feb 18 00:00:00 2028 GMT
        Subject: CN = test
        Subject Public Key Info:
            Public Key Algorithm: id-ecPublicKey
                Public-Key: (256 bit)
                pub:
                    04:d9:75:84:4c:49:c9:42:c9:b4:d6:61:73:00:d1:
                    34:a0:b7:87:9b:10:2f:1c:8b:d4:7f:22:2b:5e:5f:
                    5f:08:a4:bf:0d:49:7c:32:1b:fc:93:3c:e4:40:10:
                    d0:51:e6:24:3e:c5:b0:16:91:27:ec:33:89:3f:37:
                    7d:2d:0b:49:e2
                ASN1 OID: prime256v1
                NIST CURVE: P-256
        X509v3 extensions:
            X509v3 Certificate Policies: critical
                Policy: 0.4.0.194112.1.1

            qcStatements: 
                0Y0W.....F..0M0$..http://example.com/en/test.pdf..en0%..https://example.com/de/test.pdf..de
    Signature Algorithm: ecdsa-with-SHA256
         30:45:02:21:00:ad:25:29:8f:2d:d9:28:ad:28:cd:16:e6:2b:
         ba:df:af:2f:1b:d3:f1:f6:a4:a9:01:38:90:2d:fc:73:66:d1:
         44:02:20:52:54:b4:80:f8:5b:e3:75:38:17:eb:8c:29:6a:57:
         93:8e:f0:2d:43:55:20:62:69:6a:2b:1c:2d:ed:6e:c3:96
-----BEGIN CERTIFICATE-----
MIIBvTCCAWOgAwIBAgIMZKL1IpG4f9cEBgrTMAoGCCqGSM49BAMCMC4xEDAOBgNV
BAMMB0xpbnQgQ0ExDTALBgNVBAoMBExpbnQxCzAJBgNVBAYTAkRFMB4XDTI1MDIx
ODAwMDAwMFoXDTI4MDIxODAwMDAwMFowDzENMAsGA1UEAwwEdGVzdDBZMBMGByqG
SM49AgEGCCqGSM49AwEHA0IABNl1hExJyULJtNZhcwDRNKC3h5sQLxyL1H8iK15f
Xwikvw1JfDIb/JM85EAQ0FHmJD7FsBaRJ+wziT83fS0LSeKjgYUwgYIwFwYDVR0g
AQH/BA0wCzAJBgcEAIvsQAEBMGcGCCsGAQUFBwEDBFswWTBXBgYEAI5GAQUwTTAk
Fh5odHRwOi8vZXhhbXBsZS5jb20vZW4vdGVzdC5wZGYTAmVuMCUWH2h0dHBzOi8v
ZXhhbXBsZS5jb20vZGUvdGVzdC5wZGYTAmRlMAoGCCqGSM49BAMCA0gAMEUCIQCt
JSmPLdkorSjNFuYrut+vLxvT8fakqQE4kC38c2bRRAIgUlS0gPhb43U4F+uMKWpX
k47wLUNVIGJpaiscLe1uw5Y=
-----END CERTIFICATE-----
