Certificate:
    Data:
        Version: 3 (0x2)
        Serial Number: 3 (0x3)
        Signature Algorithm: ecdsa-with-SHA256
        Issuer: CN = Intermediate
        Validity
            Not Before: Sep 30 00:00:00 2023 GMT
            Not After : Nov 30 00:00:00 9998 GMT
        Subject: CN = Leaf
        Subject Public Key Info:
            Public Key Algorithm: id-ecPublicKey
                Public-Key: (256 bit)
                pub:
                    04:bf:4e:e5:1a:6b:71:87:3b:db:68:be:df:81:a5:
                    ed:1d:7f:a2:84:17:5b:ab:7f:4d:83:a7:2c:b0:6a:
                    99:4e:fb:c8:a5:4f:c9:53:20:35:05:5e:22:5e:4a:
                    b9:43:e1:b0:76:d7:7f:7f:48:fa:28:bb:b3:9b:05:
                    6c:11:6a:8a:af
                ASN1 OID: prime256v1
                NIST CURVE: P-256
    Signature Algorithm: ecdsa-with-SHA256
    Signature Value:
        30:44:02:20:1d:25:98:b6:67:15:7b:c5:e8:ae:fb:07:38:f9:
        6d:30:e9:2b:a5:45:21:aa:2b:25:bf:d8:da:c0:68:71:8a:c5:
        02:20:75:b0:ae:a1:13:64:8f:cd:74:3a:e2:c8:96:2a:05:50:
        5e:51:a3:eb:4b:32:de:8d:b6:c1:d6:18:13:79:f3:5c
-----BEGIN CERTIFICATE-----
MIIBFzCBv6ADAgECAgEDMAoGCCqGSM49BAMCMBcxFTATBgNVBAMTDEludGVybWVk
aWF0ZTAgFw0yMzA5MzAwMDAwMDBaGA85OTk4MTEzMDAwMDAwMFowDzENMAsGA1UE
AxMETGVhZjBZMBMGByqGSM49AgEGCCqGSM49AwEHA0IABL9O5RprcYc722i+34Gl
7R1/ooQXW6t/TYOnLLBqmU77yKVPyVMgNQVeIl5KuUPhsHbXf39I+ii7s5sFbBFq
iq+jAjAAMAoGCCqGSM49BAMCA0cAMEQCIB0lmLZnFXvF6K77Bzj5bTDpK6VFIaor
Jb/Y2sBocYrFAiB1sK6hE2SPzXQ64siWKgVQXlGj60sy3o22wdYYE3nzXA==
-----END CERTIFICATE-----
