Certificate:
    Data:
        Version: 3 (0x2)
        Serial Number: 18008675309 (0x4316693ed)
    Signature Algorithm: sha256WithRSAEncryption
        Issuer: C = US, O = Mother Nature, OU = Everything, CN = Mother Nature
        Validity
            Not Before: Jun 30 19:54:36 2016 GMT
            Not After : Sep 11 19:54:36 2016 GMT
        Subject: C = US, OU = Chaos, L = Tallahassee, ST = FL, street = 3210 Holly Mill Run, postalCode = 30062, CN = gov.us
        Subject Public Key Info:
            Public Key Algorithm: rsaEncryption
                Public-Key: (2048 bit)
                Modulus:
                    00:e0:36:bb:4f:ff:86:7f:7d:b2:cc:3a:a2:6a:77:
                    cf:02:65:7c:51:f3:99:5a:39:c9:49:26:07:5c:71:
                    ce:f4:74:5a:62:aa:cf:cc:17:36:25:cc:e2:98:b3:
                    3f:e1:be:11:63:8f:ac:20:cb:cb:af:6a:7c:b4:f6:
                    11:24:76:b2:16:70:c5:97:1d:01:db:fb:52:e8:20:
                    24:42:0d:8f:71:6d:ef:46:28:55:19:34:e5:bc:73:
                    7a:a4:e9:54:ee:d6:63:38:51:81:78:3a:21:41:ca:
                    6c:4c:29:18:0d:e9:66:8e:01:a7:1f:bf:f6:2f:95:
                    27:d8:b4:46:3d:8b:19:8d:ad:f4:fe:c0:7e:91:68:
                    1b:19:52:ce:69:7e:0c:06:06:7b:04:f4:bc:ec:3a:
                    ab:02:21:71:28:7a:cc:fc:9b:3f:5c:aa:96:c1:b4:
                    0d:04:72:bf:28:55:67:7b:f4:09:cf:02:51:d0:7f:
                    77:99:36:48:dc:5e:12:b1:10:3d:22:5f:96:20:0a:
                    41:c8:c9:8f:17:dd:0a:00:b6:48:bb:45:bd:e6:33:
                    71:74:c7:d1:9e:ac:6a:db:6e:a2:5d:22:d1:f9:53:
                    2f:ad:07:96:a6:3f:fc:a3:92:1a:ea:7a:c3:e2:73:
                    18:5c:4f:8b:82:e8:b5:3d:51:06:b8:a2:2b:46:2d:
                    31:ed
                Exponent: 65537 (0x10001)
        X509v3 extensions:
            X509v3 Key Usage: critical
                Digital Signature, Key Encipherment
            X509v3 Extended Key Usage: 
                TLS Web Client Authentication, TLS Web Server Authentication
            X509v3 Basic Constraints: critical
                CA:FALSE
            X509v3 Authority Key Identifier: 
                keyid:01:02:03

            Authority Information Access: 
                OCSP - URI:http://theca.net/ocsp
                CA Issuers - URI:http://theca.net/totallythecert.crt

            X509v3 Certificate Policies: 
                Policy: 2.23.140.1.2.2

            X509v3 Subject Key Identifier: 
                04:03:02:01
            X509v3 Subject Alternative Name: 
                DNS:*.gov.us, DNS:gov.us
    Signature Algorithm: sha256WithRSAEncryption
         44:1a:41:4f:a7:6d:26:aa:84:a3:4e:15:26:ce:6a:7e:f4:22:
         fe:39:e8:34:ee:8c:92:65:fb:fb:7d:e0:f9:fd:95:84:31:28:
         9d:e9:45:a4:94:42:6b:59:61:bb:5e:90:f7:f8:4f:ed:9d:11:
         ad:9e:1a:37:b1:be:46:a5:b8:11:91:7f:fe:b9:3f:95:6d:4b:
         18:8d:3c:20:fe:39:0f:49:2d:eb:f7:6c:0d:fc:f8:a1:25:ee:
         a9:1d:c9:e7:95:74:61:29:30:bb:19:f3:4f:e6:01:37:a6:cd:
         01:7a:92:dd:cb:ee:e8:d1:e0:f4:6f:dd:2a:35:62:c0:a7:26:
         e0:88:df:e9:4d:cd:78:90:a8:b0:30:db:97:91:15:cd:45:80:
         91:aa:93:29:75:75:ec:15:bc:b2:26:6e:80:9d:06:7c:e1:3c:
         0f:e5:98:1d:d2:32:f1:1e:0a:ad:44:aa:c9:23:e1:89:ce:c2:
         5b:18:05:bf:40:9c:68:c8:fb:b2:7e:63:05:9d:1f:ef:fc:e7:
         50:f0:87:e2:47:73:ea:74:a1:ac:ff:68:86:9d:ed:93:a4:f9:
         45:81:0f:c0:7a:72:64:e1:f1:e7:1a:c8:d6:6f:26:bd:14:9a:
         c2:1f:2a:82:b0:6a:37:57:ad:00:4f:11:25:fb:1a:c7:48:db:
         16:19:15:1b
-----BEGIN CERTIFICATE-----
MIIERjCCAy6gAwIBAgIFBDFmk+0wDQYJKoZIhvcNAQELBQAwUjELMAkGA1UEBhMC
VVMxFjAUBgNVBAoTDU1vdGhlciBOYXR1cmUxEzARBgNVBAsTCkV2ZXJ5dGhpbmcx
FjAUBgNVBAMTDU1vdGhlciBOYXR1cmUwHhcNMTYwNjMwMTk1NDM2WhcNMTYwOTEx
MTk1NDM2WjB/MQswCQYDVQQGEwJVUzEOMAwGA1UECxMFQ2hhb3MxFDASBgNVBAcT
C1RhbGxhaGFzc2VlMQswCQYDVQQIEwJGTDEcMBoGA1UECRMTMzIxMCBIb2xseSBN
aWxsIFJ1bjEOMAwGA1UEERMFMzAwNjIxDzANBgNVBAMTBmdvdi51czCCASIwDQYJ
KoZIhvcNAQEBBQADggEPADCCAQoCggEBAOA2u0//hn99ssw6omp3zwJlfFHzmVo5
yUkmB1xxzvR0WmKqz8wXNiXM4pizP+G+EWOPrCDLy69qfLT2ESR2shZwxZcdAdv7
UuggJEINj3Ft70YoVRk05bxzeqTpVO7WYzhRgXg6IUHKbEwpGA3pZo4Bpx+/9i+V
J9i0Rj2LGY2t9P7AfpFoGxlSzml+DAYGewT0vOw6qwIhcSh6zPybP1yqlsG0DQRy
vyhVZ3v0Cc8CUdB/d5k2SNxeErEQPSJfliAKQcjJjxfdCgC2SLtFveYzcXTH0Z6s
attuol0i0flTL60HlqY//KOSGup6w+JzGFxPi4LotT1RBriiK0YtMe0CAwEAAaOB
9TCB8jAOBgNVHQ8BAf8EBAMCBaAwHQYDVR0lBBYwFAYIKwYBBQUHAwIGCCsGAQUF
BwMBMAwGA1UdEwEB/wQCMAAwDgYDVR0jBAcwBYADAQIDMGIGCCsGAQUFBwEBBFYw
VDAhBggrBgEFBQcwAYYVaHR0cDovL3RoZWNhLm5ldC9vY3NwMC8GCCsGAQUFBzAC
hiNodHRwOi8vdGhlY2EubmV0L3RvdGFsbHl0aGVjZXJ0LmNydDATBgNVHSAEDDAK
MAgGBmeBDAECAjANBgNVHQ4EBgQEBAMCATAbBgNVHREEFDASgggqLmdvdi51c4IG
Z292LnVzMA0GCSqGSIb3DQEBCwUAA4IBAQBEGkFPp20mqoSjThUmzmp+9CL+Oeg0
7oySZfv7feD5/ZWEMSid6UWklEJrWWG7XpD3+E/tnRGtnho3sb5GpbgRkX/+uT+V
bUsYjTwg/jkPSS3r92wN/PihJe6pHcnnlXRhKTC7GfNP5gE3ps0BepLdy+7o0eD0
b90qNWLApybgiN/pTc14kKiwMNuXkRXNRYCRqpMpdXXsFbyyJm6AnQZ84TwP5Zgd
0jLxHgqtRKrJI+GJzsJbGAW/QJxoyPuyfmMFnR/v/OdQ8IfiR3PqdKGs/2iGne2T
pPlFgQ/AenJk4fHnGsjWbya9FJrCHyqCsGo3V60ATxEl+xrHSNsWGRUb
-----END CERTIFICATE-----
