Certificate:
    Data:
        Version: 3 (0x2)
        Serial Number:
            79:87:e8:bf:16:ea:82:3a:01:6e:32:50:14:4d:5d:c6
        Signature Algorithm: sha256WithRSAEncryption
        Issuer: C = XX, O = Some CA, CN = Fake CA for zlint testing
        Validity
            Not Before: May 11 08:45:35 2024 GMT
            Not After : May 11 08:45:35 2025 GMT
        Subject: C = IT, ST = Some State or Province, L = Somewhere, O = Some Company Ltd., CN = example.org
        Subject Public Key Info:
            Public Key Algorithm: rsaEncryption
                RSA Public-Key: (2048 bit)
                Modulus:
                    00:a5:b6:9d:98:44:d5:88:04:a6:04:7b:bc:27:12:
                    1d:e3:28:59:71:12:25:02:ce:c9:42:8b:10:54:2c:
                    c8:75:83:d5:a1:4c:22:79:97:40:24:e8:8b:29:d4:
                    b4:1f:0d:26:d2:e2:b0:51:48:36:95:72:de:c3:29:
                    e8:a4:3e:e7:f4:a8:08:0e:ae:b0:ce:66:9e:11:27:
                    fb:c0:4c:7f:58:0e:89:a0:8c:d8:4c:be:97:2b:10:
                    af:ab:73:37:90:64:69:36:7e:7c:95:ce:05:f6:3d:
                    58:92:53:c5:4d:e0:36:54:9a:84:78:0f:35:cc:c2:
                    80:02:51:c3:42:9b:14:0a:eb:b7:9e:76:04:88:d6:
                    63:81:d7:7f:0d:d8:4c:4d:0b:86:0a:4e:1b:f0:9e:
                    c1:66:87:c5:ec:b6:cc:8f:2c:ba:d3:d6:0c:97:35:
                    68:ed:39:5d:87:65:f1:47:64:2b:bc:68:47:68:f5:
                    ca:c3:82:3b:17:69:72:02:5e:68:b6:19:eb:ef:08:
                    5c:f0:f5:14:0d:2f:ac:c6:b5:86:98:a4:e4:0f:b4:
                    df:7b:fe:12:a4:22:28:75:4e:21:5b:92:df:66:f2:
                    6f:81:1a:4c:e4:25:2b:7c:4c:d7:1e:48:44:e3:c0:
                    5a:74:5b:6a:6c:7c:14:5b:0c:b3:59:66:3a:97:d8:
                    e7:09
                Exponent: 65537 (0x10001)
        X509v3 extensions:
            X509v3 Key Usage: critical
                Digital Signature, Key Encipherment
            X509v3 Extended Key Usage: 
                TLS Web Client Authentication, TLS Web Server Authentication
            X509v3 Subject Key Identifier: 
                EA:73:3B:62:41:EA:D3:BE:6B:10:6E:5E:C9:03:5C:A9:A4:93:9E:E4
            X509v3 Authority Key Identifier: 
                keyid:E8:B6:F6:76:4B:D0:3B:E5:46:A5:F9:54:D4:7E:07:B3:DE:0D:60:3E

            Authority Information Access: 
                OCSP - URI:http://ca.someca-inc.com/ocsp
                CA Issuers - URI:http://ca.someca-inc.com/root

            X509v3 Subject Alternative Name: 
                DNS:example.org
            X509v3 Certificate Policies: 
                Policy: 2.23.140.1.2.2

            X509v3 CRL Distribution Points: 

                Full Name:
                  URI:http://ca.someca-inc.com/crl

            CT Precertificate SCTs: 
                Signed Certificate Timestamp:
                    Version   : v1 (0x0)
                    Log ID    : B7:3E:FB:24:DF:9C:4D:BA:75:F2:39:C5:BA:58:F4:6C:
                                5D:FC:42:CF:7A:9F:35:C4:9E:1D:09:81:25:ED:B4:99
                    Timestamp : Feb 16 23:48:16.194 2023 GMT
                    Extensions: none
                    Signature : ecdsa-with-SHA256
                                30:45:02:20:71:A9:CF:F3:7B:85:D8:FB:AE:8E:E6:51:
                                9A:73:1B:43:55:80:37:02:5D:81:4E:D9:57:B4:30:92:
                                D3:2E:F0:0C:02:21:00:C0:F3:25:A9:38:F0:D2:29:89:
                                B6:9E:74:05:43:33:E0:3B:EB:16:8B:E8:F1:F2:35:C2:
                                C8:87:FE:50:5A:44:2B
                Signed Certificate Timestamp:
                    Version   : v1 (0x0)
                    Log ID    : AD:F7:BE:FA:7C:FF:10:C8:8B:9D:3D:9C:1E:3E:18:6A:
                                B4:67:29:5D:CF:B1:0C:24:CA:85:86:34:EB:DC:82:8A
                    Timestamp : Feb 16 23:48:16.223 2023 GMT
                    Extensions: none
                    Signature : ecdsa-with-SHA256
                                30:45:02:20:5A:59:95:CA:3D:67:45:EC:6F:D8:5C:E2:
                                A1:0D:C7:68:CC:BF:C2:29:9B:64:DF:B4:19:0A:79:8D:
                                F6:EA:9C:22:02:21:00:CC:FA:2B:B0:25:0D:1B:17:D6:
                                41:91:52:7C:D5:AF:B1:C9:35:FC:CC:2A:A6:8B:CC:66:
                                06:DD:5A:2A:C2:A5:86
            CT Precertificate Poison: critical
                NULL
    Signature Algorithm: sha256WithRSAEncryption
         a1:76:ff:56:01:8f:5b:dd:c2:42:61:eb:5a:d3:70:3a:d4:b4:
         12:b0:30:2a:43:d5:96:34:d5:a4:ad:a8:8d:e5:1c:88:ef:12:
         93:00:b0:e4:03:71:ed:c2:9e:71:84:d9:52:2d:7e:1d:0a:44:
         73:d3:14:f8:02:2e:f9:f7:c4:09:fe:bd:45:e6:9d:23:33:c1:
         1e:73:f8:5e:be:e8:65:16:94:8c:4b:db:17:75:80:a5:b6:a7:
         8c:d6:6c:66:90:5c:37:08:bc:e1:15:b4:1b:ff:c6:d6:4d:91:
         2d:30:5d:32:ea:51:86:e3:5c:cd:b5:38:2a:f9:1f:6f:e5:24:
         ca:ae:6b:b1:48:cf:4c:f4:ae:e3:54:b9:b8:b4:c4:2b:0d:73:
         e0:98:f5:ce:cd:0a:34:f5:cb:f1:fa:d9:a5:5b:c0:d1:b1:e9:
         64:14:fd:b5:1b:1b:1a:2e:bc:1f:8b:52:b4:a4:ba:ea:27:03:
         a1:e3:f8:0b:f3:9f:71:09:87:32:0a:c8:d7:a9:dd:cf:21:eb:
         25:e9:76:88:5f:4a:e1:53:aa:25:5b:72:f0:8e:9d:35:41:ee:
         34:90:8a:e0:0c:e0:ee:0d:d7:46:4c:25:0d:12:a4:05:8d:c8:
         d8:4c:d9:7a:bd:eb:86:2d:ed:01:bb:1b:cb:7e:06:12:77:ed:
         00:b9:54:84
-----BEGIN CERTIFICATE-----
MIIFlTCCBH2gAwIBAgIQeYfovxbqgjoBbjJQFE1dxjANBgkqhkiG9w0BAQsFADBD
MQswCQYDVQQGEwJYWDEQMA4GA1UEChMHU29tZSBDQTEiMCAGA1UEAxMZRmFrZSBD
QSBmb3IgemxpbnQgdGVzdGluZzAeFw0yNDA1MTEwODQ1MzVaFw0yNTA1MTEwODQ1
MzVaMHQxCzAJBgNVBAYTAklUMR8wHQYDVQQIExZTb21lIFN0YXRlIG9yIFByb3Zp
bmNlMRIwEAYDVQQHEwlTb21ld2hlcmUxGjAYBgNVBAoTEVNvbWUgQ29tcGFueSBM
dGQuMRQwEgYDVQQDEwtleGFtcGxlLm9yZzCCASIwDQYJKoZIhvcNAQEBBQADggEP
ADCCAQoCggEBAKW2nZhE1YgEpgR7vCcSHeMoWXESJQLOyUKLEFQsyHWD1aFMInmX
QCToiynUtB8NJtLisFFINpVy3sMp6KQ+5/SoCA6usM5mnhEn+8BMf1gOiaCM2Ey+
lysQr6tzN5BkaTZ+fJXOBfY9WJJTxU3gNlSahHgPNczCgAJRw0KbFArrt552BIjW
Y4HXfw3YTE0LhgpOG/CewWaHxey2zI8sutPWDJc1aO05XYdl8UdkK7xoR2j1ysOC
OxdpcgJeaLYZ6+8IXPD1FA0vrMa1hpik5A+033v+EqQiKHVOIVuS32byb4EaTOQl
K3xM1x5IROPAWnRbamx8FFsMs1lmOpfY5wkCAwEAAaOCAlIwggJOMA4GA1UdDwEB
/wQEAwIFoDAdBgNVHSUEFjAUBggrBgEFBQcDAgYIKwYBBQUHAwEwHQYDVR0OBBYE
FOpzO2JB6tO+axBuXskDXKmkk57kMB8GA1UdIwQYMBaAFOi29nZL0DvlRqX5VNR+
B7PeDWA+MGQGCCsGAQUFBwEBBFgwVjApBggrBgEFBQcwAYYdaHR0cDovL2NhLnNv
bWVjYS1pbmMuY29tL29jc3AwKQYIKwYBBQUHMAKGHWh0dHA6Ly9jYS5zb21lY2Et
aW5jLmNvbS9yb290MBYGA1UdEQQPMA2CC2V4YW1wbGUub3JnMBMGA1UdIAQMMAow
CAYGZ4EMAQICMC0GA1UdHwQmMCQwIqAgoB6GHGh0dHA6Ly9jYS5zb21lY2EtaW5j
LmNvbS9jcmwwggEEBgorBgEEAdZ5AgQCBIH1BIHyAPAAdgC3Pvsk35xNunXyOcW6
WPRsXfxCz3qfNcSeHQmBJe20mQAAAYZcoO7CAAAEAwBHMEUCIHGpz/N7hdj7ro7m
UZpzG0NVgDcCXYFO2Ve0MJLTLvAMAiEAwPMlqTjw0imJtp50BUMz4DvrFovo8fI1
wsiH/lBaRCsAdgCt9776fP8QyIudPZwePhhqtGcpXc+xDCTKhYY069yCigAAAYZc
oO7fAAAEAwBHMEUCIFpZlco9Z0Xsb9hc4qENx2jMv8Ipm2TftBkKeY326pwiAiEA
zPorsCUNGxfWQZFSfNWvsck1/MwqpovMZgbdWirCpYYwEwYKKwYBBAHWeQIEAwEB
/wQCBQAwDQYJKoZIhvcNAQELBQADggEBAKF2/1YBj1vdwkJh61rTcDrUtBKwMCpD
1ZY01aStqI3lHIjvEpMAsOQDce3CnnGE2VItfh0KRHPTFPgCLvn3xAn+vUXmnSMz
wR5z+F6+6GUWlIxL2xd1gKW2p4zWbGaQXDcIvOEVtBv/xtZNkS0wXTLqUYbjXM21
OCr5H2/lJMqua7FIz0z0ruNUubi0xCsNc+CY9c7NCjT1y/H62aVbwNGx6WQU/bUb
GxouvB+LUrSkuuonA6Hj+Avzn3EJhzIKyNep3c8h6yXpdohfSuFTqiVbcvCOnTVB
7jSQiuAM4O4N10ZMJQ0SpAWNyNhM2Xq964Yt7QG7G8t+BhJ37QC5VIQ=
-----END CERTIFICATE-----
