Certificate:
    Data:
        Version: 3 (0x2)
        Serial Number:
            43:1f:cd:15:f2:6a:a3:07:2b:58:c1:bb:7d:26:fa:21
        Signature Algorithm: sha256WithRSAEncryption
        Issuer: C = XX, O = Some CA, CN = Fake CA for zlint testing
        Validity
            Not Before: May 11 08:32:10 2024 GMT
            Not After : May 11 08:32:10 2025 GMT
        Subject: C = IT, ST = Some State or Province, L = Somewhere, O = Some Company Ltd., CN = example.org
        Subject Public Key Info:
            Public Key Algorithm: rsaEncryption
                RSA Public-Key: (2048 bit)
                Modulus:
                    00:ca:c8:38:9d:32:a0:45:f8:4b:02:8a:b3:eb:61:
                    6d:40:94:84:4e:3f:64:37:da:a3:46:d6:81:38:82:
                    e9:4e:8a:81:5d:0f:f4:2e:a1:27:b9:04:90:a6:ec:
                    c8:3e:8c:a2:9e:63:91:bb:d6:17:1e:00:70:49:ef:
                    09:24:d8:49:9a:ee:1a:50:75:f7:fe:ef:f9:ac:e2:
                    ca:71:ce:3b:65:5b:df:87:b2:9c:34:1c:fe:65:15:
                    13:34:d3:59:e5:d5:c7:7c:c4:79:4c:60:66:03:e8:
                    8c:d1:13:e5:0f:67:25:5b:ed:5b:5e:ae:f4:0c:f4:
                    7c:69:b1:56:4c:bd:35:ee:c4:04:a1:da:e6:54:38:
                    9a:fa:7a:51:25:b0:44:7c:af:97:d1:bc:b3:fd:0f:
                    6d:1d:17:a1:e1:37:dd:b5:f4:da:51:04:88:de:70:
                    87:28:e5:79:cf:f5:17:d0:34:3d:80:2c:26:34:df:
                    3c:a4:2f:1b:3e:54:d2:7f:75:6a:0c:75:0f:e8:f2:
                    78:43:1a:2d:95:1d:27:79:f1:b9:72:13:11:70:a9:
                    6b:18:d1:2d:68:e8:56:87:27:73:30:d8:d0:d7:98:
                    3e:5b:59:7b:e1:c9:07:7e:1f:14:19:30:4f:bf:ab:
                    35:b7:ff:dd:d6:c0:cf:7f:1b:e2:c1:65:39:65:b0:
                    7b:03
                Exponent: 65537 (0x10001)
        X509v3 extensions:
            X509v3 Key Usage: critical
                Digital Signature, Key Encipherment
            X509v3 Extended Key Usage: 
                TLS Web Client Authentication, TLS Web Server Authentication
            X509v3 Subject Key Identifier: 
                42:F2:68:19:47:A4:C3:DF:A4:01:80:1F:81:36:64:E1:F7:CB:53:7F
            X509v3 Authority Key Identifier: 
                keyid:E8:B6:F6:76:4B:D0:3B:E5:46:A5:F9:54:D4:7E:07:B3:DE:0D:60:3E

            Authority Information Access: 
                OCSP - URI:http://ca.someca-inc.com/ocsp
                CA Issuers - URI:http://ca.someca-inc.com/root

            X509v3 Subject Alternative Name: 
                DNS:example.org
            X509v3 Certificate Policies: 
                Policy: 2.23.140.1.2.2

            X509v3 CRL Distribution Points: 

                Full Name:
                  URI:http://ca.someca-inc.com/crl

    Signature Algorithm: sha256WithRSAEncryption
         85:eb:bf:69:d4:c2:44:fa:d8:ee:48:9e:df:7e:83:cd:19:66:
         46:20:d0:15:fc:f8:15:f6:c1:55:52:e2:d5:83:24:60:d7:aa:
         7a:19:87:a7:f3:a1:f7:98:64:b3:3a:b7:23:21:5a:82:34:16:
         97:a2:7b:d0:e8:68:2c:c1:f0:4a:8e:61:7e:5d:70:ec:d5:e7:
         c3:25:ac:09:31:bf:77:8a:57:1a:f8:23:be:dd:9c:bb:91:9d:
         e5:30:8d:8a:03:74:2d:1e:2f:8e:19:f2:d0:79:69:1c:c1:01:
         2c:bb:46:5c:56:12:1c:00:21:69:75:3f:46:ab:b2:38:e4:93:
         ab:d3:91:86:0f:1b:0c:e3:eb:21:0b:97:52:ec:64:7e:48:40:
         36:b3:d8:b4:d8:17:a1:88:b8:30:2c:db:45:86:ab:fb:5c:bc:
         72:32:20:59:22:b3:a6:68:af:a8:df:b7:97:9f:9e:50:39:cc:
         ca:63:74:49:92:83:16:6f:ed:fc:60:f5:91:e5:6e:41:62:0a:
         c0:7b:56:a6:03:ea:82:06:03:97:2a:d6:e5:ae:ec:10:ac:9f:
         c4:63:63:08:64:02:85:e7:fe:0a:58:fc:ca:2f:b9:73:5c:34:
         6b:b6:a7:31:a7:7c:4d:70:2a:37:70:d8:c8:0d:37:bf:f9:78:
         9d:5c:43:43
-----BEGIN CERTIFICATE-----
MIIEeDCCA2CgAwIBAgIQQx/NFfJqowcrWMG7fSb6ITANBgkqhkiG9w0BAQsFADBD
MQswCQYDVQQGEwJYWDEQMA4GA1UEChMHU29tZSBDQTEiMCAGA1UEAxMZRmFrZSBD
QSBmb3IgemxpbnQgdGVzdGluZzAeFw0yNDA1MTEwODMyMTBaFw0yNTA1MTEwODMy
MTBaMHQxCzAJBgNVBAYTAklUMR8wHQYDVQQIExZTb21lIFN0YXRlIG9yIFByb3Zp
bmNlMRIwEAYDVQQHEwlTb21ld2hlcmUxGjAYBgNVBAoTEVNvbWUgQ29tcGFueSBM
dGQuMRQwEgYDVQQDEwtleGFtcGxlLm9yZzCCASIwDQYJKoZIhvcNAQEBBQADggEP
ADCCAQoCggEBAMrIOJ0yoEX4SwKKs+thbUCUhE4/ZDfao0bWgTiC6U6KgV0P9C6h
J7kEkKbsyD6Mop5jkbvWFx4AcEnvCSTYSZruGlB19/7v+aziynHOO2Vb34eynDQc
/mUVEzTTWeXVx3zEeUxgZgPojNET5Q9nJVvtW16u9Az0fGmxVky9Ne7EBKHa5lQ4
mvp6USWwRHyvl9G8s/0PbR0XoeE33bX02lEEiN5whyjlec/1F9A0PYAsJjTfPKQv
Gz5U0n91agx1D+jyeEMaLZUdJ3nxuXITEXCpaxjRLWjoVocnczDY0NeYPltZe+HJ
B34fFBkwT7+rNbf/3dbAz38b4sFlOWWwewMCAwEAAaOCATUwggExMA4GA1UdDwEB
/wQEAwIFoDAdBgNVHSUEFjAUBggrBgEFBQcDAgYIKwYBBQUHAwEwHQYDVR0OBBYE
FELyaBlHpMPfpAGAH4E2ZOH3y1N/MB8GA1UdIwQYMBaAFOi29nZL0DvlRqX5VNR+
B7PeDWA+MGQGCCsGAQUFBwEBBFgwVjApBggrBgEFBQcwAYYdaHR0cDovL2NhLnNv
bWVjYS1pbmMuY29tL29jc3AwKQYIKwYBBQUHMAKGHWh0dHA6Ly9jYS5zb21lY2Et
aW5jLmNvbS9yb290MBYGA1UdEQQPMA2CC2V4YW1wbGUub3JnMBMGA1UdIAQMMAow
CAYGZ4EMAQICMC0GA1UdHwQmMCQwIqAgoB6GHGh0dHA6Ly9jYS5zb21lY2EtaW5j
LmNvbS9jcmwwDQYJKoZIhvcNAQELBQADggEBAIXrv2nUwkT62O5Int9+g80ZZkYg
0BX8+BX2wVVS4tWDJGDXqnoZh6fzofeYZLM6tyMhWoI0Fpeie9DoaCzB8EqOYX5d
cOzV58MlrAkxv3eKVxr4I77dnLuRneUwjYoDdC0eL44Z8tB5aRzBASy7RlxWEhwA
IWl1P0arsjjkk6vTkYYPGwzj6yELl1LsZH5IQDaz2LTYF6GIuDAs20WGq/tcvHIy
IFkis6Zor6jft5efnlA5zMpjdEmSgxZv7fxg9ZHlbkFiCsB7VqYD6oIGA5cq1uWu
7BCsn8RjYwhkAoXn/gpY/MovuXNcNGu2pzGnfE1wKjdw2MgNN7/5eJ1cQ0M=
-----END CERTIFICATE-----
