Certificate:
    Data:
        Version: 3 (0x2)
        Serial Number:
            84:97:14:6f:b4:6f:b1:bd:05:33:3d:db:d2:d0:2a:cc
        Signature Algorithm: sha256WithRSAEncryption
        Issuer: C = XX, O = Some CA, CN = Fake CA for zlint testing
        Validity
            Not Before: May 11 08:39:52 2024 GMT
            Not After : May 11 08:39:52 2025 GMT
        Subject: C = IT, ST = Some State or Province, L = Somewhere, O = Some Company Ltd., CN = example.org
        Subject Public Key Info:
            Public Key Algorithm: rsaEncryption
                RSA Public-Key: (2048 bit)
                Modulus:
                    00:ca:90:1a:5a:62:87:2a:d1:c2:a0:6b:85:54:18:
                    f4:77:48:9f:42:56:34:4b:74:c6:59:6d:46:bc:29:
                    2c:28:49:03:37:c0:e3:79:af:0f:f8:bd:a3:19:a1:
                    76:6d:00:d5:df:70:66:1c:86:22:99:56:85:dc:72:
                    2e:7a:32:2b:d4:38:cd:a5:c4:bc:19:a7:02:dd:03:
                    d4:ba:50:c8:2d:79:32:de:5e:dc:3b:8b:41:ae:c9:
                    cd:cb:f0:c7:5b:28:3b:76:02:99:46:67:1f:9a:68:
                    5f:b3:ca:9a:88:85:53:54:9b:cf:e2:b8:c2:76:ee:
                    bc:63:9b:55:06:b1:5e:5b:8a:0b:f8:a9:7e:63:78:
                    5d:1d:89:d1:fa:dc:f9:23:10:5f:1a:be:c3:e3:0d:
                    17:a0:e8:45:7b:06:28:65:b0:ef:27:2b:c7:11:7b:
                    ef:2f:1f:e2:9a:61:c6:7d:da:aa:45:da:b7:16:35:
                    d0:ec:e4:7d:f4:bd:ed:60:c0:ce:e4:86:45:11:ec:
                    bb:b4:c0:49:71:b9:1a:e2:8a:6f:f2:0f:15:d9:bd:
                    e4:14:a3:f2:c2:49:cb:7e:97:7e:9a:5e:7b:a0:dd:
                    f2:96:32:57:60:57:5a:52:52:3e:11:9f:3d:c2:5a:
                    fc:96:9f:ea:a2:92:fb:c2:b8:ae:9f:dd:73:31:18:
                    42:73
                Exponent: 65537 (0x10001)
        X509v3 extensions:
            X509v3 Key Usage: critical
                Digital Signature, Key Encipherment
            X509v3 Extended Key Usage: 
                TLS Web Client Authentication, TLS Web Server Authentication
            X509v3 Subject Key Identifier: 
                88:DB:B7:FC:9D:FF:6C:80:D4:46:49:DA:7A:46:8F:3F:5F:C3:30:37
            X509v3 Authority Key Identifier: 
                keyid:E8:B6:F6:76:4B:D0:3B:E5:46:A5:F9:54:D4:7E:07:B3:DE:0D:60:3E

            Authority Information Access: 
                OCSP - URI:http://ca.someca-inc.com/ocsp
                CA Issuers - URI:http://ca.someca-inc.com/root

            X509v3 Subject Alternative Name: 
                DNS:example.org
            X509v3 Certificate Policies: 
                Policy: 2.23.140.1.2.2

            X509v3 CRL Distribution Points: 

                Full Name:
                  URI:http://ca.someca-inc.com/crl

            CT Precertificate SCTs: 
                Signed Certificate Timestamp:
                    Version   : v1 (0x0)
                    Log ID    : B7:3E:FB:24:DF:9C:4D:BA:75:F2:39:C5:BA:58:F4:6C:
                                5D:FC:42:CF:7A:9F:35:C4:9E:1D:09:81:25:ED:B4:99
                    Timestamp : Feb 16 23:48:16.194 2023 GMT
                    Extensions: none
                    Signature : ecdsa-with-SHA256
                                30:45:02:20:71:A9:CF:F3:7B:85:D8:FB:AE:8E:E6:51:
                                9A:73:1B:43:55:80:37:02:5D:81:4E:D9:57:B4:30:92:
                                D3:2E:F0:0C:02:21:00:C0:F3:25:A9:38:F0:D2:29:89:
                                B6:9E:74:05:43:33:E0:3B:EB:16:8B:E8:F1:F2:35:C2:
                                C8:87:FE:50:5A:44:2B
                Signed Certificate Timestamp:
                    Version   : v1 (0x0)
                    Log ID    : AD:F7:BE:FA:7C:FF:10:C8:8B:9D:3D:9C:1E:3E:18:6A:
                                B4:67:29:5D:CF:B1:0C:24:CA:85:86:34:EB:DC:82:8A
                    Timestamp : Feb 16 23:48:16.223 2023 GMT
                    Extensions: none
                    Signature : ecdsa-with-SHA256
                                30:45:02:20:5A:59:95:CA:3D:67:45:EC:6F:D8:5C:E2:
                                A1:0D:C7:68:CC:BF:C2:29:9B:64:DF:B4:19:0A:79:8D:
                                F6:EA:9C:22:02:21:00:CC:FA:2B:B0:25:0D:1B:17:D6:
                                41:91:52:7C:D5:AF:B1:C9:35:FC:CC:2A:A6:8B:CC:66:
                                06:DD:5A:2A:C2:A5:86
    Signature Algorithm: sha256WithRSAEncryption
         c4:3e:6e:d0:27:e4:4e:92:f1:df:d5:21:c7:41:42:e8:8f:15:
         ae:dc:50:4b:e7:00:bb:0b:c4:e4:93:6b:3b:84:d3:78:24:fa:
         01:d1:ec:51:14:54:c5:3a:ee:48:2a:27:ba:66:bc:24:f8:08:
         cd:12:e4:6e:58:7f:03:da:14:4e:20:67:79:77:3c:4b:94:ce:
         8d:64:99:8d:9a:7b:61:8b:aa:e3:7c:6c:65:ab:e2:0d:ff:3c:
         03:9a:e0:17:ca:6a:29:f0:77:1e:66:ff:3f:23:be:08:33:2e:
         2b:57:6b:35:c4:ea:50:ae:3f:b1:cb:04:4f:5e:ad:6b:01:73:
         0f:25:f0:9b:d6:46:8b:48:f8:09:4f:2d:f9:ae:9e:e7:49:3a:
         e6:76:68:89:37:23:38:0a:e8:cc:56:b2:1f:a9:2c:98:ff:76:
         40:ef:ef:dc:73:58:f3:d2:e6:71:2b:8d:9a:2b:ec:6b:1d:1b:
         22:be:65:23:33:f1:04:28:01:c6:9b:82:7e:e1:7f:3f:25:88:
         e5:b7:86:a7:39:8b:8d:9e:04:a3:da:8e:45:52:6d:05:5a:dc:
         33:af:fb:fd:1e:5e:51:d8:3e:b6:a8:a7:a6:ef:a9:67:65:8b:
         d0:2d:cd:28:51:c2:30:89:ee:09:ef:23:3d:6b:0a:83:8d:df:
         ff:68:bc:c9
-----BEGIN CERTIFICATE-----
MIIFgTCCBGmgAwIBAgIRAISXFG+0b7G9BTM929LQKswwDQYJKoZIhvcNAQELBQAw
QzELMAkGA1UEBhMCWFgxEDAOBgNVBAoTB1NvbWUgQ0ExIjAgBgNVBAMTGUZha2Ug
Q0EgZm9yIHpsaW50IHRlc3RpbmcwHhcNMjQwNTExMDgzOTUyWhcNMjUwNTExMDgz
OTUyWjB0MQswCQYDVQQGEwJJVDEfMB0GA1UECBMWU29tZSBTdGF0ZSBvciBQcm92
aW5jZTESMBAGA1UEBxMJU29tZXdoZXJlMRowGAYDVQQKExFTb21lIENvbXBhbnkg
THRkLjEUMBIGA1UEAxMLZXhhbXBsZS5vcmcwggEiMA0GCSqGSIb3DQEBAQUAA4IB
DwAwggEKAoIBAQDKkBpaYocq0cKga4VUGPR3SJ9CVjRLdMZZbUa8KSwoSQM3wON5
rw/4vaMZoXZtANXfcGYchiKZVoXcci56MivUOM2lxLwZpwLdA9S6UMgteTLeXtw7
i0Guyc3L8MdbKDt2AplGZx+aaF+zypqIhVNUm8/iuMJ27rxjm1UGsV5bigv4qX5j
eF0didH63PkjEF8avsPjDReg6EV7BihlsO8nK8cRe+8vH+KaYcZ92qpF2rcWNdDs
5H30ve1gwM7khkUR7Lu0wElxuRriim/yDxXZveQUo/LCSct+l36aXnug3fKWMldg
V1pSUj4Rnz3CWvyWn+qikvvCuK6f3XMxGEJzAgMBAAGjggI9MIICOTAOBgNVHQ8B
Af8EBAMCBaAwHQYDVR0lBBYwFAYIKwYBBQUHAwIGCCsGAQUFBwMBMB0GA1UdDgQW
BBSI27f8nf9sgNRGSdp6Ro8/X8MwNzAfBgNVHSMEGDAWgBTotvZ2S9A75Ual+VTU
fgez3g1gPjBkBggrBgEFBQcBAQRYMFYwKQYIKwYBBQUHMAGGHWh0dHA6Ly9jYS5z
b21lY2EtaW5jLmNvbS9vY3NwMCkGCCsGAQUFBzAChh1odHRwOi8vY2Euc29tZWNh
LWluYy5jb20vcm9vdDAWBgNVHREEDzANggtleGFtcGxlLm9yZzATBgNVHSAEDDAK
MAgGBmeBDAECAjAtBgNVHR8EJjAkMCKgIKAehhxodHRwOi8vY2Euc29tZWNhLWlu
Yy5jb20vY3JsMIIBBAYKKwYBBAHWeQIEAgSB9QSB8gDwAHYAtz77JN+cTbp18jnF
ulj0bF38Qs96nzXEnh0JgSXttJkAAAGGXKDuwgAABAMARzBFAiBxqc/ze4XY+66O
5lGacxtDVYA3Al2BTtlXtDCS0y7wDAIhAMDzJak48NIpibaedAVDM+A76xaL6PHy
NcLIh/5QWkQrAHYArfe++nz/EMiLnT2cHj4YarRnKV3PsQwkyoWGNOvcgooAAAGG
XKDu3wAABAMARzBFAiBaWZXKPWdF7G/YXOKhDcdozL/CKZtk37QZCnmN9uqcIgIh
AMz6K7AlDRsX1kGRUnzVr7HJNfzMKqaLzGYG3VoqwqWGMA0GCSqGSIb3DQEBCwUA
A4IBAQDEPm7QJ+ROkvHf1SHHQULojxWu3FBL5wC7C8Tkk2s7hNN4JPoB0exRFFTF
Ou5IKie6Zrwk+AjNEuRuWH8D2hROIGd5dzxLlM6NZJmNmnthi6rjfGxlq+IN/zwD
muAXymop8HceZv8/I74IMy4rV2s1xOpQrj+xywRPXq1rAXMPJfCb1kaLSPgJTy35
rp7nSTrmdmiJNyM4CujMVrIfqSyY/3ZA7+/cc1jz0uZxK42aK+xrHRsivmUjM/EE
KAHGm4J+4X8/JYjlt4anOYuNngSj2o5FUm0FWtwzr/v9Hl5R2D62qKem76lnZYvQ
Lc0oUcIwie4J7yM9awqDjd//aLzJ
-----END CERTIFICATE-----
