Certificate:
    Data:
        Version: 3 (0x2)
        Serial Number: 14468 (0x3884)
        Signature Algorithm: sha256WithRSAEncryption
        Issuer: CN = Lint Sub CA, OU = Test, O = MTG, C = DE
        Validity
            Not Before: Jan  2 09:00:00 2021 GMT
            Not After : Jan  2 09:00:00 2023 GMT
        Subject: CN = publicKeyIsRSAWithCorrectEncoding, OU = Lint, O = MTG, L = Darmstadt, ST = Hesse, C = DE
        Subject Public Key Info:
            Public Key Algorithm: rsaEncryption
                RSA Public-Key: (2048 bit)
                Modulus:
                    00:af:f2:40:fd:5d:9b:f1:d3:01:b4:1e:fe:75:78:
                    f0:6c:f9:9b:82:0e:8d:10:5b:ea:73:ef:12:b5:8a:
                    93:4b:80:7b:2a:00:76:1f:13:22:d7:68:1e:02:48:
                    c8:f7:c0:e7:2e:0c:01:6c:37:7f:98:50:ee:92:57:
                    1b:be:21:47:b0:58:0f:47:42:a3:53:8e:1b:f2:d0:
                    6a:56:10:f7:de:3b:dc:30:49:2a:1a:e2:95:e7:18:
                    e5:44:e5:57:11:44:a9:b8:b2:87:72:2f:52:67:70:
                    d6:25:6c:95:f5:71:99:b4:64:ba:79:b5:c2:9b:a7:
                    e7:88:b2:98:75:2a:91:f4:0b:69:63:b6:81:be:e7:
                    68:dd:a0:f7:6f:b5:a6:40:2b:8a:2d:eb:2f:e2:9c:
                    81:d0:7c:7f:7a:e7:da:fe:f3:23:71:3f:77:0d:f8:
                    68:e1:f4:3b:d7:58:df:4a:b6:3a:1d:9f:41:fe:7c:
                    42:ad:39:ce:15:ed:e1:d4:f2:92:50:03:8e:a4:7a:
                    1c:f3:3e:8f:23:30:2e:07:1a:83:12:e2:2d:c0:8c:
                    a6:a0:14:a8:88:b5:9a:30:96:ba:04:c9:dd:8e:d3:
                    08:8e:c1:9c:a8:cf:f5:96:2e:c6:e6:3f:04:de:3a:
                    c8:b8:50:3c:15:42:3e:c6:a2:01:7b:28:2e:ac:67:
                    d9:b1
                Exponent: 65537 (0x10001)
    Signature Algorithm: sha256WithRSAEncryption
         5b:07:52:9d:a5:0c:76:6c:5d:12:cc:c7:69:41:15:3f:c1:52:
         32:db:e7:ab:9a:bc:43:bb:8e:79:43:69:a5:13:b4:05:4e:09:
         bd:68:66:15:04:be:89:9a:16:b2:11:aa:0b:76:28:7b:6f:40:
         be:48:72:32:0d:85:9b:b6:de:86:b7:3b:59:9d:b3:8c:07:b9:
         e3:b8:f3:99:89:06:ec:37:3c:6e:63:c8:59:95:45:cd:18:be:
         07:5a:e4:fd:26:7d:21:62:d5:51:f9:db:98:83:42:4a:d2:ad:
         41:e7:1a:4d:66:2b:1e:e6:f4:37:6c:74:9a:41:45:b9:60:10:
         57:66:54:4e:22:92:82:ee:2d:86:5a:3f:35:28:88:94:69:2a:
         e8:e5:6e:4c:86:9f:a5:b0:24:29:fb:3e:2d:7c:7d:50:f3:6b:
         88:bb:84:8d:09:d9:40:35:21:61:ad:02:79:f0:3b:48:0d:4c:
         cc:9c:33:d9:35:26:a8:c7:02:ce:b3:06:1d:45:22:98:08:b4:
         1e:83:97:73:29:8e:f3:cf:1f:92:e9:d5:55:e8:ff:c6:8c:33:
         94:60:29:c0:7e:84:b3:23:dd:e6:1f:65:37:b0:05:e4:a2:79:
         ee:1e:b4:c3:f3:45:fb:89:7f:d2:f9:5b:03:60:80:72:2c:db:
         87:96:8c:3a
-----BEGIN CERTIFICATE-----
MIIDNDCCAhygAwIBAgICOIQwDQYJKoZIhvcNAQELBQAwQDEUMBIGA1UEAwwLTGlu
dCBTdWIgQ0ExDTALBgNVBAsMBFRlc3QxDDAKBgNVBAoMA01URzELMAkGA1UEBhMC
REUwHhcNMjEwMTAyMDkwMDAwWhcNMjMwMTAyMDkwMDAwWjB6MSowKAYDVQQDDCFw
dWJsaWNLZXlJc1JTQVdpdGhDb3JyZWN0RW5jb2RpbmcxDTALBgNVBAsMBExpbnQx
DDAKBgNVBAoMA01URzESMBAGA1UEBwwJRGFybXN0YWR0MQ4wDAYDVQQIDAVIZXNz
ZTELMAkGA1UEBhMCREUwggEiMA0GCSqGSIb3DQEBAQUAA4IBDwAwggEKAoIBAQCv
8kD9XZvx0wG0Hv51ePBs+ZuCDo0QW+pz7xK1ipNLgHsqAHYfEyLXaB4CSMj3wOcu
DAFsN3+YUO6SVxu+IUewWA9HQqNTjhvy0GpWEPfeO9wwSSoa4pXnGOVE5VcRRKm4
sodyL1JncNYlbJX1cZm0ZLp5tcKbp+eIsph1KpH0C2ljtoG+52jdoPdvtaZAK4ot
6y/inIHQfH9659r+8yNxP3cN+Gjh9DvXWN9Ktjodn0H+fEKtOc4V7eHU8pJQA46k
ehzzPo8jMC4HGoMS4i3AjKagFKiItZowlroEyd2O0wiOwZyoz/WWLsbmPwTeOsi4
UDwVQj7GogF7KC6sZ9mxAgMBAAEwDQYJKoZIhvcNAQELBQADggEBAFsHUp2lDHZs
XRLMx2lBFT/BUjLb56uavEO7jnlDaaUTtAVOCb1oZhUEvomaFrIRqgt2KHtvQL5I
cjINhZu23oa3O1mds4wHueO485mJBuw3PG5jyFmVRc0Yvgda5P0mfSFi1VH525iD
QkrSrUHnGk1mKx7m9DdsdJpBRblgEFdmVE4ikoLuLYZaPzUoiJRpKujlbkyGn6Ww
JCn7Pi18fVDza4i7hI0J2UA1IWGtAnnwO0gNTMycM9k1JqjHAs6zBh1FIpgItB6D
l3MpjvPPH5Lp1VXo/8aMM5RgKcB+hLMj3eYfZTewBeSiee4etMPzRfuJf9L5WwNg
gHIs24eWjDo=
-----END CERTIFICATE-----
