Certificate:
    Data:
        Version: 3 (0x2)
        Serial Number: 25478 (0x6386)
        Signature Algorithm: sha256WithRSAEncryption
        Issuer: CN = Lint Sub CA, OU = Test, O = MTG, C = DE
        Validity
            Not Before: Jan  2 09:00:00 2021 GMT
            Not After : Jan  2 09:00:00 2023 GMT
        Subject: CN = publicKeyIsECCP256WithCorrectEncoding, OU = Lint, O = MTG, L = Darmstadt, ST = Hesse, C = DE
        Subject Public Key Info:
            Public Key Algorithm: id-ecPublicKey
                Public-Key: (256 bit)
                pub:
                    04:8b:34:e3:91:bf:8a:91:ca:9c:59:99:e4:c5:c6:
                    b5:54:17:f4:6c:90:d7:d2:86:0b:be:02:4b:20:86:
                    04:7b:0e:d2:1f:d8:d3:fe:97:69:80:57:8a:5c:c0:
                    a0:34:26:2f:75:f4:83:db:3d:0f:33:c5:4d:1d:be:
                    38:77:da:57:f6
                ASN1 OID: prime256v1
                NIST CURVE: P-256
    Signature Algorithm: sha256WithRSAEncryption
         65:23:f3:44:3b:e4:50:b9:70:08:3c:7d:fb:40:4c:87:0e:da:
         cd:1c:13:38:29:5e:dc:de:71:4a:34:70:4f:68:76:b3:5d:3d:
         0f:80:12:16:96:c1:c2:44:15:bf:45:2b:15:af:7d:4a:22:4b:
         87:ce:a8:83:b1:15:25:5f:1e:81:2f:b7:76:e7:81:13:6d:fd:
         23:a8:12:17:eb:69:8c:77:f7:60:2d:bb:f6:d6:27:b2:55:71:
         89:90:d2:16:9f:8b:f2:67:00:be:b6:ef:c4:01:cf:48:05:b0:
         8d:ca:80:01:cd:2b:97:47:00:ba:93:a3:c5:f8:8c:7d:1f:1f:
         01:04:b2:e7:e8:31:bb:45:0a:fe:da:47:c4:9b:38:09:fa:e7:
         c7:d7:5f:ab:c3:14:5d:b9:30:96:40:eb:19:b1:64:02:80:ac:
         d5:ca:af:10:5d:64:60:5b:95:dd:6b:50:97:69:40:6d:eb:5f:
         b0:b8:4c:40:18:54:2b:1f:b1:c2:05:12:82:c0:f2:46:a8:8e:
         00:fc:1e:94:a8:3f:7b:82:8c:14:6a:5e:b0:50:e0:e5:43:f5:
         81:79:25:7e:f9:22:3c:0c:e8:af:c4:2e:2d:68:4e:c6:65:1a:
         83:22:08:a6:ac:f4:5c:50:d5:7a:b1:6e:58:8b:d3:ad:c0:d3:
         93:79:e1:46
-----BEGIN CERTIFICATE-----
MIICbTCCAVWgAwIBAgICY4YwDQYJKoZIhvcNAQELBQAwQDEUMBIGA1UEAwwLTGlu
dCBTdWIgQ0ExDTALBgNVBAsMBFRlc3QxDDAKBgNVBAoMA01URzELMAkGA1UEBhMC
REUwHhcNMjEwMTAyMDkwMDAwWhcNMjMwMTAyMDkwMDAwWjB+MS4wLAYDVQQDDCVw
dWJsaWNLZXlJc0VDQ1AyNTZXaXRoQ29ycmVjdEVuY29kaW5nMQ0wCwYDVQQLDARM
aW50MQwwCgYDVQQKDANNVEcxEjAQBgNVBAcMCURhcm1zdGFkdDEOMAwGA1UECAwF
SGVzc2UxCzAJBgNVBAYTAkRFMFkwEwYHKoZIzj0CAQYIKoZIzj0DAQcDQgAEizTj
kb+KkcqcWZnkxca1VBf0bJDX0oYLvgJLIIYEew7SH9jT/pdpgFeKXMCgNCYvdfSD
2z0PM8VNHb44d9pX9jANBgkqhkiG9w0BAQsFAAOCAQEAZSPzRDvkULlwCDx9+0BM
hw7azRwTOCle3N5xSjRwT2h2s109D4ASFpbBwkQVv0UrFa99SiJLh86og7EVJV8e
gS+3dueBE239I6gSF+tpjHf3YC279tYnslVxiZDSFp+L8mcAvrbvxAHPSAWwjcqA
Ac0rl0cAupOjxfiMfR8fAQSy5+gxu0UK/tpHxJs4Cfrnx9dfq8MUXbkwlkDrGbFk
AoCs1cqvEF1kYFuV3WtQl2lAbetfsLhMQBhUKx+xwgUSgsDyRqiOAPwelKg/e4KM
FGpesFDg5UP1gXklfvkiPAzor8QuLWhOxmUagyIIpqz0XFDVerFuWIvTrcDTk3nh
Rg==
-----END CERTIFICATE-----
