Certificate:
    Data:
        Version: 3 (0x2)
        Serial Number: 51831 (0xca77)
        Signature Algorithm: sha256WithRSAEncryption
        Issuer: CN = Lint Sub CA, OU = Test, O = MTG, C = DE
        Validity
            Not Before: Jan  2 09:00:00 2021 GMT
            Not After : Jan  2 09:00:00 2023 GMT
        Subject: CN = publicKeyIsECCP521WithCorrectEncoding, OU = Lint, O = MTG, L = Darmstadt, ST = Hesse, C = DE
        Subject Public Key Info:
            Public Key Algorithm: id-ecPublicKey
                Public-Key: (521 bit)
                pub:
                    04:00:d5:b2:c4:da:65:6c:73:38:88:1e:51:72:4a:
                    a8:90:ea:54:6c:ac:b4:83:a1:63:11:d4:78:48:fe:
                    40:b7:88:91:db:b9:e8:1f:10:8a:79:f4:04:67:f0:
                    23:53:cb:22:3f:78:92:54:c5:15:be:da:32:76:6f:
                    67:cd:c0:f5:8a:5c:1d:01:57:51:ed:3f:7d:2f:fa:
                    6c:eb:0d:2c:fe:65:49:b1:aa:4b:d7:60:07:66:34:
                    ae:d2:b7:f5:98:19:9d:c9:13:a3:36:d2:ed:04:79:
                    ea:35:68:3f:61:15:87:01:7f:2c:7a:e8:88:39:c0:
                    85:46:57:c2:fe:ce:d3:7d:d1:e4:e3:06:0a
                ASN1 OID: secp521r1
                NIST CURVE: P-521
    Signature Algorithm: sha256WithRSAEncryption
         42:3f:f3:d0:e7:59:b8:a9:4f:40:5c:74:40:a2:51:ff:f2:40:
         c8:f1:fb:12:b9:50:39:0e:50:31:ae:01:de:c2:92:52:59:7b:
         72:13:82:91:65:37:10:d4:f4:2c:b1:2a:7e:88:f0:3f:ca:18:
         ba:60:bb:b1:a7:a3:9e:d7:1c:3d:ef:41:7b:3b:68:4e:cb:64:
         0f:f0:05:50:ec:7e:b6:42:54:71:17:a6:22:80:59:8e:ed:6a:
         7d:8a:7a:0f:8d:66:41:ca:f4:9e:1a:3b:de:08:7b:f6:ae:30:
         95:2e:36:d1:16:47:4e:e2:ed:cb:d3:d4:db:21:e2:f9:85:1e:
         5e:e2:ee:0c:3a:13:14:27:f5:3a:16:74:8e:1d:bc:4c:d1:23:
         cd:06:97:35:17:4c:62:5b:24:f8:42:88:19:85:1c:d4:13:b4:
         39:e1:e4:90:7c:af:d4:5a:67:81:41:3d:bb:e5:53:e2:10:9c:
         78:47:d8:ec:5e:ff:c9:bd:8f:bd:f9:79:68:46:94:2b:f6:86:
         a6:61:46:5a:ec:b6:3a:ee:17:38:21:34:2c:96:a3:20:0f:66:
         e0:c4:9e:20:07:1c:5f:0c:fb:97:da:02:c0:8e:2f:dd:75:11:
         0b:c2:5c:3b:09:f9:c2:27:52:b9:4e:fa:de:cf:27:d2:35:6e:
         44:ec:08:84
-----BEGIN CERTIFICATE-----
MIICsTCCAZmgAwIBAgIDAMp3MA0GCSqGSIb3DQEBCwUAMEAxFDASBgNVBAMMC0xp
bnQgU3ViIENBMQ0wCwYDVQQLDARUZXN0MQwwCgYDVQQKDANNVEcxCzAJBgNVBAYT
AkRFMB4XDTIxMDEwMjA5MDAwMFoXDTIzMDEwMjA5MDAwMFowfjEuMCwGA1UEAwwl
cHVibGljS2V5SXNFQ0NQNTIxV2l0aENvcnJlY3RFbmNvZGluZzENMAsGA1UECwwE
TGludDEMMAoGA1UECgwDTVRHMRIwEAYDVQQHDAlEYXJtc3RhZHQxDjAMBgNVBAgM
BUhlc3NlMQswCQYDVQQGEwJERTCBmzAQBgcqhkjOPQIBBgUrgQQAIwOBhgAEANWy
xNplbHM4iB5RckqokOpUbKy0g6FjEdR4SP5At4iR27noHxCKefQEZ/AjU8siP3iS
VMUVvtoydm9nzcD1ilwdAVdR7T99L/ps6w0s/mVJsapL12AHZjSu0rf1mBmdyROj
NtLtBHnqNWg/YRWHAX8seuiIOcCFRlfC/s7TfdHk4wYKMA0GCSqGSIb3DQEBCwUA
A4IBAQBCP/PQ51m4qU9AXHRAolH/8kDI8fsSuVA5DlAxrgHewpJSWXtyE4KRZTcQ
1PQssSp+iPA/yhi6YLuxp6Oe1xw970F7O2hOy2QP8AVQ7H62QlRxF6YigFmO7Wp9
inoPjWZByvSeGjveCHv2rjCVLjbRFkdO4u3L09TbIeL5hR5e4u4MOhMUJ/U6FnSO
HbxM0SPNBpc1F0xiWyT4QogZhRzUE7Q54eSQfK/UWmeBQT275VPiEJx4R9jsXv/J
vY+9+XloRpQr9oamYUZa7LY67hc4ITQslqMgD2bgxJ4gBxxfDPuX2gLAji/ddREL
wlw7CfnCJ1K5TvrezyfSNW5E7AiE
-----END CERTIFICATE-----
