Certificate:
    Data:
        Version: 3 (0x2)
        Serial Number: 50980 (0xc724)
        Signature Algorithm: sha256WithRSAEncryption
        Issuer: CN = Lint Sub CA, OU = Test, O = MTG, C = DE
        Validity
            Not Before: Jan  2 09:00:00 2021 GMT
            Not After : Jan  2 09:00:00 2023 GMT
        Subject: CN = publicKeyIsRSAExplicitNullMissing, OU = Lint, O = MTG, L = Darmstadt, ST = Hesse, C = DE
        Subject Public Key Info:
            Public Key Algorithm: rsaEncryption
                RSA Public-Key: (2048 bit)
                Modulus:
                    00:9d:ec:07:d0:b7:21:e8:44:dc:3c:08:dc:b8:36:
                    a1:93:f1:15:9f:c7:41:5b:be:98:eb:ef:d5:f3:62:
                    94:d8:17:e2:f5:32:f6:c2:e5:04:54:62:c4:42:c0:
                    0e:3f:2f:ee:3d:6a:3e:48:a4:42:3e:3d:41:72:9f:
                    19:31:56:e6:5b:5c:13:57:60:ab:22:90:b1:89:ee:
                    c7:b9:3a:e4:ef:16:ad:2a:a9:23:6d:b8:07:6f:c6:
                    d1:1a:de:ec:40:e3:a0:4b:ed:f1:30:80:e5:33:32:
                    2a:e3:dc:6c:17:5e:34:b1:6d:8f:03:17:fd:a1:95:
                    51:40:aa:87:c3:63:0d:45:6f:a0:4b:f8:ca:67:8a:
                    2e:52:8c:64:c1:47:60:20:dc:09:19:77:d1:1d:c7:
                    85:de:80:7f:9e:83:b2:d6:fb:8c:5c:59:0b:4e:d5:
                    d8:3d:ac:14:1a:00:cc:07:d6:f4:ce:bc:62:f9:a8:
                    e9:4b:5d:ee:44:3d:bc:29:19:03:24:46:c0:0d:c1:
                    61:dd:af:16:0b:4f:c7:77:b8:b4:19:d0:16:65:b7:
                    1e:fc:0e:07:6f:77:ef:85:36:ec:b4:5b:dc:1c:da:
                    ab:58:2f:2f:7e:62:93:47:f7:98:c5:f4:5b:e0:6b:
                    68:f2:23:94:ac:df:61:15:21:8c:31:48:d6:23:09:
                    46:cd
                Exponent: 65537 (0x10001)
    Signature Algorithm: sha256WithRSAEncryption
         30:60:39:0e:12:0b:17:e0:64:c4:2c:27:5d:79:83:bf:b2:7b:
         33:45:72:c2:a9:7b:8f:6e:7e:55:72:e7:57:5f:51:77:09:21:
         f8:15:eb:29:18:3c:a0:93:65:de:ab:cd:21:1f:fd:6b:ca:56:
         0a:a4:9f:5d:d3:44:c3:cf:66:67:a2:54:5a:9e:17:e0:bd:02:
         54:74:e1:be:85:c9:fc:19:4d:e1:8e:5b:63:d9:16:7d:83:da:
         53:09:d0:10:c5:40:d3:51:a3:d2:16:f0:8f:d3:72:f4:6d:b2:
         0e:80:79:c0:e9:5c:7e:57:f8:7c:fe:a8:6f:93:a1:5b:9b:d7:
         10:de:9e:99:97:9f:83:0c:c7:c4:b3:dd:5a:e5:0c:d6:0b:1c:
         6e:44:49:89:7b:c5:55:37:98:e7:98:9f:46:0e:c6:f7:af:21:
         59:a7:2b:fc:a5:08:ec:59:13:6a:ab:02:68:e1:26:56:fe:3e:
         81:99:1b:a1:45:89:82:bd:68:7e:bf:cc:87:e7:a5:8b:b7:92:
         68:41:c1:9a:20:67:b0:6d:fc:96:bc:df:35:21:9b:05:e2:9d:
         3f:5b:08:ce:45:a9:ae:4d:9d:ee:8c:1f:29:e5:30:d7:b3:02:
         7d:cb:2e:16:3c:3b:96:f3:b7:d9:b7:87:36:ea:a8:90:c9:73:
         4e:5d:e7:d2
-----BEGIN CERTIFICATE-----
MIIDMzCCAhugAwIBAgIDAMckMA0GCSqGSIb3DQEBCwUAMEAxFDASBgNVBAMMC0xp
bnQgU3ViIENBMQ0wCwYDVQQLDARUZXN0MQwwCgYDVQQKDANNVEcxCzAJBgNVBAYT
AkRFMB4XDTIxMDEwMjA5MDAwMFoXDTIzMDEwMjA5MDAwMFowejEqMCgGA1UEAwwh
cHVibGljS2V5SXNSU0FFeHBsaWNpdE51bGxNaXNzaW5nMQ0wCwYDVQQLDARMaW50
MQwwCgYDVQQKDANNVEcxEjAQBgNVBAcMCURhcm1zdGFkdDEOMAwGA1UECAwFSGVz
c2UxCzAJBgNVBAYTAkRFMIIBIDALBgkqhkiG9w0BAQEDggEPADCCAQoCggEBAJ3s
B9C3IehE3DwI3Lg2oZPxFZ/HQVu+mOvv1fNilNgX4vUy9sLlBFRixELADj8v7j1q
PkikQj49QXKfGTFW5ltcE1dgqyKQsYnux7k65O8WrSqpI224B2/G0Rre7EDjoEvt
8TCA5TMyKuPcbBdeNLFtjwMX/aGVUUCqh8NjDUVvoEv4ymeKLlKMZMFHYCDcCRl3
0R3Hhd6Af56Dstb7jFxZC07V2D2sFBoAzAfW9M68Yvmo6Utd7kQ9vCkZAyRGwA3B
Yd2vFgtPx3e4tBnQFmW3HvwOB29374U27LRb3Bzaq1gvL35ik0f3mMX0W+BraPIj
lKzfYRUhjDFI1iMJRs0CAwEAATANBgkqhkiG9w0BAQsFAAOCAQEAMGA5DhILF+Bk
xCwnXXmDv7J7M0Vywql7j25+VXLnV19Rdwkh+BXrKRg8oJNl3qvNIR/9a8pWCqSf
XdNEw89mZ6JUWp4X4L0CVHThvoXJ/BlN4Y5bY9kWfYPaUwnQEMVA01Gj0hbwj9Ny
9G2yDoB5wOlcflf4fP6ob5OhW5vXEN6emZefgwzHxLPdWuUM1gscbkRJiXvFVTeY
55ifRg7G968hWacr/KUI7FkTaqsCaOEmVv4+gZkboUWJgr1ofr/Mh+eli7eSaEHB
miBnsG38lrzfNSGbBeKdP1sIzkWprk2d7owfKeUw17MCfcsuFjw7lvO32beHNuqo
kMlzTl3n0g==
-----END CERTIFICATE-----
