Certificate:
    Data:
        Version: 3 (0x2)
        Serial Number: 50228 (0xc434)
        Signature Algorithm: sha256WithRSAEncryption
        Issuer: CN = Lint Sub CA, OU = Test, O = MTG, C = DE
        Validity
            Not Before: Jan  2 09:00:00 2021 GMT
            Not After : Jan  2 09:00:00 2023 GMT
        Subject: CN = publicKeyIsECCP384WithCorrectEncoding, OU = Lint, O = MTG, L = Darmstadt, ST = Hesse, C = DE
        Subject Public Key Info:
            Public Key Algorithm: id-ecPublicKey
                Public-Key: (384 bit)
                pub:
                    04:a5:9d:1b:b3:a6:41:eb:b2:58:6b:5b:b7:b4:fe:
                    b5:85:27:13:68:3d:fd:23:18:1f:5a:17:73:14:ca:
                    c4:87:21:df:db:a2:72:2e:3c:20:f2:47:e0:81:6b:
                    56:e8:d5:62:2e:85:c7:f2:74:a7:ae:68:41:7c:36:
                    7d:46:68:47:2f:b0:b4:39:c4:20:45:4f:4b:1d:e2:
                    82:d9:0d:b9:d0:3d:a4:b5:ff:6f:90:24:b2:57:c3:
                    44:f8:ac:2a:15:83:b3
                ASN1 OID: secp384r1
                NIST CURVE: P-384
    Signature Algorithm: sha256WithRSAEncryption
         67:09:f4:0e:15:7f:df:48:54:20:cf:a7:20:b7:46:6f:eb:57:
         1a:1c:88:b7:c7:31:29:fb:69:74:06:11:f1:56:ba:a0:c1:07:
         70:99:00:63:eb:98:24:19:26:c7:75:3c:f5:a9:4e:e5:84:b8:
         d7:2c:37:00:f8:4b:d1:e0:26:e9:95:ef:17:e6:c0:aa:1d:c2:
         59:be:24:14:9e:f9:9c:ab:f8:50:a9:7c:8e:0f:66:27:46:a3:
         ca:23:ef:70:1c:24:f4:7a:89:e5:18:8e:73:8a:35:ab:51:ed:
         48:e3:f6:61:dc:d1:86:f1:c6:fa:ee:b0:a0:0f:81:38:07:8a:
         d7:5e:fd:e4:82:c2:f7:34:60:a1:8d:b1:c3:d9:5e:5a:ef:5c:
         b4:60:72:aa:33:22:6c:5b:6c:36:f0:7e:cf:15:1b:d1:dd:14:
         bf:ab:fa:b2:20:e3:a4:0a:d8:80:ce:45:1b:ea:a6:fd:a8:5a:
         e5:ba:c0:4a:31:65:78:a4:b1:f3:ce:e6:c1:bc:2b:65:3c:60:
         64:2c:99:7d:67:84:32:d3:43:74:21:f2:ad:68:f7:7e:41:3e:
         e1:9b:9d:be:82:e4:98:12:e3:7f:eb:ea:d5:14:ae:a1:5c:c3:
         83:36:96:54:0c:6f:5e:f7:d6:83:3f:f8:5d:ed:b6:3d:76:17:
         71:9a:ed:92
-----BEGIN CERTIFICATE-----
MIICizCCAXOgAwIBAgIDAMQ0MA0GCSqGSIb3DQEBCwUAMEAxFDASBgNVBAMMC0xp
bnQgU3ViIENBMQ0wCwYDVQQLDARUZXN0MQwwCgYDVQQKDANNVEcxCzAJBgNVBAYT
AkRFMB4XDTIxMDEwMjA5MDAwMFoXDTIzMDEwMjA5MDAwMFowfjEuMCwGA1UEAwwl
cHVibGljS2V5SXNFQ0NQMzg0V2l0aENvcnJlY3RFbmNvZGluZzENMAsGA1UECwwE
TGludDEMMAoGA1UECgwDTVRHMRIwEAYDVQQHDAlEYXJtc3RhZHQxDjAMBgNVBAgM
BUhlc3NlMQswCQYDVQQGEwJERTB2MBAGByqGSM49AgEGBSuBBAAiA2IABKWdG7Om
QeuyWGtbt7T+tYUnE2g9/SMYH1oXcxTKxIch39uici48IPJH4IFrVujVYi6Fx/J0
p65oQXw2fUZoRy+wtDnEIEVPSx3igtkNudA9pLX/b5AkslfDRPisKhWDszANBgkq
hkiG9w0BAQsFAAOCAQEAZwn0DhV/30hUIM+nILdGb+tXGhyIt8cxKftpdAYR8Va6
oMEHcJkAY+uYJBkmx3U89alO5YS41yw3APhL0eAm6ZXvF+bAqh3CWb4kFJ75nKv4
UKl8jg9mJ0ajyiPvcBwk9HqJ5RiOc4o1q1HtSOP2YdzRhvHG+u6woA+BOAeK1179
5ILC9zRgoY2xw9leWu9ctGByqjMibFtsNvB+zxUb0d0Uv6v6siDjpArYgM5FG+qm
/aha5brASjFleKSx887mwbwrZTxgZCyZfWeEMtNDdCHyrWj3fkE+4ZudvoLkmBLj
f+vq1RSuoVzDgzaWVAxvXvfWgz/4Xe22PXYXcZrtkg==
-----END CERTIFICATE-----
