Certificate:
    Data:
        Version: 3 (0x2)
        Serial Number:
            43:f4:da:2d:d7:7e:4f:67:7f:3c:0e:2a
        Signature Algorithm: ecdsa-with-SHA256
        Issuer: CN = Lint CA, O = Lint, C = DE
        Validity
            Not Before: Feb 18 00:00:00 2025 GMT
            Not After : Feb 18 00:00:00 2026 GMT
        Subject: organizationIdentifier = PASSK-P3000180
        Subject Public Key Info:
            Public Key Algorithm: id-ecPublicKey
                Public-Key: (256 bit)
                pub:
                    04:8c:5e:3f:b1:9b:cb:61:f6:56:fe:06:f2:26:06:
                    93:00:d4:6f:5a:ac:72:d7:3f:3c:f4:8e:72:73:71:
                    6f:2e:e0:af:93:2f:57:42:58:50:ef:47:f4:b2:ab:
                    58:d5:d5:7a:c9:d0:cd:46:1f:8e:b1:c5:19:28:5f:
                    ea:c1:d4:49:3e
                ASN1 OID: prime256v1
                NIST CURVE: P-256
        X509v3 extensions:
            qcStatements: 
                0.0...+.......0.......I..
    Signature Algorithm: ecdsa-with-SHA256
         30:44:02:20:35:22:18:10:bc:e0:55:ca:df:5d:c1:14:de:07:
         68:f0:70:59:22:23:99:da:0e:1a:15:df:d1:4b:f3:c4:36:16:
         02:20:24:40:37:4f:d7:b4:61:df:75:60:97:22:c2:63:d7:9d:
         88:4f:5f:be:5f:9b:88:27:80:3c:ab:60:e9:75:1d:25
-----BEGIN CERTIFICATE-----
MIIBaTCCARCgAwIBAgIMQ/TaLdd+T2d/PA4qMAoGCCqGSM49BAMCMC4xEDAOBgNV
BAMMB0xpbnQgQ0ExDTALBgNVBAoMBExpbnQxCzAJBgNVBAYTAkRFMB4XDTI1MDIx
ODAwMDAwMFoXDTI2MDIxODAwMDAwMFowGTEXMBUGA1UEYQwOUEFTU0stUDMwMDAx
ODAwWTATBgcqhkjOPQIBBggqhkjOPQMBBwNCAASMXj+xm8th9lb+BvImBpMA1G9a
rHLXPzz0jnJzcW8u4K+TL1dCWFDvR/Syq1jV1XrJ0M1GH46xxRkoX+rB1Ek+oykw
JzAlBggrBgEFBQcBAwQZMBcwFQYIKwYBBQUHCwIwCQYHBACL7EkBAjAKBggqhkjO
PQQDAgNHADBEAiA1IhgQvOBVyt9dwRTeB2jwcFkiI5naDhoV39FL88Q2FgIgJEA3
T9e0Yd91YJciwmPXnYhPX75fm4gngDyrYOl1HSU=
-----END CERTIFICATE-----
