Certificate:
    Data:
        Version: 3 (0x2)
        Serial Number:
            20:1e:9f:d3:3b:4c:50:3a:44:be:2a:81
        Signature Algorithm: ecdsa-with-SHA256
        Issuer: CN = Lint CA, O = Lint, C = DE
        Validity
            Not Before: Feb 18 00:00:00 2025 GMT
            Not After : Feb 18 00:00:00 2028 GMT
        Subject: CN = test
        Subject Public Key Info:
            Public Key Algorithm: id-ecPublicKey
                Public-Key: (256 bit)
                pub:
                    04:52:88:ca:0f:54:c2:ca:87:a3:23:84:44:83:98:
                    f9:d1:e1:5c:5f:c6:a7:7f:12:2b:8c:88:ff:d0:a7:
                    5c:68:c4:48:dd:cc:69:0e:2d:a1:3f:00:5f:b0:2e:
                    e7:62:72:90:b6:93:dc:bb:41:2a:ae:c6:f5:19:dd:
                    6b:f8:d6:be:62
                ASN1 OID: prime256v1
                NIST CURVE: P-256
        X509v3 extensions:
            qcStatements: 
                0.0......F..0......F..0......F...
            X509v3 Certificate Policies: critical
                Policy: 0.4.0.194112.1.1

    Signature Algorithm: ecdsa-with-SHA256
         30:45:02:20:5d:01:ed:38:62:2c:9f:d8:c6:c3:90:26:88:be:
         b4:b4:c3:66:ee:17:21:b2:3d:e1:99:1d:08:ac:35:b1:32:cc:
         02:21:00:ac:f2:14:d1:d1:85:bc:2e:da:16:41:0c:4e:af:9c:
         c9:03:0f:93:43:7c:e5:3a:13:dd:37:dd:0e:bc:4e:f7:33
-----BEGIN CERTIFICATE-----
MIIBgTCCASegAwIBAgIMIB6f0ztMUDpEviqBMAoGCCqGSM49BAMCMC4xEDAOBgNV
BAMMB0xpbnQgQ0ExDTALBgNVBAoMBExpbnQxCzAJBgNVBAYTAkRFMB4XDTI1MDIx
ODAwMDAwMFoXDTI4MDIxODAwMDAwMFowDzENMAsGA1UEAwwEdGVzdDBZMBMGByqG
SM49AgEGCCqGSM49AwEHA0IABFKIyg9UwsqHoyOERIOY+dHhXF/Gp38SK4yI/9Cn
XGjESN3MaQ4toT8AX7Au52JykLaT3LtBKq7G9Rnda/jWvmKjSjBIMC0GCCsGAQUF
BwEDBCEwHzAIBgYEAI5GAQEwEwYGBACORgEGMAkGBwQAjkYBBgIwFwYDVR0gAQH/
BA0wCzAJBgcEAIvsQAEBMAoGCCqGSM49BAMCA0gAMEUCIF0B7ThiLJ/YxsOQJoi+
tLTDZu4XIbI94ZkdCKw1sTLMAiEArPIU0dGFvC7aFkEMTq+cyQMPk0N85ToT3Tfd
DrxO9zM=
-----END CERTIFICATE-----
