Certificate:
    Data:
        Version: 3 (0x2)
        Serial Number:
            3e:40:85:f1:1f:4f:d3:c8:50:3f:5b:dc
        Signature Algorithm: ecdsa-with-SHA256
        Issuer: CN = Lint CA, O = Lint, C = DE
        Validity
            Not Before: Feb 18 00:00:00 2025 GMT
            Not After : Feb 18 00:00:00 2026 GMT
        Subject: organizationIdentifier = EI:SE-5567971433
        Subject Public Key Info:
            Public Key Algorithm: id-ecPublicKey
                Public-Key: (256 bit)
                pub:
                    04:8c:5e:3f:b1:9b:cb:61:f6:56:fe:06:f2:26:06:
                    93:00:d4:6f:5a:ac:72:d7:3f:3c:f4:8e:72:73:71:
                    6f:2e:e0:af:93:2f:57:42:58:50:ef:47:f4:b2:ab:
                    58:d5:d5:7a:c9:d0:cd:46:1f:8e:b1:c5:19:28:5f:
                    ea:c1:d4:49:3e
                ASN1 OID: prime256v1
                NIST CURVE: P-256
        X509v3 extensions:
            qcStatements: 
                0.0...+.......0.......I..
    Signature Algorithm: ecdsa-with-SHA256
         30:44:02:20:49:36:0b:d5:cc:db:c9:d2:2a:81:19:3f:11:3a:
         01:e3:34:fd:66:65:c7:05:e2:76:2e:36:cf:17:bb:91:90:ca:
         02:20:4d:e5:9e:45:32:d5:c8:99:c3:0f:4d:aa:2b:b8:a0:34:
         2d:a6:d5:11:76:63:5a:09:3b:0d:7d:ad:ed:f4:14:ae
-----BEGIN CERTIFICATE-----
MIIBazCCARKgAwIBAgIMPkCF8R9P08hQP1vcMAoGCCqGSM49BAMCMC4xEDAOBgNV
BAMMB0xpbnQgQ0ExDTALBgNVBAoMBExpbnQxCzAJBgNVBAYTAkRFMB4XDTI1MDIx
ODAwMDAwMFoXDTI2MDIxODAwMDAwMFowGzEZMBcGA1UEYQwQRUk6U0UtNTU2Nzk3
MTQzMzBZMBMGByqGSM49AgEGCCqGSM49AwEHA0IABIxeP7Gby2H2Vv4G8iYGkwDU
b1qsctc/PPSOcnNxby7gr5MvV0JYUO9H9LKrWNXVesnQzUYfjrHFGShf6sHUST6j
KTAnMCUGCCsGAQUFBwEDBBkwFzAVBggrBgEFBQcLAjAJBgcEAIvsSQECMAoGCCqG
SM49BAMCA0cAMEQCIEk2C9XM28nSKoEZPxE6AeM0/WZlxwXidi42zxe7kZDKAiBN
5Z5FMtXImcMPTaoruKA0LabVEXZjWgk7DX2t7fQUrg==
-----END CERTIFICATE-----
