Certificate:
    Data:
        Version: 3 (0x2)
        Serial Number:
            a3:18:71:ec:c6:9d:6a:5b:6b:d7:30:95
        Signature Algorithm: ecdsa-with-SHA256
        Issuer: CN = Lint CA, O = Lint, C = DE
        Validity
            Not Before: Feb 18 00:00:00 2025 GMT
            Not After : Feb 18 00:00:00 2026 GMT
        Subject: organizationIdentifier = EI:A
        Subject Public Key Info:
            Public Key Algorithm: id-ecPublicKey
                Public-Key: (256 bit)
                pub:
                    04:8c:5e:3f:b1:9b:cb:61:f6:56:fe:06:f2:26:06:
                    93:00:d4:6f:5a:ac:72:d7:3f:3c:f4:8e:72:73:71:
                    6f:2e:e0:af:93:2f:57:42:58:50:ef:47:f4:b2:ab:
                    58:d5:d5:7a:c9:d0:cd:46:1f:8e:b1:c5:19:28:5f:
                    ea:c1:d4:49:3e
                ASN1 OID: prime256v1
                NIST CURVE: P-256
        X509v3 extensions:
            qcStatements: 
                0.0...+.......0.......I..
    Signature Algorithm: ecdsa-with-SHA256
         30:45:02:21:00:b0:e6:d8:b7:37:6c:d1:c8:6c:ea:e1:77:76:
         6a:02:5c:d3:7a:f9:97:d5:a0:78:fa:be:98:09:7b:99:93:c2:
         1c:02:20:13:41:02:f0:be:66:7d:5a:6e:dd:fd:3f:41:f3:12:
         0d:df:a4:38:a4:e7:bb:8a:14:d9:c7:bf:9c:41:bc:ae:c1
-----BEGIN CERTIFICATE-----
MIIBYTCCAQegAwIBAgINAKMYcezGnWpba9cwlTAKBggqhkjOPQQDAjAuMRAwDgYD
VQQDDAdMaW50IENBMQ0wCwYDVQQKDARMaW50MQswCQYDVQQGEwJERTAeFw0yNTAy
MTgwMDAwMDBaFw0yNjAyMTgwMDAwMDBaMA8xDTALBgNVBGEMBEVJOkEwWTATBgcq
hkjOPQIBBggqhkjOPQMBBwNCAASMXj+xm8th9lb+BvImBpMA1G9arHLXPzz0jnJz
cW8u4K+TL1dCWFDvR/Syq1jV1XrJ0M1GH46xxRkoX+rB1Ek+oykwJzAlBggrBgEF
BQcBAwQZMBcwFQYIKwYBBQUHCwIwCQYHBACL7EkBAjAKBggqhkjOPQQDAgNIADBF
AiEAsObYtzds0chs6uF3dmoCXNN6+ZfVoHj6vpgJe5mTwhwCIBNBAvC+Zn1abt39
P0HzEg3fpDik57uKFNnHv5xBvK7B
-----END CERTIFICATE-----
