Certificate:
    Data:
        Version: 3 (0x2)
        Serial Number:
            08:c6:37:be:da:c8:6d:69:39:c2:0b:c5
        Signature Algorithm: ecdsa-with-SHA256
        Issuer: CN = Lint CA, O = Lint, C = DE
        Validity
            Not Before: Feb 18 00:00:00 2025 GMT
            Not After : Feb 18 00:00:00 2026 GMT
        Subject: serialNumber = EI:SE-5567971433
        Subject Public Key Info:
            Public Key Algorithm: id-ecPublicKey
                Public-Key: (256 bit)
                pub:
                    04:8c:5e:3f:b1:9b:cb:61:f6:56:fe:06:f2:26:06:
                    93:00:d4:6f:5a:ac:72:d7:3f:3c:f4:8e:72:73:71:
                    6f:2e:e0:af:93:2f:57:42:58:50:ef:47:f4:b2:ab:
                    58:d5:d5:7a:c9:d0:cd:46:1f:8e:b1:c5:19:28:5f:
                    ea:c1:d4:49:3e
                ASN1 OID: prime256v1
                NIST CURVE: P-256
        X509v3 extensions:
            qcStatements: 
                0.0...+.......0.......I..
    Signature Algorithm: ecdsa-with-SHA256
         30:45:02:21:00:f2:4a:e3:08:fa:26:6a:7c:7c:b4:45:80:24:
         37:b4:50:84:a0:c5:33:36:77:c3:97:27:17:70:18:7d:aa:52:
         17:02:20:75:52:6a:1e:d2:cb:7f:ea:89:f2:11:c4:7d:c7:ee:
         08:67:22:4c:83:8b:27:a1:40:39:c8:20:4e:60:c4:d1:d9
-----BEGIN CERTIFICATE-----
MIIBbDCCARKgAwIBAgIMCMY3vtrIbWk5wgvFMAoGCCqGSM49BAMCMC4xEDAOBgNV
BAMMB0xpbnQgQ0ExDTALBgNVBAoMBExpbnQxCzAJBgNVBAYTAkRFMB4XDTI1MDIx
ODAwMDAwMFoXDTI2MDIxODAwMDAwMFowGzEZMBcGA1UEBRMQRUk6U0UtNTU2Nzk3
MTQzMzBZMBMGByqGSM49AgEGCCqGSM49AwEHA0IABIxeP7Gby2H2Vv4G8iYGkwDU
b1qsctc/PPSOcnNxby7gr5MvV0JYUO9H9LKrWNXVesnQzUYfjrHFGShf6sHUST6j
KTAnMCUGCCsGAQUFBwEDBBkwFzAVBggrBgEFBQcLAjAJBgcEAIvsSQEBMAoGCCqG
SM49BAMCA0gAMEUCIQDySuMI+iZqfHy0RYAkN7RQhKDFMzZ3w5cnF3AYfapSFwIg
dVJqHtLLf+qJ8hHEfcfuCGciTIOLJ6FAOcggTmDE0dk=
-----END CERTIFICATE-----
