Certificate:
    Data:
        Version: 3 (0x2)
        Serial Number:
            e1:4a:bb:79:0a:5f:77:38:02:42:ee:7c
        Signature Algorithm: ecdsa-with-SHA256
        Issuer: CN = Lint CA, O = Lint, C = DE
        Validity
            Not Before: Feb 18 00:00:00 2025 GMT
            Not After : Feb 18 00:00:00 2026 GMT
        Subject: serialNumber = EI:NOTCORRECTSCHEME
        Subject Public Key Info:
            Public Key Algorithm: id-ecPublicKey
                Public-Key: (256 bit)
                pub:
                    04:8c:5e:3f:b1:9b:cb:61:f6:56:fe:06:f2:26:06:
                    93:00:d4:6f:5a:ac:72:d7:3f:3c:f4:8e:72:73:71:
                    6f:2e:e0:af:93:2f:57:42:58:50:ef:47:f4:b2:ab:
                    58:d5:d5:7a:c9:d0:cd:46:1f:8e:b1:c5:19:28:5f:
                    ea:c1:d4:49:3e
                ASN1 OID: prime256v1
                NIST CURVE: P-256
        X509v3 extensions:
            qcStatements: 
                0.0...+.......0.......I..
    Signature Algorithm: ecdsa-with-SHA256
         30:44:02:20:7d:85:ef:21:06:41:0d:d9:d2:55:3e:2c:cc:5f:
         25:4e:8a:22:21:7d:7f:67:1b:cc:95:8f:00:42:52:75:d3:3c:
         02:20:3b:47:11:ec:7a:b1:38:8e:0e:f6:ad:cb:9f:01:64:87:
         89:bb:b0:d7:8e:1d:50:40:83:2d:ea:ee:cb:4f:ca:b2
-----BEGIN CERTIFICATE-----
MIIBbzCCARagAwIBAgINAOFKu3kKX3c4AkLufDAKBggqhkjOPQQDAjAuMRAwDgYD
VQQDDAdMaW50IENBMQ0wCwYDVQQKDARMaW50MQswCQYDVQQGEwJERTAeFw0yNTAy
MTgwMDAwMDBaFw0yNjAyMTgwMDAwMDBaMB4xHDAaBgNVBAUTE0VJOk5PVENPUlJF
Q1RTQ0hFTUUwWTATBgcqhkjOPQIBBggqhkjOPQMBBwNCAASMXj+xm8th9lb+BvIm
BpMA1G9arHLXPzz0jnJzcW8u4K+TL1dCWFDvR/Syq1jV1XrJ0M1GH46xxRkoX+rB
1Ek+oykwJzAlBggrBgEFBQcBAwQZMBcwFQYIKwYBBQUHCwIwCQYHBACL7EkBATAK
BggqhkjOPQQDAgNHADBEAiB9he8hBkEN2dJVPizMXyVOiiIhfX9nG8yVjwBCUnXT
PAIgO0cR7HqxOI4O9q3LnwFkh4m7sNeOHVBAgy3q7stPyrI=
-----END CERTIFICATE-----
