Certificate:
    Data:
        Version: 3 (0x2)
        Serial Number:
            28:26:2b:58:e1:88:b4:dc:db:24:a7:53
        Signature Algorithm: ecdsa-with-SHA256
        Issuer: CN = Lint CA, O = Lint, C = DE
        Validity
            Not Before: Feb 18 00:00:00 2025 GMT
            Not After : Feb 18 00:00:00 2026 GMT
        Subject: serialNumber = PASSK-P3000180
        Subject Public Key Info:
            Public Key Algorithm: id-ecPublicKey
                Public-Key: (256 bit)
                pub:
                    04:8c:5e:3f:b1:9b:cb:61:f6:56:fe:06:f2:26:06:
                    93:00:d4:6f:5a:ac:72:d7:3f:3c:f4:8e:72:73:71:
                    6f:2e:e0:af:93:2f:57:42:58:50:ef:47:f4:b2:ab:
                    58:d5:d5:7a:c9:d0:cd:46:1f:8e:b1:c5:19:28:5f:
                    ea:c1:d4:49:3e
                ASN1 OID: prime256v1
                NIST CURVE: P-256
        X509v3 extensions:
            qcStatements: 
                0.0...+.......0.......I..
    Signature Algorithm: ecdsa-with-SHA256
         30:46:02:21:00:e7:4f:6b:e2:3e:ec:32:e1:cd:2c:24:b0:08:
         a2:ea:77:f4:97:76:5e:f2:48:e5:75:69:8d:f8:14:2e:d7:7d:
         f4:02:21:00:83:12:6a:54:09:95:0c:4b:34:09:57:d2:8c:5f:
         2c:98:57:d1:0f:b9:88:65:40:ad:b6:f7:0e:d8:dc:ab:c8:03
-----BEGIN CERTIFICATE-----
MIIBazCCARCgAwIBAgIMKCYrWOGItNzbJKdTMAoGCCqGSM49BAMCMC4xEDAOBgNV
BAMMB0xpbnQgQ0ExDTALBgNVBAoMBExpbnQxCzAJBgNVBAYTAkRFMB4XDTI1MDIx
ODAwMDAwMFoXDTI2MDIxODAwMDAwMFowGTEXMBUGA1UEBRMOUEFTU0stUDMwMDAx
ODAwWTATBgcqhkjOPQIBBggqhkjOPQMBBwNCAASMXj+xm8th9lb+BvImBpMA1G9a
rHLXPzz0jnJzcW8u4K+TL1dCWFDvR/Syq1jV1XrJ0M1GH46xxRkoX+rB1Ek+oykw
JzAlBggrBgEFBQcBAwQZMBcwFQYIKwYBBQUHCwIwCQYHBACL7EkBATAKBggqhkjO
PQQDAgNJADBGAiEA509r4j7sMuHNLCSwCKLqd/SXdl7ySOV1aY34FC7XffQCIQCD
EmpUCZUMSzQJV9KMXyyYV9EPuYhlQK229w7Y3KvIAw==
-----END CERTIFICATE-----
