Certificate:
    Data:
        Version: 3 (0x2)
        Serial Number:
            1b:39:2d:38:e3:c3:0b:ff:43:1f:48:2e
        Signature Algorithm: ecdsa-with-SHA256
        Issuer: CN = Lint CA, O = Lint, C = DE
        Validity
            Not Before: Feb 18 00:00:00 2025 GMT
            Not After : Feb 18 00:00:00 2028 GMT
        Subject: CN = test
        Subject Public Key Info:
            Public Key Algorithm: id-ecPublicKey
                Public-Key: (256 bit)
                pub:
                    04:c6:d3:18:a4:53:56:ed:dd:74:93:ff:dc:cf:c6:
                    a0:ab:fe:5f:77:5c:69:14:49:f5:f0:2e:35:5b:b7:
                    03:a3:09:a9:dd:cd:20:0a:2f:2f:41:02:cc:5d:51:
                    27:1f:32:50:75:c9:d9:a2:a5:cf:c4:c2:82:09:ad:
                    aa:df:9f:92:92
                ASN1 OID: prime256v1
                NIST CURVE: P-256
        X509v3 extensions:
            qcStatements: 
                0.0......F..0......F..0......F...
            X509v3 Certificate Policies: critical
                Policy: 0.4.0.194112.1.1
                Policy: 2.23.140.1.5.1.2

            X509v3 Extended Key Usage: 
                E-mail Protection
    Signature Algorithm: ecdsa-with-SHA256
         30:44:02:20:30:be:b3:df:6a:8b:6d:d1:2e:6d:18:8e:b5:fe:
         ee:8b:ee:a3:3f:c1:6a:75:bc:8c:d8:3c:ee:0b:7a:18:57:94:
         02:20:21:3f:70:7c:ac:d0:4a:c7:42:d7:e8:ff:47:af:dc:0e:
         e4:f1:21:40:17:7c:c0:74:f6:23:30:4e:d4:8d:07:25
-----BEGIN CERTIFICATE-----
MIIBoDCCAUegAwIBAgIMGzktOOPDC/9DH0guMAoGCCqGSM49BAMCMC4xEDAOBgNV
BAMMB0xpbnQgQ0ExDTALBgNVBAoMBExpbnQxCzAJBgNVBAYTAkRFMB4XDTI1MDIx
ODAwMDAwMFoXDTI4MDIxODAwMDAwMFowDzENMAsGA1UEAwwEdGVzdDBZMBMGByqG
SM49AgEGCCqGSM49AwEHA0IABMbTGKRTVu3ddJP/3M/GoKv+X3dcaRRJ9fAuNVu3
A6MJqd3NIAovL0ECzF1RJx8yUHXJ2aKlz8TCggmtqt+fkpKjajBoMC0GCCsGAQUF
BwEDBCEwHzAIBgYEAI5GAQEwEwYGBACORgEGMAkGBwQAjkYBBgMwIgYDVR0gAQH/
BBgwFjAJBgcEAIvsQAEBMAkGB2eBDAEFAQIwEwYDVR0lBAwwCgYIKwYBBQUHAwQw
CgYIKoZIzj0EAwIDRwAwRAIgML6z32qLbdEubRiOtf7ui+6jP8FqdbyM2DzuC3oY
V5QCICE/cHys0ErHQtfo/0ev3A7k8SFAF3zAdPYjME7UjQcl
-----END CERTIFICATE-----
