Certificate:
    Data:
        Version: 3 (0x2)
        Serial Number:
            2a:94:a6:00:aa:66:54:90:d1:42:32:ba
        Signature Algorithm: ecdsa-with-SHA256
        Issuer: CN = Lint CA, O = Lint, C = DE
        Validity
            Not Before: Feb 18 00:00:00 2025 GMT
            Not After : Feb 18 00:00:00 2028 GMT
        Subject: CN = test
        Subject Public Key Info:
            Public Key Algorithm: id-ecPublicKey
                Public-Key: (256 bit)
                pub:
                    04:d5:5c:0d:a7:40:ff:68:cb:b5:29:1e:b5:3d:b5:
                    6b:bf:db:4f:bb:66:95:ff:b9:05:59:d8:b4:47:c9:
                    f2:e8:1f:89:22:46:25:2e:5f:96:e9:c6:d7:f0:29:
                    22:29:5f:d3:ac:85:77:93:bd:39:91:d4:3a:f7:74:
                    d5:91:8e:ec:85
                ASN1 OID: prime256v1
                NIST CURVE: P-256
        X509v3 extensions:
            qcStatements: 
                0.0......F..0......F..0......F...
            X509v3 Certificate Policies: critical
                Policy: 0.4.0.194112.1.1
                Policy: 2.23.140.1.5.1.2

    Signature Algorithm: ecdsa-with-SHA256
         30:45:02:20:20:cf:36:9a:28:01:2a:51:8c:18:59:a1:e8:c3:
         b4:47:6a:64:b2:7b:13:21:5f:29:5c:aa:8b:d3:d3:45:d9:83:
         02:21:00:97:31:b7:82:0d:02:39:e6:86:4d:2b:41:41:3c:87:
         16:d3:fc:70:34:32:2c:9e:0b:ce:0d:8c:2b:22:05:31:f9
-----BEGIN CERTIFICATE-----
MIIBjDCCATKgAwIBAgIMKpSmAKpmVJDRQjK6MAoGCCqGSM49BAMCMC4xEDAOBgNV
BAMMB0xpbnQgQ0ExDTALBgNVBAoMBExpbnQxCzAJBgNVBAYTAkRFMB4XDTI1MDIx
ODAwMDAwMFoXDTI4MDIxODAwMDAwMFowDzENMAsGA1UEAwwEdGVzdDBZMBMGByqG
SM49AgEGCCqGSM49AwEHA0IABNVcDadA/2jLtSketT21a7/bT7tmlf+5BVnYtEfJ
8ugfiSJGJS5flunG1/ApIilf06yFd5O9OZHUOvd01ZGO7IWjVTBTMC0GCCsGAQUF
BwEDBCEwHzAIBgYEAI5GAQEwEwYGBACORgEGMAkGBwQAjkYBBgIwIgYDVR0gAQH/
BBgwFjAJBgcEAIvsQAEBMAkGB2eBDAEFAQIwCgYIKoZIzj0EAwIDSAAwRQIgIM82
migBKlGMGFmh6MO0R2pksnsTIV8pXKqL09NF2YMCIQCXMbeCDQI55oZNK0FBPIcW
0/xwNDIsngvODYwrIgUx+Q==
-----END CERTIFICATE-----
