Certificate:
    Data:
        Version: 3 (0x2)
        Serial Number:
            f7:47:41:80:d3:b1:47:c6:0a:be:27:dc
        Signature Algorithm: ecdsa-with-SHA256
        Issuer: CN = Lint CA, O = Lint, C = DE
        Validity
            Not Before: Feb 18 00:00:00 2025 GMT
            Not After : Feb 18 00:00:00 2028 GMT
        Subject: CN = test
        Subject Public Key Info:
            Public Key Algorithm: id-ecPublicKey
                Public-Key: (256 bit)
                pub:
                    04:ce:15:89:c3:17:54:e6:2a:3c:89:a2:67:99:b4:
                    66:6c:94:86:e1:d9:f4:b6:ff:57:19:9f:3e:78:2d:
                    da:3c:bc:84:76:8f:2a:31:fc:76:37:2b:ba:71:d9:
                    e1:0d:47:51:75:16:76:29:92:a6:1c:c8:1a:c7:73:
                    a2:68:68:8c:04
                ASN1 OID: prime256v1
                NIST CURVE: P-256
        X509v3 extensions:
            qcStatements: 
                0.0......F..0......F..0......F...
            X509v3 Certificate Policies: critical
                Policy: 0.4.0.194112.1.0
                Policy: 2.23.140.1.5.1.2

            X509v3 Extended Key Usage: 
                E-mail Protection
    Signature Algorithm: ecdsa-with-SHA256
         30:45:02:21:00:fc:bb:33:a8:42:ae:77:be:5f:a9:3e:b7:6b:
         2f:ef:2f:50:cc:da:8e:8c:ea:12:a9:73:cd:fe:fd:fe:b1:49:
         cf:02:20:7f:95:2d:cc:cd:dc:e9:3b:31:c1:d1:2a:3c:84:2f:
         bb:70:08:5f:a2:5f:da:20:64:4b:a8:5a:c6:92:f8:73:3e
-----BEGIN CERTIFICATE-----
MIIBojCCAUigAwIBAgINAPdHQYDTsUfGCr4n3DAKBggqhkjOPQQDAjAuMRAwDgYD
VQQDDAdMaW50IENBMQ0wCwYDVQQKDARMaW50MQswCQYDVQQGEwJERTAeFw0yNTAy
MTgwMDAwMDBaFw0yODAyMTgwMDAwMDBaMA8xDTALBgNVBAMMBHRlc3QwWTATBgcq
hkjOPQIBBggqhkjOPQMBBwNCAATOFYnDF1TmKjyJomeZtGZslIbh2fS2/1cZnz54
Ldo8vIR2jyox/HY3K7px2eENR1F1FnYpkqYcyBrHc6JoaIwEo2owaDAtBggrBgEF
BQcBAwQhMB8wCAYGBACORgEBMBMGBgQAjkYBBjAJBgcEAI5GAQYCMCIGA1UdIAEB
/wQYMBYwCQYHBACL7EABADAJBgdngQwBBQECMBMGA1UdJQQMMAoGCCsGAQUFBwME
MAoGCCqGSM49BAMCA0gAMEUCIQD8uzOoQq53vl+pPrdrL+8vUMzajozqEqlzzf79
/rFJzwIgf5UtzM3c6TsxwdEqPIQvu3AIX6Jf2iBkS6haxpL4cz4=
-----END CERTIFICATE-----
