Certificate:
    Data:
        Version: 3 (0x2)
        Serial Number:
            51:92:23:85:f7:62:f5:fb:8c:8b:19:cf
        Signature Algorithm: ecdsa-with-SHA256
        Issuer: CN = Lint CA, O = Lint, C = DE
        Validity
            Not Before: Feb 18 00:00:00 2025 GMT
            Not After : Feb 18 00:00:00 2028 GMT
        Subject: CN = test
        Subject Public Key Info:
            Public Key Algorithm: id-ecPublicKey
                Public-Key: (256 bit)
                pub:
                    04:63:fc:f2:7b:1d:5e:1a:0e:34:a9:57:e5:c3:eb:
                    3d:3e:8e:5a:11:a6:74:34:c4:7e:e8:3c:3a:72:43:
                    9c:22:2e:4d:35:ad:01:e5:7f:6f:a5:5a:5d:08:80:
                    b4:16:fd:af:c4:06:cb:df:30:72:fc:56:c9:f0:54:
                    0a:12:1e:2b:d1
                ASN1 OID: prime256v1
                NIST CURVE: P-256
        X509v3 extensions:
            qcStatements: 
                0.0......F..0......F..0......F...
            X509v3 Certificate Policies: critical
                Policy: 0.4.0.194112.1.0
                Policy: 2.23.140.1.5.1.2

    Signature Algorithm: ecdsa-with-SHA256
         30:46:02:21:00:dc:de:b6:c0:72:ec:ba:2d:c6:38:83:37:d2:
         a3:91:4c:99:8a:59:51:66:6d:24:fb:44:aa:17:62:54:e0:53:
         cb:02:21:00:93:08:69:fe:0e:f5:b7:0b:73:31:2a:c6:87:33:
         3f:74:7c:cf:01:87:9a:c6:d5:9a:86:db:4a:5f:4c:d6:72:da
-----BEGIN CERTIFICATE-----
MIIBjTCCATKgAwIBAgIMUZIjhfdi9fuMixnPMAoGCCqGSM49BAMCMC4xEDAOBgNV
BAMMB0xpbnQgQ0ExDTALBgNVBAoMBExpbnQxCzAJBgNVBAYTAkRFMB4XDTI1MDIx
ODAwMDAwMFoXDTI4MDIxODAwMDAwMFowDzENMAsGA1UEAwwEdGVzdDBZMBMGByqG
SM49AgEGCCqGSM49AwEHA0IABGP88nsdXhoONKlX5cPrPT6OWhGmdDTEfug8OnJD
nCIuTTWtAeV/b6VaXQiAtBb9r8QGy98wcvxWyfBUChIeK9GjVTBTMC0GCCsGAQUF
BwEDBCEwHzAIBgYEAI5GAQEwEwYGBACORgEGMAkGBwQAjkYBBgIwIgYDVR0gAQH/
BBgwFjAJBgcEAIvsQAEAMAkGB2eBDAEFAQIwCgYIKoZIzj0EAwIDSQAwRgIhANze
tsBy7LotxjiDN9KjkUyZillRZm0k+0SqF2JU4FPLAiEAkwhp/g71twtzMSrGhzM/
dHzPAYeaxtWahttKX0zWcto=
-----END CERTIFICATE-----
