Certificate:
    Data:
        Version: 3 (0x2)
        Serial Number:
            bc:21:fa:0b:60:ae:46:a1:4c:26:ff:46
        Signature Algorithm: ecdsa-with-SHA256
        Issuer: CN = Lint CA, O = Lint, C = DE
        Validity
            Not Before: Feb 18 00:00:00 2025 GMT
            Not After : Feb 18 00:00:00 2028 GMT
        Subject: CN = test
        Subject Public Key Info:
            Public Key Algorithm: id-ecPublicKey
                Public-Key: (256 bit)
                pub:
                    04:1a:86:dc:12:dc:7c:6d:62:84:c0:d9:1a:e1:ea:
                    ab:bc:a7:8b:86:ca:b3:d1:6c:6a:f8:8c:dc:a7:d6:
                    7d:1c:e8:71:01:47:23:ca:5b:f1:b5:fa:6c:73:96:
                    98:59:25:6f:45:84:21:d6:57:d8:9d:ea:19:d5:7e:
                    6f:30:1a:d3:19
                ASN1 OID: prime256v1
                NIST CURVE: P-256
        X509v3 extensions:
            qcStatements: 
                0.0......F..0......F..0......F...
            X509v3 Certificate Policies: critical
                Policy: 0.4.0.194112.1.1
                Policy: 2.23.140.1.5.1.2

            X509v3 Extended Key Usage: 
                E-mail Protection
    Signature Algorithm: ecdsa-with-SHA256
         30:45:02:21:00:93:c5:e4:9b:ed:38:bf:f7:d3:c8:40:b3:ed:
         86:a6:7b:03:e4:94:2d:09:fd:ec:b0:00:7d:a5:4d:6c:77:4f:
         a7:02:20:40:82:70:75:62:fe:0f:3d:6b:ab:13:bd:d1:8c:9b:
         7c:ab:a9:cb:38:4f:f3:e9:6d:d3:27:9a:0b:f6:9c:59:d3
-----BEGIN CERTIFICATE-----
MIIBojCCAUigAwIBAgINALwh+gtgrkahTCb/RjAKBggqhkjOPQQDAjAuMRAwDgYD
VQQDDAdMaW50IENBMQ0wCwYDVQQKDARMaW50MQswCQYDVQQGEwJERTAeFw0yNTAy
MTgwMDAwMDBaFw0yODAyMTgwMDAwMDBaMA8xDTALBgNVBAMMBHRlc3QwWTATBgcq
hkjOPQIBBggqhkjOPQMBBwNCAAQahtwS3HxtYoTA2Rrh6qu8p4uGyrPRbGr4jNyn
1n0c6HEBRyPKW/G1+mxzlphZJW9FhCHWV9id6hnVfm8wGtMZo2owaDAtBggrBgEF
BQcBAwQhMB8wCAYGBACORgEBMBMGBgQAjkYBBjAJBgcEAI5GAQYCMCIGA1UdIAEB
/wQYMBYwCQYHBACL7EABATAJBgdngQwBBQECMBMGA1UdJQQMMAoGCCsGAQUFBwME
MAoGCCqGSM49BAMCA0gAMEUCIQCTxeSb7Ti/99PIQLPthqZ7A+SULQn97LAAfaVN
bHdPpwIgQIJwdWL+Dz1rqxO90YybfKupyzhP8+lt0yeaC/acWdM=
-----END CERTIFICATE-----
