Certificate:
    Data:
        Version: 3 (0x2)
        Serial Number:
            0b:19:fc:8e:3f:f2:7f:7a:2d:db:0d:1f:9c
        Signature Algorithm: sha256WithRSAEncryption
        Issuer: CN = Test SubCA 2, OU = Test, O = MTG, C = DE
        Validity
            Not Before: Nov  1 08:03:01 2019 GMT
            Not After : Nov  1 08:03:01 2020 GMT
        Subject: O = MTG, OU = Test, L = Darmstadt, ST = Hessen, C = DE, organizationIdentifier = EIS:SE-5567971433
        Subject Public Key Info:
            Public Key Algorithm: rsaEncryption
                RSA Public-Key: (2048 bit)
                Modulus:
                    00:c2:0d:81:71:b4:94:05:bc:cf:99:8a:aa:62:08:
                    f2:2e:63:b2:1e:46:f9:2b:85:98:c3:83:d0:ce:26:
                    ad:76:8f:5c:e7:5b:05:20:25:26:32:19:c2:24:8a:
                    ba:69:a3:eb:ca:10:a4:f3:cf:b5:c6:1e:f6:70:58:
                    96:5b:88:52:6a:88:42:33:85:b8:c6:16:48:4f:01:
                    45:39:3f:e1:6a:b9:06:b5:ef:37:db:79:9e:50:90:
                    57:43:5b:8b:c3:35:0d:b3:41:f4:1b:c2:4a:7f:18:
                    3c:39:2d:4f:bf:2b:a5:71:07:73:33:00:e5:8d:36:
                    9e:fe:8f:72:c5:72:56:08:cc:86:b6:ef:ba:e2:fd:
                    9b:5c:c6:2d:94:ed:2d:64:24:77:e6:67:4d:62:db:
                    94:2e:29:8e:dd:1d:7a:ca:bc:68:fb:15:2c:80:56:
                    d3:dd:e7:3a:8f:98:18:14:4b:11:d9:c4:01:1f:b9:
                    7a:d0:d9:ad:69:11:05:f6:0e:ae:5f:fc:cd:c6:b3:
                    cb:4d:ae:8e:45:18:0a:a8:c0:40:11:28:dc:cd:9f:
                    7a:26:67:5a:47:80:9b:d9:4c:f7:da:5f:6d:13:83:
                    1a:91:92:d1:b9:44:f7:72:6b:97:47:74:71:70:80:
                    d3:d6:73:bf:76:33:5c:70:b8:6f:87:37:3e:7e:8e:
                    75:e5
                Exponent: 65537 (0x10001)
        X509v3 extensions:
            X509v3 Authority Key Identifier: 
                keyid:0C:5E:9C:FE:BA:4B:21:6C:04:1D:C2:5A:B7:E3:88:5F:59:DE:4C:12

            X509v3 Subject Key Identifier: 
                0E:6B:AA:83:A9:B2:4D:5C:85:CD:B1:D2:2F:87:F7:20:CB:36:43:3B
            X509v3 Key Usage: critical
                Digital Signature, Key Encipherment
            X509v3 Basic Constraints: critical
                CA:FALSE
            X509v3 Subject Alternative Name: 
                DNS:www.example.com
            Authority Information Access: 
                CA Issuers - URI:http://ca.example.com/ca.crt
                OCSP - URI:http://ocsp.example.com/ocsp

            X509v3 Certificate Policies: 
                Policy: 0.4.0.194112.1.4
                Policy: 0.4.0.19495.3.1

            X509v3 Extended Key Usage: 
                TLS Web Server Authentication, TLS Web Client Authentication
            qcStatements: 
                0..0......F..0......F..0......F...0...+.......0.......I..0Q......'.0G0.0.......'....PSP_IC.'Federal Financial Supervisory Authority..SE-FINA
    Signature Algorithm: sha256WithRSAEncryption
         27:ff:6a:2e:a8:77:ff:ab:c0:e4:af:fc:8b:db:6b:5c:6a:7c:
         c8:70:5c:bd:b0:6c:1c:4a:87:fb:28:af:fe:02:98:fa:98:4f:
         69:d0:0b:8e:b3:52:f0:dd:43:2a:54:68:13:4c:23:43:98:f9:
         6e:10:65:7a:1b:df:61:ed:36:b2:09:5a:91:d0:1d:6d:e1:5b:
         d1:0e:61:74:64:b7:bf:9a:c7:06:12:35:9f:8a:34:87:92:9b:
         96:62:1d:1f:a3:05:93:b9:8e:47:eb:71:06:b7:d7:66:53:29:
         da:f0:35:fe:6a:53:63:59:cc:59:34:68:01:df:4a:c3:24:9d:
         57:d7:0c:86:ee:2e:b1:46:7a:b4:82:47:33:d8:6e:a1:b1:05:
         a2:fb:13:5c:5f:96:ac:ef:2b:1d:9c:e4:d0:a6:f7:66:03:da:
         c1:be:4c:0d:e7:2a:8b:6e:d9:38:a2:a1:6f:ec:6d:13:46:b6:
         fe:cb:7a:2a:8c:cd:66:90:51:9c:6b:53:a5:db:bd:8e:29:c8:
         39:2c:ad:b6:64:32:06:26:ec:2c:3e:cd:74:14:62:2a:06:cd:
         a5:f7:26:73:91:80:d9:cf:79:b6:fd:8c:38:32:98:9c:cd:61:
         30:b6:f0:6e:d0:d9:46:60:75:75:49:d4:d9:82:c7:c8:64:da:
         93:c1:e0:10
-----BEGIN CERTIFICATE-----
MIIE8zCCA9ugAwIBAgINCxn8jj/yf3ot2w0fnDANBgkqhkiG9w0BAQsFADBBMRUw
EwYDVQQDDAxUZXN0IFN1YkNBIDIxDTALBgNVBAsMBFRlc3QxDDAKBgNVBAoMA01U
RzELMAkGA1UEBhMCREUwHhcNMTkxMTAxMDgwMzAxWhcNMjAxMTAxMDgwMzAxWjBr
MQwwCgYDVQQKDANNVEcxDTALBgNVBAsMBFRlc3QxEjAQBgNVBAcMCURhcm1zdGFk
dDEPMA0GA1UECAwGSGVzc2VuMQswCQYDVQQGEwJERTEaMBgGA1UEYQwRRUlTOlNF
LTU1Njc5NzE0MzMwggEiMA0GCSqGSIb3DQEBAQUAA4IBDwAwggEKAoIBAQDCDYFx
tJQFvM+ZiqpiCPIuY7IeRvkrhZjDg9DOJq12j1znWwUgJSYyGcIkirppo+vKEKTz
z7XGHvZwWJZbiFJqiEIzhbjGFkhPAUU5P+FquQa17zfbeZ5QkFdDW4vDNQ2zQfQb
wkp/GDw5LU+/K6VxB3MzAOWNNp7+j3LFclYIzIa277ri/Ztcxi2U7S1kJHfmZ01i
25QuKY7dHXrKvGj7FSyAVtPd5zqPmBgUSxHZxAEfuXrQ2a1pEQX2Dq5f/M3Gs8tN
ro5FGAqowEARKNzNn3omZ1pHgJvZTPfaX20TgxqRktG5RPdya5dHdHFwgNPWc792
M1xwuG+HNz5+jnXlAgMBAAGjggG+MIIBujAfBgNVHSMEGDAWgBQMXpz+ukshbAQd
wlq344hfWd5MEjAdBgNVHQ4EFgQUDmuqg6myTVyFzbHSL4f3IMs2QzswDgYDVR0P
AQH/BAQDAgWgMAwGA1UdEwEB/wQCMAAwGgYDVR0RBBMwEYIPd3d3LmV4YW1wbGUu
Y29tMGIGCCsGAQUFBwEBBFYwVDAoBggrBgEFBQcwAoYcaHR0cDovL2NhLmV4YW1w
bGUuY29tL2NhLmNydDAoBggrBgEFBQcwAYYcaHR0cDovL29jc3AuZXhhbXBsZS5j
b20vb2NzcDAfBgNVHSAEGDAWMAkGBwQAi+xAAQQwCQYHBACBmCcDATAdBgNVHSUE
FjAUBggrBgEFBQcDAQYIKwYBBQUHAwIwgZkGCCsGAQUFBwEDBIGMMIGJMAgGBgQA
jkYBATATBgYEAI5GAQYwCQYHBACORgEGAzAVBggrBgEFBQcLAjAJBgcEAIvsSQEC
MFEGBgQAgZgnAjBHMBMwEQYHBACBmCcBBAwGUFNQX0lDDCdGZWRlcmFsIEZpbmFu
Y2lhbCBTdXBlcnZpc29yeSBBdXRob3JpdHkMB1NFLUZJTkEwDQYJKoZIhvcNAQEL
BQADggEBACf/ai6od/+rwOSv/Ivba1xqfMhwXL2wbBxKh/sor/4CmPqYT2nQC46z
UvDdQypUaBNMI0OY+W4QZXob32HtNrIJWpHQHW3hW9EOYXRkt7+axwYSNZ+KNIeS
m5ZiHR+jBZO5jkfrcQa312ZTKdrwNf5qU2NZzFk0aAHfSsMknVfXDIbuLrFGerSC
RzPYbqGxBaL7E1xflqzvKx2c5NCm92YD2sG+TA3nKotu2TiioW/sbRNGtv7LeiqM
zWaQUZxrU6XbvY4pyDksrbZkMgYm7Cw+zXQUYioGzaX3JnORgNnPebb9jDgymJzN
YTC28G7Q2UZgdXVJ1NmCx8hk2pPB4BA=
-----END CERTIFICATE-----
