Certificate:
    Data:
        Version: 3 (0x2)
        Serial Number:
            01:35:07:86:fc:68:ad:69:ee:f0:20:00:d7
        Signature Algorithm: sha256WithRSAEncryption
        Issuer: CN = Test SubCA 2, OU = Test, O = MTG, C = DE
        Validity
            Not Before: Nov  1 08:03:01 2019 GMT
            Not After : Nov  1 08:03:01 2020 GMT
        Subject: OU = Test, O = MTG, L = Darmstadt, ST = Hessen, C = DE, organizationIdentifier = PSDDE-BAFIN-1234567890
        Subject Public Key Info:
            Public Key Algorithm: rsaEncryption
                RSA Public-Key: (2048 bit)
                Modulus:
                    00:c2:0d:81:71:b4:94:05:bc:cf:99:8a:aa:62:08:
                    f2:2e:63:b2:1e:46:f9:2b:85:98:c3:83:d0:ce:26:
                    ad:76:8f:5c:e7:5b:05:20:25:26:32:19:c2:24:8a:
                    ba:69:a3:eb:ca:10:a4:f3:cf:b5:c6:1e:f6:70:58:
                    96:5b:88:52:6a:88:42:33:85:b8:c6:16:48:4f:01:
                    45:39:3f:e1:6a:b9:06:b5:ef:37:db:79:9e:50:90:
                    57:43:5b:8b:c3:35:0d:b3:41:f4:1b:c2:4a:7f:18:
                    3c:39:2d:4f:bf:2b:a5:71:07:73:33:00:e5:8d:36:
                    9e:fe:8f:72:c5:72:56:08:cc:86:b6:ef:ba:e2:fd:
                    9b:5c:c6:2d:94:ed:2d:64:24:77:e6:67:4d:62:db:
                    94:2e:29:8e:dd:1d:7a:ca:bc:68:fb:15:2c:80:56:
                    d3:dd:e7:3a:8f:98:18:14:4b:11:d9:c4:01:1f:b9:
                    7a:d0:d9:ad:69:11:05:f6:0e:ae:5f:fc:cd:c6:b3:
                    cb:4d:ae:8e:45:18:0a:a8:c0:40:11:28:dc:cd:9f:
                    7a:26:67:5a:47:80:9b:d9:4c:f7:da:5f:6d:13:83:
                    1a:91:92:d1:b9:44:f7:72:6b:97:47:74:71:70:80:
                    d3:d6:73:bf:76:33:5c:70:b8:6f:87:37:3e:7e:8e:
                    75:e5
                Exponent: 65537 (0x10001)
        X509v3 extensions:
            X509v3 Authority Key Identifier: 
                keyid:0C:5E:9C:FE:BA:4B:21:6C:04:1D:C2:5A:B7:E3:88:5F:59:DE:4C:12

            X509v3 Subject Key Identifier: 
                0E:6B:AA:83:A9:B2:4D:5C:85:CD:B1:D2:2F:87:F7:20:CB:36:43:3B
            X509v3 Key Usage: critical
                Digital Signature, Key Encipherment
            X509v3 Basic Constraints: critical
                CA:FALSE
            X509v3 Subject Alternative Name: 
                DNS:www.example.com
            Authority Information Access: 
                CA Issuers - URI:http://ca.example.com/ca.crt
                OCSP - URI:http://ocsp.example.com/ocsp

            X509v3 Certificate Policies: 
                Policy: 0.4.0.194112.1.4
                Policy: 0.4.0.19495.3.1

            X509v3 Extended Key Usage: 
                TLS Web Server Authentication, TLS Web Client Authentication
            qcStatements: 
                0..0......F..0......F..0......F...0...+.......0.......I..0R......'.0H0.0.......'....PSP_AS.'Federal Financial Supervisory Authority..DE+BAFIN
    Signature Algorithm: sha256WithRSAEncryption
         35:01:43:87:0d:cb:63:43:a5:ad:5b:a4:07:06:c6:08:a4:f2:
         5d:cf:08:4a:32:36:9f:95:c8:3a:4a:3f:11:9d:a0:3e:2f:d2:
         e3:bf:7c:d9:55:dc:04:55:33:2b:6f:4d:1e:e3:a2:74:0d:40:
         e7:7d:75:29:95:8f:f8:fd:87:af:7f:96:bb:77:9d:36:93:1c:
         2d:9b:90:0c:bd:3d:ab:20:ba:41:f4:88:63:ab:3c:84:2b:07:
         a8:5e:09:0b:94:cf:58:e7:e8:6a:a0:7d:26:c5:11:38:2d:e8:
         e4:17:d2:2a:35:4b:05:07:87:51:7a:66:b3:c7:b5:d6:f6:18:
         e8:e7:45:e9:c0:c6:41:fe:a8:b0:16:6d:80:c9:38:03:7a:e3:
         45:c7:b1:8e:5a:07:e2:6c:b0:15:2a:f3:1d:4b:d4:74:4b:65:
         7d:a6:28:0a:e6:02:a0:01:ce:de:c4:15:eb:d8:4c:d6:08:3f:
         b8:8b:24:c8:ff:82:5b:fa:a4:6b:73:04:c8:c8:7d:e3:d3:84:
         ea:c9:10:b9:6f:fb:e9:bc:2a:1e:ad:a2:71:d8:78:d0:bf:c4:
         4f:94:69:37:34:45:42:4a:45:02:25:51:48:96:a5:6b:8a:07:
         d7:ac:01:b9:16:bf:28:17:2c:fe:bc:8b:6a:8f:a7:b3:17:81:
         bd:0b:73:82
-----BEGIN CERTIFICATE-----
MIIE+TCCA+GgAwIBAgINATUHhvxorWnu8CAA1zANBgkqhkiG9w0BAQsFADBBMRUw
EwYDVQQDDAxUZXN0IFN1YkNBIDIxDTALBgNVBAsMBFRlc3QxDDAKBgNVBAoMA01U
RzELMAkGA1UEBhMCREUwHhcNMTkxMTAxMDgwMzAxWhcNMjAxMTAxMDgwMzAxWjBw
MQ0wCwYDVQQLDARUZXN0MQwwCgYDVQQKDANNVEcxEjAQBgNVBAcMCURhcm1zdGFk
dDEPMA0GA1UECAwGSGVzc2VuMQswCQYDVQQGEwJERTEfMB0GA1UEYQwWUFNEREUt
QkFGSU4tMTIzNDU2Nzg5MDCCASIwDQYJKoZIhvcNAQEBBQADggEPADCCAQoCggEB
AMINgXG0lAW8z5mKqmII8i5jsh5G+SuFmMOD0M4mrXaPXOdbBSAlJjIZwiSKummj
68oQpPPPtcYe9nBYlluIUmqIQjOFuMYWSE8BRTk/4Wq5BrXvN9t5nlCQV0Nbi8M1
DbNB9BvCSn8YPDktT78rpXEHczMA5Y02nv6PcsVyVgjMhrbvuuL9m1zGLZTtLWQk
d+ZnTWLblC4pjt0desq8aPsVLIBW093nOo+YGBRLEdnEAR+5etDZrWkRBfYOrl/8
zcazy02ujkUYCqjAQBEo3M2feiZnWkeAm9lM99pfbRODGpGS0blE93Jrl0d0cXCA
09Zzv3YzXHC4b4c3Pn6OdeUCAwEAAaOCAb8wggG7MB8GA1UdIwQYMBaAFAxenP66
SyFsBB3CWrfjiF9Z3kwSMB0GA1UdDgQWBBQOa6qDqbJNXIXNsdIvh/cgyzZDOzAO
BgNVHQ8BAf8EBAMCBaAwDAYDVR0TAQH/BAIwADAaBgNVHREEEzARgg93d3cuZXhh
bXBsZS5jb20wYgYIKwYBBQUHAQEEVjBUMCgGCCsGAQUFBzAChhxodHRwOi8vY2Eu
ZXhhbXBsZS5jb20vY2EuY3J0MCgGCCsGAQUFBzABhhxodHRwOi8vb2NzcC5leGFt
cGxlLmNvbS9vY3NwMB8GA1UdIAQYMBYwCQYHBACL7EABBDAJBgcEAIGYJwMBMB0G
A1UdJQQWMBQGCCsGAQUFBwMBBggrBgEFBQcDAjCBmgYIKwYBBQUHAQMEgY0wgYow
CAYGBACORgEBMBMGBgQAjkYBBjAJBgcEAI5GAQYDMBUGCCsGAQUFBwsCMAkGBwQA
i+xJAQIwUgYGBACBmCcCMEgwEzARBgcEAIGYJwEBDAZQU1BfQVMMJ0ZlZGVyYWwg
RmluYW5jaWFsIFN1cGVydmlzb3J5IEF1dGhvcml0eQwIREUrQkFGSU4wDQYJKoZI
hvcNAQELBQADggEBADUBQ4cNy2NDpa1bpAcGxgik8l3PCEoyNp+VyDpKPxGdoD4v
0uO/fNlV3ARVMytvTR7jonQNQOd9dSmVj/j9h69/lrt3nTaTHC2bkAy9PasgukH0
iGOrPIQrB6heCQuUz1jn6GqgfSbFETgt6OQX0io1SwUHh1F6ZrPHtdb2GOjnRenA
xkH+qLAWbYDJOAN640XHsY5aB+JssBUq8x1L1HRLZX2mKArmAqABzt7EFevYTNYI
P7iLJMj/glv6pGtzBMjIfePThOrJELlv++m8Kh6tonHYeNC/xE+UaTc0RUJKRQIl
UUiWpWuKB9esAbkWvygXLP68i2qPp7MXgb0Lc4I=
-----END CERTIFICATE-----
