Certificate:
    Data:
        Version: 3 (0x2)
        Serial Number:
            0f:13:c2:9d:40:6a:8e:fe:42:9f:b6:15:a1
        Signature Algorithm: sha256WithRSAEncryption
        Issuer: CN = Test SubCA 2, OU = Test, O = MTG, C = DE
        Validity
            Not Before: Nov  1 08:03:01 2019 GMT
            Not After : Nov  1 08:03:01 2020 GMT
        Subject: OU = Test, O = MTG, L = Darmstadt, ST = Hessen, C = DE, organizationIdentifier = PSDDE-BAFIN-1234567890
        Subject Public Key Info:
            Public Key Algorithm: rsaEncryption
                RSA Public-Key: (2048 bit)
                Modulus:
                    00:c2:0d:81:71:b4:94:05:bc:cf:99:8a:aa:62:08:
                    f2:2e:63:b2:1e:46:f9:2b:85:98:c3:83:d0:ce:26:
                    ad:76:8f:5c:e7:5b:05:20:25:26:32:19:c2:24:8a:
                    ba:69:a3:eb:ca:10:a4:f3:cf:b5:c6:1e:f6:70:58:
                    96:5b:88:52:6a:88:42:33:85:b8:c6:16:48:4f:01:
                    45:39:3f:e1:6a:b9:06:b5:ef:37:db:79:9e:50:90:
                    57:43:5b:8b:c3:35:0d:b3:41:f4:1b:c2:4a:7f:18:
                    3c:39:2d:4f:bf:2b:a5:71:07:73:33:00:e5:8d:36:
                    9e:fe:8f:72:c5:72:56:08:cc:86:b6:ef:ba:e2:fd:
                    9b:5c:c6:2d:94:ed:2d:64:24:77:e6:67:4d:62:db:
                    94:2e:29:8e:dd:1d:7a:ca:bc:68:fb:15:2c:80:56:
                    d3:dd:e7:3a:8f:98:18:14:4b:11:d9:c4:01:1f:b9:
                    7a:d0:d9:ad:69:11:05:f6:0e:ae:5f:fc:cd:c6:b3:
                    cb:4d:ae:8e:45:18:0a:a8:c0:40:11:28:dc:cd:9f:
                    7a:26:67:5a:47:80:9b:d9:4c:f7:da:5f:6d:13:83:
                    1a:91:92:d1:b9:44:f7:72:6b:97:47:74:71:70:80:
                    d3:d6:73:bf:76:33:5c:70:b8:6f:87:37:3e:7e:8e:
                    75:e5
                Exponent: 65537 (0x10001)
        X509v3 extensions:
            X509v3 Authority Key Identifier: 
                keyid:0C:5E:9C:FE:BA:4B:21:6C:04:1D:C2:5A:B7:E3:88:5F:59:DE:4C:12

            X509v3 Subject Key Identifier: 
                0E:6B:AA:83:A9:B2:4D:5C:85:CD:B1:D2:2F:87:F7:20:CB:36:43:3B
            X509v3 Key Usage: critical
                Digital Signature, Key Encipherment
            X509v3 Basic Constraints: critical
                CA:FALSE
            X509v3 Subject Alternative Name: 
                DNS:www.example.com
            Authority Information Access: 
                CA Issuers - URI:http://ca.example.com/ca.crt
                OCSP - URI:http://ocsp.example.com/ocsp

            X509v3 Certificate Policies: 
                Policy: 0.4.0.194112.1.4
                Policy: 0.4.0.19495.3.1

            X509v3 Extended Key Usage: 
                TLS Web Server Authentication, TLS Web Client Authentication
            qcStatements: 
                0..0......F..0......F..0......F...0...+.......0.......I..0I......'.0?0
0...PSP_AI.'Federal Financial Supervisory Authority..DE-BAFIN
    Signature Algorithm: sha256WithRSAEncryption
         0b:5d:bf:42:b8:ea:31:79:e7:93:39:21:46:bf:fe:22:cc:93:
         a6:d7:9e:aa:e5:04:48:db:b9:53:00:0f:64:6a:e8:5b:c8:13:
         9e:ae:83:86:10:7d:85:88:f3:97:f4:ec:98:42:9e:72:9d:c3:
         59:e9:c7:dc:05:f5:ab:cb:58:d8:20:98:da:57:4c:f7:45:d7:
         48:82:5c:01:38:bd:81:0e:b5:5c:bc:c6:36:20:30:f9:36:b3:
         0a:1c:56:00:33:0d:94:12:3c:08:fc:9c:d4:12:12:06:25:a4:
         bb:f9:a3:c2:10:3c:13:1b:3f:ab:8a:8e:30:e2:95:51:c4:a4:
         83:dc:94:39:48:87:1e:ed:7c:fb:46:1b:8f:fd:3e:fc:76:14:
         ab:67:0f:9d:99:af:9a:90:bc:bf:39:20:2e:50:cb:6c:48:22:
         2c:e7:2e:dd:a9:e4:4d:77:d4:4b:2c:67:5c:c2:1c:3a:b3:a3:
         79:98:a7:56:12:f3:52:63:96:8c:08:65:4b:44:20:28:6d:ed:
         fd:09:bb:6f:d1:68:a8:1d:c2:2b:c9:da:32:87:3a:1d:b7:0c:
         d9:0f:5a:c4:03:6e:a8:0c:65:2d:a8:40:21:20:8a:45:6e:e1:
         fd:dd:e9:f1:ed:e2:71:82:a5:01:9c:ea:32:60:d8:7d:e7:d8:
         a4:77:3b:dc
-----BEGIN CERTIFICATE-----
MIIE8DCCA9igAwIBAgINDxPCnUBqjv5Cn7YVoTANBgkqhkiG9w0BAQsFADBBMRUw
EwYDVQQDDAxUZXN0IFN1YkNBIDIxDTALBgNVBAsMBFRlc3QxDDAKBgNVBAoMA01U
RzELMAkGA1UEBhMCREUwHhcNMTkxMTAxMDgwMzAxWhcNMjAxMTAxMDgwMzAxWjBw
MQ0wCwYDVQQLDARUZXN0MQwwCgYDVQQKDANNVEcxEjAQBgNVBAcMCURhcm1zdGFk
dDEPMA0GA1UECAwGSGVzc2VuMQswCQYDVQQGEwJERTEfMB0GA1UEYQwWUFNEREUt
QkFGSU4tMTIzNDU2Nzg5MDCCASIwDQYJKoZIhvcNAQEBBQADggEPADCCAQoCggEB
AMINgXG0lAW8z5mKqmII8i5jsh5G+SuFmMOD0M4mrXaPXOdbBSAlJjIZwiSKummj
68oQpPPPtcYe9nBYlluIUmqIQjOFuMYWSE8BRTk/4Wq5BrXvN9t5nlCQV0Nbi8M1
DbNB9BvCSn8YPDktT78rpXEHczMA5Y02nv6PcsVyVgjMhrbvuuL9m1zGLZTtLWQk
d+ZnTWLblC4pjt0desq8aPsVLIBW093nOo+YGBRLEdnEAR+5etDZrWkRBfYOrl/8
zcazy02ujkUYCqjAQBEo3M2feiZnWkeAm9lM99pfbRODGpGS0blE93Jrl0d0cXCA
09Zzv3YzXHC4b4c3Pn6OdeUCAwEAAaOCAbYwggGyMB8GA1UdIwQYMBaAFAxenP66
SyFsBB3CWrfjiF9Z3kwSMB0GA1UdDgQWBBQOa6qDqbJNXIXNsdIvh/cgyzZDOzAO
BgNVHQ8BAf8EBAMCBaAwDAYDVR0TAQH/BAIwADAaBgNVHREEEzARgg93d3cuZXhh
bXBsZS5jb20wYgYIKwYBBQUHAQEEVjBUMCgGCCsGAQUFBzAChhxodHRwOi8vY2Eu
ZXhhbXBsZS5jb20vY2EuY3J0MCgGCCsGAQUFBzABhhxodHRwOi8vb2NzcC5leGFt
cGxlLmNvbS9vY3NwMB8GA1UdIAQYMBYwCQYHBACL7EABBDAJBgcEAIGYJwMBMB0G
A1UdJQQWMBQGCCsGAQUFBwMBBggrBgEFBQcDAjCBkQYIKwYBBQUHAQMEgYQwgYEw
CAYGBACORgEBMBMGBgQAjkYBBjAJBgcEAI5GAQYDMBUGCCsGAQUFBwsCMAkGBwQA
i+xJAQIwSQYGBACBmCcCMD8wCjAIDAZQU1BfQUkMJ0ZlZGVyYWwgRmluYW5jaWFs
IFN1cGVydmlzb3J5IEF1dGhvcml0eQwIREUtQkFGSU4wDQYJKoZIhvcNAQELBQAD
ggEBAAtdv0K46jF555M5IUa//iLMk6bXnqrlBEjbuVMAD2Rq6FvIE56ug4YQfYWI
85f07JhCnnKdw1npx9wF9avLWNggmNpXTPdF10iCXAE4vYEOtVy8xjYgMPk2swoc
VgAzDZQSPAj8nNQSEgYlpLv5o8IQPBMbP6uKjjDilVHEpIPclDlIhx7tfPtGG4/9
Pvx2FKtnD52Zr5qQvL85IC5Qy2xIIiznLt2p5E131EssZ1zCHDqzo3mYp1YS81Jj
lowIZUtEICht7f0Ju2/RaKgdwivJ2jKHOh23DNkPWsQDbqgMZS2oQCEgikVu4f3d
6fHt4nGCpQGc6jJg2H3n2KR3O9w=
-----END CERTIFICATE-----
