Certificate:
    Data:
        Version: 3 (0x2)
        Serial Number:
            0e:25:29:ab:ca:46:40:44:4a:9a:b2:4d:25
        Signature Algorithm: sha256WithRSAEncryption
        Issuer: CN = Lint Sub-CA, OU = Test, O = MTG, C = DE
        Validity
            Not Before: Nov 21 03:21:32 2018 GMT
            Not After : Nov 21 03:21:32 2048 GMT
        Subject: CN = www.example.com, OU = Test, O = MTG, L = Darmstadt, ST = Hessen, C = DE
        Subject Public Key Info:
            Public Key Algorithm: rsaEncryption
                RSA Public-Key: (2048 bit)
                Modulus:
                    00:a1:d8:53:fa:65:88:3e:f1:08:07:4e:ec:62:10:
                    4a:ae:55:1f:e1:71:3e:7e:9c:d3:0f:0f:20:f6:37:
                    a0:22:ec:f3:31:71:d5:1e:97:ea:3e:f2:78:4d:e7:
                    64:8c:ed:53:60:9a:7f:dc:9a:80:2a:18:b7:ef:96:
                    09:52:99:bb:4b:40:62:58:5b:76:d8:d8:fb:b6:7e:
                    eb:ff:12:9b:28:9f:23:27:5e:1d:22:b7:03:3d:91:
                    d9:6a:30:ff:a6:48:e1:0a:ed:75:d8:03:87:6e:10:
                    a0:b1:0d:6b:f4:07:47:e8:34:e7:87:f0:dd:46:20:
                    0c:6b:10:e0:56:3a:ee:1d:e0:de:81:4b:58:4a:46:
                    7f:4e:18:28:9b:ee:b9:8d:fc:16:ba:b3:f1:08:23:
                    65:de:dd:3b:e0:f8:ba:73:e9:83:41:a4:a8:8d:74:
                    ed:57:6a:e0:33:5a:8b:5d:ae:b4:45:7a:04:a0:34:
                    f6:a1:29:d9:86:84:59:75:d9:e8:40:1e:19:80:4d:
                    91:95:29:87:63:f0:8c:5b:c0:52:9a:88:de:7d:e9:
                    15:ee:29:b2:5c:5c:87:76:72:7f:39:0c:bc:97:2d:
                    83:c5:e8:50:d8:5b:6b:3c:03:be:77:6e:92:c2:43:
                    1c:00:8f:0d:44:3a:9c:c9:7c:9d:fc:74:86:7c:41:
                    8a:57
                Exponent: 65537 (0x10001)
        X509v3 extensions:
            X509v3 Authority Key Identifier: 
                keyid:E2:0F:66:4C:20:2C:78:21:2A:8F:29:DB:F9:99:F6:00:86:C4:AF:E1

            X509v3 Subject Key Identifier: 
                82:FF:CD:E0:CD:30:08:4C:82:D8:6F:51:85:75:72:15:37:65:1D:C1
            X509v3 Key Usage: critical
                Digital Signature, Key Encipherment
            X509v3 Basic Constraints: critical
                CA:FALSE
            X509v3 Subject Alternative Name: 
                DNS:www.example.com
            Authority Information Access: 
                CA Issuers - URI:http://ca.example.com/ca.crt
                OCSP - URI:http://ocsp.example.com/ocsp

            X509v3 Certificate Policies: 
                Policy: 1.2.3.4.5

            X509v3 Extended Key Usage: 
                TLS Web Server Authentication, TLS Web Client Authentication
            qcStatements: 
                0m0V.....F..0L0$..http://example.com/en/test.pdf..en0$..http://example.com/de/test.pdf..de0......F..0......F...
    Signature Algorithm: sha256WithRSAEncryption
         5d:42:89:ff:f7:2b:cf:2e:b7:dd:f8:15:39:11:37:98:b9:43:
         7d:07:af:bb:70:e3:7c:64:93:4d:5b:0b:1b:4d:f4:ee:bb:d5:
         18:4b:e2:c3:b9:fc:05:14:0e:56:92:74:8f:fe:1b:b9:bd:80:
         31:f3:be:84:42:ea:1a:e2:b1:b9:cc:5a:c6:7b:ec:2c:fe:2d:
         21:e8:99:12:8d:5b:74:4e:bd:17:c1:29:e0:1f:0a:e6:14:95:
         ba:b1:bf:c4:9e:25:59:94:e0:db:27:94:da:b7:c9:91:e8:b3:
         81:5c:3e:4e:2b:ad:04:d9:6f:14:2b:ef:6e:67:98:13:94:6c:
         fd:fc:7a:95:f5:b6:98:4c:a3:ed:2b:fa:d8:95:bf:0d:fd:e5:
         46:f8:50:5f:9b:c6:01:6d:6a:5a:21:be:c0:db:2e:62:d6:12:
         86:7d:97:e8:1b:de:47:7d:6f:ec:33:82:06:b8:8a:2c:d8:d7:
         b6:74:01:67:1f:00:04:21:77:e5:10:d3:07:0d:61:10:40:fc:
         dc:10:da:8e:a6:a4:fe:97:37:f6:e4:cf:fa:a7:3a:9b:11:84:
         3a:b4:12:72:65:31:53:94:94:e6:ca:0b:94:1e:1f:3c:9c:97:
         80:b1:00:fd:d4:c8:77:ac:8f:07:b1:ff:e5:24:66:aa:b7:c5:
         f9:2c:98:ba
-----BEGIN CERTIFICATE-----
MIIEwzCCA6ugAwIBAgINDiUpq8pGQERKmrJNJTANBgkqhkiG9w0BAQsFADBAMRQw
EgYDVQQDDAtMaW50IFN1Yi1DQTENMAsGA1UECwwEVGVzdDEMMAoGA1UECgwDTVRH
MQswCQYDVQQGEwJERTAeFw0xODExMjEwMzIxMzJaFw00ODExMjEwMzIxMzJaMGkx
GDAWBgNVBAMMD3d3dy5leGFtcGxlLmNvbTENMAsGA1UECwwEVGVzdDEMMAoGA1UE
CgwDTVRHMRIwEAYDVQQHDAlEYXJtc3RhZHQxDzANBgNVBAgMBkhlc3NlbjELMAkG
A1UEBhMCREUwggEiMA0GCSqGSIb3DQEBAQUAA4IBDwAwggEKAoIBAQCh2FP6ZYg+
8QgHTuxiEEquVR/hcT5+nNMPDyD2N6Ai7PMxcdUel+o+8nhN52SM7VNgmn/cmoAq
GLfvlglSmbtLQGJYW3bY2Pu2fuv/EpsonyMnXh0itwM9kdlqMP+mSOEK7XXYA4du
EKCxDWv0B0foNOeH8N1GIAxrEOBWOu4d4N6BS1hKRn9OGCib7rmN/Ba6s/EII2Xe
3Tvg+Lpz6YNBpKiNdO1XauAzWotdrrRFegSgNPahKdmGhFl12ehAHhmATZGVKYdj
8IxbwFKaiN596RXuKbJcXId2cn85DLyXLYPF6FDYW2s8A753bpLCQxwAjw1EOpzJ
fJ38dIZ8QYpXAgMBAAGjggGRMIIBjTAfBgNVHSMEGDAWgBTiD2ZMICx4ISqPKdv5
mfYAhsSv4TAdBgNVHQ4EFgQUgv/N4M0wCEyC2G9RhXVyFTdlHcEwDgYDVR0PAQH/
BAQDAgWgMAwGA1UdEwEB/wQCMAAwGgYDVR0RBBMwEYIPd3d3LmV4YW1wbGUuY29t
MGIGCCsGAQUFBwEBBFYwVDAoBggrBgEFBQcwAoYcaHR0cDovL2NhLmV4YW1wbGUu
Y29tL2NhLmNydDAoBggrBgEFBQcwAYYcaHR0cDovL29jc3AuZXhhbXBsZS5jb20v
b2NzcDARBgNVHSAECjAIMAYGBCoDBAUwHQYDVR0lBBYwFAYIKwYBBQUHAwEGCCsG
AQUFBwMCMHsGCCsGAQUFBwEDBG8wbTBWBgYEAI5GAQUwTDAkFh5odHRwOi8vZXhh
bXBsZS5jb20vZW4vdGVzdC5wZGYTAmVuMCQWHmh0dHA6Ly9leGFtcGxlLmNvbS9k
ZS90ZXN0LnBkZhMCZGUwEwYGBACORgEGMAkGBwQAjkYBBgMwDQYJKoZIhvcNAQEL
BQADggEBAF1Cif/3K88ut934FTkRN5i5Q30Hr7tw43xkk01bCxtN9O671RhL4sO5
/AUUDlaSdI/+G7m9gDHzvoRC6hrisbnMWsZ77Cz+LSHomRKNW3ROvRfBKeAfCuYU
lbqxv8SeJVmU4NsnlNq3yZHos4FcPk4rrQTZbxQr725nmBOUbP38epX1tphMo+0r
+tiVvw395Ub4UF+bxgFtalohvsDbLmLWEoZ9l+gb3kd9b+wzgga4iizY17Z0AWcf
AAQhd+UQ0wcNYRBA/NwQ2o6mpP6XN/bkz/qnOpsRhDq0EnJlMVOUlObKC5QeHzyc
l4CxAP3UyHesjwex/+UkZqq3xfksmLo=
-----END CERTIFICATE-----
