Certificate:
    Data:
        Version: 3 (0x2)
        Serial Number:
            08:69:f3:36:bc:cb:02:fb:02:6d:63:30:26
        Signature Algorithm: sha256WithRSAEncryption
        Issuer: CN = Test SubCA 2, OU = Test, O = MTG, C = DE
        Validity
            Not Before: Nov  1 08:03:01 2019 GMT
            Not After : Nov  1 08:03:01 2020 GMT
        Subject: OU = Test, O = MTG, L = Darmstadt, ST = Hessen, C = DE, organizationIdentifier = PSDDE-BAFIN-1234567890
        Subject Public Key Info:
            Public Key Algorithm: rsaEncryption
                RSA Public-Key: (2048 bit)
                Modulus:
                    00:c2:0d:81:71:b4:94:05:bc:cf:99:8a:aa:62:08:
                    f2:2e:63:b2:1e:46:f9:2b:85:98:c3:83:d0:ce:26:
                    ad:76:8f:5c:e7:5b:05:20:25:26:32:19:c2:24:8a:
                    ba:69:a3:eb:ca:10:a4:f3:cf:b5:c6:1e:f6:70:58:
                    96:5b:88:52:6a:88:42:33:85:b8:c6:16:48:4f:01:
                    45:39:3f:e1:6a:b9:06:b5:ef:37:db:79:9e:50:90:
                    57:43:5b:8b:c3:35:0d:b3:41:f4:1b:c2:4a:7f:18:
                    3c:39:2d:4f:bf:2b:a5:71:07:73:33:00:e5:8d:36:
                    9e:fe:8f:72:c5:72:56:08:cc:86:b6:ef:ba:e2:fd:
                    9b:5c:c6:2d:94:ed:2d:64:24:77:e6:67:4d:62:db:
                    94:2e:29:8e:dd:1d:7a:ca:bc:68:fb:15:2c:80:56:
                    d3:dd:e7:3a:8f:98:18:14:4b:11:d9:c4:01:1f:b9:
                    7a:d0:d9:ad:69:11:05:f6:0e:ae:5f:fc:cd:c6:b3:
                    cb:4d:ae:8e:45:18:0a:a8:c0:40:11:28:dc:cd:9f:
                    7a:26:67:5a:47:80:9b:d9:4c:f7:da:5f:6d:13:83:
                    1a:91:92:d1:b9:44:f7:72:6b:97:47:74:71:70:80:
                    d3:d6:73:bf:76:33:5c:70:b8:6f:87:37:3e:7e:8e:
                    75:e5
                Exponent: 65537 (0x10001)
        X509v3 extensions:
            X509v3 Authority Key Identifier: 
                keyid:0C:5E:9C:FE:BA:4B:21:6C:04:1D:C2:5A:B7:E3:88:5F:59:DE:4C:12

            X509v3 Subject Key Identifier: 
                0E:6B:AA:83:A9:B2:4D:5C:85:CD:B1:D2:2F:87:F7:20:CB:36:43:3B
            X509v3 Key Usage: critical
                Digital Signature, Key Encipherment
            X509v3 Basic Constraints: critical
                CA:FALSE
            X509v3 Subject Alternative Name: 
                DNS:www.example.com
            Authority Information Access: 
                CA Issuers - URI:http://ca.example.com/ca.crt
                OCSP - URI:http://ocsp.example.com/ocsp

            X509v3 Certificate Policies: 
                Policy: 0.4.0.194112.1.4
                Policy: 0.4.0.19495.3.1

            X509v3 Extended Key Usage: 
                TLS Web Server Authentication, TLS Web Client Authentication
            qcStatements: 
                0~0......F..0......F..0......F...0...+.......0.......I..0F......'.0<00.......'.....'Federal Financial Supervisory Authority..DE
    Signature Algorithm: sha256WithRSAEncryption
         3e:29:8a:d8:e1:48:1d:30:b6:95:6b:fa:fb:13:74:95:48:3a:
         71:d9:72:66:4d:53:ec:dd:e2:04:5f:74:5a:88:06:d4:78:c3:
         08:a9:d8:94:82:dc:bc:e3:39:f3:5a:76:c6:57:ae:d6:8a:c6:
         2f:f5:40:70:98:34:4d:ef:6b:97:d6:78:8e:ee:b3:d5:be:17:
         b2:31:57:49:8d:50:04:cc:48:f2:05:8f:d9:ac:45:62:5c:5c:
         8d:14:bb:b0:c8:e4:9b:b9:73:40:be:b7:a8:60:09:9b:be:86:
         af:55:da:b5:cc:7b:a5:ea:b0:80:e3:26:98:b3:7d:7b:45:84:
         4b:ee:33:d9:ac:36:0a:4b:14:82:c6:90:da:8b:b3:11:1e:2b:
         85:72:6d:54:27:a6:87:33:4a:71:b7:80:fb:cc:91:38:3d:11:
         39:e9:ea:0c:23:6a:70:01:88:18:9e:18:35:2a:7d:d1:69:69:
         eb:76:da:c6:ee:ae:dc:f2:60:32:bf:52:2f:ab:19:cd:a8:a6:
         68:51:0f:63:a8:20:8b:0e:cf:89:80:0a:c6:6b:32:6c:a1:41:
         5c:62:41:3c:46:99:e4:c0:78:7c:31:8a:6d:ee:27:10:68:84:
         b0:ce:7a:20:c0:6a:ec:33:0a:34:10:7a:ee:3e:2d:c6:65:20:
         db:1b:5d:eb
-----BEGIN CERTIFICATE-----
MIIE7DCCA9SgAwIBAgINCGnzNrzLAvsCbWMwJjANBgkqhkiG9w0BAQsFADBBMRUw
EwYDVQQDDAxUZXN0IFN1YkNBIDIxDTALBgNVBAsMBFRlc3QxDDAKBgNVBAoMA01U
RzELMAkGA1UEBhMCREUwHhcNMTkxMTAxMDgwMzAxWhcNMjAxMTAxMDgwMzAxWjBw
MQ0wCwYDVQQLDARUZXN0MQwwCgYDVQQKDANNVEcxEjAQBgNVBAcMCURhcm1zdGFk
dDEPMA0GA1UECAwGSGVzc2VuMQswCQYDVQQGEwJERTEfMB0GA1UEYQwWUFNEREUt
QkFGSU4tMTIzNDU2Nzg5MDCCASIwDQYJKoZIhvcNAQEBBQADggEPADCCAQoCggEB
AMINgXG0lAW8z5mKqmII8i5jsh5G+SuFmMOD0M4mrXaPXOdbBSAlJjIZwiSKummj
68oQpPPPtcYe9nBYlluIUmqIQjOFuMYWSE8BRTk/4Wq5BrXvN9t5nlCQV0Nbi8M1
DbNB9BvCSn8YPDktT78rpXEHczMA5Y02nv6PcsVyVgjMhrbvuuL9m1zGLZTtLWQk
d+ZnTWLblC4pjt0desq8aPsVLIBW093nOo+YGBRLEdnEAR+5etDZrWkRBfYOrl/8
zcazy02ujkUYCqjAQBEo3M2feiZnWkeAm9lM99pfbRODGpGS0blE93Jrl0d0cXCA
09Zzv3YzXHC4b4c3Pn6OdeUCAwEAAaOCAbIwggGuMB8GA1UdIwQYMBaAFAxenP66
SyFsBB3CWrfjiF9Z3kwSMB0GA1UdDgQWBBQOa6qDqbJNXIXNsdIvh/cgyzZDOzAO
BgNVHQ8BAf8EBAMCBaAwDAYDVR0TAQH/BAIwADAaBgNVHREEEzARgg93d3cuZXhh
bXBsZS5jb20wYgYIKwYBBQUHAQEEVjBUMCgGCCsGAQUFBzAChhxodHRwOi8vY2Eu
ZXhhbXBsZS5jb20vY2EuY3J0MCgGCCsGAQUFBzABhhxodHRwOi8vb2NzcC5leGFt
cGxlLmNvbS9vY3NwMB8GA1UdIAQYMBYwCQYHBACL7EABBDAJBgcEAIGYJwMBMB0G
A1UdJQQWMBQGCCsGAQUFBwMBBggrBgEFBQcDAjCBjQYIKwYBBQUHAQMEgYAwfjAI
BgYEAI5GAQEwEwYGBACORgEGMAkGBwQAjkYBBgMwFQYIKwYBBQUHCwIwCQYHBACL
7EkBAjBGBgYEAIGYJwIwPDANMAsGBwQAgZgnAQEMAAwnRmVkZXJhbCBGaW5hbmNp
YWwgU3VwZXJ2aXNvcnkgQXV0aG9yaXR5DAJERTANBgkqhkiG9w0BAQsFAAOCAQEA
PimK2OFIHTC2lWv6+xN0lUg6cdlyZk1T7N3iBF90WogG1HjDCKnYlILcvOM581p2
xleu1orGL/VAcJg0Te9rl9Z4ju6z1b4XsjFXSY1QBMxI8gWP2axFYlxcjRS7sMjk
m7lzQL63qGAJm76Gr1Xatcx7peqwgOMmmLN9e0WES+4z2aw2CksUgsaQ2ouzER4r
hXJtVCemhzNKcbeA+8yROD0ROenqDCNqcAGIGJ4YNSp90Wlp63baxu6u3PJgMr9S
L6sZzaimaFEPY6ggiw7PiYAKxmsybKFBXGJBPEaZ5MB4fDGKbe4nEGiEsM56IMBq
7DMKNBB67j4txmUg2xtd6w==
-----END CERTIFICATE-----
