Certificate:
    Data:
        Version: 3 (0x2)
        Serial Number:
            08:4c:25:84:8a:c5:be:e7:81:59:82:d3:24
        Signature Algorithm: sha256WithRSAEncryption
        Issuer: CN = Test SubCA 2, OU = Test, O = MTG, C = DE
        Validity
            Not Before: Nov  1 08:03:01 2019 GMT
            Not After : Nov  1 08:03:01 2020 GMT
        Subject: O = MTG, OU = Test, L = Darmstadt, ST = Hessen, C = DE, organizationIdentifier = EI:SE-5567971433
        Subject Public Key Info:
            Public Key Algorithm: rsaEncryption
                RSA Public-Key: (2048 bit)
                Modulus:
                    00:c2:0d:81:71:b4:94:05:bc:cf:99:8a:aa:62:08:
                    f2:2e:63:b2:1e:46:f9:2b:85:98:c3:83:d0:ce:26:
                    ad:76:8f:5c:e7:5b:05:20:25:26:32:19:c2:24:8a:
                    ba:69:a3:eb:ca:10:a4:f3:cf:b5:c6:1e:f6:70:58:
                    96:5b:88:52:6a:88:42:33:85:b8:c6:16:48:4f:01:
                    45:39:3f:e1:6a:b9:06:b5:ef:37:db:79:9e:50:90:
                    57:43:5b:8b:c3:35:0d:b3:41:f4:1b:c2:4a:7f:18:
                    3c:39:2d:4f:bf:2b:a5:71:07:73:33:00:e5:8d:36:
                    9e:fe:8f:72:c5:72:56:08:cc:86:b6:ef:ba:e2:fd:
                    9b:5c:c6:2d:94:ed:2d:64:24:77:e6:67:4d:62:db:
                    94:2e:29:8e:dd:1d:7a:ca:bc:68:fb:15:2c:80:56:
                    d3:dd:e7:3a:8f:98:18:14:4b:11:d9:c4:01:1f:b9:
                    7a:d0:d9:ad:69:11:05:f6:0e:ae:5f:fc:cd:c6:b3:
                    cb:4d:ae:8e:45:18:0a:a8:c0:40:11:28:dc:cd:9f:
                    7a:26:67:5a:47:80:9b:d9:4c:f7:da:5f:6d:13:83:
                    1a:91:92:d1:b9:44:f7:72:6b:97:47:74:71:70:80:
                    d3:d6:73:bf:76:33:5c:70:b8:6f:87:37:3e:7e:8e:
                    75:e5
                Exponent: 65537 (0x10001)
        X509v3 extensions:
            X509v3 Authority Key Identifier: 
                keyid:0C:5E:9C:FE:BA:4B:21:6C:04:1D:C2:5A:B7:E3:88:5F:59:DE:4C:12

            X509v3 Subject Key Identifier: 
                0E:6B:AA:83:A9:B2:4D:5C:85:CD:B1:D2:2F:87:F7:20:CB:36:43:3B
            X509v3 Key Usage: critical
                Digital Signature, Key Encipherment
            X509v3 Basic Constraints: critical
                CA:FALSE
            X509v3 Subject Alternative Name: 
                DNS:www.example.com
            Authority Information Access: 
                CA Issuers - URI:http://ca.example.com/ca.crt
                OCSP - URI:http://ocsp.example.com/ocsp

            X509v3 Certificate Policies: 
                Policy: 0.4.0.194112.1.4
                Policy: 0.4.0.19495.3.1

            X509v3 Extended Key Usage: 
                TLS Web Server Authentication, TLS Web Client Authentication
            qcStatements: 
                0..0......F..0......F..0......F...0...+.......0.......I..0Q......'.0G0.0.......'....PSP_IC.'Federal Financial Supervisory Authority..SE-FINA
    Signature Algorithm: sha256WithRSAEncryption
         46:83:b0:4d:fd:0d:a2:a8:bd:aa:af:f7:f0:c2:dc:be:de:fb:
         fe:43:07:86:70:ec:66:82:8b:f2:2f:0d:d7:a4:ea:e4:9e:8d:
         0d:3a:5b:ea:55:a0:33:5e:3d:bf:0b:c5:9e:7b:61:9d:22:df:
         ea:d5:b9:be:48:a9:c3:8b:ba:52:c2:78:d9:d6:97:77:37:1e:
         58:4c:09:1c:33:0f:ba:21:e4:a6:bf:11:2c:12:5c:03:93:43:
         bb:10:52:3e:e2:de:5f:6d:dd:45:2b:f7:6e:c3:6b:bf:3f:93:
         3d:d3:ba:b9:6d:77:8c:7e:42:d4:52:b7:1c:e7:db:87:cf:0b:
         e3:21:70:04:83:e7:5f:89:e7:7c:7c:bc:05:17:96:ca:6f:0b:
         0a:40:b9:bc:45:b5:fc:36:53:31:c4:5c:0e:cd:ba:0c:9c:ad:
         fc:fe:e1:dd:12:0b:1a:dd:51:9d:24:6a:35:34:11:7b:48:4f:
         72:83:03:58:3a:be:6c:77:f3:ee:33:c2:ef:d4:51:04:ac:86:
         dc:90:e1:de:9a:f3:73:b5:91:73:31:a7:84:ed:92:5d:d9:33:
         18:aa:e4:2b:07:80:40:ad:01:b9:6d:83:f4:e6:bc:b2:7c:b7:
         65:c6:73:36:2f:03:79:07:74:1d:e0:1b:18:22:81:ba:9e:5f:
         24:87:b7:bf
-----BEGIN CERTIFICATE-----
MIIE8jCCA9qgAwIBAgINCEwlhIrFvueBWYLTJDANBgkqhkiG9w0BAQsFADBBMRUw
EwYDVQQDDAxUZXN0IFN1YkNBIDIxDTALBgNVBAsMBFRlc3QxDDAKBgNVBAoMA01U
RzELMAkGA1UEBhMCREUwHhcNMTkxMTAxMDgwMzAxWhcNMjAxMTAxMDgwMzAxWjBq
MQwwCgYDVQQKDANNVEcxDTALBgNVBAsMBFRlc3QxEjAQBgNVBAcMCURhcm1zdGFk
dDEPMA0GA1UECAwGSGVzc2VuMQswCQYDVQQGEwJERTEZMBcGA1UEYQwQRUk6U0Ut
NTU2Nzk3MTQzMzCCASIwDQYJKoZIhvcNAQEBBQADggEPADCCAQoCggEBAMINgXG0
lAW8z5mKqmII8i5jsh5G+SuFmMOD0M4mrXaPXOdbBSAlJjIZwiSKummj68oQpPPP
tcYe9nBYlluIUmqIQjOFuMYWSE8BRTk/4Wq5BrXvN9t5nlCQV0Nbi8M1DbNB9BvC
Sn8YPDktT78rpXEHczMA5Y02nv6PcsVyVgjMhrbvuuL9m1zGLZTtLWQkd+ZnTWLb
lC4pjt0desq8aPsVLIBW093nOo+YGBRLEdnEAR+5etDZrWkRBfYOrl/8zcazy02u
jkUYCqjAQBEo3M2feiZnWkeAm9lM99pfbRODGpGS0blE93Jrl0d0cXCA09Zzv3Yz
XHC4b4c3Pn6OdeUCAwEAAaOCAb4wggG6MB8GA1UdIwQYMBaAFAxenP66SyFsBB3C
WrfjiF9Z3kwSMB0GA1UdDgQWBBQOa6qDqbJNXIXNsdIvh/cgyzZDOzAOBgNVHQ8B
Af8EBAMCBaAwDAYDVR0TAQH/BAIwADAaBgNVHREEEzARgg93d3cuZXhhbXBsZS5j
b20wYgYIKwYBBQUHAQEEVjBUMCgGCCsGAQUFBzAChhxodHRwOi8vY2EuZXhhbXBs
ZS5jb20vY2EuY3J0MCgGCCsGAQUFBzABhhxodHRwOi8vb2NzcC5leGFtcGxlLmNv
bS9vY3NwMB8GA1UdIAQYMBYwCQYHBACL7EABBDAJBgcEAIGYJwMBMB0GA1UdJQQW
MBQGCCsGAQUFBwMBBggrBgEFBQcDAjCBmQYIKwYBBQUHAQMEgYwwgYkwCAYGBACO
RgEBMBMGBgQAjkYBBjAJBgcEAI5GAQYDMBUGCCsGAQUFBwsCMAkGBwQAi+xJAQIw
UQYGBACBmCcCMEcwEzARBgcEAIGYJwEEDAZQU1BfSUMMJ0ZlZGVyYWwgRmluYW5j
aWFsIFN1cGVydmlzb3J5IEF1dGhvcml0eQwHU0UtRklOQTANBgkqhkiG9w0BAQsF
AAOCAQEARoOwTf0Noqi9qq/38MLcvt77/kMHhnDsZoKL8i8N16Tq5J6NDTpb6lWg
M149vwvFnnthnSLf6tW5vkipw4u6UsJ42daXdzceWEwJHDMPuiHkpr8RLBJcA5ND
uxBSPuLeX23dRSv3bsNrvz+TPdO6uW13jH5C1FK3HOfbh88L4yFwBIPnX4nnfHy8
BReWym8LCkC5vEW1/DZTMcRcDs26DJyt/P7h3RILGt1RnSRqNTQRe0hPcoMDWDq+
bHfz7jPC79RRBKyG3JDh3przc7WRczGnhO2SXdkzGKrkKweAQK0BuW2D9Oa8sny3
ZcZzNi8DeQd0HeAbGCKBup5fJIe3vw==
-----END CERTIFICATE-----
