Certificate:
    Data:
        Version: 3 (0x2)
        Serial Number:
            06:56:2c:58:4a:6f:61:ef:47:53:e0:96:29
        Signature Algorithm: sha256WithRSAEncryption
        Issuer: CN = Test SubCA 2, OU = Test, O = MTG, C = DE
        Validity
            Not Before: Nov  1 08:03:01 2019 GMT
            Not After : Nov  1 08:03:01 2020 GMT
        Subject: OU = Test, O = MTG, L = Darmstadt, ST = Hessen, C = DE, organizationIdentifier = PSDDE-BAFIN-1234567890
        Subject Public Key Info:
            Public Key Algorithm: rsaEncryption
                RSA Public-Key: (2048 bit)
                Modulus:
                    00:c2:0d:81:71:b4:94:05:bc:cf:99:8a:aa:62:08:
                    f2:2e:63:b2:1e:46:f9:2b:85:98:c3:83:d0:ce:26:
                    ad:76:8f:5c:e7:5b:05:20:25:26:32:19:c2:24:8a:
                    ba:69:a3:eb:ca:10:a4:f3:cf:b5:c6:1e:f6:70:58:
                    96:5b:88:52:6a:88:42:33:85:b8:c6:16:48:4f:01:
                    45:39:3f:e1:6a:b9:06:b5:ef:37:db:79:9e:50:90:
                    57:43:5b:8b:c3:35:0d:b3:41:f4:1b:c2:4a:7f:18:
                    3c:39:2d:4f:bf:2b:a5:71:07:73:33:00:e5:8d:36:
                    9e:fe:8f:72:c5:72:56:08:cc:86:b6:ef:ba:e2:fd:
                    9b:5c:c6:2d:94:ed:2d:64:24:77:e6:67:4d:62:db:
                    94:2e:29:8e:dd:1d:7a:ca:bc:68:fb:15:2c:80:56:
                    d3:dd:e7:3a:8f:98:18:14:4b:11:d9:c4:01:1f:b9:
                    7a:d0:d9:ad:69:11:05:f6:0e:ae:5f:fc:cd:c6:b3:
                    cb:4d:ae:8e:45:18:0a:a8:c0:40:11:28:dc:cd:9f:
                    7a:26:67:5a:47:80:9b:d9:4c:f7:da:5f:6d:13:83:
                    1a:91:92:d1:b9:44:f7:72:6b:97:47:74:71:70:80:
                    d3:d6:73:bf:76:33:5c:70:b8:6f:87:37:3e:7e:8e:
                    75:e5
                Exponent: 65537 (0x10001)
        X509v3 extensions:
            X509v3 Authority Key Identifier: 
                keyid:0C:5E:9C:FE:BA:4B:21:6C:04:1D:C2:5A:B7:E3:88:5F:59:DE:4C:12

            X509v3 Subject Key Identifier: 
                0E:6B:AA:83:A9:B2:4D:5C:85:CD:B1:D2:2F:87:F7:20:CB:36:43:3B
            X509v3 Key Usage: critical
                Digital Signature, Key Encipherment
            X509v3 Basic Constraints: critical
                CA:FALSE
            X509v3 Subject Alternative Name: 
                DNS:www.example.com
            Authority Information Access: 
                CA Issuers - URI:http://ca.example.com/ca.crt
                OCSP - URI:http://ocsp.example.com/ocsp

            X509v3 Certificate Policies: 
                Policy: 0.4.0.194112.1.4
                Policy: 0.4.0.19495.3.1

            X509v3 Extended Key Usage: 
                TLS Web Server Authentication, TLS Web Client Authentication
            qcStatements: 
                0m0......F..0......F..0......F...0...+.......0.......I..05......'.0+0.0.......'....PSP_IC.
Federal$%&..DE-BAFIN
    Signature Algorithm: sha256WithRSAEncryption
         56:bc:54:0f:91:a6:a2:76:ea:79:a2:ed:93:87:0c:9b:f5:37:
         ef:b0:dc:6c:e7:55:fe:75:18:c6:d1:f4:fb:07:f8:4d:fa:ae:
         29:de:a6:ae:55:14:60:be:a0:92:29:54:e1:5c:04:f0:9c:9f:
         2e:f0:fb:f9:59:ff:29:a0:34:c6:22:90:ba:81:7d:50:38:f9:
         05:84:29:25:cf:c5:62:b2:b0:47:8b:3d:8a:fa:26:37:54:34:
         4a:c8:cf:ed:3a:1c:13:a3:d1:43:c2:ae:5d:b7:4e:87:bf:be:
         d7:e9:74:5d:77:d2:14:e5:34:ee:25:bb:ed:f8:83:3a:8c:ae:
         0b:a0:c9:ac:2f:91:19:d7:38:da:48:ae:88:e3:6e:30:de:e1:
         46:c2:98:8f:fa:d8:7e:d8:af:08:de:fb:e7:84:cb:0c:0f:92:
         ac:7c:72:92:e1:2d:0d:49:93:bb:fa:90:ce:f8:bc:56:10:f7:
         7e:bc:58:af:5d:a7:54:5f:b1:58:e3:58:ed:a1:fc:b7:2d:48:
         6e:3c:9b:19:0a:b0:35:f6:d5:4f:90:f5:b8:9d:6b:99:38:e4:
         97:80:ed:0b:23:d6:65:ae:92:3f:db:85:ef:da:df:9d:db:ff:
         a7:42:2d:87:9e:46:51:ac:5f:2d:09:d3:70:00:87:32:f6:66:
         c8:94:78:35
-----BEGIN CERTIFICATE-----
MIIE2TCCA8GgAwIBAgINBlYsWEpvYe9HU+CWKTANBgkqhkiG9w0BAQsFADBBMRUw
EwYDVQQDDAxUZXN0IFN1YkNBIDIxDTALBgNVBAsMBFRlc3QxDDAKBgNVBAoMA01U
RzELMAkGA1UEBhMCREUwHhcNMTkxMTAxMDgwMzAxWhcNMjAxMTAxMDgwMzAxWjBw
MQ0wCwYDVQQLDARUZXN0MQwwCgYDVQQKDANNVEcxEjAQBgNVBAcMCURhcm1zdGFk
dDEPMA0GA1UECAwGSGVzc2VuMQswCQYDVQQGEwJERTEfMB0GA1UEYQwWUFNEREUt
QkFGSU4tMTIzNDU2Nzg5MDCCASIwDQYJKoZIhvcNAQEBBQADggEPADCCAQoCggEB
AMINgXG0lAW8z5mKqmII8i5jsh5G+SuFmMOD0M4mrXaPXOdbBSAlJjIZwiSKummj
68oQpPPPtcYe9nBYlluIUmqIQjOFuMYWSE8BRTk/4Wq5BrXvN9t5nlCQV0Nbi8M1
DbNB9BvCSn8YPDktT78rpXEHczMA5Y02nv6PcsVyVgjMhrbvuuL9m1zGLZTtLWQk
d+ZnTWLblC4pjt0desq8aPsVLIBW093nOo+YGBRLEdnEAR+5etDZrWkRBfYOrl/8
zcazy02ujkUYCqjAQBEo3M2feiZnWkeAm9lM99pfbRODGpGS0blE93Jrl0d0cXCA
09Zzv3YzXHC4b4c3Pn6OdeUCAwEAAaOCAZ8wggGbMB8GA1UdIwQYMBaAFAxenP66
SyFsBB3CWrfjiF9Z3kwSMB0GA1UdDgQWBBQOa6qDqbJNXIXNsdIvh/cgyzZDOzAO
BgNVHQ8BAf8EBAMCBaAwDAYDVR0TAQH/BAIwADAaBgNVHREEEzARgg93d3cuZXhh
bXBsZS5jb20wYgYIKwYBBQUHAQEEVjBUMCgGCCsGAQUFBzAChhxodHRwOi8vY2Eu
ZXhhbXBsZS5jb20vY2EuY3J0MCgGCCsGAQUFBzABhhxodHRwOi8vb2NzcC5leGFt
cGxlLmNvbS9vY3NwMB8GA1UdIAQYMBYwCQYHBACL7EABBDAJBgcEAIGYJwMBMB0G
A1UdJQQWMBQGCCsGAQUFBwMBBggrBgEFBQcDAjB7BggrBgEFBQcBAwRvMG0wCAYG
BACORgEBMBMGBgQAjkYBBjAJBgcEAI5GAQYDMBUGCCsGAQUFBwsCMAkGBwQAi+xJ
AQIwNQYGBACBmCcCMCswEzARBgcEAIGYJwEDDAZQU1BfSUMMCkZlZGVyYWwkJSYM
CERFLUJBRklOMA0GCSqGSIb3DQEBCwUAA4IBAQBWvFQPkaaidup5ou2Thwyb9Tfv
sNxs51X+dRjG0fT7B/hN+q4p3qauVRRgvqCSKVThXATwnJ8u8Pv5Wf8poDTGIpC6
gX1QOPkFhCklz8VisrBHiz2K+iY3VDRKyM/tOhwTo9FDwq5dt06Hv77X6XRdd9IU
5TTuJbvt+IM6jK4LoMmsL5EZ1zjaSK6I424w3uFGwpiP+th+2K8I3vvnhMsMD5Ks
fHKS4S0NSZO7+pDO+LxWEPd+vFivXadUX7FY41jtofy3LUhuPJsZCrA19tVPkPW4
nWuZOOSXgO0LI9ZlrpI/24Xv2t+d2/+nQi2HnkZRrF8tCdNwAIcy9mbIlHg1
-----END CERTIFICATE-----
