Certificate:
    Data:
        Version: 3 (0x2)
        Serial Number:
            02:12:ec:a1:2d:d7:ce:30:e1:a5:33:41:f4
        Signature Algorithm: sha256WithRSAEncryption
        Issuer: CN = Lint Sub-CA, OU = Test, O = MTG, C = DE
        Validity
            Not Before: Nov 21 03:21:31 2018 GMT
            Not After : Nov 21 03:21:31 2048 GMT
        Subject: CN = www.example.com, OU = Test, O = MTG, L = Darmstadt, ST = Hessen, C = DE
        Subject Public Key Info:
            Public Key Algorithm: rsaEncryption
                RSA Public-Key: (2048 bit)
                Modulus:
                    00:90:df:66:25:e1:eb:f6:f5:ba:86:96:9b:39:12:
                    38:74:95:e7:64:10:6e:2e:02:96:26:0e:da:aa:0f:
                    11:31:d9:dd:ed:c0:3d:ce:25:67:94:57:3e:62:9b:
                    c4:08:2f:e3:3c:2a:ee:64:f5:3b:24:cf:81:cc:e5:
                    f2:3f:91:00:1a:bb:17:e4:75:fa:84:3a:0f:54:28:
                    11:a3:5d:55:c7:78:85:36:be:33:ad:95:53:7d:82:
                    28:23:d4:9b:54:c4:c9:9c:48:2d:7d:3e:f9:87:38:
                    44:4c:29:14:fd:31:e5:a0:21:51:75:c3:44:e4:46:
                    df:16:34:43:26:ef:4e:e9:02:a3:16:e8:f2:99:8a:
                    c9:43:5d:ea:4f:b5:2e:5d:4b:6c:5a:20:64:b2:e7:
                    c8:02:c7:dd:8f:e3:9d:2d:6a:c0:8e:ef:5f:87:d1:
                    7d:86:98:a8:a3:78:83:ca:93:37:40:ce:57:6c:27:
                    54:b0:56:fa:64:24:a5:cc:e5:0c:ac:0f:e7:a8:bf:
                    04:14:1f:bb:94:a5:d8:32:f0:49:ec:bf:86:00:cb:
                    38:20:66:62:58:ee:71:41:1a:72:ad:6f:e7:2a:9f:
                    a2:bf:61:5a:ee:06:b4:be:74:3b:03:af:ed:f6:0b:
                    ca:0d:7a:ec:9f:7a:08:80:c4:d5:ce:91:2a:a5:6e:
                    cf:1f
                Exponent: 65537 (0x10001)
        X509v3 extensions:
            X509v3 Authority Key Identifier: 
                keyid:E2:0F:66:4C:20:2C:78:21:2A:8F:29:DB:F9:99:F6:00:86:C4:AF:E1

            X509v3 Subject Key Identifier: 
                78:36:48:EE:EA:D2:D8:66:DF:E3:B6:B3:81:0F:E7:17:FD:D9:90:71
            X509v3 Key Usage: critical
                Digital Signature, Key Encipherment
            X509v3 Basic Constraints: critical
                CA:FALSE
            X509v3 Subject Alternative Name: 
                DNS:www.example.com
            Authority Information Access: 
                CA Issuers - URI:http://ca.example.com/ca.crt
                OCSP - URI:http://ocsp.example.com/ocsp

            X509v3 Certificate Policies: 
                Policy: 1.2.3.4.5

            X509v3 Extended Key Usage: 
                TLS Web Server Authentication, TLS Web Client Authentication
            qcStatements: 
                0..0......F..0|.....F..0r0$..http://example.com/en/test.pdf..en0$..http://example.com/de/test.pdf..de0$..http://example.com/gr/test.pdf..gr0......F..0......F...
    Signature Algorithm: sha256WithRSAEncryption
         23:e2:f7:7f:e7:6c:e4:c7:fa:74:f8:58:86:58:6b:3b:33:4a:
         c1:70:3c:91:9d:c7:37:14:14:dc:aa:54:ce:6b:5a:94:30:ec:
         1d:93:29:d8:64:35:83:1a:66:3b:24:d0:de:03:62:47:a1:ce:
         17:4a:6d:b9:ec:4e:b2:e0:1c:a7:d5:5c:b2:b9:ed:c3:f0:62:
         26:07:bc:90:da:7a:17:75:71:f0:bb:35:d0:6d:07:d8:72:9b:
         29:fc:15:d7:e9:35:65:4b:0f:76:c4:65:8a:01:c4:80:d2:a9:
         54:4f:f0:4b:71:c5:c8:c8:d3:c6:78:f6:52:78:8b:0e:73:4a:
         d2:a9:d0:85:d5:75:48:b8:18:de:e2:3f:ab:3d:ba:40:26:96:
         b6:b6:9b:18:93:db:80:d8:39:59:fc:a1:e6:44:8b:f0:f0:57:
         25:a1:3c:4b:3f:09:02:a8:f7:b9:25:83:7e:3c:13:9e:75:56:
         fa:87:ba:47:3e:9c:e3:21:7d:a1:b6:04:c7:66:99:53:03:05:
         0a:bf:dd:e8:9f:2a:72:f2:60:4d:dd:b2:68:ee:3e:d4:34:a0:
         04:7b:d6:71:10:32:68:93:82:e6:0a:11:86:92:20:52:4a:71:
         d4:87:b2:5b:c6:2d:bd:3b:33:59:39:2b:e5:dd:10:13:74:8a:
         c1:43:22:ca
-----BEGIN CERTIFICATE-----
MIIE9jCCA96gAwIBAgINAhLsoS3XzjDhpTNB9DANBgkqhkiG9w0BAQsFADBAMRQw
EgYDVQQDDAtMaW50IFN1Yi1DQTENMAsGA1UECwwEVGVzdDEMMAoGA1UECgwDTVRH
MQswCQYDVQQGEwJERTAeFw0xODExMjEwMzIxMzFaFw00ODExMjEwMzIxMzFaMGkx
GDAWBgNVBAMMD3d3dy5leGFtcGxlLmNvbTENMAsGA1UECwwEVGVzdDEMMAoGA1UE
CgwDTVRHMRIwEAYDVQQHDAlEYXJtc3RhZHQxDzANBgNVBAgMBkhlc3NlbjELMAkG
A1UEBhMCREUwggEiMA0GCSqGSIb3DQEBAQUAA4IBDwAwggEKAoIBAQCQ32Yl4ev2
9bqGlps5Ejh0ledkEG4uApYmDtqqDxEx2d3twD3OJWeUVz5im8QIL+M8Ku5k9Tsk
z4HM5fI/kQAauxfkdfqEOg9UKBGjXVXHeIU2vjOtlVN9gigj1JtUxMmcSC19PvmH
OERMKRT9MeWgIVF1w0TkRt8WNEMm707pAqMW6PKZislDXepPtS5dS2xaIGSy58gC
x92P450tasCO71+H0X2GmKijeIPKkzdAzldsJ1SwVvpkJKXM5QysD+eovwQUH7uU
pdgy8Ensv4YAyzggZmJY7nFBGnKtb+cqn6K/YVruBrS+dDsDr+32C8oNeuyfegiA
xNXOkSqlbs8fAgMBAAGjggHEMIIBwDAfBgNVHSMEGDAWgBTiD2ZMICx4ISqPKdv5
mfYAhsSv4TAdBgNVHQ4EFgQUeDZI7urS2Gbf47azgQ/nF/3ZkHEwDgYDVR0PAQH/
BAQDAgWgMAwGA1UdEwEB/wQCMAAwGgYDVR0RBBMwEYIPd3d3LmV4YW1wbGUuY29t
MGIGCCsGAQUFBwEBBFYwVDAoBggrBgEFBQcwAoYcaHR0cDovL2NhLmV4YW1wbGUu
Y29tL2NhLmNydDAoBggrBgEFBQcwAYYcaHR0cDovL29jc3AuZXhhbXBsZS5jb20v
b2NzcDARBgNVHSAECjAIMAYGBCoDBAUwHQYDVR0lBBYwFAYIKwYBBQUHAwEGCCsG
AQUFBwMCMIGtBggrBgEFBQcBAwSBoDCBnTAIBgYEAI5GAQEwfAYGBACORgEFMHIw
JBYeaHR0cDovL2V4YW1wbGUuY29tL2VuL3Rlc3QucGRmEwJlbjAkFh5odHRwOi8v
ZXhhbXBsZS5jb20vZGUvdGVzdC5wZGYTAmRlMCQWHmh0dHA6Ly9leGFtcGxlLmNv
bS9nci90ZXN0LnBkZhMCZ3IwEwYGBACORgEGMAkGBwQAjkYBBgMwDQYJKoZIhvcN
AQELBQADggEBACPi93/nbOTH+nT4WIZYazszSsFwPJGdxzcUFNyqVM5rWpQw7B2T
KdhkNYMaZjsk0N4DYkehzhdKbbnsTrLgHKfVXLK57cPwYiYHvJDaehd1cfC7NdBt
B9hymyn8FdfpNWVLD3bEZYoBxIDSqVRP8EtxxcjI08Z49lJ4iw5zStKp0IXVdUi4
GN7iP6s9ukAmlra2mxiT24DYOVn8oeZEi/DwVyWhPEs/CQKo97klg348E551VvqH
ukc+nOMhfaG2BMdmmVMDBQq/3eifKnLyYE3dsmjuPtQ0oAR71nEQMmiTguYKEYaS
IFJKcdSHslvGLb07M1k5K+XdEBN0isFDIso=
-----END CERTIFICATE-----
