Certificate:
    Data:
        Version: 3 (0x2)
        Serial Number:
            0f:9d:ff:53:4f:05:7f:85:32:7c:f6:bb:f5
        Signature Algorithm: sha256WithRSAEncryption
        Issuer: CN = Test SubCA 2, OU = Test, O = MTG, C = DE
        Validity
            Not Before: Nov  1 08:03:01 2019 GMT
            Not After : Nov  1 08:03:01 2020 GMT
        Subject: OU = Test, O = MTG, L = Darmstadt, ST = Hessen, C = DE, organizationIdentifier = PSDDE-BAFIN-1234567890
        Subject Public Key Info:
            Public Key Algorithm: rsaEncryption
                RSA Public-Key: (2048 bit)
                Modulus:
                    00:c2:0d:81:71:b4:94:05:bc:cf:99:8a:aa:62:08:
                    f2:2e:63:b2:1e:46:f9:2b:85:98:c3:83:d0:ce:26:
                    ad:76:8f:5c:e7:5b:05:20:25:26:32:19:c2:24:8a:
                    ba:69:a3:eb:ca:10:a4:f3:cf:b5:c6:1e:f6:70:58:
                    96:5b:88:52:6a:88:42:33:85:b8:c6:16:48:4f:01:
                    45:39:3f:e1:6a:b9:06:b5:ef:37:db:79:9e:50:90:
                    57:43:5b:8b:c3:35:0d:b3:41:f4:1b:c2:4a:7f:18:
                    3c:39:2d:4f:bf:2b:a5:71:07:73:33:00:e5:8d:36:
                    9e:fe:8f:72:c5:72:56:08:cc:86:b6:ef:ba:e2:fd:
                    9b:5c:c6:2d:94:ed:2d:64:24:77:e6:67:4d:62:db:
                    94:2e:29:8e:dd:1d:7a:ca:bc:68:fb:15:2c:80:56:
                    d3:dd:e7:3a:8f:98:18:14:4b:11:d9:c4:01:1f:b9:
                    7a:d0:d9:ad:69:11:05:f6:0e:ae:5f:fc:cd:c6:b3:
                    cb:4d:ae:8e:45:18:0a:a8:c0:40:11:28:dc:cd:9f:
                    7a:26:67:5a:47:80:9b:d9:4c:f7:da:5f:6d:13:83:
                    1a:91:92:d1:b9:44:f7:72:6b:97:47:74:71:70:80:
                    d3:d6:73:bf:76:33:5c:70:b8:6f:87:37:3e:7e:8e:
                    75:e5
                Exponent: 65537 (0x10001)
        X509v3 extensions:
            X509v3 Authority Key Identifier: 
                keyid:0C:5E:9C:FE:BA:4B:21:6C:04:1D:C2:5A:B7:E3:88:5F:59:DE:4C:12

            X509v3 Subject Key Identifier: 
                0E:6B:AA:83:A9:B2:4D:5C:85:CD:B1:D2:2F:87:F7:20:CB:36:43:3B
            X509v3 Key Usage: critical
                Digital Signature, Key Encipherment
            X509v3 Basic Constraints: critical
                CA:FALSE
            X509v3 Subject Alternative Name: 
                DNS:www.example.com
            Authority Information Access: 
                CA Issuers - URI:http://ca.example.com/ca.crt
                OCSP - URI:http://ocsp.example.com/ocsp

            X509v3 Certificate Policies: 
                Policy: 0.4.0.194112.1.4
                Policy: 0.4.0.19495.3.1

            X509v3 Extended Key Usage: 
                TLS Web Server Authentication, TLS Web Client Authentication
            qcStatements: 
                0h0......F..0......F..0......F...0...+.......0.......I..00......'.0&0.0.......'....PSP_IC..12345..DE-BAFIN
    Signature Algorithm: sha256WithRSAEncryption
         1e:58:7a:f2:67:24:4b:2b:25:b2:6d:90:fa:29:fc:4d:6d:f2:
         16:18:d9:db:fe:a7:d4:3f:ef:3f:38:da:d0:b5:1b:96:49:4d:
         c0:a3:74:67:16:b7:4e:c5:a4:28:26:61:e4:4f:c2:c1:a2:e9:
         b3:fa:31:35:45:c3:7f:6e:f7:23:d1:05:4e:76:8d:63:4c:0e:
         d9:b7:13:6f:04:31:91:e3:4a:67:b3:87:71:09:65:f2:cc:1d:
         0f:7b:e1:97:c9:28:00:a0:2f:1c:fb:86:24:2e:f5:a2:b5:a8:
         73:80:9b:cf:ab:ad:9b:67:be:21:4e:17:53:5b:76:3e:03:0f:
         1f:b1:a1:37:f4:cb:fc:2a:b3:d3:16:c8:71:1a:a4:99:f2:c8:
         e9:d7:26:72:44:17:f8:73:41:7a:78:79:e3:a8:93:fe:40:d8:
         de:4e:a0:ea:d1:07:20:f1:e3:e7:40:35:be:09:2c:8e:2e:4b:
         ac:b7:c5:86:2c:0c:c7:45:f9:b7:fd:5b:3d:84:1a:64:c2:b0:
         83:cc:3f:9a:be:3c:aa:5d:20:2d:3e:3c:52:72:cf:b7:68:e0:
         84:c9:25:c1:b5:ac:32:7f:2d:4c:05:aa:43:70:b3:18:ab:60:
         98:93:bd:45:65:85:c9:4f:e3:72:df:87:af:b9:05:af:33:c6:
         fa:3e:1b:3e
-----BEGIN CERTIFICATE-----
MIIE1DCCA7ygAwIBAgIND53/U08Ff4UyfPa79TANBgkqhkiG9w0BAQsFADBBMRUw
EwYDVQQDDAxUZXN0IFN1YkNBIDIxDTALBgNVBAsMBFRlc3QxDDAKBgNVBAoMA01U
RzELMAkGA1UEBhMCREUwHhcNMTkxMTAxMDgwMzAxWhcNMjAxMTAxMDgwMzAxWjBw
MQ0wCwYDVQQLDARUZXN0MQwwCgYDVQQKDANNVEcxEjAQBgNVBAcMCURhcm1zdGFk
dDEPMA0GA1UECAwGSGVzc2VuMQswCQYDVQQGEwJERTEfMB0GA1UEYQwWUFNEREUt
QkFGSU4tMTIzNDU2Nzg5MDCCASIwDQYJKoZIhvcNAQEBBQADggEPADCCAQoCggEB
AMINgXG0lAW8z5mKqmII8i5jsh5G+SuFmMOD0M4mrXaPXOdbBSAlJjIZwiSKummj
68oQpPPPtcYe9nBYlluIUmqIQjOFuMYWSE8BRTk/4Wq5BrXvN9t5nlCQV0Nbi8M1
DbNB9BvCSn8YPDktT78rpXEHczMA5Y02nv6PcsVyVgjMhrbvuuL9m1zGLZTtLWQk
d+ZnTWLblC4pjt0desq8aPsVLIBW093nOo+YGBRLEdnEAR+5etDZrWkRBfYOrl/8
zcazy02ujkUYCqjAQBEo3M2feiZnWkeAm9lM99pfbRODGpGS0blE93Jrl0d0cXCA
09Zzv3YzXHC4b4c3Pn6OdeUCAwEAAaOCAZowggGWMB8GA1UdIwQYMBaAFAxenP66
SyFsBB3CWrfjiF9Z3kwSMB0GA1UdDgQWBBQOa6qDqbJNXIXNsdIvh/cgyzZDOzAO
BgNVHQ8BAf8EBAMCBaAwDAYDVR0TAQH/BAIwADAaBgNVHREEEzARgg93d3cuZXhh
bXBsZS5jb20wYgYIKwYBBQUHAQEEVjBUMCgGCCsGAQUFBzAChhxodHRwOi8vY2Eu
ZXhhbXBsZS5jb20vY2EuY3J0MCgGCCsGAQUFBzABhhxodHRwOi8vb2NzcC5leGFt
cGxlLmNvbS9vY3NwMB8GA1UdIAQYMBYwCQYHBACL7EABBDAJBgcEAIGYJwMBMB0G
A1UdJQQWMBQGCCsGAQUFBwMBBggrBgEFBQcDAjB2BggrBgEFBQcBAwRqMGgwCAYG
BACORgEBMBMGBgQAjkYBBjAJBgcEAI5GAQYDMBUGCCsGAQUFBwsCMAkGBwQAi+xJ
AQIwMAYGBACBmCcCMCYwEzARBgcEAIGYJwEEDAZQU1BfSUMMBTEyMzQ1DAhERS1C
QUZJTjANBgkqhkiG9w0BAQsFAAOCAQEAHlh68mckSyslsm2Q+in8TW3yFhjZ2/6n
1D/vPzja0LUblklNwKN0Zxa3TsWkKCZh5E/CwaLps/oxNUXDf273I9EFTnaNY0wO
2bcTbwQxkeNKZ7OHcQll8swdD3vhl8koAKAvHPuGJC71orWoc4Cbz6utm2e+IU4X
U1t2PgMPH7GhN/TL/Cqz0xbIcRqkmfLI6dcmckQX+HNBenh546iT/kDY3k6g6tEH
IPHj50A1vgksji5LrLfFhiwMx0X5t/1bPYQaZMKwg8w/mr48ql0gLT48UnLPt2jg
hMklwbWsMn8tTAWqQ3CzGKtgmJO9RWWFyU/jct+Hr7kFrzPG+j4bPg==
-----END CERTIFICATE-----
