Certificate:
    Data:
        Version: 3 (0x2)
        Serial Number:
            0a:a5:4c:bc:8d:c8:b4:cd:e0:dd:75:76:70
        Signature Algorithm: sha256WithRSAEncryption
        Issuer: CN = Test SubCA 2, OU = Test, O = MTG, C = DE
        Validity
            Not Before: Nov  1 08:03:01 2019 GMT
            Not After : Nov  1 08:03:01 2020 GMT
        Subject: OU = Test, O = MTG, L = Darmstadt, ST = Hessen, C = DE, organizationIdentifier = PSDDE-BAFIN-1234567890
        Subject Public Key Info:
            Public Key Algorithm: rsaEncryption
                RSA Public-Key: (2048 bit)
                Modulus:
                    00:c2:0d:81:71:b4:94:05:bc:cf:99:8a:aa:62:08:
                    f2:2e:63:b2:1e:46:f9:2b:85:98:c3:83:d0:ce:26:
                    ad:76:8f:5c:e7:5b:05:20:25:26:32:19:c2:24:8a:
                    ba:69:a3:eb:ca:10:a4:f3:cf:b5:c6:1e:f6:70:58:
                    96:5b:88:52:6a:88:42:33:85:b8:c6:16:48:4f:01:
                    45:39:3f:e1:6a:b9:06:b5:ef:37:db:79:9e:50:90:
                    57:43:5b:8b:c3:35:0d:b3:41:f4:1b:c2:4a:7f:18:
                    3c:39:2d:4f:bf:2b:a5:71:07:73:33:00:e5:8d:36:
                    9e:fe:8f:72:c5:72:56:08:cc:86:b6:ef:ba:e2:fd:
                    9b:5c:c6:2d:94:ed:2d:64:24:77:e6:67:4d:62:db:
                    94:2e:29:8e:dd:1d:7a:ca:bc:68:fb:15:2c:80:56:
                    d3:dd:e7:3a:8f:98:18:14:4b:11:d9:c4:01:1f:b9:
                    7a:d0:d9:ad:69:11:05:f6:0e:ae:5f:fc:cd:c6:b3:
                    cb:4d:ae:8e:45:18:0a:a8:c0:40:11:28:dc:cd:9f:
                    7a:26:67:5a:47:80:9b:d9:4c:f7:da:5f:6d:13:83:
                    1a:91:92:d1:b9:44:f7:72:6b:97:47:74:71:70:80:
                    d3:d6:73:bf:76:33:5c:70:b8:6f:87:37:3e:7e:8e:
                    75:e5
                Exponent: 65537 (0x10001)
        X509v3 extensions:
            X509v3 Authority Key Identifier: 
                keyid:0C:5E:9C:FE:BA:4B:21:6C:04:1D:C2:5A:B7:E3:88:5F:59:DE:4C:12

            X509v3 Subject Key Identifier: 
                0E:6B:AA:83:A9:B2:4D:5C:85:CD:B1:D2:2F:87:F7:20:CB:36:43:3B
            X509v3 Key Usage: critical
                Digital Signature, Key Encipherment
            X509v3 Basic Constraints: critical
                CA:FALSE
            X509v3 Subject Alternative Name: 
                DNS:www.example.com
            Authority Information Access: 
                CA Issuers - URI:http://ca.example.com/ca.crt
                OCSP - URI:http://ocsp.example.com/ocsp

            X509v3 Certificate Policies: 
                Policy: 0.4.0.194112.1.4
                Policy: 0.4.0.19495.3.1

            X509v3 Extended Key Usage: 
                TLS Web Server Authentication, TLS Web Client Authentication
            qcStatements: 
                0..0......F..0......F..0......F...0...+.......0.......I..0R......'.0H0.0.......'....PSP_AS.'Federal Financial Supervisory Authority..DE-BAFIN
    Signature Algorithm: sha256WithRSAEncryption
         19:9b:16:eb:73:05:9b:2c:66:73:33:50:33:18:7f:46:d8:81:
         2b:5e:cb:a0:8c:75:d5:78:ac:a8:61:50:30:6a:c4:6f:6c:c6:
         0f:b1:2d:b5:cd:98:41:dd:27:a9:52:71:12:b7:87:69:90:db:
         6d:af:3e:c7:9b:2e:0b:a2:b5:c8:ac:6a:a0:0c:20:32:27:61:
         f4:52:eb:9e:f2:11:79:92:79:d8:f2:58:85:52:ae:d0:9a:00:
         00:98:a0:2c:0e:3c:4c:a6:9e:3a:da:ed:6b:11:bb:65:99:67:
         ee:73:93:b7:e5:a0:3c:7a:a3:94:17:2d:de:f7:0c:e2:6b:aa:
         bf:eb:ea:92:fd:34:f7:f9:7b:b8:3e:be:55:6a:00:64:21:0b:
         a6:74:b3:ba:e2:e5:72:27:3c:17:99:10:ca:31:d8:0b:b6:64:
         5f:d4:58:d4:5f:d3:43:27:46:f9:d8:02:5d:93:90:34:b0:1d:
         c6:d4:e8:bf:01:b7:32:f1:26:56:66:2b:0d:f7:05:f4:e6:8b:
         ef:90:3a:64:8f:66:3a:44:2e:99:e9:51:a9:ab:0e:62:ae:16:
         5c:6e:e7:f4:01:57:3e:91:4b:fb:17:e6:d6:64:41:33:e0:e9:
         4b:45:96:44:ad:83:d2:cb:24:49:04:bd:d4:f4:c4:c9:11:bd:
         cc:f3:4c:f3
-----BEGIN CERTIFICATE-----
MIIE+TCCA+GgAwIBAgINCqVMvI3ItM3g3XV2cDANBgkqhkiG9w0BAQsFADBBMRUw
EwYDVQQDDAxUZXN0IFN1YkNBIDIxDTALBgNVBAsMBFRlc3QxDDAKBgNVBAoMA01U
RzELMAkGA1UEBhMCREUwHhcNMTkxMTAxMDgwMzAxWhcNMjAxMTAxMDgwMzAxWjBw
MQ0wCwYDVQQLDARUZXN0MQwwCgYDVQQKDANNVEcxEjAQBgNVBAcMCURhcm1zdGFk
dDEPMA0GA1UECAwGSGVzc2VuMQswCQYDVQQGEwJERTEfMB0GA1UEYQwWUFNEREUt
QkFGSU4tMTIzNDU2Nzg5MDCCASIwDQYJKoZIhvcNAQEBBQADggEPADCCAQoCggEB
AMINgXG0lAW8z5mKqmII8i5jsh5G+SuFmMOD0M4mrXaPXOdbBSAlJjIZwiSKummj
68oQpPPPtcYe9nBYlluIUmqIQjOFuMYWSE8BRTk/4Wq5BrXvN9t5nlCQV0Nbi8M1
DbNB9BvCSn8YPDktT78rpXEHczMA5Y02nv6PcsVyVgjMhrbvuuL9m1zGLZTtLWQk
d+ZnTWLblC4pjt0desq8aPsVLIBW093nOo+YGBRLEdnEAR+5etDZrWkRBfYOrl/8
zcazy02ujkUYCqjAQBEo3M2feiZnWkeAm9lM99pfbRODGpGS0blE93Jrl0d0cXCA
09Zzv3YzXHC4b4c3Pn6OdeUCAwEAAaOCAb8wggG7MB8GA1UdIwQYMBaAFAxenP66
SyFsBB3CWrfjiF9Z3kwSMB0GA1UdDgQWBBQOa6qDqbJNXIXNsdIvh/cgyzZDOzAO
BgNVHQ8BAf8EBAMCBaAwDAYDVR0TAQH/BAIwADAaBgNVHREEEzARgg93d3cuZXhh
bXBsZS5jb20wYgYIKwYBBQUHAQEEVjBUMCgGCCsGAQUFBzAChhxodHRwOi8vY2Eu
ZXhhbXBsZS5jb20vY2EuY3J0MCgGCCsGAQUFBzABhhxodHRwOi8vb2NzcC5leGFt
cGxlLmNvbS9vY3NwMB8GA1UdIAQYMBYwCQYHBACL7EABBDAJBgcEAIGYJwMBMB0G
A1UdJQQWMBQGCCsGAQUFBwMBBggrBgEFBQcDAjCBmgYIKwYBBQUHAQMEgY0wgYow
CAYGBACORgEBMBMGBgQAjkYBBjAJBgcEAI5GAQYDMBUGCCsGAQUFBwsCMAkGBwQA
i+xJAQIwUgYGBACBmCcCMEgwEzARBgcEAIGYJwEBDAZQU1BfQVMMJ0ZlZGVyYWwg
RmluYW5jaWFsIFN1cGVydmlzb3J5IEF1dGhvcml0eQwIREUtQkFGSU4wDQYJKoZI
hvcNAQELBQADggEBABmbFutzBZssZnMzUDMYf0bYgStey6CMddV4rKhhUDBqxG9s
xg+xLbXNmEHdJ6lScRK3h2mQ222vPsebLguitcisaqAMIDInYfRS657yEXmSedjy
WIVSrtCaAACYoCwOPEymnjra7WsRu2WZZ+5zk7floDx6o5QXLd73DOJrqr/r6pL9
NPf5e7g+vlVqAGQhC6Z0s7ri5XInPBeZEMox2Au2ZF/UWNRf00MnRvnYAl2TkDSw
HcbU6L8BtzLxJlZmKw33BfTmi++QOmSPZjpELpnpUamrDmKuFlxu5/QBVz6RS/sX
5tZkQTPg6UtFlkStg9LLJEkEvdT0xMkRvczzTPM=
-----END CERTIFICATE-----
