Certificate:
    Data:
        Version: 3 (0x2)
        Serial Number:
            02:14:cd:c4:50:13:16:32:2a:bb:cc:e2:ce
        Signature Algorithm: sha256WithRSAEncryption
        Issuer: CN = Lint Sub-CA, OU = Test, O = MTG, C = DE
        Validity
            Not Before: Nov 21 03:21:29 2018 GMT
            Not After : Nov 21 03:21:29 2048 GMT
        Subject: CN = www.example.com, OU = Test, O = MTG, L = Darmstadt, ST = Hessen, C = DE
        Subject Public Key Info:
            Public Key Algorithm: rsaEncryption
                RSA Public-Key: (2048 bit)
                Modulus:
                    00:92:9e:74:92:e6:42:3b:3b:75:29:a1:44:6c:39:
                    76:1f:97:cf:f4:e6:c1:bc:ee:59:15:bd:c3:59:87:
                    1b:fa:ae:32:59:a8:96:a7:84:0e:61:34:19:35:a1:
                    20:16:f7:08:7e:a1:8e:45:04:ee:3c:ea:1f:34:25:
                    02:d8:c3:46:0c:b7:46:8d:f1:a6:4f:ae:71:6b:2e:
                    b7:da:d0:73:74:53:f3:db:dd:42:32:57:8f:58:d3:
                    1a:d2:8f:5e:1b:91:90:67:b7:90:27:94:af:3e:8b:
                    fd:0f:eb:b9:a5:11:d3:f2:cf:57:1e:3e:85:55:d9:
                    11:95:ed:d5:81:39:05:6f:fd:cc:81:2a:30:0f:8d:
                    69:ba:7a:6c:37:94:44:fa:e0:d4:3d:55:dc:23:49:
                    e0:f2:61:70:d2:70:c3:d6:24:22:9e:fc:70:5e:31:
                    75:ea:cc:e1:1b:ed:59:c3:2c:eb:99:90:14:8d:7a:
                    3d:46:c1:82:68:4b:3a:9d:40:2c:db:c9:6d:fa:9f:
                    dd:13:97:f1:1f:6f:58:55:f9:9c:81:52:e1:64:24:
                    0a:79:24:90:cb:8b:e4:72:17:9f:0c:84:63:e9:3d:
                    2a:d6:a3:9d:13:6e:09:b6:7a:7f:f4:6d:61:24:c8:
                    69:54:67:30:87:b0:d1:9d:9e:f2:93:33:11:d9:5e:
                    12:79
                Exponent: 65537 (0x10001)
        X509v3 extensions:
            X509v3 Authority Key Identifier: 
                keyid:E2:0F:66:4C:20:2C:78:21:2A:8F:29:DB:F9:99:F6:00:86:C4:AF:E1

            X509v3 Subject Key Identifier: 
                D9:44:CD:C3:89:1D:7C:27:73:04:60:88:31:92:C5:27:A4:61:31:F4
            X509v3 Key Usage: critical
                Digital Signature, Key Encipherment
            X509v3 Basic Constraints: critical
                CA:FALSE
            X509v3 Subject Alternative Name: 
                DNS:www.example.com
            Authority Information Access: 
                CA Issuers - URI:http://ca.example.com/ca.crt
                OCSP - URI:http://ocsp.example.com/ocsp

            X509v3 Certificate Policies: 
                Policy: 1.2.3.4.5

            X509v3 Extended Key Usage: 
                TLS Web Server Authentication, TLS Web Client Authentication
            qcStatements: 
                0x0......F..0W.....F..0M0$..http://example.com/en/test.pdf..en0%..http://example.com/de/test.pdf..ded0......F..0......F...
    Signature Algorithm: sha256WithRSAEncryption
         48:dd:a5:c7:5b:2a:eb:1b:e0:91:64:9b:75:18:ec:f9:45:23:
         6b:83:04:54:df:a1:66:b7:26:db:e7:68:8c:fb:a6:01:97:16:
         64:0c:37:9e:79:d1:5e:45:8b:6c:a4:4e:27:4a:e5:dc:e3:cc:
         8f:5f:d5:da:0a:0a:4f:f3:8f:67:7c:f4:79:b7:3e:b5:3f:71:
         ea:b7:b7:cc:44:cc:34:22:44:fe:c1:bc:ef:ea:a6:4c:47:31:
         1c:0f:30:96:fa:b8:15:65:c9:7e:4e:2d:0e:4c:8e:0e:d5:0e:
         55:94:ef:41:9d:e8:d6:c5:11:c8:5c:0f:6e:98:e0:4f:4a:05:
         03:3f:cb:ec:49:10:fc:16:ef:ef:d4:48:de:34:72:e7:ef:c3:
         11:be:58:70:25:fa:02:e9:97:76:e1:09:10:93:a9:45:3c:6a:
         ec:4c:77:b1:28:a0:2f:aa:04:3a:bf:07:3b:dd:66:e7:0d:66:
         86:19:f1:24:79:69:f3:d9:42:56:17:16:5a:31:c4:fe:58:14:
         f2:47:03:53:45:d5:90:9f:a6:56:61:08:34:d7:14:37:e3:54:
         ff:43:f1:d6:2f:0d:a0:a4:f9:0f:5b:d1:f0:ef:87:e5:0d:66:
         02:c1:6f:a1:8f:6f:fb:6f:74:78:78:d5:da:40:25:3a:65:4f:
         de:01:98:4e
-----BEGIN CERTIFICATE-----
MIIEzzCCA7egAwIBAgINAhTNxFATFjIqu8zizjANBgkqhkiG9w0BAQsFADBAMRQw
EgYDVQQDDAtMaW50IFN1Yi1DQTENMAsGA1UECwwEVGVzdDEMMAoGA1UECgwDTVRH
MQswCQYDVQQGEwJERTAeFw0xODExMjEwMzIxMjlaFw00ODExMjEwMzIxMjlaMGkx
GDAWBgNVBAMMD3d3dy5leGFtcGxlLmNvbTENMAsGA1UECwwEVGVzdDEMMAoGA1UE
CgwDTVRHMRIwEAYDVQQHDAlEYXJtc3RhZHQxDzANBgNVBAgMBkhlc3NlbjELMAkG
A1UEBhMCREUwggEiMA0GCSqGSIb3DQEBAQUAA4IBDwAwggEKAoIBAQCSnnSS5kI7
O3UpoURsOXYfl8/05sG87lkVvcNZhxv6rjJZqJanhA5hNBk1oSAW9wh+oY5FBO48
6h80JQLYw0YMt0aN8aZPrnFrLrfa0HN0U/Pb3UIyV49Y0xrSj14bkZBnt5AnlK8+
i/0P67mlEdPyz1cePoVV2RGV7dWBOQVv/cyBKjAPjWm6emw3lET64NQ9VdwjSeDy
YXDScMPWJCKe/HBeMXXqzOEb7VnDLOuZkBSNej1GwYJoSzqdQCzbyW36n90Tl/Ef
b1hV+ZyBUuFkJAp5JJDLi+RyF58MhGPpPSrWo50Tbgm2en/0bWEkyGlUZzCHsNGd
nvKTMxHZXhJ5AgMBAAGjggGdMIIBmTAfBgNVHSMEGDAWgBTiD2ZMICx4ISqPKdv5
mfYAhsSv4TAdBgNVHQ4EFgQU2UTNw4kdfCdzBGCIMZLFJ6RhMfQwDgYDVR0PAQH/
BAQDAgWgMAwGA1UdEwEB/wQCMAAwGgYDVR0RBBMwEYIPd3d3LmV4YW1wbGUuY29t
MGIGCCsGAQUFBwEBBFYwVDAoBggrBgEFBQcwAoYcaHR0cDovL2NhLmV4YW1wbGUu
Y29tL2NhLmNydDAoBggrBgEFBQcwAYYcaHR0cDovL29jc3AuZXhhbXBsZS5jb20v
b2NzcDARBgNVHSAECjAIMAYGBCoDBAUwHQYDVR0lBBYwFAYIKwYBBQUHAwEGCCsG
AQUFBwMCMIGGBggrBgEFBQcBAwR6MHgwCAYGBACORgEBMFcGBgQAjkYBBTBNMCQW
Hmh0dHA6Ly9leGFtcGxlLmNvbS9lbi90ZXN0LnBkZhMCZW4wJRYeaHR0cDovL2V4
YW1wbGUuY29tL2RlL3Rlc3QucGRmEwNkZWQwEwYGBACORgEGMAkGBwQAjkYBBgMw
DQYJKoZIhvcNAQELBQADggEBAEjdpcdbKusb4JFkm3UY7PlFI2uDBFTfoWa3Jtvn
aIz7pgGXFmQMN5550V5Fi2ykTidK5dzjzI9f1doKCk/zj2d89Hm3PrU/ceq3t8xE
zDQiRP7BvO/qpkxHMRwPMJb6uBVlyX5OLQ5Mjg7VDlWU70Gd6NbFEchcD26Y4E9K
BQM/y+xJEPwW7+/USN40cufvwxG+WHAl+gLpl3bhCRCTqUU8auxMd7EooC+qBDq/
BzvdZucNZoYZ8SR5afPZQlYXFloxxP5YFPJHA1NF1ZCfplZhCDTXFDfjVP9D8dYv
DaCk+Q9b0fDvh+UNZgLBb6GPb/tvdHh41dpAJTplT94BmE4=
-----END CERTIFICATE-----
