Certificate:
    Data:
        Version: 3 (0x2)
        Serial Number:
            0b:bd:16:31:94:47:b4:20:52:6d:2e:04:06
        Signature Algorithm: sha256WithRSAEncryption
        Issuer: CN = Lint Sub-CA, OU = Test, O = MTG, C = DE
        Validity
            Not Before: May 16 03:20:30 2019 GMT
            Not After : May 16 03:20:30 2049 GMT
        Subject: CN = www.example.com, OU = Test, O = MTG, L = Darmstadt, ST = Hessen, C = DE
        Subject Public Key Info:
            Public Key Algorithm: rsaEncryption
                RSA Public-Key: (2048 bit)
                Modulus:
                    00:9b:f1:47:63:f7:d9:70:cb:1e:49:15:ce:23:8c:
                    97:57:a6:d2:36:3a:f5:cb:86:ae:c3:29:1e:11:15:
                    5f:a5:bf:75:5b:d5:fc:2b:56:7d:c0:58:42:ab:e4:
                    20:f3:7a:31:d2:20:b2:18:a9:84:67:bf:81:a5:ce:
                    84:75:f2:19:d5:60:d9:8c:94:8d:23:ff:db:e3:88:
                    2e:52:39:20:79:6d:14:fa:c3:64:40:89:56:fd:6e:
                    cb:20:21:0b:06:bb:4b:53:d0:01:7a:1b:a4:9a:bf:
                    ae:d9:26:ad:d0:29:0e:7e:70:9d:f2:69:09:54:af:
                    38:4f:85:65:65:62:c8:e4:e6:52:0d:23:72:25:97:
                    a8:b8:44:17:1b:35:e0:1b:e2:66:98:1f:7a:c1:86:
                    be:b3:77:0c:2d:f7:89:17:94:b1:06:13:42:4e:3b:
                    99:68:df:a0:c7:06:2f:44:ae:df:bb:e4:01:2a:6f:
                    05:64:f4:5c:c8:15:74:52:e8:b6:83:fc:ed:5c:de:
                    a8:5b:76:38:92:5d:02:08:c2:cf:14:35:db:31:b1:
                    18:98:bd:62:ab:3f:84:08:b5:c5:da:8d:f1:47:c4:
                    f3:51:01:d7:fe:db:f4:af:0a:bb:29:a2:5f:60:0f:
                    40:62:d1:a6:2b:91:5e:9e:0b:61:be:7c:b0:ef:8d:
                    6e:53
                Exponent: 65537 (0x10001)
        X509v3 extensions:
            X509v3 Authority Key Identifier: 
                keyid:54:8F:12:03:16:C7:B3:FD:35:6D:2F:F7:2C:BD:24:73:57:85:81:8C

            X509v3 Subject Key Identifier: 
                0C:52:49:BB:A4:CA:5C:2A:DF:E0:24:3F:CE:E6:B9:86:3D:EF:F8:04
            X509v3 Key Usage: critical
                Digital Signature, Key Encipherment
            X509v3 Basic Constraints: critical
                CA:FALSE
            X509v3 Subject Alternative Name: 
                DNS:www.example.com
            Authority Information Access: 
                CA Issuers - URI:http://ca.example.com/ca.crt
                OCSP - URI:http://ocsp.example.com/ocsp

            X509v3 Certificate Policies: 
                Policy: 1.2.3.4.5

            X509v3 Extended Key Usage: 
                TLS Web Server Authentication, TLS Web Client Authentication
            qcStatements: 
                0..0......F..0V.....F..0L0$..http://example.com/en/test.pdf..en0$..http://example.com/de/test.pdf..de0......F..0......F...0......F....*
    Signature Algorithm: sha256WithRSAEncryption
         0a:4b:e4:54:bc:cf:da:c7:c0:05:1d:e6:72:d4:bd:c8:af:63:
         53:f2:95:bb:8d:d2:5e:3e:9c:e4:bf:57:96:65:02:d6:2d:f4:
         48:09:9f:0c:84:da:5d:87:0b:2f:92:8d:3d:1f:5e:73:5c:bb:
         c3:a4:f4:49:1a:96:3c:f6:f2:c7:96:b8:44:20:37:fc:db:19:
         83:1a:44:45:df:60:42:3c:de:12:f8:30:09:07:d9:22:5c:a4:
         55:90:72:cb:20:c2:ce:3b:be:65:a5:33:0d:de:66:67:6a:71:
         c4:df:43:d6:24:88:2e:c3:fa:c8:a9:81:36:85:bc:43:60:04:
         69:b5:ca:d7:32:2c:e6:9d:fe:07:e4:3c:11:e7:29:fa:18:a6:
         42:c6:d3:d5:1a:43:b3:c9:60:56:fa:83:83:27:4d:0c:c8:b2:
         df:a8:bc:6c:7e:ac:62:90:d5:1a:80:21:ad:80:2a:aa:c4:7d:
         3d:9e:c6:93:d7:ab:b1:ec:07:4d:0c:d1:a9:aa:16:1a:39:5c:
         f6:c0:8b:86:fb:4f:92:f3:94:7b:4b:67:47:31:fd:6d:07:f5:
         a7:24:85:63:77:e6:5c:e8:b6:55:55:4d:33:8f:c0:f2:8e:cb:
         14:1b:23:a8:ab:b2:12:ce:a1:25:84:77:9a:5e:c1:6c:58:56:
         8f:7d:86:61
-----BEGIN CERTIFICATE-----
MIIE3TCCA8WgAwIBAgINC70WMZRHtCBSbS4EBjANBgkqhkiG9w0BAQsFADBAMRQw
EgYDVQQDDAtMaW50IFN1Yi1DQTENMAsGA1UECwwEVGVzdDEMMAoGA1UECgwDTVRH
MQswCQYDVQQGEwJERTAeFw0xOTA1MTYwMzIwMzBaFw00OTA1MTYwMzIwMzBaMGkx
GDAWBgNVBAMMD3d3dy5leGFtcGxlLmNvbTENMAsGA1UECwwEVGVzdDEMMAoGA1UE
CgwDTVRHMRIwEAYDVQQHDAlEYXJtc3RhZHQxDzANBgNVBAgMBkhlc3NlbjELMAkG
A1UEBhMCREUwggEiMA0GCSqGSIb3DQEBAQUAA4IBDwAwggEKAoIBAQCb8Udj99lw
yx5JFc4jjJdXptI2OvXLhq7DKR4RFV+lv3Vb1fwrVn3AWEKr5CDzejHSILIYqYRn
v4GlzoR18hnVYNmMlI0j/9vjiC5SOSB5bRT6w2RAiVb9bssgIQsGu0tT0AF6G6Sa
v67ZJq3QKQ5+cJ3yaQlUrzhPhWVlYsjk5lINI3Ill6i4RBcbNeAb4maYH3rBhr6z
dwwt94kXlLEGE0JOO5lo36DHBi9Ert+75AEqbwVk9FzIFXRS6LaD/O1c3qhbdjiS
XQIIws8UNdsxsRiYvWKrP4QItcXajfFHxPNRAdf+2/SvCrspol9gD0Bi0aYrkV6e
C2G+fLDvjW5TAgMBAAGjggGrMIIBpzAfBgNVHSMEGDAWgBRUjxIDFsez/TVtL/cs
vSRzV4WBjDAdBgNVHQ4EFgQUDFJJu6TKXCrf4CQ/zua5hj3v+AQwDgYDVR0PAQH/
BAQDAgWgMAwGA1UdEwEB/wQCMAAwGgYDVR0RBBMwEYIPd3d3LmV4YW1wbGUuY29t
MGIGCCsGAQUFBwEBBFYwVDAoBggrBgEFBQcwAoYcaHR0cDovL2NhLmV4YW1wbGUu
Y29tL2NhLmNydDAoBggrBgEFBQcwAYYcaHR0cDovL29jc3AuZXhhbXBsZS5jb20v
b2NzcDARBgNVHSAECjAIMAYGBCoDBAUwHQYDVR0lBBYwFAYIKwYBBQUHAwEGCCsG
AQUFBwMCMIGUBggrBgEFBQcBAwSBhzCBhDAIBgYEAI5GAQEwVgYGBACORgEFMEww
JBYeaHR0cDovL2V4YW1wbGUuY29tL2VuL3Rlc3QucGRmEwJlbjAkFh5odHRwOi8v
ZXhhbXBsZS5jb20vZGUvdGVzdC5wZGYTAmRlMBMGBgQAjkYBBjAJBgcEAI5GAQYD
MAsGBgQAjkYBAwIBKjANBgkqhkiG9w0BAQsFAAOCAQEACkvkVLzP2sfABR3mctS9
yK9jU/KVu43SXj6c5L9XlmUC1i30SAmfDITaXYcLL5KNPR9ec1y7w6T0SRqWPPby
x5a4RCA3/NsZgxpERd9gQjzeEvgwCQfZIlykVZByyyDCzju+ZaUzDd5mZ2pxxN9D
1iSILsP6yKmBNoW8Q2AEabXK1zIs5p3+B+Q8Eecp+himQsbT1RpDs8lgVvqDgydN
DMiy36i8bH6sYpDVGoAhrYAqqsR9PZ7Gk9ersewHTQzRqaoWGjlc9sCLhvtPkvOU
e0tnRzH9bQf1pySFY3fmXOi2VVVNM4/A8o7LFBsjqKuyEs6hJYR3ml7BbFhWj32G
YQ==
-----END CERTIFICATE-----
