Certificate:
    Data:
        Version: 3 (0x2)
        Serial Number:
            01:da:28:7a:e2:eb:48:f0:c4:48:a9:4b:ec
        Signature Algorithm: sha256WithRSAEncryption
        Issuer: CN = Test SubCA 2, OU = Test, O = MTG, C = DE
        Validity
            Not Before: Nov  1 08:03:01 2019 GMT
            Not After : Nov  1 08:03:01 2020 GMT
        Subject: O = MTG, OU = Test, L = Darmstadt, ST = Hessen, C = DE, organizationIdentifier = EI:SE-5567971433
        Subject Public Key Info:
            Public Key Algorithm: rsaEncryption
                RSA Public-Key: (2048 bit)
                Modulus:
                    00:c2:0d:81:71:b4:94:05:bc:cf:99:8a:aa:62:08:
                    f2:2e:63:b2:1e:46:f9:2b:85:98:c3:83:d0:ce:26:
                    ad:76:8f:5c:e7:5b:05:20:25:26:32:19:c2:24:8a:
                    ba:69:a3:eb:ca:10:a4:f3:cf:b5:c6:1e:f6:70:58:
                    96:5b:88:52:6a:88:42:33:85:b8:c6:16:48:4f:01:
                    45:39:3f:e1:6a:b9:06:b5:ef:37:db:79:9e:50:90:
                    57:43:5b:8b:c3:35:0d:b3:41:f4:1b:c2:4a:7f:18:
                    3c:39:2d:4f:bf:2b:a5:71:07:73:33:00:e5:8d:36:
                    9e:fe:8f:72:c5:72:56:08:cc:86:b6:ef:ba:e2:fd:
                    9b:5c:c6:2d:94:ed:2d:64:24:77:e6:67:4d:62:db:
                    94:2e:29:8e:dd:1d:7a:ca:bc:68:fb:15:2c:80:56:
                    d3:dd:e7:3a:8f:98:18:14:4b:11:d9:c4:01:1f:b9:
                    7a:d0:d9:ad:69:11:05:f6:0e:ae:5f:fc:cd:c6:b3:
                    cb:4d:ae:8e:45:18:0a:a8:c0:40:11:28:dc:cd:9f:
                    7a:26:67:5a:47:80:9b:d9:4c:f7:da:5f:6d:13:83:
                    1a:91:92:d1:b9:44:f7:72:6b:97:47:74:71:70:80:
                    d3:d6:73:bf:76:33:5c:70:b8:6f:87:37:3e:7e:8e:
                    75:e5
                Exponent: 65537 (0x10001)
        X509v3 extensions:
            X509v3 Authority Key Identifier: 
                keyid:0C:5E:9C:FE:BA:4B:21:6C:04:1D:C2:5A:B7:E3:88:5F:59:DE:4C:12

            X509v3 Subject Key Identifier: 
                0E:6B:AA:83:A9:B2:4D:5C:85:CD:B1:D2:2F:87:F7:20:CB:36:43:3B
            X509v3 Key Usage: critical
                Digital Signature, Key Encipherment
            X509v3 Basic Constraints: critical
                CA:FALSE
            X509v3 Subject Alternative Name: 
                DNS:www.example.com
            Authority Information Access: 
                CA Issuers - URI:http://ca.example.com/ca.crt
                OCSP - URI:http://ocsp.example.com/ocsp

            X509v3 Certificate Policies: 
                Policy: 0.4.0.194112.1.4
                Policy: 0.4.0.19495.3.1

            X509v3 Extended Key Usage: 
                TLS Web Server Authentication, TLS Web Client Authentication
            qcStatements: 
                0..0......F..0......F..0......F...0/..+.......0#......I..0...http://www.example.de/0Q......'.0G0.0.......'....PSP_IC.'Federal Financial Supervisory Authority..SE-FINA
    Signature Algorithm: sha256WithRSAEncryption
         14:cf:0e:55:25:b5:50:a2:76:a6:d0:43:cc:4f:5d:bd:ab:c3:
         30:42:b1:7f:70:b4:72:91:4b:8e:4a:51:9f:ab:ea:01:23:60:
         03:84:7b:05:10:84:dd:02:bf:44:6a:73:e1:71:b4:be:3f:2d:
         36:b7:b0:50:1e:fc:1f:b9:14:a4:6b:c2:7e:ff:1f:44:6d:f1:
         86:52:62:95:43:78:a4:0f:cc:05:29:a6:a1:62:88:1a:0c:54:
         13:d1:b6:74:29:57:b4:f4:8d:5a:f2:aa:46:8d:7f:d9:6d:fd:
         fe:18:02:e2:ac:83:72:28:01:66:3c:fd:ee:a2:ae:ad:d2:fa:
         39:e8:bd:8b:fd:cb:0a:aa:36:28:b8:71:bc:4b:70:f0:8d:4b:
         ec:2d:4b:6b:5b:63:ac:af:2c:61:00:dd:c3:ca:fc:47:cb:23:
         cc:c4:00:33:37:d4:c9:cb:f5:12:42:1e:ea:48:be:b5:9e:14:
         fe:ec:77:a0:b6:24:15:b1:e9:ea:8e:56:e2:df:11:42:27:3a:
         cd:42:d9:c4:e4:63:4c:19:52:91:03:1b:bd:af:b5:b4:80:0c:
         ce:9d:49:c8:ce:b7:b3:5c:ef:6c:fd:20:8d:18:ab:b1:d6:89:
         f9:73:b0:b8:4a:8b:f9:f2:0b:8f:e1:22:a7:30:ff:fd:9f:f5:
         c4:dc:b4:2b
-----BEGIN CERTIFICATE-----
MIIFDDCCA/SgAwIBAgINAdooeuLrSPDESKlL7DANBgkqhkiG9w0BAQsFADBBMRUw
EwYDVQQDDAxUZXN0IFN1YkNBIDIxDTALBgNVBAsMBFRlc3QxDDAKBgNVBAoMA01U
RzELMAkGA1UEBhMCREUwHhcNMTkxMTAxMDgwMzAxWhcNMjAxMTAxMDgwMzAxWjBq
MQwwCgYDVQQKDANNVEcxDTALBgNVBAsMBFRlc3QxEjAQBgNVBAcMCURhcm1zdGFk
dDEPMA0GA1UECAwGSGVzc2VuMQswCQYDVQQGEwJERTEZMBcGA1UEYQwQRUk6U0Ut
NTU2Nzk3MTQzMzCCASIwDQYJKoZIhvcNAQEBBQADggEPADCCAQoCggEBAMINgXG0
lAW8z5mKqmII8i5jsh5G+SuFmMOD0M4mrXaPXOdbBSAlJjIZwiSKummj68oQpPPP
tcYe9nBYlluIUmqIQjOFuMYWSE8BRTk/4Wq5BrXvN9t5nlCQV0Nbi8M1DbNB9BvC
Sn8YPDktT78rpXEHczMA5Y02nv6PcsVyVgjMhrbvuuL9m1zGLZTtLWQkd+ZnTWLb
lC4pjt0desq8aPsVLIBW093nOo+YGBRLEdnEAR+5etDZrWkRBfYOrl/8zcazy02u
jkUYCqjAQBEo3M2feiZnWkeAm9lM99pfbRODGpGS0blE93Jrl0d0cXCA09Zzv3Yz
XHC4b4c3Pn6OdeUCAwEAAaOCAdgwggHUMB8GA1UdIwQYMBaAFAxenP66SyFsBB3C
WrfjiF9Z3kwSMB0GA1UdDgQWBBQOa6qDqbJNXIXNsdIvh/cgyzZDOzAOBgNVHQ8B
Af8EBAMCBaAwDAYDVR0TAQH/BAIwADAaBgNVHREEEzARgg93d3cuZXhhbXBsZS5j
b20wYgYIKwYBBQUHAQEEVjBUMCgGCCsGAQUFBzAChhxodHRwOi8vY2EuZXhhbXBs
ZS5jb20vY2EuY3J0MCgGCCsGAQUFBzABhhxodHRwOi8vb2NzcC5leGFtcGxlLmNv
bS9vY3NwMB8GA1UdIAQYMBYwCQYHBACL7EABBDAJBgcEAIGYJwMBMB0GA1UdJQQW
MBQGCCsGAQUFBwMBBggrBgEFBQcDAjCBswYIKwYBBQUHAQMEgaYwgaMwCAYGBACO
RgEBMBMGBgQAjkYBBjAJBgcEAI5GAQYDMC8GCCsGAQUFBwsCMCMGBwQAi+xJAQIw
GIYWaHR0cDovL3d3dy5leGFtcGxlLmRlLzBRBgYEAIGYJwIwRzATMBEGBwQAgZgn
AQQMBlBTUF9JQwwnRmVkZXJhbCBGaW5hbmNpYWwgU3VwZXJ2aXNvcnkgQXV0aG9y
aXR5DAdTRS1GSU5BMA0GCSqGSIb3DQEBCwUAA4IBAQAUzw5VJbVQonam0EPMT129
q8MwQrF/cLRykUuOSlGfq+oBI2ADhHsFEITdAr9EanPhcbS+Py02t7BQHvwfuRSk
a8J+/x9EbfGGUmKVQ3ikD8wFKaahYogaDFQT0bZ0KVe09I1a8qpGjX/Zbf3+GALi
rINyKAFmPP3uoq6t0vo56L2L/csKqjYouHG8S3DwjUvsLUtrW2OsryxhAN3DyvxH
yyPMxAAzN9TJy/USQh7qSL61nhT+7HegtiQVsenqjlbi3xFCJzrNQtnE5GNMGVKR
Axu9r7W0gAzOnUnIzrezXO9s/SCNGKux1on5c7C4Sov58guP4SKnMP/9n/XE3LQr
-----END CERTIFICATE-----
