Certificate:
    Data:
        Version: 3 (0x2)
        Serial Number:
            02:7d:f8:92:27:17:f8:07:44:26:a3:c4:5c
        Signature Algorithm: sha256WithRSAEncryption
        Issuer: CN = Test SubCA 2, OU = Test, O = MTG, C = DE
        Validity
            Not Before: Nov  1 08:03:01 2019 GMT
            Not After : Nov  1 08:03:01 2020 GMT
        Subject: OU = Test, O = MTG, L = Darmstadt, ST = Hessen, C = DE, organizationIdentifier = PSDDE-BAFIN-1234567890
        Subject Public Key Info:
            Public Key Algorithm: rsaEncryption
                RSA Public-Key: (2048 bit)
                Modulus:
                    00:c2:0d:81:71:b4:94:05:bc:cf:99:8a:aa:62:08:
                    f2:2e:63:b2:1e:46:f9:2b:85:98:c3:83:d0:ce:26:
                    ad:76:8f:5c:e7:5b:05:20:25:26:32:19:c2:24:8a:
                    ba:69:a3:eb:ca:10:a4:f3:cf:b5:c6:1e:f6:70:58:
                    96:5b:88:52:6a:88:42:33:85:b8:c6:16:48:4f:01:
                    45:39:3f:e1:6a:b9:06:b5:ef:37:db:79:9e:50:90:
                    57:43:5b:8b:c3:35:0d:b3:41:f4:1b:c2:4a:7f:18:
                    3c:39:2d:4f:bf:2b:a5:71:07:73:33:00:e5:8d:36:
                    9e:fe:8f:72:c5:72:56:08:cc:86:b6:ef:ba:e2:fd:
                    9b:5c:c6:2d:94:ed:2d:64:24:77:e6:67:4d:62:db:
                    94:2e:29:8e:dd:1d:7a:ca:bc:68:fb:15:2c:80:56:
                    d3:dd:e7:3a:8f:98:18:14:4b:11:d9:c4:01:1f:b9:
                    7a:d0:d9:ad:69:11:05:f6:0e:ae:5f:fc:cd:c6:b3:
                    cb:4d:ae:8e:45:18:0a:a8:c0:40:11:28:dc:cd:9f:
                    7a:26:67:5a:47:80:9b:d9:4c:f7:da:5f:6d:13:83:
                    1a:91:92:d1:b9:44:f7:72:6b:97:47:74:71:70:80:
                    d3:d6:73:bf:76:33:5c:70:b8:6f:87:37:3e:7e:8e:
                    75:e5
                Exponent: 65537 (0x10001)
        X509v3 extensions:
            X509v3 Authority Key Identifier: 
                keyid:0C:5E:9C:FE:BA:4B:21:6C:04:1D:C2:5A:B7:E3:88:5F:59:DE:4C:12

            X509v3 Subject Key Identifier: 
                0E:6B:AA:83:A9:B2:4D:5C:85:CD:B1:D2:2F:87:F7:20:CB:36:43:3B
            X509v3 Key Usage: critical
                Digital Signature, Key Encipherment
            X509v3 Basic Constraints: critical
                CA:FALSE
            X509v3 Subject Alternative Name: 
                DNS:www.example.com
            Authority Information Access: 
                CA Issuers - URI:http://ca.example.com/ca.crt
                OCSP - URI:http://ocsp.example.com/ocsp

            X509v3 Certificate Policies: 
                Policy: 0.4.0.194112.1.4
                Policy: 0.4.0.19495.3.1

            X509v3 Extended Key Usage: 
                TLS Web Server Authentication, TLS Web Client Authentication
            qcStatements: 
                0..0......F..0......F..0......F...0...+.......0.......I..0J......'.0@0.0.......'...'Federal Financial Supervisory Authority..DE-bafin
    Signature Algorithm: sha256WithRSAEncryption
         07:cd:3a:dd:a8:6a:f0:3b:46:0d:97:35:01:c9:b9:20:6a:26:
         91:47:e8:93:7e:97:b5:80:11:f0:3a:82:f7:84:4e:ae:d7:1a:
         30:8f:75:a8:cd:7e:9b:75:78:be:c1:3e:23:8b:2e:a2:a6:c4:
         82:50:4d:ac:33:08:41:08:81:91:9e:eb:89:ce:50:fa:b4:8a:
         89:f3:cb:40:2f:41:35:dd:3b:cb:da:25:ba:22:f1:fd:a5:43:
         3a:64:c7:c4:87:b7:a3:21:77:b6:29:13:d7:d2:50:ae:6a:24:
         f0:19:76:72:e8:1e:04:12:df:ef:07:99:1d:a2:aa:03:0c:bc:
         7b:cc:36:14:2b:2a:14:7a:d3:7d:6e:5e:f9:5f:91:23:9e:99:
         99:d5:bf:af:81:50:ae:8b:6e:b5:1c:59:b0:0a:0f:99:c4:41:
         66:6e:c9:b1:df:e0:a7:74:eb:c5:53:28:22:87:d6:dd:84:81:
         23:e9:8e:ad:95:94:be:4b:de:7c:5e:c5:90:c1:dc:16:9c:f2:
         08:0a:de:bc:c8:2c:63:61:97:d0:e5:f3:a2:41:ae:0e:7e:86:
         7c:da:e7:a4:25:3a:fb:a4:ce:b7:27:00:24:f7:b1:8f:b7:e3:
         07:00:57:b1:8a:49:c2:97:a1:51:56:ec:91:40:75:e4:42:44:
         0c:49:f7:46
-----BEGIN CERTIFICATE-----
MIIE8TCCA9mgAwIBAgINAn34kicX+AdEJqPEXDANBgkqhkiG9w0BAQsFADBBMRUw
EwYDVQQDDAxUZXN0IFN1YkNBIDIxDTALBgNVBAsMBFRlc3QxDDAKBgNVBAoMA01U
RzELMAkGA1UEBhMCREUwHhcNMTkxMTAxMDgwMzAxWhcNMjAxMTAxMDgwMzAxWjBw
MQ0wCwYDVQQLDARUZXN0MQwwCgYDVQQKDANNVEcxEjAQBgNVBAcMCURhcm1zdGFk
dDEPMA0GA1UECAwGSGVzc2VuMQswCQYDVQQGEwJERTEfMB0GA1UEYQwWUFNEREUt
QkFGSU4tMTIzNDU2Nzg5MDCCASIwDQYJKoZIhvcNAQEBBQADggEPADCCAQoCggEB
AMINgXG0lAW8z5mKqmII8i5jsh5G+SuFmMOD0M4mrXaPXOdbBSAlJjIZwiSKummj
68oQpPPPtcYe9nBYlluIUmqIQjOFuMYWSE8BRTk/4Wq5BrXvN9t5nlCQV0Nbi8M1
DbNB9BvCSn8YPDktT78rpXEHczMA5Y02nv6PcsVyVgjMhrbvuuL9m1zGLZTtLWQk
d+ZnTWLblC4pjt0desq8aPsVLIBW093nOo+YGBRLEdnEAR+5etDZrWkRBfYOrl/8
zcazy02ujkUYCqjAQBEo3M2feiZnWkeAm9lM99pfbRODGpGS0blE93Jrl0d0cXCA
09Zzv3YzXHC4b4c3Pn6OdeUCAwEAAaOCAbcwggGzMB8GA1UdIwQYMBaAFAxenP66
SyFsBB3CWrfjiF9Z3kwSMB0GA1UdDgQWBBQOa6qDqbJNXIXNsdIvh/cgyzZDOzAO
BgNVHQ8BAf8EBAMCBaAwDAYDVR0TAQH/BAIwADAaBgNVHREEEzARgg93d3cuZXhh
bXBsZS5jb20wYgYIKwYBBQUHAQEEVjBUMCgGCCsGAQUFBzAChhxodHRwOi8vY2Eu
ZXhhbXBsZS5jb20vY2EuY3J0MCgGCCsGAQUFBzABhhxodHRwOi8vb2NzcC5leGFt
cGxlLmNvbS9vY3NwMB8GA1UdIAQYMBYwCQYHBACL7EABBDAJBgcEAIGYJwMBMB0G
A1UdJQQWMBQGCCsGAQUFBwMBBggrBgEFBQcDAjCBkgYIKwYBBQUHAQMEgYUwgYIw
CAYGBACORgEBMBMGBgQAjkYBBjAJBgcEAI5GAQYDMBUGCCsGAQUFBwsCMAkGBwQA
i+xJAQIwSgYGBACBmCcCMEAwCzAJBgcEAIGYJwEEDCdGZWRlcmFsIEZpbmFuY2lh
bCBTdXBlcnZpc29yeSBBdXRob3JpdHkMCERFLWJhZmluMA0GCSqGSIb3DQEBCwUA
A4IBAQAHzTrdqGrwO0YNlzUBybkgaiaRR+iTfpe1gBHwOoL3hE6u1xowj3WozX6b
dXi+wT4jiy6ipsSCUE2sMwhBCIGRnuuJzlD6tIqJ88tAL0E13TvL2iW6IvH9pUM6
ZMfEh7ejIXe2KRPX0lCuaiTwGXZy6B4EEt/vB5kdoqoDDLx7zDYUKyoUetN9bl75
X5EjnpmZ1b+vgVCui261HFmwCg+ZxEFmbsmx3+CndOvFUygih9bdhIEj6Y6tlZS+
S958XsWQwdwWnPIICt68yCxjYZfQ5fOiQa4OfoZ82uekJTr7pM63JwAk97GPt+MH
AFexiknCl6FRVuyRQHXkQkQMSfdG
-----END CERTIFICATE-----
