Certificate:
    Data:
        Version: 3 (0x2)
        Serial Number:
            0f:64:7d:bf:34:24:c4:3a:61:ea:9f:1a:92
        Signature Algorithm: sha256WithRSAEncryption
        Issuer: CN = Lint Sub-CA, OU = Test, O = MTG, C = DE
        Validity
            Not Before: Nov 21 03:21:33 2018 GMT
            Not After : Nov 21 03:21:33 2048 GMT
        Subject: CN = www.example.com, OU = Test, O = MTG, L = Darmstadt, ST = Hessen, C = DE
        Subject Public Key Info:
            Public Key Algorithm: rsaEncryption
                RSA Public-Key: (2048 bit)
                Modulus:
                    00:bd:8f:c8:75:d0:13:8c:2f:a7:ad:fa:fa:47:42:
                    64:82:22:c8:33:5e:09:3a:3b:54:2c:90:3c:f4:00:
                    85:5e:2c:c6:cb:bc:24:2c:77:63:eb:36:16:80:16:
                    a4:11:31:e7:9b:e8:ee:d8:72:75:d1:77:09:99:84:
                    f0:7b:ad:a5:47:1b:8b:9b:84:8d:8f:c3:05:33:df:
                    ec:3c:bd:a0:8a:d5:20:5c:d0:5d:82:58:12:0e:48:
                    ed:d7:c3:0d:a3:7b:20:e9:5e:05:e6:dd:37:14:44:
                    1e:60:4d:0c:2b:c5:30:b3:79:58:72:9f:8c:88:4c:
                    5c:a7:78:e4:2b:05:55:d9:e3:55:00:bc:3b:47:93:
                    ce:e6:ee:86:6e:c7:03:87:fc:96:73:86:a0:23:71:
                    04:00:9d:1d:4c:47:e4:5e:5e:a7:2e:30:25:0e:7d:
                    4b:05:ef:b9:b8:98:10:13:0a:5a:03:51:ca:34:d7:
                    9a:85:d1:91:36:cb:90:50:bc:ac:9d:4e:45:e6:19:
                    fe:57:18:ad:44:de:5f:f9:3a:98:42:c2:b3:08:fb:
                    fb:53:cb:f4:5c:d8:2b:d7:68:af:cc:bb:03:ed:9a:
                    11:92:43:f2:90:7a:e4:4e:b8:40:1e:0a:32:85:dd:
                    05:60:0b:3b:c0:b1:b7:85:31:4d:af:a9:6b:da:16:
                    b5:35
                Exponent: 65537 (0x10001)
        X509v3 extensions:
            X509v3 Authority Key Identifier: 
                keyid:E2:0F:66:4C:20:2C:78:21:2A:8F:29:DB:F9:99:F6:00:86:C4:AF:E1

            X509v3 Subject Key Identifier: 
                04:36:41:A6:60:74:A0:70:8E:D6:03:D3:29:8F:CE:CB:92:28:BD:56
            X509v3 Key Usage: critical
                Digital Signature, Key Encipherment
            X509v3 Basic Constraints: critical
                CA:FALSE
            X509v3 Subject Alternative Name: 
                DNS:www.example.com
            Authority Information Access: 
                CA Issuers - URI:http://ca.example.com/ca.crt
                OCSP - URI:http://ocsp.example.com/ocsp

            X509v3 Certificate Policies: 
                Policy: 1.2.3.4.5

            X509v3 Extended Key Usage: 
                TLS Web Server Authentication, TLS Web Client Authentication
            qcStatements: 
                0{0......F..0Z.....F..0P0(..http://example.com/en/test.pdf..en..gr0$..http://example.com/de/test.pdf..de0......F..0......F...
    Signature Algorithm: sha256WithRSAEncryption
         97:4b:6c:dd:47:78:d2:72:99:d1:b0:65:5b:8a:df:05:dc:94:
         26:98:72:0f:69:0c:3b:86:4f:24:20:62:7b:0e:1d:ca:95:b1:
         6d:8b:e5:07:6f:c6:f4:48:8d:7a:ec:bd:d4:5f:86:62:b1:7a:
         f1:30:10:2b:48:47:e1:e2:49:06:88:fb:d8:e9:6e:7b:b4:fa:
         cc:9a:7f:6b:b7:b8:45:0c:95:40:af:07:5f:33:e8:08:d7:b0:
         ac:2c:63:17:64:b7:c8:72:8d:76:28:d0:72:6b:f9:b3:e0:57:
         37:7b:15:f3:fb:61:b5:2b:31:32:81:99:ae:11:83:53:54:ff:
         de:99:08:33:51:31:59:84:06:7d:7a:ca:90:fb:d6:d1:85:66:
         6c:44:94:79:38:78:7b:2e:fd:38:33:73:9d:e3:a6:a0:9d:60:
         57:cd:fc:cf:36:b3:95:ca:9e:a2:66:40:7f:c6:84:2d:a6:1e:
         e8:c3:ac:fc:b2:48:5e:1e:50:8a:40:4d:68:44:45:12:6d:70:
         ec:0d:e8:ec:1d:68:46:6c:65:51:b8:ac:ea:7e:0f:89:de:91:
         c2:6d:ae:09:3a:1d:e2:70:1a:26:60:e2:5b:fa:ba:88:4f:08:
         bb:d6:b7:0a:eb:c2:2f:8c:f0:17:4b:c7:5a:6c:9f:fa:d4:4c:
         8b:e9:2a:db
-----BEGIN CERTIFICATE-----
MIIE0jCCA7qgAwIBAgIND2R9vzQkxDph6p8akjANBgkqhkiG9w0BAQsFADBAMRQw
EgYDVQQDDAtMaW50IFN1Yi1DQTENMAsGA1UECwwEVGVzdDEMMAoGA1UECgwDTVRH
MQswCQYDVQQGEwJERTAeFw0xODExMjEwMzIxMzNaFw00ODExMjEwMzIxMzNaMGkx
GDAWBgNVBAMMD3d3dy5leGFtcGxlLmNvbTENMAsGA1UECwwEVGVzdDEMMAoGA1UE
CgwDTVRHMRIwEAYDVQQHDAlEYXJtc3RhZHQxDzANBgNVBAgMBkhlc3NlbjELMAkG
A1UEBhMCREUwggEiMA0GCSqGSIb3DQEBAQUAA4IBDwAwggEKAoIBAQC9j8h10BOM
L6et+vpHQmSCIsgzXgk6O1QskDz0AIVeLMbLvCQsd2PrNhaAFqQRMeeb6O7YcnXR
dwmZhPB7raVHG4ubhI2PwwUz3+w8vaCK1SBc0F2CWBIOSO3Xww2jeyDpXgXm3TcU
RB5gTQwrxTCzeVhyn4yITFyneOQrBVXZ41UAvDtHk87m7oZuxwOH/JZzhqAjcQQA
nR1MR+ReXqcuMCUOfUsF77m4mBATCloDUco015qF0ZE2y5BQvKydTkXmGf5XGK1E
3l/5OphCwrMI+/tTy/Rc2CvXaK/MuwPtmhGSQ/KQeuROuEAeCjKF3QVgCzvAsbeF
MU2vqWvaFrU1AgMBAAGjggGgMIIBnDAfBgNVHSMEGDAWgBTiD2ZMICx4ISqPKdv5
mfYAhsSv4TAdBgNVHQ4EFgQUBDZBpmB0oHCO1gPTKY/Oy5IovVYwDgYDVR0PAQH/
BAQDAgWgMAwGA1UdEwEB/wQCMAAwGgYDVR0RBBMwEYIPd3d3LmV4YW1wbGUuY29t
MGIGCCsGAQUFBwEBBFYwVDAoBggrBgEFBQcwAoYcaHR0cDovL2NhLmV4YW1wbGUu
Y29tL2NhLmNydDAoBggrBgEFBQcwAYYcaHR0cDovL29jc3AuZXhhbXBsZS5jb20v
b2NzcDARBgNVHSAECjAIMAYGBCoDBAUwHQYDVR0lBBYwFAYIKwYBBQUHAwEGCCsG
AQUFBwMCMIGJBggrBgEFBQcBAwR9MHswCAYGBACORgEBMFoGBgQAjkYBBTBQMCgW
Hmh0dHA6Ly9leGFtcGxlLmNvbS9lbi90ZXN0LnBkZhMCZW4TAmdyMCQWHmh0dHA6
Ly9leGFtcGxlLmNvbS9kZS90ZXN0LnBkZhMCZGUwEwYGBACORgEGMAkGBwQAjkYB
BgMwDQYJKoZIhvcNAQELBQADggEBAJdLbN1HeNJymdGwZVuK3wXclCaYcg9pDDuG
TyQgYnsOHcqVsW2L5QdvxvRIjXrsvdRfhmKxevEwECtIR+HiSQaI+9jpbnu0+sya
f2u3uEUMlUCvB18z6AjXsKwsYxdkt8hyjXYo0HJr+bPgVzd7FfP7YbUrMTKBma4R
g1NU/96ZCDNRMVmEBn16ypD71tGFZmxElHk4eHsu/Tgzc53jpqCdYFfN/M82s5XK
nqJmQH/GhC2mHujDrPyySF4eUIpATWhERRJtcOwN6OwdaEZsZVG4rOp+D4nekcJt
rgk6HeJwGiZg4lv6uohPCLvWtwrrwi+M8BdLx1psn/rUTIvpKts=
-----END CERTIFICATE-----
