Certificate:
    Data:
        Version: 3 (0x2)
        Serial Number:
            0f:03:01:fc:79:42:c0:3a:ed:cf:db:80:a6
        Signature Algorithm: sha256WithRSAEncryption
        Issuer: CN = Lint Sub-CA, OU = Test, O = MTG, C = DE
        Validity
            Not Before: Nov 21 03:21:30 2018 GMT
            Not After : Nov 21 03:21:30 2048 GMT
        Subject: CN = www.example.com, OU = Test, O = MTG, L = Darmstadt, ST = Hessen, C = DE
        Subject Public Key Info:
            Public Key Algorithm: rsaEncryption
                RSA Public-Key: (2048 bit)
                Modulus:
                    00:90:af:0b:6b:95:28:e1:21:fd:fa:90:5f:e2:ab:
                    2c:7e:1b:c0:1f:87:b3:cd:c5:87:83:77:98:f7:d8:
                    32:55:52:68:d8:64:04:21:ed:c1:1e:59:cc:8e:fc:
                    4f:dc:b8:1e:45:fc:ae:22:dc:8f:74:5b:7a:3b:69:
                    95:c3:5b:dc:47:32:75:4a:fa:82:74:f3:f2:15:74:
                    32:8c:d8:4e:da:b8:49:ca:3d:2f:a9:57:a6:1a:6f:
                    d5:2f:1f:32:af:7b:c5:2c:0a:d1:4f:d3:70:b1:cd:
                    ce:fe:9d:27:f7:e8:bd:fa:09:ff:8f:fd:e8:26:c4:
                    b8:8c:7d:19:c8:be:ea:8a:a9:d5:25:66:2c:ed:66:
                    31:a6:fc:8c:a5:12:d8:2b:bf:92:a8:d4:71:f0:18:
                    1b:b3:47:83:19:f5:2a:e9:a7:9e:b2:2b:de:5e:7a:
                    19:16:ce:73:4d:16:5c:a1:4e:e2:ea:4f:3e:e0:68:
                    fa:cf:a5:98:32:e9:af:e1:91:89:6b:c2:fe:f7:32:
                    54:24:2f:14:1f:32:ef:8c:03:7c:ac:8d:24:62:21:
                    0c:39:f4:7e:4b:eb:82:63:d3:43:16:1e:44:de:d5:
                    21:5c:55:5d:3e:02:2d:af:ec:8f:d1:e4:c3:15:1a:
                    87:ea:5b:54:f2:b0:3c:f6:54:d8:1e:d0:42:c7:5c:
                    b6:cd
                Exponent: 65537 (0x10001)
        X509v3 extensions:
            X509v3 Authority Key Identifier: 
                keyid:E2:0F:66:4C:20:2C:78:21:2A:8F:29:DB:F9:99:F6:00:86:C4:AF:E1

            X509v3 Subject Key Identifier: 
                47:CB:5C:6F:3A:1E:53:30:05:17:EA:F7:7F:45:30:01:62:57:A4:07
            X509v3 Key Usage: critical
                Digital Signature, Key Encipherment
            X509v3 Basic Constraints: critical
                CA:FALSE
            X509v3 Subject Alternative Name: 
                DNS:www.example.com
            Authority Information Access: 
                CA Issuers - URI:http://ca.example.com/ca.crt
                OCSP - URI:http://ocsp.example.com/ocsp

            X509v3 Certificate Policies: 
                Policy: 1.2.3.4.5

            X509v3 Extended Key Usage: 
                TLS Web Server Authentication, TLS Web Client Authentication
            qcStatements: 
                0w0......F..0V.....F..0L0$..http://example.com/en/test.pdf..en0$..http://example.com/de/test.pdf..de0......F..0......F...
    Signature Algorithm: sha256WithRSAEncryption
         55:da:8e:2d:b9:6f:b2:c8:47:c6:cf:25:c9:ea:bc:5e:0b:c7:
         4a:7b:53:06:77:e0:b6:9d:2c:2c:14:19:d2:ca:2e:70:1f:1a:
         49:83:72:33:f1:3a:35:8f:15:e4:2c:2c:36:16:2d:85:78:1a:
         67:4e:c2:5e:27:23:5c:b1:0e:c3:47:c7:4c:85:ca:c3:f3:9b:
         03:cf:90:64:66:45:02:b4:b8:34:c1:c5:1b:8e:ba:96:67:9a:
         06:9b:83:05:dd:d5:c7:e2:8d:e3:93:0c:f6:e5:7b:91:36:e4:
         4c:9f:ea:6f:33:bd:3c:6b:28:ea:a3:93:a3:ff:ff:41:7c:61:
         35:73:85:f1:87:43:8f:3b:98:0d:f4:4d:85:cc:54:bb:a5:87:
         c2:5c:a5:bb:a2:8f:3e:13:a4:be:e0:7e:23:38:ba:c1:87:fa:
         0f:67:bd:1a:45:cb:ab:f2:ed:89:1d:e7:e5:11:dd:3b:e3:e3:
         33:08:15:8f:92:96:57:dc:28:14:98:8c:86:ff:c2:e7:d5:ad:
         d5:78:b3:fb:62:c3:33:ee:ce:00:e0:c4:37:61:03:1c:89:e4:
         35:ea:c4:2d:29:6f:c1:17:9f:eb:a4:c4:a8:26:f7:5d:12:75:
         4e:d7:d3:a1:f7:da:66:f6:db:e6:63:fd:b6:99:74:5f:6a:85:
         8d:59:49:76
-----BEGIN CERTIFICATE-----
MIIEzjCCA7agAwIBAgINDwMB/HlCwDrtz9uApjANBgkqhkiG9w0BAQsFADBAMRQw
EgYDVQQDDAtMaW50IFN1Yi1DQTENMAsGA1UECwwEVGVzdDEMMAoGA1UECgwDTVRH
MQswCQYDVQQGEwJERTAeFw0xODExMjEwMzIxMzBaFw00ODExMjEwMzIxMzBaMGkx
GDAWBgNVBAMMD3d3dy5leGFtcGxlLmNvbTENMAsGA1UECwwEVGVzdDEMMAoGA1UE
CgwDTVRHMRIwEAYDVQQHDAlEYXJtc3RhZHQxDzANBgNVBAgMBkhlc3NlbjELMAkG
A1UEBhMCREUwggEiMA0GCSqGSIb3DQEBAQUAA4IBDwAwggEKAoIBAQCQrwtrlSjh
If36kF/iqyx+G8Afh7PNxYeDd5j32DJVUmjYZAQh7cEeWcyO/E/cuB5F/K4i3I90
W3o7aZXDW9xHMnVK+oJ08/IVdDKM2E7auEnKPS+pV6Yab9UvHzKve8UsCtFP03Cx
zc7+nSf36L36Cf+P/egmxLiMfRnIvuqKqdUlZiztZjGm/IylEtgrv5Ko1HHwGBuz
R4MZ9Srpp56yK95eehkWznNNFlyhTuLqTz7gaPrPpZgy6a/hkYlrwv73MlQkLxQf
Mu+MA3ysjSRiIQw59H5L64Jj00MWHkTe1SFcVV0+Ai2v7I/R5MMVGofqW1TysDz2
VNge0ELHXLbNAgMBAAGjggGcMIIBmDAfBgNVHSMEGDAWgBTiD2ZMICx4ISqPKdv5
mfYAhsSv4TAdBgNVHQ4EFgQUR8tcbzoeUzAFF+r3f0UwAWJXpAcwDgYDVR0PAQH/
BAQDAgWgMAwGA1UdEwEB/wQCMAAwGgYDVR0RBBMwEYIPd3d3LmV4YW1wbGUuY29t
MGIGCCsGAQUFBwEBBFYwVDAoBggrBgEFBQcwAoYcaHR0cDovL2NhLmV4YW1wbGUu
Y29tL2NhLmNydDAoBggrBgEFBQcwAYYcaHR0cDovL29jc3AuZXhhbXBsZS5jb20v
b2NzcDARBgNVHSAECjAIMAYGBCoDBAUwHQYDVR0lBBYwFAYIKwYBBQUHAwEGCCsG
AQUFBwMCMIGFBggrBgEFBQcBAwR5MHcwCAYGBACORgEBMFYGBgQAjkYBBTBMMCQT
Hmh0dHA6Ly9leGFtcGxlLmNvbS9lbi90ZXN0LnBkZhMCZW4wJBYeaHR0cDovL2V4
YW1wbGUuY29tL2RlL3Rlc3QucGRmEwJkZTATBgYEAI5GAQYwCQYHBACORgEGAzAN
BgkqhkiG9w0BAQsFAAOCAQEAVdqOLblvsshHxs8lyeq8XgvHSntTBnfgtp0sLBQZ
0soucB8aSYNyM/E6NY8V5CwsNhYthXgaZ07CXicjXLEOw0fHTIXKw/ObA8+QZGZF
ArS4NMHFG466lmeaBpuDBd3Vx+KN45MM9uV7kTbkTJ/qbzO9PGso6qOTo///QXxh
NXOF8YdDjzuYDfRNhcxUu6WHwlylu6KPPhOkvuB+Izi6wYf6D2e9GkXLq/LtiR3n
5RHdO+PjMwgVj5KWV9woFJiMhv/C59Wt1Xiz+2LDM+7OAODEN2EDHInkNerELSlv
wRef66TEqCb3XRJ1TtfToffaZvbb5mP9tpl0X2qFjVlJdg==
-----END CERTIFICATE-----
