Certificate:
    Data:
        Version: 3 (0x2)
        Serial Number:
            06:07:10:9f:9e:67:80:c7:8d:98:e6:61:a7
        Signature Algorithm: sha256WithRSAEncryption
        Issuer: CN = Test SubCA 2, OU = Test, O = MTG, C = DE
        Validity
            Not Before: Nov  1 08:03:01 2019 GMT
            Not After : Nov  1 08:03:01 2020 GMT
        Subject: OU = Test, O = MTG, L = Darmstadt, ST = Hessen, C = DE, organizationIdentifier = PSDDE-BAFIN-1234567890
        Subject Public Key Info:
            Public Key Algorithm: rsaEncryption
                RSA Public-Key: (2048 bit)
                Modulus:
                    00:c2:0d:81:71:b4:94:05:bc:cf:99:8a:aa:62:08:
                    f2:2e:63:b2:1e:46:f9:2b:85:98:c3:83:d0:ce:26:
                    ad:76:8f:5c:e7:5b:05:20:25:26:32:19:c2:24:8a:
                    ba:69:a3:eb:ca:10:a4:f3:cf:b5:c6:1e:f6:70:58:
                    96:5b:88:52:6a:88:42:33:85:b8:c6:16:48:4f:01:
                    45:39:3f:e1:6a:b9:06:b5:ef:37:db:79:9e:50:90:
                    57:43:5b:8b:c3:35:0d:b3:41:f4:1b:c2:4a:7f:18:
                    3c:39:2d:4f:bf:2b:a5:71:07:73:33:00:e5:8d:36:
                    9e:fe:8f:72:c5:72:56:08:cc:86:b6:ef:ba:e2:fd:
                    9b:5c:c6:2d:94:ed:2d:64:24:77:e6:67:4d:62:db:
                    94:2e:29:8e:dd:1d:7a:ca:bc:68:fb:15:2c:80:56:
                    d3:dd:e7:3a:8f:98:18:14:4b:11:d9:c4:01:1f:b9:
                    7a:d0:d9:ad:69:11:05:f6:0e:ae:5f:fc:cd:c6:b3:
                    cb:4d:ae:8e:45:18:0a:a8:c0:40:11:28:dc:cd:9f:
                    7a:26:67:5a:47:80:9b:d9:4c:f7:da:5f:6d:13:83:
                    1a:91:92:d1:b9:44:f7:72:6b:97:47:74:71:70:80:
                    d3:d6:73:bf:76:33:5c:70:b8:6f:87:37:3e:7e:8e:
                    75:e5
                Exponent: 65537 (0x10001)
        X509v3 extensions:
            X509v3 Authority Key Identifier: 
                keyid:0C:5E:9C:FE:BA:4B:21:6C:04:1D:C2:5A:B7:E3:88:5F:59:DE:4C:12

            X509v3 Subject Key Identifier: 
                0E:6B:AA:83:A9:B2:4D:5C:85:CD:B1:D2:2F:87:F7:20:CB:36:43:3B
            X509v3 Key Usage: critical
                Digital Signature, Key Encipherment
            X509v3 Basic Constraints: critical
                CA:FALSE
            X509v3 Subject Alternative Name: 
                DNS:www.example.com
            Authority Information Access: 
                CA Issuers - URI:http://ca.example.com/ca.crt
                OCSP - URI:http://ocsp.example.com/ocsp

            X509v3 Certificate Policies: 
                Policy: 0.4.0.194112.1.4
                Policy: 0.4.0.19495.3.1

            X509v3 Extended Key Usage: 
                TLS Web Server Authentication, TLS Web Client Authentication
            qcStatements: 
                0a0......F..0......F..0......F...0...+.......0.......I..0)......'.0.0.0.......'....PSP_AI..DE-BAFIN
    Signature Algorithm: sha256WithRSAEncryption
         4d:90:16:97:d4:b9:90:b8:2e:e3:c3:f5:fa:8a:e0:70:60:2b:
         cc:c0:25:0c:8e:e7:41:6b:7c:21:53:45:34:8d:28:7c:56:5c:
         dc:04:0b:b8:75:81:a0:97:2c:e1:12:38:9b:1a:d1:e3:05:1f:
         95:5b:79:9e:96:cd:4f:09:32:1e:e8:1e:01:3e:c2:30:9d:9d:
         f3:b6:d8:c4:04:73:3e:1f:fb:9a:4a:15:54:fb:ad:42:cb:ac:
         4e:08:65:11:d0:d5:72:cd:64:e1:c2:7d:2a:c2:2e:a9:a3:44:
         2a:9f:cf:ac:5b:9d:ed:7d:33:91:b1:79:aa:68:2c:e6:96:70:
         e5:2e:25:49:21:8e:1e:25:86:f5:8a:e1:2e:71:07:49:dc:a5:
         16:76:e2:6c:24:52:47:38:ef:82:a0:92:ac:a1:a9:fe:d6:0d:
         9c:2b:fd:cd:64:2f:9e:2d:1f:de:f5:a0:bf:b3:c4:a7:c8:62:
         01:7f:62:71:5d:70:d0:51:8d:4d:c7:a1:9b:ed:bd:fd:65:af:
         d3:6b:a1:f3:bb:b5:1e:d4:51:bf:61:8d:ef:3b:01:e7:11:20:
         33:98:d6:15:d5:78:91:40:bb:48:25:b6:a0:e3:9c:4f:31:6c:
         d0:57:96:9f:a7:48:17:45:15:f8:84:d1:3e:0e:46:79:db:35:
         81:30:54:ec
-----BEGIN CERTIFICATE-----
MIIEzTCCA7WgAwIBAgINBgcQn55ngMeNmOZhpzANBgkqhkiG9w0BAQsFADBBMRUw
EwYDVQQDDAxUZXN0IFN1YkNBIDIxDTALBgNVBAsMBFRlc3QxDDAKBgNVBAoMA01U
RzELMAkGA1UEBhMCREUwHhcNMTkxMTAxMDgwMzAxWhcNMjAxMTAxMDgwMzAxWjBw
MQ0wCwYDVQQLDARUZXN0MQwwCgYDVQQKDANNVEcxEjAQBgNVBAcMCURhcm1zdGFk
dDEPMA0GA1UECAwGSGVzc2VuMQswCQYDVQQGEwJERTEfMB0GA1UEYQwWUFNEREUt
QkFGSU4tMTIzNDU2Nzg5MDCCASIwDQYJKoZIhvcNAQEBBQADggEPADCCAQoCggEB
AMINgXG0lAW8z5mKqmII8i5jsh5G+SuFmMOD0M4mrXaPXOdbBSAlJjIZwiSKummj
68oQpPPPtcYe9nBYlluIUmqIQjOFuMYWSE8BRTk/4Wq5BrXvN9t5nlCQV0Nbi8M1
DbNB9BvCSn8YPDktT78rpXEHczMA5Y02nv6PcsVyVgjMhrbvuuL9m1zGLZTtLWQk
d+ZnTWLblC4pjt0desq8aPsVLIBW093nOo+YGBRLEdnEAR+5etDZrWkRBfYOrl/8
zcazy02ujkUYCqjAQBEo3M2feiZnWkeAm9lM99pfbRODGpGS0blE93Jrl0d0cXCA
09Zzv3YzXHC4b4c3Pn6OdeUCAwEAAaOCAZMwggGPMB8GA1UdIwQYMBaAFAxenP66
SyFsBB3CWrfjiF9Z3kwSMB0GA1UdDgQWBBQOa6qDqbJNXIXNsdIvh/cgyzZDOzAO
BgNVHQ8BAf8EBAMCBaAwDAYDVR0TAQH/BAIwADAaBgNVHREEEzARgg93d3cuZXhh
bXBsZS5jb20wYgYIKwYBBQUHAQEEVjBUMCgGCCsGAQUFBzAChhxodHRwOi8vY2Eu
ZXhhbXBsZS5jb20vY2EuY3J0MCgGCCsGAQUFBzABhhxodHRwOi8vb2NzcC5leGFt
cGxlLmNvbS9vY3NwMB8GA1UdIAQYMBYwCQYHBACL7EABBDAJBgcEAIGYJwMBMB0G
A1UdJQQWMBQGCCsGAQUFBwMBBggrBgEFBQcDAjBvBggrBgEFBQcBAwRjMGEwCAYG
BACORgEBMBMGBgQAjkYBBjAJBgcEAI5GAQYDMBUGCCsGAQUFBwsCMAkGBwQAi+xJ
AQIwKQYGBACBmCcCMB8wEzARBgcEAIGYJwEDDAZQU1BfQUkMCERFLUJBRklOMA0G
CSqGSIb3DQEBCwUAA4IBAQBNkBaX1LmQuC7jw/X6iuBwYCvMwCUMjudBa3whU0U0
jSh8VlzcBAu4dYGglyzhEjibGtHjBR+VW3mels1PCTIe6B4BPsIwnZ3zttjEBHM+
H/uaShVU+61Cy6xOCGUR0NVyzWThwn0qwi6po0Qqn8+sW53tfTORsXmqaCzmlnDl
LiVJIY4eJYb1iuEucQdJ3KUWduJsJFJHOO+CoJKsoan+1g2cK/3NZC+eLR/e9aC/
s8SnyGIBf2JxXXDQUY1Nx6Gb7b39Za/Ta6Hzu7Ue1FG/YY3vOwHnESAzmNYV1XiR
QLtIJbag45xPMWzQV5afp0gXRRX4hNE+DkZ52zWBMFTs
-----END CERTIFICATE-----
