Certificate:
    Data:
        Version: 3 (0x2)
        Serial Number:
            03:73:5e:16:82:36:9a:ab:88:7e:f4:a3:be
        Signature Algorithm: sha256WithRSAEncryption
        Issuer: CN = Test SubCA 2, OU = Test, O = MTG, C = DE
        Validity
            Not Before: Nov  1 08:03:01 2019 GMT
            Not After : Nov  1 08:03:01 2020 GMT
        Subject: OU = Test, O = MTG, L = Darmstadt, ST = Hessen, C = DE, organizationIdentifier = PSDDE-BAFIN-1234567890
        Subject Public Key Info:
            Public Key Algorithm: rsaEncryption
                RSA Public-Key: (2048 bit)
                Modulus:
                    00:c2:0d:81:71:b4:94:05:bc:cf:99:8a:aa:62:08:
                    f2:2e:63:b2:1e:46:f9:2b:85:98:c3:83:d0:ce:26:
                    ad:76:8f:5c:e7:5b:05:20:25:26:32:19:c2:24:8a:
                    ba:69:a3:eb:ca:10:a4:f3:cf:b5:c6:1e:f6:70:58:
                    96:5b:88:52:6a:88:42:33:85:b8:c6:16:48:4f:01:
                    45:39:3f:e1:6a:b9:06:b5:ef:37:db:79:9e:50:90:
                    57:43:5b:8b:c3:35:0d:b3:41:f4:1b:c2:4a:7f:18:
                    3c:39:2d:4f:bf:2b:a5:71:07:73:33:00:e5:8d:36:
                    9e:fe:8f:72:c5:72:56:08:cc:86:b6:ef:ba:e2:fd:
                    9b:5c:c6:2d:94:ed:2d:64:24:77:e6:67:4d:62:db:
                    94:2e:29:8e:dd:1d:7a:ca:bc:68:fb:15:2c:80:56:
                    d3:dd:e7:3a:8f:98:18:14:4b:11:d9:c4:01:1f:b9:
                    7a:d0:d9:ad:69:11:05:f6:0e:ae:5f:fc:cd:c6:b3:
                    cb:4d:ae:8e:45:18:0a:a8:c0:40:11:28:dc:cd:9f:
                    7a:26:67:5a:47:80:9b:d9:4c:f7:da:5f:6d:13:83:
                    1a:91:92:d1:b9:44:f7:72:6b:97:47:74:71:70:80:
                    d3:d6:73:bf:76:33:5c:70:b8:6f:87:37:3e:7e:8e:
                    75:e5
                Exponent: 65537 (0x10001)
        X509v3 extensions:
            X509v3 Authority Key Identifier: 
                keyid:0C:5E:9C:FE:BA:4B:21:6C:04:1D:C2:5A:B7:E3:88:5F:59:DE:4C:12

            X509v3 Subject Key Identifier: 
                0E:6B:AA:83:A9:B2:4D:5C:85:CD:B1:D2:2F:87:F7:20:CB:36:43:3B
            X509v3 Key Usage: critical
                Digital Signature, Key Encipherment
            X509v3 Basic Constraints: critical
                CA:FALSE
            X509v3 Subject Alternative Name: 
                DNS:www.example.com
            Authority Information Access: 
                CA Issuers - URI:http://ca.example.com/ca.crt
                OCSP - URI:http://ocsp.example.com/ocsp

            X509v3 Certificate Policies: 
                Policy: 0.4.0.194112.1.4
                Policy: 0.4.0.19495.3.1

            X509v3 Extended Key Usage: 
                TLS Web Server Authentication, TLS Web Client Authentication
            qcStatements: 
                0..0......F..0......F..0......F...0...+.......0.......I..0J......'.0@0.0.......'....PSP_IC.'Federal Financial Supervisory Authority..
    Signature Algorithm: sha256WithRSAEncryption
         5a:90:e6:20:9e:ac:61:1f:10:a4:ef:f1:c1:2b:91:8e:84:b7:
         37:0a:87:fd:7b:ff:e3:ae:22:2f:03:58:e3:84:53:be:88:ef:
         9e:d6:95:4c:67:db:4a:ed:51:4c:05:27:be:bf:45:f3:37:da:
         15:b9:21:06:76:57:5e:6c:c8:40:9c:b0:73:af:e1:11:87:39:
         63:bd:76:82:b8:7c:e1:f7:ab:b6:30:36:d2:78:4a:df:17:88:
         7d:db:90:40:a1:eb:9a:82:52:a8:50:24:7f:ab:5c:3c:40:c8:
         b0:5b:72:31:95:b7:56:31:e5:1c:dc:70:15:15:24:81:66:dc:
         40:a9:f8:7a:58:4e:71:51:a0:49:05:6c:39:6f:c7:62:c5:c4:
         1c:0c:df:57:b1:e7:42:89:9b:23:23:33:d4:36:57:5c:e2:e4:
         01:12:99:6a:15:b7:ad:56:35:06:c8:f5:60:a7:3c:0c:c8:7a:
         2b:0b:21:38:91:a7:62:51:75:f6:18:db:7b:7a:b2:14:80:49:
         9e:d0:48:26:bb:52:77:fd:1e:e5:90:d8:d7:2a:d7:e9:7a:34:
         ee:c4:bb:55:e9:8c:85:f8:ae:65:d9:9b:16:29:b0:d4:1c:d1:
         48:e3:a4:e4:b2:bd:3a:25:c9:8c:c3:a9:29:59:4e:76:bc:40:
         21:fa:7e:15
-----BEGIN CERTIFICATE-----
MIIE8TCCA9mgAwIBAgINA3NeFoI2mquIfvSjvjANBgkqhkiG9w0BAQsFADBBMRUw
EwYDVQQDDAxUZXN0IFN1YkNBIDIxDTALBgNVBAsMBFRlc3QxDDAKBgNVBAoMA01U
RzELMAkGA1UEBhMCREUwHhcNMTkxMTAxMDgwMzAxWhcNMjAxMTAxMDgwMzAxWjBw
MQ0wCwYDVQQLDARUZXN0MQwwCgYDVQQKDANNVEcxEjAQBgNVBAcMCURhcm1zdGFk
dDEPMA0GA1UECAwGSGVzc2VuMQswCQYDVQQGEwJERTEfMB0GA1UEYQwWUFNEREUt
QkFGSU4tMTIzNDU2Nzg5MDCCASIwDQYJKoZIhvcNAQEBBQADggEPADCCAQoCggEB
AMINgXG0lAW8z5mKqmII8i5jsh5G+SuFmMOD0M4mrXaPXOdbBSAlJjIZwiSKummj
68oQpPPPtcYe9nBYlluIUmqIQjOFuMYWSE8BRTk/4Wq5BrXvN9t5nlCQV0Nbi8M1
DbNB9BvCSn8YPDktT78rpXEHczMA5Y02nv6PcsVyVgjMhrbvuuL9m1zGLZTtLWQk
d+ZnTWLblC4pjt0desq8aPsVLIBW093nOo+YGBRLEdnEAR+5etDZrWkRBfYOrl/8
zcazy02ujkUYCqjAQBEo3M2feiZnWkeAm9lM99pfbRODGpGS0blE93Jrl0d0cXCA
09Zzv3YzXHC4b4c3Pn6OdeUCAwEAAaOCAbcwggGzMB8GA1UdIwQYMBaAFAxenP66
SyFsBB3CWrfjiF9Z3kwSMB0GA1UdDgQWBBQOa6qDqbJNXIXNsdIvh/cgyzZDOzAO
BgNVHQ8BAf8EBAMCBaAwDAYDVR0TAQH/BAIwADAaBgNVHREEEzARgg93d3cuZXhh
bXBsZS5jb20wYgYIKwYBBQUHAQEEVjBUMCgGCCsGAQUFBzAChhxodHRwOi8vY2Eu
ZXhhbXBsZS5jb20vY2EuY3J0MCgGCCsGAQUFBzABhhxodHRwOi8vb2NzcC5leGFt
cGxlLmNvbS9vY3NwMB8GA1UdIAQYMBYwCQYHBACL7EABBDAJBgcEAIGYJwMBMB0G
A1UdJQQWMBQGCCsGAQUFBwMBBggrBgEFBQcDAjCBkgYIKwYBBQUHAQMEgYUwgYIw
CAYGBACORgEBMBMGBgQAjkYBBjAJBgcEAI5GAQYDMBUGCCsGAQUFBwsCMAkGBwQA
i+xJAQIwSgYGBACBmCcCMEAwEzARBgcEAIGYJwEEDAZQU1BfSUMMJ0ZlZGVyYWwg
RmluYW5jaWFsIFN1cGVydmlzb3J5IEF1dGhvcml0eQwAMA0GCSqGSIb3DQEBCwUA
A4IBAQBakOYgnqxhHxCk7/HBK5GOhLc3Cof9e//jriIvA1jjhFO+iO+e1pVMZ9tK
7VFMBSe+v0XzN9oVuSEGdldebMhAnLBzr+ERhzljvXaCuHzh96u2MDbSeErfF4h9
25BAoeuaglKoUCR/q1w8QMiwW3IxlbdWMeUc3HAVFSSBZtxAqfh6WE5xUaBJBWw5
b8dixcQcDN9XsedCiZsjIzPUNldc4uQBEplqFbetVjUGyPVgpzwMyHorCyE4kadi
UXX2GNt7erIUgEme0Egmu1J3/R7lkNjXKtfpejTuxLtV6YyF+K5l2ZsWKbDUHNFI
46Tksr06JcmMw6kpWU52vEAh+n4V
-----END CERTIFICATE-----
