Certificate:
    Data:
        Version: 3 (0x2)
        Serial Number:
            01:9e:f9:8e:fc:78:13:c9:8e:bd:80:52:25
        Signature Algorithm: sha256WithRSAEncryption
        Issuer: CN = Lint Sub-CA, OU = Test, O = MTG, C = DE
        Validity
            Not Before: Nov 21 03:21:31 2018 GMT
            Not After : Nov 21 03:21:31 2048 GMT
        Subject: CN = www.example.com, OU = Test, O = MTG, L = Darmstadt, ST = Hessen, C = DE
        Subject Public Key Info:
            Public Key Algorithm: rsaEncryption
                RSA Public-Key: (2048 bit)
                Modulus:
                    00:b0:ae:36:22:ac:7c:e0:f7:13:c8:71:45:7e:59:
                    d0:f7:c2:8b:6c:a9:96:99:b0:94:5e:b1:6b:71:63:
                    5a:0e:35:b1:83:b3:b1:7b:bd:b3:56:6f:93:91:c0:
                    94:3c:cd:3d:0f:be:40:39:cf:bd:2a:3e:63:6c:42:
                    c0:cc:2a:24:b5:f0:b1:78:d0:55:ac:c1:99:e3:ae:
                    cc:74:02:0a:38:96:8e:da:47:fe:c1:19:77:f2:41:
                    dd:6b:ce:af:df:ed:32:38:32:61:4d:20:23:a7:df:
                    20:92:8a:f7:dd:b5:7c:29:e6:e3:c5:ad:b5:0b:f4:
                    d4:6d:34:a7:18:93:a7:6e:10:c6:8b:3e:8c:b3:68:
                    c1:72:72:2f:38:a1:a8:f9:70:06:f4:28:cf:20:64:
                    dc:1a:c0:16:e8:37:76:96:b0:d5:ad:76:54:08:64:
                    ea:48:25:cc:79:5b:4e:9d:f1:63:e0:33:7d:df:d5:
                    6b:d0:39:1b:fb:20:48:d4:93:37:47:f5:3c:09:04:
                    65:7d:62:3c:05:62:67:b5:3b:fe:13:26:25:bb:4b:
                    90:2a:8b:cb:1a:66:12:d7:45:b7:7d:49:68:45:3a:
                    f6:97:3a:37:f6:13:8d:3f:8f:32:bf:54:f3:33:cd:
                    24:d1:81:84:fb:29:d5:6d:67:ae:10:54:9b:33:68:
                    4b:9d
                Exponent: 65537 (0x10001)
        X509v3 extensions:
            X509v3 Authority Key Identifier: 
                keyid:E2:0F:66:4C:20:2C:78:21:2A:8F:29:DB:F9:99:F6:00:86:C4:AF:E1

            X509v3 Subject Key Identifier: 
                48:1B:E9:55:E2:6B:B9:89:55:B8:BD:9B:88:E9:44:D6:A4:5F:AA:76
            X509v3 Key Usage: critical
                Digital Signature, Key Encipherment
            X509v3 Basic Constraints: critical
                CA:FALSE
            X509v3 Subject Alternative Name: 
                DNS:www.example.com
            Authority Information Access: 
                CA Issuers - URI:http://ca.example.com/ca.crt
                OCSP - URI:http://ocsp.example.com/ocsp

            X509v3 Certificate Policies: 
                Policy: 1.2.3.4.5

            X509v3 Extended Key Usage: 
                TLS Web Server Authentication, TLS Web Client Authentication
            qcStatements: 
                0w0......F..0V.....F..0L0$..http://example.com/en/test.pdf..en0$..http://example.com/de/test.pdf..de0......F..0......F...
    Signature Algorithm: sha256WithRSAEncryption
         3a:30:b0:0b:e5:62:e2:e2:55:1b:20:81:38:8d:65:91:d5:48:
         64:63:d1:ce:93:63:e1:59:48:1e:91:eb:51:90:80:24:d5:71:
         28:dd:ce:71:a7:e4:4e:d5:b0:1f:e3:c4:2a:c0:ce:93:3a:51:
         f1:db:ab:f8:e0:a8:e5:bb:d2:97:47:e3:26:2b:22:fe:4c:3a:
         d0:e1:6d:d2:f4:a9:3b:b7:9a:59:e2:24:06:79:6e:a5:6c:c4:
         ef:c5:68:d5:ef:c6:71:a0:48:66:48:8b:26:71:1d:7a:fb:8c:
         af:fe:7a:d2:58:f6:d1:22:65:b6:5b:d5:37:82:69:c6:ce:bd:
         bf:3b:65:cf:00:1f:76:ca:61:0a:6f:35:61:20:67:06:95:d9:
         75:35:de:ba:3a:15:83:2e:cb:db:a9:9e:78:40:b1:c1:9a:42:
         b4:18:4b:f6:d2:c8:05:1f:6f:44:42:85:0c:82:8b:db:63:f3:
         c1:d8:3e:7e:cd:3c:a3:69:12:18:f2:25:32:03:e3:88:17:bb:
         70:38:20:38:55:1e:b5:dc:7c:93:3b:90:42:7a:eb:5f:2c:1f:
         a5:01:67:59:1f:63:e6:62:21:2a:25:11:40:d7:a3:7c:ab:01:
         b6:98:52:40:a3:e1:24:65:e9:d4:dd:7e:d9:29:8d:58:1e:48:
         1c:ec:a3:5f
-----BEGIN CERTIFICATE-----
MIIEzjCCA7agAwIBAgINAZ75jvx4E8mOvYBSJTANBgkqhkiG9w0BAQsFADBAMRQw
EgYDVQQDDAtMaW50IFN1Yi1DQTENMAsGA1UECwwEVGVzdDEMMAoGA1UECgwDTVRH
MQswCQYDVQQGEwJERTAeFw0xODExMjEwMzIxMzFaFw00ODExMjEwMzIxMzFaMGkx
GDAWBgNVBAMMD3d3dy5leGFtcGxlLmNvbTENMAsGA1UECwwEVGVzdDEMMAoGA1UE
CgwDTVRHMRIwEAYDVQQHDAlEYXJtc3RhZHQxDzANBgNVBAgMBkhlc3NlbjELMAkG
A1UEBhMCREUwggEiMA0GCSqGSIb3DQEBAQUAA4IBDwAwggEKAoIBAQCwrjYirHzg
9xPIcUV+WdD3wotsqZaZsJResWtxY1oONbGDs7F7vbNWb5ORwJQ8zT0PvkA5z70q
PmNsQsDMKiS18LF40FWswZnjrsx0Ago4lo7aR/7BGXfyQd1rzq/f7TI4MmFNICOn
3yCSivfdtXwp5uPFrbUL9NRtNKcYk6duEMaLPoyzaMFyci84oaj5cAb0KM8gZNwa
wBboN3aWsNWtdlQIZOpIJcx5W06d8WPgM33f1WvQORv7IEjUkzdH9TwJBGV9YjwF
Yme1O/4TJiW7S5Aqi8saZhLXRbd9SWhFOvaXOjf2E40/jzK/VPMzzSTRgYT7KdVt
Z64QVJszaEudAgMBAAGjggGcMIIBmDAfBgNVHSMEGDAWgBTiD2ZMICx4ISqPKdv5
mfYAhsSv4TAdBgNVHQ4EFgQUSBvpVeJruYlVuL2biOlE1qRfqnYwDgYDVR0PAQH/
BAQDAgWgMAwGA1UdEwEB/wQCMAAwGgYDVR0RBBMwEYIPd3d3LmV4YW1wbGUuY29t
MGIGCCsGAQUFBwEBBFYwVDAoBggrBgEFBQcwAoYcaHR0cDovL2NhLmV4YW1wbGUu
Y29tL2NhLmNydDAoBggrBgEFBQcwAYYcaHR0cDovL29jc3AuZXhhbXBsZS5jb20v
b2NzcDARBgNVHSAECjAIMAYGBCoDBAUwHQYDVR0lBBYwFAYIKwYBBQUHAwEGCCsG
AQUFBwMCMIGFBggrBgEFBQcBAwR5MHcwCAYGBACORgEBMFYGBgQAjkYBBTBMMCQW
Hmh0dHA6Ly9leGFtcGxlLmNvbS9lbi90ZXN0LnBkZhMCZW4wJBYeaHR0cDovL2V4
YW1wbGUuY29tL2RlL3Rlc3QucGRmEwJkZTATBgYEAI5GAQYwCQYHBACORgEGAzAN
BgkqhkiG9w0BAQsFAAOCAQEAOjCwC+Vi4uJVGyCBOI1lkdVIZGPRzpNj4VlIHpHr
UZCAJNVxKN3OcafkTtWwH+PEKsDOkzpR8dur+OCo5bvSl0fjJisi/kw60OFt0vSp
O7eaWeIkBnlupWzE78Vo1e/GcaBIZkiLJnEdevuMr/560lj20SJltlvVN4Jpxs69
vztlzwAfdsphCm81YSBnBpXZdTXeujoVgy7L26meeECxwZpCtBhL9tLIBR9vREKF
DIKL22Pzwdg+fs08o2kSGPIlMgPjiBe7cDggOFUetdx8kzuQQnrrXywfpQFnWR9j
5mIhKiURQNejfKsBtphSQKPhJGXp1N1+2SmNWB5IHOyjXw==
-----END CERTIFICATE-----
