Certificate:
    Data:
        Version: 3 (0x2)
        Serial Number:
            1e:fd:a7:3c:4f:16:eb:57:af:70:b9:4f
        Signature Algorithm: sha256WithRSAEncryption
        Issuer: C = PK, O = Development, CN = Development Sub CA
        Validity
            Not Before: Sep 25 09:37:57 2019 GMT
            Not After : Oct 26 09:37:57 2029 GMT
        Subject: C = PK, O = Development, serialNumber = 578611675, GN = Muhammad Bilal, SN = Ashraf, CN = Muhammad Bilal Ashraf
        Subject Public Key Info:
            Public Key Algorithm: rsaEncryption
                RSA Public-Key: (2048 bit)
                Modulus:
                    00:d8:73:d5:a2:53:6f:03:4a:95:bb:05:cf:71:72:
                    1d:ad:af:d6:fd:53:8b:cf:1e:51:c9:18:c0:1d:40:
                    bc:b2:c6:0a:3c:b2:79:ac:d8:d4:70:01:6b:20:c4:
                    41:10:b5:70:d4:1f:92:af:7f:fa:ef:57:03:b2:1d:
                    76:9c:59:0e:e0:a7:c2:a6:9a:ef:1b:d8:29:57:6c:
                    8b:64:f3:61:a5:43:ea:c6:96:d7:6b:a1:fa:55:0b:
                    f8:3d:83:47:b9:fe:f9:90:f2:73:ca:7d:9d:92:1c:
                    3f:44:63:5f:88:df:5b:fe:a3:38:2d:2c:47:ce:5a:
                    ce:7b:e8:23:37:bb:92:68:b1:1c:b6:bd:7a:bf:b9:
                    6e:eb:9d:25:6c:d0:b6:f5:77:c6:f4:5b:91:29:e1:
                    c0:07:4e:16:a0:5b:60:7b:a3:f7:5f:0b:d1:90:74:
                    d5:bd:c5:23:c7:45:d2:44:3d:c5:6d:cb:e2:fd:2a:
                    8a:65:2b:45:2c:dd:fc:d9:7a:7f:b8:0e:d2:fa:45:
                    f4:79:51:c7:c8:88:10:c8:4c:9d:3a:ae:65:23:59:
                    93:44:2b:09:9f:4b:ce:5d:ab:f6:62:06:62:1c:6b:
                    e9:0c:cc:d7:3f:3f:e3:fe:20:05:6e:52:e6:19:e3:
                    45:45:44:03:22:bc:13:61:41:1f:74:68:c1:18:e0:
                    25:57
                Exponent: 65537 (0x10001)
        X509v3 extensions:
            X509v3 Key Usage: critical
                Digital Signature, Non Repudiation
            X509v3 Extended Key Usage: 
                E-mail Protection
            X509v3 Basic Constraints: critical
                CA:FALSE
            X509v3 Subject Key Identifier: 
                5E:3B:7F:1D:E8:D5:58:7E:EE:26:B3:C7:92:E6:5A:C1:0E:5F:BB:9D
            X509v3 Authority Key Identifier: 
                keyid:30:CD:83:A7:36:AC:A5:35:FF:21:1B:37:40:6E:B2:CF:5F:1C:03:2F

            Authority Information Access: 
                OCSP - URI:http://dev.com/ocsp
                CA Issuers - URI:http://dev.com/ca.crt

            X509v3 Subject Alternative Name: 
                email:bilal.ashraf@gmail.com
            X509v3 CRL Distribution Points: 

                Full Name:
                  URI:http://dev.com/ca.crl

            X509v3 Certificate Policies: 
                Policy: 1.3.7.8.9
                  CPS: https://www.dev.com/repository/

            qcStatements: 
                0..0......F..0......F....
0......F..0...EURO..
...0......F..00.....F..0&0$..https://dev.com/pds/en/pds.pdf..en0%.....F..0......F........F........F...
    Signature Algorithm: sha256WithRSAEncryption
         0f:25:98:4c:8c:ef:19:bc:c8:6d:46:df:7b:49:87:48:dc:63:
         a1:a7:2e:85:65:90:2e:1c:97:fd:47:c7:67:98:5d:60:be:e8:
         b0:8b:f0:bd:6b:bc:d6:11:a2:18:af:44:a3:4d:bb:f5:6d:18:
         7b:12:78:aa:9f:74:60:8c:c6:f2:48:ca:bc:ae:d7:21:b1:4b:
         99:89:c2:7f:bf:bc:b1:71:dc:bc:7f:70:fd:bf:16:d7:57:13:
         5a:60:b6:fb:1b:98:83:10:96:bc:79:06:c1:65:69:12:96:65:
         90:37:3e:61:88:e2:95:45:50:ef:02:1c:8a:78:29:4f:df:13:
         7a:4d:fa:44:86:7c:99:c3:6a:91:75:13:ac:26:96:b7:d4:5a:
         e2:1e:f7:d8:9f:3b:31:25:b2:76:27:c4:31:85:22:f9:f4:8a:
         b6:dc:3b:72:30:73:7f:a4:39:5c:59:16:63:4b:90:b5:8d:3c:
         ec:42:11:95:d7:b3:c1:af:42:64:04:92:b5:a1:15:cd:0e:d4:
         4e:c3:b3:2d:26:e6:60:44:33:28:af:2c:88:ee:99:f9:18:d5:
         f3:a6:54:e3:bb:92:67:67:02:fb:ef:d2:40:1b:9f:01:0d:02:
         87:fb:67:37:63:b7:bc:00:9f:03:7d:10:85:06:e5:58:77:bd:
         59:de:2d:68
-----BEGIN CERTIFICATE-----
MIIFRzCCBC+gAwIBAgIMHv2nPE8W61evcLlPMA0GCSqGSIb3DQEBCwUAMEAxCzAJ
BgNVBAYTAlBLMRQwEgYDVQQKEwtEZXZlbG9wbWVudDEbMBkGA1UEAxMSRGV2ZWxv
cG1lbnQgU3ViIENBMB4XDTE5MDkyNTA5Mzc1N1oXDTI5MTAyNjA5Mzc1N1owgYEx
CzAJBgNVBAYTAlBLMRQwEgYDVQQKEwtEZXZlbG9wbWVudDESMBAGA1UEBRMJNTc4
NjExNjc1MRcwFQYDVQQqEw5NdWhhbW1hZCBCaWxhbDEPMA0GA1UEBBMGQXNocmFm
MR4wHAYDVQQDExVNdWhhbW1hZCBCaWxhbCBBc2hyYWYwggEiMA0GCSqGSIb3DQEB
AQUAA4IBDwAwggEKAoIBAQDYc9WiU28DSpW7Bc9xch2tr9b9U4vPHlHJGMAdQLyy
xgo8snms2NRwAWsgxEEQtXDUH5Kvf/rvVwOyHXacWQ7gp8Kmmu8b2ClXbItk82Gl
Q+rGltdrofpVC/g9g0e5/vmQ8nPKfZ2SHD9EY1+I31v+ozgtLEfOWs576CM3u5Jo
sRy2vXq/uW7rnSVs0Lb1d8b0W5Ep4cAHThagW2B7o/dfC9GQdNW9xSPHRdJEPcVt
y+L9KoplK0Us3fzZen+4DtL6RfR5UcfIiBDITJ06rmUjWZNEKwmfS85dq/ZiBmIc
a+kMzNc/P+P+IAVuUuYZ40VFRAMivBNhQR90aMEY4CVXAgMBAAGjggH9MIIB+TAO
BgNVHQ8BAf8EBAMCBsAwEwYDVR0lBAwwCgYIKwYBBQUHAwQwDAYDVR0TAQH/BAIw
ADAdBgNVHQ4EFgQUXjt/HejVWH7uJrPHkuZawQ5fu50wHwYDVR0jBBgwFoAUMM2D
pzaspTX/IRs3QG6yz18cAy8wUgYIKwYBBQUHAQEERjBEMB8GCCsGAQUFBzABhhNo
dHRwOi8vZGV2LmNvbS9vY3NwMCEGCCsGAQUFBzAChhVodHRwOi8vZGV2LmNvbS9j
YS5jcnQwIQYDVR0RBBowGIEWYmlsYWwuYXNocmFmQGdtYWlsLmNvbTAmBgNVHR8E
HzAdMBugGaAXhhVodHRwOi8vZGV2LmNvbS9jYS5jcmwwQAYDVR0gBDkwNzA1BgQr
BwgJMC0wKwYIKwYBBQUHAgEWH2h0dHBzOi8vd3d3LmRldi5jb20vcmVwb3NpdG9y
eS8wgaIGCCsGAQUFBwEDBIGVMIGSMAgGBgQAjkYBATALBgYEAI5GAQMCAQowFgYG
BACORgECMAwTBEVVUk8CAQoCAQIwCAYGBACORgEEMDAGBgQAjkYBBTAmMCQWHmh0
dHBzOi8vZGV2LmNvbS9wZHMvZW4vcGRzLnBkZhMCZW4wJQYGBACORgEGMBsGBwQA
jkYBBgEGBwQAjkYBBgIGBwQAjkYBBgMwDQYJKoZIhvcNAQELBQADggEBAA8lmEyM
7xm8yG1G33tJh0jcY6GnLoVlkC4cl/1Hx2eYXWC+6LCL8L1rvNYRohivRKNNu/Vt
GHsSeKqfdGCMxvJIyryu1yGxS5mJwn+/vLFx3Lx/cP2/FtdXE1pgtvsbmIMQlrx5
BsFlaRKWZZA3PmGI4pVFUO8CHIp4KU/fE3pN+kSGfJnDapF1E6wmlrfUWuIe99if
OzElsnYnxDGFIvn0irbcO3Iwc3+kOVxZFmNLkLWNPOxCEZXXs8GvQmQEkrWhFc0O
1E7Dsy0m5mBEMyivLIjumfkY1fOmVOO7kmdnAvvv0kAbnwENAof7Zzdjt7wAnwN9
EIUG5Vh3vVneLWg=
-----END CERTIFICATE-----