Certificate:
    Data:
        Version: 3 (0x2)
        Serial Number:
            0e:c2:b3:32:0b:6c:e5:d3:88:2d:cc:99:cb
        Signature Algorithm: sha256WithRSAEncryption
        Issuer: CN = Test SubCA 2, OU = Test, O = MTG, C = DE
        Validity
            Not Before: Nov  1 08:03:01 2019 GMT
            Not After : Nov  1 08:03:01 2020 GMT
        Subject: OU = Test, O = MTG, L = Darmstadt, ST = Hessen, C = DE, organizationIdentifier = PSDDE-BAFIN-1234567890
        Subject Public Key Info:
            Public Key Algorithm: rsaEncryption
                RSA Public-Key: (2048 bit)
                Modulus:
                    00:c2:0d:81:71:b4:94:05:bc:cf:99:8a:aa:62:08:
                    f2:2e:63:b2:1e:46:f9:2b:85:98:c3:83:d0:ce:26:
                    ad:76:8f:5c:e7:5b:05:20:25:26:32:19:c2:24:8a:
                    ba:69:a3:eb:ca:10:a4:f3:cf:b5:c6:1e:f6:70:58:
                    96:5b:88:52:6a:88:42:33:85:b8:c6:16:48:4f:01:
                    45:39:3f:e1:6a:b9:06:b5:ef:37:db:79:9e:50:90:
                    57:43:5b:8b:c3:35:0d:b3:41:f4:1b:c2:4a:7f:18:
                    3c:39:2d:4f:bf:2b:a5:71:07:73:33:00:e5:8d:36:
                    9e:fe:8f:72:c5:72:56:08:cc:86:b6:ef:ba:e2:fd:
                    9b:5c:c6:2d:94:ed:2d:64:24:77:e6:67:4d:62:db:
                    94:2e:29:8e:dd:1d:7a:ca:bc:68:fb:15:2c:80:56:
                    d3:dd:e7:3a:8f:98:18:14:4b:11:d9:c4:01:1f:b9:
                    7a:d0:d9:ad:69:11:05:f6:0e:ae:5f:fc:cd:c6:b3:
                    cb:4d:ae:8e:45:18:0a:a8:c0:40:11:28:dc:cd:9f:
                    7a:26:67:5a:47:80:9b:d9:4c:f7:da:5f:6d:13:83:
                    1a:91:92:d1:b9:44:f7:72:6b:97:47:74:71:70:80:
                    d3:d6:73:bf:76:33:5c:70:b8:6f:87:37:3e:7e:8e:
                    75:e5
                Exponent: 65537 (0x10001)
        X509v3 extensions:
            X509v3 Authority Key Identifier: 
                keyid:0C:5E:9C:FE:BA:4B:21:6C:04:1D:C2:5A:B7:E3:88:5F:59:DE:4C:12

            X509v3 Subject Key Identifier: 
                0E:6B:AA:83:A9:B2:4D:5C:85:CD:B1:D2:2F:87:F7:20:CB:36:43:3B
            X509v3 Key Usage: critical
                Digital Signature, Key Encipherment
            X509v3 Basic Constraints: critical
                CA:FALSE
            X509v3 Subject Alternative Name: 
                DNS:www.example.com
            Authority Information Access: 
                CA Issuers - URI:http://ca.example.com/ca.crt
                OCSP - URI:http://ocsp.example.com/ocsp

            X509v3 Certificate Policies: 
                Policy: 0.4.0.194112.1.4
                Policy: 0.4.0.19495.3.1

            X509v3 Extended Key Usage: 
                TLS Web Server Authentication, TLS Web Client Authentication
            qcStatements: 
                0c0......F..0......F..0......F...0...+.......0.......I..0+......'.0!0.0.......'....PSP_PI....DE-BAFIN
    Signature Algorithm: sha256WithRSAEncryption
         4f:88:bf:d9:9f:ee:c6:41:82:76:12:83:bd:fd:76:4f:2e:1d:
         13:e9:36:79:24:3b:a7:31:0e:f6:aa:ab:40:b1:ca:55:fa:e9:
         77:54:a1:73:32:b6:f8:d5:07:52:3e:0b:6b:b9:b6:60:95:61:
         c6:58:b6:ff:91:9b:57:2d:03:91:4f:b2:06:c9:35:bf:01:90:
         a1:fb:c0:d0:b8:67:ae:18:4a:97:43:03:98:4d:dd:2d:6d:b9:
         d0:0a:94:6d:09:b1:76:54:a4:ea:1e:bc:35:6a:a9:a3:8d:9c:
         17:90:2f:d6:99:48:5e:f5:9c:50:e2:44:f5:86:cb:f3:b1:08:
         26:1c:40:83:5d:81:1c:3a:29:4e:ba:6f:7d:d0:7b:3f:68:79:
         d4:6f:bf:d4:b3:01:0b:f6:eb:91:f9:00:26:57:27:e7:7c:8f:
         48:95:ca:91:8a:50:6c:61:a9:e4:13:ff:aa:35:12:0d:f9:b2:
         b6:0a:c8:4b:64:61:70:64:de:b3:b2:73:1a:f3:f5:4c:7a:66:
         10:02:cd:b8:b7:bf:63:20:88:15:61:e4:c7:58:b9:49:f6:5a:
         50:6c:6f:db:70:17:b6:af:b4:5d:fc:11:3a:d1:a7:1e:2a:f0:
         0c:ac:0f:fb:dc:90:e0:f2:bc:de:b3:07:73:d3:11:e2:4f:4b:
         ca:3b:62:bd
-----BEGIN CERTIFICATE-----
MIIEzzCCA7egAwIBAgINDsKzMgts5dOILcyZyzANBgkqhkiG9w0BAQsFADBBMRUw
EwYDVQQDDAxUZXN0IFN1YkNBIDIxDTALBgNVBAsMBFRlc3QxDDAKBgNVBAoMA01U
RzELMAkGA1UEBhMCREUwHhcNMTkxMTAxMDgwMzAxWhcNMjAxMTAxMDgwMzAxWjBw
MQ0wCwYDVQQLDARUZXN0MQwwCgYDVQQKDANNVEcxEjAQBgNVBAcMCURhcm1zdGFk
dDEPMA0GA1UECAwGSGVzc2VuMQswCQYDVQQGEwJERTEfMB0GA1UEYQwWUFNEREUt
QkFGSU4tMTIzNDU2Nzg5MDCCASIwDQYJKoZIhvcNAQEBBQADggEPADCCAQoCggEB
AMINgXG0lAW8z5mKqmII8i5jsh5G+SuFmMOD0M4mrXaPXOdbBSAlJjIZwiSKummj
68oQpPPPtcYe9nBYlluIUmqIQjOFuMYWSE8BRTk/4Wq5BrXvN9t5nlCQV0Nbi8M1
DbNB9BvCSn8YPDktT78rpXEHczMA5Y02nv6PcsVyVgjMhrbvuuL9m1zGLZTtLWQk
d+ZnTWLblC4pjt0desq8aPsVLIBW093nOo+YGBRLEdnEAR+5etDZrWkRBfYOrl/8
zcazy02ujkUYCqjAQBEo3M2feiZnWkeAm9lM99pfbRODGpGS0blE93Jrl0d0cXCA
09Zzv3YzXHC4b4c3Pn6OdeUCAwEAAaOCAZUwggGRMB8GA1UdIwQYMBaAFAxenP66
SyFsBB3CWrfjiF9Z3kwSMB0GA1UdDgQWBBQOa6qDqbJNXIXNsdIvh/cgyzZDOzAO
BgNVHQ8BAf8EBAMCBaAwDAYDVR0TAQH/BAIwADAaBgNVHREEEzARgg93d3cuZXhh
bXBsZS5jb20wYgYIKwYBBQUHAQEEVjBUMCgGCCsGAQUFBzAChhxodHRwOi8vY2Eu
ZXhhbXBsZS5jb20vY2EuY3J0MCgGCCsGAQUFBzABhhxodHRwOi8vb2NzcC5leGFt
cGxlLmNvbS9vY3NwMB8GA1UdIAQYMBYwCQYHBACL7EABBDAJBgcEAIGYJwMBMB0G
A1UdJQQWMBQGCCsGAQUFBwMBBggrBgEFBQcDAjBxBggrBgEFBQcBAwRlMGMwCAYG
BACORgEBMBMGBgQAjkYBBjAJBgcEAI5GAQYDMBUGCCsGAQUFBwsCMAkGBwQAi+xJ
AQIwKwYGBACBmCcCMCEwEzARBgcEAIGYJwECDAZQU1BfUEkMAAwIREUtQkFGSU4w
DQYJKoZIhvcNAQELBQADggEBAE+Iv9mf7sZBgnYSg739dk8uHRPpNnkkO6cxDvaq
q0CxylX66XdUoXMytvjVB1I+C2u5tmCVYcZYtv+Rm1ctA5FPsgbJNb8BkKH7wNC4
Z64YSpdDA5hN3S1tudAKlG0JsXZUpOoevDVqqaONnBeQL9aZSF71nFDiRPWGy/Ox
CCYcQINdgRw6KU66b33Qez9oedRvv9SzAQv265H5ACZXJ+d8j0iVypGKUGxhqeQT
/6o1Eg35srYKyEtkYXBk3rOycxrz9Ux6ZhACzbi3v2MgiBVh5MdYuUn2WlBsb9tw
F7avtF38ETrRpx4q8AysD/vckODyvN6zB3PTEeJPS8o7Yr0=
-----END CERTIFICATE-----
