Certificate:
    Data:
        Version: 3 (0x2)
        Serial Number:
            e0:ba:a0:70:b7:d8:01:2c:e1:5a:6e:f3
        Signature Algorithm: ecdsa-with-SHA256
        Issuer: CN = Lint CA, O = Lint, C = DE
        Validity
            Not Before: May  1 00:00:00 2024 GMT
            Not After : May  1 00:00:00 2025 GMT
        Subject: CN = ZLintTest
        Subject Public Key Info:
            Public Key Algorithm: id-ecPublicKey
                Public-Key: (256 bit)
                pub:
                    04:f3:6d:33:b6:fa:2d:c5:11:06:4a:91:3e:9b:62:
                    f6:50:3a:5b:16:f1:64:5b:5c:fb:28:6f:3d:71:67:
                    1d:5e:cf:2b:9c:cb:38:90:41:6b:c0:23:0f:c7:9f:
                    fc:6d:46:6c:b8:c6:14:c6:a7:cd:73:a6:a5:bc:f6:
                    26:64:23:79:62
                ASN1 OID: prime256v1
                NIST CURVE: P-256
        X509v3 extensions:
            qcStatements: 
                0.0......F..0......F..0......F..
            X509v3 Certificate Policies: critical
                Policy: 0.4.0.194112.1.5
                Policy: 2.23.140.1.2.2
            X509v3 Extended Key Usage: 
                TLS Web Server Authentication
    Signature Algorithm: ecdsa-with-SHA256
    Signature Value:
        30:45:02:21:00:8b:ec:5e:11:72:fd:3f:2c:da:63:8a:66:44:
        be:69:a6:8e:06:4b:e5:44:1c:14:89:19:06:38:e4:55:41:c5:
        e5:02:20:38:61:c2:80:9d:d9:0a:07:89:cb:d7:31:09:d5:44:
        f3:64:be:e8:dc:72:d3:86:1e:00:a1:2d:92:40:ad:87:c0
-----BEGIN CERTIFICATE-----
MIIBpTCCAUugAwIBAgINAOC6oHC32AEs4Vpu8zAKBggqhkjOPQQDAjAuMRAwDgYD
VQQDDAdMaW50IENBMQ0wCwYDVQQKDARMaW50MQswCQYDVQQGEwJERTAeFw0yNDA1
MDEwMDAwMDBaFw0yNTA1MDEwMDAwMDBaMBQxEjAQBgNVBAMMCVpMaW50VGVzdDBZ
MBMGByqGSM49AgEGCCqGSM49AwEHA0IABPNtM7b6LcURBkqRPpti9lA6WxbxZFtc
+yhvPXFnHV7PK5zLOJBBa8AjD8ef/G1GbLjGFManzXOmpbz2JmQjeWKjaDBmMCwG
CCsGAQUFBwEDBCAwHjAIBgYEAI5GAQEwEgYGBACORgEGMAgGBgQAjkYBAjAhBgNV
HSABAf8EFzAVMAkGBwQAi+xAAQUwCAYGZ4EMAQICMBMGA1UdJQQMMAoGCCsGAQUF
BwMBMAoGCCqGSM49BAMCA0gAMEUCIQCL7F4Rcv0/LNpjimZEvmmmjgZL5UQcFIkZ
BjjkVUHF5QIgOGHCgJ3ZCgeJy9cxCdVE82S+6Nxy04YeAKEtkkCth8A=
-----END CERTIFICATE-----
