Certificate:
    Data:
        Version: 3 (0x2)
        Serial Number:
            a2:a3:ac:e5:ce:48:09:93:99:e3:e7:c0
        Signature Algorithm: ecdsa-with-SHA256
        Issuer: CN = Lint CA, O = Lint, C = DE
        Validity
            Not Before: May  1 00:00:00 2025 GMT
            Not After : May  1 00:00:00 2026 GMT
        Subject: CN = ZLintTest
        Subject Public Key Info:
            Public Key Algorithm: id-ecPublicKey
                Public-Key: (256 bit)
                pub:
                    04:b3:78:90:26:e9:48:6f:c8:c5:f6:79:4c:90:77:
                    6b:6f:19:69:c6:ae:7e:ae:4b:f7:b0:ac:40:fd:60:
                    e7:7a:15:dc:90:53:af:af:82:c6:45:64:a0:3c:0c:
                    f4:fe:79:bf:8b:7a:32:0c:1a:3a:56:12:7b:97:c0:
                    52:75:8a:00:d1
                ASN1 OID: prime256v1
                NIST CURVE: P-256
        X509v3 extensions:
            qcStatements: 
                0.0......F..0......F..0......F..
            X509v3 Certificate Policies: critical
                Policy: 0.4.0.194112.1.5
                Policy: 2.23.140.1.2.2
            X509v3 Extended Key Usage: 
                TLS Web Server Authentication
    Signature Algorithm: ecdsa-with-SHA256
    Signature Value:
        30:45:02:20:0d:16:82:52:7f:6e:63:1a:3b:f8:9c:65:a0:e8:
        fa:c3:40:40:12:3e:21:8d:70:43:72:62:1a:a9:e4:c6:42:25:
        02:21:00:81:be:23:f3:7c:05:1c:2b:c4:3b:fe:7f:fc:f9:01:
        06:64:39:d6:64:c2:1b:03:36:4f:63:3a:0b:f1:17:13:2f
-----BEGIN CERTIFICATE-----
MIIBpTCCAUugAwIBAgINAKKjrOXOSAmTmePnwDAKBggqhkjOPQQDAjAuMRAwDgYD
VQQDDAdMaW50IENBMQ0wCwYDVQQKDARMaW50MQswCQYDVQQGEwJERTAeFw0yNTA1
MDEwMDAwMDBaFw0yNjA1MDEwMDAwMDBaMBQxEjAQBgNVBAMMCVpMaW50VGVzdDBZ
MBMGByqGSM49AgEGCCqGSM49AwEHA0IABLN4kCbpSG/IxfZ5TJB3a28Zacaufq5L
97CsQP1g53oV3JBTr6+CxkVkoDwM9P55v4t6MgwaOlYSe5fAUnWKANGjaDBmMCwG
CCsGAQUFBwEDBCAwHjAIBgYEAI5GAQEwEgYGBACORgEGMAgGBgQAjkYBAjAhBgNV
HSABAf8EFzAVMAkGBwQAi+xAAQUwCAYGZ4EMAQICMBMGA1UdJQQMMAoGCCsGAQUF
BwMBMAoGCCqGSM49BAMCA0gAMEUCIA0WglJ/bmMaO/icZaDo+sNAQBI+IY1wQ3Ji
GqnkxkIlAiEAgb4j83wFHCvEO/5//PkBBmQ51mTCGwM2T2M6C/EXEy8=
-----END CERTIFICATE-----
