Certificate:
    Data:
        Version: 3 (0x2)
        Serial Number:
            2d:3e:c7:05:07:02:a6:d3:7c:43:7c:07
        Signature Algorithm: ecdsa-with-SHA256
        Issuer: CN = Lint CA, O = Lint, C = DE
        Validity
            Not Before: May  1 00:00:00 2025 GMT
            Not After : May  1 00:00:00 2026 GMT
        Subject: CN = ZLintTest
        Subject Public Key Info:
            Public Key Algorithm: id-ecPublicKey
                Public-Key: (256 bit)
                pub:
                    04:b8:f4:aa:b9:3f:8a:4d:13:9f:3a:7c:7e:78:ca:
                    23:95:8a:96:d7:ae:41:11:ef:59:4d:d9:98:0d:13:
                    4f:d3:63:58:ef:7a:7b:e4:a9:ec:b7:bd:27:47:44:
                    c7:44:be:43:3e:23:c2:19:bd:57:29:26:46:d5:bf:
                    db:5e:b4:55:15
                ASN1 OID: prime256v1
                NIST CURVE: P-256
        X509v3 extensions:
            qcStatements: 
                0(0......F..0......F..0......F........F...
            X509v3 Certificate Policies: critical
                Policy: 0.4.0.194112.1.5
                Policy: 2.23.140.1.2.2
            X509v3 Extended Key Usage: 
                TLS Web Server Authentication
    Signature Algorithm: ecdsa-with-SHA256
    Signature Value:
        30:45:02:20:19:57:9a:69:be:c6:f0:16:7b:bd:2b:ec:6c:9d:
        1d:32:5a:89:d0:d5:19:17:02:27:3d:bd:f4:c1:ad:5e:e4:90:
        02:21:00:96:90:4c:05:e1:04:8c:5b:f0:4a:89:ea:ad:5b:41:
        cd:72:95:5b:24:fd:bf:c3:04:35:11:51:40:c1:f0:78:54
-----BEGIN CERTIFICATE-----
MIIBrjCCAVSgAwIBAgIMLT7HBQcCptN8Q3wHMAoGCCqGSM49BAMCMC4xEDAOBgNV
BAMMB0xpbnQgQ0ExDTALBgNVBAoMBExpbnQxCzAJBgNVBAYTAkRFMB4XDTI1MDUw
MTAwMDAwMFoXDTI2MDUwMTAwMDAwMFowFDESMBAGA1UEAwwJWkxpbnRUZXN0MFkw
EwYHKoZIzj0CAQYIKoZIzj0DAQcDQgAEuPSquT+KTROfOnx+eMojlYqW165BEe9Z
TdmYDRNP02NY73p75Knst70nR0THRL5DPiPCGb1XKSZG1b/bXrRVFaNyMHAwNgYI
KwYBBQUHAQMEKjAoMAgGBgQAjkYBATAcBgYEAI5GAQYwEgYHBACORgEGAgYHBACO
RgEGAzAhBgNVHSABAf8EFzAVMAkGBwQAi+xAAQUwCAYGZ4EMAQICMBMGA1UdJQQM
MAoGCCsGAQUFBwMBMAoGCCqGSM49BAMCA0gAMEUCIBlXmmm+xvAWe70r7GydHTJa
idDVGRcCJz299MGtXuSQAiEAlpBMBeEEjFvwSonqrVtBzXKVWyT9v8MENRFRQMHw
eFQ=
-----END CERTIFICATE-----
