Certificate:
    Data:
        Version: 3 (0x2)
        Serial Number:
            11:60:63:87:27:48:3f:15:a9:12:4c:82
        Signature Algorithm: ecdsa-with-SHA256
        Issuer: CN = Lint CA, O = Lint, C = DE
        Validity
            Not Before: May  1 00:00:00 2025 GMT
            Not After : May  1 00:00:00 2026 GMT
        Subject: CN = ZLintTest
        Subject Public Key Info:
            Public Key Algorithm: id-ecPublicKey
                Public-Key: (256 bit)
                pub:
                    04:7a:8e:d6:60:bf:c2:37:80:56:b4:c3:75:ad:09:
                    cb:89:ea:73:6e:33:b1:4f:42:60:aa:46:6e:df:27:
                    00:bb:89:59:35:36:b7:20:e4:c8:c0:e8:eb:d1:b1:
                    9b:32:4e:e3:8f:50:74:a8:29:57:4b:95:9e:d1:a5:
                    59:74:7f:13:8d
                ASN1 OID: prime256v1
                NIST CURVE: P-256
        X509v3 extensions:
            qcStatements: 
                0.0......F..0......F..0......F...
            X509v3 Certificate Policies: critical
                Policy: 0.4.0.194112.1.5
                Policy: 2.23.140.1.2.2
            X509v3 Extended Key Usage: 
                TLS Web Server Authentication
    Signature Algorithm: ecdsa-with-SHA256
    Signature Value:
        30:44:02:20:7c:6c:69:da:f7:29:37:40:f0:3b:cf:71:71:18:
        ca:ab:e2:f7:e2:35:90:96:c9:7d:00:55:87:64:a4:62:97:65:
        02:20:2b:b3:c5:42:63:a9:4c:c8:2c:21:1f:67:cf:c4:5a:71:
        b8:9e:53:e4:58:6a:ad:55:b0:75:1c:c5:d5:7f:b9:01
-----BEGIN CERTIFICATE-----
MIIBpDCCAUugAwIBAgIMEWBjhydIPxWpEkyCMAoGCCqGSM49BAMCMC4xEDAOBgNV
BAMMB0xpbnQgQ0ExDTALBgNVBAoMBExpbnQxCzAJBgNVBAYTAkRFMB4XDTI1MDUw
MTAwMDAwMFoXDTI2MDUwMTAwMDAwMFowFDESMBAGA1UEAwwJWkxpbnRUZXN0MFkw
EwYHKoZIzj0CAQYIKoZIzj0DAQcDQgAEeo7WYL/CN4BWtMN1rQnLiepzbjOxT0Jg
qkZu3ycAu4lZNTa3IOTIwOjr0bGbMk7jj1B0qClXS5We0aVZdH8TjaNpMGcwLQYI
KwYBBQUHAQMEITAfMAgGBgQAjkYBATATBgYEAI5GAQYwCQYHBACORgEGAjAhBgNV
HSABAf8EFzAVMAkGBwQAi+xAAQUwCAYGZ4EMAQICMBMGA1UdJQQMMAoGCCsGAQUF
BwMBMAoGCCqGSM49BAMCA0cAMEQCIHxsadr3KTdA8DvPcXEYyqvi9+I1kJbJfQBV
h2SkYpdlAiArs8VCY6lMyCwhH2fPxFpxuJ5T5FhqrVWwdRzF1X+5AQ==
-----END CERTIFICATE-----
