Certificate:
    Data:
        Version: 3 (0x2)
        Serial Number:
            d8:b1:0b:31:bf:60:ad:2f
        Signature Algorithm: sha256WithRSAEncryption
        Issuer: C = AU, ST = AU, L = AU, O = Au, OU = AU, CN = Au, emailAddress = Au
        Validity
            Not Before: Aug 22 01:56:53 2017 GMT
            Not After : Aug 17 01:56:53 2037 GMT
        Subject: C = AU, ST = AU, L = AU, O = Au, OU = AU, CN = Au, emailAddress = Au
        Subject Public Key Info:
            Public Key Algorithm: rsaEncryption
                RSA Public-Key: (4096 bit)
                Modulus:
                    00:c0:51:b9:99:af:22:27:16:f7:b1:b5:31:40:78:
                    0e:48:c2:8e:a9:95:0d:9a:64:88:9f:7f:1b:35:f3:
                    c2:78:8b:88:94:28:d6:d2:e1:99:02:fb:d2:3d:ab:
                    65:97:75:0e:bc:75:df:aa:a9:07:c5:56:ba:60:ef:
                    3c:0f:39:29:6e:d5:21:6b:3c:7a:28:23:17:cc:9b:
                    0c:1f:64:66:02:20:18:38:01:70:31:ba:4f:8f:08:
                    da:41:d0:c7:45:b8:4c:a4:65:2a:ca:de:e4:69:04:
                    e2:15:94:60:3f:a9:e3:32:86:fa:f1:2a:3f:f8:fc:
                    25:bf:7f:ed:a8:76:f0:a5:15:74:8e:9e:df:5a:75:
                    5c:1a:64:6e:01:f9:f1:51:be:cc:4b:f1:b9:75:15:
                    a9:1f:10:b5:ec:ea:65:d5:9e:87:48:04:3a:06:7d:
                    5e:69:0e:2d:da:63:a1:6f:ac:58:a7:e0:f9:ab:b1:
                    cf:04:80:a6:f3:0e:85:32:13:25:90:37:a0:be:d1:
                    f9:c9:80:8f:ad:4a:4d:4f:33:b8:e9:71:7c:cb:82:
                    39:3e:12:72:10:c3:f2:c3:96:0f:b4:97:08:c9:96:
                    bc:42:be:a2:08:9e:9e:95:af:e9:ab:e5:2f:e5:29:
                    d0:22:aa:96:21:3a:76:54:c0:1a:5e:5b:bc:b8:23:
                    27:8d:aa:b4:77:91:a5:d0:30:20:e8:ca:71:a3:cf:
                    37:7f:2f:a7:ba:12:b8:39:cc:23:47:a6:71:8e:ae:
                    91:b5:4b:bb:e1:8e:8b:6e:92:4e:52:bb:3f:ec:48:
                    22:47:b8:1f:a0:c7:83:5a:e8:d8:42:b2:d4:3a:19:
                    f1:9d:b0:dc:a6:07:fe:79:15:94:52:c7:c0:31:f1:
                    83:13:23:8a:d5:77:3c:16:ef:e7:f9:f0:de:21:0f:
                    e1:ea:30:d4:91:24:0e:0d:02:39:df:c1:0b:63:76:
                    9c:a2:42:7f:63:75:f9:eb:87:f4:d7:93:d9:35:cc:
                    7e:d7:9b:b4:35:83:eb:91:41:17:23:bc:58:d9:48:
                    6e:4e:f2:27:d3:24:0f:9d:5a:61:d7:71:ed:53:7b:
                    83:74:91:ad:80:ce:5c:e2:b2:71:b3:a2:7a:85:ee:
                    56:ba:4b:3c:c9:ce:1d:99:2a:0e:85:00:26:1d:53:
                    09:10:ef:42:c5:a9:9f:35:9c:bc:88:c5:2b:50:12:
                    f3:04:96:25:87:51:7f:15:02:fc:ce:83:2d:83:54:
                    c9:80:b1:60:ad:43:31:40:8b:fe:c1:0c:4b:e6:9a:
                    01:69:cd:18:6e:63:e8:4d:b1:a7:80:c4:65:89:e7:
                    dc:2c:71:70:11:89:c7:25:01:cb:a1:84:e6:cf:8f:
                    06:9b:c7
                Exponent: 65537 (0x10001)
        X509v3 extensions:
            X509v3 Subject Key Identifier: 
                37:DD:8C:34:3B:F8:EC:65:9D:50:F8:ED:FB:FF:89:BA:BF:1C:D9:58
            X509v3 Authority Key Identifier: 
                keyid:37:DD:8C:34:3B:F8:EC:65:9D:50:F8:ED:FB:FF:89:BA:BF:1C:D9:58

            X509v3 Basic Constraints: critical
                CA:TRUE
            X509v3 Key Usage: 
                Digital Signature, Certificate Sign, CRL Sign
    Signature Algorithm: sha256WithRSAEncryption
         72:48:af:03:0b:53:b3:9c:c8:f5:68:f3:86:a6:34:28:fc:9e:
         af:90:eb:92:3c:b0:f4:6b:4a:05:10:40:bd:6e:0d:5d:c9:cf:
         a1:c2:1c:fc:fc:99:98:d3:fe:34:6e:1d:86:6c:8d:aa:55:b0:
         43:96:ef:e4:d0:ae:22:e9:82:64:57:76:03:de:b8:78:3f:be:
         be:48:a8:b0:b7:9f:3c:2d:ac:ea:fb:20:8f:65:18:0d:64:54:
         64:5b:2f:ed:a3:b3:5c:bf:ca:87:a5:88:f8:55:60:64:ee:ac:
         13:65:c7:3c:7c:1d:7b:61:1b:2a:99:e3:eb:44:d5:30:77:aa:
         c0:39:ef:c1:a2:39:a2:1c:9a:7c:96:a8:04:83:38:63:6e:be:
         c5:63:ff:61:d8:65:08:92:33:4c:b4:80:50:03:da:45:ad:fe:
         08:1b:06:6e:91:4d:49:74:f9:cf:cd:eb:96:29:f7:dd:39:f8:
         3a:8b:08:af:bc:58:34:48:b7:ac:05:54:c6:fb:60:09:39:b9:
         9c:43:59:ee:8d:6d:1e:b4:96:59:4e:53:fd:c4:78:73:e5:ab:
         59:06:1f:c5:1c:6c:56:72:fb:ce:1c:af:5c:f7:f3:2f:d4:b1:
         cc:66:bb:37:f0:d5:f7:c8:bb:80:b3:08:60:cf:4a:05:9e:81:
         75:53:da:d1:73:50:c1:97:67:21:20:0d:97:a9:9d:a8:8f:81:
         2a:49:b3:3c:a7:15:ca:1a:6f:59:8a:94:14:97:e5:3d:6a:b7:
         38:20:f0:64:d2:0c:c7:cc:c9:db:81:4f:e9:e5:4b:be:ec:0e:
         0f:8a:15:a8:51:70:ee:b4:50:a3:05:df:64:47:48:18:a3:d3:
         b2:d5:16:41:6f:24:9c:f2:d6:b4:d8:87:93:ba:32:fb:8b:92:
         74:ef:62:23:43:18:a4:d1:b1:34:b0:19:bf:1e:d9:cc:42:2f:
         42:ec:f6:a3:a5:78:ef:c4:b1:17:db:94:f0:9f:5b:a8:3e:49:
         9f:e3:bc:0e:50:a7:00:06:3d:cb:91:cc:04:17:a0:43:76:86:
         f6:2f:4d:08:28:a4:4d:1e:ae:67:06:d1:44:66:4d:92:00:45:
         e3:f3:9b:c3:5a:4c:d4:9b:9c:15:88:83:a1:ba:29:2b:0b:c4:
         f5:3d:28:4f:47:e0:4d:82:c5:8b:17:0a:ae:f4:c1:93:71:d9:
         2a:05:d7:e5:ec:bb:32:da:09:e2:3e:1a:e6:a9:08:b7:4e:3a:
         7d:e3:e7:f4:c9:7f:3d:2e:36:55:d8:89:9c:2b:d1:bf:69:a6:
         95:aa:6d:11:7e:f5:43:31:ef:18:80:18:dc:92:f1:e9:f1:00:
         df:92:8b:9f:33:d0:fe:01
-----BEGIN CERTIFICATE-----
MIIFpTCCA42gAwIBAgIJANixCzG/YK0vMA0GCSqGSIb3DQEBCwUAMGExCzAJBgNV
BAYTAkFVMQswCQYDVQQIDAJBVTELMAkGA1UEBwwCQVUxCzAJBgNVBAoMAkF1MQsw
CQYDVQQLDAJBVTELMAkGA1UEAwwCQXUxETAPBgkqhkiG9w0BCQEWAkF1MB4XDTE3
MDgyMjAxNTY1M1oXDTM3MDgxNzAxNTY1M1owYTELMAkGA1UEBhMCQVUxCzAJBgNV
BAgMAkFVMQswCQYDVQQHDAJBVTELMAkGA1UECgwCQXUxCzAJBgNVBAsMAkFVMQsw
CQYDVQQDDAJBdTERMA8GCSqGSIb3DQEJARYCQXUwggIiMA0GCSqGSIb3DQEBAQUA
A4ICDwAwggIKAoICAQDAUbmZryInFvextTFAeA5Iwo6plQ2aZIiffxs188J4i4iU
KNbS4ZkC+9I9q2WXdQ68dd+qqQfFVrpg7zwPOSlu1SFrPHooIxfMmwwfZGYCIBg4
AXAxuk+PCNpB0MdFuEykZSrK3uRpBOIVlGA/qeMyhvrxKj/4/CW/f+2odvClFXSO
nt9adVwaZG4B+fFRvsxL8bl1FakfELXs6mXVnodIBDoGfV5pDi3aY6FvrFin4Pmr
sc8EgKbzDoUyEyWQN6C+0fnJgI+tSk1PM7jpcXzLgjk+EnIQw/LDlg+0lwjJlrxC
vqIInp6Vr+mr5S/lKdAiqpYhOnZUwBpeW7y4IyeNqrR3kaXQMCDoynGjzzd/L6e6
Erg5zCNHpnGOrpG1S7vhjotukk5Suz/sSCJHuB+gx4Na6NhCstQ6GfGdsNymB/55
FZRSx8Ax8YMTI4rVdzwW7+f58N4hD+HqMNSRJA4NAjnfwQtjdpyiQn9jdfnrh/TX
k9k1zH7Xm7Q1g+uRQRcjvFjZSG5O8ifTJA+dWmHXce1Te4N0ka2AzlzisnGzonqF
7la6SzzJzh2ZKg6FACYdUwkQ70LFqZ81nLyIxStQEvMEliWHUX8VAvzOgy2DVMmA
sWCtQzFAi/7BDEvmmgFpzRhuY+hNsaeAxGWJ59wscXARicclAcuhhObPjwabxwID
AQABo2AwXjAdBgNVHQ4EFgQUN92MNDv47GWdUPjt+/+Jur8c2VgwHwYDVR0jBBgw
FoAUN92MNDv47GWdUPjt+/+Jur8c2VgwDwYDVR0TAQH/BAUwAwEB/zALBgNVHQ8E
BAMCAYYwDQYJKoZIhvcNAQELBQADggIBAHJIrwMLU7OcyPVo84amNCj8nq+Q65I8
sPRrSgUQQL1uDV3Jz6HCHPz8mZjT/jRuHYZsjapVsEOW7+TQriLpgmRXdgPeuHg/
vr5IqLC3nzwtrOr7II9lGA1kVGRbL+2js1y/yoeliPhVYGTurBNlxzx8HXthGyqZ
4+tE1TB3qsA578GiOaIcmnyWqASDOGNuvsVj/2HYZQiSM0y0gFAD2kWt/ggbBm6R
TUl0+c/N65Yp9905+DqLCK+8WDRIt6wFVMb7YAk5uZxDWe6NbR60lllOU/3EeHPl
q1kGH8UcbFZy+84cr1z38y/Uscxmuzfw1ffIu4CzCGDPSgWegXVT2tFzUMGXZyEg
DZepnaiPgSpJszynFcoab1mKlBSX5T1qtzgg8GTSDMfMyduBT+nlS77sDg+KFahR
cO60UKMF32RHSBij07LVFkFvJJzy1rTYh5O6MvuLknTvYiNDGKTRsTSwGb8e2cxC
L0Ls9qOleO/EsRfblPCfW6g+SZ/jvA5QpwAGPcuRzAQXoEN2hvYvTQgopE0ermcG
0URmTZIARePzm8NaTNSbnBWIg6G6KSsLxPU9KE9H4E2CxYsXCq70wZNx2SoF1+Xs
uzLaCeI+GuapCLdOOn3j5/TJfz0uNlXYiZwr0b9pppWqbRF+9UMx7xiAGNyS8enx
AN+Si58z0P4B
-----END CERTIFICATE-----
