Certificate:
    Data:
        Version: 3 (0x2)
        Serial Number: 3 (0x3)
        Signature Algorithm: ecdsa-with-SHA256
        Issuer:
        Validity
            Not Before: May  1 00:00:00 2008 GMT
            Not After : Nov 30 00:00:00 9998 GMT
        Subject:
        Subject Public Key Info:
            Public Key Algorithm: rsaEncryption
                RSA Public-Key: (1024 bit)
                Modulus:
                    00:dc:c6:fd:da:ed:19:03:e5:6e:36:13:c6:39:bf:
                    85:5a:d8:c0:34:d9:67:36:32:20:78:03:01:73:6b:
                    e6:40:da:25:8e:ae:2c:29:81:7a:77:d8:22:16:9c:
                    a0:8c:47:e9:67:45:5c:95:42:d1:8c:1c:cc:87:31:
                    7c:43:09:75:f8:9e:96:dc:e7:5e:44:29:4c:6d:28:
                    5c:96:75:aa:b0:98:07:a9:53:9f:dd:d1:a4:68:af:
                    ba:08:a2:23:f1:0d:c5:1f:c0:09:62:5a:9b:c6:ef:
                    43:b0:65:6f:8c:2a:75:e6:66:61:93:2a:29:04:a3:
                    c3:9d:f8:63:d1:a8:8e:3f:1f
                Exponent: 65537 (0x10001)
    Signature Algorithm: ecdsa-with-SHA256
         30:44:02:20:3b:3e:1b:e0:49:9b:f6:23:7d:a6:ee:9c:f8:45:
         97:89:a2:9c:cb:2d:e9:09:73:70:52:df:c4:a2:a9:df:f9:8f:
         02:20:14:b2:1a:2e:f3:a2:f3:ae:27:4d:41:51:91:f7:e9:f0:
         01:db:bf:63:6d:31:49:7a:c0:49:7d:bd:d6:cf:f3:51
-----BEGIN CERTIFICATE-----
MIIBODCB4KADAgECAgEDMAoGCCqGSM49BAMCMAAwIBcNMDgwNTAxMDAwMDAwWhgP
OTk5ODExMzAwMDAwMDBaMAAwgZ8wDQYJKoZIhvcNAQEBBQADgY0AMIGJAoGBANzG
/drtGQPlbjYTxjm/hVrYwDTZZzYyIHgDAXNr5kDaJY6uLCmBenfYIhacoIxH6WdF
XJVC0YwczIcxfEMJdfieltznXkQpTG0oXJZ1qrCYB6lTn93RpGivugiiI/ENxR/A
CWJam8bvQ7Blb4wqdeZmYZMqKQSjw534Y9Gojj8fAgMBAAGjAjAAMAoGCCqGSM49
BAMCA0cAMEQCIDs+G+BJm/YjfabunPhFl4minMst6QlzcFLfxKKp3/mPAiAUshou
86LzridNQVGR9+nwAdu/Y20xSXrASX291s/zUQ==
-----END CERTIFICATE-----
