Certificate:
    Data:
        Version: 3 (0x2)
        Serial Number: 1653 (0x675)
        Signature Algorithm: sha256WithRSAEncryption
        Issuer: CN = RSA cert with key params
        Validity
            Not Before: May 31 22:45:59 2019 GMT
            Not After : May 31 22:45:59 2029 GMT
        Subject: CN = RSA cert with key params
        Subject Public Key Info:
            Public Key Algorithm: rsaEncryption
                RSA Public-Key: (2048 bit)
                Modulus:
                    00:b6:f0:2a:b9:97:ef:3e:2f:6d:f8:ca:5f:61:48:
                    fb:3e:af:66:de:90:59:3d:1a:d9:cd:a8:19:2f:21:
                    07:0f:41:2d:69:15:d4:c3:60:13:aa:34:bd:7b:9f:
                    58:76:9e:93:9c:ef:f0:fe:0c:e6:59:fa:07:26:ec:
                    cc:f0:11:c9:cf:00:3c:20:b6:41:72:fd:5a:79:70:
                    98:6c:86:d3:5b:91:f8:b7:d4:8c:81:c7:41:ff:9f:
                    81:1e:c8:4e:a3:3a:e8:4e:eb:c4:a3:61:45:98:83:
                    92:49:b3:45:2a:75:b4:05:7a:f5:23:c0:47:73:66:
                    14:d6:1e:51:72:40:7f:80:80:60:46:6e:f8:56:c2:
                    11:4f:e7:1f:b1:c4:82:18:77:45:70:6e:13:f8:f1:
                    68:6c:f8:bf:c7:07:9f:e2:05:c9:02:1b:0c:7d:8c:
                    47:59:81:9f:89:a5:b9:dd:ef:9f:8e:10:22:cb:af:
                    f8:fe:b5:e8:cd:95:2d:6a:0c:84:d9:25:56:ed:c6:
                    9c:06:2f:a2:9c:95:01:40:55:a3:24:df:23:86:f9:
                    07:7d:0e:48:70:9a:7e:d2:ac:3f:a0:5f:8b:7f:ba:
                    92:03:e2:20:e6:c7:8d:38:0e:5b:4e:0b:40:09:4c:
                    41:3c:7f:ed:40:8b:d0:7d:74:d3:43:26:90:0f:54:
                    a8:77
                Exponent: 65537 (0x10001)
        X509v3 extensions:
            X509v3 Key Usage: critical
                Digital Signature
            X509v3 Extended Key Usage: 
                TLS Web Client Authentication, TLS Web Server Authentication
    Signature Algorithm: sha256WithRSAEncryption
         6c:f7:6e:69:73:c1:8b:cd:58:50:6d:38:c6:68:70:5f:a2:bc:
         8d:1e:70:dc:9b:71:e1:0a:20:6f:50:cf:d3:92:f7:0a:29:52:
         fe:f9:cd:6e:9a:8a:94:e5:8e:65:e8:97:19:2b:84:1a:78:cc:
         37:28:36:81:d3:8d:87:4d:49:9c:3a:92:17:75:05:ff:dc:f5:
         6d:ac:ec:88:7d:58:fe:fa:eb:d4:e9:5c:8f:71:84:bd:c1:8c:
         ec:4a:70:a1:ba:d6:59:aa:cb:55:61:1b:76:34:bb:24:d3:b0:
         bd:ee:78:ec:a5:e9:50:13:36:85:bb:49:34:88:bf:a1:91:05:
         b6:5a:ef:1d:23:56:0c:5f:ed:6f:7a:6c:97:08:d5:86:b7:7f:
         de:24:3a:d4:35:1c:9f:30:88:69:07:54:b3:ff:5f:b6:dd:c6:
         8a:54:a8:55:94:6a:da:b1:72:6f:b6:f7:59:da:78:df:0f:50:
         92:c2:f2:28:41:db:6b:2c:fb:21:38:1b:55:35:a4:78:a1:9b:
         c7:a1:a8:6f:66:73:db:2d:ab:59:2a:a8:0f:ee:f3:d3:72:66:
         8e:9a:95:76:1a:7d:59:9c:00:07:ba:71:31:e4:8e:55:50:ca:
         b6:c0:67:d3:79:28:50:dc:bb:0e:7b:b3:06:cb:44:0d:02:ed:
         85:32:58:8e
-----BEGIN CERTIFICATE-----
MIIDJzCCAg+gAwIBAgICBnUwDQYJKoZIhvcNAQELBQAwIzEhMB8GA1UEAxMYUlNB
IGNlcnQgd2l0aCBrZXkgcGFyYW1zMB4XDTE5MDUzMTIyNDU1OVoXDTI5MDUzMTIy
NDU1OVowIzEhMB8GA1UEAxMYUlNBIGNlcnQgd2l0aCBrZXkgcGFyYW1zMIIBVjBB
BgkqhkiG9w0BAQEwNKAPMA0GCWCGSAFlAwQCAQUAoRwwGgYJKoZIhvcNAQEIMA0G
CWCGSAFlAwQCAQUAogMCAUADggEPADCCAQoCggEBALbwKrmX7z4vbfjKX2FI+z6v
Zt6QWT0a2c2oGS8hBw9BLWkV1MNgE6o0vXufWHaek5zv8P4M5ln6BybszPARyc8A
PCC2QXL9WnlwmGyG01uR+LfUjIHHQf+fgR7ITqM66E7rxKNhRZiDkkmzRSp1tAV6
9SPAR3NmFNYeUXJAf4CAYEZu+FbCEU/nH7HEghh3RXBuE/jxaGz4v8cHn+IFyQIb
DH2MR1mBn4mlud3vn44QIsuv+P616M2VLWoMhNklVu3GnAYvopyVAUBVoyTfI4b5
B30OSHCaftKsP6Bfi3+6kgPiIObHjTgOW04LQAlMQTx/7UCL0H1000MmkA9UqHcC
AwEAAaMxMC8wDgYDVR0PAQH/BAQDAgeAMB0GA1UdJQQWMBQGCCsGAQUFBwMCBggr
BgEFBQcDATANBgkqhkiG9w0BAQsFAAOCAQEAbPduaXPBi81YUG04xmhwX6K8jR5w
3Jtx4Qogb1DP05L3CilS/vnNbpqKlOWOZeiXGSuEGnjMNyg2gdONh01JnDqSF3UF
/9z1bazsiH1Y/vrr1Olcj3GEvcGM7EpwobrWWarLVWEbdjS7JNOwve547KXpUBM2
hbtJNIi/oZEFtlrvHSNWDF/tb3pslwjVhrd/3iQ61DUcnzCIaQdUs/9ftt3GilSo
VZRq2rFyb7b3Wdp43w9QksLyKEHbayz7ITgbVTWkeKGbx6Gob2Zz2y2rWSqoD+7z
03JmjpqVdhp9WZwAB7pxMeSOVVDKtsBn03koUNy7DnuzBstEDQLthTJYjg==
-----END CERTIFICATE-----