Certificate:
    Data:
        Version: 3 (0x2)
        Serial Number: 256 (0x100)
        Signature Algorithm: rsassaPss         
         Hash Algorithm: sha512
         Mask Algorithm: mgf1 with sha512
          Salt Length: 0x40
         Trailer Field: 0xBC (default)
        Issuer: CN = Lint CA, OU = Test, O = MTG, C = DE
        Validity
            Not Before: Jan  2 09:00:00 2020 GMT
            Not After : Jan  2 09:00:00 2022 GMT
        Subject: CN = PSS Certificate, C = DE
        Subject Public Key Info:
            Public Key Algorithm: rsaEncryption
                RSA Public-Key: (2048 bit)
                Modulus:
                    00:8d:e5:f5:05:c4:fd:c0:c8:e4:42:fc:d3:d9:85:
                    e0:d5:da:12:96:b0:d4:de:6b:0b:4b:ab:99:43:61:
                    0b:e4:11:80:fc:5d:40:c7:0e:f9:e2:25:86:14:74:
                    64:58:5e:8c:4a:bc:10:11:7f:ad:82:f3:a2:5e:3e:
                    59:6f:1c:5e:5f:d8:2e:1f:17:d5:00:bc:97:68:56:
                    8c:5a:ac:20:4c:b4:51:60:54:96:8d:09:ff:20:bc:
                    ce:df:8c:3f:b5:f1:6b:eb:5e:6d:0e:60:f7:df:fe:
                    5e:0c:d3:99:d5:1b:57:b9:2c:f7:77:2c:18:d1:20:
                    07:9f:ee:ef:84:b4:3d:c1:53:de:8f:2a:5e:a9:7c:
                    5d:12:69:b9:a8:1c:4a:28:78:fc:6d:3a:46:35:79:
                    3f:c7:51:82:61:ac:89:5f:d9:6a:de:40:34:14:98:
                    b6:19:ea:43:f3:08:ab:49:e2:6e:81:9f:ad:41:29:
                    64:ed:6c:4f:41:44:e6:6b:62:1a:5c:77:bb:38:3f:
                    30:02:3e:c0:16:f6:6b:24:3a:a9:30:77:51:f6:f6:
                    b8:25:7c:6e:b8:51:b1:98:d7:55:aa:03:3b:7d:03:
                    6f:b7:4a:72:93:b4:d9:3d:93:22:3f:eb:b5:47:53:
                    c4:7d:21:3d:c2:b8:73:02:87:64:ed:de:8e:1a:03:
                    10:e5
                Exponent: 65537 (0x10001)
    Signature Algorithm: rsassaPss         
         Hash Algorithm: sha512
         Mask Algorithm: mgf1 with sha512
          Salt Length: 0x40
         Trailer Field: 0xBC (default)

         52:51:e8:d1:c8:af:9f:22:75:3b:e2:8a:7e:13:76:0f:51:87:
         6d:8a:df:32:a1:f0:73:6d:83:ac:66:e8:96:47:da:fe:0f:e5:
         23:cd:06:a4:13:9d:bd:d4:f0:40:7a:e2:db:e6:63:7d:68:da:
         fb:1a:b4:b3:d5:26:fa:15:6a:82:68:2f:67:eb:3f:0d:f5:ab:
         e6:0a:45:30:f8:79:61:d9:1e:70:ff:a0:ff:c9:03:0f:7d:94:
         11:8c:b8:57:c2:08:9f:af:b4:9a:1b:50:d4:9f:7b:b3:93:fe:
         26:3b:4b:93:a4:e8:bb:e0:6b:a6:f9:16:21:8a:54:f6:89:99:
         49:3d:11:a2:78:54:30:65:8d:9d:fb:46:e1:14:a3:27:3a:11:
         52:64:ee:28:bd:b6:ab:bf:80:cb:ee:7d:84:1f:b1:2d:94:a9:
         8b:33:e5:18:f2:32:49:36:a9:f0:1e:0c:4a:c5:40:21:9a:af:
         bf:b5:f2:be:72:d4:cf:14:c4:d0:55:cc:6f:bf:2d:1b:13:4c:
         68:b8:09:61:4b:6e:80:fc:d1:9e:12:6e:d7:7f:de:4e:05:bf:
         d5:0d:a0:af:c7:48:63:70:6e:85:3b:be:47:61:97:69:79:4c:
         07:33:1e:3a:f7:38:c8:16:ef:26:62:11:2e:45:e4:3a:ac:f7:
         8a:28:af:a0
-----BEGIN CERTIFICATE-----
MIIDPTCCAfWgAwIBAgICAQAwPQYJKoZIhvcNAQEKMDCgDTALBglghkgBZQMEAgOh
GjAYBgkqhkiG9w0BAQgwCwYJYIZIAWUDBAIDogMCAUAwPDEQMA4GA1UEAwwHTGlu
dCBDQTENMAsGA1UECwwEVGVzdDEMMAoGA1UECgwDTVRHMQswCQYDVQQGEwJERTAe
Fw0yMDAxMDIwOTAwMDBaFw0yMjAxMDIwOTAwMDBaMCcxGDAWBgNVBAMMD1BTUyBD
ZXJ0aWZpY2F0ZTELMAkGA1UEBhMCREUwggEiMA0GCSqGSIb3DQEBAQUAA4IBDwAw
ggEKAoIBAQCN5fUFxP3AyORC/NPZheDV2hKWsNTeawtLq5lDYQvkEYD8XUDHDvni
JYYUdGRYXoxKvBARf62C86JePllvHF5f2C4fF9UAvJdoVoxarCBMtFFgVJaNCf8g
vM7fjD+18WvrXm0OYPff/l4M05nVG1e5LPd3LBjRIAef7u+EtD3BU96PKl6pfF0S
abmoHEooePxtOkY1eT/HUYJhrIlf2WreQDQUmLYZ6kPzCKtJ4m6Bn61BKWTtbE9B
ROZrYhpcd7s4PzACPsAW9mskOqkwd1H29rglfG64UbGY11WqAzt9A2+3SnKTtNk9
kyI/67VHU8R9IT3CuHMCh2Tt3o4aAxDlAgMBAAEwPQYJKoZIhvcNAQEKMDCgDTAL
BglghkgBZQMEAgOhGjAYBgkqhkiG9w0BAQgwCwYJYIZIAWUDBAIDogMCAUADggEB
AFJR6NHIr58idTviin4Tdg9Rh22K3zKh8HNtg6xm6JZH2v4P5SPNBqQTnb3U8EB6
4tvmY31o2vsatLPVJvoVaoJoL2frPw31q+YKRTD4eWHZHnD/oP/JAw99lBGMuFfC
CJ+vtJobUNSfe7OT/iY7S5Ok6Lvga6b5FiGKVPaJmUk9EaJ4VDBljZ37RuEUoyc6
EVJk7ii9tqu/gMvufYQfsS2UqYsz5RjyMkk2qfAeDErFQCGar7+18r5y1M8UxNBV
zG+/LRsTTGi4CWFLboD80Z4Sbtd/3k4Fv9UNoK/HSGNwboU7vkdhl2l5TAczHjr3
OMgW7yZiES5F5Dqs94oor6A=
-----END CERTIFICATE-----
