Certificate:
    Data:
        Version: 3 (0x2)
        Serial Number: 256 (0x100)
        Signature Algorithm: rsassaPss         
         Hash Algorithm: sha256
         Mask Algorithm: mgf1 with sha256
          Salt Length: 0x11
         Trailer Field: 0xBC (default)
        Issuer: CN = Lint CA, OU = Test, O = MTG, C = DE
        Validity
            Not Before: Jan  2 09:00:00 2020 GMT
            Not After : Jan  2 09:00:00 2022 GMT
        Subject: CN = PSS Certificate, C = DE
        Subject Public Key Info:
            Public Key Algorithm: rsaEncryption
                RSA Public-Key: (2048 bit)
                Modulus:
                    00:b7:2e:fa:3e:af:af:b3:dc:af:6f:ea:3b:e8:f3:
                    04:92:90:67:e5:f0:e2:db:b9:1e:8f:92:96:a6:4b:
                    f1:56:70:85:88:e7:69:07:72:b0:4d:40:e6:e9:d8:
                    dc:94:03:b3:14:2f:f1:78:58:69:07:6d:e4:d4:10:
                    c2:ac:23:05:ab:a9:d1:05:81:be:12:77:51:7a:83:
                    bd:b0:2b:6b:8e:5f:c4:c5:d8:dd:cd:fe:4e:c8:46:
                    e9:e2:3e:d4:99:3c:2d:bb:34:3d:29:90:de:4b:93:
                    29:67:10:ac:b8:1e:25:83:a2:14:bb:7b:f7:f4:7e:
                    24:d6:89:e9:2d:3b:8d:a4:99:48:94:9a:16:31:22:
                    71:94:e6:fe:ac:1f:35:2c:74:57:50:eb:a6:e3:e5:
                    07:fd:b4:a8:58:f4:c1:94:a8:4c:5c:7b:6a:a3:65:
                    a6:8f:a1:3c:d0:12:1f:7b:40:49:aa:6d:f1:f0:71:
                    f8:84:61:d4:60:d6:78:9a:7a:9e:48:29:d0:f8:8a:
                    85:a2:ab:92:ed:44:c3:b4:a4:30:7d:e1:d6:8e:e5:
                    3f:3b:00:c8:a5:a0:d0:88:39:8a:e2:28:94:89:ee:
                    50:9e:65:7c:09:43:38:15:c5:31:c3:21:49:59:c3:
                    ae:87:f0:86:5e:52:fb:16:00:80:49:07:9b:10:22:
                    95:f9
                Exponent: 65537 (0x10001)
    Signature Algorithm: rsassaPss         
         Hash Algorithm: sha256
         Mask Algorithm: mgf1 with sha256
          Salt Length: 0x11
         Trailer Field: 0xBC (default)

         3e:7a:4c:41:a7:c4:d6:e5:06:2c:43:14:28:ce:b3:38:24:06:
         52:d6:be:fe:bc:77:28:f8:25:ac:2c:c0:8f:68:a9:f3:6a:e3:
         5d:ab:dd:e6:d5:6a:9d:d2:a5:f3:ce:07:2e:cc:26:97:99:9e:
         6c:ad:46:32:dc:55:23:4a:31:1e:61:a5:73:28:37:b2:47:60:
         0c:3f:5f:57:cc:8e:a5:53:09:2b:cc:3f:2b:ca:ed:3d:f5:ca:
         7e:df:65:0c:4d:12:b7:0e:a9:8c:42:e1:b3:17:05:92:22:9b:
         14:cf:c3:d0:3c:7d:89:e0:e0:a8:6d:38:26:db:5f:2f:a9:62:
         fc:50:4a:3f:bc:b9:0d:3a:8a:3a:a9:20:6c:23:ec:b7:fd:22:
         26:dc:23:22:f7:b4:1e:1d:a3:22:f4:51:ae:cb:6b:2d:17:99:
         92:38:72:29:9e:8e:71:8d:16:60:c6:ef:45:97:e2:80:3a:21:
         36:b0:38:4c:ba:84:22:fe:11:ee:fb:4a:9b:72:cb:ce:9b:a5:
         a2:51:87:77:6b:08:3e:40:15:14:4c:8b:e5:b7:3c:2e:26:b3:
         c5:54:ce:54:e2:0c:5d:d6:fd:d2:e0:d2:ab:b2:6f:73:f7:89:
         f7:c2:24:0a:27:62:e6:1c:9d:bb:cb:59:7f:cf:12:18:01:2a:
         45:be:f2:a1
-----BEGIN CERTIFICATE-----
MIIDRTCCAfmgAwIBAgICAQAwQQYJKoZIhvcNAQEKMDSgDzANBglghkgBZQMEAgEF
AKEcMBoGCSqGSIb3DQEBCDANBglghkgBZQMEAgEFAKIDAgERMDwxEDAOBgNVBAMM
B0xpbnQgQ0ExDTALBgNVBAsMBFRlc3QxDDAKBgNVBAoMA01URzELMAkGA1UEBhMC
REUwHhcNMjAwMTAyMDkwMDAwWhcNMjIwMTAyMDkwMDAwWjAnMRgwFgYDVQQDDA9Q
U1MgQ2VydGlmaWNhdGUxCzAJBgNVBAYTAkRFMIIBIjANBgkqhkiG9w0BAQEFAAOC
AQ8AMIIBCgKCAQEAty76Pq+vs9yvb+o76PMEkpBn5fDi27kej5KWpkvxVnCFiOdp
B3KwTUDm6djclAOzFC/xeFhpB23k1BDCrCMFq6nRBYG+EndReoO9sCtrjl/Exdjd
zf5OyEbp4j7UmTwtuzQ9KZDeS5MpZxCsuB4lg6IUu3v39H4k1onpLTuNpJlIlJoW
MSJxlOb+rB81LHRXUOum4+UH/bSoWPTBlKhMXHtqo2Wmj6E80BIfe0BJqm3x8HH4
hGHUYNZ4mnqeSCnQ+IqFoquS7UTDtKQwfeHWjuU/OwDIpaDQiDmK4iiUie5QnmV8
CUM4FcUxwyFJWcOuh/CGXlL7FgCASQebECKV+QIDAQABMEEGCSqGSIb3DQEBCjA0
oA8wDQYJYIZIAWUDBAIBBQChHDAaBgkqhkiG9w0BAQgwDQYJYIZIAWUDBAIBBQCi
AwIBEQOCAQEAPnpMQafE1uUGLEMUKM6zOCQGUta+/rx3KPglrCzAj2ip82rjXavd
5tVqndKl884HLswml5mebK1GMtxVI0oxHmGlcyg3skdgDD9fV8yOpVMJK8w/K8rt
PfXKft9lDE0Stw6pjELhsxcFkiKbFM/D0Dx9ieDgqG04JttfL6li/FBKP7y5DTqK
OqkgbCPst/0iJtwjIve0Hh2jIvRRrstrLReZkjhyKZ6OcY0WYMbvRZfigDohNrA4
TLqEIv4R7vtKm3LLzpulolGHd2sIPkAVFEyL5bc8LiazxVTOVOIMXdb90uDSq7Jv
c/eJ98IkCidi5hydu8tZf88SGAEqRb7yoQ==
-----END CERTIFICATE-----