Certificate:
    Data:
        Version: 3 (0x2)
        Serial Number: 256 (0x100)
        Signature Algorithm: rsassaPss         
         Hash Algorithm: sha256
         Mask Algorithm: mgf1 with sha256
          Salt Length: 0x20
         Trailer Field: 0xBC (default)
        Issuer: CN = Lint CA, OU = Test, O = MTG, C = DE
        Validity
            Not Before: Jan  2 09:00:00 2020 GMT
            Not After : Jan  2 09:00:00 2022 GMT
        Subject: CN = PSS Certificate, C = DE
        Subject Public Key Info:
            Public Key Algorithm: rsaEncryption
                RSA Public-Key: (2048 bit)
                Modulus:
                    00:83:49:7e:49:11:77:25:1d:f2:85:20:5b:d4:86:
                    6a:46:c3:94:0e:4e:16:b4:1f:87:75:85:43:c6:a9:
                    da:32:02:84:64:c2:db:c6:0a:2b:52:da:59:70:0e:
                    0c:d9:38:e4:ff:27:8b:de:05:26:78:3d:c9:c4:ca:
                    3e:d9:95:d1:bc:39:31:3d:a0:97:8e:88:44:1c:c8:
                    1d:83:6d:e1:55:3c:ff:67:11:be:47:41:38:52:f4:
                    b3:8b:f8:ae:05:fb:41:82:c2:6a:77:ff:87:98:ab:
                    e2:d6:6d:1a:88:81:7c:c7:26:df:a8:4f:10:c3:3d:
                    1e:fa:1c:1f:26:08:a0:64:95:ab:85:e6:8d:10:97:
                    ff:8f:b8:be:db:c5:07:51:64:83:3e:e3:00:96:97:
                    ec:53:6d:c1:da:2d:16:32:50:97:e9:c7:54:bf:f1:
                    78:bc:cc:9d:2c:82:34:60:0f:12:5a:e9:13:7e:44:
                    03:0d:10:5f:6a:c4:12:1a:da:33:54:4e:ad:4d:e6:
                    1c:be:3b:30:73:98:3e:54:43:96:80:16:2c:c6:51:
                    fc:dc:2b:18:29:38:85:a0:e6:f1:75:49:7e:72:bf:
                    60:ad:32:0c:46:20:07:e2:99:e8:bf:dd:19:7e:74:
                    0f:86:6f:d0:c7:fb:85:d2:8a:9f:c0:d7:6f:1b:f4:
                    8e:67
                Exponent: 65537 (0x10001)
    Signature Algorithm: rsassaPss         
         Hash Algorithm: sha256
         Mask Algorithm: mgf1 with sha256
          Salt Length: 0x20
         Trailer Field: 0xBC (default)

         2b:c1:9b:ee:ee:66:11:91:a8:d6:94:22:70:e7:04:4a:1e:38:
         01:ae:89:d1:0d:ae:bd:9d:cb:53:d3:46:91:8a:55:a4:7c:db:
         90:39:9e:14:09:25:b2:f0:a5:a8:e8:2b:07:0e:12:22:25:f8:
         1b:a2:78:ae:b0:0b:6e:bb:66:22:a6:97:26:7c:4f:f4:f0:65:
         2d:cb:c3:06:17:a5:25:09:e6:5c:6b:30:99:ab:68:3c:02:11:
         a9:ae:6c:d2:ef:ed:56:bc:2b:2f:42:bb:9e:aa:c0:fc:c5:b4:
         5c:61:ea:95:10:82:e9:3a:cd:ef:67:b8:33:25:28:fa:95:12:
         70:4b:4e:80:b6:ef:e9:c9:72:df:89:1b:27:6a:45:a7:9c:b7:
         de:cc:c8:89:88:9c:22:30:c2:63:ca:6c:fb:57:ad:25:6f:4a:
         0f:a7:b4:d3:72:04:fc:05:56:31:f9:a8:8b:89:fe:16:f4:34:
         ae:87:c4:48:e2:99:b1:1f:a0:9c:ef:ea:27:ac:32:7b:7f:72:
         09:1d:a2:fc:d1:55:e9:42:ad:23:19:d6:1c:dd:ef:94:a8:d2:
         9d:99:44:01:ac:bf:78:93:3c:82:a2:01:1f:f6:cf:91:83:10:
         16:eb:bb:62:af:8c:e9:c2:1b:df:86:27:eb:20:fd:e0:89:6f:
         c2:1a:ac:5d
-----BEGIN CERTIFICATE-----
MIIDPTCCAfWgAwIBAgICAQAwPQYJKoZIhvcNAQEKMDCgDTALBglghkgBZQMEAgGh
GjAYBgkqhkiG9w0BAQgwCwYJYIZIAWUDBAIBogMCASAwPDEQMA4GA1UEAwwHTGlu
dCBDQTENMAsGA1UECwwEVGVzdDEMMAoGA1UECgwDTVRHMQswCQYDVQQGEwJERTAe
Fw0yMDAxMDIwOTAwMDBaFw0yMjAxMDIwOTAwMDBaMCcxGDAWBgNVBAMMD1BTUyBD
ZXJ0aWZpY2F0ZTELMAkGA1UEBhMCREUwggEiMA0GCSqGSIb3DQEBAQUAA4IBDwAw
ggEKAoIBAQCDSX5JEXclHfKFIFvUhmpGw5QOTha0H4d1hUPGqdoyAoRkwtvGCitS
2llwDgzZOOT/J4veBSZ4PcnEyj7ZldG8OTE9oJeOiEQcyB2DbeFVPP9nEb5HQThS
9LOL+K4F+0GCwmp3/4eYq+LWbRqIgXzHJt+oTxDDPR76HB8mCKBklauF5o0Ql/+P
uL7bxQdRZIM+4wCWl+xTbcHaLRYyUJfpx1S/8Xi8zJ0sgjRgDxJa6RN+RAMNEF9q
xBIa2jNUTq1N5hy+OzBzmD5UQ5aAFizGUfzcKxgpOIWg5vF1SX5yv2CtMgxGIAfi
mei/3Rl+dA+Gb9DH+4XSip/A128b9I5nAgMBAAEwPQYJKoZIhvcNAQEKMDCgDTAL
BglghkgBZQMEAgGhGjAYBgkqhkiG9w0BAQgwCwYJYIZIAWUDBAIBogMCASADggEB
ACvBm+7uZhGRqNaUInDnBEoeOAGuidENrr2dy1PTRpGKVaR825A5nhQJJbLwpajo
KwcOEiIl+BuieK6wC267ZiKmlyZ8T/TwZS3LwwYXpSUJ5lxrMJmraDwCEamubNLv
7Va8Ky9Cu56qwPzFtFxh6pUQguk6ze9nuDMlKPqVEnBLToC27+nJct+JGydqRaec
t97MyImInCIwwmPKbPtXrSVvSg+ntNNyBPwFVjH5qIuJ/hb0NK6HxEjimbEfoJzv
6iesMnt/cgkdovzRVelCrSMZ1hzd75So0p2ZRAGsv3iTPIKiAR/2z5GDEBbru2Kv
jOnCG9+GJ+sg/eCJb8IarF0=
-----END CERTIFICATE-----
