Certificate:
    Data:
        Version: 3 (0x2)
        Serial Number: 256 (0x100)
        Signature Algorithm: rsassaPss         
         Hash Algorithm: sha384
         Mask Algorithm: mgf1 with sha384
          Salt Length: 0x30
         Trailer Field: 0xBC (default)
        Issuer: CN = Lint CA, OU = Test, O = MTG, C = DE
        Validity
            Not Before: Jan  2 09:00:00 2020 GMT
            Not After : Jan  2 09:00:00 2022 GMT
        Subject: CN = PSS Certificate, C = DE
        Subject Public Key Info:
            Public Key Algorithm: rsaEncryption
                RSA Public-Key: (2048 bit)
                Modulus:
                    00:ce:f5:1d:67:ca:9c:2b:20:43:69:5e:2c:97:46:
                    12:29:ff:dd:36:b1:c7:f0:1e:7c:5d:5a:95:a7:11:
                    0b:a4:86:69:37:8e:e8:da:08:40:79:0d:36:b8:2e:
                    fc:21:9b:c1:d9:83:57:47:ed:17:4d:d4:48:cd:dc:
                    d7:06:e9:a1:6e:41:d1:6c:f7:21:7e:98:a5:4b:ed:
                    00:54:f5:b6:b9:5d:2c:ed:36:2f:cf:97:33:59:f3:
                    a2:df:3c:a9:96:19:ec:71:dd:d6:6d:cf:9f:3f:05:
                    67:31:0c:ce:93:00:b6:e1:f0:56:71:4a:1b:65:87:
                    a7:e8:bb:15:20:1f:7d:df:ce:73:94:00:74:7f:cb:
                    54:c0:56:98:3e:c9:50:1a:99:a1:d6:55:ad:aa:df:
                    e6:89:b4:66:e2:e5:72:3e:a7:18:26:ed:2b:60:39:
                    bd:b4:b6:8b:3b:69:ef:cd:c9:99:c3:6b:86:9d:43:
                    ab:91:46:16:a1:44:6b:9c:a2:c9:d7:43:85:cb:6c:
                    9e:d8:aa:59:37:3d:11:b5:e4:c0:2e:ef:10:25:85:
                    30:4c:89:e6:be:6d:c2:22:db:b0:4a:9a:36:52:17:
                    9e:4c:85:4d:3a:53:10:3b:36:95:6f:6c:cb:c6:da:
                    d8:45:2d:6c:39:f0:e8:4b:e8:7c:b4:24:ec:5f:4f:
                    6b:cd
                Exponent: 65537 (0x10001)
    Signature Algorithm: rsassaPss         
         Hash Algorithm: sha384
         Mask Algorithm: mgf1 with sha384
          Salt Length: 0x30
         Trailer Field: 0xBC (default)

         5d:cb:23:99:5e:34:b0:f1:ab:06:17:e8:31:4f:a6:09:07:75:
         e8:4d:ca:62:c9:5b:5c:08:ef:23:c2:56:4a:d0:c4:46:66:8f:
         de:21:34:37:04:7f:5f:1b:e2:18:29:99:d2:1c:6c:05:da:82:
         7e:21:7a:45:bf:9d:3c:c8:2e:fc:7a:f2:97:9c:8c:bd:62:88:
         15:e6:f4:d8:67:1c:3b:f6:bc:a7:b8:cd:e0:a0:f5:a2:2f:2a:
         14:ba:67:f9:e9:67:dc:91:c6:e8:ce:39:c5:1e:81:82:a2:85:
         e8:01:a0:5d:96:96:10:cf:fb:f5:f1:2f:9e:7d:b8:14:c3:3c:
         09:4e:9f:6f:f4:44:d0:3e:49:11:c7:50:21:bb:c9:ea:49:f8:
         d5:ef:e0:23:f3:f6:c2:22:9f:29:9a:55:74:53:5f:4b:ab:0d:
         4d:06:bc:be:64:1d:4a:4d:a2:e5:43:9e:6f:95:70:ed:ab:a7:
         d8:9f:7c:85:4c:f7:6d:30:16:36:74:dc:6b:e3:9a:96:95:35:
         2b:4b:94:50:7a:5b:89:a1:75:9e:2d:66:ad:0b:31:ce:fd:4e:
         42:8d:f7:1b:da:24:7d:c7:34:1e:de:bf:fa:1d:3d:fb:36:34:
         3e:99:29:0d:9d:c5:04:6d:d2:27:7b:11:d4:65:e6:f0:ab:a8:
         8c:8c:31:9d
-----BEGIN CERTIFICATE-----
MIIDRTCCAfmgAwIBAgICAQAwQQYJKoZIhvcNAQEKMDSgDzANBglghkgBZQMEAgIF
AKEcMBoGCSqGSIb3DQEBCDANBglghkgBZQMEAgIFAKIDAgEwMDwxEDAOBgNVBAMM
B0xpbnQgQ0ExDTALBgNVBAsMBFRlc3QxDDAKBgNVBAoMA01URzELMAkGA1UEBhMC
REUwHhcNMjAwMTAyMDkwMDAwWhcNMjIwMTAyMDkwMDAwWjAnMRgwFgYDVQQDDA9Q
U1MgQ2VydGlmaWNhdGUxCzAJBgNVBAYTAkRFMIIBIjANBgkqhkiG9w0BAQEFAAOC
AQ8AMIIBCgKCAQEAzvUdZ8qcKyBDaV4sl0YSKf/dNrHH8B58XVqVpxELpIZpN47o
2ghAeQ02uC78IZvB2YNXR+0XTdRIzdzXBumhbkHRbPchfpilS+0AVPW2uV0s7TYv
z5czWfOi3zyplhnscd3Wbc+fPwVnMQzOkwC24fBWcUobZYen6LsVIB99385zlAB0
f8tUwFaYPslQGpmh1lWtqt/mibRm4uVyPqcYJu0rYDm9tLaLO2nvzcmZw2uGnUOr
kUYWoURrnKLJ10OFy2ye2KpZNz0RteTALu8QJYUwTInmvm3CItuwSpo2UheeTIVN
OlMQOzaVb2zLxtrYRS1sOfDoS+h8tCTsX09rzQIDAQABMEEGCSqGSIb3DQEBCjA0
oA8wDQYJYIZIAWUDBAICBQChHDAaBgkqhkiG9w0BAQgwDQYJYIZIAWUDBAICBQCi
AwIBMAOCAQEAXcsjmV40sPGrBhfoMU+mCQd16E3KYslbXAjvI8JWStDERmaP3iE0
NwR/XxviGCmZ0hxsBdqCfiF6Rb+dPMgu/Hryl5yMvWKIFeb02GccO/a8p7jN4KD1
oi8qFLpn+eln3JHG6M45xR6BgqKF6AGgXZaWEM/79fEvnn24FMM8CU6fb/RE0D5J
EcdQIbvJ6kn41e/gI/P2wiKfKZpVdFNfS6sNTQa8vmQdSk2i5UOeb5Vw7aun2J98
hUz3bTAWNnTca+OalpU1K0uUUHpbiaF1ni1mrQsxzv1OQo33G9okfcc0Ht6/+h09
+zY0PpkpDZ3FBG3SJ3sR1GXm8KuojIwxnQ==
-----END CERTIFICATE-----
