Certificate:
    Data:
        Version: 3 (0x2)
        Serial Number: 3 (0x3)
        Signature Algorithm: ecdsa-with-SHA256
        Issuer: 
        Validity
            Not Before: Sep  1 00:00:00 2021 GMT
            Not After : Nov 30 00:00:00 9998 GMT
        Subject: CN = www.example.com
        Subject Public Key Info:
            Public Key Algorithm: id-ecPublicKey
                Public-Key: (256 bit)
                pub:
                    04:b5:9a:d6:0c:0d:81:32:c9:3c:6e:47:ee:04:3f:
                    42:0f:f7:ed:6e:99:c5:4b:4d:39:a0:7b:26:93:20:
                    6b:e9:43:19:a5:35:b7:5a:de:a1:21:bd:8d:e9:74:
                    e8:41:89:49:aa:bd:2a:f4:23:77:45:33:41:9c:27:
                    db:7b:6f:71:c9
                ASN1 OID: prime256v1
                NIST CURVE: P-256
        X509v3 extensions:
            X509v3 Subject Alternative Name: 
                DNS:WWW.EXAMPLE.COM
    Signature Algorithm: ecdsa-with-SHA256
         30:44:02:20:41:88:8e:9f:db:67:09:a4:c1:38:54:48:06:d1:
         6f:ad:59:e3:f4:e2:df:99:6c:0d:64:0b:d3:5e:78:2c:6a:c6:
         02:20:03:70:4b:5a:e7:c2:35:cb:03:a9:85:62:63:1c:0f:0b:
         e2:ce:df:da:b2:d1:cd:b1:9d:cb:e1:09:b1:43:51:c1
-----BEGIN CERTIFICATE-----
MIIBJzCBz6ADAgECAgEDMAoGCCqGSM49BAMCMAAwIBcNMjEwOTAxMDAwMDAwWhgP
OTk5ODExMzAwMDAwMDBaMBoxGDAWBgNVBAMTD3d3dy5leGFtcGxlLmNvbTBZMBMG
ByqGSM49AgEGCCqGSM49AwEHA0IABLWa1gwNgTLJPG5H7gQ/Qg/37W6ZxUtNOaB7
JpMga+lDGaU1t1reoSG9jel06EGJSaq9KvQjd0UzQZwn23tvccmjHjAcMBoGA1Ud
EQQTMBGCD1dXVy5FWEFNUExFLkNPTTAKBggqhkjOPQQDAgNHADBEAiBBiI6f22cJ
pME4VEgG0W+tWeP04t+ZbA1kC9NeeCxqxgIgA3BLWufCNcsDqYViYxwPC+LO39qy
0c2xncvhCbFDUcE=
-----END CERTIFICATE-----