Certificate:
    Data:
        Version: 3 (0x2)
        Serial Number: 18008675309 (0x4316693ed)
    Signature Algorithm: sha256WithRSAEncryption
        Issuer: C = US, O = Mother Nature, OU = Everything, CN = Mother Nature
        Validity
            Not Before: Mar 17 20:54:56 2017 GMT
            Not After : May 29 20:54:56 2017 GMT
        Subject: C = US, ST = FL, L = Tallahassee, street = 3210 Holly Mill Run, postalCode = 30062, O = Extreme Discord, OU = Chaos, CN = gov.us
        Subject Public Key Info:
            Public Key Algorithm: rsaEncryption
                Public-Key: (2048 bit)
                Modulus:
                    00:a4:a5:1f:2e:a2:53:ba:58:84:05:af:78:d5:e8:
                    ff:7c:19:92:9a:11:e1:a0:20:95:21:2e:8d:6f:7e:
                    de:f1:b8:d1:f2:f8:56:1a:e9:0d:4c:8d:e2:bf:73:
                    81:34:6b:35:69:fe:2b:83:d5:9e:8b:a2:4f:58:21:
                    21:39:6f:92:9f:d7:60:4f:ea:2c:cb:65:15:67:1f:
                    a4:e1:a2:64:cd:96:86:cf:98:51:50:a0:07:e6:49:
                    c3:93:5f:c8:a7:53:db:ad:4f:cc:49:3d:58:5e:f1:
                    82:e0:fe:22:7d:ab:fb:67:4b:dd:57:75:f8:bc:bd:
                    cc:ba:98:69:42:5d:82:d9:47:6a:08:55:d5:82:ae:
                    2d:be:46:40:52:60:db:b6:aa:ab:4d:bf:dc:90:ae:
                    08:af:bd:f1:14:85:21:22:f6:ff:d4:75:8a:fd:9d:
                    7c:5b:fd:bb:8c:60:15:ff:06:89:6f:be:e3:12:26:
                    6b:c0:8a:4c:0c:d6:80:76:0b:33:d7:3c:4e:0f:8e:
                    e8:10:bf:be:b2:f0:42:31:2c:95:fe:b0:25:7f:d6:
                    5f:36:43:97:b0:b0:80:0a:7b:fb:8a:d1:6c:0c:27:
                    be:2d:58:3b:ae:c0:69:83:77:dc:9f:84:63:77:a4:
                    8e:9d:70:c6:e6:7e:e8:06:aa:a4:07:47:a4:0d:ba:
                    c1:6d
                Exponent: 65537 (0x10001)
        X509v3 extensions:
            X509v3 Key Usage: critical
                Digital Signature, Key Encipherment
            X509v3 Extended Key Usage: 
                TLS Web Client Authentication, TLS Web Server Authentication
            X509v3 Basic Constraints: critical
                CA:FALSE
            X509v3 Authority Key Identifier: 
                keyid:01:02:03

            Authority Information Access: 
                OCSP - URI:http://theca.net/ocsp
                CA Issuers - URI:http://theca.net/totallythecert.crt

            X509v3 Subject Alternative Name: 
                DNS:*.com
            X509v3 Certificate Policies: 
                Policy: 2.23.140.1.2.2

    Signature Algorithm: sha256WithRSAEncryption
         7d:17:2f:56:a6:b5:9e:f3:df:22:c4:9f:5a:74:20:83:5c:e6:
         42:c8:f7:36:fd:71:54:54:76:12:4f:a9:a8:54:bc:0a:2e:00:
         36:1c:94:35:c8:01:33:ce:b9:75:16:ec:44:b3:49:5d:6d:c6:
         27:27:33:32:e0:49:26:28:cd:46:3c:f6:06:e8:55:b7:41:d9:
         11:0f:36:b1:5e:bc:3a:a3:9b:83:94:dd:22:59:9f:bc:2d:ea:
         2d:cc:92:12:39:60:68:02:03:09:a5:8f:eb:0d:06:24:33:bf:
         54:7f:6f:57:9a:af:4e:39:8a:46:18:f6:87:32:2e:c4:33:37:
         d2:09:a4:de:77:fd:07:f6:1f:41:2f:a4:97:a9:e2:27:93:db:
         fc:c8:d2:f0:f3:ac:91:f7:0e:8d:d7:80:b5:5e:0b:a7:05:52:
         20:76:3f:e0:14:c3:61:b2:50:52:a5:1d:ad:95:08:c0:33:e4:
         60:de:f6:6d:45:f9:2a:ee:52:fd:d2:63:18:ba:c9:74:c6:cf:
         42:76:e7:3a:6c:d3:60:47:a5:39:a3:36:de:2c:a8:75:5b:62:
         99:50:aa:9e:b3:9e:2c:02:2c:89:bf:be:e0:aa:e3:f8:90:c6:
         2e:3e:db:02:34:52:4a:4f:ce:b8:09:97:ed:70:f9:73:20:68:
         0d:5a:c4:e8
-----BEGIN CERTIFICATE-----
MIIERzCCAy+gAwIBAgIFBDFmk+0wDQYJKoZIhvcNAQELBQAwUjELMAkGA1UEBhMC
VVMxFjAUBgNVBAoTDU1vdGhlciBOYXR1cmUxEzARBgNVBAsTCkV2ZXJ5dGhpbmcx
FjAUBgNVBAMTDU1vdGhlciBOYXR1cmUwHhcNMTcwMzE3MjA1NDU2WhcNMTcwNTI5
MjA1NDU2WjCBmTELMAkGA1UEBhMCVVMxCzAJBgNVBAgTAkZMMRQwEgYDVQQHEwtU
YWxsYWhhc3NlZTEcMBoGA1UECRMTMzIxMCBIb2xseSBNaWxsIFJ1bjEOMAwGA1UE
ERMFMzAwNjIxGDAWBgNVBAoTD0V4dHJlbWUgRGlzY29yZDEOMAwGA1UECxMFQ2hh
b3MxDzANBgNVBAMTBmdvdi51czCCASIwDQYJKoZIhvcNAQEBBQADggEPADCCAQoC
ggEBAKSlHy6iU7pYhAWveNXo/3wZkpoR4aAglSEujW9+3vG40fL4VhrpDUyN4r9z
gTRrNWn+K4PVnouiT1ghITlvkp/XYE/qLMtlFWcfpOGiZM2Whs+YUVCgB+ZJw5Nf
yKdT261PzEk9WF7xguD+In2r+2dL3Vd1+Ly9zLqYaUJdgtlHaghV1YKuLb5GQFJg
27aqq02/3JCuCK+98RSFISL2/9R1iv2dfFv9u4xgFf8GiW++4xIma8CKTAzWgHYL
M9c8Tg+O6BC/vrLwQjEslf6wJX/WXzZDl7CwgAp7+4rRbAwnvi1YO67AaYN33J+E
Y3ekjp1wxuZ+6AaqpAdHpA26wW0CAwEAAaOB2zCB2DAOBgNVHQ8BAf8EBAMCBaAw
HQYDVR0lBBYwFAYIKwYBBQUHAwIGCCsGAQUFBwMBMAwGA1UdEwEB/wQCMAAwDgYD
VR0jBAcwBYADAQIDMGIGCCsGAQUFBwEBBFYwVDAhBggrBgEFBQcwAYYVaHR0cDov
L3RoZWNhLm5ldC9vY3NwMC8GCCsGAQUFBzAChiNodHRwOi8vdGhlY2EubmV0L3Rv
dGFsbHl0aGVjZXJ0LmNydDAQBgNVHREECTAHggUqLmNvbTATBgNVHSAEDDAKMAgG
BmeBDAECAjANBgkqhkiG9w0BAQsFAAOCAQEAfRcvVqa1nvPfIsSfWnQgg1zmQsj3
Nv1xVFR2Ek+pqFS8Ci4ANhyUNcgBM865dRbsRLNJXW3GJyczMuBJJijNRjz2BuhV
t0HZEQ82sV68OqObg5TdIlmfvC3qLcySEjlgaAIDCaWP6w0GJDO/VH9vV5qvTjmK
Rhj2hzIuxDM30gmk3nf9B/YfQS+kl6niJ5Pb/MjS8POskfcOjdeAtV4LpwVSIHY/
4BTDYbJQUqUdrZUIwDPkYN72bUX5Ku5S/dJjGLrJdMbPQnbnOmzTYEelOaM23iyo
dVtimVCqnrOeLAIsib++4Krj+JDGLj7bAjRSSk/OuAmX7XD5cyBoDVrE6A==
-----END CERTIFICATE-----
