Certificate:
    Data:
        Version: 3 (0x2)
        Serial Number: 18008675309 (0x4316693ed)
    Signature Algorithm: sha256WithRSAEncryption
        Issuer: C = US, O = Mother Nature, OU = Everything, CN = Mother Nature
        Validity
            Not Before: Jan  1 00:00:00 2010 GMT
            Not After : Jan  1 00:00:00 2013 GMT
        Subject: C = US, O = Extreme Discord, OU = Chaos, L = Tallahassee, ST = FL, street = 3210 Holly Mill Run, postalCode = 30062, CN = gov.us
        Subject Public Key Info:
            Public Key Algorithm: rsaEncryption
                Public-Key: (512 bit)
                Modulus:
                    00:d3:04:f2:89:8f:eb:60:16:65:20:0c:de:d1:2e:
                    8d:93:06:9d:ae:c7:3b:63:b0:77:e9:87:76:f4:27:
                    89:97:16:11:32:15:06:89:a8:46:49:34:ec:51:eb:
                    0d:bc:70:9c:b6:12:78:14:8d:f4:18:77:c1:d1:db:
                    e4:c7:08:0d:49
                Exponent: 65537 (0x10001)
        X509v3 extensions:
            X509v3 Key Usage: critical
                Digital Signature, Key Encipherment
            X509v3 Extended Key Usage: 
                TLS Web Client Authentication, TLS Web Server Authentication
            X509v3 Authority Key Identifier: 
                keyid:01:02:03

            Authority Information Access: 
                OCSP - URI:http://theca.net/ocsp
                CA Issuers - URI:http://theca.net/totallythecert.crt

            X509v3 Certificate Policies: 
                Policy: 2.23.140.1.2.2

            X509v3 Subject Key Identifier: 
                04:03:02:01
            X509v3 Subject Alternative Name: 
                URI:, DNS:ˬ
            X509v3 Inhibit Any Policy: 
                ..
    Signature Algorithm: sha256WithRSAEncryption
         2a:86:c7:da:57:c8:a5:c7:e2:81:16:05:20:d3:e3:99:c6:96:
         1e:54:1d:02:d6:22:1c:dc:58:60:a6:87:5a:5b:bd:d9:85:92:
         ba:5f:0d:94:88:fd:b9:77:42:03:b6:fc:9c:0a:ee:9a:6d:2a:
         f3:02:b3:a3:f6:e5:3b:1f:61:b4
-----BEGIN CERTIFICATE-----
MIICyDCCAnKgAwIBAgIFBDFmk+0wDQYJKoZIhvcNAQELBQAwUjELMAkGA1UEBhMC
VVMxFjAUBgNVBAoTDU1vdGhlciBOYXR1cmUxEzARBgNVBAsTCkV2ZXJ5dGhpbmcx
FjAUBgNVBAMTDU1vdGhlciBOYXR1cmUwHhcNMTAwMTAxMDAwMDAwWhcNMTMwMTAx
MDAwMDAwWjCBmTELMAkGA1UEBhMCVVMxGDAWBgNVBAoTD0V4dHJlbWUgRGlzY29y
ZDEOMAwGA1UECxMFQ2hhb3MxFDASBgNVBAcTC1RhbGxhaGFzc2VlMQswCQYDVQQI
EwJGTDEcMBoGA1UECRMTMzIxMCBIb2xseSBNaWxsIFJ1bjEOMAwGA1UEERMFMzAw
NjIxDzANBgNVBAMTBmdvdi51czBcMA0GCSqGSIb3DQEBAQUAA0sAMEgCQQDTBPKJ
j+tgFmUgDN7RLo2TBp2uxztjsHfph3b0J4mXFhEyFQaJqEZJNOxR6w28cJy2EngU
jfQYd8HR2+THCA1JAgMBAAGjgeYwgeMwDgYDVR0PAQH/BAQDAgWgMB0GA1UdJQQW
MBQGCCsGAQUFBwMCBggrBgEFBQcDATAOBgNVHSMEBzAFgAMBAgMwYgYIKwYBBQUH
AQEEVjBUMCEGCCsGAQUFBzABhhVodHRwOi8vdGhlY2EubmV0L29jc3AwLwYIKwYB
BQUHMAKGI2h0dHA6Ly90aGVjYS5uZXQvdG90YWxseXRoZWNlcnQuY3J0MBMGA1Ud
IAQMMAowCAYGZ4EMAQICMA0GA1UdDgQGBAQEAwIBMA8GA1UdEQQIMAaGAIICwKgw
CQYDVR02BAICATANBgkqhkiG9w0BAQsFAANBACqGx9pXyKXH4oEWBSDT45nGlh5U
HQLWIhzcWGCmh1pbvdmFkrpfDZSI/bl3QgO2/JwK7pptKvMCs6P25TsfYbQ=
-----END CERTIFICATE-----
