Certificate:
    Data:
        Version: 3 (0x2)
        Serial Number: 3 (0x3)
        Signature Algorithm: ecdsa-with-SHA256
        Issuer: 
        Validity
            Not Before: Sep  1 00:00:00 2021 GMT
            Not After : Nov 30 00:00:00 9998 GMT
        Subject: CN = 2001:db8:0:1:1:1:1:1
        Subject Public Key Info:
            Public Key Algorithm: id-ecPublicKey
                Public-Key: (256 bit)
                pub:
                    04:9d:b3:75:b4:77:b0:2f:29:0e:db:03:54:2c:bc:
                    07:08:a0:e4:7a:a6:dd:11:42:64:b1:9a:58:a3:74:
                    d8:be:69:da:e3:f2:6a:0d:b7:76:15:72:fd:e3:21:
                    37:ab:58:0e:65:1e:1f:9d:ee:53:83:02:e1:84:ff:
                    dd:40:b6:86:a1
                ASN1 OID: prime256v1
                NIST CURVE: P-256
        X509v3 extensions:
            X509v3 Subject Alternative Name: 
                IP Address:2001:DB8:0:1:1:1:1:1
    Signature Algorithm: ecdsa-with-SHA256
         30:46:02:21:00:aa:72:3c:ec:e8:8c:d1:19:e6:b7:c7:b2:a4:
         78:ee:f0:94:1f:91:59:7e:19:6c:11:43:f5:a8:8a:22:fb:5b:
         40:02:21:00:b5:9c:4a:df:e5:8d:85:fd:af:b7:b3:4f:e9:37:
         c0:9e:22:79:c8:d9:f8:36:79:fc:24:29:7a:87:20:bb:ed:71
-----BEGIN CERTIFICATE-----
MIIBLzCB1aADAgECAgEDMAoGCCqGSM49BAMCMAAwIBcNMjEwOTAxMDAwMDAwWhgP
OTk5ODExMzAwMDAwMDBaMB8xHTAbBgNVBAMTFDIwMDE6ZGI4OjA6MToxOjE6MTox
MFkwEwYHKoZIzj0CAQYIKoZIzj0DAQcDQgAEnbN1tHewLykO2wNULLwHCKDkeqbd
EUJksZpYo3TYvmna4/JqDbd2FXL94yE3q1gOZR4fne5TgwLhhP/dQLaGoaMfMB0w
GwYDVR0RBBQwEocQIAENuAAAAAEAAQABAAEAATAKBggqhkjOPQQDAgNJADBGAiEA
qnI87OiM0Rnmt8eypHju8JQfkVl+GWwRQ/WoiiL7W0ACIQC1nErf5Y2F/a+3s0/p
N8CeInnI2fg2efwkKXqHILvtcQ==
-----END CERTIFICATE-----