Certificate:
    Data:
        Version: 3 (0x2)
        Serial Number: 3 (0x3)
        Signature Algorithm: ecdsa-with-SHA256
        Issuer: 
        Validity
            Not Before: Sep  1 00:00:00 2021 GMT
            Not After : Nov 30 00:00:00 9998 GMT
        Subject: CN = 2001:db8::2:1
        Subject Public Key Info:
            Public Key Algorithm: id-ecPublicKey
                Public-Key: (256 bit)
                pub:
                    04:91:47:46:bf:56:3d:aa:a4:1a:2d:5b:e8:83:e6:
                    a2:3f:59:01:60:5f:99:01:0f:a6:a0:41:77:3e:99:
                    ed:64:d9:86:e6:ab:15:fe:9f:24:de:46:e2:23:15:
                    85:3f:2a:3c:7a:54:2b:49:ec:6c:6d:99:84:66:66:
                    be:08:0f:80:d9
                ASN1 OID: prime256v1
                NIST CURVE: P-256
        X509v3 extensions:
            X509v3 Subject Alternative Name: 
                IP Address:2001:DB8:0:0:0:0:2:1
    Signature Algorithm: ecdsa-with-SHA256
         30:46:02:21:00:b3:90:e8:99:08:27:0c:1a:43:0b:ed:e4:49:
         62:ae:af:6d:e3:87:ca:f4:58:da:e4:d2:97:7e:04:c1:d6:c4:
         a0:02:21:00:e8:f5:fb:f4:57:54:c4:fa:7c:01:bc:07:4c:af:
         1c:1e:fb:0c:fa:ea:bc:b9:14:c1:28:25:af:84:76:a4:e8:f3
-----BEGIN CERTIFICATE-----
MIIBKDCBzqADAgECAgEDMAoGCCqGSM49BAMCMAAwIBcNMjEwOTAxMDAwMDAwWhgP
OTk5ODExMzAwMDAwMDBaMBgxFjAUBgNVBAMTDTIwMDE6ZGI4OjoyOjEwWTATBgcq
hkjOPQIBBggqhkjOPQMBBwNCAASRR0a/Vj2qpBotW+iD5qI/WQFgX5kBD6agQXc+
me1k2YbmqxX+nyTeRuIjFYU/Kjx6VCtJ7GxtmYRmZr4ID4DZox8wHTAbBgNVHREE
FDAShxAgAQ24AAAAAAAAAAAAAgABMAoGCCqGSM49BAMCA0kAMEYCIQCzkOiZCCcM
GkML7eRJYq6vbeOHyvRY2uTSl34EwdbEoAIhAOj1+/RXVMT6fAG8B0yvHB77DPrq
vLkUwSglr4R2pOjz
-----END CERTIFICATE-----