Certificate:
    Data:
        Version: 3 (0x2)
        Serial Number: 3 (0x3)
        Signature Algorithm: ecdsa-with-SHA256
        Issuer: 
        Validity
            Not Before: Sep  1 00:00:00 2021 GMT
            Not After : Nov 30 00:00:00 9998 GMT
        Subject: CN = 2001:db8::2:2
        Subject Public Key Info:
            Public Key Algorithm: id-ecPublicKey
                Public-Key: (256 bit)
                pub:
                    04:f8:39:a2:9e:6c:53:6f:60:f3:50:fa:76:59:d1:
                    21:d4:e8:bd:65:be:23:5d:73:55:10:bf:ec:8b:15:
                    49:04:8a:2f:fd:43:36:3a:ff:72:31:03:e6:79:8c:
                    42:71:77:87:39:b0:cc:86:53:df:31:a0:2d:47:24:
                    cb:04:cf:48:e7
                ASN1 OID: prime256v1
                NIST CURVE: P-256
        X509v3 extensions:
            X509v3 Subject Alternative Name: 
                IP Address:2001:DB8:0:0:0:0:2:1
    Signature Algorithm: ecdsa-with-SHA256
         30:45:02:20:14:5f:a1:f6:13:e9:77:68:5a:9f:89:79:6c:8e:
         28:89:bf:8d:ad:3c:56:8d:be:f9:da:13:49:c6:50:81:97:d7:
         02:21:00:dc:71:8b:af:a3:b4:3a:5d:cd:a6:f2:37:2f:79:6d:
         14:2b:f1:07:02:24:ee:2d:dd:63:85:35:d2:11:a4:57:5c
-----BEGIN CERTIFICATE-----
MIIBJzCBzqADAgECAgEDMAoGCCqGSM49BAMCMAAwIBcNMjEwOTAxMDAwMDAwWhgP
OTk5ODExMzAwMDAwMDBaMBgxFjAUBgNVBAMTDTIwMDE6ZGI4OjoyOjIwWTATBgcq
hkjOPQIBBggqhkjOPQMBBwNCAAT4OaKebFNvYPNQ+nZZ0SHU6L1lviNdc1UQv+yL
FUkEii/9QzY6/3IxA+Z5jEJxd4c5sMyGU98xoC1HJMsEz0jnox8wHTAbBgNVHREE
FDAShxAgAQ24AAAAAAAAAAAAAgABMAoGCCqGSM49BAMCA0gAMEUCIBRfofYT6Xdo
Wp+JeWyOKIm/ja08Vo2++doTScZQgZfXAiEA3HGLr6O0Ol3NpvI3L3ltFCvxBwIk
7i3dY4U10hGkV1w=
-----END CERTIFICATE-----