Certificate:
    Data:
        Version: 3 (0x2)
        Serial Number: 3 (0x3)
        Signature Algorithm: ecdsa-with-SHA256
        Issuer: 
        Validity
            Not Before: Sep  1 00:00:00 2021 GMT
            Not After : Nov 30 00:00:00 9998 GMT
        Subject: CN = 192.168.0.1
        Subject Public Key Info:
            Public Key Algorithm: id-ecPublicKey
                Public-Key: (256 bit)
                pub:
                    04:dc:ae:bb:c7:d1:6e:c6:4d:d8:fa:7c:7e:5e:f0:
                    1d:90:9e:de:2e:a9:ab:af:1c:6e:b1:a6:f6:24:5d:
                    c7:50:f7:25:92:52:41:b5:48:1b:2f:1b:b4:b2:64:
                    ea:eb:42:ab:e5:5a:10:5a:aa:15:bd:f3:b7:cc:ff:
                    d2:10:23:bd:ac
                ASN1 OID: prime256v1
                NIST CURVE: P-256
        X509v3 extensions:
            X509v3 Subject Alternative Name: 
                IP Address:192.168.0.1
    Signature Algorithm: ecdsa-with-SHA256
         30:45:02:20:5f:07:15:9a:f7:cb:96:95:73:e4:e2:96:7a:77:
         5f:53:8b:cc:38:7d:67:f6:84:3f:52:3c:bc:3d:e6:00:f3:b8:
         02:21:00:84:f7:71:8d:e0:e7:e4:ed:66:6a:9a:62:0e:c9:61:
         7f:37:eb:30:14:55:85:31:5d:c1:65:7d:81:ab:64:8e:11
-----BEGIN CERTIFICATE-----
MIIBGTCBwKADAgECAgEDMAoGCCqGSM49BAMCMAAwIBcNMjEwOTAxMDAwMDAwWhgP
OTk5ODExMzAwMDAwMDBaMBYxFDASBgNVBAMTCzE5Mi4xNjguMC4xMFkwEwYHKoZI
zj0CAQYIKoZIzj0DAQcDQgAE3K67x9Fuxk3Y+nx+XvAdkJ7eLqmrrxxusab2JF3H
UPclklJBtUgbLxu0smTq60Kr5VoQWqoVvfO3zP/SECO9rKMTMBEwDwYDVR0RBAgw
BocEwKgAATAKBggqhkjOPQQDAgNIADBFAiBfBxWa98uWlXPk4pZ6d19Ti8w4fWf2
hD9SPLw95gDzuAIhAIT3cY3g5+TtZmqaYg7JYX836zAUVYUxXcFlfYGrZI4R
-----END CERTIFICATE-----