Certificate:
    Data:
        Version: 3 (0x2)
        Serial Number: 3 (0x3)
        Signature Algorithm: ecdsa-with-SHA256
        Issuer: 
        Validity
            Not Before: Sep  1 00:00:00 2021 GMT
            Not After : Nov 30 00:00:00 9998 GMT
        Subject: CN = 2001:db8::1:0:0:1
        Subject Public Key Info:
            Public Key Algorithm: id-ecPublicKey
                Public-Key: (256 bit)
                pub:
                    04:f4:ef:ab:0f:13:bf:2e:52:86:71:2a:31:cb:83:
                    45:10:4b:8e:e0:da:d4:f0:2f:e7:ed:73:50:55:92:
                    3d:61:d8:4e:1a:6c:9e:4f:57:17:0c:c4:fd:49:4b:
                    0e:df:32:28:bc:21:ee:40:62:03:1c:1c:b6:ee:69:
                    34:51:46:bb:a7
                ASN1 OID: prime256v1
                NIST CURVE: P-256
        X509v3 extensions:
            X509v3 Subject Alternative Name: 
                IP Address:2001:DB8:0:0:1:0:0:1
    Signature Algorithm: ecdsa-with-SHA256
         30:44:02:20:41:f2:3a:a4:31:98:43:25:a8:7f:9d:de:cd:f8:
         42:b6:13:cd:99:d7:09:f5:a3:2f:30:fd:1c:51:00:d8:de:2f:
         02:20:40:d7:7c:46:9c:77:cd:18:4b:05:95:7c:61:12:fb:67:
         a1:d8:80:58:e8:c9:93:d9:48:50:65:77:e4:a6:46:f4
-----BEGIN CERTIFICATE-----
MIIBKjCB0qADAgECAgEDMAoGCCqGSM49BAMCMAAwIBcNMjEwOTAxMDAwMDAwWhgP
OTk5ODExMzAwMDAwMDBaMBwxGjAYBgNVBAMTETIwMDE6ZGI4OjoxOjA6MDoxMFkw
EwYHKoZIzj0CAQYIKoZIzj0DAQcDQgAE9O+rDxO/LlKGcSoxy4NFEEuO4NrU8C/n
7XNQVZI9YdhOGmyeT1cXDMT9SUsO3zIovCHuQGIDHBy27mk0UUa7p6MfMB0wGwYD
VR0RBBQwEocQIAENuAAAAAAAAQAAAAAAATAKBggqhkjOPQQDAgNHADBEAiBB8jqk
MZhDJah/nd7N+EK2E82Z1wn1oy8w/RxRANjeLwIgQNd8Rpx3zRhLBZV8YRL7Z6HY
gFjoyZPZSFBld+SmRvQ=
-----END CERTIFICATE-----