Certificate:
    Data:
        Version: 3 (0x2)
        Serial Number: 3 (0x3)
        Signature Algorithm: ecdsa-with-SHA256
        Issuer: 
        Validity
            Not Before: Sep  1 00:00:00 2021 GMT
            Not After : Nov 30 00:00:00 9998 GMT
        Subject: CN = 2001:db8:0:0:1:0:0:1
        Subject Public Key Info:
            Public Key Algorithm: id-ecPublicKey
                Public-Key: (256 bit)
                pub:
                    04:e5:af:18:70:c5:51:c9:01:7b:54:2d:34:81:f2:
                    f0:10:1b:75:43:96:f1:1a:18:00:29:c7:80:08:a6:
                    34:c5:6f:e5:3b:f2:3d:2d:cf:e4:04:9d:9d:14:74:
                    1a:ce:fd:2c:14:16:a3:3c:62:5c:2e:7a:5a:9c:80:
                    8a:d1:e2:cc:d0
                ASN1 OID: prime256v1
                NIST CURVE: P-256
        X509v3 extensions:
            X509v3 Subject Alternative Name: 
                IP Address:2001:DB8:0:0:1:0:0:1
    Signature Algorithm: ecdsa-with-SHA256
         30:46:02:21:00:a7:ae:a9:db:da:64:af:4c:ba:ba:37:5c:10:
         0e:f4:17:40:e8:b1:02:21:35:72:52:94:fc:ce:24:7b:7d:d5:
         77:02:21:00:95:d4:f1:eb:40:73:da:e5:b7:84:e4:95:3a:d9:
         a4:68:c0:86:d3:20:3b:57:1d:cc:fc:e2:98:8c:72:7e:34:6c
-----BEGIN CERTIFICATE-----
MIIBLzCB1aADAgECAgEDMAoGCCqGSM49BAMCMAAwIBcNMjEwOTAxMDAwMDAwWhgP
OTk5ODExMzAwMDAwMDBaMB8xHTAbBgNVBAMTFDIwMDE6ZGI4OjA6MDoxOjA6MDox
MFkwEwYHKoZIzj0CAQYIKoZIzj0DAQcDQgAE5a8YcMVRyQF7VC00gfLwEBt1Q5bx
GhgAKceACKY0xW/lO/I9Lc/kBJ2dFHQazv0sFBajPGJcLnpanICK0eLM0KMfMB0w
GwYDVR0RBBQwEocQIAENuAAAAAAAAQAAAAAAATAKBggqhkjOPQQDAgNJADBGAiEA
p66p29pkr0y6ujdcEA70F0DosQIhNXJSlPzOJHt91XcCIQCV1PHrQHPa5beE5JU6
2aRowIbTIDtXHcz84piMcn40bA==
-----END CERTIFICATE-----