Certificate:
    Data:
        Version: 3 (0x2)
        Serial Number: 3 (0x3)
        Signature Algorithm: ecdsa-with-SHA256
        Issuer: 
        Validity
            Not Before: Sep  1 00:00:00 2021 GMT
            Not After : Nov 30 00:00:00 9998 GMT
        Subject: CN = 192.168.0.1
        Subject Public Key Info:
            Public Key Algorithm: id-ecPublicKey
                Public-Key: (256 bit)
                pub:
                    04:54:09:ed:89:09:ea:b2:39:41:22:82:6c:44:23:
                    a9:3b:67:76:d7:f3:1e:06:61:89:ff:ed:a7:7a:3d:
                    d5:44:a3:3e:f1:df:49:b9:93:e1:b6:9e:a3:c3:39:
                    88:3d:0b:9c:45:12:fd:b5:c2:41:d3:f3:a9:24:f0:
                    34:f5:a5:cd:6c
                ASN1 OID: prime256v1
                NIST CURVE: P-256
        X509v3 extensions:
            X509v3 Subject Alternative Name: 
                IP Address:192.168.0.2
    Signature Algorithm: ecdsa-with-SHA256
         30:45:02:21:00:8b:21:22:ab:98:78:c7:11:d7:1d:7e:7e:32:
         9b:53:93:ab:4b:2d:4d:ec:8e:06:c2:d4:32:36:8a:4f:57:74:
         a5:02:20:6c:3b:6e:11:29:02:5d:3b:ee:ca:40:3b:27:12:0c:
         d1:6d:0c:99:fc:49:b3:5c:58:20:52:a5:10:85:8a:81:3c
-----BEGIN CERTIFICATE-----
MIIBGTCBwKADAgECAgEDMAoGCCqGSM49BAMCMAAwIBcNMjEwOTAxMDAwMDAwWhgP
OTk5ODExMzAwMDAwMDBaMBYxFDASBgNVBAMTCzE5Mi4xNjguMC4xMFkwEwYHKoZI
zj0CAQYIKoZIzj0DAQcDQgAEVAntiQnqsjlBIoJsRCOpO2d21/MeBmGJ/+2nej3V
RKM+8d9JuZPhtp6jwzmIPQucRRL9tcJB0/OpJPA09aXNbKMTMBEwDwYDVR0RBAgw
BocEwKgAAjAKBggqhkjOPQQDAgNIADBFAiEAiyEiq5h4xxHXHX5+MptTk6tLLU3s
jgbC1DI2ik9XdKUCIGw7bhEpAl077spAOycSDNFtDJn8SbNcWCBSpRCFioE8
-----END CERTIFICATE-----