Certificate:
    Data:
        Version: 3 (0x2)
        Serial Number: 18008675984 (0x431669690)
    Signature Algorithm: sha256WithRSAEncryption
        Issuer: C = US, O = Mother Nature, OU = Everything, CN = Mother Nature
        Validity
            Not Before: Jul  2 22:39:03 2016 GMT
            Not After : Sep 14 22:39:03 2016 GMT
        Subject: GN = Alexander, SN = Washington
        Subject Public Key Info:
            Public Key Algorithm: rsaEncryption
                Public-Key: (2048 bit)
                Modulus:
                    00:e2:d9:4c:70:11:fc:b1:7f:07:22:f3:e0:b7:ea:
                    9b:aa:92:68:72:e3:68:72:4e:1e:82:83:c6:21:61:
                    88:7c:c7:e9:04:d2:c2:26:dd:bc:65:b6:42:41:fb:
                    fd:0d:de:3b:e5:78:75:b8:03:b5:81:35:d3:93:90:
                    2b:5f:24:80:2b:b2:64:cc:72:10:88:c8:9b:15:f7:
                    10:1e:43:4e:7d:d6:15:d9:78:95:9c:08:13:80:ad:
                    ff:7e:bf:ed:71:ca:05:fc:15:57:28:b2:b8:37:11:
                    7d:06:cc:ca:fd:f8:fb:a1:da:de:67:9c:33:bb:fe:
                    e9:06:a9:cf:2a:5b:02:2e:7e:a2:b0:87:b1:ce:ac:
                    99:12:62:37:62:88:92:a0:f4:8a:ed:96:7f:76:90:
                    44:43:d3:28:a3:d7:7f:6e:75:14:e9:8b:7e:8f:63:
                    c0:3b:24:0a:a8:49:8a:34:a4:ca:fb:b4:ca:70:06:
                    e7:58:e2:7c:94:e7:e0:87:4d:7f:0e:34:4f:e9:52:
                    66:dc:d8:22:87:1f:c9:63:80:d4:c0:d2:d3:ff:84:
                    76:af:96:d9:28:f3:c2:4d:61:a7:48:a4:39:b5:25:
                    91:31:16:ce:3b:49:af:49:07:41:a4:e2:f5:92:09:
                    05:96:ef:8e:0a:42:4a:1e:8a:64:f2:ce:d4:31:ef:
                    cd:55
                Exponent: 65537 (0x10001)
        X509v3 extensions:
            X509v3 Key Usage: critical
                Digital Signature, Key Encipherment
            X509v3 Extended Key Usage: 
                TLS Web Client Authentication, TLS Web Server Authentication
            X509v3 Basic Constraints: critical
                CA:FALSE
            X509v3 Authority Key Identifier: 
                keyid:01:02:03

            Authority Information Access: 
                OCSP - URI:http://theca.net/ocsp
                CA Issuers - URI:http://theca.net/totallythecert.crt

            X509v3 Certificate Policies: 
                Policy: 1.3.6.1.5.5.7.13.1

            X509v3 Subject Key Identifier: 
                04:03:02:01
            X509v3 Subject Alternative Name: 
                DNS:*.gov.us, DNS:gov.us
            X509v3 Issuer Alternative Name: 
                DNS:allthethings.net, DNS:theca.net
    Signature Algorithm: sha256WithRSAEncryption
         5c:e7:00:e1:c3:c5:1a:d8:01:ef:65:ab:92:af:ca:98:e1:db:
         aa:f7:bf:0f:52:fb:05:51:64:d7:3c:f3:53:8a:55:15:b7:6a:
         90:66:6f:77:9f:08:c4:58:e5:1d:46:34:fb:e1:18:bd:4f:cb:
         b4:d7:d1:ad:16:ba:bc:47:cb:76:9f:6d:86:61:23:43:70:66:
         3a:1d:a5:d0:87:e1:60:c3:2d:cb:8d:e9:43:0e:b5:ce:02:25:
         14:8c:2e:3d:d8:30:4a:70:b8:89:64:8a:25:1e:39:cb:63:65:
         c7:af:a4:bd:37:00:72:7d:36:56:d8:aa:f0:42:3a:49:80:f0:
         91:a2:79:20:67:df:b9:1a:69:f6:86:ab:23:72:27:50:82:3e:
         13:14:90:c7:f5:3b:43:8e:fe:13:28:6e:25:fc:f8:eb:8f:eb:
         34:0b:e2:e4:bc:1a:90:a1:1f:d1:10:39:6c:db:6e:b2:eb:92:
         ba:38:4a:c4:43:3e:b8:cf:15:62:fa:24:21:27:bf:0b:32:4f:
         1c:f0:1c:e2:18:c7:cf:90:5c:91:67:35:f1:46:22:ba:0e:b0:
         01:43:02:53:c1:bf:3b:7c:1e:35:3f:2b:7d:8d:ea:b6:3f:73:
         da:04:a5:b4:7e:22:fb:e3:a4:48:59:7b:0c:d7:6b:b2:ed:25:
         2a:d1:b1:58
-----BEGIN CERTIFICATE-----
MIIEHDCCAwSgAwIBAgIFBDFmlpAwDQYJKoZIhvcNAQELBQAwUjELMAkGA1UEBhMC
VVMxFjAUBgNVBAoTDU1vdGhlciBOYXR1cmUxEzARBgNVBAsTCkV2ZXJ5dGhpbmcx
FjAUBgNVBAMTDU1vdGhlciBOYXR1cmUwHhcNMTYwNzAyMjIzOTAzWhcNMTYwOTE0
MjIzOTAzWjApMRIwEAYDVQQqEwlBbGV4YW5kZXIxEzARBgNVBAQTCldhc2hpbmd0
b24wggEiMA0GCSqGSIb3DQEBAQUAA4IBDwAwggEKAoIBAQDi2UxwEfyxfwci8+C3
6puqkmhy42hyTh6Cg8YhYYh8x+kE0sIm3bxltkJB+/0N3jvleHW4A7WBNdOTkCtf
JIArsmTMchCIyJsV9xAeQ0591hXZeJWcCBOArf9+v+1xygX8FVcosrg3EX0GzMr9
+Puh2t5nnDO7/ukGqc8qWwIufqKwh7HOrJkSYjdiiJKg9Irtln92kERD0yij139u
dRTpi36PY8A7JAqoSYo0pMr7tMpwBudY4nyU5+CHTX8ONE/pUmbc2CKHH8ljgNTA
0tP/hHavltko88JNYadIpDm1JZExFs47Sa9JB0Gk4vWSCQWW744KQkoeimTyztQx
781VAgMBAAGjggEgMIIBHDAOBgNVHQ8BAf8EBAMCBaAwHQYDVR0lBBYwFAYIKwYB
BQUHAwIGCCsGAQUFBwMBMAwGA1UdEwEB/wQCMAAwDgYDVR0jBAcwBYADAQIDMGIG
CCsGAQUFBwEBBFYwVDAhBggrBgEFBQcwAYYVaHR0cDovL3RoZWNhLm5ldC9vY3Nw
MC8GCCsGAQUFBzAChiNodHRwOi8vdGhlY2EubmV0L3RvdGFsbHl0aGVjZXJ0LmNy
dDAVBgNVHSAEDjAMMAoGCCsGAQUFBw0BMA0GA1UdDgQGBAQEAwIBMBsGA1UdEQQU
MBKCCCouZ292LnVzggZnb3YudXMwJgYDVR0SBB8wHYIQYWxsdGhldGhpbmdzLm5l
dIIJdGhlY2EubmV0MA0GCSqGSIb3DQEBCwUAA4IBAQBc5wDhw8Ua2AHvZauSr8qY
4duq978PUvsFUWTXPPNTilUVt2qQZm93nwjEWOUdRjT74Ri9T8u019GtFrq8R8t2
n22GYSNDcGY6HaXQh+Fgwy3LjelDDrXOAiUUjC492DBKcLiJZIolHjnLY2XHr6S9
NwByfTZW2KrwQjpJgPCRonkgZ9+5Gmn2hqsjcidQgj4TFJDH9TtDjv4TKG4l/Pjr
j+s0C+LkvBqQoR/REDls226y65K6OErEQz64zxVi+iQhJ78LMk8c8BziGMfPkFyR
ZzXxRiK6DrABQwJTwb87fB41Pyt9jeq2P3PaBKW0fiL746RIWXsM12uy7SUq0bFY
-----END CERTIFICATE-----
