Certificate:
    Data:
        Version: 3 (0x2)
        Serial Number: 18008675309 (0x4316693ed)
    Signature Algorithm: sha256WithRSAEncryption
        Issuer: C = US, O = Mother Nature, OU = Everything, CN = Mother Nature
        Validity
            Not Before: Mar 17 22:31:15 2017 GMT
            Not After : May 29 22:31:15 2017 GMT
        Subject: C = US, O = Extreme Discord, OU = Chaos, L = Tallahassee, ST = FL, street = 3210 Holly Mill Run, postalCode = 30062, CN = gov.us
        Subject Public Key Info:
            Public Key Algorithm: rsaEncryption
                Public-Key: (2048 bit)
                Modulus:
                    00:a4:aa:18:5b:e2:f8:21:27:ba:5e:1b:97:31:46:
                    05:c9:90:61:07:45:38:82:fe:25:5d:20:01:46:7c:
                    b2:28:60:44:18:ca:07:02:76:5d:6b:e5:83:7d:49:
                    e9:8f:c4:90:9b:53:22:25:b3:17:4c:2a:c6:06:8b:
                    f9:4f:47:3f:67:89:af:46:f6:ed:25:e6:37:8b:1c:
                    43:e3:0d:e0:b7:bc:03:95:43:b2:11:92:4a:58:bf:
                    7a:b3:26:da:b8:1f:91:f1:48:6f:46:2d:3c:54:a8:
                    49:a9:82:9f:21:11:bc:10:b7:52:a3:ff:9a:23:73:
                    fa:14:7f:1b:65:dd:b5:74:3e:38:07:a1:0b:1c:43:
                    6f:b8:41:86:60:38:49:75:36:3f:be:a7:31:92:30:
                    6b:15:51:72:76:4b:b3:00:e0:c9:d6:c2:30:4e:1a:
                    73:a7:88:50:99:b6:3c:e5:c6:82:58:73:2e:5c:2b:
                    fa:9b:39:c7:71:5a:f2:65:60:b4:85:3e:8f:53:33:
                    b8:4b:dc:72:3e:84:d4:11:c9:32:e3:1c:87:bf:e2:
                    fd:d3:15:c6:76:f2:cf:8e:34:47:3d:9f:24:15:b5:
                    45:02:af:d6:68:c2:92:a3:b2:be:91:46:e0:a1:d4:
                    25:d8:41:77:d5:af:5f:73:be:18:7a:8b:86:7e:2a:
                    2e:6f
                Exponent: 65537 (0x10001)
        X509v3 extensions:
            X509v3 Key Usage: critical
                Digital Signature, Key Encipherment
            X509v3 Extended Key Usage: 
                TLS Web Client Authentication, TLS Web Server Authentication
            X509v3 Basic Constraints: critical
                CA:FALSE
            X509v3 Authority Key Identifier: 
                keyid:01:02:03

            Authority Information Access: 
                OCSP - URI:http://theca.net/ocsp
                CA Issuers - URI:http://theca.net/totallythecert.crt

            X509v3 Subject Alternative Name: 
                DNS:*.example.com, URI:test//user@*.com:1337/test
            X509v3 Issuer Alternative Name: 
                URI:test//user@*.example.com:1337/test
            X509v3 Certificate Policies: 
                Policy: 2.23.140.1.2.2

    Signature Algorithm: sha256WithRSAEncryption
         4b:de:64:82:91:46:86:5a:37:3e:0c:61:03:a0:c2:ed:24:24:
         7d:cf:cf:15:5a:ba:c2:cb:f8:17:88:99:a1:7d:06:38:f2:e5:
         d6:4f:5f:cd:bb:d9:11:93:d1:7a:7d:2d:b1:ce:37:ec:ca:0b:
         89:3b:2d:c0:9b:0b:18:a7:b7:dd:97:f0:cf:e6:91:1e:71:24:
         87:48:b7:7f:5a:35:7f:b5:99:49:a0:b2:49:45:0a:c3:04:dc:
         41:23:4b:89:75:50:b8:dc:51:b9:5e:50:e7:29:03:8b:33:89:
         48:c9:20:4c:b8:ad:d8:43:fd:59:4d:6d:dc:81:ff:4e:59:95:
         8d:73:ce:f0:64:38:74:8d:fb:e3:af:f7:15:41:ca:e3:ad:24:
         79:5d:cf:49:e2:77:ee:2e:4a:65:9f:ad:d1:52:1c:40:19:ad:
         e5:02:96:19:c9:5f:e1:43:46:ad:54:e4:63:a4:2e:5e:57:71:
         6d:06:6d:c6:ee:3d:ea:9c:70:69:d6:74:81:af:9c:86:1a:66:
         f9:02:c6:78:da:20:62:20:56:f6:0a:44:9c:9a:af:a9:73:56:
         3e:d9:d8:6d:a7:10:6e:3a:a0:7e:cb:e9:b0:72:69:2e:5c:91:
         05:1f:ae:e7:55:84:7d:e8:dc:f0:e4:11:ef:43:80:16:8e:50:
         74:b0:a6:3d
-----BEGIN CERTIFICATE-----
MIIEnDCCA4agAwIBAgIFBDFmk+0wCwYJKoZIhvcNAQELMFQxCzAJBgNVBAYTAlVT
MRYwFAYDVQQKEw1Nb3RoZXIgTmF0dXJlMRMwEQYDVQQLEwpFdmVyeXRoaW5nMRYw
FAYDVQQDEw1Nb3RoZXIgTmF0dXJlMQAwHhcNMTcwMzE3MjIzMTE1WhcNMTcwNTI5
MjIzMTE1WjCBmzELMAkGA1UEBhMCVVMxGDAWBgNVBAoTD0V4dHJlbWUgRGlzY29y
ZDEOMAwGA1UECxMFQ2hhb3MxFDASBgNVBAcTC1RhbGxhaGFzc2VlMQswCQYDVQQI
EwJGTDEcMBoGA1UECRMTMzIxMCBIb2xseSBNaWxsIFJ1bjEOMAwGA1UEERMFMzAw
NjIxDzANBgNVBAMTBmdvdi51czEAMIIBIjANBgkqhkiG9w0BAQEFAAOCAQ8AMIIB
CgKCAQEApKoYW+L4ISe6XhuXMUYFyZBhB0U4gv4lXSABRnyyKGBEGMoHAnZda+WD
fUnpj8SQm1MiJbMXTCrGBov5T0c/Z4mvRvbtJeY3ixxD4w3gt7wDlUOyEZJKWL96
sybauB+R8UhvRi08VKhJqYKfIRG8ELdSo/+aI3P6FH8bZd21dD44B6ELHENvuEGG
YDhJdTY/vqcxkjBrFVFydkuzAODJ1sIwThpzp4hQmbY85caCWHMuXCv6mznHcVry
ZWC0hT6PUzO4S9xyPoTUEcky4xyHv+L90xXGdvLPjjRHPZ8kFbVFAq/WaMKSo7K+
kUbgodQl2EF31a9fc74YeouGfioubwIDAQABo4IBLzCCASswDgYDVR0PAQH/BAQD
AgCgMB0GA1UdJQQWMBQGCCsGAQUFBwMCBggrBgEFBQcDATAMBgNVHRMBAf8EAjAA
MA4GA1UdIwQHMAWAAwECAzBiBggrBgEFBQcBAQRWMFQwIQYIKwYBBQUHMAGGFWh0
dHA6Ly90aGVjYS5uZXQvb2NzcDAvBggrBgEFBQcwAoYjaHR0cDovL3RoZWNhLm5l
dC90b3RhbGx5dGhlY2VydC5jcnQwNAYDVR0RBC0wK4INKi5leGFtcGxlLmNvbYYa
dGVzdC8vdXNlckAqLmNvbToxMzM3L3Rlc3QwLQYDVR0SBCYwJIYidGVzdC8vdXNl
ckAqLmV4YW1wbGUuY29tOjEzMzcvdGVzdDATBgNVHSAEDDAKMAgGBmeBDAECAjAL
BgkqhkiG9w0BAQsDggEBAEveZIKRRoZaNz4MYQOgwu0kJH3PzxVausLL+BeImaF9
Bjjy5dZPX8272RGT0Xp9LbHON+zKC4k7LcCbCxint92X8M/mkR5xJIdIt39aNX+1
mUmgsklFCsME3EEjS4l1ULjcUbleUOcpA4sziUjJIEy4rdhD/VlNbdyB/05ZlY1z
zvBkOHSN++Ov9xVByuOtJHldz0nid+4uSmWfrdFSHEAZreUClhnJX+FDRq1U5GOk
Ll5XcW0GbcbuPeqccGnWdIGvnIYaZvkCxnjaIGIgVvYKRJyar6lzVj7Z2G2nEG46
oH7L6bByaS5ckQUfrudVhH3o3PDkEe9DgBaOUHSwpj0=
-----END CERTIFICATE-----
