Certificate:
    Data:
        Version: 3 (0x2)
        Serial Number:
            e8:f8:ad:9e:a1:86:8b:db
        Signature Algorithm: sha1WithRSAEncryption
        Issuer: CN=Testroot
        Validity
            Not Before: Jan 15 15:51:14 2018 GMT
            Not After : Jan 13 15:51:14 2028 GMT
        Subject: CN=SANURINoAuthority
        Subject Public Key Info:
            Public Key Algorithm: rsaEncryption
                Public-Key: (2048 bit)
                Modulus:
                    00:bb:39:15:f8:cf:f3:e2:72:4a:a3:77:66:c4:2f:
                    47:d3:ad:7f:62:11:67:fa:87:f6:16:38:8b:62:c5:
                    a4:a0:e8:8a:2e:09:f1:03:d8:9f:74:d5:45:66:92:
                    0c:c0:e5:e9:36:5d:10:ad:8d:6d:00:90:9b:7c:7f:
                    6f:c8:97:74:af:5f:a3:30:c5:d6:58:e4:0a:db:96:
                    f9:90:49:64:91:a2:07:63:5f:43:2f:f3:4e:58:9b:
                    ba:56:2b:59:22:60:bc:94:55:66:25:20:16:8b:4a:
                    e8:69:4b:87:f3:cf:73:f1:1d:0c:a1:55:37:95:7c:
                    aa:1e:94:cb:61:4e:37:6c:c0:82:4b:a7:de:5d:f5:
                    3f:c8:f7:f0:6d:02:2d:aa:3d:06:71:5c:12:a1:18:
                    cc:c1:81:43:05:dd:81:7c:e4:a9:fe:7f:90:c4:e4:
                    51:40:9c:42:d2:cf:b8:93:b5:47:5a:58:08:76:dd:
                    1e:43:aa:87:ce:06:3e:bb:80:c7:c5:3e:36:16:e6:
                    a3:8a:8b:d3:70:f7:d0:71:2e:d1:c6:19:aa:43:90:
                    59:7f:29:f0:13:31:d0:46:97:2c:6e:37:65:73:03:
                    4e:a6:07:e8:34:2f:2b:47:dc:70:db:95:45:37:9a:
                    ba:18:57:92:b7:da:e0:b5:d7:ea:f7:a7:81:56:42:
                    88:59
                Exponent: 65537 (0x10001)
        X509v3 extensions:
            X509v3 Subject Alternative Name: 
                DNS:*.example.com, URI:sip:alice@sip.uri.com
    Signature Algorithm: sha1WithRSAEncryption
        a5:5e:79:a7:ca:e9:2b:61:87:a8:ed:93:fb:4b:4f:21:bd:e1:
        c0:1c:f7:38:90:e1:fc:e7:74:d7:70:7a:47:c7:07:7f:5c:20:
        48:a5:2c:73:0d:a9:c5:b9:60:c1:a3:86:35:18:55:ad:ad:94:
        d2:64:12:8e:34:40:fc:f1:e3:84:87:e6:59:2f:f9:3c:64:18:
        8f:95:90:a4:b1:27:3e:ce:32:6c:2d:34:2e:de:4b:9b:96:0a:
        9c:1b:77:c4:ec:58:8e:6a:a2:52:3d:b9:04:28:3e:33:d4:52:
        40:75:88:b5:e0:f0:1b:24:2c:8c:52:8e:bb:0f:7c:3d:78:8e:
        c8:5d:b2:27:51:7d:e8:8c:32:ae:e4:8c:ea:0f:65:67:aa:39:
        e7:cf:ac:01:62:3a:56:48:45:c4:4f:8b:76:19:42:5a:c6:b2:
        70:f8:77:a7:b5:79:69:43:16:d0:27:53:80:5a:54:b9:e4:70:
        8b:76:7d:a0:4f:15:1c:13:12:1c:a4:20:cd:b6:17:70:4f:b5:
        13:88:ac:78:be:55:26:f6:d2:e1:f1:f6:d8:69:c2:ef:e7:df:
        86:eb:e2:2e:38:4f:9a:b3:df:79:dd:35:83:d1:b1:7c:8d:37:
        e4:b2:99:df:fe:f1:91:1a:59:f9:db:a9:70:f6:f5:2c:45:7b:
        d0:68:73:ec
-----BEGIN CERTIFICATE-----
MIIC5TCCAc2gAwIBAgIJAOj4rZ6hhovbMA0GCSqGSIb3DQEBBQUAMBMxETAPBgNV
BAMTCFRlc3Ryb290MB4XDTE4MDExNTE1NTExNFoXDTI4MDExMzE1NTExNFowHDEa
MBgGA1UEAxMRU0FOVVJJTm9BdXRob3JpdHkwggEiMA0GCSqGSIb3DQEBAQUAA4IB
DwAwggEKAoIBAQC7ORX4z/Pickqjd2bEL0fTrX9iEWf6h/YWOItixaSg6IouCfED
2J901UVmkgzA5ek2XRCtjW0AkJt8f2/Il3SvX6MwxdZY5ArblvmQSWSRogdjX0Mv
805Ym7pWK1kiYLyUVWYlIBaLSuhpS4fzz3PxHQyhVTeVfKoelMthTjdswIJLp95d
9T/I9/BtAi2qPQZxXBKhGMzBgUMF3YF85Kn+f5DE5FFAnELSz7iTtUdaWAh23R5D
qofOBj67gMfFPjYW5qOKi9Nw99BxLtHGGapDkFl/KfATMdBGlyxuN2VzA06mB+g0
LytH3HDblUU3mroYV5K32uC11+r3p4FWQohZAgMBAAGjMzAxMC8GA1UdEQQoMCaC
DSouZXhhbXBsZS5jb22GFXNpcDphbGljZUBzaXAudXJpLmNvbTANBgkqhkiG9w0B
AQUFAAOCAQEApV55p8rpK2GHqO2T+0tPIb3hwBz3OJDh/Od013B6R8cHf1wgSKUs
cw2pxblgwaOGNRhVra2U0mQSjjRA/PHjhIfmWS/5PGQYj5WQpLEnPs4ybC00Lt5L
m5YKnBt3xOxYjmqiUj25BCg+M9RSQHWIteDwGyQsjFKOuw98PXiOyF2yJ1F96Iwy
ruSM6g9lZ6o558+sAWI6VkhFxE+LdhlCWsaycPh3p7V5aUMW0CdTgFpUueRwi3Z9
oE8VHBMSHKQgzbYXcE+1E4iseL5VJvbS4fH22GnC7+ffhuviLjhPmrPfed01g9Gx
fI035LKZ3/7xkRpZ+dupcPb1LEV70Ghz7A==
-----END CERTIFICATE-----
