Certificate:
    Data:
        Version: 3 (0x2)
        Serial Number: 18008675309 (0x4316693ed)
    Signature Algorithm: sha256WithRSAEncryption
        Issuer: C = US, O = Mother Nature, OU = Everything, CN = Name constraint
        Validity
            Not Before: Dec  1 06:07:08 2055 GMT
            Not After : Sep 27 02:14:12 2056 GMT
        Subject: C = US, O = Extreme Discord, OU = Chaos, L = Tallahassee, ST = FL, street = 3210 Holly Mill Run, postalCode = 30062, CN = gov.us
        Subject Public Key Info:
            Public Key Algorithm: rsaEncryption
                Public-Key: (2048 bit)
                Modulus:
                    00:d6:9f:10:90:de:7a:68:34:36:1d:52:cf:cc:c5:
                    1d:2c:f3:12:c2:79:bb:99:fd:42:4a:06:90:6c:e3:
                    3b:90:1e:10:83:76:66:a5:37:74:ab:89:76:53:6a:
                    dd:66:37:8e:8e:b9:8c:ac:56:16:d0:81:9d:e9:83:
                    9a:1e:f1:00:62:18:6b:2d:1c:f1:d7:a9:72:51:df:
                    c3:70:4b:fd:f1:07:57:58:7f:5a:82:2b:19:d2:f3:
                    73:53:35:a3:04:b7:16:99:da:a5:5f:36:d0:65:5f:
                    bb:bb:27:5c:8e:d8:b9:03:75:b4:f5:ec:88:f3:46:
                    9a:d7:57:f5:eb:20:47:85:29:2d:dd:cd:98:fe:b0:
                    2f:68:31:4a:8a:31:3e:11:e2:0c:19:8d:96:44:84:
                    c2:6c:7c:44:47:41:c7:d7:92:d5:81:4f:9a:59:c5:
                    2d:18:63:91:12:81:be:01:65:98:42:2d:ec:85:7e:
                    15:52:8e:2f:2b:b4:e1:51:b2:e6:f0:6a:4f:25:0b:
                    03:54:6b:74:8f:6e:67:72:56:68:14:c0:54:f1:3a:
                    b1:d6:d4:4f:94:e3:6e:b8:40:57:0e:56:1c:1d:c0:
                    04:92:cc:9e:a2:c9:95:65:b3:59:6f:de:4a:2c:95:
                    8f:c8:e9:ff:d7:c7:63:e3:6a:7d:a2:18:e7:cf:ac:
                    ac:05
                Exponent: 65537 (0x10001)
        X509v3 extensions:
            X509v3 Key Usage: critical
                Digital Signature, Key Encipherment, Certificate Sign
            X509v3 Extended Key Usage: 
                TLS Web Client Authentication, TLS Web Server Authentication
            X509v3 Basic Constraints: critical
                CA:TRUE
            X509v3 Authority Key Identifier: 
                keyid:01:02:03

            Authority Information Access: 
                OCSP - URI:http://theca.net/ocsp
                CA Issuers - URI:http://theca.net/totallythecert.crt

            X509v3 Subject Alternative Name: 
                URI:irrelevantinfo//user@192.168.1.1, DNS:www.dns.com
            X509v3 Certificate Policies: 
                Policy: 2.23.140.1.2.2
                Policy: 1.2.3.4.5

            X509v3 Name Constraints: 
                Permitted:
                  email:good_email@gg.com
                  email:LulMail
                  DNS:permitted.com
                  DirName:C = US, O = UIUC, OU = ECE, L = Champaign, ST = IL, street = 601 Wright St, postalCode = 61820, CN = uiuc.net
                  IP:74.125.224.72/255.255.0.0
                Excluded:
                  email:bad_email@gg.com
                  email:LulMail
                  DNS:banned.com
                  DirName:C = US, O = Umich, OU = CS, L = Ann Arbor, ST = MI, street = 500 State St, postalCode = 48109, CN = umich.net
                  IP:192.168.1.1/255.255.0.0

    Signature Algorithm: sha256WithRSAEncryption
         1b:09:0a:ce:7e:25:47:15:71:da:fa:48:b9:eb:37:a2:7d:e8:
         15:cb:d8:89:61:90:ac:01:cb:d4:47:cd:32:26:63:8b:f8:1b:
         2d:66:92:9b:62:67:d5:7e:5e:eb:30:9e:c3:1c:ae:36:e9:f4:
         e2:96:96:37:72:75:95:dd:97:de:e3:f9:3c:ba:1f:20:a6:0e:
         80:c0:d4:d9:47:bb:7f:30:4d:82:e5:2c:a2:c0:7b:df:7d:6b:
         66:4b:dc:06:91:5d:ef:3b:11:7a:73:bb:be:a0:9a:52:53:f1:
         b8:9f:c9:b2:96:94:e2:11:28:47:7f:04:88:99:d5:83:77:34:
         c0:da:40:db:5a:a8:91:2d:0f:3a:46:65:66:fa:6c:74:92:86:
         bd:e7:bb:49:4a:63:b1:90:f2:29:b6:fc:5f:15:1d:ee:57:f9:
         73:9f:af:c6:d1:cf:3e:6e:14:8a:0a:95:f5:4c:bc:af:4b:37:
         b4:f4:af:ea:fa:28:16:f4:43:1f:7e:0d:e4:f4:39:dd:73:e4:
         b7:0a:20:c2:8f:6d:5b:d1:0f:42:c1:cd:41:be:06:28:56:74:
         c3:64:5c:48:1f:75:67:d1:92:a5:a1:a8:18:4f:f6:11:69:6b:
         9a:96:33:c9:41:26:6e:ac:ed:23:0c:9c:2e:ed:cb:bb:48:ee:
         2e:79:33:45
-----BEGIN CERTIFICATE-----
MIIGMTCCBRugAwIBAgIFBDFmk+0wCwYJKoZIhvcNAQELMFYxCzAJBgNVBAYTAlVT
MRYwFAYDVQQKEw1Nb3RoZXIgTmF0dXJlMRMwEQYDVQQLEwpFdmVyeXRoaW5nMRgw
FgYDVQQDEw9OYW1lIGNvbnN0cmFpbnQxADAiGA8yMDU1MTIwMTA2MDcwOFoYDzIw
NTYwOTI3MDIxNDEyWjCBmzELMAkGA1UEBhMCVVMxGDAWBgNVBAoTD0V4dHJlbWUg
RGlzY29yZDEOMAwGA1UECxMFQ2hhb3MxFDASBgNVBAcTC1RhbGxhaGFzc2VlMQsw
CQYDVQQIEwJGTDEcMBoGA1UECRMTMzIxMCBIb2xseSBNaWxsIFJ1bjEOMAwGA1UE
ERMFMzAwNjIxDzANBgNVBAMTBmdvdi51czEAMIIBIjANBgkqhkiG9w0BAQEFAAOC
AQ8AMIIBCgKCAQEA1p8QkN56aDQ2HVLPzMUdLPMSwnm7mf1CSgaQbOM7kB4Qg3Zm
pTd0q4l2U2rdZjeOjrmMrFYW0IGd6YOaHvEAYhhrLRzx16lyUd/DcEv98QdXWH9a
gisZ0vNzUzWjBLcWmdqlXzbQZV+7uydcjti5A3W09eyI80aa11f16yBHhSkt3c2Y
/rAvaDFKijE+EeIMGY2WRITCbHxER0HH15LVgU+aWcUtGGOREoG+AWWYQi3shX4V
Uo4vK7ThUbLm8GpPJQsDVGt0j25nclZoFMBU8Tqx1tRPlONuuEBXDlYcHcAEksye
osmVZbNZb95KLJWPyOn/18dj42p9ohjnz6ysBQIDAQABo4ICvjCCArowDgYDVR0P
AQH/BAQDAgCkMB0GA1UdJQQWMBQGCCsGAQUFBwMCBggrBgEFBQcDATAPBgNVHRMB
Af8EBTADAQH/MA4GA1UdIwQHMAWAAwECAzBiBggrBgEFBQcBAQRWMFQwIQYIKwYB
BQUHMAGGFWh0dHA6Ly90aGVjYS5uZXQvb2NzcDAvBggrBgEFBQcwAoYjaHR0cDov
L3RoZWNhLm5ldC90b3RhbGx5dGhlY2VydC5jcnQwOAYDVR0RBDEwL4YgaXJyZWxl
dmFudGluZm8vL3VzZXJAMTkyLjE2OC4xLjGCC3d3dy5kbnMuY29tMBsGA1UdIAQU
MBIwCAYGZ4EMAQICMAYGBCoDBAUwggGrBgNVHR4EggGiMIIBnqCBzjATgRFnb29k
X2VtYWlsQGdnLmNvbTAJgQdMdWxNYWlsMA+CDXBlcm1pdHRlZC5jb20wgY6kgYsw
gYgxCzAJBgNVBAYTAlVTMQ0wCwYDVQQKEwRVSVVDMQwwCgYDVQQLEwNFQ0UxEjAQ
BgNVBAcTCUNoYW1wYWlnbjELMAkGA1UECBMCSUwxFjAUBgNVBAkTDTYwMSBXcmln
aHQgU3QxDjAMBgNVBBETBTYxODIwMREwDwYDVQQDEwh1aXVjLm5ldDEAMAqHCEp9
4Ej//wAAoYHKMBKBEGJhZF9lbWFpbEBnZy5jb20wCYEHTHVsTWFpbDAMggpiYW5u
ZWQuY29tMIGOpIGLMIGIMQswCQYDVQQGEwJVUzEOMAwGA1UEChMFVW1pY2gxCzAJ
BgNVBAsTAkNTMRIwEAYDVQQHEwlBbm4gQXJib3IxCzAJBgNVBAgTAk1JMRUwEwYD
VQQJEww1MDAgU3RhdGUgU3QxDjAMBgNVBBETBTQ4MTA5MRIwEAYDVQQDEwl1bWlj
aC5uZXQxADAKhwjAqAEB//8AADALBgkqhkiG9w0BAQsDggEBABsJCs5+JUcVcdr6
SLnrN6J96BXL2IlhkKwBy9RHzTImY4v4Gy1mkptiZ9V+XuswnsMcrjbp9OKWljdy
dZXdl97j+Ty6HyCmDoDA1NlHu38wTYLlLKLAe999a2ZL3AaRXe87EXpzu76gmlJT
8bifybKWlOIRKEd/BIiZ1YN3NMDaQNtaqJEtDzpGZWb6bHSShr3nu0lKY7GQ8im2
/F8VHe5X+XOfr8bRzz5uFIoKlfVMvK9LN7T0r+r6KBb0Qx9+DeT0Od1z5LcKIMKP
bVvRD0LBzUG+BihWdMNkXEgfdWfRkqWhqBhP9hFpa5qWM8lBJm6s7SMMnC7ty7tI
7i55M0U=
-----END CERTIFICATE-----
