Certificate:
    Data:
        Version: 3 (0x2)
        Serial Number: 18008675309 (0x4316693ed)
    Signature Algorithm: sha256WithRSAEncryption
        Issuer: C = US, O = Mother Nature, OU = Everything, CN = Mother Nature
        Validity
            Not Before: Mar 28 19:54:54 2017 GMT
            Not After : Jun  9 19:54:54 2017 GMT
        Subject: C = US, ST = FL, L = Tallahassee, street = 3210 Holly Mill Run, postalCode = 30062, O = Extreme Discord, OU = Chaos, CN = gov.us
        Subject Public Key Info:
            Public Key Algorithm: rsaEncryption
                Public-Key: (2048 bit)
                Modulus:
                    00:b9:49:31:91:87:e9:da:d6:93:ea:9f:eb:9c:28:
                    ab:e7:31:19:d4:63:b7:93:98:3b:3f:65:bf:82:11:
                    fc:8b:13:54:2e:eb:be:6b:2e:2c:13:81:eb:58:d7:
                    4b:bb:1b:9c:6a:c7:8c:25:55:e8:5a:f7:bb:68:fc:
                    e3:df:df:d8:ec:5f:9a:23:6a:59:af:f5:57:4d:15:
                    52:27:60:e8:94:0e:98:4e:f3:ce:99:8d:b8:d9:ed:
                    42:ae:50:0c:b5:ac:a5:27:e4:32:71:90:3d:97:8b:
                    a3:a8:39:28:d1:9d:c7:d5:90:40:58:ed:16:46:f0:
                    4a:37:46:d5:92:ba:84:62:62:5a:f8:f5:99:9e:1c:
                    36:6e:7b:f7:bf:78:4c:77:75:9a:fa:ed:80:2e:f0:
                    81:e2:a6:3d:07:0c:1c:29:86:1d:a4:b8:5b:1a:8c:
                    43:11:7b:65:20:a8:18:a6:c4:b4:a2:c8:43:cd:14:
                    c6:e2:a7:f3:0b:7f:f2:20:59:af:5e:be:a1:a3:1e:
                    83:22:ec:a6:3f:e4:cf:aa:ae:8c:b4:41:bc:30:00:
                    ab:e3:d5:34:7f:ee:06:a0:3a:6b:24:ae:c1:dd:86:
                    01:32:5b:50:9f:40:74:93:11:aa:7f:07:43:d1:c8:
                    06:d9:8c:d5:65:2f:77:2e:12:46:68:95:48:c7:3b:
                    97:c9
                Exponent: 65537 (0x10001)
        X509v3 extensions:
            X509v3 Key Usage: critical
                Digital Signature, Key Encipherment
            X509v3 Extended Key Usage: 
                TLS Web Client Authentication, TLS Web Server Authentication
            X509v3 Basic Constraints: critical
                CA:FALSE
            X509v3 Authority Key Identifier: 
                keyid:01:02:03

            Authority Information Access: 
                OCSP - URI:http://theca.net/ocsp
                CA Issuers - URI:http://theca.net/totallythecert.crt

            X509v3 Certificate Policies: 
                Policy: 2.23.140.1.2.2

            X509v3 Subject Key Identifier: 
                04:03:02:01
            X509v3 Subject Alternative Name: 
                URI:gov, URI:gov.us
    Signature Algorithm: sha256WithRSAEncryption
         c8:dd:f3:73:00:e5:bc:b8:61:2b:ba:7f:f4:9c:86:1d:38:78:
         05:f2:9f:3e:f8:06:47:44:08:b8:b4:d3:c6:1e:ab:06:ea:93:
         c5:1e:c7:f0:ad:5c:bd:d5:50:94:bd:82:57:5f:94:1e:83:ad:
         1b:64:c2:cf:94:3a:36:dd:db:4c:42:c4:6f:04:82:27:1a:72:
         35:15:9a:a8:c3:e4:7c:c6:12:07:08:7f:3d:f9:76:8f:1e:f9:
         4a:06:7f:92:b0:17:a7:a2:3b:09:51:94:e6:ef:22:05:a6:56:
         cb:31:2c:19:30:dc:f1:20:b1:64:f9:6f:d5:cb:d0:e0:31:af:
         b6:6c:3c:ed:31:81:cd:70:a4:c9:5a:3e:1b:18:c2:59:51:08:
         fb:a8:01:50:c3:f2:91:28:c0:81:0b:2d:ef:31:56:fa:02:ed:
         73:65:47:9c:4b:1b:75:f4:76:4c:90:ec:7d:74:17:cd:b0:96:
         b7:72:e5:d9:8a:d1:17:61:1b:6e:e4:2e:4a:c2:c1:31:d7:3c:
         20:ec:c5:4f:01:6a:9b:cc:f3:a5:11:79:f6:7c:53:5c:8d:1b:
         8b:1b:fd:5b:85:00:93:74:45:41:a1:d6:a9:cd:30:70:d9:1c:
         ef:d7:f9:8c:2d:b8:83:91:e9:a8:c1:9b:7a:b8:6b:25:db:8c:
         1a:ed:8e:21
-----BEGIN CERTIFICATE-----
MIIEXDCCA0SgAwIBAgIFBDFmk+0wDQYJKoZIhvcNAQELBQAwUjELMAkGA1UEBhMC
VVMxFjAUBgNVBAoTDU1vdGhlciBOYXR1cmUxEzARBgNVBAsTCkV2ZXJ5dGhpbmcx
FjAUBgNVBAMTDU1vdGhlciBOYXR1cmUwHhcNMTcwMzI4MTk1NDU0WhcNMTcwNjA5
MTk1NDU0WjCBmTELMAkGA1UEBhMCVVMxCzAJBgNVBAgTAkZMMRQwEgYDVQQHEwtU
YWxsYWhhc3NlZTEcMBoGA1UECRMTMzIxMCBIb2xseSBNaWxsIFJ1bjEOMAwGA1UE
ERMFMzAwNjIxGDAWBgNVBAoTD0V4dHJlbWUgRGlzY29yZDEOMAwGA1UECxMFQ2hh
b3MxDzANBgNVBAMTBmdvdi51czCCASIwDQYJKoZIhvcNAQEBBQADggEPADCCAQoC
ggEBALlJMZGH6drWk+qf65woq+cxGdRjt5OYOz9lv4IR/IsTVC7rvmsuLBOB61jX
S7sbnGrHjCVV6Fr3u2j849/f2OxfmiNqWa/1V00VUidg6JQOmE7zzpmNuNntQq5Q
DLWspSfkMnGQPZeLo6g5KNGdx9WQQFjtFkbwSjdG1ZK6hGJiWvj1mZ4cNm579794
THd1mvrtgC7wgeKmPQcMHCmGHaS4WxqMQxF7ZSCoGKbEtKLIQ80UxuKn8wt/8iBZ
r16+oaMegyLspj/kz6qujLRBvDAAq+PVNH/uBqA6aySuwd2GATJbUJ9AdJMRqn8H
Q9HIBtmM1WUvdy4SRmiVSMc7l8kCAwEAAaOB8DCB7TAOBgNVHQ8BAf8EBAMCBaAw
HQYDVR0lBBYwFAYIKwYBBQUHAwIGCCsGAQUFBwMBMAwGA1UdEwEB/wQCMAAwDgYD
VR0jBAcwBYADAQIDMGIGCCsGAQUFBwEBBFYwVDAhBggrBgEFBQcwAYYVaHR0cDov
L3RoZWNhLm5ldC9vY3NwMC8GCCsGAQUFBzAChiNodHRwOi8vdGhlY2EubmV0L3Rv
dGFsbHl0aGVjZXJ0LmNydDATBgNVHSAEDDAKMAgGBmeBDAECAjANBgNVHQ4EBgQE
BAMCATAWBgNVHREEDzANhgNnb3aGBmdvdi51czANBgkqhkiG9w0BAQsFAAOCAQEA
yN3zcwDlvLhhK7p/9JyGHTh4BfKfPvgGR0QIuLTTxh6rBuqTxR7H8K1cvdVQlL2C
V1+UHoOtG2TCz5Q6Nt3bTELEbwSCJxpyNRWaqMPkfMYSBwh/Pfl2jx75SgZ/krAX
p6I7CVGU5u8iBaZWyzEsGTDc8SCxZPlv1cvQ4DGvtmw87TGBzXCkyVo+GxjCWVEI
+6gBUMPykSjAgQst7zFW+gLtc2VHnEsbdfR2TJDsfXQXzbCWt3Ll2YrRF2EbbuQu
SsLBMdc8IOzFTwFqm8zzpRF59nxTXI0bixv9W4UAk3RFQaHWqc0wcNkc79f5jC24
g5HpqMGberhrJduMGu2OIQ==
-----END CERTIFICATE-----
