Certificate:
    Data:
        Version: 3 (0x2)
        Serial Number: 14615016 (0xdf01e8)
    Signature Algorithm: sha256WithRSAEncryption
        Issuer: C = US, O = Mother Nature, OU = Everything, CN = Mother Nature
        Validity
            Not Before: Sep 12 19:13:30 2016 GMT
            Not After : Nov 24 20:13:30 2016 GMT
        Subject: C = US, ST = FL, L = Tallahassee, street = 3210 Holly Mill Run, postalCode = 30062, O = Extreme Discord, OU = Chaos, CN = ::
        Subject Public Key Info:
            Public Key Algorithm: rsaEncryption
                Public-Key: (2048 bit)
                Modulus:
                    00:d5:43:61:c2:e5:83:c7:26:17:34:03:60:8b:72:
                    5e:2a:1d:12:08:eb:a3:19:df:ac:3d:84:d8:49:9d:
                    23:3a:96:c0:94:b4:82:08:ee:fb:fa:8a:6c:d1:6c:
                    ca:93:c5:50:6f:46:10:5b:46:09:97:3d:af:b6:f2:
                    6a:0d:95:e1:30:4b:a6:c7:65:82:2a:33:43:cb:f8:
                    43:b5:f8:45:13:c6:97:8b:d7:4a:cc:4a:48:e2:44:
                    7f:9b:48:ef:cc:fb:28:9c:9c:9b:d1:74:f5:c7:09:
                    36:0e:13:e6:d8:84:fa:26:73:b5:42:62:a9:35:9a:
                    2b:cd:b9:26:fa:b1:32:39:79:1f:41:cb:db:88:b1:
                    e8:08:09:93:2c:b2:7f:c8:a7:b7:75:bd:9a:a5:84:
                    eb:6f:55:c7:9f:d1:dd:19:70:38:a5:68:bd:37:86:
                    5b:b1:77:a8:40:0d:78:bd:9e:66:f1:72:1d:cd:1f:
                    05:a1:23:67:34:5f:60:7f:51:1b:f0:c1:11:5b:10:
                    e9:e0:86:bf:6f:36:ff:bc:3c:13:bc:ff:e0:80:d6:
                    52:80:ca:cc:8e:0b:76:2b:ec:6a:44:69:2f:fb:27:
                    e5:e1:b6:ff:85:f4:27:2a:07:e5:c7:d8:e1:2e:74:
                    be:a1:1d:0d:b5:80:93:90:88:b5:c6:00:92:22:d9:
                    3a:7d
                Exponent: 65537 (0x10001)
        X509v3 extensions:
            X509v3 Basic Constraints: critical
                CA:FALSE
            X509v3 Authority Key Identifier: 
                keyid:01:02:03

            Authority Information Access: 
                OCSP - URI:http://theca.net/ocsp
                CA Issuers - URI:theca.net/totallythecert.crt

            X509v3 Subject Alternative Name: 
                IP Address:128.168.45.1
            X509v3 CRL Distribution Points: 

                Full Name:
                  URI:ldap://theca.net/crlpoint

            X509v3 Subject Key Identifier: 
                04:03:02:01
            X509v3 Key Usage: 
                Data Encipherment, Key Agreement
            X509v3 Extended Key Usage: 
                TLS Web Server Authentication, 1.2.840.113635.100.4.3, Signing KDC Response, Any Extended Key Usage
            X509v3 Certificate Policies: 
                Policy: 2.16.840.1.114414.1.7.23.1
                  CPS: http://certificates.starfieldtech.com/repository/

    Signature Algorithm: sha256WithRSAEncryption
         ac:52:22:80:1c:a7:77:aa:62:20:f2:69:22:e4:01:f2:02:21:
         5b:83:31:67:8d:8d:9a:8d:28:37:2b:69:ab:c3:ea:6b:ee:44:
         03:67:f6:ab:d7:bf:95:9e:c6:b7:a3:2a:f0:2e:3a:f0:b7:19:
         17:b0:de:17:7c:a4:07:d8:1b:be:18:56:e3:90:74:29:71:36:
         d0:a6:a7:1c:2b:5f:3a:b3:26:be:8e:de:e0:da:dd:2d:23:cc:
         02:ca:44:09:ce:22:7d:9e:f5:09:4c:8e:d2:68:b5:b9:e6:4b:
         e6:ff:4c:ec:42:77:ee:ac:24:e9:b0:20:62:5e:08:7c:d7:ee:
         4e:fd:29:86:cd:5d:cb:c5:dc:04:f7:b6:7b:9e:6c:95:24:a5:
         37:d0:fd:73:37:73:02:04:7a:82:b1:d0:9c:79:9f:10:82:6c:
         30:f1:41:26:66:64:92:2c:c1:a3:91:50:94:d7:35:bb:3f:0d:
         2f:b6:d3:a8:db:36:d6:63:8a:9f:57:ae:84:93:4e:51:70:9b:
         4d:bb:ba:0c:e8:8e:89:21:ef:1d:88:4a:5f:a4:8b:7a:81:9b:
         d5:b3:fb:fc:a3:e6:19:f5:84:ac:12:ca:12:ee:14:2e:58:7e:
         72:df:fb:72:3d:4d:cb:ba:ac:a8:66:b6:53:29:86:5c:77:e0:
         7b:6d:54:89
-----BEGIN CERTIFICATE-----
MIIEyjCCA7KgAwIBAgIEAN8B6DANBgkqhkiG9w0BAQsFADBSMQswCQYDVQQGEwJV
UzEWMBQGA1UEChMNTW90aGVyIE5hdHVyZTETMBEGA1UECxMKRXZlcnl0aGluZzEW
MBQGA1UEAxMNTW90aGVyIE5hdHVyZTAeFw0xNjA5MTIxOTEzMzBaFw0xNjExMjQy
MDEzMzBaMIGVMQswCQYDVQQGEwJVUzELMAkGA1UECBMCRkwxFDASBgNVBAcTC1Rh
bGxhaGFzc2VlMRwwGgYDVQQJExMzMjEwIEhvbGx5IE1pbGwgUnVuMQ4wDAYDVQQR
EwUzMDA2MjEYMBYGA1UEChMPRXh0cmVtZSBEaXNjb3JkMQ4wDAYDVQQLEwVDaGFv
czELMAkGA1UEAxMCOjowggEiMA0GCSqGSIb3DQEBAQUAA4IBDwAwggEKAoIBAQDV
Q2HC5YPHJhc0A2CLcl4qHRII66MZ36w9hNhJnSM6lsCUtIII7vv6imzRbMqTxVBv
RhBbRgmXPa+28moNleEwS6bHZYIqM0PL+EO1+EUTxpeL10rMSkjiRH+bSO/M+yic
nJvRdPXHCTYOE+bYhPomc7VCYqk1mivNuSb6sTI5eR9By9uIsegICZMssn/Ip7d1
vZqlhOtvVcef0d0ZcDilaL03hluxd6hADXi9nmbxch3NHwWhI2c0X2B/URvwwRFb
EOnghr9vNv+8PBO8/+CA1lKAysyOC3Yr7GpEaS/7J+Xhtv+F9CcqB+XH2OEudL6h
HQ21gJOQiLXGAJIi2Tp9AgMBAAGjggFiMIIBXjAMBgNVHRMBAf8EAjAAMA4GA1Ud
IwQHMAWAAwECAzBbBggrBgEFBQcBAQRPME0wIQYIKwYBBQUHMAGGFWh0dHA6Ly90
aGVjYS5uZXQvb2NzcDAoBggrBgEFBQcwAoYcdGhlY2EubmV0L3RvdGFsbHl0aGVj
ZXJ0LmNydDAPBgNVHREECDAGhwSAqC0BMCoGA1UdHwQjMCEwH6AdoBuGGWxkYXA6
Ly90aGVjYS5uZXQvY3JscG9pbnQwDQYDVR0OBAYEBAQDAgEwCwYDVR0PBAQDAgEY
MC0GA1UdJQQmMCQGCCsGAQUFBwMBBgkqhkiG92NkBAMGBysGAQUCAwUGBFUdJQAw
WQYDVR0gBFIwUDBOBgtghkgBhv1uAQcXATA/MD0GCCsGAQUFBwIBFjFodHRwOi8v
Y2VydGlmaWNhdGVzLnN0YXJmaWVsZHRlY2guY29tL3JlcG9zaXRvcnkvMA0GCSqG
SIb3DQEBCwUAA4IBAQCsUiKAHKd3qmIg8mki5AHyAiFbgzFnjY2ajSg3K2mrw+pr
7kQDZ/ar17+Vnsa3oyrwLjrwtxkXsN4XfKQH2Bu+GFbjkHQpcTbQpqccK186sya+
jt7g2t0tI8wCykQJziJ9nvUJTI7SaLW55kvm/0zsQnfurCTpsCBiXgh81+5O/SmG
zV3LxdwE97Z7nmyVJKU30P1zN3MCBHqCsdCceZ8Qgmww8UEmZmSSLMGjkVCU1zW7
Pw0vttOo2zbWY4qfV66Ek05RcJtNu7oM6I6JIe8diEpfpIt6gZvVs/v8o+YZ9YSs
EsoS7hQuWH5y3/tyPU3LuqyoZrZTKYZcd+B7bVSJ
-----END CERTIFICATE-----
