Certificate:
    Data:
        Version: 3 (0x2)
        Serial Number: 3 (0x3)
        Signature Algorithm: ecdsa-with-SHA256
        Issuer: 
        Validity
            Not Before: Sep  1 00:00:00 2021 GMT
            Not After : Nov 30 00:00:00 9998 GMT
        Subject: CN = www.example.com
        Subject Public Key Info:
            Public Key Algorithm: id-ecPublicKey
                Public-Key: (256 bit)
                pub:
                    04:c0:30:b6:4f:70:82:3a:d0:f0:d7:eb:f0:ec:c1:
                    99:ec:07:f5:9d:fc:18:fd:63:61:d2:dc:5e:0b:dc:
                    af:cf:c2:26:b0:6a:3b:7e:8f:cd:df:c1:e3:37:4d:
                    74:44:92:65:23:cd:75:fd:b1:f0:74:4d:72:37:b2:
                    1b:bd:c4:83:bf
                ASN1 OID: prime256v1
                NIST CURVE: P-256
        X509v3 extensions:
            X509v3 Subject Alternative Name: 
                DNS:www.example.com
    Signature Algorithm: ecdsa-with-SHA256
         30:44:02:20:17:8d:c8:4b:9e:ea:b7:a2:4d:e5:54:fc:13:f2:
         8e:44:f7:1c:12:ed:64:db:73:53:1f:be:35:ec:0c:55:39:0a:
         02:20:77:f1:78:4a:c8:eb:0d:9f:f1:d4:2f:7d:7c:ff:40:ad:
         0c:ea:03:72:34:35:9e:eb:e2:5a:85:78:b2:3e:63:99
-----BEGIN CERTIFICATE-----
MIIBJzCBz6ADAgECAgEDMAoGCCqGSM49BAMCMAAwIBcNMjEwOTAxMDAwMDAwWhgP
OTk5ODExMzAwMDAwMDBaMBoxGDAWBgNVBAMTD3d3dy5leGFtcGxlLmNvbTBZMBMG
ByqGSM49AgEGCCqGSM49AwEHA0IABMAwtk9wgjrQ8Nfr8OzBmewH9Z38GP1jYdLc
Xgvcr8/CJrBqO36Pzd/B4zdNdESSZSPNdf2x8HRNcjeyG73Eg7+jHjAcMBoGA1Ud
EQQTMBGCD3d3dy5leGFtcGxlLmNvbTAKBggqhkjOPQQDAgNHADBEAiAXjchLnuq3
ok3lVPwT8o5E9xwS7WTbc1MfvjXsDFU5CgIgd/F4SsjrDZ/x1C99fP9ArQzqA3I0
NZ7r4lqFeLI+Y5k=
-----END CERTIFICATE-----