Certificate:
    Data:
        Version: 3 (0x2)
        Serial Number: 18008675309 (0x4316693ed)
    Signature Algorithm: sha256WithRSAEncryption
        Issuer: C = US, O = Mother Nature, OU = Everything, CN = Mother Nature
        Validity
            Not Before: Jul  1 14:56:31 2016 GMT
            Not After : Sep 13 14:56:31 2016 GMT
        Subject: C = US, ST = FL, L = Tallahassee, street = 3210 Holly Mill Run, postalCode = 30062, O = Extreme Discord, OU = Chaos, CN = gov.us
        Subject Public Key Info:
            Public Key Algorithm: rsaEncryption
                Public-Key: (2048 bit)
                Modulus:
                    00:c4:1a:5d:d8:20:fb:d7:7c:25:4d:0e:2f:d4:95:
                    36:03:ef:5d:23:61:2e:cb:97:64:31:a6:0b:da:50:
                    13:1e:01:bb:ea:5e:e8:15:05:98:d6:92:db:0c:50:
                    45:d5:48:a4:63:58:c0:e4:86:30:8d:62:73:e8:31:
                    89:f7:f9:c2:37:90:35:b7:c3:99:7b:46:8c:8c:c8:
                    f4:f2:56:c7:2f:3f:1a:8a:bc:24:51:bc:64:7b:c0:
                    20:8b:ab:7d:6a:2d:17:e5:56:be:f8:84:3b:04:ed:
                    4f:ee:7b:5b:c2:8c:00:f4:4d:fc:33:af:eb:50:67:
                    ea:47:ce:30:5f:cc:8c:09:70:b6:e5:d9:89:fc:9c:
                    e2:c4:ad:93:f2:bb:f8:9e:f1:d6:97:15:4d:9f:a1:
                    8d:17:c6:80:af:b0:b4:47:ca:99:f5:0f:b8:68:0e:
                    f7:33:4e:c3:fe:32:35:14:61:6a:73:45:3b:82:78:
                    2d:92:75:97:b5:e9:73:2e:42:6c:ab:d9:c1:9f:29:
                    6f:65:bc:80:98:9a:73:96:74:01:bd:c1:43:e6:9f:
                    8d:5b:aa:2e:ed:cb:52:3a:e8:ef:ab:17:df:de:2a:
                    bf:b5:ca:42:3e:a6:ff:a8:28:b5:13:65:b9:2b:c0:
                    58:da:bc:56:ab:01:30:21:43:50:62:ed:b7:1e:1e:
                    0b:23
                Exponent: 65537 (0x10001)
        X509v3 extensions:
            X509v3 Key Usage: critical
                Digital Signature, Key Encipherment
            X509v3 Extended Key Usage: 
                TLS Web Client Authentication, TLS Web Server Authentication
            X509v3 Basic Constraints: critical
                CA:FALSE
            X509v3 Authority Key Identifier: 
                keyid:01:02:03

            Authority Information Access: 
                OCSP - URI:http://theca.net/ocsp
                CA Issuers - URI:http://theca.net/totallythecert.crt

            X509v3 Certificate Policies: 
                Policy: 1.3.6.1.5.5.7.13.1
                Policy: 2.23.140.1.2.2

            X509v3 Subject Key Identifier: 
                04:03:02:01
            X509v3 Subject Alternative Name: 
                DNS:*.gov.us, DNS:www.gov.us
            X509v3 Issuer Alternative Name: 
                DNS:allthethings.net, DNS:theca.net
    Signature Algorithm: sha256WithRSAEncryption
         11:04:66:34:9c:e3:16:64:d7:92:88:d9:6b:fe:47:10:45:5f:
         8d:a2:09:b6:b6:b5:27:34:d4:14:a8:ed:e8:e8:95:83:30:77:
         b5:45:46:84:76:2f:9c:3c:79:d8:7a:93:5a:b2:db:8b:a2:65:
         56:8d:1f:d7:fa:91:7a:11:47:db:59:3c:f2:41:ba:99:68:ff:
         7c:2a:4f:d8:14:ab:bb:0d:89:c5:6f:52:98:91:1e:64:31:be:
         c7:1f:7f:a4:e9:59:54:59:0d:18:2b:f0:1e:3e:f8:18:b9:cf:
         38:50:6d:b0:d8:40:dc:34:25:33:dc:77:94:fe:7d:d4:a7:4e:
         78:e2:99:8e:a2:01:e8:63:3d:72:9f:0e:d7:30:92:ad:ec:fc:
         28:16:90:cd:13:eb:60:d8:b0:15:2f:91:53:6c:bb:70:0f:fb:
         17:20:3b:f9:6b:1a:0b:d6:4d:b7:b4:4f:97:2d:ff:7f:5e:99:
         b1:4a:b3:9d:13:7d:3b:30:7a:14:65:08:bb:33:3d:a0:74:e0:
         de:38:91:2a:f5:96:b8:fd:f5:04:0d:ba:b6:e4:81:b7:41:7f:
         01:e3:df:58:25:06:df:a0:0d:44:b2:6b:7e:0f:5d:22:b5:fc:
         ce:d7:2f:e0:24:21:68:bb:ed:28:0e:c3:da:e3:d5:71:b6:19:
         ec:57:51:ac
-----BEGIN CERTIFICATE-----
MIIEmzCCA4OgAwIBAgIFBDFmk+0wDQYJKoZIhvcNAQELBQAwUjELMAkGA1UEBhMC
VVMxFjAUBgNVBAoTDU1vdGhlciBOYXR1cmUxEzARBgNVBAsTCkV2ZXJ5dGhpbmcx
FjAUBgNVBAMTDU1vdGhlciBOYXR1cmUwHhcNMTYwNzAxMTQ1NjMxWhcNMTYwOTEz
MTQ1NjMxWjCBmTELMAkGA1UEBhMCVVMxCzAJBgNVBAgTAkZMMRQwEgYDVQQHEwtU
YWxsYWhhc3NlZTEcMBoGA1UECRMTMzIxMCBIb2xseSBNaWxsIFJ1bjEOMAwGA1UE
ERMFMzAwNjIxGDAWBgNVBAoTD0V4dHJlbWUgRGlzY29yZDEOMAwGA1UECxMFQ2hh
b3MxDzANBgNVBAMTBmdvdi51czCCASIwDQYJKoZIhvcNAQEBBQADggEPADCCAQoC
ggEBAMQaXdgg+9d8JU0OL9SVNgPvXSNhLsuXZDGmC9pQEx4Bu+pe6BUFmNaS2wxQ
RdVIpGNYwOSGMI1ic+gxiff5wjeQNbfDmXtGjIzI9PJWxy8/Goq8JFG8ZHvAIIur
fWotF+VWvviEOwTtT+57W8KMAPRN/DOv61Bn6kfOMF/MjAlwtuXZifyc4sStk/K7
+J7x1pcVTZ+hjRfGgK+wtEfKmfUPuGgO9zNOw/4yNRRhanNFO4J4LZJ1l7Xpcy5C
bKvZwZ8pb2W8gJiac5Z0Ab3BQ+afjVuqLu3LUjro76sX394qv7XKQj6m/6gotRNl
uSvAWNq8VqsBMCFDUGLttx4eCyMCAwEAAaOCAS4wggEqMA4GA1UdDwEB/wQEAwIF
oDAdBgNVHSUEFjAUBggrBgEFBQcDAgYIKwYBBQUHAwEwDAYDVR0TAQH/BAIwADAO
BgNVHSMEBzAFgAMBAgMwYgYIKwYBBQUHAQEEVjBUMCEGCCsGAQUFBzABhhVodHRw
Oi8vdGhlY2EubmV0L29jc3AwLwYIKwYBBQUHMAKGI2h0dHA6Ly90aGVjYS5uZXQv
dG90YWxseXRoZWNlcnQuY3J0MB8GA1UdIAQYMBYwCgYIKwYBBQUHDQEwCAYGZ4EM
AQICMA0GA1UdDgQGBAQEAwIBMB8GA1UdEQQYMBaCCCouZ292LnVzggp3d3cuZ292
LnVzMCYGA1UdEgQfMB2CEGFsbHRoZXRoaW5ncy5uZXSCCXRoZWNhLm5ldDANBgkq
hkiG9w0BAQsFAAOCAQEAEQRmNJzjFmTXkojZa/5HEEVfjaIJtra1JzTUFKjt6OiV
gzB3tUVGhHYvnDx52HqTWrLbi6JlVo0f1/qRehFH21k88kG6mWj/fCpP2BSruw2J
xW9SmJEeZDG+xx9/pOlZVFkNGCvwHj74GLnPOFBtsNhA3DQlM9x3lP591KdOeOKZ
jqIB6GM9cp8O1zCSrez8KBaQzRPrYNiwFS+RU2y7cA/7FyA7+WsaC9ZNt7RPly3/
f16ZsUqznRN9OzB6FGUIuzM9oHTg3jiRKvWWuP31BA26tuSBt0F/AePfWCUG36AN
RLJrfg9dIrX8ztcv4CQhaLvtKA7D2uPVcbYZ7FdRrA==
-----END CERTIFICATE-----
