Certificate:
    Data:
        Version: 3 (0x2)
        Serial Number:
            29:22:fb:7b:ef:92:b2:c8:5d:cc:df:5b:3a:00:19:85
        Signature Algorithm: sha256WithRSAEncryption
        Issuer: C=XX, O=Some CA, CN=Fake CA for zlint testing
        Validity
            Not Before: Dec 25 00:00:00 1998 GMT
            Not After : Dec 25 00:00:00 1999 GMT
        Subject: C=XX, ST=Some State or Province, L=Somewhere, O=Some Company Ltd., emailAddress=info@example.org
        Subject Public Key Info:
            Public Key Algorithm: rsaEncryption
                Public-Key: (2048 bit)
                Modulus:
                    00:bb:6f:7a:e5:67:be:7b:d8:77:69:cc:7d:cb:05:
                    86:a9:6d:80:25:99:cf:4c:e8:c9:cf:3b:5c:f5:04:
                    79:39:dd:05:16:4c:30:cf:fd:e5:82:5a:d0:4e:16:
                    49:8b:bb:e9:21:47:1c:c7:bd:ed:08:41:9e:86:2c:
                    06:45:01:8d:1f:01:d0:fc:bc:45:4a:4d:55:ef:6f:
                    37:f9:60:da:6a:90:77:52:1a:a9:91:43:5d:44:12:
                    88:a4:21:38:ad:19:bd:7b:19:97:b0:ec:1e:e0:08:
                    56:07:30:32:96:44:80:b6:05:10:23:5f:2b:46:37:
                    f4:e5:7b:d9:17:dd:e6:48:f7:05:bf:86:e1:3b:f0:
                    7b:42:15:3c:46:e5:ba:7a:c1:dd:77:25:05:1a:f2:
                    db:b3:7e:78:21:c0:46:46:22:ab:de:85:27:2a:56:
                    4c:41:19:b4:5e:6a:44:eb:34:e7:8f:06:87:c8:7a:
                    72:4e:66:0c:87:1d:dc:9d:da:f7:4f:44:b6:96:0a:
                    78:75:83:72:d7:2c:13:28:a8:b3:f2:dd:48:98:bc:
                    9a:f3:97:a7:70:5e:7c:2a:83:f7:75:66:e1:88:20:
                    e0:38:7d:e4:84:cc:01:92:cc:be:67:51:f8:7b:26:
                    ca:8f:9e:cc:2d:ba:47:2c:a5:df:2a:c6:ab:a1:b6:
                    45:c5
                Exponent: 65537 (0x10001)
        X509v3 extensions:
            X509v3 Key Usage: critical
                Digital Signature, Key Encipherment
            X509v3 Extended Key Usage: 
                TLS Web Client Authentication, TLS Web Server Authentication
            X509v3 Authority Key Identifier: 
                E8:B6:F6:76:4B:D0:3B:E5:46:A5:F9:54:D4:7E:07:B3:DE:0D:60:3E
            Authority Information Access: 
                OCSP - URI:http://ca.someca-inc.com/ocsp
                CA Issuers - URI:http://ca.someca-inc.com/root
            X509v3 Subject Alternative Name: 
                DNS:example.org
            X509v3 Certificate Policies: 
                Policy: 2.23.140.1.2.2
            X509v3 CRL Distribution Points: 
                Full Name:
                  URI:http://ca.someca-inc.com/crl

    Signature Algorithm: sha256WithRSAEncryption
    Signature Value:
        14:41:fe:b8:29:0b:08:74:53:70:45:b7:9c:d5:4c:40:8c:1a:
        99:e8:c5:02:0c:4f:30:c4:c0:d7:cd:c0:e5:e8:21:ac:9a:be:
        08:42:7f:12:0d:7a:45:df:3b:85:39:76:3e:ab:bc:81:cc:f1:
        bf:cf:c8:9e:7c:49:18:09:44:61:14:f0:5c:a6:c6:c3:6a:8a:
        a4:c8:0a:7a:59:26:49:4b:f1:88:d9:5a:4c:ff:7f:a6:d6:17:
        3c:4e:09:ad:99:a8:6a:0d:70:24:4a:2b:ed:35:78:89:e3:30:
        71:97:e8:80:c6:f2:ae:b7:ba:0c:c5:73:79:bd:4b:54:fd:cc:
        b8:3c:2a:92:25:8d:2a:5f:66:67:82:e3:92:b3:82:68:78:b2:
        ef:2f:49:04:ad:9e:a9:18:60:74:90:74:f2:a0:62:58:ff:c2:
        1c:72:a5:42:aa:b4:21:80:1f:15:34:a9:71:36:91:99:9a:7a:
        bf:d4:46:06:fe:5b:c0:52:fa:ec:47:c7:c3:05:16:b9:0d:5c:
        b5:8a:c2:47:86:8a:c1:47:5a:6c:62:0b:32:6b:5f:50:ce:56:
        21:a1:e1:45:ef:ff:d3:3b:4c:d8:17:c8:da:41:96:b4:21:be:
        db:dc:ab:bd:2c:46:a7:40:96:56:1d:2d:a3:cc:1a:b0:97:e9:
        ab:3c:6e:41
-----BEGIN CERTIFICATE-----
MIIEZDCCA0ygAwIBAgIQKSL7e++SsshdzN9bOgAZhTANBgkqhkiG9w0BAQsFADBD
MQswCQYDVQQGEwJYWDEQMA4GA1UEChMHU29tZSBDQTEiMCAGA1UEAxMZRmFrZSBD
QSBmb3IgemxpbnQgdGVzdGluZzAeFw05ODEyMjUwMDAwMDBaFw05OTEyMjUwMDAw
MDBaMH8xCzAJBgNVBAYTAlhYMR8wHQYDVQQIExZTb21lIFN0YXRlIG9yIFByb3Zp
bmNlMRIwEAYDVQQHEwlTb21ld2hlcmUxGjAYBgNVBAoTEVNvbWUgQ29tcGFueSBM
dGQuMR8wHQYJKoZIhvcNAQkBDBBpbmZvQGV4YW1wbGUub3JnMIIBIjANBgkqhkiG
9w0BAQEFAAOCAQ8AMIIBCgKCAQEAu2965We+e9h3acx9ywWGqW2AJZnPTOjJzztc
9QR5Od0FFkwwz/3lglrQThZJi7vpIUccx73tCEGehiwGRQGNHwHQ/LxFSk1V7283
+WDaapB3UhqpkUNdRBKIpCE4rRm9exmXsOwe4AhWBzAylkSAtgUQI18rRjf05XvZ
F93mSPcFv4bhO/B7QhU8RuW6esHddyUFGvLbs354IcBGRiKr3oUnKlZMQRm0XmpE
6zTnjwaHyHpyTmYMhx3cndr3T0S2lgp4dYNy1ywTKKiz8t1ImLya85encF58KoP3
dWbhiCDgOH3khMwBksy+Z1H4eybKj57MLbpHLKXfKsarobZFxQIDAQABo4IBFjCC
ARIwDgYDVR0PAQH/BAQDAgWgMB0GA1UdJQQWMBQGCCsGAQUFBwMCBggrBgEFBQcD
ATAfBgNVHSMEGDAWgBTotvZ2S9A75Ual+VTUfgez3g1gPjBkBggrBgEFBQcBAQRY
MFYwKQYIKwYBBQUHMAGGHWh0dHA6Ly9jYS5zb21lY2EtaW5jLmNvbS9vY3NwMCkG
CCsGAQUFBzAChh1odHRwOi8vY2Euc29tZWNhLWluYy5jb20vcm9vdDAWBgNVHREE
DzANggtleGFtcGxlLm9yZzATBgNVHSAEDDAKMAgGBmeBDAECAjAtBgNVHR8EJjAk
MCKgIKAehhxodHRwOi8vY2Euc29tZWNhLWluYy5jb20vY3JsMA0GCSqGSIb3DQEB
CwUAA4IBAQAUQf64KQsIdFNwRbec1UxAjBqZ6MUCDE8wxMDXzcDl6CGsmr4IQn8S
DXpF3zuFOXY+q7yBzPG/z8iefEkYCURhFPBcpsbDaoqkyAp6WSZJS/GI2VpM/3+m
1hc8TgmtmahqDXAkSivtNXiJ4zBxl+iAxvKut7oMxXN5vUtU/cy4PCqSJY0qX2Zn
guOSs4JoeLLvL0kErZ6pGGB0kHTyoGJY/8IccqVCqrQhgB8VNKlxNpGZmnq/1EYG
/lvAUvrsR8fDBRa5DVy1isJHhorBR1psYgsya19QzlYhoeFF7//TO0zYF8jaQZa0
Ib7b3Ku9LEanQJZWHS2jzBqwl+mrPG5B
-----END CERTIFICATE-----
