Certificate:
    Data:
        Version: 3 (0x2)
        Serial Number:
            51:29:a5:f4:63:40:1e:8f:c4:8e:cb:21:a6:e0:b8:00
        Signature Algorithm: sha256WithRSAEncryption
        Issuer: C=XX, O=Some CA, CN=Fake CA for zlint testing
        Validity
            Not Before: Mar  2 05:27:03 2026 GMT
            Not After : Mar  2 05:27:03 2027 GMT
        Subject: C=XX, ST=Some State or Province, L=Somewhere, O=Some Company Ltd., emailAddress=info@example.org
        Subject Public Key Info:
            Public Key Algorithm: rsaEncryption
                Public-Key: (2048 bit)
                Modulus:
                    00:f6:ae:a3:c6:99:93:15:98:8b:d2:c2:2b:92:1b:
                    13:09:a0:bc:e5:35:18:fc:bc:c7:04:1f:9f:be:2d:
                    82:b5:5a:ce:14:cb:37:d8:cc:6a:c3:c0:94:f0:9e:
                    11:c9:2a:7b:91:f9:05:74:de:19:89:20:b4:b7:de:
                    ab:c1:dd:04:25:c7:27:b1:07:1e:90:e6:dd:45:21:
                    23:c2:c0:ce:74:76:62:67:46:68:01:43:52:77:3e:
                    45:e5:32:36:1b:b7:5a:0c:5f:31:db:34:3a:d2:76:
                    00:e5:ac:c6:89:b9:e8:46:a8:8b:44:91:97:06:cd:
                    22:1d:0c:d1:32:54:11:6e:57:2f:e7:b8:77:ac:7d:
                    f7:30:c9:7f:03:9f:0c:fb:05:61:ca:ab:52:bb:ec:
                    8a:5a:68:b8:4c:75:08:90:31:27:5b:82:b6:b9:cb:
                    0b:10:78:f8:39:c0:46:08:e4:3d:1d:69:f6:71:12:
                    95:30:ac:10:9b:60:ac:7b:ca:b8:47:b6:10:b4:b1:
                    d5:1b:f5:d8:1d:7b:b5:36:88:97:3f:34:9f:66:5b:
                    f9:be:50:5e:9c:fe:b0:26:da:2c:a9:c9:14:a8:05:
                    de:ce:7d:a5:59:e1:ef:b3:63:d0:d8:94:9b:35:f7:
                    98:06:ca:9e:e4:f2:36:8a:5f:d1:26:0b:fe:70:cf:
                    af:7f
                Exponent: 65537 (0x10001)
        X509v3 extensions:
            X509v3 Key Usage: critical
                Digital Signature, Key Encipherment
            X509v3 Extended Key Usage: 
                TLS Web Client Authentication, TLS Web Server Authentication
            X509v3 Authority Key Identifier: 
                E8:B6:F6:76:4B:D0:3B:E5:46:A5:F9:54:D4:7E:07:B3:DE:0D:60:3E
            Authority Information Access: 
                OCSP - URI:http://ca.someca-inc.com/ocsp
                CA Issuers - URI:http://ca.someca-inc.com/root
            X509v3 Subject Alternative Name: 
                DNS:example.org, email:sales@example.org
            X509v3 Certificate Policies: 
                Policy: 2.23.140.1.2.2
            X509v3 CRL Distribution Points: 
                Full Name:
                  URI:http://ca.someca-inc.com/crl

    Signature Algorithm: sha256WithRSAEncryption
    Signature Value:
        bd:f8:b1:17:e9:11:4a:58:db:fd:92:25:97:b7:c2:bc:76:47:
        93:38:68:5b:9c:cf:d9:9c:7a:d0:11:c5:73:d8:f4:4d:d8:1f:
        20:5e:23:c7:e9:9f:3b:92:e1:ee:7d:85:04:ed:35:c9:8c:58:
        4c:5d:cd:5a:c6:74:4a:4e:07:56:54:c2:ac:76:c2:38:16:1e:
        ad:76:f7:de:8c:ab:37:8f:02:c2:12:31:ba:57:0c:54:96:a5:
        9d:10:22:b6:41:63:ed:c5:5f:5b:59:c4:4f:43:cb:a4:13:35:
        aa:6c:b6:58:6e:03:a7:20:0b:8e:87:b4:e7:c8:2a:9e:77:10:
        56:72:ef:b1:c3:db:ed:ce:b0:d5:08:1b:7f:eb:a0:ff:3e:ec:
        f3:2c:f9:8e:18:fe:7a:a0:18:3e:bd:35:ec:b7:e0:c7:5e:6f:
        93:76:65:03:35:b6:bb:9a:9e:c6:76:79:2e:f8:de:fc:cc:59:
        70:4b:06:70:e5:5d:49:de:12:e7:b1:18:cf:e8:80:d9:ea:fd:
        72:37:68:75:3e:c8:2c:62:5f:56:71:64:6c:2f:51:ed:7b:08:
        fe:59:0e:75:2a:0a:0a:36:46:e9:c0:88:72:26:72:21:8e:c7:
        24:f7:36:90:00:79:40:da:a3:81:4f:48:db:e3:0b:d3:da:75:
        e2:9c:08:e0
-----BEGIN CERTIFICATE-----
MIIEdzCCA1+gAwIBAgIQUSml9GNAHo/EjsshpuC4ADANBgkqhkiG9w0BAQsFADBD
MQswCQYDVQQGEwJYWDEQMA4GA1UEChMHU29tZSBDQTEiMCAGA1UEAxMZRmFrZSBD
QSBmb3IgemxpbnQgdGVzdGluZzAeFw0yNjAzMDIwNTI3MDNaFw0yNzAzMDIwNTI3
MDNaMH8xCzAJBgNVBAYTAlhYMR8wHQYDVQQIExZTb21lIFN0YXRlIG9yIFByb3Zp
bmNlMRIwEAYDVQQHEwlTb21ld2hlcmUxGjAYBgNVBAoTEVNvbWUgQ29tcGFueSBM
dGQuMR8wHQYJKoZIhvcNAQkBDBBpbmZvQGV4YW1wbGUub3JnMIIBIjANBgkqhkiG
9w0BAQEFAAOCAQ8AMIIBCgKCAQEA9q6jxpmTFZiL0sIrkhsTCaC85TUY/LzHBB+f
vi2CtVrOFMs32Mxqw8CU8J4RySp7kfkFdN4ZiSC0t96rwd0EJccnsQcekObdRSEj
wsDOdHZiZ0ZoAUNSdz5F5TI2G7daDF8x2zQ60nYA5azGibnoRqiLRJGXBs0iHQzR
MlQRblcv57h3rH33MMl/A58M+wVhyqtSu+yKWmi4THUIkDEnW4K2ucsLEHj4OcBG
COQ9HWn2cRKVMKwQm2Cse8q4R7YQtLHVG/XYHXu1NoiXPzSfZlv5vlBenP6wJtos
qckUqAXezn2lWeHvs2PQ2JSbNfeYBsqe5PI2il/RJgv+cM+vfwIDAQABo4IBKTCC
ASUwDgYDVR0PAQH/BAQDAgWgMB0GA1UdJQQWMBQGCCsGAQUFBwMCBggrBgEFBQcD
ATAfBgNVHSMEGDAWgBTotvZ2S9A75Ual+VTUfgez3g1gPjBkBggrBgEFBQcBAQRY
MFYwKQYIKwYBBQUHMAGGHWh0dHA6Ly9jYS5zb21lY2EtaW5jLmNvbS9vY3NwMCkG
CCsGAQUFBzAChh1odHRwOi8vY2Euc29tZWNhLWluYy5jb20vcm9vdDApBgNVHREE
IjAgggtleGFtcGxlLm9yZ4ERc2FsZXNAZXhhbXBsZS5vcmcwEwYDVR0gBAwwCjAI
BgZngQwBAgIwLQYDVR0fBCYwJDAioCCgHoYcaHR0cDovL2NhLnNvbWVjYS1pbmMu
Y29tL2NybDANBgkqhkiG9w0BAQsFAAOCAQEAvfixF+kRSljb/ZIll7fCvHZHkzho
W5zP2Zx60BHFc9j0TdgfIF4jx+mfO5Lh7n2FBO01yYxYTF3NWsZ0Sk4HVlTCrHbC
OBYerXb33oyrN48CwhIxulcMVJalnRAitkFj7cVfW1nET0PLpBM1qmy2WG4DpyAL
joe058gqnncQVnLvscPb7c6w1Qgbf+ug/z7s8yz5jhj+eqAYPr017Lfgx15vk3Zl
AzW2u5qexnZ5Lvje/MxZcEsGcOVdSd4S57EYz+iA2er9cjdodT7ILGJfVnFkbC9R
7XsI/lkOdSoKCjZG6cCIciZyIY7HJPc2kAB5QNqjgU9I2+ML09p14pwI4A==
-----END CERTIFICATE-----
