Certificate:
    Data:
        Version: 3 (0x2)
        Serial Number:
            b8:7e:52:00:c6:06:67:51:8a:00:58:9c:6c:1c:a5:69
        Signature Algorithm: sha256WithRSAEncryption
        Issuer: C=XX, O=Some CA, CN=Fake CA for zlint testing
        Validity
            Not Before: Mar  2 05:28:16 2026 GMT
            Not After : Mar  2 05:28:16 2027 GMT
        Subject: C=XX, ST=Some State or Province, L=Somewhere, O=Some Company Ltd., emailAddress=info@example.org
        Subject Public Key Info:
            Public Key Algorithm: rsaEncryption
                Public-Key: (2048 bit)
                Modulus:
                    00:9a:60:a3:82:f4:41:ce:19:54:da:1b:a2:ed:fc:
                    a1:b5:c2:63:eb:8f:03:29:72:c2:aa:f2:c5:f1:d8:
                    8a:91:08:f8:f5:de:35:4c:44:0a:69:b8:f7:5c:23:
                    27:81:f4:79:62:df:3f:ec:e9:3b:eb:2f:6e:6d:68:
                    ba:74:62:05:ca:c6:0d:6b:f3:18:b4:3e:5a:34:df:
                    28:41:bd:99:a9:e1:2b:90:d2:5e:d2:9e:09:6a:ab:
                    59:d7:bb:e0:67:11:af:70:2c:30:60:69:28:0e:82:
                    e6:f3:c4:9e:c6:80:39:85:51:44:f2:f7:30:84:4b:
                    5e:95:ee:02:64:a4:53:7f:e3:38:ca:50:22:be:2b:
                    b2:2e:ab:29:db:d7:04:67:bf:28:9e:ef:d3:b4:2c:
                    72:bf:73:6b:cd:06:c1:ef:ee:c6:57:a7:b2:ec:2c:
                    94:9c:ec:1f:a4:07:35:d7:0c:bf:78:75:f4:98:49:
                    73:4b:49:04:f4:8f:1a:e4:e2:cd:34:72:84:ec:bd:
                    aa:a3:ac:cd:55:ed:64:65:94:b3:87:29:9f:bb:98:
                    e6:a9:4f:03:29:eb:ad:05:57:9a:7f:3d:8a:22:92:
                    c4:b3:a2:e2:17:ce:4c:74:89:13:cc:a4:c3:e5:bb:
                    f9:45:c8:e9:19:85:a6:60:5a:dd:78:66:14:d0:00:
                    b9:83
                Exponent: 65537 (0x10001)
        X509v3 extensions:
            X509v3 Key Usage: critical
                Digital Signature, Key Encipherment
            X509v3 Extended Key Usage: 
                TLS Web Client Authentication, TLS Web Server Authentication
            X509v3 Authority Key Identifier: 
                E8:B6:F6:76:4B:D0:3B:E5:46:A5:F9:54:D4:7E:07:B3:DE:0D:60:3E
            Authority Information Access: 
                OCSP - URI:http://ca.someca-inc.com/ocsp
                CA Issuers - URI:http://ca.someca-inc.com/root
            X509v3 Subject Alternative Name: 
                DNS:example.org, email:info@example.org
            X509v3 Certificate Policies: 
                Policy: 2.23.140.1.2.2
            X509v3 CRL Distribution Points: 
                Full Name:
                  URI:http://ca.someca-inc.com/crl

    Signature Algorithm: sha256WithRSAEncryption
    Signature Value:
        34:ce:47:ea:78:21:ea:20:2c:ef:bc:9f:c7:91:96:84:ce:83:
        d3:27:f0:b8:e6:e5:98:3d:15:65:cc:3c:c5:09:89:5e:6a:f5:
        74:16:a7:0e:14:13:17:c6:7b:d8:c5:8d:74:01:e7:0f:c2:05:
        9d:01:4a:e7:c2:f5:d6:ed:44:a2:f8:18:bc:62:47:96:06:26:
        8e:04:2a:e5:f6:cd:4e:9c:48:f6:fe:e2:f0:b6:f6:91:98:ba:
        72:2f:4a:c6:5f:1c:bf:35:c2:ea:2d:75:41:8f:85:11:71:71:
        87:fe:eb:bc:a0:b2:0e:a8:2a:a4:db:2b:73:6a:7d:a7:c2:8a:
        a1:0a:0c:6e:95:d3:de:1f:86:79:29:45:a8:97:9d:10:8e:c9:
        5f:96:0a:65:85:27:1d:9e:3f:69:0c:0d:00:9f:f9:6d:d7:c4:
        66:93:35:dc:ab:8a:6d:6c:7a:ab:c2:1c:fb:f5:f8:72:0b:73:
        99:84:6f:5b:3f:de:b8:84:7f:17:c9:25:04:6c:60:32:96:e7:
        b2:89:5b:c3:d8:eb:b1:aa:80:c7:48:c7:7a:30:08:47:41:2b:
        ae:be:19:4c:59:11:7e:31:bc:f8:5d:c0:fc:65:69:4c:dc:bb:
        6f:e5:3a:14:69:60:08:21:37:4a:03:5a:37:58:54:56:10:24:
        ba:2a:58:5c
-----BEGIN CERTIFICATE-----
MIIEdzCCA1+gAwIBAgIRALh+UgDGBmdRigBYnGwcpWkwDQYJKoZIhvcNAQELBQAw
QzELMAkGA1UEBhMCWFgxEDAOBgNVBAoTB1NvbWUgQ0ExIjAgBgNVBAMTGUZha2Ug
Q0EgZm9yIHpsaW50IHRlc3RpbmcwHhcNMjYwMzAyMDUyODE2WhcNMjcwMzAyMDUy
ODE2WjB/MQswCQYDVQQGEwJYWDEfMB0GA1UECBMWU29tZSBTdGF0ZSBvciBQcm92
aW5jZTESMBAGA1UEBxMJU29tZXdoZXJlMRowGAYDVQQKExFTb21lIENvbXBhbnkg
THRkLjEfMB0GCSqGSIb3DQEJAQwQaW5mb0BleGFtcGxlLm9yZzCCASIwDQYJKoZI
hvcNAQEBBQADggEPADCCAQoCggEBAJpgo4L0Qc4ZVNobou38obXCY+uPAylywqry
xfHYipEI+PXeNUxECmm491wjJ4H0eWLfP+zpO+svbm1ounRiBcrGDWvzGLQ+WjTf
KEG9manhK5DSXtKeCWqrWde74GcRr3AsMGBpKA6C5vPEnsaAOYVRRPL3MIRLXpXu
AmSkU3/jOMpQIr4rsi6rKdvXBGe/KJ7v07Qscr9za80Gwe/uxlensuwslJzsH6QH
NdcMv3h19JhJc0tJBPSPGuTizTRyhOy9qqOszVXtZGWUs4cpn7uY5qlPAynrrQVX
mn89iiKSxLOi4hfOTHSJE8ykw+W7+UXI6RmFpmBa3XhmFNAAuYMCAwEAAaOCASgw
ggEkMA4GA1UdDwEB/wQEAwIFoDAdBgNVHSUEFjAUBggrBgEFBQcDAgYIKwYBBQUH
AwEwHwYDVR0jBBgwFoAU6Lb2dkvQO+VGpflU1H4Hs94NYD4wZAYIKwYBBQUHAQEE
WDBWMCkGCCsGAQUFBzABhh1odHRwOi8vY2Euc29tZWNhLWluYy5jb20vb2NzcDAp
BggrBgEFBQcwAoYdaHR0cDovL2NhLnNvbWVjYS1pbmMuY29tL3Jvb3QwKAYDVR0R
BCEwH4ILZXhhbXBsZS5vcmeBEGluZm9AZXhhbXBsZS5vcmcwEwYDVR0gBAwwCjAI
BgZngQwBAgIwLQYDVR0fBCYwJDAioCCgHoYcaHR0cDovL2NhLnNvbWVjYS1pbmMu
Y29tL2NybDANBgkqhkiG9w0BAQsFAAOCAQEANM5H6ngh6iAs77yfx5GWhM6D0yfw
uOblmD0VZcw8xQmJXmr1dBanDhQTF8Z72MWNdAHnD8IFnQFK58L11u1EovgYvGJH
lgYmjgQq5fbNTpxI9v7i8Lb2kZi6ci9Kxl8cvzXC6i11QY+FEXFxh/7rvKCyDqgq
pNsrc2p9p8KKoQoMbpXT3h+GeSlFqJedEI7JX5YKZYUnHZ4/aQwNAJ/5bdfEZpM1
3KuKbWx6q8Ic+/X4cgtzmYRvWz/euIR/F8klBGxgMpbnsolbw9jrsaqAx0jHejAI
R0Errr4ZTFkRfjG8+F3A/GVpTNy7b+U6FGlgCCE3SgNaN1hUVhAkuipYXA==
-----END CERTIFICATE-----
