Certificate:
    Data:
        Version: 3 (0x2)
        Serial Number:
            ee:b9:fd:7b:0d:1d:b3:52:a8:02:cd:ee:2e:96:d6:65
        Signature Algorithm: sha256WithRSAEncryption
        Issuer: C=XX, O=Some CA, CN=Fake CA for zlint testing
        Validity
            Not Before: Mar  2 05:24:09 2026 GMT
            Not After : Mar  2 05:24:09 2027 GMT
        Subject: C=XX, ST=Some State or Province, L=Somewhere, O=Some Company Ltd., emailAddress=info@example.org
        Subject Public Key Info:
            Public Key Algorithm: rsaEncryption
                Public-Key: (2048 bit)
                Modulus:
                    00:ca:8b:dd:c7:ee:78:92:70:1b:f2:02:4f:84:0b:
                    c8:b7:cd:b5:fb:bb:3e:ae:0f:f8:82:0c:31:c2:7c:
                    17:97:85:ef:96:28:27:9a:5a:f9:44:f6:4d:a4:c9:
                    31:16:95:d5:60:fb:ac:d9:c0:1d:31:d3:d0:60:40:
                    92:4f:cc:3b:98:92:8a:4a:75:5d:42:c0:4f:06:3a:
                    5b:59:ab:34:8e:8a:62:59:6e:2e:b1:aa:ca:8a:78:
                    b9:16:58:08:32:70:43:ab:a4:a3:b8:f1:e3:68:5f:
                    a4:9b:d8:23:a6:26:dc:ae:aa:83:6d:6f:48:09:d6:
                    b4:b4:0f:cb:5e:e1:d6:ac:81:34:a4:7d:a9:a4:83:
                    94:f8:11:7a:ef:13:9a:eb:1a:d4:a7:a1:1c:ec:f2:
                    20:f8:a7:c5:16:99:d1:b9:16:f6:13:cf:af:23:8d:
                    8d:fb:85:57:f6:b0:6e:65:b7:96:e8:91:71:83:13:
                    1e:87:e5:54:8e:ab:c3:1a:87:0e:21:31:22:65:23:
                    b9:47:38:fc:42:28:6e:3b:7d:15:d9:65:72:a8:bc:
                    0b:ea:ea:e6:02:49:fa:ec:b2:98:a6:69:8b:dc:a5:
                    e1:a4:bb:2a:0c:8f:ca:ab:a6:e2:f4:fb:14:38:ac:
                    e3:65:0d:78:47:dc:33:e4:e4:28:73:ca:29:84:d0:
                    92:43
                Exponent: 65537 (0x10001)
        X509v3 extensions:
            X509v3 Key Usage: critical
                Digital Signature, Key Encipherment
            X509v3 Extended Key Usage: 
                TLS Web Client Authentication, TLS Web Server Authentication
            X509v3 Authority Key Identifier: 
                E8:B6:F6:76:4B:D0:3B:E5:46:A5:F9:54:D4:7E:07:B3:DE:0D:60:3E
            Authority Information Access: 
                OCSP - URI:http://ca.someca-inc.com/ocsp
                CA Issuers - URI:http://ca.someca-inc.com/root
            X509v3 Subject Alternative Name: 
                DNS:example.org
            X509v3 Certificate Policies: 
                Policy: 2.23.140.1.2.2
            X509v3 CRL Distribution Points: 
                Full Name:
                  URI:http://ca.someca-inc.com/crl

    Signature Algorithm: sha256WithRSAEncryption
    Signature Value:
        7b:75:b1:e9:d8:3b:98:a0:a0:5f:05:7f:bd:c8:bb:18:f7:51:
        95:9c:71:52:7b:b6:d4:11:d2:47:81:80:70:8b:ee:8d:71:01:
        22:34:50:32:d4:a6:57:72:4a:f9:96:29:ea:01:1c:b8:c2:60:
        80:2a:ea:b0:ec:88:75:4b:0d:e3:83:fa:ac:5c:d5:36:0a:74:
        60:9a:18:28:1a:fe:3e:15:03:a6:40:25:41:f1:bb:1f:e0:87:
        72:e2:a0:38:cd:81:d0:76:6e:8e:97:6e:9e:c1:31:db:5d:29:
        73:cc:73:27:d9:a3:61:c5:a9:62:67:d8:12:82:93:f0:18:ff:
        52:80:3d:79:8d:b0:a9:f7:71:ac:2a:c2:f3:12:66:3a:a7:2a:
        42:3d:c1:ad:8e:22:a5:45:3b:97:d9:89:f5:bb:ad:c0:60:ac:
        4a:7f:e1:e5:fb:da:a3:c6:e3:56:af:66:18:00:0e:ce:cf:55:
        af:5d:20:4b:aa:65:c4:e5:ad:d6:f0:37:be:08:28:33:b6:c2:
        f2:e8:5b:74:af:1a:42:2f:66:a9:84:fd:8b:37:7b:7a:bc:00:
        ae:18:84:16:a3:4a:3b:fe:51:d0:4d:cf:23:f6:1b:e3:17:5f:
        c2:8f:78:38:e4:9e:81:2e:6e:b2:df:14:fa:22:f6:a7:52:7f:
        b3:e7:b2:7b
-----BEGIN CERTIFICATE-----
MIIEZTCCA02gAwIBAgIRAO65/XsNHbNSqALN7i6W1mUwDQYJKoZIhvcNAQELBQAw
QzELMAkGA1UEBhMCWFgxEDAOBgNVBAoTB1NvbWUgQ0ExIjAgBgNVBAMTGUZha2Ug
Q0EgZm9yIHpsaW50IHRlc3RpbmcwHhcNMjYwMzAyMDUyNDA5WhcNMjcwMzAyMDUy
NDA5WjB/MQswCQYDVQQGEwJYWDEfMB0GA1UECBMWU29tZSBTdGF0ZSBvciBQcm92
aW5jZTESMBAGA1UEBxMJU29tZXdoZXJlMRowGAYDVQQKExFTb21lIENvbXBhbnkg
THRkLjEfMB0GCSqGSIb3DQEJAQwQaW5mb0BleGFtcGxlLm9yZzCCASIwDQYJKoZI
hvcNAQEBBQADggEPADCCAQoCggEBAMqL3cfueJJwG/ICT4QLyLfNtfu7Pq4P+IIM
McJ8F5eF75YoJ5pa+UT2TaTJMRaV1WD7rNnAHTHT0GBAkk/MO5iSikp1XULATwY6
W1mrNI6KYlluLrGqyop4uRZYCDJwQ6uko7jx42hfpJvYI6Ym3K6qg21vSAnWtLQP
y17h1qyBNKR9qaSDlPgReu8Tmusa1KehHOzyIPinxRaZ0bkW9hPPryONjfuFV/aw
bmW3luiRcYMTHoflVI6rwxqHDiExImUjuUc4/EIobjt9Fdllcqi8C+rq5gJJ+uyy
mKZpi9yl4aS7KgyPyqum4vT7FDis42UNeEfcM+TkKHPKKYTQkkMCAwEAAaOCARYw
ggESMA4GA1UdDwEB/wQEAwIFoDAdBgNVHSUEFjAUBggrBgEFBQcDAgYIKwYBBQUH
AwEwHwYDVR0jBBgwFoAU6Lb2dkvQO+VGpflU1H4Hs94NYD4wZAYIKwYBBQUHAQEE
WDBWMCkGCCsGAQUFBzABhh1odHRwOi8vY2Euc29tZWNhLWluYy5jb20vb2NzcDAp
BggrBgEFBQcwAoYdaHR0cDovL2NhLnNvbWVjYS1pbmMuY29tL3Jvb3QwFgYDVR0R
BA8wDYILZXhhbXBsZS5vcmcwEwYDVR0gBAwwCjAIBgZngQwBAgIwLQYDVR0fBCYw
JDAioCCgHoYcaHR0cDovL2NhLnNvbWVjYS1pbmMuY29tL2NybDANBgkqhkiG9w0B
AQsFAAOCAQEAe3Wx6dg7mKCgXwV/vci7GPdRlZxxUnu21BHSR4GAcIvujXEBIjRQ
MtSmV3JK+ZYp6gEcuMJggCrqsOyIdUsN44P6rFzVNgp0YJoYKBr+PhUDpkAlQfG7
H+CHcuKgOM2B0HZujpdunsEx210pc8xzJ9mjYcWpYmfYEoKT8Bj/UoA9eY2wqfdx
rCrC8xJmOqcqQj3BrY4ipUU7l9mJ9butwGCsSn/h5fvao8bjVq9mGAAOzs9Vr10g
S6plxOWt1vA3vggoM7bC8uhbdK8aQi9mqYT9izd7erwArhiEFqNKO/5R0E3PI/Yb
4xdfwo94OOSegS5ust8U+iL2p1J/s+eyew==
-----END CERTIFICATE-----
