Certificate:
    Data:
        Version: 3 (0x2)
        Serial Number:
            b9:44:a4:78:49:f0:c6:dc:ca:9f:99:61:f1:76:76:f2
        Signature Algorithm: sha256WithRSAEncryption
        Issuer: C=XX, O=Some CA, CN=Fake CA for zlint testing
        Validity
            Not Before: Mar  2 05:21:17 2026 GMT
            Not After : Mar  2 05:21:17 2027 GMT
        Subject: C=SE, ST=Götaland, L=Göteborg, O=Some Company AB
        Subject Public Key Info:
            Public Key Algorithm: rsaEncryption
                Public-Key: (2048 bit)
                Modulus:
                    00:e8:eb:7a:2c:f7:2a:51:5a:d0:09:f0:46:a9:f6:
                    14:47:84:dc:19:c2:fd:71:ad:61:9f:b0:fa:56:b3:
                    9b:f3:9d:f0:11:c0:b9:5c:e5:77:9c:05:88:ce:48:
                    77:52:0a:75:64:97:9f:e0:c4:de:90:59:5b:df:12:
                    af:74:24:a8:fc:4f:a6:12:80:62:d6:7c:69:f0:b9:
                    f0:24:fa:59:b4:a7:54:48:61:bc:bf:e7:42:a3:1b:
                    03:dc:8a:4e:63:69:90:87:0f:8b:a0:31:0f:e8:fd:
                    50:23:7d:c9:a8:ad:4a:ac:d7:e7:83:86:24:89:04:
                    13:13:84:f3:bb:40:3c:d7:8a:8b:ee:9b:a3:9b:ba:
                    bc:ee:97:e8:c7:e5:b8:b3:16:3c:43:4b:3b:61:66:
                    72:bc:d7:8a:ca:6b:9f:da:55:7c:d6:71:c1:e4:7a:
                    23:42:b9:65:1e:4e:ad:c1:b8:8b:b3:de:23:57:0e:
                    aa:41:c0:b8:ad:2c:78:57:3b:5d:a4:9d:30:08:ff:
                    dc:23:bb:07:59:ab:e0:5d:84:fd:7e:35:a7:14:8f:
                    2e:d8:c3:88:ba:1d:6b:cc:e5:19:e8:b9:23:b6:0f:
                    23:cf:b2:ca:39:e2:66:2b:37:88:f0:6e:fe:c5:69:
                    ab:7c:93:2c:7a:97:3c:e9:59:4a:d3:ff:3d:d2:14:
                    b5:f7
                Exponent: 65537 (0x10001)
        X509v3 extensions:
            X509v3 Key Usage: critical
                Digital Signature, Key Encipherment
            X509v3 Extended Key Usage: 
                TLS Web Client Authentication, TLS Web Server Authentication
            X509v3 Authority Key Identifier: 
                E8:B6:F6:76:4B:D0:3B:E5:46:A5:F9:54:D4:7E:07:B3:DE:0D:60:3E
            Authority Information Access: 
                OCSP - URI:http://ca.someca-inc.com/ocsp
                CA Issuers - URI:http://ca.someca-inc.com/root
            X509v3 Subject Alternative Name: 
                DNS:example.org
            X509v3 Certificate Policies: 
                Policy: 2.23.140.1.2.2
            X509v3 CRL Distribution Points: 
                Full Name:
                  URI:http://ca.someca-inc.com/crl

    Signature Algorithm: sha256WithRSAEncryption
    Signature Value:
        96:62:63:4b:ba:fc:12:43:f8:d1:df:65:af:9a:dc:eb:35:fc:
        55:20:47:fe:21:99:35:95:58:f7:ea:2c:66:31:bb:8f:25:c8:
        86:b6:ac:b5:82:b3:6a:b7:9f:5f:1e:39:20:64:9a:1e:7d:6b:
        be:a0:13:39:dd:12:ee:ef:a7:1f:d0:be:06:0f:92:7f:b0:53:
        2e:fc:cf:3e:6d:8a:71:8b:5d:7a:48:8f:ae:eb:60:54:6a:bb:
        77:4f:1a:d8:fb:c2:4b:65:c6:9a:15:01:41:87:24:ca:2c:53:
        42:0f:23:02:90:c1:d0:87:bc:cf:5e:aa:b5:53:02:d3:e6:63:
        67:8d:9b:1c:83:c7:19:67:13:c0:3d:b1:0f:36:ac:98:13:3a:
        0d:53:7a:95:26:a8:8d:ae:e1:d8:bc:8a:95:df:83:51:bb:c4:
        40:f5:76:78:1e:d1:e3:3c:6e:dd:f1:ad:6f:b6:92:f4:3b:5d:
        2f:ac:17:41:c2:ce:52:87:22:12:12:63:c2:a8:c0:75:b0:c8:
        71:a6:01:53:e6:4b:5c:8c:16:f8:9b:17:d1:39:9b:cb:60:53:
        77:57:d2:15:47:25:45:84:e9:a6:a1:40:93:97:0d:5d:f1:f1:
        2d:56:9a:7a:b1:33:c4:21:fa:23:c5:30:ab:bc:06:5f:8b:8f:
        db:cb:87:78
-----BEGIN CERTIFICATE-----
MIIENTCCAx2gAwIBAgIRALlEpHhJ8Mbcyp+ZYfF2dvIwDQYJKoZIhvcNAQELBQAw
QzELMAkGA1UEBhMCWFgxEDAOBgNVBAoTB1NvbWUgQ0ExIjAgBgNVBAMTGUZha2Ug
Q0EgZm9yIHpsaW50IHRlc3RpbmcwHhcNMjYwMzAyMDUyMTE3WhcNMjcwMzAyMDUy
MTE3WjBPMQswCQYDVQQGEwJTRTESMBAGA1UECAwJR8O2dGFsYW5kMRIwEAYDVQQH
DAlHw7Z0ZWJvcmcxGDAWBgNVBAoTD1NvbWUgQ29tcGFueSBBQjCCASIwDQYJKoZI
hvcNAQEBBQADggEPADCCAQoCggEBAOjreiz3KlFa0AnwRqn2FEeE3BnC/XGtYZ+w
+lazm/Od8BHAuVzld5wFiM5Id1IKdWSXn+DE3pBZW98Sr3QkqPxPphKAYtZ8afC5
8CT6WbSnVEhhvL/nQqMbA9yKTmNpkIcPi6AxD+j9UCN9yaitSqzX54OGJIkEExOE
87tAPNeKi+6bo5u6vO6X6MfluLMWPENLO2FmcrzXisprn9pVfNZxweR6I0K5ZR5O
rcG4i7PeI1cOqkHAuK0seFc7XaSdMAj/3CO7B1mr4F2E/X41pxSPLtjDiLoda8zl
Gei5I7YPI8+yyjniZis3iPBu/sVpq3yTLHqXPOlZStP/PdIUtfcCAwEAAaOCARYw
ggESMA4GA1UdDwEB/wQEAwIFoDAdBgNVHSUEFjAUBggrBgEFBQcDAgYIKwYBBQUH
AwEwHwYDVR0jBBgwFoAU6Lb2dkvQO+VGpflU1H4Hs94NYD4wZAYIKwYBBQUHAQEE
WDBWMCkGCCsGAQUFBzABhh1odHRwOi8vY2Euc29tZWNhLWluYy5jb20vb2NzcDAp
BggrBgEFBQcwAoYdaHR0cDovL2NhLnNvbWVjYS1pbmMuY29tL3Jvb3QwFgYDVR0R
BA8wDYILZXhhbXBsZS5vcmcwEwYDVR0gBAwwCjAIBgZngQwBAgIwLQYDVR0fBCYw
JDAioCCgHoYcaHR0cDovL2NhLnNvbWVjYS1pbmMuY29tL2NybDANBgkqhkiG9w0B
AQsFAAOCAQEAlmJjS7r8EkP40d9lr5rc6zX8VSBH/iGZNZVY9+osZjG7jyXIhras
tYKzarefXx45IGSaHn1rvqATOd0S7u+nH9C+Bg+Sf7BTLvzPPm2KcYtdekiPrutg
VGq7d08a2PvCS2XGmhUBQYckyixTQg8jApDB0Ie8z16qtVMC0+ZjZ42bHIPHGWcT
wD2xDzasmBM6DVN6lSaoja7h2LyKld+DUbvEQPV2eB7R4zxu3fGtb7aS9DtdL6wX
QcLOUociEhJjwqjAdbDIcaYBU+ZLXIwW+JsX0Tmby2BTd1fSFUclRYTppqFAk5cN
XfHxLVaaerEzxCH6I8Uwq7wGX4uP28uHeA==
-----END CERTIFICATE-----
