Certificate:
    Data:
        Version: 3 (0x2)
        Serial Number:
            88:d2:7c:bf:00:03:17:4b:1c:7e:e0:20:8e:db:66:8b:e7:a0:61:99
        Signature Algorithm: sha256WithRSAEncryption
        Issuer: C = FR, O = Certinomis, OU = 0002 433998903, CN = Certinomis - Easy CA
        Validity
            Not Before: Jun 29 14:34:31 2017 GMT
            Not After : Jun 29 14:34:31 2019 GMT
        Subject: C = FR, O = LA POSTE - DSI CENTRALE, organizationIdentifier = 0002 356000117, OU = 0002 356000117, L = Nantes, CN = internet.extra.laposte.fr, serialNumber = 1-52880
        Subject Public Key Info:
            Public Key Algorithm: rsaEncryption
                RSA Public-Key: (2048 bit)
                Modulus:
                    00:c4:62:3c:7c:b6:55:bc:3c:68:73:77:d2:c5:9b:
                    4f:19:5b:59:6e:cc:e7:59:26:46:d2:5a:a4:b0:c2:
                    19:d5:92:8c:a8:68:2c:00:26:85:cd:55:b8:d6:82:
                    08:b5:4c:1f:f0:d3:37:96:89:08:d7:34:13:b9:83:
                    94:47:80:1f:69:30:1c:3b:62:fe:03:1d:dc:ec:7b:
                    f7:82:1f:18:30:8d:5d:14:4f:5c:53:13:d1:6e:8e:
                    df:84:e2:58:61:02:91:3c:bb:7f:34:a4:b0:e3:fa:
                    13:ff:cf:49:c8:f9:ae:df:2a:d8:36:b3:84:53:fc:
                    2d:3b:8c:13:1d:6b:af:0a:5c:4b:7c:71:83:82:66:
                    9f:30:4a:3b:61:49:c9:5d:31:45:e2:1a:83:3f:f3:
                    14:05:26:0a:75:07:c0:5c:5f:7c:52:9c:83:64:f0:
                    55:93:74:bc:2e:0e:5a:64:66:5d:48:a9:9c:16:5d:
                    ac:ce:1c:fc:1c:70:66:b6:56:25:27:11:50:cf:b7:
                    e4:e2:d9:6c:14:31:a0:8b:0b:7d:27:e2:99:10:ec:
                    d4:10:ae:76:4f:7d:39:da:9a:d6:13:52:b3:24:d9:
                    a5:cd:ec:ab:f7:89:ed:fa:c1:a5:70:e5:ec:93:7b:
                    80:e8:0d:d3:77:dd:4e:2b:1b:82:a6:37:b8:40:2b:
                    32:31
                Exponent: 65537 (0x10001)
        X509v3 extensions:
            X509v3 Key Usage: critical
                Digital Signature, Key Encipherment
            Authority Information Access:
                OCSP - URI:http://igc-g3.certinomis.com/INSTANCE_SHA2/ocsp/OCSP_EASY

            X509v3 Authority Key Identifier:
                keyid:2C:C5:E3:20:2F:AB:0A:11:D6:F7:3A:D7:51:78:F4:6C:8F:B1:00:59

            X509v3 Basic Constraints:
                CA:FALSE
            X509v3 Certificate Policies:
                Policy: 1.2.250.1.86.2.3.1.60.1

            X509v3 CRL Distribution Points:

                Full Name:
                  URI:http://crl.igc-g3.certinomis.com/INSTANCE_SHA2/crl/AC_EASY-crl-1.crl

                Full Name:
                  URI:http://www.certinomis.com/crl/acg3-EASY.crl

            X509v3 Subject Alternative Name:
                DNS:internet.extra.laposte.fr, DNS:internet.extra.laposte.fr, DNS:voyage.extra.laposte.fr, DNS:www.rh.laposte.fr, DNS:www.carre-vip.log.extra.laposte.fr, DNS:sondages.extra.laposte.fr, DNS:evenementiel.inter.laposte.fr, DNS:piwik.extra.laposte.fr, DNS:e-poll-it.extra.laposte.fr, DNS:www.epargnesalariale.laposte.fr, DNS:www.alliancedynamique.laposte.fr, DNS:www.vehiparc.fr, DNS:www.vehiparc.net, DNS:www.vehiparc.biz, DNS:www.vehiparc.info, DNS:www.vehiparc.com, DNS:www.vehiparc.eu, DNS:www.vehiparc.org, DNS:www.forumgp.extra.laposte.fr, DNS:www.rencontres2020.extra.laposte.fr, DNS:www.leselanceursdugroupelaposte.fr, DNS:www.leselanceursdugroupelaposte.com, DNS:www.leselanceurs.fr, DNS:www.leselanceurs.com, DNS:www.vehiposte.fr, DNS:www.aladecouvertedesmetiers.laposte.fr, DNS:www.lebrandcenter.legroupe.laposte.fr, DNS:leselanceursdugroupelaposte.fr, DNS:leselanceursdugroupelaposte.com, DNS:leselanceurs.fr, DNS:leselanceurs.com, DNS:www.i-retraite.rh.laposte.fr, DNS:www.ladressemuseedelaposte.fr, DNS:ladressemuseedelaposte.fr, DNS:espacefournisseurs.inter.laposte.fr, DNS:www.lebrandcenter-prod.legroupe.laposte.fr
            X509v3 Subject Key Identifier:
                3D:74:C6:06:4B:40:5F:D1:FF:E4:D4:4F:C0:E1:67:F1:E7:14:1C:40
            X509v3 Extended Key Usage:
                TLS Web Server Authentication, TLS Web Client Authentication
    Signature Algorithm: sha256WithRSAEncryption
         a1:2a:17:36:88:da:f2:cd:82:ba:ca:83:ae:0f:7d:a6:54:b1:
         89:8b:11:fd:10:1a:82:54:9c:2a:43:98:93:72:b9:d3:5f:8e:
         b5:ab:12:bd:21:5f:b5:a7:de:46:62:52:5c:a9:45:08:c4:4b:
         3a:7a:29:d8:c7:d6:78:f8:1a:79:8b:cd:d4:d2:f1:ea:fe:9d:
         ed:f7:a5:31:b0:7c:41:1d:44:d6:61:e8:0f:c5:a6:56:f1:99:
         d1:37:ef:a1:2d:aa:a2:ae:d8:28:86:3e:83:bd:f0:e0:ab:09:
         09:ee:92:82:57:00:4b:93:69:5e:43:f6:34:95:0e:9f:b0:86:
         ea:e8:f8:2e:7f:5f:a5:9f:82:11:3c:4b:0f:1f:08:07:57:04:
         2f:75:1a:2b:cc:7c:2b:7d:1b:8a:92:d7:d8:52:14:72:09:a0:
         34:be:e9:d1:73:51:08:29:33:4e:e7:2c:0b:79:2f:c9:f1:88:
         25:7b:69:c3:89:bc:cd:e4:1a:bf:55:9f:75:0b:ca:6b:f0:7f:
         1d:f3:11:16:86:4c:38:56:fb:08:3e:83:85:ef:f0:93:0c:e0:
         c9:8b:d9:50:cb:f9:3c:ca:32:a6:4e:30:11:80:27:dd:ad:18:
         9d:95:49:7d:a3:4f:4c:24:63:8d:39:ac:29:65:d0:77:e7:33:
         d1:2a:44:23:88:5b:98:f5:1b:24:f5:55:2c:19:f1:6a:18:dc:
         af:e9:cc:a0:73:ae:32:f5:f9:7a:15:51:74:4d:4b:ac:c8:3a:
         24:c8:91:79:e5:5c:59:a9:fd:b0:98:25:83:3f:55:47:84:36:
         17:c9:a6:5b:14:05:49:39:67:ae:88:b1:ad:fa:c7:b3:0a:96:
         21:1b:1e:b8:99:61:b2:c3:2d:4a:60:41:9a:61:c6:72:ab:87:
         95:12:a7:e9:08:3d:7e:60:84:06:dc:20:21:5f:03:b7:a8:73:
         be:f3:62:8f:71:78:af:e4:01:be:1b:d1:da:57:78:bc:78:e6:
         cf:74:88:a6:9c:ac:be:2e:be:aa:5d:ef:44:fb:5d:50:79:62:
         aa:94:bd:1e:17:13:fe:44:14:3e:58:3b:74:fd:5d:e3:f3:7f:
         01:90:13:78:2c:b3:10:08:25:d8:81:c5:5a:cf:5b:fb:4f:b2:
         d4:ca:be:b8:95:56:28:25:34:ba:f1:fd:9c:1b:fd:c0:51:90:
         bb:ed:a7:67:f1:05:16:90:5d:ae:6c:8f:2a:6a:99:64:0e:58:
         8c:a4:af:5e:66:ab:97:42:74:95:08:68:46:57:bb:dc:ae:c7:
         1e:70:57:53:1c:4e:92:96:db:f3:ef:dc:71:b7:7e:0d:53:75:
         a1:b8:b5:d3:45:d9:01:a7
-----BEGIN CERTIFICATE-----
MIIJ+DCCB+CgAwIBAgIVAIjSfL8AAxdLHH7gII7bZovnoGGZMA0GCSqGSIb3DQEB
CwUAMFoxCzAJBgNVBAYTAkZSMRMwEQYDVQQKEwpDZXJ0aW5vbWlzMRcwFQYDVQQL
Ew4wMDAyIDQzMzk5ODkwMzEdMBsGA1UEAxMUQ2VydGlub21pcyAtIEVhc3kgQ0Ew
HhcNMTcwNjI5MTQzNDMxWhcNMTkwNjI5MTQzNDMxWjCBqDELMAkGA1UEBhMCRlIx
IDAeBgNVBAoTF0xBIFBPU1RFIC0gRFNJIENFTlRSQUxFMRcwFQYDVQRhEw4wMDAy
IDM1NjAwMDExNzEXMBUGA1UECxMOMDAwMiAzNTYwMDAxMTcxDzANBgNVBAcTBk5h
bnRlczEiMCAGA1UEAxMZaW50ZXJuZXQuZXh0cmEubGFwb3N0ZS5mcjEQMA4GA1UE
BRMHMS01Mjg4MDCCASIwDQYJKoZIhvcNAQEBBQADggEPADCCAQoCggEBAMRiPHy2
Vbw8aHN30sWbTxlbWW7M51kmRtJapLDCGdWSjKhoLAAmhc1VuNaCCLVMH/DTN5aJ
CNc0E7mDlEeAH2kwHDti/gMd3Ox794IfGDCNXRRPXFMT0W6O34TiWGECkTy7fzSk
sOP6E//PScj5rt8q2DazhFP8LTuMEx1rrwpcS3xxg4JmnzBKO2FJyV0xReIagz/z
FAUmCnUHwFxffFKcg2TwVZN0vC4OWmRmXUipnBZdrM4c/BxwZrZWJScRUM+35OLZ
bBQxoIsLfSfimRDs1BCudk99Odqa1hNSsyTZpc3sq/eJ7frBpXDl7JN7gOgN03fd
TisbgqY3uEArMjECAwEAAaOCBWQwggVgMA4GA1UdDwEB/wQEAwIFoDBVBggrBgEF
BQcBAQRJMEcwRQYIKwYBBQUHMAGGOWh0dHA6Ly9pZ2MtZzMuY2VydGlub21pcy5j
b20vSU5TVEFOQ0VfU0hBMi9vY3NwL09DU1BfRUFTWTAfBgNVHSMEGDAWgBQsxeMg
L6sKEdb3OtdRePRsj7EAWTAJBgNVHRMEAjAAMBcGA1UdIAQQMA4wDAYKKoF6AVYC
AwE8ATCBiQYDVR0fBIGBMH8wSqBIoEaGRGh0dHA6Ly9jcmwuaWdjLWczLmNlcnRp
bm9taXMuY29tL0lOU1RBTkNFX1NIQTIvY3JsL0FDX0VBU1ktY3JsLTEuY3JsMDGg
L6AthitodHRwOi8vd3d3LmNlcnRpbm9taXMuY29tL2NybC9hY2czLUVBU1kuY3Js
MIID5gYDVR0RBIID3TCCA9mCGWludGVybmV0LmV4dHJhLmxhcG9zdGUuZnKCGWlu
dGVybmV0LmV4dHJhLmxhcG9zdGUuZnKCF3ZveWFnZS5leHRyYS5sYXBvc3RlLmZy
ghF3d3cucmgubGFwb3N0ZS5mcoIid3d3LmNhcnJlLXZpcC5sb2cuZXh0cmEubGFw
b3N0ZS5mcoIZc29uZGFnZXMuZXh0cmEubGFwb3N0ZS5mcoIdZXZlbmVtZW50aWVs
LmludGVyLmxhcG9zdGUuZnKCFnBpd2lrLmV4dHJhLmxhcG9zdGUuZnKCGmUtcG9s
bC1pdC5leHRyYS5sYXBvc3RlLmZygh93d3cuZXBhcmduZXNhbGFyaWFsZS5sYXBv
c3RlLmZygiB3d3cuYWxsaWFuY2VkeW5hbWlxdWUubGFwb3N0ZS5mcoIPd3d3LnZl
aGlwYXJjLmZyghB3d3cudmVoaXBhcmMubmV0ghB3d3cudmVoaXBhcmMuYml6ghF3
d3cudmVoaXBhcmMuaW5mb4IQd3d3LnZlaGlwYXJjLmNvbYIPd3d3LnZlaGlwYXJj
LmV1ghB3d3cudmVoaXBhcmMub3Jnghx3d3cuZm9ydW1ncC5leHRyYS5sYXBvc3Rl
LmZygiN3d3cucmVuY29udHJlczIwMjAuZXh0cmEubGFwb3N0ZS5mcoIid3d3Lmxl
c2VsYW5jZXVyc2R1Z3JvdXBlbGFwb3N0ZS5mcoIjd3d3Lmxlc2VsYW5jZXVyc2R1
Z3JvdXBlbGFwb3N0ZS5jb22CE3d3dy5sZXNlbGFuY2V1cnMuZnKCFHd3dy5sZXNl
bGFuY2V1cnMuY29tghB3d3cudmVoaXBvc3RlLmZygiZ3d3cuYWxhZGVjb3V2ZXJ0
ZWRlc21ldGllcnMubGFwb3N0ZS5mcoIld3d3LmxlYnJhbmRjZW50ZXIubGVncm91
cGUubGFwb3N0ZS5mcoIebGVzZWxhbmNldXJzZHVncm91cGVsYXBvc3RlLmZygh9s
ZXNlbGFuY2V1cnNkdWdyb3VwZWxhcG9zdGUuY29tgg9sZXNlbGFuY2V1cnMuZnKC
EGxlc2VsYW5jZXVycy5jb22CHHd3dy5pLXJldHJhaXRlLnJoLmxhcG9zdGUuZnKC
HXd3dy5sYWRyZXNzZW11c2VlZGVsYXBvc3RlLmZyghlsYWRyZXNzZW11c2VlZGVs
YXBvc3RlLmZygiNlc3BhY2Vmb3Vybmlzc2V1cnMuaW50ZXIubGFwb3N0ZS5mcoIq
d3d3LmxlYnJhbmRjZW50ZXItcHJvZC5sZWdyb3VwZS5sYXBvc3RlLmZyMB0GA1Ud
DgQWBBQ9dMYGS0Bf0f/k1E/A4Wfx5xQcQDAdBgNVHSUEFjAUBggrBgEFBQcDAQYI
KwYBBQUHAwIwDQYJKoZIhvcNAQELBQADggIBAKEqFzaI2vLNgrrKg64PfaZUsYmL
Ef0QGoJUnCpDmJNyudNfjrWrEr0hX7Wn3kZiUlypRQjESzp6KdjH1nj4GnmLzdTS
8er+ne33pTGwfEEdRNZh6A/FplbxmdE376EtqqKu2CiGPoO98OCrCQnukoJXAEuT
aV5D9jSVDp+whuro+C5/X6WfghE8Sw8fCAdXBC91GivMfCt9G4qS19hSFHIJoDS+
6dFzUQgpM07nLAt5L8nxiCV7acOJvM3kGr9Vn3ULymvwfx3zERaGTDhW+wg+g4Xv
8JMM4MmL2VDL+TzKMqZOMBGAJ92tGJ2VSX2jT0wkY405rCll0HfnM9EqRCOIW5j1
GyT1VSwZ8WoY3K/pzKBzrjL1+XoVUXRNS6zIOiTIkXnlXFmp/bCYJYM/VUeENhfJ
plsUBUk5Z66Isa36x7MKliEbHriZYbLDLUpgQZphxnKrh5USp+kIPX5ghAbcICFf
A7eoc77zYo9xeK/kAb4b0dpXeLx45s90iKacrL4uvqpd70T7XVB5YqqUvR4XE/5E
FD5YO3T9XePzfwGQE3gssxAIJdiBxVrPW/tPstTKvriVViglNLrx/Zwb/cBRkLvt
p2fxBRaQXa5sjypqmWQOWIykr15mq5dCdJUIaEZXu9yuxx5wV1McTpKW2/Pv3HG3
fg1TdaG4tdNF2QGn
-----END CERTIFICATE-----
