Certificate:
    Data:
        Version: 3 (0x2)
        Serial Number: 18008675309 (0x4316693ed)
    Signature Algorithm: sha256WithRSAEncryption
        Issuer: C = US, O = Mother Nature, OU = Everything, CN = Mother Nature
        Validity
            Not Before: Jul  8 04:49:50 2016 GMT
            Not After : Sep 20 04:49:50 2016 GMT
        Subject: C = US, ST = FL, L = Tallahassee, street = 3210 Holly Mill Run, postalCode = 30062, O = Extreme Discord, OU = Chaos, CN = gov.us
        Subject Public Key Info:
            Public Key Algorithm: rsaEncryption
                Public-Key: (2048 bit)
                Modulus:
                    00:de:ce:8c:54:56:30:b8:5a:73:6f:05:fd:a2:26:
                    e4:1c:da:95:75:35:75:48:e2:9b:ec:de:bb:b5:d8:
                    95:f3:3f:9e:69:de:02:0e:a3:ec:34:c9:1c:9d:18:
                    bf:4f:70:6d:95:a4:3d:22:64:2d:b8:28:50:b6:81:
                    95:09:c6:0d:cd:57:8b:59:6e:79:2e:6a:a5:aa:07:
                    4f:e4:5b:10:c8:f8:65:93:49:48:a0:c0:a1:51:31:
                    a2:97:3a:f4:5f:0d:5f:98:c3:b3:f4:87:b7:a1:4f:
                    da:3e:9f:ca:f0:d3:a2:a1:8d:31:87:fa:1b:51:03:
                    dc:92:e6:95:81:39:e7:2c:1e:58:e3:04:6f:51:6b:
                    3b:81:74:a7:20:b2:f0:a4:31:b2:d7:93:8c:5c:b6:
                    20:c4:ed:5a:7b:ae:26:fb:a4:ec:8a:e1:25:b1:bd:
                    80:20:29:c6:6c:23:0f:78:43:35:ba:fb:b4:0a:b8:
                    40:ef:ea:ee:9d:ef:a9:1c:7e:d9:87:eb:12:fb:e1:
                    84:17:19:fd:83:44:4f:79:74:f4:38:40:7c:14:73:
                    66:c2:55:40:43:2b:4a:e8:c9:0d:83:fe:73:84:20:
                    71:65:0c:01:4d:99:80:a6:03:d6:ba:f1:f4:6b:5e:
                    e6:78:58:57:2b:bc:29:b2:c2:bf:8b:2a:50:83:38:
                    2e:9d
                Exponent: 65537 (0x10001)
        X509v3 extensions:
            X509v3 Key Usage: critical
                Digital Signature, Key Encipherment
            X509v3 Extended Key Usage: 
                TLS Web Client Authentication, TLS Web Server Authentication
            X509v3 Basic Constraints: critical
                CA:TRUE
            X509v3 Authority Key Identifier: 
                keyid:01:02:03

            Authority Information Access: 
                OCSP - URI:http://theca.net/ocsp
                CA Issuers - URI:http://theca.net/totallythecert.crt

            X509v3 Certificate Policies: 
                Policy: 2.23.140.1.2.2

            X509v3 Subject Key Identifier: 
                04:03:02:01
            X509v3 Subject Alternative Name: 
                DNS:*.gov.us, DNS:gov.us
    Signature Algorithm: sha256WithRSAEncryption
         02:b0:cb:d2:97:f3:b6:8f:af:dc:9c:32:b8:b8:f5:7b:51:b3:
         7c:e9:d0:d2:8b:a9:4d:7d:98:bd:13:84:7a:8b:1d:73:f3:82:
         57:b5:74:96:02:42:0e:7e:51:7c:b8:0e:12:90:13:15:b8:f3:
         58:03:20:30:d7:20:41:07:22:a5:03:ce:a2:a2:92:be:3c:ca:
         6d:9d:7a:d8:d6:aa:8f:f3:7c:52:4f:d4:a0:08:86:e0:26:0d:
         2b:fd:a0:a4:1b:b4:e6:f4:d5:3d:4d:d2:f9:44:26:75:a4:e5:
         d9:cc:ca:d8:8c:0d:fa:d4:8a:8f:4c:ef:46:ba:c3:db:a1:75:
         2e:93:f0:c3:3c:06:09:d8:c8:01:74:7b:c4:70:c8:2b:8b:c4:
         2f:d4:90:58:ee:b3:1b:b1:da:ab:3b:52:bc:61:30:e2:88:22:
         26:3c:de:e2:7a:fd:87:93:5b:42:0c:57:af:bf:46:e0:4d:b8:
         d3:73:a2:22:4b:b9:19:ca:dd:e1:64:30:4a:9c:df:b8:c3:d5:
         83:11:4c:cb:1b:c7:53:8a:59:dc:7a:0d:3e:e7:56:18:44:90:
         66:64:a9:29:f5:aa:38:eb:08:4c:35:ff:59:2f:97:f8:79:10:
         8e:87:e5:37:f1:6c:21:21:19:79:13:9a:00:00:4f:9e:fd:1c:
         b5:c5:7c:78
-----BEGIN CERTIFICATE-----
MIIEZDCCA0ygAwIBAgIFBDFmk+0wDQYJKoZIhvcNAQELBQAwUjELMAkGA1UEBhMC
VVMxFjAUBgNVBAoTDU1vdGhlciBOYXR1cmUxEzARBgNVBAsTCkV2ZXJ5dGhpbmcx
FjAUBgNVBAMTDU1vdGhlciBOYXR1cmUwHhcNMTYwNzA4MDQ0OTUwWhcNMTYwOTIw
MDQ0OTUwWjCBmTELMAkGA1UEBhMCVVMxCzAJBgNVBAgTAkZMMRQwEgYDVQQHEwtU
YWxsYWhhc3NlZTEcMBoGA1UECRMTMzIxMCBIb2xseSBNaWxsIFJ1bjEOMAwGA1UE
ERMFMzAwNjIxGDAWBgNVBAoTD0V4dHJlbWUgRGlzY29yZDEOMAwGA1UECxMFQ2hh
b3MxDzANBgNVBAMTBmdvdi51czCCASIwDQYJKoZIhvcNAQEBBQADggEPADCCAQoC
ggEBAN7OjFRWMLhac28F/aIm5BzalXU1dUjim+zeu7XYlfM/nmneAg6j7DTJHJ0Y
v09wbZWkPSJkLbgoULaBlQnGDc1Xi1lueS5qpaoHT+RbEMj4ZZNJSKDAoVExopc6
9F8NX5jDs/SHt6FP2j6fyvDToqGNMYf6G1ED3JLmlYE55yweWOMEb1FrO4F0pyCy
8KQxsteTjFy2IMTtWnuuJvuk7IrhJbG9gCApxmwjD3hDNbr7tAq4QO/q7p3vqRx+
2YfrEvvhhBcZ/YNET3l09DhAfBRzZsJVQEMrSujJDYP+c4QgcWUMAU2ZgKYD1rrx
9Gte5nhYVyu8KbLCv4sqUIM4Lp0CAwEAAaOB+DCB9TAOBgNVHQ8BAf8EBAMCBaAw
HQYDVR0lBBYwFAYIKwYBBQUHAwIGCCsGAQUFBwMBMA8GA1UdEwEB/wQFMAMBAf8w
DgYDVR0jBAcwBYADAQIDMGIGCCsGAQUFBwEBBFYwVDAhBggrBgEFBQcwAYYVaHR0
cDovL3RoZWNhLm5ldC9vY3NwMC8GCCsGAQUFBzAChiNodHRwOi8vdGhlY2EubmV0
L3RvdGFsbHl0aGVjZXJ0LmNydDATBgNVHSAEDDAKMAgGBmeBDAECAjANBgNVHQ4E
BgQEBAMCATAbBgNVHREEFDASgggqLmdvdi51c4IGZ292LnVzMA0GCSqGSIb3DQEB
CwUAA4IBAQACsMvSl/O2j6/cnDK4uPV7UbN86dDSi6lNfZi9E4R6ix1z84JXtXSW
AkIOflF8uA4SkBMVuPNYAyAw1yBBByKlA86iopK+PMptnXrY1qqP83xST9SgCIbg
Jg0r/aCkG7Tm9NU9TdL5RCZ1pOXZzMrYjA361IqPTO9GusPboXUuk/DDPAYJ2MgB
dHvEcMgri8Qv1JBY7rMbsdqrO1K8YTDiiCImPN7iev2Hk1tCDFevv0bgTbjTc6Ii
S7kZyt3hZDBKnN+4w9WDEUzLG8dTilnceg0+51YYRJBmZKkp9ao46whMNf9ZL5f4
eRCOh+U38WwhIRl5E5oAAE+e/Ry1xXx4
-----END CERTIFICATE-----
