Certificate:
    Data:
        Version: 3 (0x2)
        Serial Number:
            49:88:97:ff:f8:08:35:e0:17:72:8e:7a:91:6b:2d:d3
        Signature Algorithm: sha256WithRSAEncryption
        Issuer: C=XX, O=Some CA, CN=Fake CA for Zlint testing
        Validity
            Not Before: Jul 19 00:00:00 2025 GMT
            Not After : Jul 19 00:00:00 2026 GMT
        Subject: CN=Guenter.Grass@example.com
        Subject Public Key Info:
            Public Key Algorithm: rsaEncryption
                Public-Key: (2048 bit)
                Modulus:
                    00:d6:48:94:2f:c8:8b:da:12:36:48:3a:74:3a:55:
                    78:8a:78:5b:a8:d5:0e:b1:5d:65:5d:02:97:48:b0:
                    d9:a9:ce:40:dd:bc:1b:13:21:b9:c0:bb:7d:56:de:
                    c7:26:cc:0b:72:3e:c5:20:0c:ee:4a:19:08:ff:18:
                    e8:c3:91:7c:3d:41:3f:10:25:bb:57:0a:09:84:41:
                    e1:c3:7d:bc:bd:f6:2d:e7:0f:ff:57:cd:e8:85:67:
                    39:bd:71:28:f8:67:b1:e3:e7:7d:3e:14:a8:8f:56:
                    ca:ad:65:2a:e8:fb:e7:9f:d2:c9:1a:ba:90:42:ee:
                    a3:2e:a4:5f:ee:8b:a3:06:42:42:6b:c9:55:e6:a0:
                    07:c5:9f:3b:ec:1a:f5:f1:4f:95:bd:2c:70:6e:8d:
                    80:58:bd:5d:48:9f:28:28:76:50:19:dd:22:34:77:
                    e0:ae:02:81:fe:9e:b4:e2:ac:96:ee:1b:7e:a1:1a:
                    73:fb:14:60:97:ba:a4:d4:93:75:92:28:e6:e4:8b:
                    0e:a5:23:87:df:62:0f:ea:74:68:0c:23:49:05:9f:
                    df:40:3e:be:68:55:d1:f7:f0:1b:72:5c:64:79:83:
                    9c:08:1b:08:58:03:8e:7b:79:70:95:ca:06:a8:3e:
                    b8:0d:c4:ca:9f:af:56:b5:da:9f:a2:e3:b3:43:e2:
                    8d:5b
                Exponent: 65537 (0x10001)
        X509v3 extensions:
            X509v3 Key Usage: critical
                Digital Signature, Key Encipherment
            X509v3 Extended Key Usage: 
                TLS Web Client Authentication, E-mail Protection
            X509v3 Subject Key Identifier: 
                80:1D:A3:99:8B:E9:79:DF:46:D5:A3:CB:7A:D6:4E:4F:31:CA:D1:6E
            X509v3 Authority Key Identifier: 
                E8:B6:F6:76:4B:D0:3B:E5:46:A5:F9:54:D4:7E:07:B3:DE:0D:60:3E
            Authority Information Access: 
                OCSP - URI:http://ca.someca-inc.com/ocsp
                CA Issuers - URI:http://ca.someca-inc.com/root
            X509v3 Subject Alternative Name: 
                email:Guenter.Grass@example.com
            X509v3 Certificate Policies: 
                Policy: 2.23.140.1.5.1.1
            X509v3 CRL Distribution Points: 
                Full Name:
                  URI:http://ca.someca-inc.com/crl
    Signature Algorithm: sha256WithRSAEncryption
    Signature Value:
        b6:5c:13:b7:a0:84:35:13:da:b1:23:e6:05:f5:4a:ac:47:d8:
        8c:89:a9:42:d8:42:c1:60:a7:ac:83:26:c5:4f:1b:8e:fb:a4:
        79:69:d3:77:7c:08:85:db:f0:16:6b:e5:05:47:c3:55:61:f8:
        bf:77:d2:cb:3c:7c:0b:b7:b7:26:67:27:9b:cd:9f:3b:bb:c3:
        70:44:52:59:d9:08:7b:7e:62:2b:93:73:01:23:d3:20:ad:95:
        7c:6f:a2:dd:6a:6b:eb:01:7f:13:d0:20:ea:49:c1:a6:6e:20:
        4a:75:44:8d:13:b4:7d:46:31:e3:a8:95:c7:ee:cf:68:a7:77:
        59:a0:ff:f8:50:e6:3f:15:f2:19:3c:15:b4:d2:aa:4e:7f:85:
        8e:49:99:2a:9e:19:63:5f:10:32:23:4b:8c:4e:0e:10:3c:4a:
        1c:a8:ab:ab:dc:7c:36:09:ce:fe:84:0a:09:03:a6:05:bc:8d:
        85:e2:88:0b:d8:2e:f8:e8:9a:61:19:9e:ae:be:5b:6c:94:e7:
        2f:58:b6:41:a1:82:76:76:ec:9f:7d:d2:ec:b8:f6:2b:43:99:
        88:67:0d:c4:14:c1:f9:dd:91:6c:67:11:91:ae:df:fa:22:a3:
        fe:de:84:17:07:30:1e:7d:de:3d:ee:90:3e:d3:d3:17:3b:a0:
        9d:79:0a:f9:41:7f:92:30:24:7a:d4:35:76:84:ac:8c:79:c1:
        79:34:dc:32:b3:f8:e4:bf:fb:0a:c5:cf:50:ea:c9:1e:ef:5a:
        16:a6:6e:00:41:5c:a6:02:5a:90:45:ad:c9:d9:57:4c:27:f7:
        9b:5e:c9:b4:8c:fa:1e:61:64:30:ed:49:0e:08:ec:77:e5:07:
        2c:0d:d0:53:e4:51:c0:e0:f2:4a:e0:c0:ee:56:c0:3b:7c:96:
        16:22:c4:a8:20:18:d3:de:d1:98:bb:ba:cd:d0:6a:9c:28:a4:
        22:ff:99:01:83:fb:92:ef:8c:e1:a5:25:2a:e0:b5:f3:7c:8d:
        8d:82:9e:d1:c4:8a:3a:c1:95:53:54:f7:9b:5d:1a:5f:94:58:
        6a:e2:5c:02:35:05:b1:c1:39:4a:c4:89:0f:80:3e:8c:fb:8e:
        97:0f:6f:2f:7c:b3:ff:a6:59:b0:aa:a8:7c:61:52:f1:fd:ea:
        e4:c9:11:69:72:3c:51:d8:d1:b7:83:12:80:bd:61:aa:a1:7a:
        ee:42:9c:1d:ed:ca:7c:68:3f:6d:da:b3:19:04:9b:bb:a8:31:
        f1:c0:63:0b:ac:ec:26:0b:2d:0d:b2:c7:ea:a3:64:2f:14:8d:
        33:39:4b:80:3d:d3:01:38:9f:ee:98:27:10:11:9d:c9:13:22:
        84:cd:c9:bd:4e:5e:07:63
-----BEGIN CERTIFICATE-----
MIIFNzCCAx+gAwIBAgIQSYiX//gINeAXco56kWst0zANBgkqhkiG9w0BAQsFADBD
MQswCQYDVQQGEwJYWDEQMA4GA1UEChMHU29tZSBDQTEiMCAGA1UEAxMZRmFrZSBD
QSBmb3IgWmxpbnQgdGVzdGluZzAeFw0yNTA3MTkwMDAwMDBaFw0yNjA3MTkwMDAw
MDBaMCQxIjAgBgNVBAMMGUd1ZW50ZXIuR3Jhc3NAZXhhbXBsZS5jb20wggEiMA0G
CSqGSIb3DQEBAQUAA4IBDwAwggEKAoIBAQDWSJQvyIvaEjZIOnQ6VXiKeFuo1Q6x
XWVdApdIsNmpzkDdvBsTIbnAu31W3scmzAtyPsUgDO5KGQj/GOjDkXw9QT8QJbtX
CgmEQeHDfby99i3nD/9XzeiFZzm9cSj4Z7Hj530+FKiPVsqtZSro++ef0skaupBC
7qMupF/ui6MGQkJryVXmoAfFnzvsGvXxT5W9LHBujYBYvV1InygodlAZ3SI0d+Cu
AoH+nrTirJbuG36hGnP7FGCXuqTUk3WSKObkiw6lI4ffYg/qdGgMI0kFn99APr5o
VdH38BtyXGR5g5wIGwhYA457eXCVygaoPrgNxMqfr1a12p+i47ND4o1bAgMBAAGj
ggFEMIIBQDAOBgNVHQ8BAf8EBAMCBaAwHQYDVR0lBBYwFAYIKwYBBQUHAwIGCCsG
AQUFBwMEMB0GA1UdDgQWBBSAHaOZi+l530bVo8t61k5PMcrRbjAfBgNVHSMEGDAW
gBTotvZ2S9A75Ual+VTUfgez3g1gPjBkBggrBgEFBQcBAQRYMFYwKQYIKwYBBQUH
MAGGHWh0dHA6Ly9jYS5zb21lY2EtaW5jLmNvbS9vY3NwMCkGCCsGAQUFBzAChh1o
dHRwOi8vY2Euc29tZWNhLWluYy5jb20vcm9vdDAkBgNVHREEHTAbgRlHdWVudGVy
LkdyYXNzQGV4YW1wbGUuY29tMBQGA1UdIAQNMAswCQYHZ4EMAQUBATAtBgNVHR8E
JjAkMCKgIKAehhxodHRwOi8vY2Euc29tZWNhLWluYy5jb20vY3JsMA0GCSqGSIb3
DQEBCwUAA4ICAQC2XBO3oIQ1E9qxI+YF9UqsR9iMialC2ELBYKesgybFTxuO+6R5
adN3fAiF2/AWa+UFR8NVYfi/d9LLPHwLt7cmZyebzZ87u8NwRFJZ2Qh7fmIrk3MB
I9MgrZV8b6LdamvrAX8T0CDqScGmbiBKdUSNE7R9RjHjqJXH7s9op3dZoP/4UOY/
FfIZPBW00qpOf4WOSZkqnhljXxAyI0uMTg4QPEocqKur3Hw2Cc7+hAoJA6YFvI2F
4ogL2C746JphGZ6uvltslOcvWLZBoYJ2duyffdLsuPYrQ5mIZw3EFMH53ZFsZxGR
rt/6IqP+3oQXBzAefd497pA+09MXO6CdeQr5QX+SMCR61DV2hKyMecF5NNwys/jk
v/sKxc9Q6ske71oWpm4AQVymAlqQRa3J2VdMJ/ebXsm0jPoeYWQw7UkOCOx35Qcs
DdBT5FHA4PJK4MDuVsA7fJYWIsSoIBjT3tGYu7rN0GqcKKQi/5kBg/uS74zhpSUq
4LXzfI2Ngp7RxIo6wZVTVPebXRpflFhq4lwCNQWxwTlKxIkPgD6M+46XD28vfLP/
plmwqqh8YVLx/erkyRFpcjxR2NG3gxKAvWGqoXruQpwd7cp8aD9t2rMZBJu7qDHx
wGMLrOwmCy0Nssfqo2QvFI0zOUuAPdMBOJ/umCcQEZ3JEyKEzcm9Tl4HYw==
-----END CERTIFICATE-----
