Certificate:
    Data:
        Version: 3 (0x2)
        Serial Number:
            06:9c:ce:52:d5:b9:3f:86:2b:b4:f0:a6:25:00:5a:b7
        Signature Algorithm: sha256WithRSAEncryption
        Issuer: C=XX, O=Some CA, CN=Fake CA for Zlint testing
        Validity
            Not Before: Jul 19 00:00:00 2025 GMT
            Not After : Jul 19 00:00:00 2026 GMT
        Subject: C=GB, CN=Leon Mandrake
        Subject Public Key Info:
            Public Key Algorithm: rsaEncryption
                Public-Key: (2048 bit)
                Modulus:
                    00:a9:ef:76:7f:7b:ae:4e:31:a5:a8:c6:f3:a1:45:
                    49:db:17:b5:57:98:5e:a6:78:39:9b:f8:4a:76:c3:
                    96:18:35:d3:e6:b4:b9:f9:37:c4:da:20:6f:48:ce:
                    f0:e2:39:f1:4b:37:de:35:3c:35:c0:93:ba:33:e5:
                    64:b3:4d:8b:d2:b8:7d:df:88:0b:29:56:53:a2:ef:
                    d1:74:58:67:53:99:02:cc:8e:f6:e2:f9:8e:37:62:
                    60:ed:83:86:e3:14:b7:8a:c5:c5:44:bd:ba:6c:e8:
                    16:80:01:30:ea:9b:db:c9:8a:74:3e:75:d9:dd:55:
                    7c:76:d0:fa:97:0b:75:0b:f4:6a:85:8d:3b:cf:cb:
                    2a:bf:4c:cf:f4:df:3f:f3:7b:54:ba:fd:92:fd:b3:
                    f7:51:19:aa:e1:85:a1:a0:c7:c9:ed:03:39:1d:1f:
                    51:6c:ac:07:33:23:b8:5e:75:12:a6:3f:bd:9d:aa:
                    53:f5:1e:f4:83:54:bd:68:0d:f8:5c:21:dd:ab:8a:
                    3d:62:fe:f0:72:61:b2:ba:bb:09:bb:a2:c5:59:61:
                    3c:f3:a8:fc:8f:b5:ab:ff:69:6b:b1:30:ee:a6:2c:
                    c0:57:42:c8:25:58:30:0f:31:8e:73:94:35:58:5e:
                    cd:37:b1:cf:15:5f:ad:e3:25:dd:2c:7d:40:96:ce:
                    c0:03
                Exponent: 65537 (0x10001)
        X509v3 extensions:
            X509v3 Key Usage: critical
                Digital Signature, Key Encipherment
            X509v3 Extended Key Usage: 
                TLS Web Client Authentication, E-mail Protection
            X509v3 Subject Key Identifier: 
                66:E4:1E:0C:C8:82:AC:A3:93:4A:16:F8:0A:29:85:D8:A9:FA:AD:C5
            X509v3 Authority Key Identifier: 
                E8:B6:F6:76:4B:D0:3B:E5:46:A5:F9:54:D4:7E:07:B3:DE:0D:60:3E
            Authority Information Access: 
                OCSP - URI:http://ca.someca-inc.com/ocsp
                CA Issuers - URI:http://ca.someca-inc.com/root
            X509v3 Subject Alternative Name: 
                email:Leon.Mandrake@example.com
            X509v3 Certificate Policies: 
                Policy: 2.23.140.1.5.4.1
            X509v3 CRL Distribution Points: 
                Full Name:
                  URI:http://ca.someca-inc.com/crl
    Signature Algorithm: sha256WithRSAEncryption
    Signature Value:
        87:cc:51:22:2b:ce:c3:5a:b6:62:f8:b6:98:98:bc:bf:aa:d2:
        ac:4a:c0:bc:ac:4a:d4:36:db:8c:2b:5f:be:7e:49:7b:b2:ee:
        e2:6a:68:94:53:04:a0:eb:d1:1c:54:0c:73:4a:fd:4e:30:40:
        96:e6:a7:a6:41:89:75:63:1d:1e:8a:83:63:30:b8:ce:d5:4b:
        44:cf:26:bb:51:ad:65:2d:5f:de:76:01:08:9f:68:43:2e:72:
        07:b4:f9:62:39:fe:49:ff:58:54:89:15:2a:1d:00:4f:d3:57:
        b6:8f:ea:c2:ad:08:0b:03:95:37:87:55:68:a8:90:71:96:9c:
        9c:14:5b:20:c0:4d:9f:04:54:ba:6e:81:40:95:65:4f:4a:9f:
        e2:7f:81:07:f5:1f:9b:06:b8:8d:eb:77:59:c2:60:44:f5:6d:
        08:f8:10:d5:56:56:34:bd:3b:8c:74:5f:b7:09:67:78:81:46:
        3a:d4:31:18:9b:64:79:12:04:34:87:9b:44:79:16:16:8a:bd:
        e6:f2:03:e8:d6:b5:5d:43:73:f1:2b:94:d8:47:05:53:43:4a:
        bf:d3:12:c2:47:13:16:b5:47:4c:35:db:12:5c:f5:3c:3f:57:
        7a:ed:45:bd:08:54:e4:78:d6:07:15:34:60:ec:02:53:52:c1:
        31:9a:30:e2:ab:6d:bd:b3:89:27:4d:bf:8e:63:9a:f4:b4:78:
        a6:45:58:0e:4b:79:20:0f:54:0f:ac:5f:d1:83:cc:ac:69:35:
        ea:b9:69:89:15:88:77:63:c9:eb:61:3c:69:01:d7:57:a2:fb:
        f0:39:e6:f4:a2:69:f9:51:04:f7:f3:c4:7e:1b:e5:5c:17:a2:
        c3:00:f8:60:e5:b1:32:55:54:39:2d:53:89:9d:fc:9e:08:3c:
        41:10:42:cc:14:cb:9b:8e:f6:a9:45:e0:7c:81:6a:6e:c6:0f:
        4d:80:92:86:2c:a4:69:b9:17:1f:42:51:c9:ce:7e:d8:07:3d:
        2d:59:bd:cf:9d:1d:46:86:67:1f:8d:93:57:df:82:23:71:77:
        93:82:c3:b5:ab:fe:f6:cc:16:21:c3:ef:c8:04:5b:a8:54:33:
        c1:c5:cb:0d:0a:bc:01:92:86:3c:b5:9b:1e:bc:26:04:6c:0d:
        e4:72:f2:88:a3:fb:19:23:e1:f2:49:b1:57:17:a6:0e:28:0a:
        12:5d:4f:5f:2f:1a:fb:b9:3a:86:21:41:64:47:37:e4:47:9b:
        c5:e2:f8:55:b5:c6:39:02:8e:02:67:86:16:61:a1:88:52:32:
        70:e8:56:72:77:8c:5c:32:36:1c:0e:12:32:e9:c5:9d:98:de:
        36:32:34:2b:08:fd:84:39
-----BEGIN CERTIFICATE-----
MIIFODCCAyCgAwIBAgIQBpzOUtW5P4YrtPCmJQBatzANBgkqhkiG9w0BAQsFADBD
MQswCQYDVQQGEwJYWDEQMA4GA1UEChMHU29tZSBDQTEiMCAGA1UEAxMZRmFrZSBD
QSBmb3IgWmxpbnQgdGVzdGluZzAeFw0yNTA3MTkwMDAwMDBaFw0yNjA3MTkwMDAw
MDBaMCUxCzAJBgNVBAYTAkdCMRYwFAYDVQQDEw1MZW9uIE1hbmRyYWtlMIIBIjAN
BgkqhkiG9w0BAQEFAAOCAQ8AMIIBCgKCAQEAqe92f3uuTjGlqMbzoUVJ2xe1V5he
png5m/hKdsOWGDXT5rS5+TfE2iBvSM7w4jnxSzfeNTw1wJO6M+Vks02L0rh934gL
KVZTou/RdFhnU5kCzI724vmON2Jg7YOG4xS3isXFRL26bOgWgAEw6pvbyYp0PnXZ
3VV8dtD6lwt1C/RqhY07z8sqv0zP9N8/83tUuv2S/bP3URmq4YWhoMfJ7QM5HR9R
bKwHMyO4XnUSpj+9napT9R70g1S9aA34XCHdq4o9Yv7wcmGyursJu6LFWWE886j8
j7Wr/2lrsTDupizAV0LIJVgwDzGOc5Q1WF7NN7HPFV+t4yXdLH1Als7AAwIDAQAB
o4IBRDCCAUAwDgYDVR0PAQH/BAQDAgWgMB0GA1UdJQQWMBQGCCsGAQUFBwMCBggr
BgEFBQcDBDAdBgNVHQ4EFgQUZuQeDMiCrKOTShb4CimF2Kn6rcUwHwYDVR0jBBgw
FoAU6Lb2dkvQO+VGpflU1H4Hs94NYD4wZAYIKwYBBQUHAQEEWDBWMCkGCCsGAQUF
BzABhh1odHRwOi8vY2Euc29tZWNhLWluYy5jb20vb2NzcDApBggrBgEFBQcwAoYd
aHR0cDovL2NhLnNvbWVjYS1pbmMuY29tL3Jvb3QwJAYDVR0RBB0wG4EZTGVvbi5N
YW5kcmFrZUBleGFtcGxlLmNvbTAUBgNVHSAEDTALMAkGB2eBDAEFBAEwLQYDVR0f
BCYwJDAioCCgHoYcaHR0cDovL2NhLnNvbWVjYS1pbmMuY29tL2NybDANBgkqhkiG
9w0BAQsFAAOCAgEAh8xRIivOw1q2Yvi2mJi8v6rSrErAvKxK1DbbjCtfvn5Je7Lu
4mpolFMEoOvRHFQMc0r9TjBAluanpkGJdWMdHoqDYzC4ztVLRM8mu1GtZS1f3nYB
CJ9oQy5yB7T5Yjn+Sf9YVIkVKh0AT9NXto/qwq0ICwOVN4dVaKiQcZacnBRbIMBN
nwRUum6BQJVlT0qf4n+BB/Ufmwa4jet3WcJgRPVtCPgQ1VZWNL07jHRftwlneIFG
OtQxGJtkeRIENIebRHkWFoq95vID6Na1XUNz8SuU2EcFU0NKv9MSwkcTFrVHTDXb
Elz1PD9Xeu1FvQhU5HjWBxU0YOwCU1LBMZow4qttvbOJJ02/jmOa9LR4pkVYDkt5
IA9UD6xf0YPMrGk16rlpiRWId2PJ62E8aQHXV6L78Dnm9KJp+VEE9/PEfhvlXBei
wwD4YOWxMlVUOS1TiZ38ngg8QRBCzBTLm472qUXgfIFqbsYPTYCShiykabkXH0JR
yc5+2Ac9LVm9z50dRoZnH42TV9+CI3F3k4LDtav+9swWIcPvyARbqFQzwcXLDQq8
AZKGPLWbHrwmBGwN5HLyiKP7GSPh8kmxVxemDigKEl1PXy8a+7k6hiFBZEc35Eeb
xeL4VbXGOQKOAmeGFmGhiFIycOhWcneMXDI2HA4SMunFnZjeNjI0Kwj9hDk=
-----END CERTIFICATE-----
