Certificate:
    Data:
        Version: 3 (0x2)
        Serial Number:
            2e:2a:50:a9:e8:99:90:f2:d5:00:5f:ea:c5:09:e3:01
        Signature Algorithm: sha256WithRSAEncryption
        Issuer: C=XX, O=Some CA, CN=Fake CA for Zlint testing
        Validity
            Not Before: Jul 19 00:00:00 2025 GMT
            Not After : Jul 19 00:00:00 2026 GMT
        Subject: C=DE, L=ein Ort, O=Gesellschaft GmbH, CN=Gesellschaft GmbH
        Subject Public Key Info:
            Public Key Algorithm: rsaEncryption
                Public-Key: (2048 bit)
                Modulus:
                    00:a8:85:63:f1:e1:6b:32:64:50:f4:c2:d6:d3:1f:
                    f3:a1:23:df:80:5f:94:52:51:65:37:35:ff:32:cf:
                    6a:e8:1d:0a:2c:8a:12:c9:38:11:36:d0:e0:4e:c4:
                    4b:9a:ed:d8:1e:b5:36:50:e8:09:e9:4b:ad:2a:9c:
                    49:5f:14:40:8e:86:d7:a0:bc:52:03:3a:5a:bc:c8:
                    91:3e:4f:cb:9b:af:3d:80:3f:89:01:fd:6c:07:75:
                    fe:5d:ef:2e:c1:52:c1:d3:3e:98:95:ea:54:92:4b:
                    62:2f:d5:64:5d:65:37:3e:9d:e3:fb:30:63:1b:9a:
                    89:c4:70:19:eb:0d:29:ce:1b:98:e6:9d:b1:3b:e1:
                    8e:ce:11:41:e7:0d:3c:36:4d:c1:46:27:62:d1:0d:
                    a3:7d:8c:09:c3:5f:46:19:35:fd:2d:55:70:41:54:
                    2f:2d:1d:da:b0:21:72:0b:71:86:e1:54:6c:6c:33:
                    b1:41:dc:b9:bb:d4:7d:9d:50:fe:f2:14:57:df:96:
                    de:0c:9f:ee:64:91:e2:da:68:a7:6d:ae:36:75:f2:
                    1b:1d:8a:91:50:1a:13:00:c8:2e:e2:ce:3a:4c:c2:
                    58:09:cb:45:84:df:0c:18:b5:ac:98:c5:9b:0f:42:
                    76:59:48:7d:8c:14:ff:76:17:a7:f0:03:28:d8:e1:
                    8d:05
                Exponent: 65537 (0x10001)
        X509v3 extensions:
            X509v3 Key Usage: critical
                Digital Signature, Key Encipherment
            X509v3 Extended Key Usage: 
                TLS Web Client Authentication, E-mail Protection
            X509v3 Subject Key Identifier: 
                7E:00:BE:D5:FA:5A:04:A4:33:08:B0:30:C1:DA:6A:40:DC:D0:22:0C
            X509v3 Authority Key Identifier: 
                E8:B6:F6:76:4B:D0:3B:E5:46:A5:F9:54:D4:7E:07:B3:DE:0D:60:3E
            Authority Information Access: 
                OCSP - URI:http://ca.someca-inc.com/ocsp
                CA Issuers - URI:http://ca.someca-inc.com/root
            X509v3 Subject Alternative Name: 
                email:Leon.Mandrake@example.com
            X509v3 Certificate Policies: 
                Policy: 2.23.140.1.5.2.1
            X509v3 CRL Distribution Points: 
                Full Name:
                  URI:http://ca.someca-inc.com/crl
    Signature Algorithm: sha256WithRSAEncryption
    Signature Value:
        2c:dc:f5:6c:e6:be:8e:08:23:52:8f:3b:74:47:39:9a:64:bf:
        a9:d8:a0:ae:2f:a6:98:61:78:48:36:14:4d:ad:15:6f:ed:42:
        6a:a9:3a:ce:d1:8e:26:20:ea:97:5e:a0:c5:56:4c:ca:75:8e:
        e9:41:e4:42:92:a1:41:1d:13:a8:8a:9f:64:d5:48:e0:4d:44:
        3b:aa:50:3f:c2:47:48:d3:25:ad:da:ff:99:55:23:e2:dc:ee:
        95:a6:82:fb:ac:ce:b1:cc:54:82:6f:f9:27:08:91:e3:a7:fc:
        53:a0:29:c1:f1:f8:e5:e1:0a:0e:45:8c:1a:9e:b1:2d:a1:ab:
        71:40:92:2d:f6:3f:50:47:79:00:bb:94:33:d6:50:e8:3d:ad:
        32:58:c8:83:b9:c5:c5:7f:32:de:39:88:31:88:6f:71:01:88:
        61:4b:b0:55:67:6b:79:6b:f5:c8:5e:66:ac:b7:f6:ac:85:cf:
        3a:0e:ba:6d:22:a6:9e:29:83:ab:2c:02:11:ee:12:bd:c1:11:
        25:31:20:b8:e0:c3:82:a9:8a:57:55:99:47:36:5a:9a:7f:82:
        ea:0f:71:92:48:bb:e4:34:ee:31:65:70:d5:18:e8:1b:a5:e5:
        f9:73:bf:55:03:70:57:00:37:2f:7c:4d:94:bd:d5:0f:58:84:
        c6:4f:a1:64:57:9a:1e:0a:7f:c9:e0:d4:04:b7:48:c7:ef:da:
        f1:7d:5a:4f:66:cd:de:3f:09:52:b8:64:c4:42:f5:9d:6c:ba:
        f3:2f:43:68:6d:38:35:59:1a:5c:85:fb:f9:da:22:40:eb:53:
        cc:67:45:63:a6:52:54:5f:66:b4:14:c1:61:aa:64:43:c1:b2:
        a9:f4:6c:b4:47:81:9f:c5:ea:8b:8a:5b:0d:37:88:28:bf:9d:
        f0:9b:43:58:92:6b:5e:c2:e5:3a:fd:16:23:f0:c9:3b:02:9d:
        28:33:34:3f:c5:34:e9:b5:77:ec:48:45:83:33:40:93:7a:8c:
        4d:cd:8d:68:23:ef:58:d1:69:c4:3b:d0:d8:36:6c:a9:2f:21:
        35:8f:57:be:9e:bd:42:3b:a1:38:93:92:ba:2d:17:7e:ae:2f:
        27:0e:7a:e0:47:30:c2:88:c7:48:89:bd:c2:a8:6c:82:56:1b:
        15:d2:da:09:2b:5e:db:25:ca:de:3d:77:d6:f5:54:08:15:6c:
        19:88:a4:1f:92:a0:65:28:00:21:46:b9:03:d5:d0:10:4e:05:
        9f:13:8f:fe:79:2a:8d:65:02:eb:db:d8:17:6b:8b:4f:f7:8b:
        88:1f:d0:97:3b:9b:3c:7f:de:25:e7:9e:96:f6:86:d2:ee:ab:
        ee:0a:c0:8d:16:3c:22:95
-----BEGIN CERTIFICATE-----
MIIFajCCA1KgAwIBAgIQLipQqeiZkPLVAF/qxQnjATANBgkqhkiG9w0BAQsFADBD
MQswCQYDVQQGEwJYWDEQMA4GA1UEChMHU29tZSBDQTEiMCAGA1UEAxMZRmFrZSBD
QSBmb3IgWmxpbnQgdGVzdGluZzAeFw0yNTA3MTkwMDAwMDBaFw0yNjA3MTkwMDAw
MDBaMFcxCzAJBgNVBAYTAkRFMRAwDgYDVQQHEwdlaW4gT3J0MRowGAYDVQQKExFH
ZXNlbGxzY2hhZnQgR21iSDEaMBgGA1UEAxMRR2VzZWxsc2NoYWZ0IEdtYkgwggEi
MA0GCSqGSIb3DQEBAQUAA4IBDwAwggEKAoIBAQCohWPx4WsyZFD0wtbTH/OhI9+A
X5RSUWU3Nf8yz2roHQosihLJOBE20OBOxEua7dgetTZQ6AnpS60qnElfFECOhteg
vFIDOlq8yJE+T8ubrz2AP4kB/WwHdf5d7y7BUsHTPpiV6lSSS2Iv1WRdZTc+neP7
MGMbmonEcBnrDSnOG5jmnbE74Y7OEUHnDTw2TcFGJ2LRDaN9jAnDX0YZNf0tVXBB
VC8tHdqwIXILcYbhVGxsM7FB3Lm71H2dUP7yFFfflt4Mn+5kkeLaaKdtrjZ18hsd
ipFQGhMAyC7izjpMwlgJy0WE3wwYtayYxZsPQnZZSH2MFP92F6fwAyjY4Y0FAgMB
AAGjggFEMIIBQDAOBgNVHQ8BAf8EBAMCBaAwHQYDVR0lBBYwFAYIKwYBBQUHAwIG
CCsGAQUFBwMEMB0GA1UdDgQWBBR+AL7V+loEpDMIsDDB2mpA3NAiDDAfBgNVHSME
GDAWgBTotvZ2S9A75Ual+VTUfgez3g1gPjBkBggrBgEFBQcBAQRYMFYwKQYIKwYB
BQUHMAGGHWh0dHA6Ly9jYS5zb21lY2EtaW5jLmNvbS9vY3NwMCkGCCsGAQUFBzAC
hh1odHRwOi8vY2Euc29tZWNhLWluYy5jb20vcm9vdDAkBgNVHREEHTAbgRlMZW9u
Lk1hbmRyYWtlQGV4YW1wbGUuY29tMBQGA1UdIAQNMAswCQYHZ4EMAQUCATAtBgNV
HR8EJjAkMCKgIKAehhxodHRwOi8vY2Euc29tZWNhLWluYy5jb20vY3JsMA0GCSqG
SIb3DQEBCwUAA4ICAQAs3PVs5r6OCCNSjzt0RzmaZL+p2KCuL6aYYXhINhRNrRVv
7UJqqTrO0Y4mIOqXXqDFVkzKdY7pQeRCkqFBHROoip9k1UjgTUQ7qlA/wkdI0yWt
2v+ZVSPi3O6VpoL7rM6xzFSCb/knCJHjp/xToCnB8fjl4QoORYwanrEtoatxQJIt
9j9QR3kAu5Qz1lDoPa0yWMiDucXFfzLeOYgxiG9xAYhhS7BVZ2t5a/XIXmast/as
hc86DrptIqaeKYOrLAIR7hK9wRElMSC44MOCqYpXVZlHNlqaf4LqD3GSSLvkNO4x
ZXDVGOgbpeX5c79VA3BXADcvfE2UvdUPWITGT6FkV5oeCn/J4NQEt0jH79rxfVpP
Zs3ePwlSuGTEQvWdbLrzL0NobTg1WRpchfv52iJA61PMZ0VjplJUX2a0FMFhqmRD
wbKp9Gy0R4GfxeqLilsNN4gov53wm0NYkmtewuU6/RYj8Mk7Ap0oMzQ/xTTptXfs
SEWDM0CTeoxNzY1oI+9Y0WnEO9DYNmypLyE1j1e+nr1CO6E4k5K6LRd+ri8nDnrg
RzDCiMdIib3CqGyCVhsV0toJK17bJcrePXfW9VQIFWwZiKQfkqBlKAAhRrkD1dAQ
TgWfE4/+eSqNZQLr29gXa4tP94uIH9CXO5s8f94l556W9obS7qvuCsCNFjwilQ==
-----END CERTIFICATE-----
