Certificate:
    Data:
        Version: 3 (0x2)
        Serial Number:
            d8:d2:c9:c7:e5:e5:54:f0:34:d5:09:30:30:df:ae:1c
        Signature Algorithm: sha256WithRSAEncryption
        Issuer: C=XX, O=Some CA, CN=Fake CA for Zlint testing
        Validity
            Not Before: Jul 13 00:00:00 2025 GMT
            Not After : Jul 13 00:00:00 2026 GMT
        Subject: C=DE, L=ein Ort, O=Gesellschaft GmbH, CN=Gesellschaft GmbH
        Subject Public Key Info:
            Public Key Algorithm: rsaEncryption
                Public-Key: (2048 bit)
                Modulus:
                    00:9b:ec:d9:22:fe:6d:cc:92:65:91:38:e9:69:a1:
                    76:bc:7f:d3:40:82:a7:d9:0b:a1:ce:8d:c1:0d:b4:
                    68:96:ff:7d:e2:95:28:b8:27:c2:5b:d1:c7:26:ba:
                    5f:e9:ce:55:4f:62:e5:76:ee:fd:45:03:80:19:ff:
                    6f:40:e6:da:94:21:76:2c:c9:74:e8:bb:7e:94:cf:
                    33:6b:8d:a3:77:db:fe:9c:af:40:6f:50:b0:b5:68:
                    7e:65:00:cb:aa:8c:31:a5:e1:68:83:d2:a7:8f:ee:
                    c4:5e:54:e9:03:4e:66:ba:b0:b4:f7:af:86:81:60:
                    ad:cc:ae:8c:8c:d0:b9:4f:87:36:ba:1c:80:79:20:
                    6a:8f:f2:bb:d1:fd:3c:10:57:0e:13:f0:77:49:d6:
                    84:d2:34:d5:9e:ba:d1:7f:b0:36:82:1c:35:86:8b:
                    89:ab:0b:82:3c:a1:0a:87:4b:8a:ab:5e:99:59:72:
                    bf:de:08:4f:84:6c:f2:f5:4b:b5:6d:a0:7c:bb:15:
                    44:f9:c0:e4:14:ae:c3:2d:bd:46:71:18:1c:1e:67:
                    cd:f9:d7:3b:e6:fc:69:48:f1:10:cf:1d:6a:a9:4f:
                    7a:e4:9c:f2:97:c4:f3:16:20:36:40:9b:0b:d3:43:
                    0d:e0:df:21:b6:ee:0f:eb:c4:9f:a2:25:02:cb:b2:
                    05:45
                Exponent: 65537 (0x10001)
        X509v3 extensions:
            X509v3 Key Usage: critical
                Digital Signature, Key Encipherment
            X509v3 Extended Key Usage: 
                TLS Web Client Authentication, E-mail Protection
            X509v3 Subject Key Identifier: 
                88:4D:76:F8:23:C3:6E:FF:F7:11:50:AF:B2:BF:1B:05:4B:ED:AB:3F
            X509v3 Authority Key Identifier: 
                E8:B6:F6:76:4B:D0:3B:E5:46:A5:F9:54:D4:7E:07:B3:DE:0D:60:3E
            Authority Information Access: 
                OCSP - URI:http://ca.someca-inc.com/ocsp
                CA Issuers - URI:http://ca.someca-inc.com/root
            X509v3 Subject Alternative Name: 
                email:Leon.Mandrake@example.com
            X509v3 Certificate Policies: 
                Policy: 2.23.140.1.5.2.1
            X509v3 CRL Distribution Points: 
                Full Name:
                  URI:http://ca.someca-inc.com/crl
    Signature Algorithm: sha256WithRSAEncryption
    Signature Value:
        15:71:b5:94:23:44:0f:6c:0a:21:3e:bc:e0:83:3e:8c:d7:35:
        25:7b:43:ed:fe:85:97:15:d1:96:ed:82:cf:7e:c0:3a:78:9b:
        f2:ee:2a:c5:39:06:ad:d0:65:76:53:16:b9:af:01:cb:3a:a8:
        94:79:01:a1:8c:0b:d4:ab:38:7f:fa:20:ca:0d:ab:04:c3:ec:
        b6:09:e0:2a:7b:30:ca:87:7a:10:52:8a:24:13:25:4e:e2:43:
        fb:02:e6:c5:4f:d9:4d:5d:8c:f6:19:0a:1c:55:5e:5d:24:d5:
        53:7d:da:81:12:94:ee:48:1b:4e:0e:6a:f9:9a:8a:5d:66:aa:
        8f:20:12:1b:49:a9:a6:a6:8c:c6:11:b1:07:d1:d7:d6:4c:e9:
        ff:8b:b5:97:34:7d:64:88:9f:91:6e:f1:a3:8f:c8:80:73:72:
        d6:59:e9:16:48:73:f7:9c:6d:3d:72:21:fd:e0:1a:67:c0:bc:
        bd:bc:35:da:0e:bb:f1:df:91:b4:cc:8f:d4:52:f3:84:90:7f:
        45:96:af:4a:20:4c:60:ca:98:ea:a8:e7:63:51:4a:af:39:8b:
        71:bc:91:f1:76:f4:96:89:03:24:7b:21:52:67:5c:52:a9:f2:
        21:ae:70:21:db:42:48:b0:b6:10:34:4b:68:7b:15:ad:c4:77:
        4d:d1:7c:41:68:c3:a3:a2:55:5b:9c:93:42:cf:61:70:1e:ee:
        75:22:c0:d0:91:78:54:48:88:ad:4c:f6:0d:36:df:a9:24:e4:
        71:26:89:96:ac:3e:03:b0:c5:9c:8b:29:c7:a2:e1:ad:61:8c:
        a0:09:4b:4e:a0:42:2b:e9:9b:77:44:46:0a:84:bc:42:44:97:
        22:23:3a:18:be:39:7e:6e:f1:13:82:5c:68:9a:f7:d7:4f:17:
        b4:13:6c:e5:e3:54:38:3e:27:b7:9d:c5:d9:58:7b:87:5a:5b:
        32:40:25:64:06:c9:9c:f6:f6:d0:de:15:cc:df:bc:fd:d4:2e:
        58:92:5b:0c:0e:e8:39:b0:9c:d7:66:72:3c:09:59:96:4e:19:
        d7:bd:05:03:d7:28:52:e1:ba:dd:bf:9f:9a:82:db:36:d3:d2:
        e7:af:56:e4:d8:aa:bb:e5:a6:04:18:59:ac:ac:8b:9d:56:95:
        c7:8f:b3:bb:ca:a5:c5:6c:05:39:c5:a0:0b:f2:db:46:23:98:
        d1:e9:98:11:79:36:67:9b:15:59:55:2a:de:ad:dd:8c:c8:c5:
        d1:df:45:bc:0f:e2:99:e7:c1:b6:9d:a3:12:38:fe:0c:3b:4b:
        42:b5:05:a4:ba:b7:59:9f:5c:71:63:15:2c:8e:9a:dd:27:dc:
        00:83:35:4d:48:9b:49:02
-----BEGIN CERTIFICATE-----
MIIFazCCA1OgAwIBAgIRANjSycfl5VTwNNUJMDDfrhwwDQYJKoZIhvcNAQELBQAw
QzELMAkGA1UEBhMCWFgxEDAOBgNVBAoTB1NvbWUgQ0ExIjAgBgNVBAMTGUZha2Ug
Q0EgZm9yIFpsaW50IHRlc3RpbmcwHhcNMjUwNzEzMDAwMDAwWhcNMjYwNzEzMDAw
MDAwWjBXMQswCQYDVQQGEwJERTEQMA4GA1UEBxMHZWluIE9ydDEaMBgGA1UEChMR
R2VzZWxsc2NoYWZ0IEdtYkgxGjAYBgNVBAMTEUdlc2VsbHNjaGFmdCBHbWJIMIIB
IjANBgkqhkiG9w0BAQEFAAOCAQ8AMIIBCgKCAQEAm+zZIv5tzJJlkTjpaaF2vH/T
QIKn2Quhzo3BDbRolv994pUouCfCW9HHJrpf6c5VT2Lldu79RQOAGf9vQObalCF2
LMl06Lt+lM8za42jd9v+nK9Ab1CwtWh+ZQDLqowxpeFog9Knj+7EXlTpA05murC0
96+GgWCtzK6MjNC5T4c2uhyAeSBqj/K70f08EFcOE/B3SdaE0jTVnrrRf7A2ghw1
houJqwuCPKEKh0uKq16ZWXK/3ghPhGzy9Uu1baB8uxVE+cDkFK7DLb1GcRgcHmfN
+dc75vxpSPEQzx1qqU965Jzyl8TzFiA2QJsL00MN4N8htu4P68SfoiUCy7IFRQID
AQABo4IBRDCCAUAwDgYDVR0PAQH/BAQDAgWgMB0GA1UdJQQWMBQGCCsGAQUFBwMC
BggrBgEFBQcDBDAdBgNVHQ4EFgQUiE12+CPDbv/3EVCvsr8bBUvtqz8wHwYDVR0j
BBgwFoAU6Lb2dkvQO+VGpflU1H4Hs94NYD4wZAYIKwYBBQUHAQEEWDBWMCkGCCsG
AQUFBzABhh1odHRwOi8vY2Euc29tZWNhLWluYy5jb20vb2NzcDApBggrBgEFBQcw
AoYdaHR0cDovL2NhLnNvbWVjYS1pbmMuY29tL3Jvb3QwJAYDVR0RBB0wG4EZTGVv
bi5NYW5kcmFrZUBleGFtcGxlLmNvbTAUBgNVHSAEDTALMAkGB2eBDAEFAgEwLQYD
VR0fBCYwJDAioCCgHoYcaHR0cDovL2NhLnNvbWVjYS1pbmMuY29tL2NybDANBgkq
hkiG9w0BAQsFAAOCAgEAFXG1lCNED2wKIT684IM+jNc1JXtD7f6FlxXRlu2Cz37A
Onib8u4qxTkGrdBldlMWua8ByzqolHkBoYwL1Ks4f/ogyg2rBMPstgngKnswyod6
EFKKJBMlTuJD+wLmxU/ZTV2M9hkKHFVeXSTVU33agRKU7kgbTg5q+ZqKXWaqjyAS
G0mppqaMxhGxB9HX1kzp/4u1lzR9ZIifkW7xo4/IgHNy1lnpFkhz95xtPXIh/eAa
Z8C8vbw12g678d+RtMyP1FLzhJB/RZavSiBMYMqY6qjnY1FKrzmLcbyR8Xb0lokD
JHshUmdcUqnyIa5wIdtCSLC2EDRLaHsVrcR3TdF8QWjDo6JVW5yTQs9hcB7udSLA
0JF4VEiIrUz2DTbfqSTkcSaJlqw+A7DFnIspx6LhrWGMoAlLTqBCK+mbd0RGCoS8
QkSXIiM6GL45fm7xE4JcaJr3108XtBNs5eNUOD4nt53F2Vh7h1pbMkAlZAbJnPb2
0N4VzN+8/dQuWJJbDA7oObCc12ZyPAlZlk4Z170FA9coUuG63b+fmoLbNtPS569W
5Niqu+WmBBhZrKyLnVaVx4+zu8qlxWwFOcWgC/LbRiOY0emYEXk2Z5sVWVUq3q3d
jMjF0d9FvA/imefBtp2jEjj+DDtLQrUFpLq3WZ9ccWMVLI6a3SfcAIM1TUibSQI=
-----END CERTIFICATE-----
