Certificate:
    Data:
        Version: 3 (0x2)
        Serial Number:
            38:01:91:25:82:d3:a9:d9:8d:e5:35:86:6f:17:cd:4e
        Signature Algorithm: sha256WithRSAEncryption
        Issuer: C=XX, O=Some CA, CN=Fake CA for Zlint testing
        Validity
            Not Before: Jul 19 00:00:00 2025 GMT
            Not After : Jul 19 00:00:00 2026 GMT
        Subject: C=US, L=Nowhere, O=Some Company Ltd., CN=Leon Mandrake
        Subject Public Key Info:
            Public Key Algorithm: rsaEncryption
                Public-Key: (2048 bit)
                Modulus:
                    00:be:35:27:0a:b6:d6:5d:fc:6a:01:3b:c9:e7:15:
                    61:cc:2d:5c:42:ff:c9:64:6d:4f:e0:83:6e:1b:3f:
                    bf:71:18:ad:b0:76:ff:be:01:7b:5f:7f:a4:c6:67:
                    ee:49:d9:81:89:8f:40:02:4a:8c:4c:d5:71:61:2c:
                    f0:b9:5b:46:9e:42:5f:da:7f:9a:33:aa:9a:94:29:
                    a8:68:9c:3c:56:13:a4:df:aa:70:35:4d:7a:4b:2f:
                    ce:ee:fc:b2:82:09:6d:1b:bf:06:6d:68:0e:5a:63:
                    31:ba:81:d9:12:ed:8b:81:aa:31:c3:d7:18:07:d6:
                    d1:fb:52:1d:cf:a0:0d:a8:c8:50:57:a5:8f:8d:f7:
                    ae:e4:a0:f0:91:b1:49:de:84:7e:b8:67:00:ac:bf:
                    11:a2:3e:4a:3f:90:05:50:c1:54:b2:f0:e4:28:5f:
                    77:12:eb:2d:92:82:88:bb:51:1b:b4:11:9e:12:3a:
                    57:dd:df:d9:00:2a:8a:ef:7a:f2:8f:9f:df:d8:78:
                    0a:e5:55:f2:6e:52:c2:a9:de:8b:3c:8d:3c:62:ee:
                    6e:b2:6d:d1:d9:d4:32:da:15:63:d2:6d:7b:6d:06:
                    1e:57:e0:8f:4f:30:25:4b:2e:1c:f4:34:cd:29:4f:
                    ef:26:9d:21:af:77:4b:35:eb:0d:e6:09:3e:72:68:
                    38:a1
                Exponent: 65537 (0x10001)
        X509v3 extensions:
            X509v3 Key Usage: critical
                Digital Signature, Key Encipherment
            X509v3 Extended Key Usage: 
                TLS Web Client Authentication, E-mail Protection
            X509v3 Subject Key Identifier: 
                6D:A5:97:CB:70:40:50:BE:A7:82:84:DD:F3:1A:97:F4:E0:F7:79:4E
            X509v3 Authority Key Identifier: 
                E8:B6:F6:76:4B:D0:3B:E5:46:A5:F9:54:D4:7E:07:B3:DE:0D:60:3E
            Authority Information Access: 
                OCSP - URI:http://ca.someca-inc.com/ocsp
                CA Issuers - URI:http://ca.someca-inc.com/root
            X509v3 Subject Alternative Name: 
                email:Leon.Mandrake@example.com
            X509v3 Certificate Policies: 
                Policy: 2.23.140.1.5.3.1
            X509v3 CRL Distribution Points: 
                Full Name:
                  URI:http://ca.someca-inc.com/crl
    Signature Algorithm: sha256WithRSAEncryption
    Signature Value:
        30:e8:33:83:13:cc:eb:9f:54:79:1e:a7:bf:4a:ee:7c:43:04:
        0b:aa:82:fd:67:1c:e3:2a:a1:9e:43:1b:5f:0a:f4:8e:97:54:
        91:93:aa:af:17:db:4c:d5:72:90:5b:0e:d1:11:22:be:a4:68:
        0a:e1:e7:fa:4d:00:d6:7e:2d:20:e4:3a:c6:e5:b7:d3:8d:02:
        97:f0:fb:cc:e5:c7:51:84:c2:eb:be:71:71:8f:73:be:d0:fe:
        09:62:6e:20:81:b1:6f:02:d3:28:de:cf:21:1b:ad:76:7e:7a:
        db:1a:46:d2:c1:27:53:1a:f8:e5:fc:66:d9:a9:9b:35:0f:02:
        6f:d3:22:91:0b:57:28:41:b6:7b:bb:0f:e0:4e:b7:41:7c:d5:
        c3:fe:29:69:da:f9:b9:20:c5:40:d3:3c:51:c7:8d:a3:db:99:
        9e:04:68:ec:5d:f7:7a:48:1f:f2:73:db:ff:21:fa:10:d8:28:
        a2:a1:9b:d1:98:f3:ec:f4:b5:71:8a:f0:34:9d:bc:36:da:49:
        b9:ac:b7:82:14:6f:fa:63:89:00:af:85:5b:ae:27:be:c1:51:
        75:9f:cb:3e:ed:4f:be:90:d5:92:9d:39:46:3f:be:cd:c7:da:
        8f:0d:69:b3:d9:ea:fc:cd:c2:ab:db:f9:16:56:a6:fb:c1:d6:
        44:e1:50:7d:2a:0d:22:b6:0d:b0:dd:8d:f0:09:dc:15:fa:b0:
        29:bf:b1:46:e3:33:0b:29:81:ac:80:e1:29:96:24:b9:fb:6a:
        e1:3c:5a:9c:ec:b8:23:7e:db:eb:39:10:58:3c:64:08:4a:51:
        6e:bd:fd:17:c8:98:42:96:b2:34:09:0f:27:48:8f:b4:a1:ea:
        03:ac:4a:8b:0c:ca:3d:2a:72:c9:3f:eb:c1:af:35:1f:98:4e:
        1f:1b:22:13:2f:b5:d2:ee:44:43:6e:e8:1b:b5:a6:5c:d1:03:
        9a:be:2f:fe:48:bc:96:8f:f3:57:4e:4d:a6:bd:ca:47:55:3d:
        0e:f2:43:63:01:e5:01:da:b3:25:8b:23:e0:a7:d4:d6:a2:5e:
        76:05:57:e2:5c:26:67:b9:9e:61:40:63:77:d3:84:ce:36:61:
        67:63:48:8a:49:50:15:a5:ed:26:a4:82:2e:2a:1c:fb:c7:f4:
        c8:4d:82:72:29:30:b0:3a:10:1d:2b:3e:63:87:0e:85:5b:71:
        f2:80:a2:d2:e0:78:e9:d8:d1:7e:66:62:a7:d9:3a:5a:98:2a:
        2d:7f:49:5b:1f:70:56:bc:59:4d:29:be:3c:43:97:69:0e:1e:
        67:92:73:6e:77:59:a6:99:3d:82:f0:1d:0a:52:06:f8:89:ce:
        54:91:38:80:07:9c:d8:0f
-----BEGIN CERTIFICATE-----
MIIFZjCCA06gAwIBAgIQOAGRJYLTqdmN5TWGbxfNTjANBgkqhkiG9w0BAQsFADBD
MQswCQYDVQQGEwJYWDEQMA4GA1UEChMHU29tZSBDQTEiMCAGA1UEAxMZRmFrZSBD
QSBmb3IgWmxpbnQgdGVzdGluZzAeFw0yNTA3MTkwMDAwMDBaFw0yNjA3MTkwMDAw
MDBaMFMxCzAJBgNVBAYTAlVTMRAwDgYDVQQHEwdOb3doZXJlMRowGAYDVQQKExFT
b21lIENvbXBhbnkgTHRkLjEWMBQGA1UEAxMNTGVvbiBNYW5kcmFrZTCCASIwDQYJ
KoZIhvcNAQEBBQADggEPADCCAQoCggEBAL41Jwq21l38agE7yecVYcwtXEL/yWRt
T+CDbhs/v3EYrbB2/74Be19/pMZn7knZgYmPQAJKjEzVcWEs8LlbRp5CX9p/mjOq
mpQpqGicPFYTpN+qcDVNeksvzu78soIJbRu/Bm1oDlpjMbqB2RLti4GqMcPXGAfW
0ftSHc+gDajIUFelj433ruSg8JGxSd6EfrhnAKy/EaI+Sj+QBVDBVLLw5ChfdxLr
LZKCiLtRG7QRnhI6V93f2QAqiu968o+f39h4CuVV8m5SwqneizyNPGLubrJt0dnU
MtoVY9Jte20GHlfgj08wJUsuHPQ0zSlP7yadIa93SzXrDeYJPnJoOKECAwEAAaOC
AUQwggFAMA4GA1UdDwEB/wQEAwIFoDAdBgNVHSUEFjAUBggrBgEFBQcDAgYIKwYB
BQUHAwQwHQYDVR0OBBYEFG2ll8twQFC+p4KE3fMal/Tg93lOMB8GA1UdIwQYMBaA
FOi29nZL0DvlRqX5VNR+B7PeDWA+MGQGCCsGAQUFBwEBBFgwVjApBggrBgEFBQcw
AYYdaHR0cDovL2NhLnNvbWVjYS1pbmMuY29tL29jc3AwKQYIKwYBBQUHMAKGHWh0
dHA6Ly9jYS5zb21lY2EtaW5jLmNvbS9yb290MCQGA1UdEQQdMBuBGUxlb24uTWFu
ZHJha2VAZXhhbXBsZS5jb20wFAYDVR0gBA0wCzAJBgdngQwBBQMBMC0GA1UdHwQm
MCQwIqAgoB6GHGh0dHA6Ly9jYS5zb21lY2EtaW5jLmNvbS9jcmwwDQYJKoZIhvcN
AQELBQADggIBADDoM4MTzOufVHkep79K7nxDBAuqgv1nHOMqoZ5DG18K9I6XVJGT
qq8X20zVcpBbDtERIr6kaArh5/pNANZ+LSDkOsblt9ONApfw+8zlx1GEwuu+cXGP
c77Q/glibiCBsW8C0yjezyEbrXZ+etsaRtLBJ1Ma+OX8ZtmpmzUPAm/TIpELVyhB
tnu7D+BOt0F81cP+KWna+bkgxUDTPFHHjaPbmZ4EaOxd93pIH/Jz2/8h+hDYKKKh
m9GY8+z0tXGK8DSdvDbaSbmst4IUb/pjiQCvhVuuJ77BUXWfyz7tT76Q1ZKdOUY/
vs3H2o8NabPZ6vzNwqvb+RZWpvvB1kThUH0qDSK2DbDdjfAJ3BX6sCm/sUbjMwsp
gayA4SmWJLn7auE8WpzsuCN+2+s5EFg8ZAhKUW69/RfImEKWsjQJDydIj7Sh6gOs
SosMyj0qcsk/68GvNR+YTh8bIhMvtdLuRENu6Bu1plzRA5q+L/5IvJaP81dOTaa9
ykdVPQ7yQ2MB5QHasyWLI+Cn1NaiXnYFV+JcJme5nmFAY3fThM42YWdjSIpJUBWl
7Sakgi4qHPvH9MhNgnIpMLA6EB0rPmOHDoVbcfKAotLgeOnY0X5mYqfZOlqYKi1/
SVsfcFa8WU0pvjxDl2kOHmeSc253WaaZPYLwHQpSBviJzlSROIAHnNgP
-----END CERTIFICATE-----
