Certificate:
    Data:
        Version: 3 (0x2)
        Serial Number:
            f4:98:f4:68:71:b7:fb:ff:2a:a1:66:8f:96:8b:14:f4
        Signature Algorithm: sha256WithRSAEncryption
        Issuer: C=XX, O=Some CA, CN=Fake CA for Zlint testing
        Validity
            Not Before: Jul 19 00:00:00 2025 GMT
            Not After : Jul 19 00:00:00 2026 GMT
        Subject: C=BR, ST=Bahia, L=Juazeiro, CN=João Gilberto, GN=João, SN=Gilberto
        Subject Public Key Info:
            Public Key Algorithm: rsaEncryption
                Public-Key: (2048 bit)
                Modulus:
                    00:9f:aa:cc:a7:84:66:77:ce:d2:43:c8:ca:21:19:
                    b9:36:0c:32:5c:69:8a:c2:cd:38:4d:4b:a8:fc:87:
                    11:ff:c0:b8:e4:5c:b0:35:7e:3c:b0:e6:ba:d4:0b:
                    a5:20:05:21:50:ab:d7:de:5d:5a:7a:a4:81:55:fd:
                    55:1b:8d:a3:70:ec:35:7e:99:d9:2d:94:74:17:cb:
                    2d:30:48:06:a3:70:e9:79:71:38:94:6e:a4:8f:8f:
                    f8:aa:fd:39:29:18:77:40:56:02:21:f0:f1:ae:f6:
                    fc:86:92:92:69:ad:6a:30:6b:00:b9:10:ef:2e:39:
                    8c:74:18:47:c1:21:24:81:45:54:d6:cd:48:fa:78:
                    cd:0f:ca:3d:35:34:46:84:6f:89:0b:f1:de:35:c8:
                    76:92:ac:74:93:37:7b:e4:a2:d5:8f:27:b2:1d:a7:
                    24:90:c1:9f:d7:a2:d9:5e:4c:8c:bc:4b:94:08:34:
                    f2:ce:f7:e8:1e:6c:d8:b4:42:2e:07:f9:ab:ea:9e:
                    69:db:43:f2:73:2e:4b:77:d1:74:42:f0:c4:75:c8:
                    a0:24:15:b3:59:13:b5:64:89:aa:46:98:e8:05:4a:
                    f8:b8:f0:7e:99:42:ec:63:aa:07:f1:fb:46:6b:c4:
                    21:06:6a:32:ac:01:5b:cf:f9:ec:8b:f9:21:31:d2:
                    4a:73
                Exponent: 65537 (0x10001)
        X509v3 extensions:
            X509v3 Key Usage: critical
                Digital Signature, Key Encipherment
            X509v3 Extended Key Usage: 
                TLS Web Client Authentication, E-mail Protection
            X509v3 Subject Key Identifier: 
                17:ED:92:3A:A6:A3:E3:D6:90:7F:A7:2D:E5:4A:8D:1C:E6:8F:A3:7C
            X509v3 Authority Key Identifier: 
                E8:B6:F6:76:4B:D0:3B:E5:46:A5:F9:54:D4:7E:07:B3:DE:0D:60:3E
            Authority Information Access: 
                OCSP - URI:http://ca.someca-inc.com/ocsp
                CA Issuers - URI:http://ca.someca-inc.com/root
            X509v3 Subject Alternative Name: 
                email:joao.gilberto@example.org
            X509v3 Certificate Policies: 
                Policy: 2.23.140.1.5.4.2
            X509v3 CRL Distribution Points: 
                Full Name:
                  URI:http://ca.someca-inc.com/crl
    Signature Algorithm: sha256WithRSAEncryption
    Signature Value:
        d4:8c:95:5c:dd:eb:ce:43:d7:bc:05:45:76:34:5a:fe:92:48:
        59:f7:bc:bf:25:8f:32:58:03:78:c7:aa:ca:7a:39:35:c4:f7:
        ff:ad:b3:0d:d9:be:91:92:db:aa:91:ff:22:0c:0c:0d:1f:f9:
        5a:5d:6e:4a:26:7f:ce:12:4c:51:b4:49:e1:b8:74:e6:45:7f:
        d4:05:eb:95:0b:93:da:c8:f7:e1:f8:a3:a6:dc:3b:61:1c:38:
        98:bc:26:98:c7:09:b7:a6:92:4e:a5:0b:45:f5:ba:ef:cc:f1:
        6c:0f:57:21:26:8e:73:59:f5:2d:c3:54:c8:ed:42:72:f9:77:
        f1:85:81:39:29:08:39:ab:c8:3e:30:32:8f:a5:e3:63:b1:3b:
        76:f4:2d:df:62:dd:e2:c3:6c:02:73:3c:92:cd:75:96:7b:8a:
        23:b8:a7:28:04:84:23:52:76:cb:76:f3:a3:0b:83:be:26:11:
        76:b3:53:e8:f7:16:5b:7a:5c:24:55:8e:c1:fd:0a:f6:4c:32:
        8d:07:d6:65:6b:02:50:24:4d:45:4b:dd:17:e7:1a:a0:8e:e2:
        19:66:fe:9b:c0:f1:1c:f6:3f:34:ea:83:d5:af:b3:47:42:38:
        3f:be:32:0e:9b:10:05:c3:18:d1:29:ed:0f:0f:26:86:70:8d:
        48:48:c3:de:14:4e:38:8a:a8:fc:52:f1:fa:22:71:ab:e4:8f:
        4a:cd:77:24:23:0f:43:c3:cd:95:4c:01:8a:8c:13:87:7f:3d:
        21:c8:f0:6e:34:7e:6d:09:6b:12:7a:0e:00:99:f0:08:ff:77:
        82:0f:c9:63:5d:05:5d:40:40:ea:dd:30:b5:0e:a5:31:5a:4f:
        cc:42:63:1a:50:8d:dc:ab:fe:d0:4f:a9:9c:90:bb:c1:33:62:
        6e:25:cf:f8:e8:c8:84:e0:4d:4f:19:88:0d:82:db:05:a6:f9:
        de:b1:bb:15:19:53:96:2e:4d:57:3b:69:e3:f3:c3:e5:7d:e9:
        66:c3:66:44:9e:83:6b:f4:b0:d2:b3:08:8e:3d:fb:37:0d:0e:
        ea:c0:27:d5:82:d8:8e:5b:61:52:22:e1:f8:c0:ab:e6:8b:fa:
        dc:60:35:46:14:a2:65:32:aa:fa:30:ec:ad:7f:c9:1b:4c:93:
        09:dc:e5:dc:b8:61:7e:d0:43:9d:24:68:d1:d5:d2:03:2b:8a:
        6b:a1:87:ea:99:28:dd:35:bb:c9:87:55:a9:31:9e:d8:16:8c:
        ec:a8:6a:f2:53:9d:d6:94:05:15:40:21:ca:a1:1c:8f:38:7c:
        f0:b2:57:14:7f:2a:39:bc:a7:95:a7:e3:95:a3:ab:b6:1b:3a:
        0d:fe:66:ab:00:c3:41:c8
-----BEGIN CERTIFICATE-----
MIIFgDCCA2igAwIBAgIRAPSY9Ghxt/v/KqFmj5aLFPQwDQYJKoZIhvcNAQELBQAw
QzELMAkGA1UEBhMCWFgxEDAOBgNVBAoTB1NvbWUgQ0ExIjAgBgNVBAMTGUZha2Ug
Q0EgZm9yIFpsaW50IHRlc3RpbmcwHhcNMjUwNzE5MDAwMDAwWhcNMjYwNzE5MDAw
MDAwWjBsMQswCQYDVQQGEwJCUjEOMAwGA1UECBMFQmFoaWExETAPBgNVBAcTCEp1
YXplaXJvMRcwFQYDVQQDDA5Kb8OjbyBHaWxiZXJ0bzEOMAwGA1UEKgwFSm/Do28x
ETAPBgNVBAQTCEdpbGJlcnRvMIIBIjANBgkqhkiG9w0BAQEFAAOCAQ8AMIIBCgKC
AQEAn6rMp4Rmd87SQ8jKIRm5NgwyXGmKws04TUuo/IcR/8C45FywNX48sOa61Aul
IAUhUKvX3l1aeqSBVf1VG42jcOw1fpnZLZR0F8stMEgGo3DpeXE4lG6kj4/4qv05
KRh3QFYCIfDxrvb8hpKSaa1qMGsAuRDvLjmMdBhHwSEkgUVU1s1I+njND8o9NTRG
hG+JC/HeNch2kqx0kzd75KLVjyeyHackkMGf16LZXkyMvEuUCDTyzvfoHmzYtEIu
B/mr6p5p20Pycy5Ld9F0QvDEdcigJBWzWRO1ZImqRpjoBUr4uPB+mULsY6oH8ftG
a8QhBmoyrAFbz/nsi/khMdJKcwIDAQABo4IBRDCCAUAwDgYDVR0PAQH/BAQDAgWg
MB0GA1UdJQQWMBQGCCsGAQUFBwMCBggrBgEFBQcDBDAdBgNVHQ4EFgQUF+2SOqaj
49aQf6ct5UqNHOaPo3wwHwYDVR0jBBgwFoAU6Lb2dkvQO+VGpflU1H4Hs94NYD4w
ZAYIKwYBBQUHAQEEWDBWMCkGCCsGAQUFBzABhh1odHRwOi8vY2Euc29tZWNhLWlu
Yy5jb20vb2NzcDApBggrBgEFBQcwAoYdaHR0cDovL2NhLnNvbWVjYS1pbmMuY29t
L3Jvb3QwJAYDVR0RBB0wG4EZam9hby5naWxiZXJ0b0BleGFtcGxlLm9yZzAUBgNV
HSAEDTALMAkGB2eBDAEFBAIwLQYDVR0fBCYwJDAioCCgHoYcaHR0cDovL2NhLnNv
bWVjYS1pbmMuY29tL2NybDANBgkqhkiG9w0BAQsFAAOCAgEA1IyVXN3rzkPXvAVF
djRa/pJIWfe8vyWPMlgDeMeqyno5NcT3/62zDdm+kZLbqpH/IgwMDR/5Wl1uSiZ/
zhJMUbRJ4bh05kV/1AXrlQuT2sj34fijptw7YRw4mLwmmMcJt6aSTqULRfW678zx
bA9XISaOc1n1LcNUyO1Ccvl38YWBOSkIOavIPjAyj6XjY7E7dvQt32Ld4sNsAnM8
ks11lnuKI7inKASEI1J2y3bzowuDviYRdrNT6PcWW3pcJFWOwf0K9kwyjQfWZWsC
UCRNRUvdF+caoI7iGWb+m8DxHPY/NOqD1a+zR0I4P74yDpsQBcMY0SntDw8mhnCN
SEjD3hROOIqo/FLx+iJxq+SPSs13JCMPQ8PNlUwBiowTh389IcjwbjR+bQlrEnoO
AJnwCP93gg/JY10FXUBA6t0wtQ6lMVpPzEJjGlCN3Kv+0E+pnJC7wTNibiXP+OjI
hOBNTxmIDYLbBab53rG7FRlTli5NVztp4/PD5X3pZsNmRJ6Da/Sw0rMIjj37Nw0O
6sAn1YLYjlthUiLh+MCr5ov63GA1RhSiZTKq+jDsrX/JG0yTCdzl3LhhftBDnSRo
0dXSAyuKa6GH6pko3TW7yYdVqTGe2BaM7Khq8lOd1pQFFUAhyqEcjzh88LJXFH8q
ObynlafjlaOrths6Df5mqwDDQcg=
-----END CERTIFICATE-----
