Certificate:
    Data:
        Version: 3 (0x2)
        Serial Number:
            0c:a5:c9:78:42:ce:ff:ec:7e:2f:35:32
        Signature Algorithm: sha256WithRSAEncryption
        Issuer: C = BE, O = GlobalSign nv-sa, CN = GlobalSign CloudSSL CA - SHA256 - G3
        Validity
            Not Before: May 12 20:01:07 2019 GMT
            Not After : Mar 30 16:01:14 2020 GMT
        Subject: C = NL, ST = Zuid Holland, L = Voorschoten, O = Secureonline, CN = secure.pasavhosting.nl
        Subject Public Key Info:
            Public Key Algorithm: rsaEncryption
                RSA Public-Key: (2048 bit)
                Modulus:
                    00:b2:12:0c:f9:c7:31:c2:fa:6e:13:31:27:ea:c8:
                    01:f2:d7:df:02:90:d2:ff:d9:43:f5:a4:58:35:34:
                    22:7f:ad:2c:0e:9a:34:d9:cf:1b:d7:b0:83:c6:7a:
                    5f:da:6d:ce:d6:9a:fe:06:57:b6:6f:67:08:c0:4f:
                    8d:e2:94:71:1e:a6:dd:90:20:13:e8:c8:8c:25:9d:
                    c0:5c:fa:64:bf:67:5f:02:b0:cd:ca:79:86:cb:a2:
                    a8:3f:b6:5a:09:91:83:ce:81:ce:61:32:18:b6:41:
                    1c:3d:8a:e4:58:dd:e3:05:91:1d:85:f0:18:13:13:
                    93:77:4c:73:a5:49:1c:83:74:68:e8:fa:b9:1a:95:
                    7b:50:04:26:93:57:11:4d:72:64:dc:69:a3:59:1d:
                    92:8e:63:0c:78:42:6f:4e:49:af:f8:b9:5d:79:d0:
                    3c:e6:56:9b:4d:ea:c9:6a:60:a8:8b:94:95:a7:37:
                    d7:d1:17:d3:33:58:29:91:4e:1b:91:6c:72:19:67:
                    57:8a:16:e0:79:22:ab:06:38:c2:5e:9d:1e:22:c8:
                    36:16:aa:db:4b:5c:fb:1a:27:c7:24:58:6a:92:9b:
                    43:76:3b:c7:d2:d1:f6:d4:eb:0e:bc:24:2b:9f:d9:
                    13:a0:62:71:36:4f:b9:a0:5e:6b:2c:e5:90:83:8d:
                    2a:0b
                Exponent: 65537 (0x10001)
        X509v3 extensions:
            X509v3 Key Usage: critical
                Digital Signature, Key Encipherment
            Authority Information Access: 
                CA Issuers - URI:http://secure.globalsign.com/cacert/cloudsslsha2g3.crt
                OCSP - URI:http://ocsp2.globalsign.com/cloudsslsha2g3

            X509v3 Certificate Policies: 
                Policy: 1.3.6.1.4.1.4146.1.20
                  CPS: https://www.globalsign.com/repository/
                Policy: 2.23.140.1.2.2

            X509v3 Basic Constraints: 
                CA:FALSE
            X509v3 Subject Alternative Name: 
                DNS:secure.pasavhosting.nl
            X509v3 Extended Key Usage: 
                TLS Web Server Authentication, TLS Web Client Authentication
            X509v3 Authority Key Identifier: 
                keyid:A9:2B:87:E1:CE:24:47:3B:1B:BF:CF:85:37:02:55:9D:0D:94:58:E6

            X509v3 Subject Key Identifier: 
                14:C0:91:F1:B8:EA:66:17:FC:36:CA:B2:4F:14:D9:A3:85:1B:46:CB
            CT Precertificate Poison: critical
                NULL
    Signature Algorithm: sha256WithRSAEncryption
         1f:4c:2f:cc:b1:7d:7d:e4:67:01:26:e8:82:13:40:59:16:33:
         18:a0:41:7c:63:c7:56:c8:24:b0:c0:0b:c4:73:3e:c8:55:aa:
         2d:ef:d2:94:95:b6:dc:85:8b:3b:ab:f1:55:32:ef:6f:07:01:
         c0:bc:7a:85:44:1d:33:07:e0:c0:38:58:53:46:f9:24:f8:12:
         b3:97:55:6a:74:5a:79:da:1c:4c:de:23:c7:be:5f:01:0c:9f:
         ae:cf:de:e9:c7:19:0a:d2:ac:e7:64:1a:7d:94:ab:f2:f1:5b:
         74:f7:7b:80:7d:2a:bc:d4:e9:71:35:f6:36:53:e9:a9:9e:d4:
         f2:f5:2a:62:b8:42:c2:25:dd:fe:02:d4:11:fd:d9:cd:d1:1c:
         cf:a1:2a:0c:80:e0:e4:31:22:60:41:73:19:77:5c:e7:68:98:
         93:52:6b:90:55:3b:c6:b2:fd:9c:92:d8:cf:3f:c1:13:5f:e2:
         22:1c:d9:bf:17:0d:97:24:7b:5b:93:66:df:5c:bf:fc:8b:4b:
         e5:21:05:d7:42:ee:77:b8:d4:d9:29:2f:d8:ec:f4:14:20:53:
         e8:8f:ef:29:7d:53:0a:67:42:85:3e:8d:b2:35:63:87:17:e1:
         e6:31:5d:e8:cd:b8:81:52:a8:97:67:32:92:ed:aa:ee:23:01:
         23:5d:51:91
-----BEGIN CERTIFICATE-----
MIIE6jCCA9KgAwIBAgIMDKXJeELO/+x+LzUyMA0GCSqGSIb3DQEBCwUAMFcxCzAJ
BgNVBAYTAkJFMRkwFwYDVQQKExBHbG9iYWxTaWduIG52LXNhMS0wKwYDVQQDEyRH
bG9iYWxTaWduIENsb3VkU1NMIENBIC0gU0hBMjU2IC0gRzMwHhcNMTkwNTEyMjAw
MTA3WhcNMjAwMzMwMTYwMTE0WjByMQswCQYDVQQGEwJOTDEVMBMGA1UECBMMWnVp
ZCBIb2xsYW5kMRQwEgYDVQQHEwtWb29yc2Nob3RlbjEVMBMGA1UEChMMU2VjdXJl
b25saW5lMR8wHQYDVQQDExZzZWN1cmUucGFzYXZob3N0aW5nLm5sMIIBIDALBgkq
hkiG9w0BAQEDggEPADCCAQoCggEBALISDPnHMcL6bhMxJ+rIAfLX3wKQ0v/ZQ/Wk
WDU0In+tLA6aNNnPG9ewg8Z6X9ptztaa/gZXtm9nCMBPjeKUcR6m3ZAgE+jIjCWd
wFz6ZL9nXwKwzcp5hsuiqD+2WgmRg86BzmEyGLZBHD2K5Fjd4wWRHYXwGBMTk3dM
c6VJHIN0aOj6uRqVe1AEJpNXEU1yZNxpo1kdko5jDHhCb05Jr/i5XXnQPOZWm03q
yWpgqIuUlac319EX0zNYKZFOG5FschlnV4oW4HkiqwY4wl6dHiLINhaq20tc+xon
xyRYapKbQ3Y7x9LR9tTrDrwkK5/ZE6BicTZPuaBeayzlkIONKgsCAwEAAaOCAZsw
ggGXMA4GA1UdDwEB/wQEAwIFoDCBigYIKwYBBQUHAQEEfjB8MEIGCCsGAQUFBzAC
hjZodHRwOi8vc2VjdXJlLmdsb2JhbHNpZ24uY29tL2NhY2VydC9jbG91ZHNzbHNo
YTJnMy5jcnQwNgYIKwYBBQUHMAGGKmh0dHA6Ly9vY3NwMi5nbG9iYWxzaWduLmNv
bS9jbG91ZHNzbHNoYTJnMzBWBgNVHSAETzBNMEEGCSsGAQQBoDIBFDA0MDIGCCsG
AQUFBwIBFiZodHRwczovL3d3dy5nbG9iYWxzaWduLmNvbS9yZXBvc2l0b3J5LzAI
BgZngQwBAgIwCQYDVR0TBAIwADAhBgNVHREEGjAYghZzZWN1cmUucGFzYXZob3N0
aW5nLm5sMB0GA1UdJQQWMBQGCCsGAQUFBwMBBggrBgEFBQcDAjAfBgNVHSMEGDAW
gBSpK4fhziRHOxu/z4U3AlWdDZRY5jAdBgNVHQ4EFgQUFMCR8bjqZhf8NsqyTxTZ
o4UbRsswEwYKKwYBBAHWeQIEAwEB/wQCBQAwDQYJKoZIhvcNAQELBQADggEBAB9M
L8yxfX3kZwEm6IITQFkWMxigQXxjx1bIJLDAC8RzPshVqi3v0pSVttyFizur8VUy
728HAcC8eoVEHTMH4MA4WFNG+ST4ErOXVWp0WnnaHEzeI8e+XwEMn67P3unHGQrS
rOdkGn2Uq/LxW3T3e4B9KrzU6XE19jZT6ame1PL1KmK4QsIl3f4C1BH92c3RHM+h
KgyA4OQxImBBcxl3XOdomJNSa5BVO8ay/ZyS2M8/wRNf4iIc2b8XDZcke1uTZt9c
v/yLS+UhBddC7ne41NkpL9js9BQgU+iP7yl9UwpnQoU+jbI1Y4cX4eYxXejNuIFS
qJdnMpLtqu4jASNdUZE=
-----END CERTIFICATE-----
