Certificate:
    Data:
        Version: 3 (0x2)
        Serial Number: 9 (0x9)
        Signature Algorithm: ecdsa-with-SHA256
        Issuer: 
        Validity
            Not Before: Jul  1 00:00:00 2012 GMT
            Not After : Nov 30 00:00:00 9998 GMT
        Subject: ST = California}Test
        Subject Public Key Info:
            Public Key Algorithm: id-ecPublicKey
                Public-Key: (256 bit)
                pub:
                    04:bf:54:cc:28:3a:60:05:bd:64:f5:5c:0c:c2:cc:
                    42:8b:90:5b:fc:e4:6a:c1:c4:96:bd:01:4b:89:b7:
                    8e:f4:87:3f:77:a5:60:61:cc:44:fc:17:80:2f:b0:
                    3d:f6:76:44:45:f9:0e:db:96:59:bf:d9:1b:da:19:
                    c2:8f:cc:0b:59
                ASN1 OID: prime256v1
                NIST CURVE: P-256
    Signature Algorithm: ecdsa-with-SHA256
    Signature Value:
        30:44:02:20:02:ee:80:d8:4e:f8:00:ee:38:6e:11:a5:cc:c3:
        12:32:b3:4a:e8:a3:e7:e9:c5:75:50:21:1e:22:b7:6a:9f:d5:
        02:20:3c:44:7b:cb:96:ad:d3:61:b2:db:cf:d7:f7:fb:1a:ee:
        4f:b6:56:23:f2:ef:9e:84:eb:36:11:64:dc:64:95:1c
-----BEGIN CERTIFICATE-----
MIIBCzCBs6ADAgECAgEJMAoGCCqGSM49BAMCMAAwIBcNMTIwNzAxMDAwMDAwWhgP
OTk5ODExMzAwMDAwMDBaMBoxGDAWBgNVBAgMD0NhbGlmb3JuaWF9VGVzdDBZMBMG
ByqGSM49AgEGCCqGSM49AwEHA0IABL9UzCg6YAW9ZPVcDMLMQouQW/zkasHElr0B
S4m3jvSHP3elYGHMRPwXgC+wPfZ2REX5DtuWWb/ZG9oZwo/MC1mjAjAAMAoGCCqG
SM49BAMCA0cAMEQCIALugNhO+ADuOG4RpczDEjKzSuij5+nFdVAhHiK3ap/VAiA8
RHvLlq3TYbLbz9f3+xruT7ZWI/LvnoTrNhFk3GSVHA==
-----END CERTIFICATE-----
