Certificate:
    Data:
        Version: 3 (0x2)
        Serial Number: 11 (0xb)
        Signature Algorithm: ecdsa-with-SHA256
        Issuer: 
        Validity
            Not Before: Jul  1 00:00:00 2012 GMT
            Not After : Nov 30 00:00:00 9998 GMT
        Subject: ST = "California;Test"
        Subject Public Key Info:
            Public Key Algorithm: id-ecPublicKey
                Public-Key: (256 bit)
                pub:
                    04:2a:be:58:0a:da:27:fa:88:70:0a:36:16:37:cd:
                    ea:ec:79:4d:33:0f:88:2d:52:85:38:5e:c7:3c:a0:
                    f7:db:53:4e:0c:3b:1e:b6:48:80:b2:2f:b7:0c:d9:
                    66:3e:b2:bf:de:1f:f3:be:40:c2:1f:df:a3:68:a0:
                    a8:ad:0c:28:03
                ASN1 OID: prime256v1
                NIST CURVE: P-256
    Signature Algorithm: ecdsa-with-SHA256
    Signature Value:
        30:44:02:20:3d:25:d5:06:1c:c9:1a:ad:b4:b6:66:c3:3b:dd:
        54:91:af:27:e1:38:28:26:17:17:1f:88:39:5d:0b:5f:b9:44:
        02:20:39:09:63:17:fc:ae:2f:f6:a1:5d:ba:6e:5c:6e:03:5f:
        84:86:1c:c6:63:33:91:ba:54:e4:e2:7b:f7:7a:f1:a1
-----BEGIN CERTIFICATE-----
MIIBCzCBs6ADAgECAgELMAoGCCqGSM49BAMCMAAwIBcNMTIwNzAxMDAwMDAwWhgP
OTk5ODExMzAwMDAwMDBaMBoxGDAWBgNVBAgMD0NhbGlmb3JuaWE7VGVzdDBZMBMG
ByqGSM49AgEGCCqGSM49AwEHA0IABCq+WAraJ/qIcAo2FjfN6ux5TTMPiC1ShThe
xzyg99tTTgw7HrZIgLIvtwzZZj6yv94f875Awh/fo2igqK0MKAOjAjAAMAoGCCqG
SM49BAMCA0cAMEQCID0l1QYcyRqttLZmwzvdVJGvJ+E4KCYXFx+IOV0LX7lEAiA5
CWMX/K4v9qFdum5cbgNfhIYcxmMzkbpU5OJ793rxoQ==
-----END CERTIFICATE-----
