Certificate:
    Data:
        Version: 3 (0x2)
        Serial Number: 2 (0x2)
        Signature Algorithm: ecdsa-with-SHA256
        Issuer: 
        Validity
            Not Before: Jul  1 00:00:00 2012 GMT
            Not After : Nov 30 00:00:00 9998 GMT
        Subject: ST = California
        Subject Public Key Info:
            Public Key Algorithm: id-ecPublicKey
                Public-Key: (256 bit)
                pub:
                    04:12:b5:a6:67:3d:f1:1a:70:e2:2d:35:63:f3:b3:
                    12:36:9a:db:c0:39:22:33:4b:b7:93:cf:03:aa:c7:
                    a2:99:29:af:bd:bc:32:88:e4:2f:e8:d1:9e:ef:03:
                    87:27:a8:be:63:c0:af:ca:a3:e1:60:6a:5d:aa:8e:
                    00:2b:7c:a8:26
                ASN1 OID: prime256v1
                NIST CURVE: P-256
    Signature Algorithm: ecdsa-with-SHA256
    Signature Value:
        30:46:02:21:00:f9:f6:be:78:0b:bf:56:52:3b:bd:f3:7a:66:
        0a:4e:f0:4d:77:f0:fa:19:18:cc:d4:b9:89:8d:cc:b6:be:eb:
        94:02:21:00:f1:70:0e:db:13:35:4b:e1:75:39:09:0e:e7:c4:
        da:3e:6a:7f:0a:99:3d:8a:ae:bb:a3:17:a5:56:44:25:3a:41
-----BEGIN CERTIFICATE-----
MIIBCDCBrqADAgECAgECMAoGCCqGSM49BAMCMAAwIBcNMTIwNzAxMDAwMDAwWhgP
OTk5ODExMzAwMDAwMDBaMBUxEzARBgNVBAgTCkNhbGlmb3JuaWEwWTATBgcqhkjO
PQIBBggqhkjOPQMBBwNCAAQStaZnPfEacOItNWPzsxI2mtvAOSIzS7eTzwOqx6KZ
Ka+9vDKI5C/o0Z7vA4cnqL5jwK/Ko+Fgal2qjgArfKgmowIwADAKBggqhkjOPQQD
AgNJADBGAiEA+fa+eAu/VlI7vfN6ZgpO8E138PoZGMzUuYmNzLa+65QCIQDxcA7b
EzVL4XU5CQ7nxNo+an8KmT2KrrujF6VWRCU6QQ==
-----END CERTIFICATE-----
