Certificate:
    Data:
        Version: 3 (0x2)
        Serial Number: 5 (0x5)
        Signature Algorithm: ecdsa-with-SHA256
        Issuer: 
        Validity
            Not Before: Jul  1 00:00:00 2012 GMT
            Not After : Nov 30 00:00:00 9998 GMT
        Subject: ST = California\"Test
        Subject Public Key Info:
            Public Key Algorithm: id-ecPublicKey
                Public-Key: (256 bit)
                pub:
                    04:43:4e:f1:09:8c:62:98:8f:7e:46:3c:50:74:1b:
                    7a:85:30:51:46:6c:82:09:b0:f4:ce:ac:a8:8f:5a:
                    46:16:44:6e:c3:cf:b5:75:cd:7e:cb:58:2b:40:a9:
                    6f:c5:22:90:19:3b:90:8e:b0:2e:a3:46:e5:0a:ce:
                    38:13:e7:44:e6
                ASN1 OID: prime256v1
                NIST CURVE: P-256
    Signature Algorithm: ecdsa-with-SHA256
    Signature Value:
        30:46:02:21:00:95:96:81:74:d1:23:52:b8:2f:57:28:fe:fb:
        6d:a5:59:2f:31:76:df:03:7e:10:76:92:13:bc:5e:5b:ab:d8:
        3f:02:21:00:e2:10:d9:dd:1f:8c:18:27:7a:44:fe:8d:22:a1:
        9c:33:0e:76:22:a6:70:c0:cd:51:11:44:92:a9:c4:7b:77:cf
-----BEGIN CERTIFICATE-----
MIIBDTCBs6ADAgECAgEFMAoGCCqGSM49BAMCMAAwIBcNMTIwNzAxMDAwMDAwWhgP
OTk5ODExMzAwMDAwMDBaMBoxGDAWBgNVBAgMD0NhbGlmb3JuaWEiVGVzdDBZMBMG
ByqGSM49AgEGCCqGSM49AwEHA0IABENO8QmMYpiPfkY8UHQbeoUwUUZsggmw9M6s
qI9aRhZEbsPPtXXNfstYK0Cpb8UikBk7kI6wLqNG5QrOOBPnROajAjAAMAoGCCqG
SM49BAMCA0kAMEYCIQCVloF00SNSuC9XKP77baVZLzF23wN+EHaSE7xeW6vYPwIh
AOIQ2d0fjBgnekT+jSKhnDMOdiKmcMDNURFEkqnEe3fP
-----END CERTIFICATE-----
