Certificate:
    Data:
        Version: 3 (0x2)
        Serial Number: 12 (0xc)
        Signature Algorithm: ecdsa-with-SHA256
        Issuer: 
        Validity
            Not Before: Jul  1 00:00:00 2012 GMT
            Not After : Nov 30 00:00:00 9998 GMT
        Subject: ST = California\\Test
        Subject Public Key Info:
            Public Key Algorithm: id-ecPublicKey
                Public-Key: (256 bit)
                pub:
                    04:30:7f:e4:d9:e8:c1:6d:a2:60:d2:56:f1:da:24:
                    b2:7e:56:e3:5d:f5:bf:51:88:83:35:45:4a:d9:2b:
                    4c:da:5b:b9:fa:b2:be:44:84:ab:ee:90:08:bd:4b:
                    c5:50:ef:0a:07:4b:66:ce:8f:e6:b1:73:a0:63:a8:
                    a5:cd:ca:2f:c9
                ASN1 OID: prime256v1
                NIST CURVE: P-256
    Signature Algorithm: ecdsa-with-SHA256
    Signature Value:
        30:44:02:20:7c:b1:f8:01:3e:b4:fa:21:c8:60:b0:ac:c4:40:
        be:8d:22:d7:ab:c9:79:20:32:8f:93:1b:38:27:58:81:3c:bd:
        02:20:7c:ec:02:5e:70:14:43:85:20:99:0b:fe:d4:ec:6c:84:
        56:a6:e9:9a:8d:1e:40:c7:82:d3:4b:c6:76:ce:e7:91
-----BEGIN CERTIFICATE-----
MIIBCzCBs6ADAgECAgEMMAoGCCqGSM49BAMCMAAwIBcNMTIwNzAxMDAwMDAwWhgP
OTk5ODExMzAwMDAwMDBaMBoxGDAWBgNVBAgMD0NhbGlmb3JuaWFcVGVzdDBZMBMG
ByqGSM49AgEGCCqGSM49AwEHA0IABDB/5NnowW2iYNJW8doksn5W4131v1GIgzVF
StkrTNpbufqyvkSEq+6QCL1LxVDvCgdLZs6P5rFzoGOopc3KL8mjAjAAMAoGCCqG
SM49BAMCA0cAMEQCIHyx+AE+tPohyGCwrMRAvo0i16vJeSAyj5MbOCdYgTy9AiB8
7AJecBRDhSCZC/7U7GyEVqbpmo0eQMeC00vGds7nkQ==
-----END CERTIFICATE-----
