Certificate:
    Data:
        Version: 3 (0x2)
        Serial Number: 7 (0x7)
        Signature Algorithm: ecdsa-with-SHA256
        Issuer: 
        Validity
            Not Before: Jul  1 00:00:00 2012 GMT
            Not After : Nov 30 00:00:00 9998 GMT
        Subject: ST = California=Test
        Subject Public Key Info:
            Public Key Algorithm: id-ecPublicKey
                Public-Key: (256 bit)
                pub:
                    04:eb:0f:88:c8:37:bc:22:c2:da:ea:eb:45:a9:15:
                    0f:81:64:90:c8:1f:85:51:6d:38:b9:12:69:06:b9:
                    78:43:ae:7a:18:19:1f:02:f9:ec:1d:0d:20:53:82:
                    4d:c7:d5:70:5f:c6:7c:ec:79:52:c1:a0:97:4d:bb:
                    0f:a3:4d:05:8a
                ASN1 OID: prime256v1
                NIST CURVE: P-256
    Signature Algorithm: ecdsa-with-SHA256
    Signature Value:
        30:45:02:20:56:a6:4d:61:9d:b5:80:56:09:87:bb:73:5f:9c:
        10:40:80:6d:db:96:b8:a5:ba:ea:ec:84:98:cf:d6:ce:38:97:
        02:21:00:81:09:a4:00:a2:bb:5b:9a:d7:b0:88:c5:7b:40:e5:
        0d:bb:60:5b:09:0f:79:e2:9c:08:72:f5:c7:40:95:31:33
-----BEGIN CERTIFICATE-----
MIIBDDCBs6ADAgECAgEHMAoGCCqGSM49BAMCMAAwIBcNMTIwNzAxMDAwMDAwWhgP
OTk5ODExMzAwMDAwMDBaMBoxGDAWBgNVBAgTD0NhbGlmb3JuaWE9VGVzdDBZMBMG
ByqGSM49AgEGCCqGSM49AwEHA0IABOsPiMg3vCLC2urrRakVD4FkkMgfhVFtOLkS
aQa5eEOuehgZHwL57B0NIFOCTcfVcF/GfOx5UsGgl027D6NNBYqjAjAAMAoGCCqG
SM49BAMCA0gAMEUCIFamTWGdtYBWCYe7c1+cEECAbduWuKW66uyEmM/WzjiXAiEA
gQmkAKK7W5rXsIjFe0DlDbtgWwkPeeKcCHL1x0CVMTM=
-----END CERTIFICATE-----
