Certificate:
    Data:
        Version: 3 (0x2)
        Serial Number: 8 (0x8)
        Signature Algorithm: ecdsa-with-SHA256
        Issuer: 
        Validity
            Not Before: Jul  1 00:00:00 2012 GMT
            Not After : Nov 30 00:00:00 9998 GMT
        Subject: ST = California{Test
        Subject Public Key Info:
            Public Key Algorithm: id-ecPublicKey
                Public-Key: (256 bit)
                pub:
                    04:8b:d5:59:77:7d:2f:33:77:c8:59:9a:39:38:9e:
                    e9:f6:ce:bd:00:65:79:8a:5e:37:8f:b8:e6:e9:7b:
                    07:c3:95:e5:59:b5:5f:59:f7:cd:7d:2a:f9:54:70:
                    8b:0b:14:ed:55:09:83:69:55:0c:61:f3:76:7e:f0:
                    14:66:32:9c:6c
                ASN1 OID: prime256v1
                NIST CURVE: P-256
    Signature Algorithm: ecdsa-with-SHA256
    Signature Value:
        30:45:02:21:00:c3:96:10:90:96:bd:74:bf:06:b2:82:63:68:
        a8:57:ee:a5:df:84:30:55:c5:b3:9d:ec:0c:c1:f4:62:ee:39:
        b2:02:20:57:49:62:6f:0f:a2:da:e7:ac:52:ef:14:21:d4:96:
        9c:cd:38:c9:05:5c:57:e1:ab:b5:a0:c2:ef:92:ad:66:41
-----BEGIN CERTIFICATE-----
MIIBDDCBs6ADAgECAgEIMAoGCCqGSM49BAMCMAAwIBcNMTIwNzAxMDAwMDAwWhgP
OTk5ODExMzAwMDAwMDBaMBoxGDAWBgNVBAgMD0NhbGlmb3JuaWF7VGVzdDBZMBMG
ByqGSM49AgEGCCqGSM49AwEHA0IABIvVWXd9LzN3yFmaOTie6fbOvQBleYpeN4+4
5ul7B8OV5Vm1X1n3zX0q+VRwiwsU7VUJg2lVDGHzdn7wFGYynGyjAjAAMAoGCCqG
SM49BAMCA0gAMEUCIQDDlhCQlr10vwaygmNoqFfupd+EMFXFs53sDMH0Yu45sgIg
V0libw+i2uesUu8UIdSWnM04yQVcV+GrtaDC75KtZkE=
-----END CERTIFICATE-----
