Certificate:
    Data:
        Version: 3 (0x2)
        Serial Number: 10 (0xa)
        Signature Algorithm: ecdsa-with-SHA256
        Issuer: 
        Validity
            Not Before: Jul  1 00:00:00 2012 GMT
            Not After : Nov 30 00:00:00 9998 GMT
        Subject: ST = California[Test
        Subject Public Key Info:
            Public Key Algorithm: id-ecPublicKey
                Public-Key: (256 bit)
                pub:
                    04:c3:3f:1f:1f:49:47:41:fd:c6:ce:49:f5:2b:00:
                    9d:aa:8f:e1:a5:db:36:e9:99:24:9b:43:cc:38:f5:
                    e0:4b:c7:91:f5:38:1f:f3:31:e2:4a:9c:e3:b3:6f:
                    3a:84:bf:96:cc:3c:e0:31:22:f1:93:9c:fd:c0:e7:
                    2c:0a:83:f3:59
                ASN1 OID: prime256v1
                NIST CURVE: P-256
    Signature Algorithm: ecdsa-with-SHA256
    Signature Value:
        30:45:02:21:00:d1:bf:0a:86:93:87:c3:93:1d:33:87:77:2d:
        05:cd:84:88:fe:70:52:0e:a4:06:aa:1d:32:04:14:94:41:fe:
        a9:02:20:7d:7e:8f:d8:1a:01:8e:12:27:c0:d3:8e:c1:69:8e:
        f7:56:34:e8:1a:44:61:03:20:71:16:34:6d:44:c4:5d:48
-----BEGIN CERTIFICATE-----
MIIBDDCBs6ADAgECAgEKMAoGCCqGSM49BAMCMAAwIBcNMTIwNzAxMDAwMDAwWhgP
OTk5ODExMzAwMDAwMDBaMBoxGDAWBgNVBAgMD0NhbGlmb3JuaWFbVGVzdDBZMBMG
ByqGSM49AgEGCCqGSM49AwEHA0IABMM/Hx9JR0H9xs5J9SsAnaqP4aXbNumZJJtD
zDj14EvHkfU4H/Mx4kqc47NvOoS/lsw84DEi8ZOc/cDnLAqD81mjAjAAMAoGCCqG
SM49BAMCA0gAMEUCIQDRvwqGk4fDkx0zh3ctBc2EiP5wUg6kBqodMgQUlEH+qQIg
fX6P2BoBjhInwNOOwWmO91Y06BpEYQMgcRY0bUTEXUg=
-----END CERTIFICATE-----
