Certificate:
    Data:
        Version: 3 (0x2)
        Serial Number: 4 (0x4)
        Signature Algorithm: ecdsa-with-SHA256
        Issuer: 
        Validity
            Not Before: Jul  1 00:00:00 2012 GMT
            Not After : Nov 30 00:00:00 9998 GMT
        Subject: ST = California]Test
        Subject Public Key Info:
            Public Key Algorithm: id-ecPublicKey
                Public-Key: (256 bit)
                pub:
                    04:6e:f4:73:19:9c:cd:96:58:35:f8:db:62:3f:70:
                    0e:01:a1:e0:eb:6c:11:55:af:36:08:51:17:50:5e:
                    9e:36:25:fc:a3:8d:2b:a6:f0:af:29:0f:5f:42:3b:
                    07:c5:5b:26:a2:77:0e:a4:d8:0b:18:34:14:7d:cd:
                    92:84:dc:2f:2c
                ASN1 OID: prime256v1
                NIST CURVE: P-256
    Signature Algorithm: ecdsa-with-SHA256
    Signature Value:
        30:46:02:21:00:f8:79:53:2a:ec:51:ec:92:20:53:32:43:b7:
        e6:99:1c:b6:b2:6e:61:8d:aa:6d:e7:05:7e:fe:8d:3b:77:26:
        90:02:21:00:ef:6c:83:80:a3:3f:c7:e5:e6:e1:a4:95:b4:5a:
        c9:22:e1:35:3b:9c:bd:88:ac:c1:c2:92:56:92:6d:13:fd:1b
-----BEGIN CERTIFICATE-----
MIIBDTCBs6ADAgECAgEEMAoGCCqGSM49BAMCMAAwIBcNMTIwNzAxMDAwMDAwWhgP
OTk5ODExMzAwMDAwMDBaMBoxGDAWBgNVBAgMD0NhbGlmb3JuaWFdVGVzdDBZMBMG
ByqGSM49AgEGCCqGSM49AwEHA0IABG70cxmczZZYNfjbYj9wDgGh4OtsEVWvNghR
F1BenjYl/KONK6bwrykPX0I7B8VbJqJ3DqTYCxg0FH3NkoTcLyyjAjAAMAoGCCqG
SM49BAMCA0kAMEYCIQD4eVMq7FHskiBTMkO35pkctrJuYY2qbecFfv6NO3cmkAIh
AO9sg4CjP8fl5uGklbRaySLhNTucvYiswcKSVpJtE/0b
-----END CERTIFICATE-----
