Certificate:
    Data:
        Version: 3 (0x2)
        Serial Number: 6 (0x6)
        Signature Algorithm: ecdsa-with-SHA256
        Issuer: 
        Validity
            Not Before: Jul  1 00:00:00 2012 GMT
            Not After : Nov 30 00:00:00 9998 GMT
        Subject: ST = California|Test
        Subject Public Key Info:
            Public Key Algorithm: id-ecPublicKey
                Public-Key: (256 bit)
                pub:
                    04:80:b7:50:b6:c6:70:0a:4c:dc:ad:7e:07:38:ad:
                    5f:88:ca:99:84:a9:aa:de:22:7a:54:ba:a5:72:69:
                    a4:01:cc:d6:02:51:1b:3d:7b:3e:1e:8d:c5:80:a4:
                    ca:49:7a:92:3e:d1:ac:0e:2e:81:30:4d:0f:35:73:
                    b9:12:f9:ca:79
                ASN1 OID: prime256v1
                NIST CURVE: P-256
    Signature Algorithm: ecdsa-with-SHA256
    Signature Value:
        30:45:02:20:64:3b:08:b5:c6:a6:47:29:ec:1f:be:94:00:fb:
        64:3d:f2:5a:f5:84:6f:ed:81:dd:43:89:f7:21:69:21:40:bc:
        02:21:00:f2:ba:e6:39:22:46:0c:61:e1:87:31:51:a2:a7:38:
        73:11:26:b7:bd:b6:11:21:f7:2e:33:d2:45:c9:f2:38:ea
-----BEGIN CERTIFICATE-----
MIIBDDCBs6ADAgECAgEGMAoGCCqGSM49BAMCMAAwIBcNMTIwNzAxMDAwMDAwWhgP
OTk5ODExMzAwMDAwMDBaMBoxGDAWBgNVBAgMD0NhbGlmb3JuaWF8VGVzdDBZMBMG
ByqGSM49AgEGCCqGSM49AwEHA0IABIC3ULbGcApM3K1+BzitX4jKmYSpqt4ielS6
pXJppAHM1gJRGz17Ph6NxYCkykl6kj7RrA4ugTBNDzVzuRL5ynmjAjAAMAoGCCqG
SM49BAMCA0gAMEUCIGQ7CLXGpkcp7B++lAD7ZD3yWvWEb+2B3UOJ9yFpIUC8AiEA
8rrmOSJGDGHhhzFRoqc4cxEmt722ESH3LjPSRcnyOOo=
-----END CERTIFICATE-----
