Certificate:
    Data:
        Version: 3 (0x2)
        Serial Number: 3 (0x3)
        Signature Algorithm: ecdsa-with-SHA256
        Issuer: 
        Validity
            Not Before: Jul  1 00:00:00 2012 GMT
            Not After : Nov 30 00:00:00 9998 GMT
        Subject: ST = California:Test
        Subject Public Key Info:
            Public Key Algorithm: id-ecPublicKey
                Public-Key: (256 bit)
                pub:
                    04:48:8b:77:a6:8d:54:6f:20:c9:2d:f3:d8:e4:ef:
                    16:dd:e5:11:db:da:05:f9:fa:5b:05:1a:bd:e6:d0:
                    66:9b:8a:e3:4a:c7:eb:b3:94:95:0e:a7:1c:80:2c:
                    5d:60:fd:cc:2a:2e:96:1a:97:b8:c5:05:7c:ba:cc:
                    a1:83:ae:59:1e
                ASN1 OID: prime256v1
                NIST CURVE: P-256
    Signature Algorithm: ecdsa-with-SHA256
    Signature Value:
        30:45:02:20:0e:e6:d3:68:a7:26:28:ce:0c:95:99:67:15:f8:
        61:a9:d6:9b:d5:e0:4e:73:4f:54:0b:d1:69:85:7f:d5:2f:81:
        02:21:00:fd:d3:0e:9f:85:ae:2f:66:35:f7:14:3c:61:04:5e:
        a3:3f:2d:b6:e1:e1:53:0a:08:8c:b5:b3:42:56:4b:c8:b6
-----BEGIN CERTIFICATE-----
MIIBDDCBs6ADAgECAgEDMAoGCCqGSM49BAMCMAAwIBcNMTIwNzAxMDAwMDAwWhgP
OTk5ODExMzAwMDAwMDBaMBoxGDAWBgNVBAgTD0NhbGlmb3JuaWE6VGVzdDBZMBMG
ByqGSM49AgEGCCqGSM49AwEHA0IABEiLd6aNVG8gyS3z2OTvFt3lEdvaBfn6WwUa
vebQZpuK40rH67OUlQ6nHIAsXWD9zCoulhqXuMUFfLrMoYOuWR6jAjAAMAoGCCqG
SM49BAMCA0gAMEUCIA7m02inJijODJWZZxX4YanWm9XgTnNPVAvRaYV/1S+BAiEA
/dMOn4WuL2Y19xQ8YQReoz8ttuHhUwoIjLWzQlZLyLY=
-----END CERTIFICATE-----
