Certificate:
    Data:
        Version: 3 (0x2)
        Serial Number:
            e4:0c:d4:9c:53:8c:6e:56:cc:d3:a7:8c:72:da:b9:1e
        Signature Algorithm: sha256WithRSAEncryption
        Issuer: C = XX, O = Some CA, CN = Fake Root CA for zlint testing
        Validity
            Not Before: Jun  9 06:48:00 2025 GMT
            Not After : Jun  8 06:48:00 2030 GMT
        Subject: C = XX, ST = Some State, L = Some Locality, O = Some CA, CN = Fake CA for zlint testing
        Subject Public Key Info:
            Public Key Algorithm: rsaEncryption
                RSA Public-Key: (4096 bit)
                Modulus:
                    00:c7:51:cb:f7:ac:a2:c8:2c:ac:eb:5a:30:6b:7f:
                    f0:6d:d2:37:fa:15:b6:97:dc:d4:17:08:37:60:91:
                    51:31:25:45:a3:4c:13:3d:a8:bb:a8:2c:1a:17:54:
                    19:9f:ee:3b:51:08:cc:c1:99:e7:98:34:47:62:3b:
                    48:c2:02:43:85:08:b5:d4:86:f6:83:c1:61:57:4d:
                    1b:c0:4c:0a:b6:14:e3:ff:1f:98:f5:db:4f:14:ac:
                    58:03:e5:61:cf:16:47:a5:b4:a7:10:8e:3d:bb:60:
                    2f:77:94:61:db:c1:60:d2:31:63:48:70:87:9f:f2:
                    28:f8:6b:30:3f:a8:c2:03:b2:ad:a9:b8:ca:20:c1:
                    7c:c1:75:2a:36:a0:24:83:1d:20:22:e0:9e:f8:43:
                    34:19:e0:3c:cd:4b:05:80:86:b8:b5:de:65:90:f4:
                    9f:97:7d:3d:ff:63:1d:93:f0:5f:b7:e0:42:e0:bf:
                    f6:db:3d:96:a6:10:93:0f:ae:89:ce:81:04:8a:61:
                    f6:d8:a9:ac:27:e1:4a:7e:8d:af:59:59:ad:54:79:
                    31:f7:92:17:ee:28:ef:51:aa:94:c4:f9:fd:3f:af:
                    ee:4e:4d:01:94:b4:6a:b1:46:d6:73:e8:54:95:77:
                    9c:6a:b8:bc:8a:ff:b6:9d:2b:d9:ba:37:96:b1:f0:
                    e0:4b:f7:5f:6d:82:ee:c0:6d:1e:e2:29:1d:5d:8f:
                    32:72:ba:f9:60:c4:7d:1e:15:1f:fb:65:d1:e1:16:
                    cb:30:f0:f8:1a:23:01:41:d7:fe:d0:8b:eb:1e:a0:
                    3b:15:fa:77:98:68:1b:ea:82:00:d2:69:10:b9:16:
                    77:21:8f:da:3a:a3:ac:d4:77:fb:66:e1:cd:26:35:
                    56:41:19:5c:15:ec:94:34:e1:41:7c:83:b2:d9:49:
                    11:f5:f4:2a:da:1a:98:75:66:95:e6:56:38:dc:f3:
                    a4:8a:66:05:1e:85:66:cb:cd:fa:14:a3:44:59:00:
                    1b:43:fb:a5:37:65:c5:55:16:97:a1:54:84:76:86:
                    9e:45:b3:66:9c:39:09:57:1b:90:de:30:f1:36:14:
                    a7:55:3b:33:14:06:14:a4:fc:44:b9:04:60:33:6b:
                    fa:10:d1:22:03:f9:c7:3f:01:36:64:c7:8a:71:96:
                    a8:3a:00:b9:ea:5b:7d:83:fe:36:64:9e:c7:0b:6d:
                    a1:a9:0d:2e:a0:16:09:7a:0c:77:20:50:78:90:eb:
                    3b:e7:4f:61:fc:f6:34:f7:b5:a3:a0:2a:63:46:c4:
                    b9:bb:7c:7c:bb:ee:61:f2:e3:0f:ef:77:6e:fe:59:
                    2e:fb:56:03:d3:00:47:56:44:21:da:e9:a7:90:2d:
                    cb:6a:99
                Exponent: 65537 (0x10001)
        X509v3 extensions:
            X509v3 Key Usage: critical
                Certificate Sign, CRL Sign
            X509v3 Extended Key Usage: 
                TLS Web Client Authentication, TLS Web Server Authentication
            X509v3 Basic Constraints: critical
                CA:TRUE
            X509v3 Subject Key Identifier: 
                14:68:73:10:00:DB:66:69:46:EB:CA:21:2F:BE:55:05:B3:54:C9:4F
            X509v3 Authority Key Identifier: 
                keyid:E8:B6:F6:76:4B:D0:3B:E5:46:A5:F9:54:D4:7E:07:B3:DE:0D:60:3E

            Authority Information Access: 
                OCSP - URI:http://ca.someca-inc.com/ocsp
                CA Issuers - URI:http://ca.someca-inc.com/root

            X509v3 Certificate Policies: 
                Policy: X509v3 Any Policy

            X509v3 CRL Distribution Points: 

                Full Name:
                  URI:http://ca.someca-inc.com/crl

    Signature Algorithm: sha256WithRSAEncryption
         b7:64:a4:d8:40:6d:0d:e9:50:09:13:44:76:39:44:ef:42:51:
         64:bd:39:77:fe:13:27:7a:c4:2d:fe:05:77:0e:94:f4:cb:77:
         16:ca:a5:0a:6f:78:4a:d4:fc:dc:25:c4:f9:a6:2a:b2:42:04:
         ce:12:91:92:53:c0:d2:bf:50:80:dd:a0:a3:2b:a3:03:b7:8b:
         9c:e5:05:7d:0e:fe:28:25:9b:4c:30:be:21:da:2e:40:b9:a3:
         6e:92:1f:71:35:54:ad:bc:4c:aa:c8:17:ca:89:2a:ad:04:24:
         f6:f6:4a:cb:7c:2c:a5:c1:bc:c1:8d:45:19:4f:f0:00:5d:f0:
         cf:75:9e:b0:2b:fc:7c:84:03:1e:d1:d9:3f:71:e7:d3:9b:ba:
         99:e7:a5:88:8a:60:93:c8:07:b7:71:a9:76:c1:02:44:9b:b5:
         25:c8:4b:13:4c:c7:1a:4b:37:b9:ce:5e:cf:14:a0:33:f4:3f:
         a2:18:af:48:8b:5b:cc:f9:ba:a7:03:2a:cd:78:82:3e:13:44:
         f8:cd:89:8d:e7:62:2c:92:8f:0f:d8:8f:00:d4:c1:ef:cd:c1:
         bf:a2:44:db:61:eb:68:c0:92:9b:29:f6:ca:ee:04:ea:27:24:
         2a:19:3f:0b:e2:ac:ad:11:23:25:30:0c:59:0a:59:20:82:9e:
         47:ee:50:22:06:71:1a:88:70:72:b9:0d:f6:98:c6:62:37:b3:
         d9:2a:5f:2b:b7:5e:73:8a:a5:0e:03:9e:6a:a0:9c:08:1e:40:
         02:26:07:7b:37:af:4e:00:13:01:77:6a:ad:8b:9a:a9:8a:94:
         ec:c6:0f:34:db:ad:ca:8b:69:6e:3a:a7:8b:f4:68:88:99:49:
         b5:e5:08:23:75:05:7b:92:49:f6:e5:57:67:1d:ca:d2:78:88:
         48:a6:21:eb:ae:c7:a8:72:aa:c8:84:8a:5d:ee:0f:77:ff:de:
         9f:25:3c:63:d2:fd:f6:6a:d7:23:d5:64:24:9f:c7:e3:ac:fc:
         c5:69:b2:c7:a7:0b:e8:76:59:af:d6:33:60:86:2c:b1:47:ed:
         3a:89:cb:a0:f7:d7:d4:02:e8:13:d2:20:a4:24:9f:31:04:a9:
         d4:0a:ce:bd:ab:b0:fe:16:b0:70:8d:aa:6f:24:92:fc:cc:47:
         2d:40:db:07:e6:fc:7b:02:96:7a:a7:c1:8a:35:ba:8e:a2:07:
         1a:5a:a4:7d:ec:5d:a1:e8:9f:c8:19:34:bc:7b:15:83:92:a5:
         ac:3b:5c:a0:47:17:20:2a:ec:3d:66:c1:25:20:93:5c:8d:17:
         f8:2a:07:d6:12:72:f2:e1:3a:8c:85:99:47:95:c8:24:ba:e7:
         3b:c2:d2:bb:f8:89:e2:fe
-----BEGIN CERTIFICATE-----
MIIGcTCCBFmgAwIBAgIRAOQM1JxTjG5WzNOnjHLauR4wDQYJKoZIhvcNAQELBQAw
SDELMAkGA1UEBhMCWFgxEDAOBgNVBAoTB1NvbWUgQ0ExJzAlBgNVBAMTHkZha2Ug
Um9vdCBDQSBmb3IgemxpbnQgdGVzdGluZzAeFw0yNTA2MDkwNjQ4MDBaFw0zMDA2
MDgwNjQ4MDBaMHAxCzAJBgNVBAYTAlhYMRMwEQYDVQQIEwpTb21lIFN0YXRlMRYw
FAYDVQQHEw1Tb21lIExvY2FsaXR5MRAwDgYDVQQKEwdTb21lIENBMSIwIAYDVQQD
ExlGYWtlIENBIGZvciB6bGludCB0ZXN0aW5nMIICIjANBgkqhkiG9w0BAQEFAAOC
Ag8AMIICCgKCAgEAx1HL96yiyCys61owa3/wbdI3+hW2l9zUFwg3YJFRMSVFo0wT
Pai7qCwaF1QZn+47UQjMwZnnmDRHYjtIwgJDhQi11Ib2g8FhV00bwEwKthTj/x+Y
9dtPFKxYA+VhzxZHpbSnEI49u2Avd5Rh28Fg0jFjSHCHn/Io+GswP6jCA7KtqbjK
IMF8wXUqNqAkgx0gIuCe+EM0GeA8zUsFgIa4td5lkPSfl309/2Mdk/Bft+BC4L/2
2z2WphCTD66JzoEEimH22KmsJ+FKfo2vWVmtVHkx95IX7ijvUaqUxPn9P6/uTk0B
lLRqsUbWc+hUlXecari8iv+2nSvZujeWsfDgS/dfbYLuwG0e4ikdXY8ycrr5YMR9
HhUf+2XR4RbLMPD4GiMBQdf+0IvrHqA7Ffp3mGgb6oIA0mkQuRZ3IY/aOqOs1Hf7
ZuHNJjVWQRlcFeyUNOFBfIOy2UkR9fQq2hqYdWaV5lY43POkimYFHoVmy836FKNE
WQAbQ/ulN2XFVRaXoVSEdoaeRbNmnDkJVxuQ3jDxNhSnVTszFAYUpPxEuQRgM2v6
ENEiA/nHPwE2ZMeKcZaoOgC56lt9g/42ZJ7HC22hqQ0uoBYJegx3IFB4kOs7509h
/PY097WjoCpjRsS5u3x8u+5h8uMP73du/lku+1YD0wBHVkQh2umnkC3LapkCAwEA
AaOCASwwggEoMA4GA1UdDwEB/wQEAwIBBjAdBgNVHSUEFjAUBggrBgEFBQcDAgYI
KwYBBQUHAwEwDwYDVR0TAQH/BAUwAwEB/zAdBgNVHQ4EFgQUFGhzEADbZmlG68oh
L75VBbNUyU8wHwYDVR0jBBgwFoAU6Lb2dkvQO+VGpflU1H4Hs94NYD4wZAYIKwYB
BQUHAQEEWDBWMCkGCCsGAQUFBzABhh1odHRwOi8vY2Euc29tZWNhLWluYy5jb20v
b2NzcDApBggrBgEFBQcwAoYdaHR0cDovL2NhLnNvbWVjYS1pbmMuY29tL3Jvb3Qw
EQYDVR0gBAowCDAGBgRVHSAAMC0GA1UdHwQmMCQwIqAgoB6GHGh0dHA6Ly9jYS5z
b21lY2EtaW5jLmNvbS9jcmwwDQYJKoZIhvcNAQELBQADggIBALdkpNhAbQ3pUAkT
RHY5RO9CUWS9OXf+Eyd6xC3+BXcOlPTLdxbKpQpveErU/NwlxPmmKrJCBM4SkZJT
wNK/UIDdoKMrowO3i5zlBX0O/iglm0wwviHaLkC5o26SH3E1VK28TKrIF8qJKq0E
JPb2Sst8LKXBvMGNRRlP8ABd8M91nrAr/HyEAx7R2T9x59ObupnnpYiKYJPIB7dx
qXbBAkSbtSXISxNMxxpLN7nOXs8UoDP0P6IYr0iLW8z5uqcDKs14gj4TRPjNiY3n
YiySjw/YjwDUwe/Nwb+iRNth62jAkpsp9sruBOonJCoZPwvirK0RIyUwDFkKWSCC
nkfuUCIGcRqIcHK5DfaYxmI3s9kqXyu3XnOKpQ4DnmqgnAgeQAImB3s3r04AEwF3
aq2LmqmKlOzGDzTbrcqLaW46p4v0aIiZSbXlCCN1BXuSSfblV2cdytJ4iEimIeuu
x6hyqsiEil3uD3f/3p8lPGPS/fZq1yPVZCSfx+Os/MVpssenC+h2Wa/WM2CGLLFH
7TqJy6D319QC6BPSIKQknzEEqdQKzr2rsP4WsHCNqm8kkvzMRy1A2wfm/HsClnqn
wYo1uo6iBxpapH3sXaHon8gZNLx7FYOSpaw7XKBHFyAq7D1mwSUgk1yNF/gqB9YS
cvLhOoyFmUeVyCS65zvC0rv4ieL+
-----END CERTIFICATE-----
