Certificate:
    Data:
        Version: 3 (0x2)
        Serial Number:
            84:9b:6a:45:a1:67:b1:d9:76:ab:64:12:69:81:ac:8c
        Signature Algorithm: sha256WithRSAEncryption
        Issuer: C = XX, O = Some CA, CN = Fake CA for zlint testing
        Validity
            Not Before: Jun  9 06:26:55 2025 GMT
            Not After : Jun 19 06:26:55 2025 GMT
        Subject: C = XX, ST = Some State or Province, L = Somewhere, O = Some Company Ltd., CN = example.org, serialNumber = 1234567890
        Subject Public Key Info:
            Public Key Algorithm: rsaEncryption
                RSA Public-Key: (2048 bit)
                Modulus:
                    00:b5:de:2d:69:fa:cb:91:62:64:19:ac:2e:30:c8:
                    66:72:c8:92:af:61:da:2c:46:0d:41:cc:be:4c:b1:
                    f5:8e:01:1a:bc:db:af:de:5b:6c:43:63:e7:f3:59:
                    96:b5:cf:43:fd:30:f4:ca:1b:49:0e:a2:6f:e3:67:
                    62:32:c2:33:10:05:d6:a5:75:47:21:9d:55:a7:a9:
                    62:e5:44:ad:32:d9:7c:b3:fe:42:85:33:de:5a:6b:
                    39:b3:ba:e8:25:23:ee:cc:a8:4a:1e:91:21:e7:e3:
                    10:49:36:d0:98:3b:ca:00:f9:6b:03:93:96:c2:71:
                    a2:0c:e2:e9:93:90:14:22:c4:5f:b9:82:57:5a:c4:
                    79:85:c3:ad:7a:67:f0:bf:79:e8:b4:0d:f4:12:9a:
                    82:94:a8:e2:4f:01:26:9e:f2:34:db:8f:c2:c4:9b:
                    5b:2c:19:5a:48:46:0f:3a:4f:51:48:0a:4d:73:b7:
                    22:5f:04:97:1e:c9:28:34:7c:8c:da:51:8e:46:71:
                    f7:59:c9:42:ca:9c:eb:0b:88:d7:d8:1d:c6:cb:65:
                    e8:6e:d9:3a:cd:f9:01:b4:4e:86:a6:63:70:4d:b9:
                    ba:5d:26:e9:9f:fe:2c:e9:4b:b8:6b:c3:e8:5f:e0:
                    40:f4:5e:97:2f:53:3c:c0:05:35:5c:c3:3d:43:2e:
                    65:fb
                Exponent: 65537 (0x10001)
        X509v3 extensions:
            X509v3 Key Usage: critical
                Digital Signature, Key Encipherment
            X509v3 Extended Key Usage: 
                TLS Web Client Authentication, TLS Web Server Authentication
            X509v3 Subject Key Identifier: 
                52:68:09:90:7D:04:EA:08:A4:EF:0B:32:AF:1E:76:8C:49:A8:71:5D
            X509v3 Authority Key Identifier: 
                keyid:E8:B6:F6:76:4B:D0:3B:E5:46:A5:F9:54:D4:7E:07:B3:DE:0D:60:3E

            Authority Information Access: 
                CA Issuers - URI:http://ca.someca-inc.com/root

            X509v3 Subject Alternative Name: 
                DNS:example.org
            X509v3 Certificate Policies: 
                Policy: 2.23.140.1.2.2

    Signature Algorithm: sha256WithRSAEncryption
         2b:4a:7b:57:a1:90:ec:c4:c4:b9:4d:e8:43:41:27:89:f4:dc:
         f2:b0:00:16:19:be:9b:3e:00:59:30:a9:8f:dd:29:b8:25:dc:
         f1:d0:6b:95:aa:db:38:24:d6:a9:70:c6:03:b3:e2:7b:18:88:
         21:72:22:7a:a4:0d:ad:0d:1f:0a:76:40:14:17:d2:60:e4:a0:
         f3:7a:98:93:93:ea:c7:88:6c:e0:e6:2e:04:46:39:54:2e:c8:
         0e:34:1f:e6:6e:41:50:b1:0d:2d:d1:92:0c:7f:85:3b:ae:ce:
         ee:e2:bb:ef:b2:c8:05:32:24:ca:f7:5f:e5:ab:69:0d:50:7d:
         ca:21:59:74:94:14:b1:3c:87:23:72:c5:7e:b8:64:f6:5e:d3:
         f6:2b:2e:cf:25:7b:52:cf:29:78:46:36:89:db:85:de:61:66:
         1b:27:1d:53:20:e4:b4:90:4a:2a:bc:b2:5d:d2:9f:04:4f:ad:
         2c:eb:0a:d8:74:d2:30:1a:2c:a9:99:0f:e5:0a:32:24:2a:e3:
         ae:c3:97:56:56:5c:24:13:2b:ff:49:d0:fa:f0:9d:f5:c7:d2:
         10:23:64:31:e9:ba:98:09:a1:17:a7:20:e0:0e:3d:aa:89:95:
         aa:c5:be:5b:80:0f:de:7c:26:0a:43:4e:b4:d5:fc:48:eb:46:
         f6:7a:2a:bb
-----BEGIN CERTIFICATE-----
MIIEMzCCAxugAwIBAgIRAISbakWhZ7HZdqtkEmmBrIwwDQYJKoZIhvcNAQELBQAw
QzELMAkGA1UEBhMCWFgxEDAOBgNVBAoTB1NvbWUgQ0ExIjAgBgNVBAMTGUZha2Ug
Q0EgZm9yIHpsaW50IHRlc3RpbmcwHhcNMjUwNjA5MDYyNjU1WhcNMjUwNjE5MDYy
NjU1WjCBiTELMAkGA1UEBhMCWFgxHzAdBgNVBAgTFlNvbWUgU3RhdGUgb3IgUHJv
dmluY2UxEjAQBgNVBAcTCVNvbWV3aGVyZTEaMBgGA1UEChMRU29tZSBDb21wYW55
IEx0ZC4xFDASBgNVBAMTC2V4YW1wbGUub3JnMRMwEQYDVQQFEwoxMjM0NTY3ODkw
MIIBIjANBgkqhkiG9w0BAQEFAAOCAQ8AMIIBCgKCAQEAtd4tafrLkWJkGawuMMhm
csiSr2HaLEYNQcy+TLH1jgEavNuv3ltsQ2Pn81mWtc9D/TD0yhtJDqJv42diMsIz
EAXWpXVHIZ1Vp6li5UStMtl8s/5ChTPeWms5s7roJSPuzKhKHpEh5+MQSTbQmDvK
APlrA5OWwnGiDOLpk5AUIsRfuYJXWsR5hcOtemfwv3notA30EpqClKjiTwEmnvI0
24/CxJtbLBlaSEYPOk9RSApNc7ciXwSXHskoNHyM2lGORnH3WclCypzrC4jX2B3G
y2Xobtk6zfkBtE6GpmNwTbm6XSbpn/4s6Uu4a8PoX+BA9F6XL1M8wAU1XMM9Qy5l
+wIDAQABo4HaMIHXMA4GA1UdDwEB/wQEAwIFoDAdBgNVHSUEFjAUBggrBgEFBQcD
AgYIKwYBBQUHAwEwHQYDVR0OBBYEFFJoCZB9BOoIpO8LMq8edoxJqHFdMB8GA1Ud
IwQYMBaAFOi29nZL0DvlRqX5VNR+B7PeDWA+MDkGCCsGAQUFBwEBBC0wKzApBggr
BgEFBQcwAoYdaHR0cDovL2NhLnNvbWVjYS1pbmMuY29tL3Jvb3QwFgYDVR0RBA8w
DYILZXhhbXBsZS5vcmcwEwYDVR0gBAwwCjAIBgZngQwBAgIwDQYJKoZIhvcNAQEL
BQADggEBACtKe1ehkOzExLlN6ENBJ4n03PKwABYZvps+AFkwqY/dKbgl3PHQa5Wq
2zgk1qlwxgOz4nsYiCFyInqkDa0NHwp2QBQX0mDkoPN6mJOT6seIbODmLgRGOVQu
yA40H+ZuQVCxDS3Rkgx/hTuuzu7iu++yyAUyJMr3X+WraQ1QfcohWXSUFLE8hyNy
xX64ZPZe0/YrLs8le1LPKXhGNonbhd5hZhsnHVMg5LSQSiq8sl3SnwRPrSzrCth0
0jAaLKmZD+UKMiQq467Dl1ZWXCQTK/9J0PrwnfXH0hAjZDHpupgJoRenIOAOPaqJ
larFvluAD958JgpDTrTV/EjrRvZ6Krs=
-----END CERTIFICATE-----
