Certificate:
    Data:
        Version: 3 (0x2)
        Serial Number:
            80:11:71:36:d0:af:6a:e2:e1:39:75:09:f1:df:1f:7d
        Signature Algorithm: sha256WithRSAEncryption
        Issuer: C = XX, O = Some CA, CN = Fake CA for zlint testing
        Validity
            Not Before: Mar 23 00:00:00 2026 GMT
            Not After : Apr  2 00:00:00 2026 GMT
        Subject: C = XX, ST = Some State or Province, L = Somewhere, O = Some Company Ltd., CN = example.org, serialNumber = 1234567890
        Subject Public Key Info:
            Public Key Algorithm: rsaEncryption
                RSA Public-Key: (2048 bit)
                Modulus:
                    00:ca:51:93:61:58:0a:8f:6a:b7:c0:cf:54:9d:84:
                    80:a3:9e:16:12:50:b3:61:8c:65:03:d5:ae:ef:1b:
                    c6:f0:7b:d8:54:40:13:ea:39:7a:b7:9d:af:05:58:
                    37:c4:7f:ee:fe:0c:22:27:80:b3:a9:8c:6e:dd:ef:
                    f6:5c:6d:4c:1a:d6:27:c8:f5:90:79:9d:a7:b3:23:
                    6e:04:f8:29:f5:a3:6a:33:c3:11:85:b8:7b:3f:ec:
                    02:fe:a3:9d:9c:7f:f9:56:ca:18:a2:00:ba:d3:6a:
                    5e:1c:f2:7b:d5:ab:2e:e6:99:55:34:03:5c:64:5d:
                    10:a3:38:b4:6d:fb:cc:46:cc:4b:32:0c:5b:fd:5e:
                    7c:c4:77:d8:7f:d5:6a:fe:53:74:d0:91:8b:39:17:
                    27:33:76:85:88:2e:83:23:27:5f:35:a9:4b:e2:e7:
                    40:dd:f2:34:62:80:f5:a3:4e:64:f7:d4:9d:50:47:
                    be:60:6e:cc:f9:81:d9:16:7d:72:79:f7:16:e9:8f:
                    39:da:ef:d4:8f:e6:30:1c:f7:a0:7a:ad:53:14:b4:
                    2a:2a:53:13:a4:a3:08:d0:72:f0:f0:75:fa:e0:6e:
                    6f:c2:df:07:a8:06:aa:aa:42:80:90:a3:f8:43:af:
                    bd:35:74:67:da:e5:83:f6:63:af:6d:00:b8:57:b8:
                    16:0f
                Exponent: 65537 (0x10001)
        X509v3 extensions:
            X509v3 Key Usage: critical
                Digital Signature, Key Encipherment
            X509v3 Extended Key Usage: 
                TLS Web Client Authentication, TLS Web Server Authentication
            X509v3 Subject Key Identifier: 
                FD:D4:90:56:5D:BE:5F:C5:FB:9E:04:2B:5A:00:F1:97:78:B3:28:73
            X509v3 Authority Key Identifier: 
                keyid:E8:B6:F6:76:4B:D0:3B:E5:46:A5:F9:54:D4:7E:07:B3:DE:0D:60:3E

            Authority Information Access: 
                CA Issuers - URI:http://ca.someca-inc.com/root

            X509v3 Subject Alternative Name: 
                DNS:example.org
            X509v3 Certificate Policies: 
                Policy: 2.23.140.1.2.2

    Signature Algorithm: sha256WithRSAEncryption
         a2:31:51:cc:88:9b:b9:01:d9:10:e6:1d:bb:5b:c3:5c:af:91:
         39:a8:5c:22:35:b7:64:45:ef:09:82:6e:9e:e9:f1:11:8c:a7:
         aa:f8:3e:f1:4b:ac:0a:4a:5f:3f:40:4e:4f:49:ec:a5:53:af:
         75:08:d2:a4:ae:ee:5b:39:57:12:5a:57:f1:0a:bf:70:36:fa:
         35:d8:98:09:a6:0d:ff:f8:ee:9b:a7:4a:78:37:4e:7c:d8:15:
         5f:23:2b:3a:3b:75:0b:cd:a8:46:e4:59:28:7a:b4:fb:aa:7c:
         52:2f:7d:ce:8f:21:34:ad:2f:a6:f4:67:34:bc:82:a6:03:8b:
         98:d0:40:66:13:99:4d:be:9d:bb:61:5d:3d:d1:36:45:a4:f9:
         e6:1f:2a:1e:3b:60:0b:7c:05:6e:fc:61:d0:8e:71:0d:b5:ee:
         cd:f7:f8:f4:ee:ba:44:0b:8c:9c:dc:b5:be:43:41:fa:ad:27:
         ef:85:f0:91:b9:5d:66:eb:95:ec:97:24:d7:5c:3e:2e:c9:0a:
         69:e2:bf:fa:74:80:24:17:b0:19:1c:06:d5:a1:99:45:94:de:
         75:27:56:0f:a5:de:57:57:93:fc:3a:81:9b:2d:60:be:b2:4c:
         9d:50:30:90:c9:52:4e:0d:ff:48:d1:60:75:4e:f0:df:1c:47:
         c4:2a:6c:7e
-----BEGIN CERTIFICATE-----
MIIEMzCCAxugAwIBAgIRAIARcTbQr2ri4Tl1CfHfH30wDQYJKoZIhvcNAQELBQAw
QzELMAkGA1UEBhMCWFgxEDAOBgNVBAoTB1NvbWUgQ0ExIjAgBgNVBAMTGUZha2Ug
Q0EgZm9yIHpsaW50IHRlc3RpbmcwHhcNMjYwMzIzMDAwMDAwWhcNMjYwNDAyMDAw
MDAwWjCBiTELMAkGA1UEBhMCWFgxHzAdBgNVBAgTFlNvbWUgU3RhdGUgb3IgUHJv
dmluY2UxEjAQBgNVBAcTCVNvbWV3aGVyZTEaMBgGA1UEChMRU29tZSBDb21wYW55
IEx0ZC4xFDASBgNVBAMTC2V4YW1wbGUub3JnMRMwEQYDVQQFEwoxMjM0NTY3ODkw
MIIBIjANBgkqhkiG9w0BAQEFAAOCAQ8AMIIBCgKCAQEAylGTYVgKj2q3wM9UnYSA
o54WElCzYYxlA9Wu7xvG8HvYVEAT6jl6t52vBVg3xH/u/gwiJ4CzqYxu3e/2XG1M
GtYnyPWQeZ2nsyNuBPgp9aNqM8MRhbh7P+wC/qOdnH/5VsoYogC602peHPJ71asu
5plVNANcZF0Qozi0bfvMRsxLMgxb/V58xHfYf9Vq/lN00JGLORcnM3aFiC6DIydf
NalL4udA3fI0YoD1o05k99SdUEe+YG7M+YHZFn1yefcW6Y852u/Uj+YwHPegeq1T
FLQqKlMTpKMI0HLw8HX64G5vwt8HqAaqqkKAkKP4Q6+9NXRn2uWD9mOvbQC4V7gW
DwIDAQABo4HaMIHXMA4GA1UdDwEB/wQEAwIFoDAdBgNVHSUEFjAUBggrBgEFBQcD
AgYIKwYBBQUHAwEwHQYDVR0OBBYEFP3UkFZdvl/F+54EK1oA8Zd4syhzMB8GA1Ud
IwQYMBaAFOi29nZL0DvlRqX5VNR+B7PeDWA+MDkGCCsGAQUFBwEBBC0wKzApBggr
BgEFBQcwAoYdaHR0cDovL2NhLnNvbWVjYS1pbmMuY29tL3Jvb3QwFgYDVR0RBA8w
DYILZXhhbXBsZS5vcmcwEwYDVR0gBAwwCjAIBgZngQwBAgIwDQYJKoZIhvcNAQEL
BQADggEBAKIxUcyIm7kB2RDmHbtbw1yvkTmoXCI1t2RF7wmCbp7p8RGMp6r4PvFL
rApKXz9ATk9J7KVTr3UI0qSu7ls5VxJaV/EKv3A2+jXYmAmmDf/47punSng3TnzY
FV8jKzo7dQvNqEbkWSh6tPuqfFIvfc6PITStL6b0ZzS8gqYDi5jQQGYTmU2+nbth
XT3RNkWk+eYfKh47YAt8BW78YdCOcQ217s33+PTuukQLjJzctb5DQfqtJ++F8JG5
XWbrleyXJNdcPi7JCmniv/p0gCQXsBkcBtWhmUWU3nUnVg+l3ldXk/w6gZstYL6y
TJ1QMJDJUk4N/0jRYHVO8N8cR8QqbH4=
-----END CERTIFICATE-----
