Certificate:
    Data:
        Version: 3 (0x2)
        Serial Number:
            c4:36:40:91:e4:0b:d7:98:02:93:31:f9:7a:7d:4f:aa
        Signature Algorithm: sha256WithRSAEncryption
        Issuer: C = XX, O = Some CA, CN = Fake CA for zlint testing
        Validity
            Not Before: Jun  9 11:30:15 2025 GMT
            Not After : Jun 19 11:30:15 2025 GMT
        Subject: C = XX, ST = Some State or Province, L = Somewhere, O = Some Company Ltd., CN = example.org, serialNumber = 1234567890
        Subject Public Key Info:
            Public Key Algorithm: rsaEncryption
                RSA Public-Key: (2048 bit)
                Modulus:
                    00:cb:ba:c1:cc:8b:9e:6b:1b:0a:99:dd:ea:93:06:
                    d2:18:30:00:c2:47:35:bf:26:be:35:98:3a:db:52:
                    a9:ac:fa:05:77:52:c0:78:74:4a:b8:6e:30:24:3f:
                    20:42:94:48:10:02:67:96:76:54:95:63:3a:c3:3e:
                    23:a3:d3:bc:29:ce:ad:b8:c8:5e:a4:c0:83:6d:78:
                    ce:15:a2:d5:92:3a:bf:dc:c2:27:6d:13:7b:6c:92:
                    11:18:00:2b:4e:53:17:3c:80:72:e0:fe:d7:b1:68:
                    79:a9:43:d9:76:39:e2:c6:ea:37:8b:fa:81:5f:9c:
                    1d:18:4a:29:ec:a9:c7:8a:03:6b:7a:06:7d:b1:4f:
                    e3:1e:70:10:a2:a6:42:48:8e:01:75:4b:d0:eb:21:
                    66:e8:f1:7e:99:8e:2f:1e:a6:ca:63:8d:50:8b:d4:
                    8f:a6:89:cd:90:13:e9:ee:51:60:de:5a:9e:e7:ec:
                    fa:f6:92:fa:70:6d:13:ae:fa:45:30:66:c1:bc:44:
                    25:40:0d:fd:18:5d:3d:23:da:dd:0a:3e:fb:8f:75:
                    01:db:2f:cc:5a:0c:c1:eb:81:54:f8:96:9a:27:d4:
                    b3:78:2e:d2:3e:c3:7d:dc:fb:b4:52:78:b9:4e:7f:
                    3b:29:e0:c1:31:32:05:7d:b8:08:a9:59:1c:e7:02:
                    cf:2b
                Exponent: 65537 (0x10001)
        X509v3 extensions:
            X509v3 Key Usage: critical
                Digital Signature, Key Encipherment
            X509v3 Extended Key Usage: 
                TLS Web Client Authentication, TLS Web Server Authentication
            X509v3 Subject Key Identifier: 
                48:EC:AB:28:B4:A8:A0:45:BA:94:F9:E2:F9:13:49:33:BF:EA:8F:8A
            X509v3 Authority Key Identifier: 
                keyid:E8:B6:F6:76:4B:D0:3B:E5:46:A5:F9:54:D4:7E:07:B3:DE:0D:60:3E

            Authority Information Access: 
                OCSP - URI:http://ca.someca-inc.com/ocsp
                CA Issuers - URI:http://ca.someca-inc.com/root

            X509v3 Subject Alternative Name: 
                DNS:example.org
            X509v3 Certificate Policies: 
                Policy: 2.23.140.1.2.2

    Signature Algorithm: sha256WithRSAEncryption
         c5:58:7e:53:dc:95:91:9f:38:5c:58:1d:8a:1a:10:bc:bc:72:
         52:71:d3:61:93:9a:db:b3:bd:cf:df:90:12:cc:ce:07:65:8f:
         37:62:8b:9f:a8:a6:52:ff:3e:68:ce:ff:dc:b2:e2:a2:b9:58:
         72:db:f4:58:97:cf:12:4d:af:fc:bb:fe:3a:49:77:b4:0b:e2:
         3a:f4:7c:2e:33:41:09:29:de:43:2d:0d:1d:4a:30:23:f6:e0:
         c0:16:58:4c:e8:b6:0f:70:41:ba:8b:de:9a:99:35:0f:80:9e:
         31:4e:dc:93:90:7d:f0:4d:85:62:6e:39:76:26:3a:45:fe:82:
         ef:5a:8f:c5:c0:f9:7f:d3:59:08:a5:52:44:14:3d:22:ee:63:
         4f:85:83:42:3a:e2:d7:6e:31:11:95:bf:7c:55:dd:5b:13:57:
         b2:2f:15:a0:f7:46:7e:0b:89:65:b8:20:ac:be:c2:f3:ee:56:
         6d:48:cb:a1:77:e2:86:66:70:c3:aa:66:35:27:d2:e1:47:48:
         6d:23:3b:eb:ce:8e:64:7b:d6:e1:5c:1c:80:f3:e5:31:c9:67:
         a2:f0:aa:cf:b5:85:76:05:c2:79:6b:55:dd:12:2a:9b:50:32:
         74:32:60:48:a5:6b:0e:cb:a5:a1:66:0b:eb:a1:1d:8f:26:3b:
         6a:b5:8b:0d
-----BEGIN CERTIFICATE-----
MIIEYDCCA0igAwIBAgIRAMQ2QJHkC9eYApMx+Xp9T6owDQYJKoZIhvcNAQELBQAw
QzELMAkGA1UEBhMCWFgxEDAOBgNVBAoTB1NvbWUgQ0ExIjAgBgNVBAMTGUZha2Ug
Q0EgZm9yIHpsaW50IHRlc3RpbmcwHhcNMjUwNjA5MTEzMDE1WhcNMjUwNjE5MTEz
MDE1WjCBiTELMAkGA1UEBhMCWFgxHzAdBgNVBAgTFlNvbWUgU3RhdGUgb3IgUHJv
dmluY2UxEjAQBgNVBAcTCVNvbWV3aGVyZTEaMBgGA1UEChMRU29tZSBDb21wYW55
IEx0ZC4xFDASBgNVBAMTC2V4YW1wbGUub3JnMRMwEQYDVQQFEwoxMjM0NTY3ODkw
MIIBIjANBgkqhkiG9w0BAQEFAAOCAQ8AMIIBCgKCAQEAy7rBzIueaxsKmd3qkwbS
GDAAwkc1vya+NZg621KprPoFd1LAeHRKuG4wJD8gQpRIEAJnlnZUlWM6wz4jo9O8
Kc6tuMhepMCDbXjOFaLVkjq/3MInbRN7bJIRGAArTlMXPIBy4P7XsWh5qUPZdjni
xuo3i/qBX5wdGEop7KnHigNregZ9sU/jHnAQoqZCSI4BdUvQ6yFm6PF+mY4vHqbK
Y41Qi9SPponNkBPp7lFg3lqe5+z69pL6cG0TrvpFMGbBvEQlQA39GF09I9rdCj77
j3UB2y/MWgzB64FU+JaaJ9SzeC7SPsN93Pu0Uni5Tn87KeDBMTIFfbgIqVkc5wLP
KwIDAQABo4IBBjCCAQIwDgYDVR0PAQH/BAQDAgWgMB0GA1UdJQQWMBQGCCsGAQUF
BwMCBggrBgEFBQcDATAdBgNVHQ4EFgQUSOyrKLSooEW6lPni+RNJM7/qj4owHwYD
VR0jBBgwFoAU6Lb2dkvQO+VGpflU1H4Hs94NYD4wZAYIKwYBBQUHAQEEWDBWMCkG
CCsGAQUFBzABhh1odHRwOi8vY2Euc29tZWNhLWluYy5jb20vb2NzcDApBggrBgEF
BQcwAoYdaHR0cDovL2NhLnNvbWVjYS1pbmMuY29tL3Jvb3QwFgYDVR0RBA8wDYIL
ZXhhbXBsZS5vcmcwEwYDVR0gBAwwCjAIBgZngQwBAgIwDQYJKoZIhvcNAQELBQAD
ggEBAMVYflPclZGfOFxYHYoaELy8clJx02GTmtuzvc/fkBLMzgdljzdii5+oplL/
PmjO/9yy4qK5WHLb9FiXzxJNr/y7/jpJd7QL4jr0fC4zQQkp3kMtDR1KMCP24MAW
WEzotg9wQbqL3pqZNQ+AnjFO3JOQffBNhWJuOXYmOkX+gu9aj8XA+X/TWQilUkQU
PSLuY0+Fg0I64tduMRGVv3xV3VsTV7IvFaD3Rn4LiWW4IKy+wvPuVm1Iy6F34oZm
cMOqZjUn0uFHSG0jO+vOjmR71uFcHIDz5THJZ6Lwqs+1hXYFwnlrVd0SKptQMnQy
YEilaw7LpaFmC+uhHY8mO2q1iw0=
-----END CERTIFICATE-----
