Certificate:
    Data:
        Version: 3 (0x2)
        Serial Number:
            3b:2a:af:04:cd:80:3b:5b:80:0b:da:d9:0f:e3:f0:2f
        Signature Algorithm: sha256WithRSAEncryption
        Issuer: C = XX, O = Some CA, CN = Fake CA for zlint testing
        Validity
            Not Before: Jun  6 13:31:46 2025 GMT
            Not After : Jun 13 13:31:46 2025 GMT
        Subject: C = XX, ST = Some State or Province, L = Somewhere, O = Some Company Ltd., CN = example.org, serialNumber = 1234567890
        Subject Public Key Info:
            Public Key Algorithm: rsaEncryption
                RSA Public-Key: (2048 bit)
                Modulus:
                    00:bd:14:c2:e8:2f:16:d0:35:b0:89:28:96:a1:ba:
                    9e:55:de:61:71:d8:92:0c:f3:e9:7b:6d:a2:2b:48:
                    60:a9:fd:2b:68:c3:8f:ff:30:d6:3d:78:c9:76:7d:
                    1b:73:08:5c:2e:7b:9d:82:47:60:fe:5a:fe:94:2f:
                    36:33:1d:64:ba:42:fb:06:89:1f:e9:e1:a0:79:c2:
                    ea:7a:76:d5:f5:64:29:41:2e:b8:71:55:cd:f9:a8:
                    30:da:1f:70:f0:fc:e9:b0:cb:d8:ed:48:60:dc:27:
                    7f:b0:d9:69:3a:da:a3:e0:8d:dc:b2:71:92:89:ea:
                    be:4b:f1:c3:d7:e9:31:78:6d:26:6c:ab:17:77:0a:
                    c1:8d:73:a8:0a:bd:86:6f:50:12:de:b8:8c:05:79:
                    37:89:ba:14:d4:fd:b3:a1:29:f6:de:f1:0f:a3:c7:
                    87:45:2a:4a:94:5e:fb:5e:de:41:f6:60:ed:20:6d:
                    4c:1c:8d:66:7f:79:12:34:e4:b3:5a:c7:52:de:50:
                    aa:b4:b1:45:8a:44:e4:ff:34:c7:ea:ad:ad:32:19:
                    ba:88:27:01:7d:bc:d1:db:7b:5d:c3:29:f6:f2:53:
                    6f:da:65:c3:38:67:12:0a:6f:26:90:11:21:6d:84:
                    1e:1d:37:c2:f7:0e:49:45:b8:98:21:70:ed:a7:b3:
                    f2:c5
                Exponent: 65537 (0x10001)
        X509v3 extensions:
            X509v3 Key Usage: critical
                Digital Signature, Key Encipherment
            X509v3 Extended Key Usage: 
                TLS Web Client Authentication, TLS Web Server Authentication
            X509v3 Subject Key Identifier: 
                BA:BC:62:09:1A:FE:91:C4:4D:65:E3:73:D5:21:63:D9:47:AC:70:FE
            X509v3 Authority Key Identifier: 
                keyid:E8:B6:F6:76:4B:D0:3B:E5:46:A5:F9:54:D4:7E:07:B3:DE:0D:60:3E

            Authority Information Access: 
                CA Issuers - URI:http://ca.someca-inc.com/root

            X509v3 Subject Alternative Name: 
                DNS:example.org
            X509v3 Certificate Policies: 
                Policy: 2.23.140.1.2.2

    Signature Algorithm: sha256WithRSAEncryption
         2b:f8:b5:09:0c:26:bb:ba:b6:e2:c5:64:83:2b:d7:9e:d7:c3:
         e3:e3:7d:5b:22:b3:6c:9e:f4:02:34:11:c6:a4:c9:16:4a:6d:
         81:48:20:c3:62:77:cc:15:c4:8d:fa:2c:d3:28:6c:e9:f3:22:
         88:d1:21:be:98:5d:f9:24:31:26:c5:cf:ec:cf:c7:85:d5:46:
         4a:cd:fc:ba:a4:73:97:41:04:2c:fd:d8:79:2d:a5:de:27:3a:
         3b:19:9c:3b:1c:a7:81:34:a8:1f:cc:ac:26:52:ce:2a:6e:bf:
         26:59:4b:d4:21:1b:63:b6:89:bb:de:79:0b:9a:c3:a1:ad:66:
         b6:54:a9:ee:21:da:c0:9c:ca:fe:24:2f:73:a7:ff:56:ed:23:
         f5:47:b2:9a:b4:f5:88:97:74:b7:c2:0e:1f:21:05:b5:51:76:
         37:4b:1a:71:f5:ed:46:30:44:1b:e4:12:6d:2a:d2:66:a6:ad:
         71:c8:a4:05:42:cb:e4:1c:fb:5c:aa:3a:57:fb:96:2d:2e:05:
         97:17:3d:2a:bd:0d:a2:24:01:ec:ba:50:2c:4c:e0:b6:37:42:
         05:e9:59:9f:79:28:de:cb:af:e2:3a:b4:cf:b3:b7:7d:cd:f3:
         09:b3:c6:eb:b8:96:d3:23:fd:1d:52:43:5b:2e:f0:af:7a:6b:
         02:6b:f6:c8
-----BEGIN CERTIFICATE-----
MIIEMjCCAxqgAwIBAgIQOyqvBM2AO1uAC9rZD+PwLzANBgkqhkiG9w0BAQsFADBD
MQswCQYDVQQGEwJYWDEQMA4GA1UEChMHU29tZSBDQTEiMCAGA1UEAxMZRmFrZSBD
QSBmb3IgemxpbnQgdGVzdGluZzAeFw0yNTA2MDYxMzMxNDZaFw0yNTA2MTMxMzMx
NDZaMIGJMQswCQYDVQQGEwJYWDEfMB0GA1UECBMWU29tZSBTdGF0ZSBvciBQcm92
aW5jZTESMBAGA1UEBxMJU29tZXdoZXJlMRowGAYDVQQKExFTb21lIENvbXBhbnkg
THRkLjEUMBIGA1UEAxMLZXhhbXBsZS5vcmcxEzARBgNVBAUTCjEyMzQ1Njc4OTAw
ggEiMA0GCSqGSIb3DQEBAQUAA4IBDwAwggEKAoIBAQC9FMLoLxbQNbCJKJahup5V
3mFx2JIM8+l7baIrSGCp/Stow4//MNY9eMl2fRtzCFwue52CR2D+Wv6ULzYzHWS6
QvsGiR/p4aB5wup6dtX1ZClBLrhxVc35qDDaH3Dw/Omwy9jtSGDcJ3+w2Wk62qPg
jdyycZKJ6r5L8cPX6TF4bSZsqxd3CsGNc6gKvYZvUBLeuIwFeTeJuhTU/bOhKfbe
8Q+jx4dFKkqUXvte3kH2YO0gbUwcjWZ/eRI05LNax1LeUKq0sUWKROT/NMfqra0y
GbqIJwF9vNHbe13DKfbyU2/aZcM4ZxIKbyaQESFthB4dN8L3DklFuJghcO2ns/LF
AgMBAAGjgdowgdcwDgYDVR0PAQH/BAQDAgWgMB0GA1UdJQQWMBQGCCsGAQUFBwMC
BggrBgEFBQcDATAdBgNVHQ4EFgQUurxiCRr+kcRNZeNz1SFj2UescP4wHwYDVR0j
BBgwFoAU6Lb2dkvQO+VGpflU1H4Hs94NYD4wOQYIKwYBBQUHAQEELTArMCkGCCsG
AQUFBzAChh1odHRwOi8vY2Euc29tZWNhLWluYy5jb20vcm9vdDAWBgNVHREEDzAN
ggtleGFtcGxlLm9yZzATBgNVHSAEDDAKMAgGBmeBDAECAjANBgkqhkiG9w0BAQsF
AAOCAQEAK/i1CQwmu7q24sVkgyvXntfD4+N9WyKzbJ70AjQRxqTJFkptgUggw2J3
zBXEjfos0yhs6fMiiNEhvphd+SQxJsXP7M/HhdVGSs38uqRzl0EELP3YeS2l3ic6
OxmcOxyngTSoH8ysJlLOKm6/JllL1CEbY7aJu955C5rDoa1mtlSp7iHawJzK/iQv
c6f/Vu0j9UeymrT1iJd0t8IOHyEFtVF2N0sacfXtRjBEG+QSbSrSZqatccikBULL
5Bz7XKo6V/uWLS4Flxc9Kr0NoiQB7LpQLEzgtjdCBelZn3ko3suv4jq0z7O3fc3z
CbPG67iW0yP9HVJDWy7wr3prAmv2yA==
-----END CERTIFICATE-----
