Certificate:
    Data:
        Version: 3 (0x2)
        Serial Number:
            b1:55:d2:32:bf:bb:75:a3:44:fb:97:75:25:89:29:3c
        Signature Algorithm: sha256WithRSAEncryption
        Issuer: C = XX, O = Some CA, CN = Fake CA for zlint testing
        Validity
            Not Before: Jun  9 11:32:08 2025 GMT
            Not After : Jun 16 11:32:08 2025 GMT
        Subject: C = XX, ST = Some State or Province, L = Somewhere, O = Some Company Ltd., CN = example.org, serialNumber = 1234567890
        Subject Public Key Info:
            Public Key Algorithm: rsaEncryption
                RSA Public-Key: (2048 bit)
                Modulus:
                    00:e1:fd:ee:60:c3:df:9a:fb:66:04:2c:d6:d1:68:
                    f4:f7:5d:3f:9e:f0:74:b4:28:5a:65:d5:2c:c5:80:
                    4d:fa:8d:74:78:92:2f:35:a3:82:52:66:40:97:2b:
                    c1:b0:8c:cf:85:f9:aa:5b:25:f3:2e:88:42:99:ff:
                    45:c4:6f:e8:54:bc:c7:ff:b6:cb:45:51:37:8b:d2:
                    e1:10:d1:d0:09:5f:3a:35:b6:57:9c:c5:81:89:a3:
                    c3:d3:c2:91:48:b1:91:19:7f:da:69:24:89:20:4e:
                    45:86:a8:fb:db:eb:17:22:e2:57:39:20:9f:0a:b6:
                    99:4a:17:27:0a:8a:db:35:1b:a2:4d:24:c4:25:26:
                    d5:aa:2d:12:1a:bd:47:7f:29:45:91:ec:88:6f:27:
                    8b:25:48:ca:33:7d:de:57:29:b4:d9:dd:08:97:9d:
                    ad:ab:6c:5d:07:39:df:b6:21:7a:cf:ee:6a:14:12:
                    72:91:3d:bc:76:59:d6:f7:e3:90:f4:5b:84:a2:7c:
                    e7:d8:28:30:d2:5a:45:a6:87:c2:d0:fb:c0:2d:75:
                    12:58:30:6b:1a:88:c5:4a:0b:5c:91:ba:c8:57:e7:
                    58:f5:d1:97:d0:12:2c:e1:21:8c:3c:5d:54:bf:87:
                    26:b2:f7:31:f5:cf:e6:77:bb:8b:df:93:df:b2:41:
                    cb:8d
                Exponent: 65537 (0x10001)
        X509v3 extensions:
            X509v3 Key Usage: critical
                Digital Signature, Key Encipherment
            X509v3 Extended Key Usage: 
                TLS Web Client Authentication, TLS Web Server Authentication
            X509v3 Subject Key Identifier: 
                74:75:06:66:F7:52:B6:69:A5:A9:D8:6E:7D:C0:01:30:18:6A:E8:07
            X509v3 Authority Key Identifier: 
                keyid:E8:B6:F6:76:4B:D0:3B:E5:46:A5:F9:54:D4:7E:07:B3:DE:0D:60:3E

            Authority Information Access: 
                OCSP - URI:http://ca.someca-inc.com/ocsp
                CA Issuers - URI:http://ca.someca-inc.com/root

            X509v3 Subject Alternative Name: 
                DNS:example.org
            X509v3 Certificate Policies: 
                Policy: 2.23.140.1.2.2

    Signature Algorithm: sha256WithRSAEncryption
         a0:f8:b7:ab:c6:39:f1:fb:98:f2:5c:37:19:16:c7:c0:dd:55:
         a6:bc:3a:ef:5a:b6:b6:61:4c:ee:c5:f3:98:c5:b5:12:23:7d:
         ff:3a:d5:d3:97:1b:66:07:7c:a3:f1:bd:4a:b3:dd:cc:a4:f1:
         70:67:06:d4:9b:6f:b0:83:1e:9b:9f:84:d8:b1:dc:d0:b7:67:
         8e:76:57:45:0c:c2:2e:86:70:54:03:40:c2:f6:24:28:94:d0:
         a7:ae:84:9a:28:10:40:82:a6:ec:0c:d0:c8:d5:5c:28:4f:fd:
         9d:ef:7a:d8:f3:ff:a1:21:a2:81:80:7e:bd:a6:5c:ef:9b:fe:
         60:3c:79:cb:ac:16:f1:96:df:d1:fb:4e:75:2f:76:5f:19:75:
         cc:28:e6:9d:55:4b:21:f7:c3:cb:88:ee:03:43:2c:43:c8:8b:
         92:c4:bb:8c:d9:64:23:8c:a9:53:cc:d5:d4:42:1a:54:55:5b:
         58:ec:bd:f1:04:9f:8a:8a:14:55:5a:8e:72:6e:37:80:07:44:
         89:c0:53:bc:70:ac:61:4d:2d:15:50:1e:5a:84:87:9d:87:7b:
         b3:f5:c5:a8:61:ea:8b:97:d7:10:91:ad:d6:77:1b:dc:52:b0:
         db:b2:96:6b:cc:2a:91:34:a7:3e:0c:c6:6f:46:72:ec:ff:41:
         37:af:24:5e
-----BEGIN CERTIFICATE-----
MIIEYDCCA0igAwIBAgIRALFV0jK/u3WjRPuXdSWJKTwwDQYJKoZIhvcNAQELBQAw
QzELMAkGA1UEBhMCWFgxEDAOBgNVBAoTB1NvbWUgQ0ExIjAgBgNVBAMTGUZha2Ug
Q0EgZm9yIHpsaW50IHRlc3RpbmcwHhcNMjUwNjA5MTEzMjA4WhcNMjUwNjE2MTEz
MjA4WjCBiTELMAkGA1UEBhMCWFgxHzAdBgNVBAgTFlNvbWUgU3RhdGUgb3IgUHJv
dmluY2UxEjAQBgNVBAcTCVNvbWV3aGVyZTEaMBgGA1UEChMRU29tZSBDb21wYW55
IEx0ZC4xFDASBgNVBAMTC2V4YW1wbGUub3JnMRMwEQYDVQQFEwoxMjM0NTY3ODkw
MIIBIjANBgkqhkiG9w0BAQEFAAOCAQ8AMIIBCgKCAQEA4f3uYMPfmvtmBCzW0Wj0
910/nvB0tChaZdUsxYBN+o10eJIvNaOCUmZAlyvBsIzPhfmqWyXzLohCmf9FxG/o
VLzH/7bLRVE3i9LhENHQCV86NbZXnMWBiaPD08KRSLGRGX/aaSSJIE5Fhqj72+sX
IuJXOSCfCraZShcnCorbNRuiTSTEJSbVqi0SGr1HfylFkeyIbyeLJUjKM33eVym0
2d0Il52tq2xdBznftiF6z+5qFBJykT28dlnW9+OQ9FuEonzn2Cgw0lpFpofC0PvA
LXUSWDBrGojFSgtckbrIV+dY9dGX0BIs4SGMPF1Uv4cmsvcx9c/md7uL35PfskHL
jQIDAQABo4IBBjCCAQIwDgYDVR0PAQH/BAQDAgWgMB0GA1UdJQQWMBQGCCsGAQUF
BwMCBggrBgEFBQcDATAdBgNVHQ4EFgQUdHUGZvdStmmlqdhufcABMBhq6AcwHwYD
VR0jBBgwFoAU6Lb2dkvQO+VGpflU1H4Hs94NYD4wZAYIKwYBBQUHAQEEWDBWMCkG
CCsGAQUFBzABhh1odHRwOi8vY2Euc29tZWNhLWluYy5jb20vb2NzcDApBggrBgEF
BQcwAoYdaHR0cDovL2NhLnNvbWVjYS1pbmMuY29tL3Jvb3QwFgYDVR0RBA8wDYIL
ZXhhbXBsZS5vcmcwEwYDVR0gBAwwCjAIBgZngQwBAgIwDQYJKoZIhvcNAQELBQAD
ggEBAKD4t6vGOfH7mPJcNxkWx8DdVaa8Ou9atrZhTO7F85jFtRIjff861dOXG2YH
fKPxvUqz3cyk8XBnBtSbb7CDHpufhNix3NC3Z452V0UMwi6GcFQDQML2JCiU0Keu
hJooEECCpuwM0MjVXChP/Z3vetjz/6EhooGAfr2mXO+b/mA8ecusFvGW39H7TnUv
dl8Zdcwo5p1VSyH3w8uI7gNDLEPIi5LEu4zZZCOMqVPM1dRCGlRVW1jsvfEEn4qK
FFVajnJuN4AHRInAU7xwrGFNLRVQHlqEh52He7P1xahh6ouX1xCRrdZ3G9xSsNuy
lmvMKpE0pz4Mxm9Gcuz/QTevJF4=
-----END CERTIFICATE-----
