Certificate:
    Data:
        Version: 3 (0x2)
        Serial Number:
            5a:24:7e:47:8e:17:70:d4:69:b2:9f:b5:c4:7e:eb:20
        Signature Algorithm: sha256WithRSAEncryption
        Issuer: C = XX, O = Some CA, CN = Fake CA for zlint testing
        Validity
            Not Before: Jun  9 06:31:35 2025 GMT
            Not After : Jul  9 06:31:35 2025 GMT
        Subject: C = XX, ST = Some State or Province, L = Somewhere, O = Some Company Ltd., CN = example.org, serialNumber = 1234567890
        Subject Public Key Info:
            Public Key Algorithm: rsaEncryption
                RSA Public-Key: (2048 bit)
                Modulus:
                    00:c0:9e:5d:3b:a7:65:82:26:ea:85:e9:18:fd:eb:
                    61:31:33:07:29:da:e0:ec:ac:b9:e4:34:ff:bf:92:
                    60:f8:f4:27:51:8b:56:27:2d:a3:d4:9c:e9:0f:4d:
                    00:67:bf:08:7a:c8:25:f0:9a:b8:f4:93:33:1f:71:
                    08:45:60:39:e9:60:9f:b3:97:6d:6f:cb:b5:7c:b0:
                    e5:74:66:4d:b7:11:c2:fb:3d:7c:93:8a:a0:92:4c:
                    d3:ba:eb:72:f9:81:f4:f2:07:1a:93:d5:7f:26:f6:
                    fd:94:36:4f:74:61:8f:d5:cd:f4:f1:c3:1f:42:66:
                    bc:95:d7:12:93:f6:cd:fb:28:39:58:66:ac:2c:29:
                    2d:e2:e5:3c:25:ff:7e:dd:10:13:ae:1d:27:99:08:
                    03:22:d9:a5:a3:24:f6:47:60:e3:1f:25:3d:47:ca:
                    cb:c8:eb:45:d4:2f:08:19:17:8d:55:43:b4:59:d0:
                    a4:e3:f5:5a:8a:ce:12:52:e2:90:5c:21:37:26:6a:
                    4b:56:05:d8:1f:e4:62:78:cf:e9:6a:d4:7c:c3:91:
                    eb:63:09:51:1f:67:6c:b0:88:6d:d7:ea:66:a9:30:
                    41:54:0a:8e:77:7a:8f:9b:4a:90:ac:ef:2d:9d:9e:
                    9e:f3:96:df:1f:cb:b7:54:a4:64:30:32:77:c4:7b:
                    77:21
                Exponent: 65537 (0x10001)
        X509v3 extensions:
            X509v3 Key Usage: critical
                Digital Signature, Key Encipherment
            X509v3 Extended Key Usage: 
                TLS Web Client Authentication, TLS Web Server Authentication
            X509v3 Subject Key Identifier: 
                2C:BB:B1:6A:61:3F:93:E5:1A:99:02:09:15:F5:9C:FA:7B:54:60:98
            X509v3 Authority Key Identifier: 
                keyid:E8:B6:F6:76:4B:D0:3B:E5:46:A5:F9:54:D4:7E:07:B3:DE:0D:60:3E

            Authority Information Access: 
                CA Issuers - URI:http://ca.someca-inc.com/root

            X509v3 Subject Alternative Name: 
                DNS:example.org
            X509v3 Certificate Policies: 
                Policy: 2.23.140.1.2.2

    Signature Algorithm: sha256WithRSAEncryption
         a9:98:c2:8f:72:cf:79:fb:21:4c:91:04:45:ec:8b:4c:59:64:
         f6:6e:55:58:14:d7:e2:11:87:02:f1:7b:5e:22:92:d7:1d:ce:
         83:53:b5:19:9e:15:74:f4:a9:d4:7d:0f:08:13:dc:ad:71:cf:
         bb:be:3c:29:12:9f:35:89:ab:83:49:68:b1:62:a0:72:43:10:
         64:1d:5a:27:69:42:14:e2:14:66:25:4e:d9:23:41:d6:3d:dd:
         d6:36:8b:0f:96:01:56:07:33:b9:23:24:0e:db:e2:78:7d:a7:
         93:3c:ea:07:7c:7d:94:08:56:d4:18:19:92:10:94:1d:52:48:
         23:93:8f:32:c6:8f:3f:c4:d0:14:fa:70:a5:fc:e3:43:76:f6:
         d5:5e:fb:90:f5:28:46:96:e6:ff:13:a5:03:82:0c:93:c2:32:
         c8:04:c1:cf:80:43:27:72:e3:f5:77:3f:80:52:56:63:64:ce:
         ab:e4:2f:27:3d:ce:00:93:c3:38:35:b6:19:a8:f6:56:bb:9e:
         d8:b8:af:e4:37:b6:33:dc:64:3a:99:32:d4:c7:03:58:af:05:
         41:fa:ee:70:c7:e2:5e:0d:f3:a3:36:38:99:61:91:4e:be:2e:
         10:07:a8:18:d4:34:dd:62:ce:79:10:55:ee:79:92:2d:72:0e:
         b2:62:ba:cb
-----BEGIN CERTIFICATE-----
MIIEMjCCAxqgAwIBAgIQWiR+R44XcNRpsp+1xH7rIDANBgkqhkiG9w0BAQsFADBD
MQswCQYDVQQGEwJYWDEQMA4GA1UEChMHU29tZSBDQTEiMCAGA1UEAxMZRmFrZSBD
QSBmb3IgemxpbnQgdGVzdGluZzAeFw0yNTA2MDkwNjMxMzVaFw0yNTA3MDkwNjMx
MzVaMIGJMQswCQYDVQQGEwJYWDEfMB0GA1UECBMWU29tZSBTdGF0ZSBvciBQcm92
aW5jZTESMBAGA1UEBxMJU29tZXdoZXJlMRowGAYDVQQKExFTb21lIENvbXBhbnkg
THRkLjEUMBIGA1UEAxMLZXhhbXBsZS5vcmcxEzARBgNVBAUTCjEyMzQ1Njc4OTAw
ggEiMA0GCSqGSIb3DQEBAQUAA4IBDwAwggEKAoIBAQDAnl07p2WCJuqF6Rj962Ex
Mwcp2uDsrLnkNP+/kmD49CdRi1YnLaPUnOkPTQBnvwh6yCXwmrj0kzMfcQhFYDnp
YJ+zl21vy7V8sOV0Zk23EcL7PXyTiqCSTNO663L5gfTyBxqT1X8m9v2UNk90YY/V
zfTxwx9CZryV1xKT9s37KDlYZqwsKS3i5Twl/37dEBOuHSeZCAMi2aWjJPZHYOMf
JT1HysvI60XULwgZF41VQ7RZ0KTj9VqKzhJS4pBcITcmaktWBdgf5GJ4z+lq1HzD
ketjCVEfZ2ywiG3X6mapMEFUCo53eo+bSpCs7y2dnp7zlt8fy7dUpGQwMnfEe3ch
AgMBAAGjgdowgdcwDgYDVR0PAQH/BAQDAgWgMB0GA1UdJQQWMBQGCCsGAQUFBwMC
BggrBgEFBQcDATAdBgNVHQ4EFgQULLuxamE/k+UamQIJFfWc+ntUYJgwHwYDVR0j
BBgwFoAU6Lb2dkvQO+VGpflU1H4Hs94NYD4wOQYIKwYBBQUHAQEELTArMCkGCCsG
AQUFBzAChh1odHRwOi8vY2Euc29tZWNhLWluYy5jb20vcm9vdDAWBgNVHREEDzAN
ggtleGFtcGxlLm9yZzATBgNVHSAEDDAKMAgGBmeBDAECAjANBgkqhkiG9w0BAQsF
AAOCAQEAqZjCj3LPefshTJEEReyLTFlk9m5VWBTX4hGHAvF7XiKS1x3Og1O1GZ4V
dPSp1H0PCBPcrXHPu748KRKfNYmrg0losWKgckMQZB1aJ2lCFOIUZiVO2SNB1j3d
1jaLD5YBVgczuSMkDtvieH2nkzzqB3x9lAhW1BgZkhCUHVJII5OPMsaPP8TQFPpw
pfzjQ3b21V77kPUoRpbm/xOlA4IMk8IyyATBz4BDJ3Lj9Xc/gFJWY2TOq+QvJz3O
AJPDODW2Gaj2Vrue2Liv5De2M9xkOpky1McDWK8FQfrucMfiXg3zozY4mWGRTr4u
EAeoGNQ03WLOeRBV7nmSLXIOsmK6yw==
-----END CERTIFICATE-----
