Certificate:
    Data:
        Version: 3 (0x2)
        Serial Number:
            8c:3a:b2:de:f1:da:82:0f:7d:8a:0e:d5:b5:3f:3b:68
        Signature Algorithm: sha256WithRSAEncryption
        Issuer: C = XX, O = Some CA, CN = Fake CA for zlint testing
        Validity
            Not Before: Mar 13 00:00:00 2024 GMT
            Not After : Apr 12 00:00:00 2024 GMT
        Subject: C = XX, ST = Some State or Province, L = Somewhere, O = Some Company Ltd., CN = example.org, serialNumber = 1234567890
        Subject Public Key Info:
            Public Key Algorithm: rsaEncryption
                RSA Public-Key: (2048 bit)
                Modulus:
                    00:b0:b6:7b:19:29:8a:2a:a9:72:40:c5:5c:0b:d9:
                    a7:77:2d:a9:9b:0f:5e:f4:7b:7d:03:f5:51:90:64:
                    c7:29:41:a6:65:76:b8:26:f8:5c:93:f7:85:2d:14:
                    bf:93:e6:09:89:e6:86:f1:72:20:2f:f1:bb:57:a7:
                    57:5b:dc:f0:7c:9e:11:a5:8c:bd:7c:ca:f0:94:46:
                    95:60:be:9f:29:d7:a7:ee:8c:69:37:ac:93:9f:ca:
                    b8:e9:c3:3e:c9:71:cc:ce:70:54:f7:a0:1b:35:be:
                    b0:71:98:07:ea:e7:54:0e:d4:3e:50:59:4a:41:df:
                    9d:73:2e:d5:24:f5:e1:6e:82:2e:11:56:28:a5:03:
                    52:d2:74:64:c5:94:b0:88:27:08:8d:85:fb:34:5e:
                    70:66:8c:f9:c3:6a:20:52:99:cd:c8:ba:67:8d:7c:
                    13:a5:31:40:9e:ff:00:1e:e4:61:fe:f7:ad:34:9c:
                    53:4e:28:09:9a:f5:b1:42:e0:3f:2e:22:77:8b:a5:
                    da:67:3f:c3:8c:1b:72:19:1c:9f:52:a8:30:fe:ae:
                    79:0c:2f:c2:65:c0:f1:28:cf:72:ce:90:40:d8:ec:
                    00:b2:ce:31:98:44:d7:0e:fd:91:3f:02:c3:bd:d8:
                    ad:84:1e:a0:01:43:66:17:39:74:84:c6:11:5f:c4:
                    16:bf
                Exponent: 65537 (0x10001)
        X509v3 extensions:
            X509v3 Key Usage: critical
                Digital Signature, Key Encipherment
            X509v3 Extended Key Usage: 
                TLS Web Client Authentication, TLS Web Server Authentication
            X509v3 Subject Key Identifier: 
                14:00:22:79:17:79:B1:4F:4B:C8:AD:95:97:8C:0A:BA:59:D6:CD:14
            X509v3 Authority Key Identifier: 
                keyid:E8:B6:F6:76:4B:D0:3B:E5:46:A5:F9:54:D4:7E:07:B3:DE:0D:60:3E

            Authority Information Access: 
                CA Issuers - URI:http://ca.someca-inc.com/root

            X509v3 Subject Alternative Name: 
                DNS:example.org
            X509v3 Certificate Policies: 
                Policy: 2.23.140.1.2.2

    Signature Algorithm: sha256WithRSAEncryption
         2d:7f:ad:61:4e:c8:25:91:af:70:80:0c:f8:40:40:08:9e:1a:
         ce:0f:bd:ee:e0:25:12:22:1e:0a:7f:f2:05:70:ce:67:e6:f4:
         f6:4d:87:0c:eb:53:59:fd:cd:6b:8f:cb:bb:b9:fc:06:f7:8a:
         25:ee:3f:ff:42:d6:75:2b:4b:01:10:86:f5:14:8e:43:e2:0c:
         26:50:11:38:b9:87:31:65:36:49:c4:9e:30:40:34:c4:6a:63:
         ed:d3:cf:d8:23:6f:d7:1f:7b:18:f9:2d:4c:f9:12:35:0e:57:
         7e:cc:58:f7:ce:66:29:0b:2b:d7:85:48:0f:1d:6c:13:3f:9f:
         91:b3:00:03:d8:68:ac:6a:ec:f8:24:90:c6:67:bd:0a:b0:ae:
         fe:71:0c:f9:4f:7d:e2:59:0c:4c:e0:50:25:8f:6b:6d:db:96:
         bf:d7:2c:8f:3c:57:7f:8e:19:d6:d1:a8:8f:93:87:7e:73:10:
         78:2f:32:a8:57:da:69:38:ac:7f:8f:60:1d:fc:96:40:83:ba:
         c5:72:a3:9d:2f:34:7d:5d:0a:51:d9:33:b8:2d:2a:63:0f:d6:
         c9:4e:c4:e8:0e:0a:19:b2:20:7b:80:ea:0d:55:b1:ee:56:60:
         67:fb:57:87:09:0b:97:a5:c1:76:92:5d:d8:6a:0a:51:13:31:
         d6:33:a3:37
-----BEGIN CERTIFICATE-----
MIIEMzCCAxugAwIBAgIRAIw6st7x2oIPfYoO1bU/O2gwDQYJKoZIhvcNAQELBQAw
QzELMAkGA1UEBhMCWFgxEDAOBgNVBAoTB1NvbWUgQ0ExIjAgBgNVBAMTGUZha2Ug
Q0EgZm9yIHpsaW50IHRlc3RpbmcwHhcNMjQwMzEzMDAwMDAwWhcNMjQwNDEyMDAw
MDAwWjCBiTELMAkGA1UEBhMCWFgxHzAdBgNVBAgTFlNvbWUgU3RhdGUgb3IgUHJv
dmluY2UxEjAQBgNVBAcTCVNvbWV3aGVyZTEaMBgGA1UEChMRU29tZSBDb21wYW55
IEx0ZC4xFDASBgNVBAMTC2V4YW1wbGUub3JnMRMwEQYDVQQFEwoxMjM0NTY3ODkw
MIIBIjANBgkqhkiG9w0BAQEFAAOCAQ8AMIIBCgKCAQEAsLZ7GSmKKqlyQMVcC9mn
dy2pmw9e9Ht9A/VRkGTHKUGmZXa4Jvhck/eFLRS/k+YJieaG8XIgL/G7V6dXW9zw
fJ4RpYy9fMrwlEaVYL6fKden7oxpN6yTn8q46cM+yXHMznBU96AbNb6wcZgH6udU
DtQ+UFlKQd+dcy7VJPXhboIuEVYopQNS0nRkxZSwiCcIjYX7NF5wZoz5w2ogUpnN
yLpnjXwTpTFAnv8AHuRh/vetNJxTTigJmvWxQuA/LiJ3i6XaZz/DjBtyGRyfUqgw
/q55DC/CZcDxKM9yzpBA2OwAss4xmETXDv2RPwLDvdithB6gAUNmFzl0hMYRX8QW
vwIDAQABo4HaMIHXMA4GA1UdDwEB/wQEAwIFoDAdBgNVHSUEFjAUBggrBgEFBQcD
AgYIKwYBBQUHAwEwHQYDVR0OBBYEFBQAInkXebFPS8itlZeMCrpZ1s0UMB8GA1Ud
IwQYMBaAFOi29nZL0DvlRqX5VNR+B7PeDWA+MDkGCCsGAQUFBwEBBC0wKzApBggr
BgEFBQcwAoYdaHR0cDovL2NhLnNvbWVjYS1pbmMuY29tL3Jvb3QwFgYDVR0RBA8w
DYILZXhhbXBsZS5vcmcwEwYDVR0gBAwwCjAIBgZngQwBAgIwDQYJKoZIhvcNAQEL
BQADggEBAC1/rWFOyCWRr3CADPhAQAieGs4Pve7gJRIiHgp/8gVwzmfm9PZNhwzr
U1n9zWuPy7u5/Ab3iiXuP/9C1nUrSwEQhvUUjkPiDCZQETi5hzFlNknEnjBANMRq
Y+3Tz9gjb9cfexj5LUz5EjUOV37MWPfOZikLK9eFSA8dbBM/n5GzAAPYaKxq7Pgk
kMZnvQqwrv5xDPlPfeJZDEzgUCWPa23blr/XLI88V3+OGdbRqI+Th35zEHgvMqhX
2mk4rH+PYB38lkCDusVyo50vNH1dClHZM7gtKmMP1slOxOgOChmyIHuA6g1Vse5W
YGf7V4cJC5elwXaSXdhqClETMdYzozc=
-----END CERTIFICATE-----
