Certificate:
    Data:
        Version: 3 (0x2)
        Serial Number:
            c7:d9:cc:ab:4f:a2:49:1c:c7:5f:e4:9b:02:3d:bc:bd
        Signature Algorithm: sha256WithRSAEncryption
        Issuer: C = XX, O = Some CA, CN = Fake CA for zlint testing
        Validity
            Not Before: Jun  9 06:33:26 2025 GMT
            Not After : Jul  9 06:33:26 2025 GMT
        Subject: C = XX, ST = Some State or Province, L = Somewhere, O = Some Company Ltd., CN = example.org, serialNumber = 1234567890
        Subject Public Key Info:
            Public Key Algorithm: rsaEncryption
                RSA Public-Key: (2048 bit)
                Modulus:
                    00:b8:ca:72:dd:55:c9:99:f9:bd:18:bd:81:e0:7b:
                    39:82:be:0d:2d:05:96:99:02:05:a9:61:f9:0d:e2:
                    54:1f:97:7f:97:5e:13:0a:56:f2:af:a4:0d:b4:0c:
                    2d:e1:97:17:3d:57:69:62:ac:35:bd:5b:5b:c4:9a:
                    89:f2:64:37:e0:d0:32:61:96:e8:76:2a:15:93:a4:
                    a4:64:a1:04:81:6c:bb:17:65:1c:9c:a7:ae:a0:6a:
                    0c:ec:a2:dd:3b:4c:bc:6e:3c:97:0a:88:38:83:81:
                    65:43:c9:61:15:24:10:00:77:3d:33:e3:44:1e:14:
                    64:c6:45:44:a8:f0:0c:5b:ec:87:d7:7e:77:0c:24:
                    c8:22:9b:c0:2f:be:95:9e:a0:cd:35:f3:ba:82:fa:
                    3e:1a:76:ae:20:c7:6f:4e:0b:16:4f:91:e2:e5:b5:
                    df:5a:44:42:15:5d:55:6d:4f:38:8a:a9:87:5a:a3:
                    ea:a9:02:99:b1:ab:41:f8:87:3d:03:ab:17:39:b9:
                    73:7d:5e:2d:2b:ea:e9:2a:c1:14:3b:15:08:42:5f:
                    61:b4:60:15:0c:22:32:7b:77:bd:ad:8e:e2:8a:45:
                    fd:49:de:24:f7:b3:5a:53:09:1e:d3:58:17:46:4c:
                    bc:9e:30:a5:1b:36:e6:ad:55:28:00:59:26:a7:fe:
                    20:f7
                Exponent: 65537 (0x10001)
        X509v3 extensions:
            X509v3 Key Usage: critical
                Digital Signature, Key Encipherment
            X509v3 Extended Key Usage: 
                TLS Web Client Authentication, TLS Web Server Authentication
            X509v3 Subject Key Identifier: 
                B2:1E:66:B5:98:FE:9F:9E:28:EF:B7:7A:48:33:82:BE:DB:1F:84:D1
            X509v3 Authority Key Identifier: 
                keyid:E8:B6:F6:76:4B:D0:3B:E5:46:A5:F9:54:D4:7E:07:B3:DE:0D:60:3E

            Authority Information Access: 
                OCSP - URI:http://ca.someca-inc.com/ocsp
                CA Issuers - URI:http://ca.someca-inc.com/root

            X509v3 Subject Alternative Name: 
                DNS:example.org
            X509v3 Certificate Policies: 
                Policy: 2.23.140.1.2.2

    Signature Algorithm: sha256WithRSAEncryption
         0a:b6:14:57:37:2c:eb:60:5b:ef:5c:be:d0:5a:23:ba:ea:47:
         23:e8:42:f1:7b:d2:6f:5d:a1:9d:91:46:5e:48:83:0b:fc:36:
         8c:d3:c8:6e:0e:d0:8f:cc:ec:54:eb:3a:ea:e5:ec:1f:4f:41:
         13:fb:e1:92:a2:79:4d:47:2f:d0:f9:42:1d:13:3e:89:2a:2f:
         62:bb:42:84:96:9c:5f:ea:a3:56:38:5b:19:ae:6a:26:91:f4:
         c5:66:4a:ef:c3:78:d8:1c:d0:f5:16:7b:a0:31:0f:7d:ac:ac:
         42:14:7d:49:ad:bf:9d:af:b9:62:1e:29:7f:4e:5f:e0:bd:73:
         d4:1b:b9:b3:f0:56:8e:13:a8:a6:37:56:5d:d3:7f:2d:39:7d:
         45:5c:dd:40:6a:f9:dc:8a:94:b3:a2:23:93:3c:e3:1e:57:a2:
         4f:04:76:33:88:dc:91:a4:e3:17:f2:f0:af:9f:6d:51:98:ca:
         10:f4:bd:5c:60:c0:f3:2a:ee:cb:d0:1d:23:9e:ef:be:c0:d0:
         e3:34:7e:8e:b4:d8:3e:25:7f:4f:ec:80:eb:f2:d5:c9:c6:e4:
         e6:ad:e3:00:a7:85:b1:95:92:3a:7f:7b:20:05:7e:4b:82:31:
         cb:06:6a:9e:6b:61:d2:8c:96:29:e8:11:f7:ad:bf:e0:56:b1:
         19:01:a9:ae
-----BEGIN CERTIFICATE-----
MIIEYDCCA0igAwIBAgIRAMfZzKtPokkcx1/kmwI9vL0wDQYJKoZIhvcNAQELBQAw
QzELMAkGA1UEBhMCWFgxEDAOBgNVBAoTB1NvbWUgQ0ExIjAgBgNVBAMTGUZha2Ug
Q0EgZm9yIHpsaW50IHRlc3RpbmcwHhcNMjUwNjA5MDYzMzI2WhcNMjUwNzA5MDYz
MzI2WjCBiTELMAkGA1UEBhMCWFgxHzAdBgNVBAgTFlNvbWUgU3RhdGUgb3IgUHJv
dmluY2UxEjAQBgNVBAcTCVNvbWV3aGVyZTEaMBgGA1UEChMRU29tZSBDb21wYW55
IEx0ZC4xFDASBgNVBAMTC2V4YW1wbGUub3JnMRMwEQYDVQQFEwoxMjM0NTY3ODkw
MIIBIjANBgkqhkiG9w0BAQEFAAOCAQ8AMIIBCgKCAQEAuMpy3VXJmfm9GL2B4Hs5
gr4NLQWWmQIFqWH5DeJUH5d/l14TClbyr6QNtAwt4ZcXPVdpYqw1vVtbxJqJ8mQ3
4NAyYZbodioVk6SkZKEEgWy7F2UcnKeuoGoM7KLdO0y8bjyXCog4g4FlQ8lhFSQQ
AHc9M+NEHhRkxkVEqPAMW+yH1353DCTIIpvAL76VnqDNNfO6gvo+GnauIMdvTgsW
T5Hi5bXfWkRCFV1VbU84iqmHWqPqqQKZsatB+Ic9A6sXOblzfV4tK+rpKsEUOxUI
Ql9htGAVDCIye3e9rY7iikX9Sd4k97NaUwke01gXRky8njClGzbmrVUoAFkmp/4g
9wIDAQABo4IBBjCCAQIwDgYDVR0PAQH/BAQDAgWgMB0GA1UdJQQWMBQGCCsGAQUF
BwMCBggrBgEFBQcDATAdBgNVHQ4EFgQUsh5mtZj+n54o77d6SDOCvtsfhNEwHwYD
VR0jBBgwFoAU6Lb2dkvQO+VGpflU1H4Hs94NYD4wZAYIKwYBBQUHAQEEWDBWMCkG
CCsGAQUFBzABhh1odHRwOi8vY2Euc29tZWNhLWluYy5jb20vb2NzcDApBggrBgEF
BQcwAoYdaHR0cDovL2NhLnNvbWVjYS1pbmMuY29tL3Jvb3QwFgYDVR0RBA8wDYIL
ZXhhbXBsZS5vcmcwEwYDVR0gBAwwCjAIBgZngQwBAgIwDQYJKoZIhvcNAQELBQAD
ggEBAAq2FFc3LOtgW+9cvtBaI7rqRyPoQvF70m9doZ2RRl5Igwv8NozTyG4O0I/M
7FTrOurl7B9PQRP74ZKieU1HL9D5Qh0TPokqL2K7QoSWnF/qo1Y4WxmuaiaR9MVm
Su/DeNgc0PUWe6AxD32srEIUfUmtv52vuWIeKX9OX+C9c9QbubPwVo4TqKY3Vl3T
fy05fUVc3UBq+dyKlLOiI5M84x5Xok8EdjOI3JGk4xfy8K+fbVGYyhD0vVxgwPMq
7svQHSOe777A0OM0fo602D4lf0/sgOvy1cnG5Oat4wCnhbGVkjp/eyAFfkuCMcsG
ap5rYdKMlinoEfetv+BWsRkBqa4=
-----END CERTIFICATE-----
