Certificate:
    Data:
        Version: 3 (0x2)
        Serial Number:
            64:b5:fe:d8:23:f5:9c:04:5a:9d:6d:02:2a:07:d4:76
        Signature Algorithm: sha256WithRSAEncryption
        Issuer: C = XX, O = Some CA, CN = Fake CA for zlint testing
        Validity
            Not Before: Jun  9 06:35:18 2025 GMT
            Not After : Jul  9 06:35:18 2025 GMT
        Subject: C = XX, ST = Some State or Province, L = Somewhere, O = Some Company Ltd., CN = example.org, serialNumber = 1234567890
        Subject Public Key Info:
            Public Key Algorithm: rsaEncryption
                RSA Public-Key: (2048 bit)
                Modulus:
                    00:9f:9c:49:49:5f:90:d9:3e:54:10:5a:50:85:d3:
                    82:30:39:51:a0:df:2b:d1:1e:e7:13:ad:5d:14:6a:
                    80:e9:90:ba:fc:6b:01:09:b9:4e:6d:e8:17:49:be:
                    e7:35:39:7a:01:ab:53:a0:f4:c1:03:d6:3e:68:28:
                    44:62:e6:cd:fa:37:57:01:9c:fa:6c:5f:5a:06:c9:
                    df:d3:9f:87:f0:ff:fe:6f:fe:cd:ad:95:c8:7d:2f:
                    92:9c:0f:ae:06:15:4c:62:bd:18:5b:96:27:1d:32:
                    67:49:f9:40:41:e4:26:1b:86:f2:6c:2a:c9:b7:75:
                    1e:df:df:50:a7:01:ba:b7:d4:cd:f1:da:0b:86:3a:
                    87:16:3c:94:f0:8c:92:aa:a3:9e:5a:56:cd:7e:55:
                    50:17:a8:00:b0:d8:ed:e0:a5:6e:04:2d:1b:50:06:
                    02:84:15:9c:fc:d1:35:7b:38:c9:c5:8d:48:63:1f:
                    b0:b3:c2:dc:5b:51:ac:f7:d4:73:93:b5:c7:e2:1f:
                    5a:37:92:6b:1c:09:0c:8d:cd:45:c4:e2:24:eb:4c:
                    da:9a:71:73:e0:59:9b:99:3b:03:83:9b:7d:74:90:
                    40:bc:56:c7:c6:65:c2:d0:ab:74:a2:89:c7:16:85:
                    0c:15:2c:77:5e:a6:17:8c:c8:00:fc:9a:5d:a0:15:
                    35:c9
                Exponent: 65537 (0x10001)
        X509v3 extensions:
            X509v3 Key Usage: critical
                Digital Signature, Key Encipherment
            X509v3 Extended Key Usage: 
                TLS Web Client Authentication, TLS Web Server Authentication
            X509v3 Subject Key Identifier: 
                9E:0C:AA:3D:D9:ED:32:0A:50:5C:7C:72:F2:B3:A3:31:27:E4:A2:3B
            X509v3 Authority Key Identifier: 
                keyid:E8:B6:F6:76:4B:D0:3B:E5:46:A5:F9:54:D4:7E:07:B3:DE:0D:60:3E

            Authority Information Access: 
                CA Issuers - URI:http://ca.someca-inc.com/root

            X509v3 Subject Alternative Name: 
                DNS:example.org
            X509v3 Certificate Policies: 
                Policy: 2.23.140.1.2.2

            X509v3 CRL Distribution Points: 

                Full Name:
                  URI:http://ca.someca-inc.com/crl

    Signature Algorithm: sha256WithRSAEncryption
         36:b9:4f:07:cf:84:8d:e4:ea:77:63:e3:38:54:8b:12:3e:e7:
         2f:ee:86:06:42:d3:cc:81:6d:f2:4b:4b:e8:88:e1:cf:fc:c9:
         4b:06:6c:ba:f3:92:17:ca:91:8f:84:74:8c:35:ed:4d:52:f7:
         9a:e2:9c:f1:dc:80:d1:95:5d:c9:2b:f5:99:6d:5b:89:22:03:
         13:e6:3c:2c:d8:27:82:0e:2b:3c:68:e9:fe:62:f9:bc:23:08:
         6c:69:fe:08:90:f9:d6:6e:80:a4:bc:ef:f3:4d:ac:89:5d:05:
         c4:71:23:09:a5:31:1d:d6:f1:16:b3:e8:cf:13:de:9d:3d:3f:
         9d:01:f0:f2:28:59:1e:5c:78:87:b7:31:33:af:f7:6c:2f:e0:
         39:b5:2c:a3:24:4b:72:4e:1d:29:65:4f:b6:c4:c1:38:d8:94:
         22:95:cd:cb:79:ee:d5:79:de:fb:d8:72:2e:93:f6:88:aa:18:
         5c:49:47:4a:8d:2a:2e:27:c8:7a:b5:4f:cb:85:c9:12:a5:31:
         68:f2:17:89:3a:f2:91:3d:75:2f:cf:00:76:9a:3e:91:b1:6b:
         8c:02:04:64:5a:35:cd:73:f6:72:24:82:e6:55:d3:18:5f:30:
         3d:2b:84:10:b5:2b:7c:dd:63:70:8f:f7:a4:8c:d3:af:19:39:
         c1:3c:52:63
-----BEGIN CERTIFICATE-----
MIIEYzCCA0ugAwIBAgIQZLX+2CP1nARanW0CKgfUdjANBgkqhkiG9w0BAQsFADBD
MQswCQYDVQQGEwJYWDEQMA4GA1UEChMHU29tZSBDQTEiMCAGA1UEAxMZRmFrZSBD
QSBmb3IgemxpbnQgdGVzdGluZzAeFw0yNTA2MDkwNjM1MThaFw0yNTA3MDkwNjM1
MThaMIGJMQswCQYDVQQGEwJYWDEfMB0GA1UECBMWU29tZSBTdGF0ZSBvciBQcm92
aW5jZTESMBAGA1UEBxMJU29tZXdoZXJlMRowGAYDVQQKExFTb21lIENvbXBhbnkg
THRkLjEUMBIGA1UEAxMLZXhhbXBsZS5vcmcxEzARBgNVBAUTCjEyMzQ1Njc4OTAw
ggEiMA0GCSqGSIb3DQEBAQUAA4IBDwAwggEKAoIBAQCfnElJX5DZPlQQWlCF04Iw
OVGg3yvRHucTrV0UaoDpkLr8awEJuU5t6BdJvuc1OXoBq1Og9MED1j5oKERi5s36
N1cBnPpsX1oGyd/Tn4fw//5v/s2tlch9L5KcD64GFUxivRhblicdMmdJ+UBB5CYb
hvJsKsm3dR7f31CnAbq31M3x2guGOocWPJTwjJKqo55aVs1+VVAXqACw2O3gpW4E
LRtQBgKEFZz80TV7OMnFjUhjH7CzwtxbUaz31HOTtcfiH1o3kmscCQyNzUXE4iTr
TNqacXPgWZuZOwODm310kEC8VsfGZcLQq3SiiccWhQwVLHdepheMyAD8ml2gFTXJ
AgMBAAGjggEKMIIBBjAOBgNVHQ8BAf8EBAMCBaAwHQYDVR0lBBYwFAYIKwYBBQUH
AwIGCCsGAQUFBwMBMB0GA1UdDgQWBBSeDKo92e0yClBcfHLys6MxJ+SiOzAfBgNV
HSMEGDAWgBTotvZ2S9A75Ual+VTUfgez3g1gPjA5BggrBgEFBQcBAQQtMCswKQYI
KwYBBQUHMAKGHWh0dHA6Ly9jYS5zb21lY2EtaW5jLmNvbS9yb290MBYGA1UdEQQP
MA2CC2V4YW1wbGUub3JnMBMGA1UdIAQMMAowCAYGZ4EMAQICMC0GA1UdHwQmMCQw
IqAgoB6GHGh0dHA6Ly9jYS5zb21lY2EtaW5jLmNvbS9jcmwwDQYJKoZIhvcNAQEL
BQADggEBADa5TwfPhI3k6ndj4zhUixI+5y/uhgZC08yBbfJLS+iI4c/8yUsGbLrz
khfKkY+EdIw17U1S95rinPHcgNGVXckr9ZltW4kiAxPmPCzYJ4IOKzxo6f5i+bwj
CGxp/giQ+dZugKS87/NNrIldBcRxIwmlMR3W8Raz6M8T3p09P50B8PIoWR5ceIe3
MTOv92wv4Dm1LKMkS3JOHSllT7bEwTjYlCKVzct57tV53vvYci6T9oiqGFxJR0qN
Ki4nyHq1T8uFyRKlMWjyF4k68pE9dS/PAHaaPpGxa4wCBGRaNc1z9nIkguZV0xhf
MD0rhBC1K3zdY3CP96SM068ZOcE8UmM=
-----END CERTIFICATE-----
