Certificate:
    Data:
        Version: 3 (0x2)
        Serial Number:
            f7:ef:9c:52:2c:52:ca:3d:7b:12:39:4b:8e:0f:d3:21
        Signature Algorithm: sha256WithRSAEncryption
        Issuer: C = XX, O = Some CA, CN = Fake Root CA for zlint testing
        Validity
            Not Before: Jun 21 09:06:46 2025 GMT
            Not After : Jun 20 09:06:46 2030 GMT
        Subject: C = XX, ST = Some State, L = Some Locality, O = Some CA, CN = Fake CA for zlint testing
        Subject Public Key Info:
            Public Key Algorithm: rsaEncryption
                RSA Public-Key: (4096 bit)
                Modulus:
                    00:a2:2e:ba:50:e0:e5:d7:b4:ca:b7:24:84:1e:84:
                    53:4a:7d:48:70:91:8e:48:02:16:9c:08:79:bb:a8:
                    ee:9b:34:3c:3b:05:54:5d:a4:76:7b:a2:f1:7a:84:
                    29:c6:84:ba:e5:63:a4:3c:69:90:4a:1d:c4:8b:9c:
                    88:a2:d6:92:ac:c4:87:fa:11:ab:8a:21:58:e7:38:
                    ef:ef:1f:96:6f:b3:9e:86:d0:2c:27:ee:ea:00:ff:
                    3f:6e:b3:3e:e3:1a:09:38:44:ef:58:4e:ec:8c:9c:
                    5a:f7:f1:21:1d:42:1f:72:d6:2a:f3:47:61:00:ec:
                    5f:0b:9f:c2:8c:0f:e5:b9:9f:08:be:b3:e1:fa:b7:
                    af:79:51:0a:39:2d:34:ad:2e:c7:e6:b2:d3:f3:fb:
                    22:91:e1:e4:aa:ba:a3:4a:af:62:7c:6f:43:ec:b4:
                    30:6b:e0:8c:31:d4:04:40:29:8d:1e:a5:ca:3c:ea:
                    c9:ab:fc:b4:26:4b:ad:87:0b:e8:11:60:7e:b7:a2:
                    26:27:33:77:39:15:d0:5c:99:7b:00:47:42:b6:26:
                    b1:51:37:af:d7:ad:c3:c8:0b:64:92:ad:1e:22:bc:
                    da:4c:64:39:b5:ce:8e:ef:f8:61:21:d9:db:30:2b:
                    5a:3e:6a:31:d9:00:93:12:46:c1:3d:a4:d4:63:06:
                    76:45:75:e0:55:d5:07:8a:67:8d:42:d8:32:8f:45:
                    0f:37:3d:c2:e6:5f:5a:bd:be:09:d4:17:97:b7:2b:
                    64:36:ff:cd:32:ac:31:f3:74:e8:f1:18:ee:c1:1b:
                    bc:ab:08:31:d9:63:b8:e9:2a:92:84:24:2a:da:44:
                    3a:a3:71:63:5c:01:bc:17:82:94:51:6f:18:9e:5e:
                    48:e5:d3:31:9d:91:df:b3:1a:1b:05:16:97:05:40:
                    a8:ce:e4:8d:da:f6:a5:a6:b6:6f:38:93:83:a4:c2:
                    d5:22:58:da:56:59:94:74:ab:9b:27:3f:7a:1e:81:
                    4d:19:6e:20:70:8a:14:46:cd:a6:92:4c:a2:b3:e2:
                    ad:4b:64:ce:11:45:14:da:b6:77:be:57:d2:a2:0a:
                    cf:db:b0:17:d1:ac:08:99:2f:b8:06:a9:47:fe:0e:
                    12:0d:db:10:d3:8e:28:95:06:da:b5:14:91:66:19:
                    7d:d3:df:4e:78:f6:c4:5a:03:f1:1a:f3:31:7d:dc:
                    50:bb:46:d9:52:e2:9d:d2:6a:78:85:f8:4b:3f:4f:
                    46:7a:45:96:46:6b:b9:4c:ff:27:8a:aa:77:cf:d8:
                    d1:fd:c6:23:5e:0e:cc:34:1d:04:1f:a8:80:6a:2a:
                    e1:fc:25:a3:f3:11:c2:5c:c4:50:6c:70:b5:c8:b1:
                    a4:c7:23
                Exponent: 65537 (0x10001)
        X509v3 extensions:
            X509v3 Key Usage: critical
                Certificate Sign, CRL Sign
            X509v3 Extended Key Usage: 
                TLS Web Client Authentication, TLS Web Server Authentication
            X509v3 Basic Constraints: critical
                CA:TRUE
            X509v3 Subject Key Identifier: 
                E1:B3:08:3C:25:E6:D6:0B:91:2F:F1:98:DC:9E:F1:FB:A6:A5:F4:87
            X509v3 Authority Key Identifier: 
                keyid:E8:B6:F6:76:4B:D0:3B:E5:46:A5:F9:54:D4:7E:07:B3:DE:0D:60:3E

            X509v3 Certificate Policies: 
                Policy: X509v3 Any Policy

            X509v3 CRL Distribution Points: 

                Full Name:
                  URI:http://ca.someca-inc.com/crl

    Signature Algorithm: sha256WithRSAEncryption
         21:e5:68:7f:66:b9:23:62:34:72:65:a3:5e:3e:01:5d:e7:9f:
         b1:54:3a:12:78:d9:c2:57:6c:9b:6c:9e:1a:f4:b5:89:28:58:
         0b:65:8d:84:64:3b:8e:2f:d0:9c:e6:c5:07:32:70:c7:0f:9e:
         36:83:00:c2:dc:7e:7a:52:10:4c:e7:cd:6c:42:ab:1d:1a:04:
         ba:d1:2f:9a:62:dd:6e:35:31:43:bb:ea:cb:52:6d:bf:ec:78:
         9e:db:59:02:4e:f5:fa:99:25:6d:af:3b:1d:ca:dc:4b:57:3e:
         db:ba:5b:8f:e8:84:c8:38:0f:64:69:64:51:23:78:07:f1:05:
         0f:26:23:07:eb:b0:0f:66:62:d7:8c:87:5e:ac:4f:df:39:89:
         a1:9d:e2:dc:5f:af:83:44:cd:71:54:35:46:d9:84:83:5f:a7:
         2f:57:21:6c:5d:d9:ab:af:e9:bc:36:4d:ed:cc:d6:db:89:df:
         b0:4e:a3:7d:ae:27:1c:0f:e3:27:a3:d7:29:4b:ea:8c:9d:ed:
         0a:b0:63:ad:dc:21:3c:bb:8e:af:3e:67:d5:83:6b:3a:a3:4c:
         09:73:c5:12:99:43:44:8b:35:87:a6:71:ce:33:bb:1c:9c:29:
         a5:7a:7e:9c:f4:03:dd:8c:56:73:3e:f6:d4:b9:02:c5:e2:92:
         8a:d2:6b:94:b7:33:bf:fb:ca:36:2a:a3:ab:86:a8:27:ac:e2:
         62:56:97:51:3c:0a:d2:3c:81:c5:71:54:23:86:57:5d:54:e4:
         bf:e8:b1:6b:ee:f4:61:aa:73:38:64:85:f1:3b:6f:39:19:1d:
         72:c4:e2:e3:ce:6c:19:82:dd:2d:5e:57:1a:cb:5e:7b:e5:35:
         56:51:51:f6:61:60:80:62:69:c8:8b:db:9c:49:aa:ec:ab:69:
         8c:61:8f:db:eb:b5:de:44:c6:80:10:5d:cc:38:34:7f:c6:81:
         df:e1:8b:bf:f4:82:db:68:eb:6a:b3:cd:cd:22:0a:32:96:0c:
         e8:f0:5a:94:26:e5:d8:88:a2:2f:e4:7e:54:81:20:8a:91:cc:
         fb:a1:dc:13:ee:7f:5c:98:50:ec:2c:ba:84:9d:47:a4:7d:e9:
         35:36:37:bf:73:13:51:2b:67:00:49:fc:8d:39:c5:be:ce:72:
         c6:6e:af:fb:e3:20:a4:47:be:dd:b8:92:a7:ae:4a:aa:28:7a:
         4b:dd:12:87:89:19:9b:1f:23:3a:43:9d:b0:84:2b:9d:e1:e8:
         31:f9:f7:4f:95:0b:f3:fc:db:72:76:b0:c7:a8:fc:e0:09:35:
         97:12:a8:8c:46:8a:24:cf:7f:ef:53:32:34:78:fc:c7:d5:7d:
         f0:1c:e2:97:dc:ef:6b:ee
-----BEGIN CERTIFICATE-----
MIIGCTCCA/GgAwIBAgIRAPfvnFIsUso9exI5S44P0yEwDQYJKoZIhvcNAQELBQAw
SDELMAkGA1UEBhMCWFgxEDAOBgNVBAoTB1NvbWUgQ0ExJzAlBgNVBAMTHkZha2Ug
Um9vdCBDQSBmb3IgemxpbnQgdGVzdGluZzAeFw0yNTA2MjEwOTA2NDZaFw0zMDA2
MjAwOTA2NDZaMHAxCzAJBgNVBAYTAlhYMRMwEQYDVQQIEwpTb21lIFN0YXRlMRYw
FAYDVQQHEw1Tb21lIExvY2FsaXR5MRAwDgYDVQQKEwdTb21lIENBMSIwIAYDVQQD
ExlGYWtlIENBIGZvciB6bGludCB0ZXN0aW5nMIICIjANBgkqhkiG9w0BAQEFAAOC
Ag8AMIICCgKCAgEAoi66UODl17TKtySEHoRTSn1IcJGOSAIWnAh5u6jumzQ8OwVU
XaR2e6LxeoQpxoS65WOkPGmQSh3Ei5yIotaSrMSH+hGriiFY5zjv7x+Wb7OehtAs
J+7qAP8/brM+4xoJOETvWE7sjJxa9/EhHUIfctYq80dhAOxfC5/CjA/luZ8IvrPh
+reveVEKOS00rS7H5rLT8/sikeHkqrqjSq9ifG9D7LQwa+CMMdQEQCmNHqXKPOrJ
q/y0JkuthwvoEWB+t6ImJzN3ORXQXJl7AEdCtiaxUTev163DyAtkkq0eIrzaTGQ5
tc6O7/hhIdnbMCtaPmox2QCTEkbBPaTUYwZ2RXXgVdUHimeNQtgyj0UPNz3C5l9a
vb4J1BeXtytkNv/NMqwx83To8RjuwRu8qwgx2WO46SqShCQq2kQ6o3FjXAG8F4KU
UW8Ynl5I5dMxnZHfsxobBRaXBUCozuSN2valprZvOJODpMLVIljaVlmUdKubJz96
HoFNGW4gcIoURs2mkkyis+KtS2TOEUUU2rZ3vlfSogrP27AX0awImS+4BqlH/g4S
DdsQ044olQbatRSRZhl9099OePbEWgPxGvMxfdxQu0bZUuKd0mp4hfhLP09GekWW
Rmu5TP8niqp3z9jR/cYjXg7MNB0EH6iAairh/CWj8xHCXMRQbHC1yLGkxyMCAwEA
AaOBxTCBwjAOBgNVHQ8BAf8EBAMCAQYwHQYDVR0lBBYwFAYIKwYBBQUHAwIGCCsG
AQUFBwMBMA8GA1UdEwEB/wQFMAMBAf8wHQYDVR0OBBYEFOGzCDwl5tYLkS/xmNye
8fumpfSHMB8GA1UdIwQYMBaAFOi29nZL0DvlRqX5VNR+B7PeDWA+MBEGA1UdIAQK
MAgwBgYEVR0gADAtBgNVHR8EJjAkMCKgIKAehhxodHRwOi8vY2Euc29tZWNhLWlu
Yy5jb20vY3JsMA0GCSqGSIb3DQEBCwUAA4ICAQAh5Wh/ZrkjYjRyZaNePgFd55+x
VDoSeNnCV2ybbJ4a9LWJKFgLZY2EZDuOL9Cc5sUHMnDHD542gwDC3H56UhBM581s
QqsdGgS60S+aYt1uNTFDu+rLUm2/7Hie21kCTvX6mSVtrzsdytxLVz7buluP6ITI
OA9kaWRRI3gH8QUPJiMH67APZmLXjIderE/fOYmhneLcX6+DRM1xVDVG2YSDX6cv
VyFsXdmrr+m8Nk3tzNbbid+wTqN9riccD+Mno9cpS+qMne0KsGOt3CE8u46vPmfV
g2s6o0wJc8USmUNEizWHpnHOM7scnCmlen6c9APdjFZzPvbUuQLF4pKK0muUtzO/
+8o2KqOrhqgnrOJiVpdRPArSPIHFcVQjhlddVOS/6LFr7vRhqnM4ZIXxO285GR1y
xOLjzmwZgt0tXlcay1575TVWUVH2YWCAYmnIi9ucSarsq2mMYY/b67XeRMaAEF3M
ODR/xoHf4Yu/9ILbaOtqs83NIgoylgzo8FqUJuXYiKIv5H5UgSCKkcz7odwT7n9c
mFDsLLqEnUekfek1Nje/cxNRK2cASfyNOcW+znLGbq/74yCkR77duJKnrkqqKHpL
3RKHiRmbHyM6Q52whCud4egx+fdPlQvz/NtydrDHqPzgCTWXEqiMRookz3/vUzI0
ePzH1X3wHOKX3O9r7g==
-----END CERTIFICATE-----
