Certificate:
    Data:
        Version: 3 (0x2)
        Serial Number: 18008675309 (0x4316693ed)
    Signature Algorithm: sha256WithRSAEncryption
        Issuer: CN=Mother Nature, OU=Everything, O=Mother Nature/postalCode=postalcode, C=US
        Validity
            Not Before: Aug 24 04:13:52 2017 GMT
            Not After : Nov  5 04:13:52 2017 GMT
        Subject: CN=gov.us, OU=Chaos/street=3210 Holly Mill Run, ST=province/postalCode=30062, C=US, GN=hello
        Subject Public Key Info:
            Public Key Algorithm: rsaEncryption
                Public-Key: (2048 bit)
                Modulus:
                    00:be:61:ff:38:c6:86:ba:e7:07:07:b8:d0:36:34:
                    7f:ae:ed:99:62:86:79:38:9e:1b:6a:a3:6b:fe:85:
                    56:c7:eb:ff:42:cd:ce:3b:3d:b8:8e:24:6f:fd:29:
                    93:9d:65:7b:f4:7f:2f:c2:21:09:58:51:94:b6:e9:
                    15:ec:ab:e7:16:fa:ad:cd:44:44:9d:e1:81:db:6b:
                    a8:66:39:6b:87:26:3e:02:5e:08:be:f7:51:5d:e2:
                    70:2a:70:69:b7:fd:92:0d:1a:34:30:44:3e:ac:99:
                    9a:ca:6f:a0:ad:28:2c:72:2f:ad:5a:93:64:0e:0f:
                    13:0c:1b:82:37:ee:aa:ae:e1:4b:b5:7a:98:a1:fe:
                    50:aa:38:3c:ca:5a:26:3c:9d:b2:4d:74:75:66:07:
                    4f:e3:f6:42:6c:98:a8:fd:0a:d7:d3:fa:17:c2:8d:
                    52:01:e4:8a:63:21:f6:c1:22:19:3a:58:41:db:0c:
                    39:66:d4:4c:d7:31:0b:6e:be:d5:f6:48:39:d8:14:
                    68:b5:3e:4e:4e:c5:88:29:5c:8b:c7:12:c4:33:90:
                    fb:50:c0:80:49:09:e4:2e:7a:74:93:7e:c3:1f:1c:
                    d0:d6:0f:02:2d:c1:90:ad:b8:fb:b3:b5:1a:75:48:
                    1a:29:9f:20:08:a0:aa:c7:ab:6f:c3:60:6b:10:b2:
                    32:e9
                Exponent: 65537 (0x10001)
        X509v3 extensions:
            X509v3 Key Usage: critical
                Digital Signature, Key Encipherment
            X509v3 Extended Key Usage: 
                TLS Web Client Authentication, TLS Web Server Authentication
            X509v3 Basic Constraints: critical
                CA:FALSE
            X509v3 Authority Key Identifier: 
                keyid:01:02:03

            X509v3 Certificate Policies: 
                Policy: 2.23.140.1.2.3

            Authority Information Access: critical
                OCSP - URI:http://ss.symcd.com
                CA Issuers - URI:http://ss.symcb.com/ss.crt

    Signature Algorithm: sha256WithRSAEncryption
         9a:9e:e6:ba:fb:0c:3a:2b:3a:e3:c3:03:5b:18:20:1b:2f:0e:
         e8:d9:5d:e5:b2:51:10:10:90:69:2c:44:bb:65:16:28:31:aa:
         4c:a2:43:67:ad:13:fc:30:bd:e2:cb:1e:44:0a:29:6a:f0:fc:
         c9:d9:1e:9d:34:2f:31:11:1f:32:89:f0:fe:1f:c0:cb:c8:34:
         5e:6c:be:6a:4c:d6:a0:45:2e:05:2e:d5:9b:cd:36:a6:99:dd:
         30:fc:fa:f2:34:0f:dd:94:20:dc:10:10:2f:eb:07:94:06:ca:
         a5:4e:bd:dc:06:3c:bd:f6:89:d6:42:c8:e5:f2:65:ee:d3:7c:
         d3:6c:bb:8c:86:3f:92:98:30:59:5b:4b:ff:9d:6c:4e:c8:74:
         64:14:5d:38:70:43:71:e0:d5:a9:59:6b:62:13:9c:9e:2a:61:
         87:64:82:50:f8:02:b9:f2:a7:4a:a0:bc:e3:4e:e8:f3:b7:a9:
         95:3a:eb:41:f1:15:e0:c0:7a:f6:27:2c:4a:d1:66:6f:1d:c9:
         97:82:8f:ac:55:fa:31:95:06:e6:d5:89:27:b3:c9:2f:dd:03:
         87:aa:c0:03:18:68:6f:be:91:3c:7d:b9:96:83:ba:cf:f8:47:
         12:dd:b9:e5:43:e1:fe:53:56:61:06:c2:60:61:a4:99:dd:8a:
         24:35:78:fb
-----BEGIN CERTIFICATE-----
MIIEKDCCAxKgAwIBAgIFBDFmk+0wCwYJKoZIhvcNAQELMGkxFjAUBgNVBAMTDU1v
dGhlciBOYXR1cmUxEzARBgNVBAsTCkV2ZXJ5dGhpbmcxFjAUBgNVBAoTDU1vdGhl
ciBOYXR1cmUxEzARBgNVBBETCnBvc3RhbGNvZGUxCzAJBgNVBAYTAlVTMQAwHhcN
MTcwODI0MDQxMzUyWhcNMTcxMTA1MDQxMzUyWjCBgTEPMA0GA1UEAxMGZ292LnVz
MQ4wDAYDVQQLEwVDaGFvczEcMBoGA1UECRMTMzIxMCBIb2xseSBNaWxsIFJ1bjER
MA8GA1UECBMIcHJvdmluY2UxDjAMBgNVBBETBTMwMDYyMQswCQYDVQQGEwJVUzEO
MAwGA1UEKhMFaGVsbG8xADCCASIwDQYJKoZIhvcNAQEBBQADggEPADCCAQoCggEB
AL5h/zjGhrrnBwe40DY0f67tmWKGeTieG2qja/6FVsfr/0LNzjs9uI4kb/0pk51l
e/R/L8IhCVhRlLbpFeyr5xb6rc1ERJ3hgdtrqGY5a4cmPgJeCL73UV3icCpwabf9
kg0aNDBEPqyZmspvoK0oLHIvrVqTZA4PEwwbgjfuqq7hS7V6mKH+UKo4PMpaJjyd
sk10dWYHT+P2QmyYqP0K19P6F8KNUgHkimMh9sEiGTpYQdsMOWbUTNcxC26+1fZI
OdgUaLU+Tk7FiClci8cSxDOQ+1DAgEkJ5C56dJN+wx8c0NYPAi3BkK24+7O1GnVI
GimfIAigqserb8NgaxCyMukCAwEAAaOBwTCBvjAOBgNVHQ8BAf8EBAMCAKAwHQYD
VR0lBBYwFAYIKwYBBQUHAwIGCCsGAQUFBwMBMAwGA1UdEwEB/wQCMAAwDgYDVR0j
BAcwBYADAQIDMBMGA1UdIAQMMAowCAYGZ4EMAQIDMFoGCCsGAQUFBwEBAQH/BEsw
STAfBggrBgEFBQcwAYYTaHR0cDovL3NzLnN5bWNkLmNvbTAmBggrBgEFBQcwAoYa
aHR0cDovL3NzLnN5bWNiLmNvbS9zcy5jcnQwCwYJKoZIhvcNAQELA4IBAQCanua6
+ww6KzrjwwNbGCAbLw7o2V3lslEQEJBpLES7ZRYoMapMokNnrRP8ML3iyx5ECilq
8PzJ2R6dNC8xER8yifD+H8DLyDRebL5qTNagRS4FLtWbzTammd0w/PryNA/dlCDc
EBAv6weUBsqlTr3cBjy99onWQsjl8mXu03zTbLuMhj+SmDBZW0v/nWxOyHRkFF04
cENx4NWpWWtiE5yeKmGHZIJQ+AK58qdKoLzjTujzt6mVOutB8RXgwHr2JyxK0WZv
HcmXgo+sVfoxlQbm1Ykns8kv3QOHqsADGGhvvpE8fbmWg7rP+EcS3bnlQ+H+U1Zh
BsJgYaSZ3YokNXj7
-----END CERTIFICATE-----
