Certificate:
    Data:
        Version: 3 (0x2)
        Serial Number:
            6a:a2:9a:a7:94:67:2a:74:36:d9:2b:9e:9c:bb:fe:5e
        Signature Algorithm: sha256WithRSAEncryption
        Issuer: C = XX, O = Some CA, CN = Fake Root CA for zlint testing
        Validity
            Not Before: Apr 23 00:00:00 2023 GMT
            Not After : Apr 21 00:00:00 2028 GMT
        Subject: C = XX, ST = Some State, L = Some Locality, O = Some CA, CN = Fake CA for zlint testing
        Subject Public Key Info:
            Public Key Algorithm: rsaEncryption
                RSA Public-Key: (4096 bit)
                Modulus:
                    00:a0:70:19:ef:4a:78:5d:4a:5d:9f:c3:78:67:a1:
                    e6:b0:9b:10:5b:73:44:18:6b:7a:5e:32:96:a5:83:
                    0d:ff:50:08:22:69:b3:c0:eb:e8:1a:ab:13:68:43:
                    25:a3:80:40:f1:0e:65:1f:f9:6e:a1:71:51:a2:a3:
                    46:1a:88:7d:a5:34:24:4e:bb:6a:1d:07:0f:ef:df:
                    1f:95:60:80:a6:6c:45:8d:16:8f:75:1e:d6:6a:74:
                    2b:98:bf:6f:71:0d:4e:70:a4:62:88:da:88:71:cb:
                    39:d3:46:73:79:5c:b6:6e:1b:fa:b9:65:07:4c:91:
                    82:03:d2:29:4b:5b:cd:f1:c6:21:ee:42:84:1b:c4:
                    61:25:03:7c:c7:b6:f6:78:46:84:f8:26:e9:68:0e:
                    76:8c:a2:69:39:68:ae:e4:25:87:da:8c:e6:92:24:
                    f1:e8:e6:73:8a:27:01:c5:ec:17:71:6e:a6:46:60:
                    99:9f:b7:70:68:73:05:45:ba:a5:70:87:44:a6:79:
                    3b:ae:6e:c6:eb:b5:47:4d:cf:14:ad:7e:c9:9a:a4:
                    24:d8:18:53:a5:73:8e:b3:f6:45:f9:53:ce:5f:c2:
                    23:09:84:93:34:8f:74:c8:96:65:a5:9a:1b:f6:6d:
                    62:a7:e9:d4:a4:5e:8e:7d:fa:da:bc:9b:7b:49:5e:
                    42:95:6a:05:5e:51:a8:df:bd:5f:9a:7d:3b:f9:33:
                    ff:10:70:fc:5e:7e:4d:e6:04:dc:d2:6d:3b:05:51:
                    6d:22:5f:d6:9b:8c:c0:fa:04:3d:f5:11:58:e5:c3:
                    53:cd:0e:fe:bb:8a:2f:33:f5:b2:09:84:70:92:2f:
                    0a:66:80:91:10:d6:f0:2b:01:49:b6:20:47:a4:81:
                    16:95:0e:ff:1a:e8:b6:43:4f:81:64:f0:0d:7c:52:
                    2a:60:4e:dd:e3:51:55:42:82:a2:be:06:0f:a3:41:
                    86:7f:63:56:92:a5:e1:7e:3e:ef:89:be:89:f2:a9:
                    cb:2a:68:7b:b1:f2:c6:a6:43:2c:b9:bb:0d:b0:4b:
                    16:0c:08:46:d9:ff:7c:a2:1b:c3:ba:ea:16:71:32:
                    4e:bd:fc:e5:1b:54:c5:a5:2d:bf:34:43:85:12:a8:
                    4f:9d:ca:87:13:78:24:d0:6a:16:12:11:82:57:50:
                    fa:82:65:7d:93:7e:f5:91:f0:6f:3e:17:c0:2d:bd:
                    f6:7d:e2:f2:35:36:79:54:75:8a:03:4f:ce:eb:70:
                    3a:cb:0b:9e:53:7c:51:b8:f6:b5:ba:b8:24:26:86:
                    01:a5:68:f5:f8:ca:92:81:4e:d9:cc:a1:76:d7:55:
                    5d:54:92:eb:42:8e:55:bb:87:57:27:20:00:29:05:
                    75:ab:91
                Exponent: 65537 (0x10001)
        X509v3 extensions:
            X509v3 Key Usage: critical
                Certificate Sign, CRL Sign
            X509v3 Extended Key Usage: 
                TLS Web Client Authentication, TLS Web Server Authentication
            X509v3 Basic Constraints: critical
                CA:TRUE
            X509v3 Subject Key Identifier: 
                54:0D:06:5B:21:63:67:B8:B8:96:E0:71:B9:54:32:D4:89:A2:86:D4
            X509v3 Authority Key Identifier: 
                keyid:E8:B6:F6:76:4B:D0:3B:E5:46:A5:F9:54:D4:7E:07:B3:DE:0D:60:3E

            Authority Information Access: 
                CA Issuers - URI:https://ca.someca-inc.com/root

            X509v3 Certificate Policies: 
                Policy: X509v3 Any Policy

            X509v3 CRL Distribution Points: 

                Full Name:
                  URI:http://ca.someca-inc.com/crl

    Signature Algorithm: sha256WithRSAEncryption
         64:11:4d:b5:53:ab:8d:66:6c:d9:de:3c:4a:68:39:e2:47:ab:
         1a:29:4b:d8:3e:dc:ea:9c:e1:69:10:95:73:0c:b6:49:c2:fe:
         6b:ba:63:ee:20:5a:3f:2d:66:95:e9:cc:1b:c7:a9:37:36:8a:
         96:59:26:fd:fd:c0:1a:db:a2:26:01:72:6b:71:bb:87:fc:d1:
         76:0e:f6:0f:61:70:38:f0:9b:8d:b8:15:71:57:4c:42:2f:79:
         6a:b0:de:fe:53:cf:f3:71:50:51:bd:6a:46:35:d8:25:2d:7d:
         13:7c:07:5c:4b:5e:a3:18:50:24:a6:28:99:ab:67:36:99:79:
         45:3a:56:f3:02:d5:27:86:03:f1:dc:73:4f:7b:48:c4:8c:64:
         76:c8:d3:b0:3c:fc:93:fc:73:6f:78:60:46:63:0b:88:da:81:
         38:53:3c:c0:be:79:7f:12:d5:80:52:7f:b5:4c:89:1e:d4:8b:
         a8:d3:a2:d1:d7:fc:79:d2:01:d5:a5:6b:74:e7:34:2a:30:64:
         0d:46:8d:84:d4:4d:54:94:0f:16:9f:da:4b:92:c6:9a:f2:44:
         4d:8c:06:da:89:73:2b:c6:de:ec:96:09:d4:90:a7:d8:26:96:
         f7:86:ad:83:c7:0a:a5:81:34:91:34:62:33:7a:c3:a0:76:61:
         f9:8e:c4:9b:0c:99:03:5a:40:1b:93:bf:14:11:58:be:f5:a3:
         a0:93:7e:31:74:e5:4f:5b:d8:8c:49:97:ff:b8:2a:29:73:8d:
         51:bd:12:ab:05:fe:5a:71:c7:e3:1a:01:e3:7e:90:78:f8:22:
         11:6f:0c:82:cb:57:61:56:0e:8c:27:77:c9:b9:40:2c:c7:1e:
         83:8e:4c:d2:ce:cf:58:50:34:49:60:fd:dd:ac:c9:8a:b4:51:
         8f:6b:dc:a6:e0:e2:36:7e:de:a0:35:01:85:19:5b:8c:4b:0f:
         17:42:fc:1e:91:c0:ed:b0:ac:17:7c:4c:c1:51:7d:02:57:c9:
         09:9a:4b:44:5e:c9:a3:a1:7b:45:c4:d4:f9:9e:9c:1a:4f:6b:
         31:32:08:63:dd:0c:f4:d6:d9:58:5b:b7:d6:12:b5:6f:10:65:
         51:9d:03:c5:8d:e2:57:4e:ab:41:95:3a:7f:01:d7:45:64:60:
         f2:7c:e2:76:91:8a:33:48:23:da:7c:1e:d2:5b:7f:aa:09:97:
         fa:78:68:77:6a:a7:81:89:ce:41:23:c5:ad:b5:b1:b1:f2:ea:
         80:3c:8c:52:d3:18:02:bb:ac:05:6a:af:0b:07:18:2e:ef:bd:
         78:0d:4a:53:8d:95:46:54:40:c9:21:e5:f6:62:be:a0:9e:c7:
         4f:55:94:68:ae:f1:ca:5a
-----BEGIN CERTIFICATE-----
MIIGRTCCBC2gAwIBAgIQaqKap5RnKnQ22SuenLv+XjANBgkqhkiG9w0BAQsFADBI
MQswCQYDVQQGEwJYWDEQMA4GA1UEChMHU29tZSBDQTEnMCUGA1UEAxMeRmFrZSBS
b290IENBIGZvciB6bGludCB0ZXN0aW5nMB4XDTIzMDQyMzAwMDAwMFoXDTI4MDQy
MTAwMDAwMFowcDELMAkGA1UEBhMCWFgxEzARBgNVBAgTClNvbWUgU3RhdGUxFjAU
BgNVBAcTDVNvbWUgTG9jYWxpdHkxEDAOBgNVBAoTB1NvbWUgQ0ExIjAgBgNVBAMT
GUZha2UgQ0EgZm9yIHpsaW50IHRlc3RpbmcwggIiMA0GCSqGSIb3DQEBAQUAA4IC
DwAwggIKAoICAQCgcBnvSnhdSl2fw3hnoeawmxBbc0QYa3peMpalgw3/UAgiabPA
6+gaqxNoQyWjgEDxDmUf+W6hcVGio0YaiH2lNCROu2odBw/v3x+VYICmbEWNFo91
HtZqdCuYv29xDU5wpGKI2ohxyznTRnN5XLZuG/q5ZQdMkYID0ilLW83xxiHuQoQb
xGElA3zHtvZ4RoT4JuloDnaMomk5aK7kJYfajOaSJPHo5nOKJwHF7BdxbqZGYJmf
t3BocwVFuqVwh0SmeTuubsbrtUdNzxStfsmapCTYGFOlc46z9kX5U85fwiMJhJM0
j3TIlmWlmhv2bWKn6dSkXo59+tq8m3tJXkKVagVeUajfvV+afTv5M/8QcPxefk3m
BNzSbTsFUW0iX9abjMD6BD31EVjlw1PNDv67ii8z9bIJhHCSLwpmgJEQ1vArAUm2
IEekgRaVDv8a6LZDT4Fk8A18UipgTt3jUVVCgqK+Bg+jQYZ/Y1aSpeF+Pu+Jvony
qcsqaHux8samQyy5uw2wSxYMCEbZ/3yiG8O66hZxMk69/OUbVMWlLb80Q4USqE+d
yocTeCTQahYSEYJXUPqCZX2TfvWR8G8+F8AtvfZ94vI1NnlUdYoDT87rcDrLC55T
fFG49rW6uCQmhgGlaPX4ypKBTtnMoXbXVV1UkutCjlW7h1cnIAApBXWrkQIDAQAB
o4IBATCB/jAOBgNVHQ8BAf8EBAMCAQYwHQYDVR0lBBYwFAYIKwYBBQUHAwIGCCsG
AQUFBwMBMA8GA1UdEwEB/wQFMAMBAf8wHQYDVR0OBBYEFFQNBlshY2e4uJbgcblU
MtSJoobUMB8GA1UdIwQYMBaAFOi29nZL0DvlRqX5VNR+B7PeDWA+MDoGCCsGAQUF
BwEBBC4wLDAqBggrBgEFBQcwAoYeaHR0cHM6Ly9jYS5zb21lY2EtaW5jLmNvbS9y
b290MBEGA1UdIAQKMAgwBgYEVR0gADAtBgNVHR8EJjAkMCKgIKAehhxodHRwOi8v
Y2Euc29tZWNhLWluYy5jb20vY3JsMA0GCSqGSIb3DQEBCwUAA4ICAQBkEU21U6uN
ZmzZ3jxKaDniR6saKUvYPtzqnOFpEJVzDLZJwv5rumPuIFo/LWaV6cwbx6k3NoqW
WSb9/cAa26ImAXJrcbuH/NF2DvYPYXA48JuNuBVxV0xCL3lqsN7+U8/zcVBRvWpG
NdglLX0TfAdcS16jGFAkpiiZq2c2mXlFOlbzAtUnhgPx3HNPe0jEjGR2yNOwPPyT
/HNveGBGYwuI2oE4UzzAvnl/EtWAUn+1TIke1Iuo06LR1/x50gHVpWt05zQqMGQN
Ro2E1E1UlA8Wn9pLksaa8kRNjAbaiXMrxt7slgnUkKfYJpb3hq2DxwqlgTSRNGIz
esOgdmH5jsSbDJkDWkAbk78UEVi+9aOgk34xdOVPW9iMSZf/uCopc41RvRKrBf5a
ccfjGgHjfpB4+CIRbwyCy1dhVg6MJ3fJuUAsxx6DjkzSzs9YUDRJYP3drMmKtFGP
a9ym4OI2ft6gNQGFGVuMSw8XQvwekcDtsKwXfEzBUX0CV8kJmktEXsmjoXtFxNT5
npwaT2sxMghj3Qz01tlYW7fWErVvEGVRnQPFjeJXTqtBlTp/AddFZGDyfOJ2kYoz
SCPafB7SW3+qCZf6eGh3aqeBic5BI8WttbGx8uqAPIxS0xgCu6wFaq8LBxgu7714
DUpTjZVGVEDJIeX2Yr6gnsdPVZRorvHKWg==
-----END CERTIFICATE-----
