Certificate:
    Data:
        Version: 3 (0x2)
        Serial Number: 18008675984 (0x431669690)
    Signature Algorithm: sha256WithRSAEncryption
        Issuer: C = US, O = Mother Nature, OU = Everything, CN = Mother Nature
        Validity
            Not Before: Aug  8 20:07:57 2016 GMT
            Not After : Oct 20 20:07:57 2016 GMT
        Subject: C = US, ST = FL, L = Tallahassee, street = 3210 Holly Mill Run, postalCode = 30062, O = Extreme Discord, OU = Chaos, CN = gov.us
        Subject Public Key Info:
            Public Key Algorithm: rsaEncryption
                Public-Key: (2048 bit)
                Modulus:
                    00:a4:3c:c9:1c:8f:8a:56:bc:ad:3a:c4:cd:30:cd:
                    e3:d2:d5:f0:b6:2f:04:d6:31:7e:8f:37:87:00:d2:
                    d7:2b:a0:71:52:31:8f:6a:fa:0f:f5:74:b9:da:82:
                    6c:b1:c9:cd:1d:17:ad:ef:9b:bd:2d:ca:65:ed:31:
                    73:d4:a7:e1:59:33:ca:a8:c8:ce:53:bf:f6:7f:94:
                    16:e9:1a:32:07:ec:37:59:a9:7b:89:e5:c9:3a:23:
                    24:11:cb:b7:b5:9f:87:94:78:18:d2:ca:99:81:56:
                    b6:86:63:7e:34:13:21:7b:b7:e2:7f:8e:0d:a3:4b:
                    38:48:ff:dd:84:91:b0:30:d2:60:93:56:3a:e7:cf:
                    8c:7c:9f:27:89:9c:c8:7c:e9:ad:77:b7:27:60:8d:
                    1f:82:26:0e:69:7e:ec:e2:ee:78:e1:5d:8a:82:c6:
                    50:3b:45:38:0e:6e:4b:09:f4:c8:71:57:ee:81:f7:
                    6b:ac:64:0b:77:6d:17:e1:1c:15:55:24:6d:72:1c:
                    28:36:6f:80:fb:4c:cc:cd:53:17:f5:b1:51:76:35:
                    fd:21:36:4b:61:20:da:90:41:e5:91:3a:b4:57:73:
                    24:d5:e0:24:98:2f:9c:af:98:be:37:19:fd:aa:42:
                    d9:93:87:ab:92:b4:35:2d:9e:43:6a:bf:4d:9a:9c:
                    74:27
                Exponent: 65537 (0x10001)
        X509v3 extensions:
            X509v3 Key Usage: critical
                Digital Signature, Key Encipherment, Certificate Sign
            X509v3 Extended Key Usage: 
                TLS Web Client Authentication, TLS Web Server Authentication
            X509v3 Basic Constraints: critical
                CA:FALSE, pathlen:-8
            Authority Information Access: 
                OCSP - URI:http://theca.net/ocsp
                CA Issuers - URI:http://theca.net/totallythecert.crt

            X509v3 Certificate Policies: 
                Policy: 1.3.6.1.5.5.7.13.1
                Policy: 2.23.140.1.2.2

            X509v3 Subject Key Identifier: 
                04:03:02:01
            X509v3 Subject Alternative Name: 
                0....+.....[.:..0.1.0...U.
..Extreme Discord....+.....[......*......Mother Nature....partyName..*.gov.us..gov.us..admin@gov.us..https://gov.us/home...

.
            X509v3 Issuer Alternative Name: 
                DNS:allthethings.net, DNS:allthemthings.net, DNS:theca.net
            X509v3 Authority Key Identifier: 
                keyid:01:02:03:04
                serial:1C:BD:7D:87:57

    Signature Algorithm: sha256WithRSAEncryption
         57:a4:1b:ab:7a:95:3c:29:e0:0f:27:f8:0b:fc:d2:65:bb:80:
         da:33:ee:38:fb:e4:4c:b7:b2:b9:1c:c9:6e:99:e5:d5:da:3a:
         03:ff:b8:12:c2:67:12:14:9d:c7:68:7a:f7:63:8d:c4:25:9e:
         fa:46:e9:9c:35:b9:a3:5e:43:18:2e:b2:b3:c0:51:f1:29:22:
         3f:56:f8:3c:02:ad:fc:20:67:05:89:8c:a0:76:e7:90:9e:d2:
         65:dd:a7:f1:d6:e8:ef:83:5c:5b:0f:f2:0e:a4:da:78:de:20:
         ec:e5:ac:94:bf:aa:40:43:5e:ba:b3:1d:ed:15:41:95:ce:08:
         7e:56:9a:4b:62:54:2a:31:d8:2b:88:bf:5a:b6:1e:ca:d2:cc:
         5c:71:fc:64:6d:a9:5b:d6:83:9e:03:d6:a7:6a:f5:ec:b9:08:
         ca:9f:f7:86:98:8a:44:f4:25:22:ab:5a:98:dc:66:3d:70:b9:
         71:41:2c:20:b2:d8:0a:de:e3:36:d8:2f:fc:2b:24:29:b9:38:
         db:7c:fe:c8:07:ff:49:a3:de:8f:ae:a2:6c:5b:b9:e8:2a:bf:
         90:3f:e4:b9:96:9c:f9:12:c7:59:0f:92:c0:70:95:75:ae:21:
         cf:35:5a:34:be:1d:2a:af:f0:57:ea:a2:7e:9c:89:eb:49:e7:
         4d:a6:cd:9a
-----BEGIN CERTIFICATE-----
MIIFPTCCBCWgAwIBAgIFBDFmlpAwDQYJKoZIhvcNAQELBQAwUjELMAkGA1UEBhMC
VVMxFjAUBgNVBAoTDU1vdGhlciBOYXR1cmUxEzARBgNVBAsTCkV2ZXJ5dGhpbmcx
FjAUBgNVBAMTDU1vdGhlciBOYXR1cmUwHhcNMTYwODA4MjAwNzU3WhcNMTYxMDIw
MjAwNzU3WjCBmTELMAkGA1UEBhMCVVMxCzAJBgNVBAgTAkZMMRQwEgYDVQQHEwtU
YWxsYWhhc3NlZTEcMBoGA1UECRMTMzIxMCBIb2xseSBNaWxsIFJ1bjEOMAwGA1UE
ERMFMzAwNjIxGDAWBgNVBAoTD0V4dHJlbWUgRGlzY29yZDEOMAwGA1UECxMFQ2hh
b3MxDzANBgNVBAMTBmdvdi51czCCASIwDQYJKoZIhvcNAQEBBQADggEPADCCAQoC
ggEBAKQ8yRyPila8rTrEzTDN49LV8LYvBNYxfo83hwDS1yugcVIxj2r6D/V0udqC
bLHJzR0Xre+bvS3KZe0xc9Sn4VkzyqjIzlO/9n+UFukaMgfsN1mpe4nlyTojJBHL
t7Wfh5R4GNLKmYFWtoZjfjQTIXu34n+ODaNLOEj/3YSRsDDSYJNWOufPjHyfJ4mc
yHzprXe3J2CNH4ImDml+7OLueOFdioLGUDtFOA5uSwn0yHFX7oH3a6xkC3dtF+Ec
FVUkbXIcKDZvgPtMzM1TF/WxUXY1/SE2S2Eg2pBB5ZE6tFdzJNXgJJgvnK+YvjcZ
/apC2ZOHq5K0NS2eQ2q/TZqcdCcCAwEAAaOCAdAwggHMMA4GA1UdDwEB/wQEAwIC
pDAdBgNVHSUEFjAUBggrBgEFBQcDAgYIKwYBBQUHAwEwDwYDVR0TAQH/BAUwAwIB
+DBiBggrBgEFBQcBAQRWMFQwIQYIKwYBBQUHMAGGFWh0dHA6Ly90aGVjYS5uZXQv
b2NzcDAvBggrBgEFBQcwAoYjaHR0cDovL3RoZWNhLm5ldC90b3RhbGx5dGhlY2Vy
dC5jcnQwHwYDVR0gBBgwFjAKBggrBgEFBQcNATAIBgZngQwBAgIwDQYDVR0OBAYE
BAQDAgEwgaIGA1UdEQSBmjCBl4gJKwYBBAHZW4M6pBwwGjEYMBYGA1UEChMPRXh0
cmVtZSBEaXNjb3JkoBEGCCsGAQQB2VsuoAUCAwgqCaUeoA8TDU1vdGhlciBOYXR1
cmWhCxMJcGFydHlOYW1lgggqLmdvdi51c4IGZ292LnVzgQxhZG1pbkBnb3YudXOG
E2h0dHBzOi8vZ292LnVzL2hvbWWHBAsKCgswOQYDVR0SBDIwMIIQYWxsdGhldGhp
bmdzLm5ldIIRYWxsdGhlbXRoaW5ncy5uZXSCCXRoZWNhLm5ldDAWBgNVHSMEDzAN
gAQBAgMEggUcvX2HVzANBgkqhkiG9w0BAQsFAAOCAQEAV6Qbq3qVPCngDyf4C/zS
ZbuA2jPuOPvkTLeyuRzJbpnl1do6A/+4EsJnEhSdx2h692ONxCWe+kbpnDW5o15D
GC6ys8BR8SkiP1b4PAKt/CBnBYmMoHbnkJ7SZd2n8dbo74NcWw/yDqTaeN4g7OWs
lL+qQENeurMd7RVBlc4IflaaS2JUKjHYK4i/WrYeytLMXHH8ZG2pW9aDngPWp2r1
7LkIyp/3hpiKRPQlIqtamNxmPXC5cUEsILLYCt7jNtgv/CskKbk423z+yAf/SaPe
j66ibFu56Cq/kD/kuZac+RLHWQ+SwHCVda4hzzVaNL4dKq/wV+qifpyJ60nnTabN
mg==
-----END CERTIFICATE-----
