Certificate:
    Data:
        Version: 3 (0x2)
        Serial Number:
            d2:59:43:66:12:74:4a:dc:98:f9:54:73:6e:68:01:23
        Signature Algorithm: sha256WithRSAEncryption
        Issuer: C = IT, O = Some Company SpA, CN = Fake Root CA for zlint testing
        Validity
            Not Before: Jun 27 08:31:39 2021 GMT
            Not After : Jun 27 18:31:39 2031 GMT
        Subject: C = IT, O = Some Company SpA, CN = Fake Subordinate CA for zlint testing
        Subject Public Key Info:
            Public Key Algorithm: rsaEncryption
                RSA Public-Key: (4096 bit)
                Modulus:
                    00:d9:40:20:43:2c:bb:54:e7:eb:ae:8d:80:fd:0a:
                    92:13:10:f6:85:01:4d:3d:1c:57:1a:88:b0:57:39:
                    7b:d1:5d:ad:de:67:07:b1:fb:47:22:76:39:91:39:
                    25:28:af:a5:b8:8a:53:ab:c1:77:19:e8:16:ea:90:
                    62:0a:6f:25:86:70:eb:8c:ff:56:57:50:ae:a7:fb:
                    2e:b2:df:96:f5:39:90:31:c7:8c:48:85:fe:8c:76:
                    e0:05:35:e1:eb:45:30:89:8e:9c:e7:a6:df:ad:8f:
                    4d:28:d4:5a:67:9e:f0:da:00:f7:61:51:93:84:67:
                    b4:87:0e:c8:7a:45:c3:5d:f9:eb:33:b9:44:ba:54:
                    10:5b:63:44:8f:39:10:1f:bd:86:27:46:73:3b:89:
                    ec:c3:51:6f:40:44:9b:3b:c2:bb:61:6a:ba:bc:52:
                    9d:95:97:72:a6:46:fd:8b:f0:d3:f1:c3:29:fd:2d:
                    78:24:e8:d2:ba:c2:f9:65:0e:c0:05:30:17:f3:2b:
                    ec:92:36:c9:d1:fd:1c:9c:7d:21:05:2d:18:21:30:
                    af:e4:b5:d9:43:d1:1e:67:25:c3:08:db:44:78:f8:
                    56:8d:8f:4d:17:dd:3c:82:59:16:b7:33:f5:7d:42:
                    d5:8a:da:02:32:70:86:72:d7:34:00:b0:d3:a8:f2:
                    da:6e:4b:f3:8d:9f:bb:90:22:39:72:32:6b:6d:89:
                    6a:55:e2:4c:5d:1f:35:50:3f:3b:6f:7e:18:44:69:
                    fd:1c:72:90:e1:90:79:0b:b9:b5:89:cb:a6:64:71:
                    d6:07:d6:cf:11:ab:fc:5e:d2:92:14:f6:17:89:f0:
                    9f:a0:62:ba:a4:bd:1a:3f:62:b3:75:0e:f3:52:81:
                    d8:0e:de:14:80:92:a8:8d:7a:69:63:49:67:81:e6:
                    d1:14:bb:b6:c2:5d:6b:a3:c4:64:ba:df:cf:71:3b:
                    9a:7a:f3:c6:35:c5:97:03:d0:49:43:62:c7:8f:12:
                    e3:d6:a5:71:a8:3b:83:e1:f8:9c:47:6b:e6:bf:ab:
                    0a:1a:79:19:38:c4:4a:d8:f8:41:33:9b:b0:ca:93:
                    1f:e1:0f:d2:95:b1:a5:95:3b:dc:46:48:22:16:8f:
                    44:9b:7a:2b:c7:7e:a9:d5:ac:82:98:e9:d1:ad:60:
                    09:10:26:bd:14:b9:62:29:5c:7f:19:6b:13:5e:3f:
                    70:7e:81:36:5f:e3:fc:f6:3e:fa:9c:42:23:fd:4c:
                    c6:0a:4a:09:02:68:e1:a6:63:0d:1d:35:20:25:b5:
                    14:8b:48:c7:c6:77:51:cf:34:30:1f:6d:06:da:09:
                    09:94:8b:6c:cd:e5:2f:be:b7:20:cd:ac:58:e6:11:
                    da:83:13
                Exponent: 65537 (0x10001)
        X509v3 extensions:
            X509v3 Key Usage: critical
                Certificate Sign, CRL Sign
            X509v3 Extended Key Usage: 
                Any Extended Key Usage, TLS Web Server Authentication
            X509v3 Basic Constraints: critical
                CA:TRUE
            X509v3 Subject Key Identifier: 
                09:50:65:28:3C:2A:B1:F0:0D:69:78:58:48:4A:40:39:B6:C2:FB:53
            X509v3 Authority Key Identifier: 
                keyid:E8:B6:F6:76:4B:D0:3B:E5:46:A5:F9:54:D4:7E:07:B3:DE:0D:60:3E

            Authority Information Access: 
                OCSP - URI:http://ca.somecompany.it/ocsp
                CA Issuers - URI:http://ca.somecompany.it/root

            X509v3 Certificate Policies: 
                Policy: 1.2.3

            X509v3 CRL Distribution Points: 

                Full Name:
                  URI:http://ca.somecompany.it/crl

    Signature Algorithm: sha256WithRSAEncryption
         00:5d:61:32:99:58:59:7f:2b:35:74:f3:82:cd:29:fe:da:7b:
         43:9f:8f:09:08:f4:40:c9:73:bf:3b:8d:e1:bb:be:15:35:ed:
         f4:6a:6c:70:35:06:f4:4c:a5:7d:23:54:23:c7:d3:99:41:58:
         b8:52:53:6c:24:8c:e7:ba:ab:33:34:09:b9:94:8a:1f:db:84:
         ea:f8:d0:bb:ab:0e:ef:8c:78:84:d5:f4:83:72:7f:cb:77:3b:
         22:83:94:1b:51:2b:4d:7d:68:39:47:35:e8:02:0a:1f:1b:7c:
         0f:11:89:e9:7e:fe:91:77:3b:18:67:a1:7d:d1:3e:c1:1b:98:
         4f:2c:ad:8a:f9:8c:c6:14:83:b6:47:91:d5:37:d2:55:69:7c:
         53:d3:a6:37:7b:99:6b:38:b0:29:51:d3:75:d2:b2:20:3c:b1:
         8c:92:62:64:8d:59:36:22:f5:d0:ab:a4:47:72:e2:d2:e0:bb:
         81:19:02:58:78:78:17:01:c7:fe:c2:a0:29:96:b9:e1:ba:99:
         9a:47:1d:59:ec:e6:15:fa:86:39:39:54:56:33:81:39:5a:2f:
         36:19:38:4f:b5:14:fd:85:70:11:9f:57:9f:b0:e4:9d:ac:3f:
         03:1b:b2:ac:53:9c:1d:94:44:b8:e3:b8:46:9e:4d:d3:e9:6f:
         ec:75:88:cf:ab:1a:20:57:a2:d5:48:a0:3d:83:19:ae:c4:40:
         1a:f0:52:f9:78:43:48:6f:82:ce:4f:63:50:17:64:a0:b2:17:
         4a:f7:b9:7a:fd:76:e5:cf:0b:45:78:92:d8:c8:ee:3b:23:ed:
         32:03:cf:9f:a8:67:1b:8b:87:c8:33:a3:c9:18:8c:a9:3a:41:
         7a:79:b4:a9:23:48:04:1e:99:c2:8f:0f:64:b1:d6:85:3c:20:
         9a:a1:7f:db:f1:97:db:15:01:42:cb:e0:57:f0:b1:6a:7d:8c:
         a5:0c:ba:59:ef:9b:bb:de:3d:e7:9b:5b:3b:d5:c3:bd:0b:ed:
         55:56:93:4f:d0:57:4c:91:4a:36:a9:36:95:2c:11:16:23:01:
         62:de:0a:ba:5b:4f:12:03:f7:26:b5:46:0d:e0:28:8d:22:b6:
         40:f4:ea:7e:43:07:10:1e:b5:76:b5:7c:ca:79:63:e9:68:e1:
         8b:49:52:2a:18:99:90:dd:c6:c3:24:21:d6:bb:26:ba:b8:4a:
         b8:0f:36:b0:65:fe:63:10:5f:5d:76:f8:bd:d6:2c:d9:6f:b5:
         9b:f0:4b:e3:cf:cf:67:73:07:f2:c1:92:76:a3:62:95:8b:d1:
         61:b6:6b:8a:33:0a:2e:fb:f0:94:e3:89:4a:eb:f7:c5:8b:02:
         2b:7e:67:f8:c1:84:92:47
-----BEGIN CERTIFICATE-----
MIIGXDCCBESgAwIBAgIRANJZQ2YSdErcmPlUc25oASMwDQYJKoZIhvcNAQELBQAw
UTELMAkGA1UEBhMCSVQxGTAXBgNVBAoTEFNvbWUgQ29tcGFueSBTcEExJzAlBgNV
BAMTHkZha2UgUm9vdCBDQSBmb3IgemxpbnQgdGVzdGluZzAeFw0yMTA2MjcwODMx
MzlaFw0zMTA2MjcxODMxMzlaMFgxCzAJBgNVBAYTAklUMRkwFwYDVQQKExBTb21l
IENvbXBhbnkgU3BBMS4wLAYDVQQDEyVGYWtlIFN1Ym9yZGluYXRlIENBIGZvciB6
bGludCB0ZXN0aW5nMIICIjANBgkqhkiG9w0BAQEFAAOCAg8AMIICCgKCAgEA2UAg
Qyy7VOfrro2A/QqSExD2hQFNPRxXGoiwVzl70V2t3mcHsftHInY5kTklKK+luIpT
q8F3GegW6pBiCm8lhnDrjP9WV1Cup/sust+W9TmQMceMSIX+jHbgBTXh60UwiY6c
56bfrY9NKNRaZ57w2gD3YVGThGe0hw7IekXDXfnrM7lEulQQW2NEjzkQH72GJ0Zz
O4nsw1FvQESbO8K7YWq6vFKdlZdypkb9i/DT8cMp/S14JOjSusL5ZQ7ABTAX8yvs
kjbJ0f0cnH0hBS0YITCv5LXZQ9EeZyXDCNtEePhWjY9NF908glkWtzP1fULVitoC
MnCGctc0ALDTqPLabkvzjZ+7kCI5cjJrbYlqVeJMXR81UD87b34YRGn9HHKQ4ZB5
C7m1icumZHHWB9bPEav8XtKSFPYXifCfoGK6pL0aP2KzdQ7zUoHYDt4UgJKojXpp
Y0lngebRFLu2wl1ro8Rkut/PcTuaevPGNcWXA9BJQ2LHjxLj1qVxqDuD4ficR2vm
v6sKGnkZOMRK2PhBM5uwypMf4Q/SlbGllTvcRkgiFo9Em3orx36p1ayCmOnRrWAJ
ECa9FLliKVx/GWsTXj9wfoE2X+P89j76nEIj/UzGCkoJAmjhpmMNHTUgJbUUi0jH
xndRzzQwH20G2gkJlItszeUvvrcgzaxY5hHagxMCAwEAAaOCASYwggEiMA4GA1Ud
DwEB/wQEAwIBBjAZBgNVHSUEEjAQBgRVHSUABggrBgEFBQcDATAPBgNVHRMBAf8E
BTADAQH/MB0GA1UdDgQWBBQJUGUoPCqx8A1peFhISkA5tsL7UzAfBgNVHSMEGDAW
gBTotvZ2S9A75Ual+VTUfgez3g1gPjBkBggrBgEFBQcBAQRYMFYwKQYIKwYBBQUH
MAGGHWh0dHA6Ly9jYS5zb21lY29tcGFueS5pdC9vY3NwMCkGCCsGAQUFBzAChh1o
dHRwOi8vY2Euc29tZWNvbXBhbnkuaXQvcm9vdDAPBgNVHSAECDAGMAQGAioDMC0G
A1UdHwQmMCQwIqAgoB6GHGh0dHA6Ly9jYS5zb21lY29tcGFueS5pdC9jcmwwDQYJ
KoZIhvcNAQELBQADggIBAABdYTKZWFl/KzV084LNKf7ae0OfjwkI9EDJc787jeG7
vhU17fRqbHA1BvRMpX0jVCPH05lBWLhSU2wkjOe6qzM0CbmUih/bhOr40LurDu+M
eITV9INyf8t3OyKDlBtRK019aDlHNegCCh8bfA8Riel+/pF3OxhnoX3RPsEbmE8s
rYr5jMYUg7ZHkdU30lVpfFPTpjd7mWs4sClR03XSsiA8sYySYmSNWTYi9dCrpEdy
4tLgu4EZAlh4eBcBx/7CoCmWueG6mZpHHVns5hX6hjk5VFYzgTlaLzYZOE+1FP2F
cBGfV5+w5J2sPwMbsqxTnB2URLjjuEaeTdPpb+x1iM+rGiBXotVIoD2DGa7EQBrw
Uvl4Q0hvgs5PY1AXZKCyF0r3uXr9duXPC0V4ktjI7jsj7TIDz5+oZxuLh8gzo8kY
jKk6QXp5tKkjSAQemcKPD2Sx1oU8IJqhf9vxl9sVAULL4FfwsWp9jKUMulnvm7ve
PeebWzvVw70L7VVWk0/QV0yRSjapNpUsERYjAWLeCrpbTxID9ya1Rg3gKI0itkD0
6n5DBxAetXa1fMp5Y+lo4YtJUioYmZDdxsMkIda7Jrq4SrgPNrBl/mMQX112+L3W
LNlvtZvwS+PPz2dzB/LBknajYpWL0WG2a4ozCi778JTjiUrr98WLAit+Z/jBhJJH
-----END CERTIFICATE-----
