Certificate:
    Data:
        Version: 3 (0x2)
        Serial Number: 18008675309 (0x4316693ed)
    Signature Algorithm: sha256WithRSAEncryption
        Issuer: C = US, O = Mother Nature, OU = Everything, CN = Mother Nature
        Validity
            Not Before: Jul  5 15:00:38 2016 GMT
            Not After : Sep 17 15:00:38 2016 GMT
        Subject: C = US, ST = FL, L = Tallahassee, street = 3210 Holly Mill Run, postalCode = 30062, O = Extreme Discord, OU = Chaos, CN = gov.us
        Subject Public Key Info:
            Public Key Algorithm: rsaEncryption
                Public-Key: (2048 bit)
                Modulus:
                    00:c7:01:f1:c1:17:52:2f:3a:28:c9:fb:c4:c6:6f:
                    96:39:51:2c:78:40:9d:5d:4d:ef:e0:5d:74:6c:59:
                    2a:eb:b8:24:30:3a:e9:bf:22:e1:3e:78:56:bb:8f:
                    3a:08:4d:c7:ea:a0:bc:09:4d:5c:cc:be:33:66:9f:
                    48:b6:92:83:67:7d:96:a5:b2:13:32:2a:ba:5f:e9:
                    7a:2c:72:21:d1:f2:89:25:98:af:71:3b:2e:cc:0c:
                    b6:49:55:4e:65:99:3b:3d:06:fe:09:68:ec:26:f3:
                    39:ab:13:80:b3:d9:c9:49:f4:b1:da:b8:22:c0:68:
                    2e:0c:fe:98:0c:2e:9b:bf:bc:55:cd:58:a6:e2:9e:
                    3c:e3:01:b7:a0:1c:49:72:4f:8b:a9:44:33:d9:9c:
                    22:0d:69:05:a4:dc:6b:91:82:d5:dd:08:00:c2:d6:
                    91:ea:10:6d:b3:27:3f:66:ed:5e:4a:6d:77:52:58:
                    81:ab:90:b0:c4:c9:a8:9c:7d:40:e6:e4:22:4d:8e:
                    d4:c5:2b:21:1c:35:94:50:08:87:fd:e0:81:56:f4:
                    25:bb:68:ba:c9:da:42:53:80:09:49:87:30:37:64:
                    09:f6:8d:32:30:29:85:a8:2f:d8:2e:4b:71:21:f1:
                    a0:74:3b:cf:01:b4:b5:da:1e:99:4c:ed:94:da:c0:
                    e3:51
                Exponent: 65537 (0x10001)
        X509v3 extensions:
            X509v3 Basic Constraints: critical
                CA:TRUE
            X509v3 Authority Key Identifier: 
                keyid:01:02:03

            Authority Information Access: 
                CA Issuers - URI:http://theca.net/totallythecert.crt

            X509v3 Subject Key Identifier: 
                04:03:02:01
            X509v3 Subject Alternative Name: 
                DNS:*.gov.us, DNS:gov.us
            X509v3 Key Usage: 
                Digital Signature, Certificate Sign, CRL Sign
    Signature Algorithm: sha256WithRSAEncryption
         10:ba:4f:d5:2c:65:ef:5d:3f:fc:ed:c0:e7:2b:59:8e:02:9f:
         56:ff:40:a8:b2:65:9c:23:91:90:41:ac:2e:5b:62:9d:21:69:
         58:d8:41:06:21:4d:fc:31:99:5a:e1:a8:9b:e7:e0:97:63:37:
         28:98:6e:03:7d:26:c0:24:d1:08:86:5c:7b:9b:06:10:cb:af:
         a4:1a:b5:0e:ef:db:a7:3e:8b:2f:c6:ed:5c:b7:12:58:df:bb:
         bc:25:7b:f2:3b:f7:ff:b2:31:65:81:b7:54:f2:91:d7:86:70:
         62:e7:eb:ed:f5:57:21:22:b3:67:97:6e:5d:80:51:d0:30:0f:
         28:81:c0:a6:12:e9:28:f9:f6:01:6a:37:4b:66:c6:d1:32:3a:
         e3:1b:d1:1e:e7:3c:94:9b:c1:cd:9a:14:e5:3c:1d:89:e0:9d:
         ae:9e:84:db:ab:81:0c:8b:21:d7:8e:fd:28:96:66:69:76:4e:
         db:21:2d:48:84:f2:2b:55:77:bc:57:26:04:d7:8f:ec:8e:2c:
         59:cc:91:1b:55:67:b2:5e:2d:1d:f0:93:0f:b9:25:43:82:da:
         fb:0e:0a:85:fa:b2:92:54:b1:27:a5:86:cf:44:0b:c7:50:8b:
         fe:d1:5f:42:85:d3:9f:20:c7:fd:e9:1c:50:19:b3:48:22:c8:
         b4:4b:f2:b4
-----BEGIN CERTIFICATE-----
MIIECjCCAvKgAwIBAgIFBDFmk+0wDQYJKoZIhvcNAQELBQAwUjELMAkGA1UEBhMC
VVMxFjAUBgNVBAoTDU1vdGhlciBOYXR1cmUxEzARBgNVBAsTCkV2ZXJ5dGhpbmcx
FjAUBgNVBAMTDU1vdGhlciBOYXR1cmUwHhcNMTYwNzA1MTUwMDM4WhcNMTYwOTE3
MTUwMDM4WjCBmTELMAkGA1UEBhMCVVMxCzAJBgNVBAgTAkZMMRQwEgYDVQQHEwtU
YWxsYWhhc3NlZTEcMBoGA1UECRMTMzIxMCBIb2xseSBNaWxsIFJ1bjEOMAwGA1UE
ERMFMzAwNjIxGDAWBgNVBAoTD0V4dHJlbWUgRGlzY29yZDEOMAwGA1UECxMFQ2hh
b3MxDzANBgNVBAMTBmdvdi51czCCASIwDQYJKoZIhvcNAQEBBQADggEPADCCAQoC
ggEBAMcB8cEXUi86KMn7xMZvljlRLHhAnV1N7+BddGxZKuu4JDA66b8i4T54VruP
OghNx+qgvAlNXMy+M2afSLaSg2d9lqWyEzIqul/peixyIdHyiSWYr3E7LswMtklV
TmWZOz0G/glo7CbzOasTgLPZyUn0sdq4IsBoLgz+mAwum7+8Vc1YpuKePOMBt6Ac
SXJPi6lEM9mcIg1pBaTca5GC1d0IAMLWkeoQbbMnP2btXkptd1JYgauQsMTJqJx9
QObkIk2O1MUrIRw1lFAIh/3ggVb0JbtousnaQlOACUmHMDdkCfaNMjAphagv2C5L
cSHxoHQ7zwG0tdoemUztlNrA41ECAwEAAaOBnjCBmzAPBgNVHRMBAf8EBTADAQH/
MA4GA1UdIwQHMAWAAwECAzA/BggrBgEFBQcBAQQzMDEwLwYIKwYBBQUHMAKGI2h0
dHA6Ly90aGVjYS5uZXQvdG90YWxseXRoZWNlcnQuY3J0MA0GA1UdDgQGBAQEAwIB
MBsGA1UdEQQUMBKCCCouZ292LnVzggZnb3YudXMwCwYDVR0PBAQDAgGGMA0GCSqG
SIb3DQEBCwUAA4IBAQAQuk/VLGXvXT/87cDnK1mOAp9W/0CosmWcI5GQQawuW2Kd
IWlY2EEGIU38MZla4aib5+CXYzcomG4DfSbAJNEIhlx7mwYQy6+kGrUO79unPosv
xu1ctxJY37u8JXvyO/f/sjFlgbdU8pHXhnBi5+vt9VchIrNnl25dgFHQMA8ogcCm
Euko+fYBajdLZsbRMjrjG9Ee5zyUm8HNmhTlPB2J4J2unoTbq4EMiyHXjv0olmZp
dk7bIS1IhPIrVXe8VyYE14/sjixZzJEbVWeyXi0d8JMPuSVDgtr7DgqF+rKSVLEn
pYbPRAvHUIv+0V9ChdOfIMf96RxQGbNIIsi0S/K0
-----END CERTIFICATE-----
