Certificate:
    Data:
        Version: 3 (0x2)
        Serial Number: 18008675309 (0x4316693ed)
    Signature Algorithm: sha256WithRSAEncryption
        Issuer: C = US, O = Mother Nature, OU = Everything, CN = Mother Nature
        Validity
            Not Before: Jul  5 21:28:58 2016 GMT
            Not After : Sep 17 21:28:58 2016 GMT
        Subject: C = US, ST = FL, L = Tallahassee, street = 3210 Holly Mill Run, postalCode = 30062, O = Extreme Discord, OU = Chaos, CN = gov.us
        Subject Public Key Info:
            Public Key Algorithm: rsaEncryption
                Public-Key: (2048 bit)
                Modulus:
                    00:cb:6e:37:34:e7:9c:b8:d2:1e:3d:a3:85:0b:8d:
                    11:f7:6f:94:5d:e9:92:52:91:f5:fe:7a:b6:85:9a:
                    29:7a:16:4b:19:a5:66:38:05:3b:ea:ba:e8:d9:10:
                    42:06:f5:a5:10:70:d9:69:96:89:24:d3:0c:5c:54:
                    ba:f0:2d:4e:54:0c:e3:d4:bb:0b:1c:f1:fc:e2:8a:
                    23:f8:8b:5a:e4:d7:cc:63:62:22:ba:b2:b9:62:2b:
                    97:70:b2:26:35:ef:42:16:29:d5:93:69:de:5e:3b:
                    20:ed:45:52:8c:78:f9:f6:76:b1:23:a3:5b:a2:26:
                    07:e6:8b:c2:9a:d9:0e:aa:e7:2a:fb:f1:a1:f9:90:
                    fb:35:56:05:4a:5a:84:63:24:45:bb:16:d2:08:04:
                    0b:57:a3:b5:88:55:b2:ee:ad:e3:95:85:2d:4e:d1:
                    b2:68:ef:ad:47:d0:5b:1a:5c:45:32:d1:96:3c:ce:
                    26:ce:24:71:d7:31:a5:bd:30:5e:3c:8e:b2:45:49:
                    bc:88:db:26:77:fc:ca:d9:38:2c:23:58:e4:1b:5f:
                    2f:09:49:1a:c9:0c:c5:04:1e:75:48:9f:ef:ea:0f:
                    97:49:37:4a:bd:23:16:43:34:ef:e9:83:41:7f:e4:
                    26:2b:f9:8b:47:66:82:fb:fc:38:00:5d:ed:2c:f7:
                    1f:e9
                Exponent: 65537 (0x10001)
        X509v3 extensions:
            X509v3 Basic Constraints: critical
                CA:TRUE
            X509v3 Authority Key Identifier: 
                keyid:01:02:03

            X509v3 Subject Key Identifier: 
                04:03:02:01
            X509v3 Subject Alternative Name: 
                DNS:*.gov.us, DNS:gov.us
            X509v3 Key Usage: 
                Digital Signature, Certificate Sign, CRL Sign
    Signature Algorithm: sha256WithRSAEncryption
         58:60:c6:eb:86:9a:ba:bc:58:2d:e8:e9:06:b0:a0:a4:d1:50:
         26:71:27:7f:1f:8c:de:a8:80:ed:79:a8:c5:98:88:58:88:b1:
         a3:5b:f4:2a:4a:de:25:f3:b0:cd:02:b3:24:a3:e2:cf:a2:fe:
         46:70:ba:51:fe:a5:24:2e:fc:88:f2:4e:b7:ab:64:cf:38:c0:
         85:fe:a9:1a:e5:c5:8f:6d:97:40:2a:da:73:37:a2:72:65:0f:
         26:86:09:1b:0a:f5:3b:40:a3:ba:76:09:86:2c:72:44:8a:41:
         1a:f7:c6:6e:51:85:de:b9:be:f6:5b:0f:54:dd:cf:68:f7:d6:
         7e:b7:d0:40:f4:51:3c:48:11:30:43:37:41:c0:cc:05:30:8f:
         ab:8e:cc:c9:a6:da:65:97:db:9d:3c:c9:43:b9:4d:e2:98:01:
         47:0e:05:53:7c:76:aa:22:cd:a8:55:99:38:15:29:a4:76:55:
         70:ae:f4:12:31:00:7b:7c:37:ed:18:3c:75:09:b6:2c:9d:33:
         5a:e1:7b:4b:80:6b:06:28:8d:4d:0d:72:9a:3c:c1:c7:81:1d:
         74:e4:d0:41:49:13:2c:43:15:6f:21:80:57:3b:43:5a:d0:d8:
         50:b3:0d:ac:76:d5:b0:3a:9a:fe:39:58:18:9e:24:ff:b4:21:
         66:02:4a:34
-----BEGIN CERTIFICATE-----
MIIDxzCCAq+gAwIBAgIFBDFmk+0wDQYJKoZIhvcNAQELBQAwUjELMAkGA1UEBhMC
VVMxFjAUBgNVBAoTDU1vdGhlciBOYXR1cmUxEzARBgNVBAsTCkV2ZXJ5dGhpbmcx
FjAUBgNVBAMTDU1vdGhlciBOYXR1cmUwHhcNMTYwNzA1MjEyODU4WhcNMTYwOTE3
MjEyODU4WjCBmTELMAkGA1UEBhMCVVMxCzAJBgNVBAgTAkZMMRQwEgYDVQQHEwtU
YWxsYWhhc3NlZTEcMBoGA1UECRMTMzIxMCBIb2xseSBNaWxsIFJ1bjEOMAwGA1UE
ERMFMzAwNjIxGDAWBgNVBAoTD0V4dHJlbWUgRGlzY29yZDEOMAwGA1UECxMFQ2hh
b3MxDzANBgNVBAMTBmdvdi51czCCASIwDQYJKoZIhvcNAQEBBQADggEPADCCAQoC
ggEBAMtuNzTnnLjSHj2jhQuNEfdvlF3pklKR9f56toWaKXoWSxmlZjgFO+q66NkQ
Qgb1pRBw2WmWiSTTDFxUuvAtTlQM49S7Cxzx/OKKI/iLWuTXzGNiIrqyuWIrl3Cy
JjXvQhYp1ZNp3l47IO1FUox4+fZ2sSOjW6ImB+aLwprZDqrnKvvxofmQ+zVWBUpa
hGMkRbsW0ggEC1ejtYhVsu6t45WFLU7RsmjvrUfQWxpcRTLRljzOJs4kcdcxpb0w
XjyOskVJvIjbJnf8ytk4LCNY5BtfLwlJGskMxQQedUif7+oPl0k3Sr0jFkM07+mD
QX/kJiv5i0dmgvv8OABd7Sz3H+kCAwEAAaNcMFowDwYDVR0TAQH/BAUwAwEB/zAO
BgNVHSMEBzAFgAMBAgMwDQYDVR0OBAYEBAQDAgEwGwYDVR0RBBQwEoIIKi5nb3Yu
dXOCBmdvdi51czALBgNVHQ8EBAMCAYYwDQYJKoZIhvcNAQELBQADggEBAFhgxuuG
mrq8WC3o6QawoKTRUCZxJ38fjN6ogO15qMWYiFiIsaNb9CpK3iXzsM0CsySj4s+i
/kZwulH+pSQu/IjyTrerZM84wIX+qRrlxY9tl0Aq2nM3onJlDyaGCRsK9TtAo7p2
CYYsckSKQRr3xm5Rhd65vvZbD1Tdz2j31n630ED0UTxIETBDN0HAzAUwj6uOzMmm
2mWX2508yUO5TeKYAUcOBVN8dqoizahVmTgVKaR2VXCu9BIxAHt8N+0YPHUJtiyd
M1rhe0uAawYojU0Ncpo8wceBHXTk0EFJEyxDFW8hgFc7Q1rQ2FCzDax21bA6mv45
WBieJP+0IWYCSjQ=
-----END CERTIFICATE-----
