Certificate:
    Data:
        Version: 3 (0x2)
        Serial Number:
            ea:38:85:61:a3:38:6c:93:2f:d9:df:f7:0e:ad:ac:9c
        Signature Algorithm: sha256WithRSAEncryption
        Issuer: C = XX, O = Some CA, CN = Fake Root CA for zlint testing
        Validity
            Not Before: Jun 21 08:51:41 2025 GMT
            Not After : Jun 20 08:51:41 2030 GMT
        Subject: C = XX, ST = Some State, L = Some Locality, O = Some CA, CN = Fake CA for zlint testing
        Subject Public Key Info:
            Public Key Algorithm: rsaEncryption
                RSA Public-Key: (4096 bit)
                Modulus:
                    00:d3:91:9c:a3:85:b5:25:42:b7:96:3a:fa:08:3b:
                    a0:2c:39:4e:75:2f:06:26:71:28:58:11:41:0c:54:
                    9f:fc:7f:28:d3:df:44:06:fc:8e:b2:83:e9:61:78:
                    39:36:33:46:c1:1f:74:e2:d2:ad:5f:22:aa:98:0d:
                    ae:f4:b5:12:b2:b8:6e:e9:31:f6:78:5d:81:1d:66:
                    90:f0:50:24:2d:f9:e2:60:05:9c:03:5e:c8:db:e4:
                    96:6d:2b:d6:c2:12:be:5b:fa:ae:b7:44:1d:3e:89:
                    8b:af:78:21:4f:bc:c0:4d:09:ce:09:04:e2:c9:fe:
                    58:6c:30:75:84:a2:65:ed:fc:62:8b:50:0e:b5:6c:
                    64:12:3d:63:4d:81:c6:4c:8e:b8:e8:e9:89:77:68:
                    a9:ab:59:1c:06:64:d9:db:98:bd:05:75:86:ae:53:
                    04:ff:62:f3:cf:7b:92:c0:8e:9b:67:a1:72:1a:70:
                    3f:f6:27:0a:d9:b2:d4:7e:0c:5e:e0:62:07:b6:19:
                    e6:00:19:75:e3:8e:ea:fc:17:f4:51:26:79:47:69:
                    d0:8c:d0:2f:d6:37:b0:70:0f:11:78:64:b5:f7:9b:
                    56:12:24:1a:3b:e2:ee:f8:43:a1:41:0f:ae:b6:07:
                    c4:e1:a0:6d:25:70:e3:74:6f:8d:48:bd:28:01:9e:
                    69:bb:f6:14:58:06:df:fd:cc:70:70:67:88:e4:51:
                    b1:66:3a:63:e2:16:cd:3b:a6:63:bf:8f:41:c0:fb:
                    fb:27:55:29:ec:19:6e:86:fd:68:82:b1:4b:46:64:
                    9d:85:12:a9:37:3c:05:ec:67:88:d5:62:50:01:f9:
                    1a:ad:0b:0d:3d:49:f8:df:4f:cc:79:f3:7a:a6:a9:
                    55:ba:37:f8:71:39:10:1d:db:41:ef:f3:b4:b1:3a:
                    35:22:2e:54:d7:f4:75:54:c3:e3:22:cb:f5:b9:88:
                    5f:61:b5:50:4c:72:a7:68:48:8d:e4:bc:2b:3c:82:
                    ff:ed:0a:4a:0c:a7:40:f4:30:80:c3:56:29:f4:11:
                    56:68:e1:6c:78:e0:cc:7d:9f:2c:4a:b1:6c:69:eb:
                    de:dc:f0:9c:ec:6f:f3:ef:1f:da:50:7a:ba:a3:f4:
                    f0:3b:7c:22:8e:bf:12:83:03:12:da:e1:bf:74:d6:
                    df:9c:44:80:ac:05:41:90:33:96:d1:d8:a5:5e:b9:
                    12:8f:2e:db:cc:3d:bd:5b:2c:d0:ea:1e:f5:db:cf:
                    30:6e:15:91:25:0d:4a:d8:82:e4:b4:a3:f4:5e:76:
                    a0:ea:7c:29:ea:21:4b:8c:ae:57:78:ed:7c:d6:e0:
                    24:4e:49:ee:ad:8c:66:80:87:40:33:93:69:a0:d1:
                    96:d1:43
                Exponent: 65537 (0x10001)
        X509v3 extensions:
            X509v3 Key Usage: critical
                Certificate Sign, CRL Sign
            X509v3 Extended Key Usage: 
                TLS Web Client Authentication, TLS Web Server Authentication
            X509v3 Basic Constraints: critical
                CA:TRUE
            X509v3 Subject Key Identifier: 
                04:9D:6D:88:92:3F:82:84:9D:24:55:F2:85:FD:9F:1A:D1:91:DF:28
            X509v3 Authority Key Identifier: 
                keyid:E8:B6:F6:76:4B:D0:3B:E5:46:A5:F9:54:D4:7E:07:B3:DE:0D:60:3E

            Authority Information Access: 
                OCSP - URI:http://ca.someca-inc.com/ocsp

            X509v3 Certificate Policies: 
                Policy: X509v3 Any Policy

            X509v3 CRL Distribution Points: 

                Full Name:
                  URI:http://ca.someca-inc.com/crl

    Signature Algorithm: sha256WithRSAEncryption
         d1:f3:15:5e:28:6d:8e:49:24:4b:8b:32:69:db:67:50:2d:12:
         5b:d8:0f:9d:3c:2e:39:5f:75:03:fd:b9:cb:01:59:74:ab:b1:
         b6:22:ca:74:86:3a:6a:74:84:f8:2c:74:85:64:1a:df:ce:dd:
         f4:1e:88:c8:fb:ad:b2:ae:25:ce:8d:37:81:82:45:ba:e5:0e:
         d6:0e:c5:99:c7:86:77:7c:d5:21:57:f9:de:e0:9e:bd:fa:63:
         f1:4e:7e:7e:5e:66:ea:b3:8a:0f:cc:44:68:0f:39:cd:b7:14:
         2a:97:00:9a:9e:97:42:c9:a8:c8:f5:f3:e4:e0:5a:f1:27:e0:
         a6:52:cd:88:5c:16:41:a5:ef:d5:eb:54:f7:92:5f:86:8a:87:
         f8:74:8a:83:d7:8d:1c:6f:25:b4:3a:86:6f:18:2e:e7:2a:0d:
         c0:fe:8b:a9:78:90:76:fc:76:f1:59:65:ab:53:07:b6:76:27:
         97:a3:96:97:e9:bd:6c:38:c0:c9:95:11:9f:16:b0:a0:f5:cf:
         76:69:bc:7e:7c:e4:43:b8:95:ef:6c:17:f2:87:c0:68:04:eb:
         8f:56:9f:c1:e1:fe:50:da:47:5e:89:97:c7:90:db:d9:0f:db:
         08:30:64:09:f8:23:74:09:0c:60:30:38:5e:20:a8:af:21:6f:
         95:f5:5d:ef:72:34:6d:b7:63:35:20:6c:88:db:d3:da:98:ab:
         05:01:26:20:af:87:80:78:6e:92:e6:ab:73:7e:34:3f:55:1a:
         b9:a1:85:ff:8f:80:c1:25:58:39:43:eb:a1:a2:4f:14:23:3f:
         a9:7f:8e:f7:8e:fd:18:d7:f1:18:ba:73:ba:e1:82:0e:fb:cb:
         de:09:07:69:7b:58:b5:3c:91:8c:70:df:b4:1b:1b:8f:79:df:
         83:b2:05:1d:f0:6e:33:2d:c0:8d:39:36:23:2b:98:c5:26:f1:
         95:a2:93:97:72:d9:2b:c3:4b:35:a8:ae:e6:70:4c:8b:07:f4:
         82:e6:01:f2:69:42:36:55:0e:23:15:69:fa:9d:34:1a:d8:fa:
         91:63:ce:05:60:8a:b6:d0:f5:f6:0b:ca:86:03:65:15:50:47:
         09:0a:d1:0d:86:24:8b:68:84:6d:53:c3:e3:2f:e6:cf:3a:dd:
         3b:3c:35:2a:42:bf:83:33:f3:6c:8a:59:39:8a:d2:a6:78:8d:
         2e:41:f2:f4:3e:ae:6f:74:b1:02:41:27:f0:f6:19:7e:f3:e0:
         a2:d5:b8:5c:46:67:25:8d:52:ff:1d:95:fb:0c:88:41:fa:d8:
         3c:46:dd:77:5c:f0:b0:6f:f6:58:30:a1:2f:cb:e9:2b:fb:67:
         9a:39:f9:99:a6:be:e2:99
-----BEGIN CERTIFICATE-----
MIIGRTCCBC2gAwIBAgIRAOo4hWGjOGyTL9nf9w6trJwwDQYJKoZIhvcNAQELBQAw
SDELMAkGA1UEBhMCWFgxEDAOBgNVBAoTB1NvbWUgQ0ExJzAlBgNVBAMTHkZha2Ug
Um9vdCBDQSBmb3IgemxpbnQgdGVzdGluZzAeFw0yNTA2MjEwODUxNDFaFw0zMDA2
MjAwODUxNDFaMHAxCzAJBgNVBAYTAlhYMRMwEQYDVQQIEwpTb21lIFN0YXRlMRYw
FAYDVQQHEw1Tb21lIExvY2FsaXR5MRAwDgYDVQQKEwdTb21lIENBMSIwIAYDVQQD
ExlGYWtlIENBIGZvciB6bGludCB0ZXN0aW5nMIICIjANBgkqhkiG9w0BAQEFAAOC
Ag8AMIICCgKCAgEA05Gco4W1JUK3ljr6CDugLDlOdS8GJnEoWBFBDFSf/H8o099E
BvyOsoPpYXg5NjNGwR904tKtXyKqmA2u9LUSsrhu6TH2eF2BHWaQ8FAkLfniYAWc
A17I2+SWbSvWwhK+W/qut0QdPomLr3ghT7zATQnOCQTiyf5YbDB1hKJl7fxii1AO
tWxkEj1jTYHGTI646OmJd2ipq1kcBmTZ25i9BXWGrlME/2Lzz3uSwI6bZ6FyGnA/
9icK2bLUfgxe4GIHthnmABl1447q/Bf0USZ5R2nQjNAv1jewcA8ReGS195tWEiQa
O+Lu+EOhQQ+utgfE4aBtJXDjdG+NSL0oAZ5pu/YUWAbf/cxwcGeI5FGxZjpj4hbN
O6Zjv49BwPv7J1Up7Bluhv1ogrFLRmSdhRKpNzwF7GeI1WJQAfkarQsNPUn430/M
efN6pqlVujf4cTkQHdtB7/O0sTo1Ii5U1/R1VMPjIsv1uYhfYbVQTHKnaEiN5Lwr
PIL/7QpKDKdA9DCAw1Yp9BFWaOFseODMfZ8sSrFsaeve3PCc7G/z7x/aUHq6o/Tw
O3wijr8SgwMS2uG/dNbfnESArAVBkDOW0dilXrkSjy7bzD29WyzQ6h71288wbhWR
JQ1K2ILktKP0Xnag6nwp6iFLjK5XeO181uAkTknurYxmgIdAM5NpoNGW0UMCAwEA
AaOCAQAwgf0wDgYDVR0PAQH/BAQDAgEGMB0GA1UdJQQWMBQGCCsGAQUFBwMCBggr
BgEFBQcDATAPBgNVHRMBAf8EBTADAQH/MB0GA1UdDgQWBBQEnW2Ikj+ChJ0kVfKF
/Z8a0ZHfKDAfBgNVHSMEGDAWgBTotvZ2S9A75Ual+VTUfgez3g1gPjA5BggrBgEF
BQcBAQQtMCswKQYIKwYBBQUHMAGGHWh0dHA6Ly9jYS5zb21lY2EtaW5jLmNvbS9v
Y3NwMBEGA1UdIAQKMAgwBgYEVR0gADAtBgNVHR8EJjAkMCKgIKAehhxodHRwOi8v
Y2Euc29tZWNhLWluYy5jb20vY3JsMA0GCSqGSIb3DQEBCwUAA4ICAQDR8xVeKG2O
SSRLizJp22dQLRJb2A+dPC45X3UD/bnLAVl0q7G2Isp0hjpqdIT4LHSFZBrfzt30
HojI+62yriXOjTeBgkW65Q7WDsWZx4Z3fNUhV/ne4J69+mPxTn5+Xmbqs4oPzERo
DznNtxQqlwCanpdCyajI9fPk4FrxJ+CmUs2IXBZBpe/V61T3kl+Giof4dIqD140c
byW0OoZvGC7nKg3A/oupeJB2/HbxWWWrUwe2dieXo5aX6b1sOMDJlRGfFrCg9c92
abx+fORDuJXvbBfyh8BoBOuPVp/B4f5Q2kdeiZfHkNvZD9sIMGQJ+CN0CQxgMDhe
IKivIW+V9V3vcjRtt2M1IGyI29PamKsFASYgr4eAeG6S5qtzfjQ/VRq5oYX/j4DB
JVg5Q+uhok8UIz+pf473jv0Y1/EYunO64YIO+8veCQdpe1i1PJGMcN+0GxuPed+D
sgUd8G4zLcCNOTYjK5jFJvGVopOXctkrw0s1qK7mcEyLB/SC5gHyaUI2VQ4jFWn6
nTQa2PqRY84FYIq20PX2C8qGA2UVUEcJCtENhiSLaIRtU8PjL+bPOt07PDUqQr+D
M/Nsilk5itKmeI0uQfL0Pq5vdLECQSfw9hl+8+Ci1bhcRmcljVL/HZX7DIhB+tg8
Rt13XPCwb/ZYMKEvy+kr+2eaOfmZpr7imQ==
-----END CERTIFICATE-----
