Certificate:
    Data:
        Version: 3 (0x2)
        Serial Number: 1 (0x1)
        Signature Algorithm: sha256WithRSAEncryption
        Issuer: CN = Mother Nature, OU = Everything, O = Mother Nature, postalCode = postalcode, C = US, GN = givenname, SN = surname
        Validity
            Not Before: Aug 29 21:14:57 2017 GMT
            Not After : Nov 10 22:14:57 2017 GMT
        Subject: CN = gov.us, OU = Chaos, O = org, street = 3210 Holly Mill Run, ST = province, postalCode = 30062, GN = hello, SN = surname
        Subject Public Key Info:
            Public Key Algorithm: rsaEncryption
                RSA Public-Key: (2048 bit)
                Modulus:
                    00:c9:c5:6b:02:80:77:95:0d:55:be:cb:fa:f8:ca:
                    d9:c6:b1:34:8b:11:c9:07:cb:6c:9b:62:b0:88:21:
                    3c:88:c9:e7:00:33:21:84:76:75:2d:84:ba:53:ad:
                    ff:0c:a6:8c:d3:93:33:6c:c0:f7:10:17:34:69:3c:
                    4d:45:d3:1d:35:93:1e:13:9f:c6:72:20:4b:cc:d8:
                    73:b4:71:63:86:dc:f2:7c:a3:a7:c7:e8:f3:b4:35:
                    19:dd:10:47:6d:be:30:0e:50:2e:37:a7:fd:ef:63:
                    ce:d2:b8:52:39:3e:ac:ec:33:6b:07:fa:f2:f7:23:
                    2a:b5:88:b5:cf:cb:db:1f:92:6b:a9:f0:6c:b6:4c:
                    72:58:ee:48:b1:cc:4e:b0:48:b9:f5:1c:f5:a6:19:
                    27:db:17:a5:42:68:95:ac:89:32:60:6d:99:45:53:
                    db:05:d4:f4:80:48:bd:d2:18:65:54:7e:9e:63:12:
                    a5:b6:5d:eb:15:1e:7c:3e:bf:d4:93:bf:96:f6:58:
                    0e:3e:ee:55:e2:94:a5:46:e1:50:bc:ee:fc:32:a4:
                    3e:57:77:13:b6:9c:11:f0:af:ee:ed:bb:b9:a7:3f:
                    3b:c1:ae:0d:9f:9c:0c:55:fb:a6:70:4b:2e:3b:8d:
                    32:6d:4e:28:2b:43:cd:40:2e:a2:df:79:82:27:4b:
                    0c:f5
                Exponent: 65537 (0x10001)
        X509v3 extensions:
            X509v3 Key Usage: critical
                Digital Signature, Key Encipherment
            X509v3 Extended Key Usage: 
                TLS Web Client Authentication, TLS Web Server Authentication
            X509v3 Basic Constraints: critical
                CA:TRUE
            X509v3 Authority Key Identifier: 
                keyid:01:02:03

            Authority Information Access: 
                OCSP - URI:http://theca.net/ocsp
                CA Issuers - URI:http://theca.net/totallythecert.crt

            X509v3 Subject Alternative Name: 
                DNS:hell,o.com.uk
            X509v3 Certificate Policies: 
                Policy: X509v3 Any Policy

    Signature Algorithm: sha256WithRSAEncryption
         4c:cc:37:a3:94:f0:11:25:68:ea:62:3e:67:93:f6:a2:dd:97:
         af:54:2d:73:84:4e:71:47:d2:99:38:06:9d:58:67:3a:f2:04:
         5d:6b:0f:c5:7f:58:32:33:c5:c8:7b:9e:6d:35:85:12:8c:c5:
         fa:f5:54:8d:13:c7:73:aa:44:1c:a4:ec:11:44:16:7f:37:1c:
         a8:1a:d1:99:8d:73:91:84:00:c0:24:19:1a:cd:ad:30:42:6d:
         82:46:10:ce:bb:ab:b0:2f:d5:d6:45:ce:c4:e1:44:3a:5b:cb:
         43:ac:5b:fd:8d:f6:9e:ae:86:eb:63:ec:30:90:fe:a9:4c:0f:
         71:35:6c:6b:ed:08:44:10:0d:9a:46:a2:2d:47:2d:bd:05:bd:
         24:24:66:40:a3:45:98:ca:29:64:d2:11:86:ea:77:a0:cf:d5:
         ea:ff:aa:59:80:8a:fb:97:49:54:5a:2e:e8:2f:12:c0:fe:65:
         ad:da:b2:df:62:d5:9c:ab:29:e1:b5:0d:95:72:91:b0:d4:69:
         b3:5c:12:50:4c:04:86:fd:e3:d4:5b:2e:ba:8f:c4:e5:79:ef:
         2b:5b:8b:48:c0:7a:1d:3e:f7:33:b5:17:a3:e2:81:09:3d:21:
         aa:1f:51:8c:be:46:45:a6:70:b1:b8:4b:2f:76:cd:0f:8a:40:
         a7:8d:d7:cc
-----BEGIN CERTIFICATE-----
MIIEgTCCA2ugAwIBAgIBATALBgkqhkiG9w0BAQswgY8xFjAUBgNVBAMTDU1vdGhl
ciBOYXR1cmUxEzARBgNVBAsTCkV2ZXJ5dGhpbmcxFjAUBgNVBAoTDU1vdGhlciBO
YXR1cmUxEzARBgNVBBETCnBvc3RhbGNvZGUxCzAJBgNVBAYTAlVTMRIwEAYDVQQq
EwlnaXZlbm5hbWUxEDAOBgNVBAQTB3N1cm5hbWUxADAeFw0xNzA4MjkyMTE0NTda
Fw0xNzExMTAyMjE0NTdaMIGUMQ8wDQYDVQQDEwZnb3YudXMxDjAMBgNVBAsTBUNo
YW9zMQwwCgYDVQQKEwNvcmcxHDAaBgNVBAkTEzMyMTAgSG9sbHkgTWlsbCBSdW4x
ETAPBgNVBAgTCHByb3ZpbmNlMQ4wDAYDVQQREwUzMDA2MjEOMAwGA1UEKhMFaGVs
bG8xEDAOBgNVBAQTB3N1cm5hbWUxADCCASIwDQYJKoZIhvcNAQEBBQADggEPADCC
AQoCggEBAMnFawKAd5UNVb7L+vjK2caxNIsRyQfLbJtisIghPIjJ5wAzIYR2dS2E
ulOt/wymjNOTM2zA9xAXNGk8TUXTHTWTHhOfxnIgS8zYc7RxY4bc8nyjp8fo87Q1
Gd0QR22+MA5QLjen/e9jztK4Ujk+rOwzawf68vcjKrWItc/L2x+Sa6nwbLZMclju
SLHMTrBIufUc9aYZJ9sXpUJolayJMmBtmUVT2wXU9IBIvdIYZVR+nmMSpbZd6xUe
fD6/1JO/lvZYDj7uVeKUpUbhULzu/DKkPld3E7acEfCv7u27uac/O8GuDZ+cDFX7
pnBLLjuNMm1OKCtDzUAuot95gidLDPUCAwEAAaOB5DCB4TAOBgNVHQ8BAf8EBAMC
AKAwHQYDVR0lBBYwFAYIKwYBBQUHAwIGCCsGAQUFBwMBMA8GA1UdEwEB/wQFMAMB
Af8wDgYDVR0jBAcwBYADAQIDMGIGCCsGAQUFBwEBBFYwVDAhBggrBgEFBQcwAYYV
aHR0cDovL3RoZWNhLm5ldC9vY3NwMC8GCCsGAQUFBzAChiNodHRwOi8vdGhlY2Eu
bmV0L3RvdGFsbHl0aGVjZXJ0LmNydDAYBgNVHREEETAPgg1oZWxsLG8uY29tLnVr
MBEGA1UdIAQKMAgwBgYEVR0gADALBgkqhkiG9w0BAQsDggEBAEzMN6OU8BElaOpi
PmeT9qLdl69ULXOETnFH0pk4Bp1YZzryBF1rD8V/WDIzxch7nm01hRKMxfr1VI0T
x3OqRByk7BFEFn83HKga0ZmNc5GEAMAkGRrNrTBCbYJGEM67q7Av1dZFzsThRDpb
y0OsW/2N9p6uhutj7DCQ/qlMD3E1bGvtCEQQDZpGoi1HLb0FvSQkZkCjRZjKKWTS
EYbqd6DP1er/qlmAivuXSVRaLugvEsD+Za3ast9i1ZyrKeG1DZVykbDUabNcElBM
BIb949RbLrqPxOV57ytbi0jAeh0+9zO1F6PigQk9IaofUYy+RkWmcLG4Sy92zQ+K
QKeN18w=
-----END CERTIFICATE-----
