Certificate:
    Data:
        Version: 3 (0x2)
        Serial Number: 2 (0x2)
        Signature Algorithm: ecdsa-with-SHA256
        Issuer: 
        Validity
            Not Before: Jun 25 16:28:54 2021 GMT
            Not After : Jun 25 16:28:54 2021 GMT
        Subject: 
        Subject Public Key Info:
            Public Key Algorithm: id-ecPublicKey
                Public-Key: (256 bit)
                pub:
                    04:97:d9:64:e9:34:20:db:35:9c:6d:a2:83:25:6a:
                    b5:83:19:a7:a1:5b:33:8b:29:47:1d:6d:2d:ae:cd:
                    bc:a8:03:a3:af:96:d7:a0:0f:a6:26:f2:e1:7c:43:
                    93:ea:d6:66:49:9f:95:41:fd:c0:24:9b:f2:87:ac:
                    f5:41:b5:bb:b2
                ASN1 OID: prime256v1
                NIST CURVE: P-256
        X509v3 extensions:
            X509v3 Basic Constraints: critical
                CA:TRUE
            X509v3 Subject Key Identifier: 
                6C:39:98:54:E0:21:32:EE:D0:9E:FD:FB:F0:95:16:E3:8E:88:00:C1
            Authority Information Access: 
                OCSP - URI:http://ocsp.starfieldtech.com/
                CA Issuers - URI:http://certificates.starfieldtech.com/repository/sfig2.crt

    Signature Algorithm: ecdsa-with-SHA256
         30:46:02:21:00:cc:9d:a7:3c:44:9e:fe:a5:5c:b2:bd:7f:fe:
         4f:55:e7:81:af:13:06:34:0b:0b:92:0c:7d:f9:2d:f6:3e:49:
         9a:02:21:00:97:fe:b4:cf:b4:69:b7:22:d4:a0:13:67:6f:8b:
         e0:8a:cd:b8:cc:03:35:c2:88:49:13:dc:b2:c5:3f:34:f2:a0
-----BEGIN CERTIFICATE-----
MIIBqTCCAU6gAwIBAgIBAjAKBggqhkjOPQQDAjAAMB4XDTIxMDYyNTE2Mjg1NFoX
DTIxMDYyNTE2Mjg1NFowADBZMBMGByqGSM49AgEGCCqGSM49AwEHA0IABJfZZOk0
INs1nG2igyVqtYMZp6FbM4spRx1tLa7NvKgDo6+W16APpiby4XxDk+rWZkmflUH9
wCSb8oes9UG1u7KjgbgwgbUwDwYDVR0TAQH/BAUwAwEB/zAdBgNVHQ4EFgQUbDmY
VOAhMu7Qnv378JUW446IAMEwgYIGCCsGAQUFBwEBBHYwdDAqBggrBgEFBQcwAYYe
aHR0cDovL29jc3Auc3RhcmZpZWxkdGVjaC5jb20vMEYGCCsGAQUFBzAChjpodHRw
Oi8vY2VydGlmaWNhdGVzLnN0YXJmaWVsZHRlY2guY29tL3JlcG9zaXRvcnkvc2Zp
ZzIuY3J0MAoGCCqGSM49BAMCA0kAMEYCIQDMnac8RJ7+pVyyvX/+T1Xnga8TBjQL
C5IMffkt9j5JmgIhAJf+tM+0abci1KATZ2+L4IrNuMwDNcKISRPcssU/NPKg
-----END CERTIFICATE-----