Certificate:
    Data:
        Version: 3 (0x2)
        Serial Number:
            4d:57:43:61:a1:0d:02:9e:3e:7f:1d:94:91:f7:d6:e9
        Signature Algorithm: sha256WithRSAEncryption
        Issuer: C = IT, O = Some Company SpA, CN = Fake Root CA for zlint testing
        Validity
            Not Before: Jun 26 14:52:50 2021 GMT
            Not After : Jun 27 00:52:50 2031 GMT
        Subject: C = IT, O = Some Company SpA, CN = Fake Subordinate CA for zlint testing
        Subject Public Key Info:
            Public Key Algorithm: rsaEncryption
                RSA Public-Key: (4096 bit)
                Modulus:
                    00:d4:20:0d:03:a3:9f:78:10:d5:27:90:a1:7c:24:
                    12:a7:14:eb:2f:f9:5e:43:73:89:a9:b1:cd:94:00:
                    9a:ab:6e:f2:b8:a3:b1:12:9b:37:f7:6b:b0:81:e8:
                    49:52:ff:ac:f6:f8:72:75:38:35:84:26:27:eb:f5:
                    e0:58:9d:47:36:c6:2f:2c:84:f8:2a:63:f2:82:5f:
                    59:fc:88:05:03:08:46:bd:f6:fd:3d:17:84:b6:d3:
                    20:9d:34:67:f1:3e:93:f8:e1:59:16:d2:29:80:11:
                    d3:ac:94:e8:c2:60:06:9b:45:ba:6f:9a:20:79:21:
                    a6:47:14:c3:44:a4:56:a3:3a:3a:82:5b:65:b9:87:
                    2c:7a:3b:ea:1c:b4:e8:22:a3:0b:0d:60:f2:ef:dc:
                    86:73:6f:60:f3:4e:c3:ee:48:4d:ab:0a:06:cc:e2:
                    ca:04:58:02:2f:c0:60:c5:46:1a:9d:6c:95:1b:1b:
                    4a:96:90:75:07:8a:36:58:ca:73:36:72:a9:94:f7:
                    00:07:dd:73:c1:09:95:20:92:c7:2e:04:a8:dd:9f:
                    44:34:97:4a:b9:c8:f3:af:96:de:e7:5b:e8:35:1e:
                    cc:d0:89:17:fa:91:b0:a5:3b:39:cd:e2:ad:ae:6f:
                    7f:2b:10:af:f6:a5:a6:bd:50:cd:60:82:aa:23:3b:
                    8d:58:72:5f:27:fb:d5:0e:9d:05:8c:65:15:41:4e:
                    23:94:91:ee:f1:80:8c:37:e5:4a:bc:b3:d3:32:d3:
                    be:eb:2e:c4:51:f2:9a:8f:eb:72:0d:53:ed:c0:f1:
                    bf:a6:d9:54:cc:14:4b:4c:76:04:71:fa:d2:a5:bb:
                    0c:06:69:78:e4:44:fe:c2:c6:40:2a:64:d3:ab:a1:
                    4b:29:44:02:bd:cc:2b:fd:2f:b6:f3:b3:a5:54:77:
                    67:c3:2b:e2:7b:92:8a:47:b7:bd:a3:2a:9d:82:5a:
                    9d:46:8d:d6:30:5f:c4:be:f6:2b:05:b5:82:a0:80:
                    7a:9a:5f:09:7b:ef:d0:52:7c:38:3a:d7:3c:2d:5b:
                    67:c1:1e:65:8c:33:70:38:75:b6:0a:c9:59:ba:9d:
                    a5:8e:54:e9:ba:1c:9e:77:43:4e:d4:82:a7:38:14:
                    28:af:e2:30:80:10:f6:af:27:31:13:87:f8:7b:e3:
                    a3:7e:aa:9c:75:40:24:47:ac:64:a0:02:b5:c1:4a:
                    1f:65:88:25:9b:3e:93:95:23:4c:93:76:a8:51:93:
                    24:36:b2:52:4b:34:b9:2b:fd:1a:d6:88:6f:c5:25:
                    4d:78:c3:78:ac:8a:c6:1c:1a:1f:be:b9:92:ee:f7:
                    e6:04:2e:b9:d5:c1:e0:44:dd:ea:8b:ce:5b:d0:22:
                    b9:22:a3
                Exponent: 65537 (0x10001)
        X509v3 extensions:
            X509v3 Key Usage: critical
                Certificate Sign, CRL Sign
            X509v3 Extended Key Usage: 
                Code Signing, TLS Web Server Authentication
            X509v3 Basic Constraints: critical
                CA:TRUE
            X509v3 Subject Key Identifier: 
                05:AA:4C:14:D6:1C:42:21:A6:8A:D9:43:E8:17:2A:E3:A9:3F:A9:A4
            X509v3 Authority Key Identifier: 
                keyid:E8:B6:F6:76:4B:D0:3B:E5:46:A5:F9:54:D4:7E:07:B3:DE:0D:60:3E

            Authority Information Access: 
                OCSP - URI:http://ca.somecompany.it/ocsp
                CA Issuers - URI:http://ca.somecompany.it/root

            X509v3 Certificate Policies: 
                Policy: 1.2.3

            X509v3 CRL Distribution Points: 

                Full Name:
                  URI:http://ca.somecompany.it/crl

    Signature Algorithm: sha256WithRSAEncryption
         3d:10:34:47:19:6e:b0:d6:ac:ce:3a:fb:df:35:2e:60:d6:d8:
         0b:c2:bb:17:49:3c:92:23:af:98:d6:69:ec:fc:c0:ee:58:91:
         4d:08:c6:ed:d0:20:f2:23:d6:e3:dc:62:11:38:83:48:0b:c7:
         c5:7f:3b:58:f6:f6:e7:8b:b7:a6:67:e5:a7:c2:44:e1:0d:56:
         b1:ff:94:0e:90:4c:5a:21:35:f8:74:9e:5d:0e:08:00:43:a6:
         17:f7:a0:e7:04:3d:f7:25:20:f9:cf:07:4a:87:1d:46:0a:8c:
         66:1a:3e:88:f6:bb:f3:68:a8:de:76:50:d8:79:e9:3d:32:89:
         fb:c8:fa:4c:5c:4c:c3:c5:6c:47:76:54:45:1c:93:5d:26:79:
         ee:95:af:9a:8e:26:8e:e3:4b:6f:5a:2b:12:96:84:4f:a7:06:
         25:65:1e:4f:97:60:17:fa:b1:32:8a:3c:94:d9:e4:29:6c:85:
         94:82:33:48:10:b3:b5:80:c6:2c:3d:f3:86:c5:fc:74:62:3c:
         d0:c9:1e:5d:a2:55:2a:70:5c:de:15:f4:79:86:dd:be:35:9b:
         61:92:53:a6:53:23:37:23:ea:83:93:f3:20:e2:f3:3c:93:83:
         c4:3a:69:bb:0f:12:11:6f:38:36:52:3c:3b:dc:3d:94:f3:66:
         79:af:01:60:4d:81:64:31:78:e9:89:f1:75:15:29:23:f4:a2:
         cf:64:63:68:12:00:99:d0:ac:16:ea:8e:ca:4a:57:1f:ae:1e:
         a0:6f:aa:ed:6a:60:68:9e:6a:3c:8f:5b:3e:6a:0e:78:28:2b:
         b9:b6:cb:13:59:db:47:6f:26:10:4a:f1:46:1a:84:ca:89:40:
         c1:1d:1e:ac:4f:99:c6:0a:58:b9:8a:a0:d2:7a:2e:0f:0d:e4:
         ed:ea:b1:bd:50:53:d3:7a:de:9a:5e:31:d7:0c:f8:28:0b:18:
         93:59:15:ed:63:f4:01:dd:87:7c:a7:f0:c9:ef:33:d4:d4:2a:
         90:a1:79:74:c9:3f:9b:54:fc:60:9d:16:b9:e4:7b:79:9a:9d:
         d3:e6:cb:48:c0:17:e2:8e:84:5d:79:38:e2:10:6e:fc:26:21:
         94:f3:47:26:05:fa:46:3a:a2:67:5b:29:a4:3e:2c:c4:02:b2:
         4a:73:43:85:c9:03:5b:44:27:c7:5a:4d:5c:e3:44:8a:f6:0a:
         7d:8d:b8:f3:65:88:e3:63:c6:30:6d:34:c9:6a:7d:3c:88:8d:
         4c:7f:d4:d1:a7:15:16:28:3e:79:36:eb:82:19:44:a0:e6:b1:
         04:be:8d:73:6d:8e:d1:5b:42:59:e1:ca:48:9d:c4:8e:0f:77:
         db:aa:44:dd:c7:52:76:12
-----BEGIN CERTIFICATE-----
MIIGXzCCBEegAwIBAgIQTVdDYaENAp4+fx2UkffW6TANBgkqhkiG9w0BAQsFADBR
MQswCQYDVQQGEwJJVDEZMBcGA1UEChMQU29tZSBDb21wYW55IFNwQTEnMCUGA1UE
AxMeRmFrZSBSb290IENBIGZvciB6bGludCB0ZXN0aW5nMB4XDTIxMDYyNjE0NTI1
MFoXDTMxMDYyNzAwNTI1MFowWDELMAkGA1UEBhMCSVQxGTAXBgNVBAoTEFNvbWUg
Q29tcGFueSBTcEExLjAsBgNVBAMTJUZha2UgU3Vib3JkaW5hdGUgQ0EgZm9yIHps
aW50IHRlc3RpbmcwggIiMA0GCSqGSIb3DQEBAQUAA4ICDwAwggIKAoICAQDUIA0D
o594ENUnkKF8JBKnFOsv+V5Dc4mpsc2UAJqrbvK4o7ESmzf3a7CB6ElS/6z2+HJ1
ODWEJifr9eBYnUc2xi8shPgqY/KCX1n8iAUDCEa99v09F4S20yCdNGfxPpP44VkW
0imAEdOslOjCYAabRbpvmiB5IaZHFMNEpFajOjqCW2W5hyx6O+octOgiowsNYPLv
3IZzb2DzTsPuSE2rCgbM4soEWAIvwGDFRhqdbJUbG0qWkHUHijZYynM2cqmU9wAH
3XPBCZUgkscuBKjdn0Q0l0q5yPOvlt7nW+g1HszQiRf6kbClOznN4q2ub38rEK/2
paa9UM1ggqojO41Ycl8n+9UOnQWMZRVBTiOUke7xgIw35Uq8s9My077rLsRR8pqP
63INU+3A8b+m2VTMFEtMdgRx+tKluwwGaXjkRP7CxkAqZNOroUspRAK9zCv9L7bz
s6VUd2fDK+J7kopHt72jKp2CWp1GjdYwX8S+9isFtYKggHqaXwl779BSfDg61zwt
W2fBHmWMM3A4dbYKyVm6naWOVOm6HJ53Q07Ugqc4FCiv4jCAEPavJzETh/h746N+
qpx1QCRHrGSgArXBSh9liCWbPpOVI0yTdqhRkyQ2slJLNLkr/RrWiG/FJU14w3is
isYcGh++uZLu9+YELrnVweBE3eqLzlvQIrkiowIDAQABo4IBKjCCASYwDgYDVR0P
AQH/BAQDAgEGMB0GA1UdJQQWMBQGCCsGAQUFBwMDBggrBgEFBQcDATAPBgNVHRMB
Af8EBTADAQH/MB0GA1UdDgQWBBQFqkwU1hxCIaaK2UPoFyrjqT+ppDAfBgNVHSME
GDAWgBTotvZ2S9A75Ual+VTUfgez3g1gPjBkBggrBgEFBQcBAQRYMFYwKQYIKwYB
BQUHMAGGHWh0dHA6Ly9jYS5zb21lY29tcGFueS5pdC9vY3NwMCkGCCsGAQUFBzAC
hh1odHRwOi8vY2Euc29tZWNvbXBhbnkuaXQvcm9vdDAPBgNVHSAECDAGMAQGAioD
MC0GA1UdHwQmMCQwIqAgoB6GHGh0dHA6Ly9jYS5zb21lY29tcGFueS5pdC9jcmww
DQYJKoZIhvcNAQELBQADggIBAD0QNEcZbrDWrM46+981LmDW2AvCuxdJPJIjr5jW
aez8wO5YkU0Ixu3QIPIj1uPcYhE4g0gLx8V/O1j29ueLt6Zn5afCROENVrH/lA6Q
TFohNfh0nl0OCABDphf3oOcEPfclIPnPB0qHHUYKjGYaPoj2u/NoqN52UNh56T0y
ifvI+kxcTMPFbEd2VEUck10mee6Vr5qOJo7jS29aKxKWhE+nBiVlHk+XYBf6sTKK
PJTZ5ClshZSCM0gQs7WAxiw984bF/HRiPNDJHl2iVSpwXN4V9HmG3b41m2GSU6ZT
Izcj6oOT8yDi8zyTg8Q6absPEhFvODZSPDvcPZTzZnmvAWBNgWQxeOmJ8XUVKSP0
os9kY2gSAJnQrBbqjspKVx+uHqBvqu1qYGieajyPWz5qDngoK7m2yxNZ20dvJhBK
8UYahMqJQMEdHqxPmcYKWLmKoNJ6Lg8N5O3qsb1QU9N63ppeMdcM+CgLGJNZFe1j
9AHdh3yn8MnvM9TUKpCheXTJP5tU/GCdFrnke3mandPmy0jAF+KOhF15OOIQbvwm
IZTzRyYF+kY6omdbKaQ+LMQCskpzQ4XJA1tEJ8daTVzjRIr2Cn2NuPNliONjxjBt
NMlqfTyIjUx/1NGnFRYoPnk264IZRKDmsQS+jXNtjtFbQlnhykidxI4Pd9uqRN3H
UnYS
-----END CERTIFICATE-----
