Certificate:
    Data:
        Version: 3 (0x2)
        Serial Number: 2 (0x2)
        Signature Algorithm: ecdsa-with-SHA256
        Issuer: 
        Validity
            Not Before: Jun 25 16:30:59 2021 GMT
            Not After : Jun 25 16:30:59 2021 GMT
        Subject: 
        Subject Public Key Info:
            Public Key Algorithm: id-ecPublicKey
                Public-Key: (256 bit)
                pub:
                    04:c9:aa:36:e0:41:f1:f4:83:bd:91:f7:9b:d1:af:
                    2d:04:66:3e:40:6b:c1:3c:04:05:79:fa:d1:dd:2a:
                    a1:03:a5:64:99:c1:47:ce:f8:b3:e4:c5:02:2b:bd:
                    87:56:12:31:a4:61:4f:32:eb:d8:17:7a:32:d5:02:
                    4c:6a:97:11:fe
                ASN1 OID: prime256v1
                NIST CURVE: P-256
        X509v3 extensions:
            X509v3 Basic Constraints: critical
                CA:TRUE
            X509v3 Subject Key Identifier: 
                5D:E1:83:23:4B:53:88:94:15:62:31:97:44:34:EE:6C:DF:DB:63:A8
    Signature Algorithm: ecdsa-with-SHA256
         30:45:02:20:17:1f:12:52:d1:b9:c0:2d:7d:14:f6:39:4d:72:
         9d:a2:eb:2b:11:5a:57:8f:75:24:7c:25:fb:b2:0a:6c:de:b5:
         02:21:00:bd:cf:2e:0c:99:f8:9e:2b:d5:da:44:0d:1d:c4:4b:
         ef:26:77:c6:07:ac:dd:7e:19:73:b6:f3:cf:ee:fa:05:c1
-----BEGIN CERTIFICATE-----
MIIBIDCBx6ADAgECAgECMAoGCCqGSM49BAMCMAAwHhcNMjEwNjI1MTYzMDU5WhcN
MjEwNjI1MTYzMDU5WjAAMFkwEwYHKoZIzj0CAQYIKoZIzj0DAQcDQgAEyao24EHx
9IO9kfeb0a8tBGY+QGvBPAQFefrR3SqhA6VkmcFHzviz5MUCK72HVhIxpGFPMuvY
F3oy1QJMapcR/qMyMDAwDwYDVR0TAQH/BAUwAwEB/zAdBgNVHQ4EFgQUXeGDI0tT
iJQVYjGXRDTubN/bY6gwCgYIKoZIzj0EAwIDSAAwRQIgFx8SUtG5wC19FPY5TXKd
ousrEVpXj3UkfCX7sgps3rUCIQC9zy4MmfieK9XaRA0dxEvvJnfGB6zdfhlztvPP
7voFwQ==
-----END CERTIFICATE-----