Certificate:
    Data:
        Version: 3 (0x2)
        Serial Number:
            c9:65:19:db:ab:fc:09:5a:15:50:0a:bf:eb:17:0f:e4
        Signature Algorithm: sha256WithRSAEncryption
        Issuer: C = IT, O = Some Company SpA, CN = Fake Root CA for zlint testing
        Validity
            Not Before: Jun 26 14:45:50 2021 GMT
            Not After : Jun 27 00:45:50 2031 GMT
        Subject: C = IT, O = Some Company SpA, CN = Fake Subordinate CA for zlint testing
        Subject Public Key Info:
            Public Key Algorithm: rsaEncryption
                RSA Public-Key: (4096 bit)
                Modulus:
                    00:d4:a7:59:08:56:b8:9d:03:ac:01:b0:ca:66:dd:
                    59:21:bb:d9:21:88:33:12:72:79:9f:85:2c:45:39:
                    eb:d9:ca:54:98:1d:4b:65:38:ac:d2:f7:7d:d6:ad:
                    a6:58:2d:52:6b:de:14:f7:97:76:93:07:30:c6:bc:
                    37:1b:02:db:77:48:d2:36:fb:44:8a:3b:7b:94:2d:
                    ac:cd:ba:53:a3:5d:c5:e6:67:a1:8d:b3:71:77:8d:
                    c5:71:5e:f1:77:16:cd:5e:56:97:fe:db:63:d3:87:
                    1a:e7:fa:3b:78:10:a1:03:e3:81:63:fb:da:81:d4:
                    cb:3e:0b:c0:15:3d:9f:75:a4:b1:aa:23:71:45:02:
                    12:d0:f4:d0:24:4e:4e:66:06:13:6e:ac:b1:53:db:
                    8a:73:53:b1:41:2e:59:97:2c:0a:1e:91:92:7a:28:
                    d4:ac:9a:4a:ab:4c:84:e3:67:03:fc:6f:63:05:27:
                    73:f9:52:f4:d4:d5:4c:18:03:44:9a:db:a3:c1:56:
                    33:e5:86:87:a0:0f:b1:89:56:52:33:b8:5d:60:f2:
                    31:e4:58:43:37:68:46:07:61:85:90:cf:b2:df:27:
                    2c:1d:81:b5:b4:03:21:b2:f1:8a:7c:7e:39:49:99:
                    a8:94:6c:bf:2f:06:23:23:6a:00:72:76:72:fd:b9:
                    1a:7b:a4:f8:66:48:cb:6e:42:3d:d1:91:a2:95:f7:
                    33:c6:1d:3b:8a:c9:ce:a5:a0:22:3f:81:12:b5:9e:
                    c3:54:95:ec:37:ff:1e:fc:16:2e:a9:14:0d:8f:5d:
                    43:e9:ed:9e:b1:c6:62:62:cb:b9:a2:2b:de:82:23:
                    d8:9f:f6:21:0e:a1:1a:01:e5:87:7a:f8:5f:8c:9a:
                    59:0d:30:fe:47:e4:19:f3:0a:97:1a:cb:d6:14:39:
                    57:ee:94:bd:13:4e:84:27:dc:ea:3f:77:59:0a:ff:
                    66:6c:f0:d8:af:ad:1c:0a:5b:90:47:89:0d:a8:5a:
                    75:98:c5:65:62:e8:34:e3:a6:15:0c:63:28:68:00:
                    07:63:56:3b:77:50:65:9f:6b:6b:44:b8:85:71:0d:
                    42:43:ee:b3:60:ea:02:5d:1e:8c:bd:96:16:37:14:
                    bd:9a:19:eb:52:01:b9:3a:24:87:37:36:19:bd:04:
                    81:c8:6f:83:ce:e2:08:27:d2:31:e0:de:9e:2c:38:
                    7e:db:a3:94:1c:43:f8:1c:92:6e:4e:f1:46:79:d2:
                    e0:91:68:90:df:0a:6d:e2:16:7c:b9:41:74:69:f4:
                    db:16:b2:64:d0:02:73:37:96:d0:26:94:3e:e9:83:
                    f2:99:a2:e9:e4:2d:71:97:87:75:57:cf:65:49:1d:
                    42:ba:1d
                Exponent: 65537 (0x10001)
        X509v3 extensions:
            X509v3 Key Usage: critical
                Certificate Sign, CRL Sign
            X509v3 Extended Key Usage: 
                TLS Web Client Authentication, TLS Web Server Authentication
            X509v3 Basic Constraints: critical
                CA:TRUE
            X509v3 Subject Key Identifier: 
                53:1F:59:72:9F:D7:28:9E:05:0F:B9:6C:4A:C0:CF:6F:9E:1F:DF:E1
            X509v3 Authority Key Identifier: 
                keyid:E8:B6:F6:76:4B:D0:3B:E5:46:A5:F9:54:D4:7E:07:B3:DE:0D:60:3E

            Authority Information Access: 
                OCSP - URI:http://ca.somecompany.it/ocsp
                CA Issuers - URI:http://ca.somecompany.it/root

            X509v3 Certificate Policies: 
                Policy: 1.2.3

            X509v3 CRL Distribution Points: 

                Full Name:
                  URI:http://ca.somecompany.it/crl

    Signature Algorithm: sha256WithRSAEncryption
         c1:b9:a0:b0:c0:15:1d:d9:50:e7:e8:4e:1c:fc:b2:95:43:0c:
         ed:e6:d1:0d:b7:87:07:fe:ee:5b:8b:f4:4d:4b:2a:c5:06:a7:
         9f:5c:35:46:6f:09:2a:aa:6c:86:ea:09:47:8b:d2:77:21:24:
         cc:ae:db:3b:05:fb:ef:3c:a0:70:5d:a4:2d:9d:fd:92:f6:ce:
         40:1e:df:82:48:db:35:92:d9:ca:79:e4:c1:4d:63:cf:8b:7b:
         21:30:ca:19:7a:d3:47:4b:1b:49:a2:f8:7f:04:a5:19:2c:0a:
         f6:5a:68:c7:59:bf:b4:5c:b9:e8:bb:94:77:2b:be:f5:67:d1:
         c9:17:82:4b:af:e4:89:b6:92:58:1c:12:f6:8a:b5:0d:1a:2f:
         2b:34:c8:9b:5e:a0:ab:49:b2:4f:48:85:0e:ea:8e:2c:af:02:
         c8:24:b3:5b:fa:c8:5f:24:d1:e9:99:eb:d3:12:cd:87:ee:c8:
         6a:e6:ce:2b:2a:f2:0a:e6:8e:29:4c:84:db:55:24:67:d6:a5:
         b5:eb:10:a1:50:ac:ac:39:74:94:1d:7d:92:01:55:b7:c7:86:
         f4:86:5c:52:23:35:6b:4f:b1:35:27:cd:13:0f:95:d7:f2:04:
         1d:f8:7c:3a:b0:15:e8:66:d7:09:34:47:72:3e:4b:9f:93:78:
         47:39:dc:e4:31:0f:5e:36:a3:92:3c:c3:fd:68:35:32:92:90:
         ec:7c:e9:63:d8:ce:eb:1f:cb:50:16:cd:79:a9:63:07:be:11:
         f3:ad:bf:61:56:5d:cb:97:95:f0:c7:c1:1c:c9:de:b4:cc:8b:
         29:88:12:bb:22:86:cd:1a:54:da:d3:36:f3:24:6e:43:ba:48:
         9c:06:11:57:46:3a:33:27:fb:07:db:df:68:21:02:81:fa:3a:
         d3:58:02:ed:ec:c0:f3:e9:90:7a:46:a6:de:b1:0c:38:5a:bf:
         86:71:a1:eb:84:dd:65:f5:a5:2f:f6:ba:b4:d6:73:a1:0a:b1:
         7f:77:e6:f4:79:eb:5d:3c:fa:b4:34:bf:ec:5a:90:09:10:e5:
         72:cc:f5:df:db:6b:f1:f7:54:e5:75:e2:a6:d0:ff:db:31:f3:
         5e:24:e6:38:45:ad:5d:b7:86:a5:15:58:a3:1a:84:19:e5:94:
         35:a3:16:3d:6d:3c:a3:05:96:1b:9b:0f:c7:1c:cc:16:f0:e0:
         32:33:b7:a9:6d:e4:7d:05:2b:e6:e2:e9:81:cb:9f:05:b0:66:
         f9:ad:04:7f:8b:26:fc:5b:45:db:92:3c:04:3f:7e:48:55:a5:
         53:06:c0:19:ad:05:b0:8e:5f:ca:29:9f:74:f5:ad:4d:59:f3:
         2f:f7:03:d5:d1:04:9a:61
-----BEGIN CERTIFICATE-----
MIIGYDCCBEigAwIBAgIRAMllGdur/AlaFVAKv+sXD+QwDQYJKoZIhvcNAQELBQAw
UTELMAkGA1UEBhMCSVQxGTAXBgNVBAoTEFNvbWUgQ29tcGFueSBTcEExJzAlBgNV
BAMTHkZha2UgUm9vdCBDQSBmb3IgemxpbnQgdGVzdGluZzAeFw0yMTA2MjYxNDQ1
NTBaFw0zMTA2MjcwMDQ1NTBaMFgxCzAJBgNVBAYTAklUMRkwFwYDVQQKExBTb21l
IENvbXBhbnkgU3BBMS4wLAYDVQQDEyVGYWtlIFN1Ym9yZGluYXRlIENBIGZvciB6
bGludCB0ZXN0aW5nMIICIjANBgkqhkiG9w0BAQEFAAOCAg8AMIICCgKCAgEA1KdZ
CFa4nQOsAbDKZt1ZIbvZIYgzEnJ5n4UsRTnr2cpUmB1LZTis0vd91q2mWC1Sa94U
95d2kwcwxrw3GwLbd0jSNvtEijt7lC2szbpTo13F5mehjbNxd43FcV7xdxbNXlaX
/ttj04ca5/o7eBChA+OBY/vagdTLPgvAFT2fdaSxqiNxRQIS0PTQJE5OZgYTbqyx
U9uKc1OxQS5ZlywKHpGSeijUrJpKq0yE42cD/G9jBSdz+VL01NVMGANEmtujwVYz
5YaHoA+xiVZSM7hdYPIx5FhDN2hGB2GFkM+y3ycsHYG1tAMhsvGKfH45SZmolGy/
LwYjI2oAcnZy/bkae6T4ZkjLbkI90ZGilfczxh07isnOpaAiP4EStZ7DVJXsN/8e
/BYuqRQNj11D6e2escZiYsu5oivegiPYn/YhDqEaAeWHevhfjJpZDTD+R+QZ8wqX
GsvWFDlX7pS9E06EJ9zqP3dZCv9mbPDYr60cCluQR4kNqFp1mMVlYug046YVDGMo
aAAHY1Y7d1Bln2trRLiFcQ1CQ+6zYOoCXR6MvZYWNxS9mhnrUgG5OiSHNzYZvQSB
yG+DzuIIJ9Ix4N6eLDh+26OUHEP4HJJuTvFGedLgkWiQ3wpt4hZ8uUF0afTbFrJk
0AJzN5bQJpQ+6YPymaLp5C1xl4d1V89lSR1Cuh0CAwEAAaOCASowggEmMA4GA1Ud
DwEB/wQEAwIBBjAdBgNVHSUEFjAUBggrBgEFBQcDAgYIKwYBBQUHAwEwDwYDVR0T
AQH/BAUwAwEB/zAdBgNVHQ4EFgQUUx9Zcp/XKJ4FD7lsSsDPb54f3+EwHwYDVR0j
BBgwFoAU6Lb2dkvQO+VGpflU1H4Hs94NYD4wZAYIKwYBBQUHAQEEWDBWMCkGCCsG
AQUFBzABhh1odHRwOi8vY2Euc29tZWNvbXBhbnkuaXQvb2NzcDApBggrBgEFBQcw
AoYdaHR0cDovL2NhLnNvbWVjb21wYW55Lml0L3Jvb3QwDwYDVR0gBAgwBjAEBgIq
AzAtBgNVHR8EJjAkMCKgIKAehhxodHRwOi8vY2Euc29tZWNvbXBhbnkuaXQvY3Js
MA0GCSqGSIb3DQEBCwUAA4ICAQDBuaCwwBUd2VDn6E4c/LKVQwzt5tENt4cH/u5b
i/RNSyrFBqefXDVGbwkqqmyG6glHi9J3ISTMrts7BfvvPKBwXaQtnf2S9s5AHt+C
SNs1ktnKeeTBTWPPi3shMMoZetNHSxtJovh/BKUZLAr2WmjHWb+0XLnou5R3K771
Z9HJF4JLr+SJtpJYHBL2irUNGi8rNMibXqCrSbJPSIUO6o4srwLIJLNb+shfJNHp
mevTEs2H7shq5s4rKvIK5o4pTITbVSRn1qW16xChUKysOXSUHX2SAVW3x4b0hlxS
IzVrT7E1J80TD5XX8gQd+Hw6sBXoZtcJNEdyPkufk3hHOdzkMQ9eNqOSPMP9aDUy
kpDsfOlj2M7rH8tQFs15qWMHvhHzrb9hVl3Ll5Xwx8Ecyd60zIspiBK7IobNGlTa
0zbzJG5DukicBhFXRjozJ/sH299oIQKB+jrTWALt7MDz6ZB6RqbesQw4Wr+GcaHr
hN1l9aUv9rq01nOhCrF/d+b0eetdPPq0NL/sWpAJEOVyzPXf22vx91TldeKm0P/b
MfNeJOY4Ra1dt4alFVijGoQZ5ZQ1oxY9bTyjBZYbmw/HHMwW8OAyM7epbeR9BSvm
4umBy58FsGb5rQR/iyb8W0XbkjwEP35IVaVTBsAZrQWwjl/KKZ909a1NWfMv9wPV
0QSaYQ==
-----END CERTIFICATE-----
