Certificate:
    Data:
        Version: 3 (0x2)
        Serial Number:
            5a:18:97:61:57:d7:5b:00:34:fc:93:06:41:f6:18:55
        Signature Algorithm: sha256WithRSAEncryption
        Issuer: C = XX, O = Some CA, CN = Fake CA for zlint testing
        Validity
            Not Before: Jun 21 09:04:51 2025 GMT
            Not After : Jun 21 09:04:51 2026 GMT
        Subject: C = XX, ST = Some State or Province, L = Somewhere, O = Some Company Ltd., CN = example.org, serialNumber = 1234567890, businessCategory = Non-Commercial Entity
        Subject Public Key Info:
            Public Key Algorithm: rsaEncryption
                RSA Public-Key: (2048 bit)
                Modulus:
                    00:b0:62:37:ca:ed:3e:b4:62:8d:ac:54:6e:ed:b0:
                    8a:02:a7:e3:06:e8:e8:6d:7d:9e:51:db:08:a4:62:
                    c5:f9:d0:ee:74:84:a1:48:a6:3c:ce:a9:95:7a:30:
                    75:7d:e5:a2:39:eb:20:14:28:b4:44:08:f1:4c:cc:
                    4e:a7:04:83:56:6a:25:b4:81:8a:2e:48:5a:2c:4d:
                    58:a3:82:6d:cd:3f:05:4d:4d:fa:86:7d:d7:57:5e:
                    25:ad:49:ec:87:59:f6:33:42:b5:fb:7a:08:a9:ff:
                    97:d6:73:15:35:16:85:2b:fa:e7:64:de:b2:cf:d6:
                    a4:12:ae:d9:44:fa:ac:4c:56:80:8b:43:b1:5a:a4:
                    3d:f8:11:d2:91:68:e2:56:c6:c2:c6:07:82:26:e2:
                    7c:86:36:97:95:65:7c:79:d6:df:c0:d5:5a:63:fe:
                    80:04:72:3a:58:89:d2:ec:37:47:3b:46:a3:38:6a:
                    63:26:48:d2:28:27:d2:07:36:60:96:9b:3d:43:06:
                    87:62:c5:81:a4:50:af:48:e1:19:77:43:d0:b8:ae:
                    62:3f:26:51:19:ae:5e:6e:f4:fa:87:95:50:5e:80:
                    54:11:42:2c:15:8b:e2:f1:52:e9:9f:52:d5:e9:38:
                    27:70:af:6a:aa:1c:54:22:1c:8d:ce:e1:fb:e5:af:
                    63:73
                Exponent: 65537 (0x10001)
        X509v3 extensions:
            X509v3 Key Usage: critical
                Digital Signature, Key Encipherment
            X509v3 Extended Key Usage: 
                TLS Web Client Authentication, TLS Web Server Authentication
            X509v3 Subject Key Identifier: 
                47:CB:BD:80:3F:1E:7B:15:58:E1:04:05:1C:BC:2B:6E:69:BA:AA:BB
            X509v3 Authority Key Identifier: 
                keyid:E8:B6:F6:76:4B:D0:3B:E5:46:A5:F9:54:D4:7E:07:B3:DE:0D:60:3E

            Authority Information Access: 
                OCSP - URI:http://ca.someca-inc.com/ocsp
                CA Issuers - URI:http://ca.someca-inc.com/root

            X509v3 Subject Alternative Name: 
                DNS:example.org
            X509v3 Certificate Policies: 
                Policy: 2.23.140.1.1

            X509v3 CRL Distribution Points: 

                Full Name:
                  URI:http://ca.someca-inc.com/crl

    Signature Algorithm: sha256WithRSAEncryption
         8a:b6:76:06:ec:b6:24:99:0c:5b:81:44:33:48:be:dd:44:fe:
         e0:43:e3:b8:5b:c2:db:13:c1:f1:24:1b:4e:8f:a8:88:7f:ee:
         45:ae:69:c4:ca:32:ed:6c:a5:20:91:09:03:9a:0f:fe:fb:f1:
         b5:85:b3:ea:a3:fa:d5:ff:76:de:3b:2c:fa:fc:91:b5:5c:90:
         00:d0:06:9c:6f:7e:ab:bd:4a:b8:1c:6f:2c:f3:14:bc:5d:02:
         ac:48:9b:ab:b0:d9:56:e8:9a:59:9a:ed:bf:c9:db:a2:7e:ab:
         8a:24:18:5f:c7:3b:56:b6:38:79:55:ba:76:91:ad:1f:b3:d8:
         7f:1f:8a:4b:25:84:03:63:1a:ca:99:2f:87:5a:a6:90:df:3f:
         d5:5d:f0:a9:ed:80:a5:7e:e9:95:3c:20:f9:33:72:76:94:d6:
         21:01:56:12:5c:fd:ce:7b:9e:a1:c6:16:85:9c:cb:16:c7:e4:
         5a:3c:5d:1c:dc:ba:d4:a3:c2:b5:2f:03:12:23:81:b7:fd:9a:
         1e:52:16:98:a2:c0:65:b9:da:15:be:d4:37:4c:9f:c1:5a:c2:
         9d:b7:7e:c3:74:e1:41:05:85:9d:54:a7:0a:73:58:39:6f:3b:
         96:9a:24:82:e9:15:86:28:a6:e6:1d:d1:ae:82:51:6e:ef:a4:
         85:68:7c:43
-----BEGIN CERTIFICATE-----
MIIErTCCA5WgAwIBAgIQWhiXYVfXWwA0/JMGQfYYVTANBgkqhkiG9w0BAQsFADBD
MQswCQYDVQQGEwJYWDEQMA4GA1UEChMHU29tZSBDQTEiMCAGA1UEAxMZRmFrZSBD
QSBmb3IgemxpbnQgdGVzdGluZzAeFw0yNTA2MjEwOTA0NTFaFw0yNjA2MjEwOTA0
NTFaMIGpMQswCQYDVQQGEwJYWDEfMB0GA1UECBMWU29tZSBTdGF0ZSBvciBQcm92
aW5jZTESMBAGA1UEBxMJU29tZXdoZXJlMRowGAYDVQQKExFTb21lIENvbXBhbnkg
THRkLjEUMBIGA1UEAxMLZXhhbXBsZS5vcmcxEzARBgNVBAUTCjEyMzQ1Njc4OTAx
HjAcBgNVBA8TFU5vbi1Db21tZXJjaWFsIEVudGl0eTCCASIwDQYJKoZIhvcNAQEB
BQADggEPADCCAQoCggEBALBiN8rtPrRijaxUbu2wigKn4wbo6G19nlHbCKRixfnQ
7nSEoUimPM6plXowdX3lojnrIBQotEQI8UzMTqcEg1ZqJbSBii5IWixNWKOCbc0/
BU1N+oZ911deJa1J7IdZ9jNCtft6CKn/l9ZzFTUWhSv652Tess/WpBKu2UT6rExW
gItDsVqkPfgR0pFo4lbGwsYHgibifIY2l5VlfHnW38DVWmP+gARyOliJ0uw3RztG
ozhqYyZI0ign0gc2YJabPUMGh2LFgaRQr0jhGXdD0LiuYj8mURmuXm70+oeVUF6A
VBFCLBWL4vFS6Z9S1ek4J3CvaqocVCIcjc7h++WvY3MCAwEAAaOCATQwggEwMA4G
A1UdDwEB/wQEAwIFoDAdBgNVHSUEFjAUBggrBgEFBQcDAgYIKwYBBQUHAwEwHQYD
VR0OBBYEFEfLvYA/HnsVWOEEBRy8K25puqq7MB8GA1UdIwQYMBaAFOi29nZL0Dvl
RqX5VNR+B7PeDWA+MGQGCCsGAQUFBwEBBFgwVjApBggrBgEFBQcwAYYdaHR0cDov
L2NhLnNvbWVjYS1pbmMuY29tL29jc3AwKQYIKwYBBQUHMAKGHWh0dHA6Ly9jYS5z
b21lY2EtaW5jLmNvbS9yb290MBYGA1UdEQQPMA2CC2V4YW1wbGUub3JnMBIGA1Ud
IAQLMAkwBwYFZ4EMAQEwLQYDVR0fBCYwJDAioCCgHoYcaHR0cDovL2NhLnNvbWVj
YS1pbmMuY29tL2NybDANBgkqhkiG9w0BAQsFAAOCAQEAirZ2Buy2JJkMW4FEM0i+
3UT+4EPjuFvC2xPB8SQbTo+oiH/uRa5pxMoy7WylIJEJA5oP/vvxtYWz6qP61f92
3jss+vyRtVyQANAGnG9+q71KuBxvLPMUvF0CrEibq7DZVuiaWZrtv8nbon6riiQY
X8c7VrY4eVW6dpGtH7PYfx+KSyWEA2Maypkvh1qmkN8/1V3wqe2ApX7plTwg+TNy
dpTWIQFWElz9znueocYWhZzLFsfkWjxdHNy61KPCtS8DEiOBt/2aHlIWmKLAZbna
Fb7UN0yfwVrCnbd+w3ThQQWFnVSnCnNYOW87lpokgukVhiim5h3RroJRbu+khWh8
Qw==
-----END CERTIFICATE-----
