Certificate:
    Data:
        Version: 3 (0x2)
        Serial Number:
            39:18:c8:0c:87:72:4b:a6:2d:03:cd:10:e1:fc:d3:87
        Signature Algorithm: sha256WithRSAEncryption
        Issuer: C = XX, O = Some CA, CN = Fake Root CA for zlint testing
        Validity
            Not Before: Jun 21 08:56:05 2025 GMT
            Not After : Jun 20 08:56:05 2030 GMT
        Subject: C = XX, ST = Some State, L = Some Locality, O = Some CA, CN = Fake CA for zlint testing
        Subject Public Key Info:
            Public Key Algorithm: rsaEncryption
                RSA Public-Key: (4096 bit)
                Modulus:
                    00:a9:32:b6:91:cb:d2:11:c3:8b:f4:d4:2f:a1:b3:
                    0d:d1:33:fc:75:c5:68:39:ee:e7:43:ea:04:50:9d:
                    11:3f:d2:07:c5:45:85:aa:e7:62:4c:79:e2:dd:9a:
                    ef:7d:35:64:72:3c:fe:7f:bd:f4:b3:c0:bd:e4:e1:
                    15:89:f4:f9:1e:71:0a:ef:75:6a:4d:a5:5c:9f:83:
                    c6:65:f6:b9:d7:82:64:29:e1:8b:37:c7:4f:83:3a:
                    4d:67:14:5d:41:1c:2a:9a:5f:6c:68:4e:0a:41:d8:
                    39:33:7f:cb:25:d2:fd:13:a1:b7:1d:f4:da:c2:f2:
                    76:98:f8:d5:c9:24:30:1c:27:84:35:b6:2f:92:ec:
                    9a:9d:64:4e:90:60:d6:64:fe:1c:cf:69:89:d6:02:
                    bd:c2:42:ed:9a:96:24:59:ca:48:92:a7:ab:90:08:
                    0e:79:d8:74:a0:85:01:37:54:fe:54:93:e7:eb:d6:
                    c8:82:d2:cf:f2:1f:3e:44:f3:e9:24:e2:1d:f4:6b:
                    2c:20:63:6b:1c:59:02:07:3c:6b:db:27:32:c4:53:
                    92:6c:a5:2c:82:87:2b:b6:6b:91:e9:d1:9e:76:ac:
                    f5:23:5f:1c:9f:2d:52:f5:1c:d1:88:58:7f:6c:e1:
                    8d:5f:84:77:b7:0f:30:a1:5d:fc:d9:f2:ae:b0:bb:
                    b4:c7:7a:eb:3e:5a:e0:93:87:54:7a:89:1e:f4:1a:
                    a6:2e:d0:72:ce:2e:5b:f8:ab:74:54:c2:7c:78:fb:
                    89:4f:37:d4:e3:c4:6c:c3:0d:51:f5:4e:89:84:42:
                    4b:8c:4d:a1:e8:a4:72:ef:ab:b0:96:a9:05:ab:3b:
                    43:c3:5d:85:cc:e7:1c:7d:0f:7b:e3:a6:a8:fb:8e:
                    75:ff:80:c3:1b:1d:56:a9:61:5e:c1:d7:e2:62:cf:
                    5e:d5:69:86:5f:3c:f4:3d:e7:b7:d3:ef:ce:80:8e:
                    42:1a:0c:8d:fb:1e:6c:05:b6:1f:af:d9:f6:3a:bc:
                    55:80:07:df:3b:b6:89:be:76:69:87:9a:98:67:7b:
                    4f:5c:23:17:80:cb:81:c8:19:ab:77:cb:48:9c:e1:
                    18:e2:ee:aa:cd:48:2f:ac:8e:3b:c3:d0:46:77:76:
                    fd:e3:e2:70:67:9f:1d:b5:1f:8e:8b:d2:13:aa:74:
                    69:9c:14:3e:13:40:90:03:aa:5a:c7:26:5b:7e:dc:
                    e6:6b:ae:9a:52:f2:41:38:97:ac:23:89:16:ee:b5:
                    78:58:b1:c4:67:68:a9:0d:08:cf:db:d0:38:e4:3b:
                    83:e5:4c:98:39:f3:94:78:61:c4:15:8a:3c:71:3e:
                    79:31:1d:70:c6:f2:ba:9f:23:e2:c6:33:57:fa:16:
                    47:ef:c1
                Exponent: 65537 (0x10001)
        X509v3 extensions:
            X509v3 Key Usage: critical
                Certificate Sign, CRL Sign
            X509v3 Extended Key Usage: 
                TLS Web Client Authentication, TLS Web Server Authentication
            X509v3 Basic Constraints: critical
                CA:TRUE
            X509v3 Subject Key Identifier: 
                40:86:36:4B:79:89:9B:62:66:55:86:1A:53:3C:F1:EB:12:F8:B2:FA
            X509v3 Authority Key Identifier: 
                keyid:E8:B6:F6:76:4B:D0:3B:E5:46:A5:F9:54:D4:7E:07:B3:DE:0D:60:3E

            Authority Information Access: 
                CA Issuers - URI:https://ca.someca-inc.com/root

            X509v3 Certificate Policies: 
                Policy: X509v3 Any Policy

            X509v3 CRL Distribution Points: 

                Full Name:
                  URI:http://ca.someca-inc.com/crl

    Signature Algorithm: sha256WithRSAEncryption
         01:9c:40:89:f8:37:77:86:89:d2:67:e5:fb:50:b9:5a:ff:98:
         ed:7f:17:7c:c8:c0:f0:3a:58:cc:ce:6b:7e:98:16:06:b5:32:
         26:0f:c3:1a:c1:64:27:ad:96:f9:08:91:a7:18:02:9d:b7:7f:
         00:1b:e9:ff:2a:e2:e7:7e:6c:cb:cd:06:93:58:10:0d:99:32:
         cb:ae:3b:14:c2:0e:cb:7c:c9:83:df:2d:26:bc:75:2b:a0:98:
         0d:ca:24:46:6d:09:ff:fd:23:6d:74:5d:28:cf:73:c4:58:d6:
         14:df:2f:21:03:a4:0e:ad:4f:91:2d:57:51:c6:7f:13:40:0c:
         d1:01:9a:05:1a:23:f0:9c:1c:01:00:8b:f5:64:09:36:f6:33:
         84:bc:75:92:af:fe:ed:e8:85:07:82:47:61:e3:2b:23:21:f9:
         51:7b:94:91:29:b9:32:60:c9:21:a8:0e:9c:5e:1a:e5:d5:f3:
         ec:e7:3a:33:56:57:af:e3:0d:e5:95:17:9c:d2:55:eb:37:ce:
         d9:d9:ae:73:ca:96:14:d9:fb:8d:e2:a1:e2:75:2a:09:8c:8c:
         11:02:fe:de:00:59:03:46:d4:8b:ce:ac:dd:34:ed:31:d3:71:
         de:63:29:6e:da:14:a4:b0:e9:95:de:f7:ef:e0:e4:f8:c5:28:
         57:01:1e:a0:b4:8d:e3:28:53:7d:cb:74:23:95:fe:ef:7e:a5:
         31:09:1d:e9:bf:a3:9c:15:06:33:62:ba:23:08:6d:47:a2:33:
         b9:ff:d2:45:ee:6b:09:be:ae:63:d5:68:72:e1:07:75:c1:80:
         38:66:65:09:f0:8f:90:71:d3:4b:53:7b:59:af:b5:54:11:e8:
         1e:ab:e8:b5:ca:ac:25:00:ac:82:77:ad:80:c5:7f:49:04:ab:
         17:ad:2b:41:92:07:29:44:cb:57:5c:a3:68:91:4f:7e:8b:45:
         de:42:48:da:50:f5:6e:2d:a3:f3:8e:87:fa:59:3d:db:f2:86:
         cf:d9:ed:66:d2:eb:66:fe:5b:91:f4:a7:92:75:03:6e:3f:0e:
         fc:54:1c:f0:53:77:47:27:ea:eb:98:fb:3a:1d:98:25:26:23:
         71:f2:89:0e:ef:6c:79:8d:24:42:49:15:50:0d:85:fc:3a:42:
         2e:c3:42:58:18:d9:95:6d:26:0c:21:03:2f:2f:27:de:d6:1e:
         8b:c0:92:bc:c3:65:f7:83:69:d0:68:71:9f:65:20:43:81:b1:
         73:aa:8d:56:83:e3:e6:9d:38:e2:96:59:5c:28:97:7e:46:41:
         2b:d3:16:30:41:e7:ba:85:09:9c:95:e8:e3:6e:72:3b:40:5e:
         e3:24:d8:3f:38:40:79:33
-----BEGIN CERTIFICATE-----
MIIGRTCCBC2gAwIBAgIQORjIDIdyS6YtA80Q4fzThzANBgkqhkiG9w0BAQsFADBI
MQswCQYDVQQGEwJYWDEQMA4GA1UEChMHU29tZSBDQTEnMCUGA1UEAxMeRmFrZSBS
b290IENBIGZvciB6bGludCB0ZXN0aW5nMB4XDTI1MDYyMTA4NTYwNVoXDTMwMDYy
MDA4NTYwNVowcDELMAkGA1UEBhMCWFgxEzARBgNVBAgTClNvbWUgU3RhdGUxFjAU
BgNVBAcTDVNvbWUgTG9jYWxpdHkxEDAOBgNVBAoTB1NvbWUgQ0ExIjAgBgNVBAMT
GUZha2UgQ0EgZm9yIHpsaW50IHRlc3RpbmcwggIiMA0GCSqGSIb3DQEBAQUAA4IC
DwAwggIKAoICAQCpMraRy9IRw4v01C+hsw3RM/x1xWg57udD6gRQnRE/0gfFRYWq
52JMeeLdmu99NWRyPP5/vfSzwL3k4RWJ9PkecQrvdWpNpVyfg8Zl9rnXgmQp4Ys3
x0+DOk1nFF1BHCqaX2xoTgpB2Dkzf8sl0v0Tobcd9NrC8naY+NXJJDAcJ4Q1ti+S
7JqdZE6QYNZk/hzPaYnWAr3CQu2aliRZykiSp6uQCA552HSghQE3VP5Uk+fr1siC
0s/yHz5E8+kk4h30aywgY2scWQIHPGvbJzLEU5JspSyChyu2a5Hp0Z52rPUjXxyf
LVL1HNGIWH9s4Y1fhHe3DzChXfzZ8q6wu7THeus+WuCTh1R6iR70GqYu0HLOLlv4
q3RUwnx4+4lPN9TjxGzDDVH1TomEQkuMTaHopHLvq7CWqQWrO0PDXYXM5xx9D3vj
pqj7jnX/gMMbHVapYV7B1+Jiz17VaYZfPPQ957fT786AjkIaDI37HmwFth+v2fY6
vFWAB987tom+dmmHmphne09cIxeAy4HIGat3y0ic4Rji7qrNSC+sjjvD0EZ3dv3j
4nBnnx21H46L0hOqdGmcFD4TQJADqlrHJlt+3OZrrppS8kE4l6wjiRbutXhYscRn
aKkNCM/b0DjkO4PlTJg585R4YcQVijxxPnkxHXDG8rqfI+LGM1f6FkfvwQIDAQAB
o4IBATCB/jAOBgNVHQ8BAf8EBAMCAQYwHQYDVR0lBBYwFAYIKwYBBQUHAwIGCCsG
AQUFBwMBMA8GA1UdEwEB/wQFMAMBAf8wHQYDVR0OBBYEFECGNkt5iZtiZlWGGlM8
8esS+LL6MB8GA1UdIwQYMBaAFOi29nZL0DvlRqX5VNR+B7PeDWA+MDoGCCsGAQUF
BwEBBC4wLDAqBggrBgEFBQcwAoYeaHR0cHM6Ly9jYS5zb21lY2EtaW5jLmNvbS9y
b290MBEGA1UdIAQKMAgwBgYEVR0gADAtBgNVHR8EJjAkMCKgIKAehhxodHRwOi8v
Y2Euc29tZWNhLWluYy5jb20vY3JsMA0GCSqGSIb3DQEBCwUAA4ICAQABnECJ+Dd3
honSZ+X7ULla/5jtfxd8yMDwOljMzmt+mBYGtTImD8MawWQnrZb5CJGnGAKdt38A
G+n/KuLnfmzLzQaTWBANmTLLrjsUwg7LfMmD3y0mvHUroJgNyiRGbQn//SNtdF0o
z3PEWNYU3y8hA6QOrU+RLVdRxn8TQAzRAZoFGiPwnBwBAIv1ZAk29jOEvHWSr/7t
6IUHgkdh4ysjIflRe5SRKbkyYMkhqA6cXhrl1fPs5zozVlev4w3llRec0lXrN87Z
2a5zypYU2fuN4qHidSoJjIwRAv7eAFkDRtSLzqzdNO0x03HeYylu2hSksOmV3vfv
4OT4xShXAR6gtI3jKFN9y3Qjlf7vfqUxCR3pv6OcFQYzYrojCG1HojO5/9JF7msJ
vq5j1Why4Qd1wYA4ZmUJ8I+QcdNLU3tZr7VUEegeq+i1yqwlAKyCd62AxX9JBKsX
rStBkgcpRMtXXKNokU9+i0XeQkjaUPVuLaPzjof6WT3b8obP2e1m0utm/luR9KeS
dQNuPw78VBzwU3dHJ+rrmPs6HZglJiNx8okO72x5jSRCSRVQDYX8OkIuw0JYGNmV
bSYMIQMvLyfe1h6LwJK8w2X3g2nQaHGfZSBDgbFzqo1Wg+PmnTjilllcKJd+RkEr
0xYwQee6hQmclejjbnI7QF7jJNg/OEB5Mw==
-----END CERTIFICATE-----
