Certificate:
    Data:
        Version: 3 (0x2)
        Serial Number:
            ef:cd:41:98:65:fd:0b:75:ad:ec:21:64:6a:ec:e3:eb
        Signature Algorithm: sha256WithRSAEncryption
        Issuer: C = IT, O = Some Company SpA, CN = Fake Root CA for zlint testing
        Validity
            Not Before: Jun 27 08:36:21 2021 GMT
            Not After : Jun 27 18:36:21 2031 GMT
        Subject: C = IT, O = Some Company SpA, CN = Fake Subordinate CA for zlint testing
        Subject Public Key Info:
            Public Key Algorithm: rsaEncryption
                RSA Public-Key: (4096 bit)
                Modulus:
                    00:de:5d:87:63:ba:36:ca:ff:4f:cf:4a:bd:5f:62:
                    80:63:38:46:20:6d:9d:c0:80:9c:d8:b5:6a:2a:bc:
                    01:26:04:ea:a9:cd:23:55:64:3c:ad:b2:77:aa:98:
                    85:69:dc:78:ca:08:33:d1:09:46:27:a2:57:f3:f9:
                    bb:87:7b:3c:fc:06:d6:a4:d1:3c:30:fd:9a:3a:60:
                    90:3b:9c:5c:43:5d:81:8b:d6:41:9e:e7:cc:b8:55:
                    34:e3:e3:65:6c:5a:ac:a3:94:b4:a6:2b:b7:83:e5:
                    a9:81:87:b5:52:da:03:c2:ef:4e:4a:92:29:16:58:
                    82:64:ee:fc:d9:5c:e6:f7:27:47:0e:59:0b:68:ab:
                    d0:2d:c1:85:9f:54:07:de:8d:60:da:26:4e:cb:63:
                    ac:0d:cf:c6:10:28:7e:0e:1e:f0:88:5e:c3:b2:14:
                    23:e3:0a:d7:39:2b:c3:cb:8f:14:1e:57:03:77:c4:
                    7f:18:e4:c7:0c:6d:0b:fe:3a:05:e1:e7:2c:9e:42:
                    b5:cd:41:35:8f:16:05:4f:c2:14:73:3c:ce:61:82:
                    70:98:0d:71:9c:d5:37:7f:0e:48:31:0a:2e:63:04:
                    80:43:06:42:d0:db:be:5a:4e:5e:f1:d2:25:83:88:
                    00:fd:b8:ca:df:5c:9b:e7:53:a9:8d:72:c8:fe:e0:
                    84:2b:9f:db:86:f3:39:da:65:c9:64:90:c9:1a:54:
                    dd:02:08:f5:f3:c0:28:66:4a:b6:24:3b:16:e1:6b:
                    51:c4:61:62:80:5f:92:f7:a7:ac:63:73:2d:48:f5:
                    f1:d0:2d:03:d7:f7:e7:a3:7c:34:5a:dc:cc:dc:c7:
                    1e:35:95:68:f9:8d:fc:05:7f:6d:32:5e:2f:fb:47:
                    c3:d5:ec:a7:c3:22:44:28:b1:78:db:43:9c:60:e4:
                    bd:78:49:fe:73:85:d5:78:b6:81:0d:7e:bd:e2:19:
                    d7:e9:46:d9:8b:60:99:00:c8:1c:7d:74:bc:38:40:
                    aa:71:a7:49:a9:d6:4b:a7:0c:a5:de:b9:6f:16:3b:
                    1b:d2:80:48:2d:49:be:50:25:11:47:83:b4:38:ce:
                    5c:47:10:bb:24:54:ea:c8:c8:7d:e2:fa:ac:c1:0e:
                    d6:ca:56:72:b0:7e:38:e8:87:85:b1:43:85:68:e6:
                    65:06:d8:4a:21:bf:a6:a3:e9:e3:99:08:98:2d:e6:
                    0c:0c:af:f0:e5:f3:0b:38:38:e7:b1:96:8d:eb:2a:
                    c8:30:e4:2c:9e:0d:1e:23:a9:6a:09:98:9d:dd:34:
                    9a:ba:d8:01:7c:8f:c8:86:ec:07:43:11:00:37:16:
                    71:6a:65:54:b0:9f:50:43:5f:2d:69:5d:8a:da:e3:
                    e1:66:3b
                Exponent: 65537 (0x10001)
        X509v3 extensions:
            X509v3 Key Usage: critical
                Certificate Sign, CRL Sign
            X509v3 Extended Key Usage: 
                Time Stamping, TLS Web Server Authentication
            X509v3 Basic Constraints: critical
                CA:TRUE
            X509v3 Subject Key Identifier: 
                C3:37:B6:77:B5:BF:92:A9:AC:8A:2E:9A:67:56:77:0C:4B:91:C7:90
            X509v3 Authority Key Identifier: 
                keyid:E8:B6:F6:76:4B:D0:3B:E5:46:A5:F9:54:D4:7E:07:B3:DE:0D:60:3E

            Authority Information Access: 
                OCSP - URI:http://ca.somecompany.it/ocsp
                CA Issuers - URI:http://ca.somecompany.it/root

            X509v3 Certificate Policies: 
                Policy: 1.2.3

            X509v3 CRL Distribution Points: 

                Full Name:
                  URI:http://ca.somecompany.it/crl

    Signature Algorithm: sha256WithRSAEncryption
         bd:07:0c:34:96:3e:c6:8a:d7:dc:0a:77:88:be:60:9e:9f:e4:
         09:db:e1:61:79:d6:5a:08:61:ea:ff:86:fc:4c:ab:4c:c1:c3:
         e9:fe:22:63:64:e7:d5:c8:06:90:bc:e1:1e:35:2d:65:bc:af:
         35:56:a2:54:3e:f6:ba:b7:d2:96:95:88:1e:3c:8b:d0:51:34:
         9f:15:e5:30:42:f3:1f:e3:34:f5:92:b2:49:cf:c7:5c:95:a0:
         bf:a9:29:4a:2e:df:18:2f:8e:58:1a:88:16:18:42:d6:09:de:
         c1:8b:19:27:6d:40:57:21:28:29:58:24:95:71:78:be:86:e0:
         77:70:91:aa:70:52:9a:d3:1c:d8:b3:a8:6a:8a:f8:77:52:c9:
         0c:e4:c5:76:49:3a:df:26:90:56:7b:97:b7:c4:6b:2f:b0:e1:
         fe:70:06:39:2e:ec:cb:6d:99:64:cb:7a:23:36:5a:52:73:03:
         e2:b6:52:eb:27:77:62:75:dc:a5:54:aa:85:b7:72:a2:7c:cf:
         87:94:bd:63:ae:d0:65:59:b3:2a:4c:b9:5c:44:5b:c0:67:f2:
         73:1a:1d:0f:35:62:2c:65:2f:83:b7:ce:9c:4a:01:bb:c4:45:
         b2:a2:de:59:b2:2b:1e:2e:f2:fa:42:97:06:7f:85:70:5e:19:
         86:f0:7b:21:f8:8f:ea:53:b7:be:95:3e:db:27:08:1c:36:e7:
         ac:6d:9d:2c:b3:b3:f6:4a:c3:79:df:bc:72:cf:20:74:ab:1d:
         91:4d:4f:4b:03:46:03:78:0a:c7:b0:08:81:09:3a:6e:27:0a:
         45:e5:58:fd:97:9b:8f:e3:99:1c:d6:37:d4:f7:91:6e:42:e3:
         1a:5b:33:86:49:ee:78:3e:fe:ea:90:95:97:15:d9:57:f0:ca:
         b7:88:7e:71:60:8b:0d:c7:ab:43:2b:ea:52:93:73:e7:48:3c:
         30:de:d8:d8:ec:ee:6d:fe:fc:d2:4f:c3:f1:1e:a3:21:53:a5:
         cd:f9:fb:49:d7:9e:83:c2:58:a6:73:c7:dc:b9:6c:76:43:e7:
         a1:9a:40:32:73:9c:b0:52:e1:8c:22:a6:6e:62:87:15:b1:be:
         fe:ea:86:76:33:32:a7:05:fe:2c:87:c3:b5:c6:e6:f5:ac:21:
         57:1e:54:5f:6c:67:ba:2a:eb:b6:5e:5e:dc:42:9f:c9:5e:69:
         fe:76:ca:2d:9c:26:26:25:f6:16:cd:89:4a:b4:bc:15:b2:e9:
         fd:fc:23:0c:fa:40:97:c6:80:c8:fc:83:16:cf:71:cf:2b:29:
         fc:9b:07:2a:06:61:d7:5d:13:86:3f:36:91:5e:00:fb:ba:a1:
         ee:5b:c6:79:2c:42:bb:be
-----BEGIN CERTIFICATE-----
MIIGYDCCBEigAwIBAgIRAO/NQZhl/Qt1rewhZGrs4+swDQYJKoZIhvcNAQELBQAw
UTELMAkGA1UEBhMCSVQxGTAXBgNVBAoTEFNvbWUgQ29tcGFueSBTcEExJzAlBgNV
BAMTHkZha2UgUm9vdCBDQSBmb3IgemxpbnQgdGVzdGluZzAeFw0yMTA2MjcwODM2
MjFaFw0zMTA2MjcxODM2MjFaMFgxCzAJBgNVBAYTAklUMRkwFwYDVQQKExBTb21l
IENvbXBhbnkgU3BBMS4wLAYDVQQDEyVGYWtlIFN1Ym9yZGluYXRlIENBIGZvciB6
bGludCB0ZXN0aW5nMIICIjANBgkqhkiG9w0BAQEFAAOCAg8AMIICCgKCAgEA3l2H
Y7o2yv9Pz0q9X2KAYzhGIG2dwICc2LVqKrwBJgTqqc0jVWQ8rbJ3qpiFadx4yggz
0QlGJ6JX8/m7h3s8/AbWpNE8MP2aOmCQO5xcQ12Bi9ZBnufMuFU04+NlbFqso5S0
piu3g+WpgYe1UtoDwu9OSpIpFliCZO782Vzm9ydHDlkLaKvQLcGFn1QH3o1g2iZO
y2OsDc/GECh+Dh7wiF7DshQj4wrXOSvDy48UHlcDd8R/GOTHDG0L/joF4ecsnkK1
zUE1jxYFT8IUczzOYYJwmA1xnNU3fw5IMQouYwSAQwZC0Nu+Wk5e8dIlg4gA/bjK
31yb51OpjXLI/uCEK5/bhvM52mXJZJDJGlTdAgj188AoZkq2JDsW4WtRxGFigF+S
96esY3MtSPXx0C0D1/fno3w0WtzM3MceNZVo+Y38BX9tMl4v+0fD1eynwyJEKLF4
20OcYOS9eEn+c4XVeLaBDX694hnX6UbZi2CZAMgcfXS8OECqcadJqdZLpwyl3rlv
Fjsb0oBILUm+UCURR4O0OM5cRxC7JFTqyMh94vqswQ7WylZysH446IeFsUOFaOZl
BthKIb+mo+njmQiYLeYMDK/w5fMLODjnsZaN6yrIMOQsng0eI6lqCZid3TSautgB
fI/IhuwHQxEANxZxamVUsJ9QQ18taV2K2uPhZjsCAwEAAaOCASowggEmMA4GA1Ud
DwEB/wQEAwIBBjAdBgNVHSUEFjAUBggrBgEFBQcDCAYIKwYBBQUHAwEwDwYDVR0T
AQH/BAUwAwEB/zAdBgNVHQ4EFgQUwze2d7W/kqmsii6aZ1Z3DEuRx5AwHwYDVR0j
BBgwFoAU6Lb2dkvQO+VGpflU1H4Hs94NYD4wZAYIKwYBBQUHAQEEWDBWMCkGCCsG
AQUFBzABhh1odHRwOi8vY2Euc29tZWNvbXBhbnkuaXQvb2NzcDApBggrBgEFBQcw
AoYdaHR0cDovL2NhLnNvbWVjb21wYW55Lml0L3Jvb3QwDwYDVR0gBAgwBjAEBgIq
AzAtBgNVHR8EJjAkMCKgIKAehhxodHRwOi8vY2Euc29tZWNvbXBhbnkuaXQvY3Js
MA0GCSqGSIb3DQEBCwUAA4ICAQC9Bww0lj7GitfcCneIvmCen+QJ2+FhedZaCGHq
/4b8TKtMwcPp/iJjZOfVyAaQvOEeNS1lvK81VqJUPva6t9KWlYgePIvQUTSfFeUw
QvMf4zT1krJJz8dclaC/qSlKLt8YL45YGogWGELWCd7BixknbUBXISgpWCSVcXi+
huB3cJGqcFKa0xzYs6hqivh3UskM5MV2STrfJpBWe5e3xGsvsOH+cAY5LuzLbZlk
y3ojNlpScwPitlLrJ3diddylVKqFt3KifM+HlL1jrtBlWbMqTLlcRFvAZ/JzGh0P
NWIsZS+Dt86cSgG7xEWyot5ZsiseLvL6QpcGf4VwXhmG8Hsh+I/qU7e+lT7bJwgc
NuesbZ0ss7P2SsN537xyzyB0qx2RTU9LA0YDeArHsAiBCTpuJwpF5Vj9l5uP45kc
1jfU95FuQuMaWzOGSe54Pv7qkJWXFdlX8Mq3iH5xYIsNx6tDK+pSk3PnSDww3tjY
7O5t/vzST8PxHqMhU6XN+ftJ156Dwlimc8fcuWx2Q+ehmkAyc5ywUuGMIqZuYocV
sb7+6oZ2MzKnBf4sh8O1xub1rCFXHlRfbGe6Kuu2Xl7cQp/JXmn+dsotnCYmJfYW
zYlKtLwVsun9/CMM+kCXxoDI/IMWz3HPKyn8mwcqBmHXXROGPzaRXgD7uqHuW8Z5
LEK7vg==
-----END CERTIFICATE-----
