Certificate:
    Data:
        Version: 3 (0x2)
        Serial Number: 14615016 (0xdf01e8)
    Signature Algorithm: sha256WithRSAEncryption
        Issuer: C = US, O = Mother Nature, OU = Everything, CN = Mother Nature
        Validity
            Not Before: Jul 11 15:23:22 2016 GMT
            Not After : Sep 23 15:23:22 2016 GMT
        Subject: C = US, ST = FL, L = Tallahassee, street = 3210 Holly Mill Run, postalCode = 30062, O = Extreme Discord, OU = Chaos, CN = gov.us
        Subject Public Key Info:
            Public Key Algorithm: id-ecPublicKey
                Public-Key: (224 bit)
                pub:
                    04:37:2d:34:fc:b2:b2:5f:46:80:63:0e:dc:51:7a:
                    bb:d4:9c:3d:ac:61:29:b4:43:e2:e6:34:59:e5:ef:
                    3d:85:f7:7d:50:57:39:fb:37:e8:54:3b:a1:22:23:
                    ce:fe:d0:bd:cc:9e:ff:c1:92:e3:ac:1c
                ASN1 OID: secp224r1
                NIST CURVE: P-224
        X509v3 extensions:
            X509v3 Basic Constraints: critical
                CA:FALSE
            X509v3 Authority Key Identifier: 
                keyid:01:02:03

            X509v3 Subject Key Identifier: 
                04:03:02:01
            X509v3 Subject Alternative Name: 
                DNS:*.gov.us, DNS:gov.us
            X509v3 Key Usage: 
                Digital Signature, Certificate Sign, CRL Sign
            X509v3 Extended Key Usage: 
                TLS Web Server Authentication, 1.2.840.113635.100.4.3, Signing KDC Response, Any Extended Key Usage
            X509v3 CRL Distribution Points: 

                Full Name:
                  URI:http://crl.starfieldtech.com/sfig2s1-17.crl

            X509v3 Certificate Policies: 
                Policy: 2.16.840.1.114414.1.7.23.1
                  CPS: http://certificates.starfieldtech.com/repository/

    Signature Algorithm: sha256WithRSAEncryption
         69:98:71:b7:dd:cf:ac:dd:3e:b0:d5:21:16:72:44:3d:0d:5e:
         7b:b7:98:29:72:38:b2:b5:b0:34:8c:d2:29:35:d3:2e:d0:11:
         49:f5:66:98:70:70:78:3b:58:59:19:3a:3a:38:3f:3a:04:13:
         38:e1:18:4c:7e:fb:d8:fa:25:39:29:38:0d:39:ed:14:f9:14:
         db:e5:87:4b:d0:21:12:b2:66:ba:66:38:7f:53:44:1d:56:17:
         92:18:b4:7b:af:11:50:c1:44:6e:47:74:21:b3:b7:63:c7:66:
         ad:1d:5f:4f:57:d3:3f:24:7f:c6:81:5a:70:c4:03:61:b8:51:
         bd:06:e1:f5:c6:c9:cf:12:3a:29:d8:13:6f:aa:74:bb:3c:05:
         c0:2b:45:87:fe:d0:ab:2b:d7:56:aa:53:9e:78:e8:1b:ab:97:
         46:fb:8f:e1:6f:02:db:4d:e4:ab:49:6b:ec:34:9a:cd:31:09:
         53:fc:de:f3:74:38:2f:35:df:e7:7c:f4:15:ff:ae:72:04:fc:
         74:46:d1:7c:37:38:04:4e:2b:46:e7:6f:ad:10:e1:a1:46:f6:
         19:c5:ec:a6:3b:b3:b3:dc:07:08:83:14:5b:bc:5f:52:29:37:
         06:05:d1:b2:db:22:78:74:27:ab:9d:af:5e:d5:4c:97:c2:6b:
         04:81:75:39
-----BEGIN CERTIFICATE-----
MIIDuTCCAqGgAwIBAgIEAN8B6DANBgkqhkiG9w0BAQsFADBSMQswCQYDVQQGEwJV
UzEWMBQGA1UEChMNTW90aGVyIE5hdHVyZTETMBEGA1UECxMKRXZlcnl0aGluZzEW
MBQGA1UEAxMNTW90aGVyIE5hdHVyZTAeFw0xNjA3MTExNTIzMjJaFw0xNjA5MjMx
NTIzMjJaMIGZMQswCQYDVQQGEwJVUzELMAkGA1UECBMCRkwxFDASBgNVBAcTC1Rh
bGxhaGFzc2VlMRwwGgYDVQQJExMzMjEwIEhvbGx5IE1pbGwgUnVuMQ4wDAYDVQQR
EwUzMDA2MjEYMBYGA1UEChMPRXh0cmVtZSBEaXNjb3JkMQ4wDAYDVQQLEwVDaGFv
czEPMA0GA1UEAxMGZ292LnVzME4wEAYHKoZIzj0CAQYFK4EEACEDOgAENy00/LKy
X0aAYw7cUXq71Jw9rGEptEPi5jRZ5e89hfd9UFc5+zfoVDuhIiPO/tC9zJ7/wZLj
rByjggEjMIIBHzAMBgNVHRMBAf8EAjAAMA4GA1UdIwQHMAWAAwECAzANBgNVHQ4E
BgQEBAMCATAbBgNVHREEFDASgggqLmdvdi51c4IGZ292LnVzMAsGA1UdDwQEAwIB
hjAtBgNVHSUEJjAkBggrBgEFBQcDAQYJKoZIhvdjZAQDBgcrBgEFAgMFBgRVHSUA
MDwGA1UdHwQ1MDMwMaAvoC2GK2h0dHA6Ly9jcmwuc3RhcmZpZWxkdGVjaC5jb20v
c2ZpZzJzMS0xNy5jcmwwWQYDVR0gBFIwUDBOBgtghkgBhv1uAQcXATA/MD0GCCsG
AQUFBwIBFjFodHRwOi8vY2VydGlmaWNhdGVzLnN0YXJmaWVsZHRlY2guY29tL3Jl
cG9zaXRvcnkvMA0GCSqGSIb3DQEBCwUAA4IBAQBpmHG33c+s3T6w1SEWckQ9DV57
t5gpcjiytbA0jNIpNdMu0BFJ9WaYcHB4O1hZGTo6OD86BBM44RhMfvvY+iU5KTgN
Oe0U+RTb5YdL0CESsma6Zjh/U0QdVheSGLR7rxFQwURuR3Qhs7djx2atHV9PV9M/
JH/GgVpwxANhuFG9BuH1xsnPEjop2BNvqnS7PAXAK0WH/tCrK9dWqlOeeOgbq5dG
+4/hbwLbTeSrSWvsNJrNMQlT/N7zdDgvNd/nfPQV/65yBPx0RtF8NzgETitG52+t
EOGhRvYZxeymO7Oz3AcIgxRbvF9SKTcGBdGy2yJ4dCerna9e1UyXwmsEgXU5
-----END CERTIFICATE-----
