Certificate:
    Data:
        Version: 3 (0x2)
        Serial Number:
            85:01:fd:0c:39:4d:cd:4f:e7:4f:15:58:a7:11:27:d4
        Signature Algorithm: sha256WithRSAEncryption
        Issuer: C = XX, O = Some CA, CN = Fake Root CA for zlint testing
        Validity
            Not Before: Jun 21 08:53:26 2025 GMT
            Not After : Jun 20 08:53:26 2030 GMT
        Subject: C = XX, ST = Some State, L = Some Locality, O = Some CA, CN = Fake CA for zlint testing
        Subject Public Key Info:
            Public Key Algorithm: rsaEncryption
                RSA Public-Key: (4096 bit)
                Modulus:
                    00:ac:1f:54:e8:11:61:e6:62:02:fe:e2:cb:f9:a2:
                    44:43:be:cd:04:4a:43:4a:5e:df:c1:f3:eb:13:68:
                    3c:16:48:44:06:96:34:d8:ba:24:23:18:ed:ba:80:
                    aa:48:46:3f:ea:b4:d7:7a:b2:58:12:e2:ab:0b:eb:
                    2d:36:0d:b0:f5:5c:93:5c:f5:24:3b:32:69:e0:17:
                    5f:7b:da:50:6e:a7:f0:4e:2c:67:c2:5b:e8:27:8c:
                    0f:c0:31:db:43:72:6a:4b:1f:c4:05:f9:c5:61:d2:
                    ef:d5:44:ae:4d:a6:69:b9:73:9a:7e:50:a6:96:25:
                    3f:52:b2:f7:ee:25:9f:9f:8c:13:34:5b:3a:f5:41:
                    bc:c3:8b:7d:70:9f:cb:2d:6b:3b:43:c2:8b:55:1c:
                    26:b1:3f:57:ae:9e:3c:fb:40:bd:78:88:68:9d:9e:
                    e4:8c:d6:0f:03:07:aa:cc:eb:2a:48:1c:cc:bd:19:
                    98:ae:ce:7b:6c:42:de:87:cb:c1:79:c6:9a:c0:a9:
                    1b:43:55:bc:6e:f4:d0:2b:24:5a:38:fc:1d:4c:86:
                    4b:5e:4e:a8:fa:4d:c6:41:99:a1:f5:ab:df:6e:62:
                    bc:f6:e7:02:27:ff:47:46:43:7f:a4:28:f1:49:31:
                    9c:6c:c8:74:38:7d:c1:ee:8a:e3:46:e7:a6:a6:76:
                    7c:a7:0b:dc:26:90:6b:a8:dc:fb:e8:4a:b8:b2:cb:
                    70:e6:e9:ba:65:d0:89:da:11:e0:d2:1c:1b:8a:99:
                    77:a2:5d:30:68:1e:b3:a5:0e:34:74:2c:e2:c3:8b:
                    6b:30:b4:97:07:fb:29:2b:59:e7:25:31:5b:cb:56:
                    61:e1:d2:25:31:af:c2:fa:58:b4:ed:12:76:ce:f0:
                    bd:e4:2c:5e:1d:0a:a2:c4:a7:cb:6b:31:89:1a:75:
                    2b:f8:e8:b0:fc:57:ea:f6:f5:8a:a8:5b:5c:b9:41:
                    a4:b5:79:95:3b:aa:59:0b:bf:6c:38:43:f7:c7:1d:
                    fa:3c:f0:8b:57:5e:dc:0f:b0:92:21:d6:62:10:2c:
                    81:31:78:37:71:b7:ed:34:e7:a0:8f:78:c6:1b:fa:
                    67:2d:7a:e3:97:db:9f:ad:5a:b9:52:eb:06:ee:7c:
                    c9:db:cf:a5:98:66:c6:a0:d6:52:a7:6f:e1:72:db:
                    a1:75:3c:fb:a6:7e:95:6b:eb:f0:5c:03:e6:98:4e:
                    aa:fa:f0:5a:45:8e:8b:f1:0b:eb:0e:f2:5e:c0:7e:
                    1a:5e:7d:d9:ac:e3:c2:86:0c:ea:c1:06:5e:cc:e3:
                    81:ce:cd:62:e7:80:82:ae:2e:11:e7:a5:a6:d9:ba:
                    db:11:38:d8:7f:97:49:61:19:4e:69:25:ff:10:ff:
                    5f:9f:93
                Exponent: 65537 (0x10001)
        X509v3 extensions:
            X509v3 Key Usage: critical
                Certificate Sign, CRL Sign
            X509v3 Extended Key Usage: 
                TLS Web Client Authentication, TLS Web Server Authentication
            X509v3 Basic Constraints: critical
                CA:TRUE
            X509v3 Subject Key Identifier: 
                DB:07:9B:82:8B:D2:7A:A5:E8:53:AC:5D:CB:DA:84:38:3D:F6:D9:7A
            X509v3 Authority Key Identifier: 
                keyid:E8:B6:F6:76:4B:D0:3B:E5:46:A5:F9:54:D4:7E:07:B3:DE:0D:60:3E

            Authority Information Access: 
                CA Issuers - URI:http://ca.someca-inc.com/root

            X509v3 Certificate Policies: 
                Policy: X509v3 Any Policy

            X509v3 CRL Distribution Points: 

                Full Name:
                  URI:http://ca.someca-inc.com/crl

    Signature Algorithm: sha256WithRSAEncryption
         66:7d:39:40:d9:b3:f3:76:b8:5f:91:47:22:ed:2b:b9:05:89:
         c8:31:3a:75:2b:79:14:7f:ab:9d:ec:0b:43:5f:68:06:68:6f:
         4a:35:68:8e:14:1d:e0:cf:e5:5b:bf:e0:ee:0f:18:63:d8:e8:
         9e:3e:b1:b1:4c:d9:8f:c6:de:a6:3c:49:be:bf:83:33:4e:a8:
         9b:24:28:e5:5b:6b:93:92:6d:63:2f:0b:32:c8:df:4c:b2:f1:
         1d:30:59:55:ec:8e:74:48:31:b8:db:da:09:18:8c:ab:0b:cd:
         e8:4e:19:7a:d1:f6:8d:ee:dc:c6:b3:1d:b4:3f:d4:85:7b:e1:
         06:d2:52:7b:48:00:e5:14:09:fc:6d:70:0c:26:2b:bd:2e:ae:
         d2:b8:d8:9a:e9:27:3b:a6:86:38:53:51:24:70:97:7f:3e:f0:
         57:44:ef:1a:62:70:5e:a8:4d:54:c9:26:5b:8d:45:70:42:2b:
         53:99:bf:f6:d5:1c:8e:17:e2:51:ac:26:dd:54:5b:96:18:92:
         91:27:22:bb:46:8f:42:e5:7c:a0:49:29:10:44:f8:65:af:86:
         43:26:fa:f2:00:c7:ad:9c:2a:f1:a4:e4:c8:5a:08:a6:7b:03:
         07:cb:2a:2e:c0:01:b6:f5:44:26:df:50:7d:8e:cc:66:d3:de:
         eb:69:fe:8e:cb:da:68:47:72:70:03:15:d3:db:20:ba:e9:88:
         97:10:10:b5:cc:83:12:87:43:34:cd:c4:f9:e5:fd:38:7f:30:
         95:00:61:7d:42:3d:b5:d3:a0:16:46:bb:e0:e3:73:af:32:d0:
         04:6b:ca:b7:aa:97:a6:9e:de:ea:4a:d9:e0:c0:78:95:6c:45:
         1d:79:ab:22:60:a3:f8:89:47:1e:11:e4:f9:69:55:4f:6d:bc:
         66:4d:62:69:2a:bf:2d:3c:fe:6c:00:2d:d6:ba:a8:63:07:60:
         23:4d:94:72:77:6f:c9:63:63:04:77:10:a4:45:86:41:d5:aa:
         d9:c0:2d:ff:90:fd:d2:35:00:db:b3:b8:82:cc:f7:3e:e9:b9:
         b1:92:98:cd:fe:3c:e2:18:b2:16:d1:56:27:87:90:73:0d:dc:
         54:72:1d:7b:53:ea:bc:7c:02:df:59:74:86:68:cd:89:14:66:
         c2:35:86:e2:a3:23:ee:2a:20:ac:d2:2a:21:e2:c7:6f:2c:79:
         f8:e7:08:1d:47:a5:66:f2:c9:28:8b:83:bf:76:9f:8c:36:5a:
         d7:af:eb:12:52:8b:8e:2a:7e:5f:dd:e3:4b:1c:a5:83:ff:d4:
         9c:ea:aa:3f:1e:7b:82:37:25:45:0b:3b:83:67:ae:49:14:b8:
         b6:3d:42:a7:60:bb:f3:dc
-----BEGIN CERTIFICATE-----
MIIGRTCCBC2gAwIBAgIRAIUB/Qw5Tc1P508VWKcRJ9QwDQYJKoZIhvcNAQELBQAw
SDELMAkGA1UEBhMCWFgxEDAOBgNVBAoTB1NvbWUgQ0ExJzAlBgNVBAMTHkZha2Ug
Um9vdCBDQSBmb3IgemxpbnQgdGVzdGluZzAeFw0yNTA2MjEwODUzMjZaFw0zMDA2
MjAwODUzMjZaMHAxCzAJBgNVBAYTAlhYMRMwEQYDVQQIEwpTb21lIFN0YXRlMRYw
FAYDVQQHEw1Tb21lIExvY2FsaXR5MRAwDgYDVQQKEwdTb21lIENBMSIwIAYDVQQD
ExlGYWtlIENBIGZvciB6bGludCB0ZXN0aW5nMIICIjANBgkqhkiG9w0BAQEFAAOC
Ag8AMIICCgKCAgEArB9U6BFh5mIC/uLL+aJEQ77NBEpDSl7fwfPrE2g8FkhEBpY0
2LokIxjtuoCqSEY/6rTXerJYEuKrC+stNg2w9VyTXPUkOzJp4Bdfe9pQbqfwTixn
wlvoJ4wPwDHbQ3JqSx/EBfnFYdLv1USuTaZpuXOaflCmliU/UrL37iWfn4wTNFs6
9UG8w4t9cJ/LLWs7Q8KLVRwmsT9Xrp48+0C9eIhonZ7kjNYPAweqzOsqSBzMvRmY
rs57bELeh8vBecaawKkbQ1W8bvTQKyRaOPwdTIZLXk6o+k3GQZmh9avfbmK89ucC
J/9HRkN/pCjxSTGcbMh0OH3B7orjRuempnZ8pwvcJpBrqNz76Eq4sstw5um6ZdCJ
2hHg0hwbipl3ol0waB6zpQ40dCziw4trMLSXB/spK1nnJTFby1Zh4dIlMa/C+li0
7RJ2zvC95CxeHQqixKfLazGJGnUr+Oiw/Ffq9vWKqFtcuUGktXmVO6pZC79sOEP3
xx36PPCLV17cD7CSIdZiECyBMXg3cbftNOegj3jGG/pnLXrjl9ufrVq5UusG7nzJ
28+lmGbGoNZSp2/hctuhdTz7pn6Va+vwXAPmmE6q+vBaRY6L8QvrDvJewH4aXn3Z
rOPChgzqwQZezOOBzs1i54CCri4R56Wm2brbETjYf5dJYRlOaSX/EP9fn5MCAwEA
AaOCAQAwgf0wDgYDVR0PAQH/BAQDAgEGMB0GA1UdJQQWMBQGCCsGAQUFBwMCBggr
BgEFBQcDATAPBgNVHRMBAf8EBTADAQH/MB0GA1UdDgQWBBTbB5uCi9J6pehTrF3L
2oQ4PfbZejAfBgNVHSMEGDAWgBTotvZ2S9A75Ual+VTUfgez3g1gPjA5BggrBgEF
BQcBAQQtMCswKQYIKwYBBQUHMAKGHWh0dHA6Ly9jYS5zb21lY2EtaW5jLmNvbS9y
b290MBEGA1UdIAQKMAgwBgYEVR0gADAtBgNVHR8EJjAkMCKgIKAehhxodHRwOi8v
Y2Euc29tZWNhLWluYy5jb20vY3JsMA0GCSqGSIb3DQEBCwUAA4ICAQBmfTlA2bPz
drhfkUci7Su5BYnIMTp1K3kUf6ud7AtDX2gGaG9KNWiOFB3gz+Vbv+DuDxhj2Oie
PrGxTNmPxt6mPEm+v4MzTqibJCjlW2uTkm1jLwsyyN9MsvEdMFlV7I50SDG429oJ
GIyrC83oThl60faN7tzGsx20P9SFe+EG0lJ7SADlFAn8bXAMJiu9Lq7SuNia6Sc7
poY4U1EkcJd/PvBXRO8aYnBeqE1UySZbjUVwQitTmb/21RyOF+JRrCbdVFuWGJKR
JyK7Ro9C5XygSSkQRPhlr4ZDJvryAMetnCrxpOTIWgimewMHyyouwAG29UQm31B9
jsxm097raf6Oy9poR3JwAxXT2yC66YiXEBC1zIMSh0M0zcT55f04fzCVAGF9Qj21
06AWRrvg43OvMtAEa8q3qpemnt7qStngwHiVbEUdeasiYKP4iUceEeT5aVVPbbxm
TWJpKr8tPP5sAC3WuqhjB2AjTZRyd2/JY2MEdxCkRYZB1arZwC3/kP3SNQDbs7iC
zPc+6bmxkpjN/jziGLIW0VYnh5BzDdxUch17U+q8fALfWXSGaM2JFGbCNYbioyPu
KiCs0ioh4sdvLHn45wgdR6Vm8skoi4O/dp+MNlrXr+sSUouOKn5f3eNLHKWD/9Sc
6qo/HnuCNyVFCzuDZ65JFLi2PUKnYLvz3A==
-----END CERTIFICATE-----
