Certificate:
    Data:
        Version: 3 (0x2)
        Serial Number: 18008675309 (0x4316693ed)
        Signature Algorithm: sha256WithRSAEncryption
        Issuer: CN = Mother Nature, OU = Everything, O = Mother Nature, C = US
        Validity
            Not Before: Aug 24 03:47:24 2017 GMT
            Not After : Nov  5 03:47:24 2017 GMT
        Subject: CN = gov.us, OU = Chaos, street = 3210 Holly Mill Run, ST = province, postalCode = 30062, C = US, GN = hello
        Subject Public Key Info:
            Public Key Algorithm: rsaEncryption
                RSA Public-Key: (2048 bit)
                Modulus:
                    00:b7:7d:99:9d:ce:0b:2a:7e:93:30:91:ef:9f:75:
                    b9:d4:3e:9a:6f:e9:0b:7f:d0:9e:a7:6b:0f:53:e1:
                    13:ad:3e:13:dc:5f:19:8b:8a:46:6a:b5:c0:46:04:
                    c0:93:90:3d:b0:1c:be:19:b5:4e:a4:2f:eb:8d:39:
                    f0:bd:4a:ab:b7:0c:0b:46:46:4f:a6:65:a7:ba:6f:
                    4b:6a:37:8a:51:bf:18:76:4b:a2:53:38:86:f8:c9:
                    ad:22:8c:5c:88:8d:78:d5:48:3b:93:95:64:9c:54:
                    d2:cb:bd:e1:43:a5:59:1d:25:c4:af:fb:94:92:5c:
                    6f:2a:c5:19:2f:dc:fb:79:f4:dd:cc:3d:3f:78:5d:
                    76:4b:c1:79:93:a5:7e:d4:31:7d:20:1b:4e:6f:79:
                    5a:96:ca:66:f2:13:72:ef:83:4f:e6:6e:84:24:aa:
                    75:6c:d7:df:b7:3f:b6:7b:55:fa:b5:e7:65:18:e1:
                    79:2c:a3:a3:79:45:79:94:4e:c2:d8:c8:a7:cd:8c:
                    57:21:b9:94:05:a2:b3:e6:83:c2:da:0b:77:71:a5:
                    a6:a0:d4:3d:45:1b:af:4f:07:da:93:fb:84:de:b4:
                    bf:f3:94:de:63:12:34:60:d9:31:3b:24:34:a8:6f:
                    84:10:b5:13:f6:39:88:9a:59:aa:3b:09:68:08:4c:
                    b6:1d
                Exponent: 65537 (0x10001)
        X509v3 extensions:
            X509v3 Key Usage: critical
                Digital Signature, Key Encipherment
            X509v3 Extended Key Usage: 
                TLS Web Client Authentication, TLS Web Server Authentication
            X509v3 Basic Constraints: critical
                CA:FALSE
            X509v3 Authority Key Identifier: 
                keyid:01:02:03

            X509v3 Certificate Policies: 
                Policy: 2.23.140.1.2.3

            Authority Information Access: critical
                OCSP - URI:http://ss.symcd.com
                CA Issuers - URI:http://ss.symcb.com/ss.crt

    Signature Algorithm: sha256WithRSAEncryption
         96:fd:5b:9b:2c:5c:5d:54:03:68:30:96:dc:ce:9e:9a:02:97:
         ed:e7:b6:6e:4b:8c:0c:7a:c2:69:a6:f7:21:d0:22:38:c0:c0:
         14:b3:ea:b9:39:20:dd:37:20:a3:6f:57:1f:27:91:f7:cb:b5:
         d4:2f:14:04:1f:eb:bc:4d:49:e6:af:37:15:e1:e4:d5:ab:57:
         1b:04:9f:02:63:ac:69:88:3b:00:21:73:e3:e3:f4:d2:25:5a:
         3c:7f:bb:36:de:ad:df:4e:7e:28:bc:c4:22:e8:34:c4:f3:d0:
         45:2c:40:48:64:94:5b:06:9f:5b:53:5b:ed:6c:84:d4:33:e6:
         05:e6:b8:27:98:32:6f:02:a1:1a:a0:b0:80:11:50:7a:03:85:
         a6:a5:9a:a5:d6:41:ac:7c:9b:7c:4f:ea:54:1d:1b:cf:29:7e:
         9d:49:71:5b:35:bc:dd:03:d6:32:c0:82:c2:0c:8f:11:62:f4:
         90:b5:23:8c:a2:3a:ae:89:12:07:61:3b:04:b7:28:32:c6:c4:
         dd:1e:b8:61:11:27:2c:ee:82:29:23:6a:d3:21:27:f9:c6:4c:
         0b:a5:7b:82:78:46:c9:4f:f6:4b:d1:43:18:a8:3e:00:3f:6d:
         97:b5:d9:e0:94:a5:41:a5:e3:b3:ef:62:93:35:0e:4f:90:69:
         19:c0:b5:55
-----BEGIN CERTIFICATE-----
MIIEEzCCAv2gAwIBAgIFBDFmk+0wCwYJKoZIhvcNAQELMFQxFjAUBgNVBAMTDU1v
dGhlciBOYXR1cmUxEzARBgNVBAsTCkV2ZXJ5dGhpbmcxFjAUBgNVBAoTDU1vdGhl
ciBOYXR1cmUxCzAJBgNVBAYTAlVTMQAwHhcNMTcwODI0MDM0NzI0WhcNMTcxMTA1
MDM0NzI0WjCBgTEPMA0GA1UEAxMGZ292LnVzMQ4wDAYDVQQLEwVDaGFvczEcMBoG
A1UECRMTMzIxMCBIb2xseSBNaWxsIFJ1bjERMA8GA1UECBMIcHJvdmluY2UxDjAM
BgNVBBETBTMwMDYyMQswCQYDVQQGEwJVUzEOMAwGA1UEKhMFaGVsbG8xADCCASIw
DQYJKoZIhvcNAQEBBQADggEPADCCAQoCggEBALd9mZ3OCyp+kzCR7591udQ+mm/p
C3/QnqdrD1PhE60+E9xfGYuKRmq1wEYEwJOQPbAcvhm1TqQv64058L1Kq7cMC0ZG
T6Zlp7pvS2o3ilG/GHZLolM4hvjJrSKMXIiNeNVIO5OVZJxU0su94UOlWR0lxK/7
lJJcbyrFGS/c+3n03cw9P3hddkvBeZOlftQxfSAbTm95WpbKZvITcu+DT+ZuhCSq
dWzX37c/tntV+rXnZRjheSyjo3lFeZROwtjIp82MVyG5lAWis+aDwtoLd3GlpqDU
PUUbr08H2pP7hN60v/OU3mMSNGDZMTskNKhvhBC1E/Y5iJpZqjsJaAhMth0CAwEA
AaOBwTCBvjAOBgNVHQ8BAf8EBAMCAKAwHQYDVR0lBBYwFAYIKwYBBQUHAwIGCCsG
AQUFBwMBMAwGA1UdEwEB/wQCMAAwDgYDVR0jBAcwBYADAQIDMBMGA1UdIAQMMAow
CAYGZ4EMAQIDMFoGCCsGAQUFBwEBAQH/BEswSTAfBggrBgEFBQcwAYYTaHR0cDov
L3NzLnN5bWNkLmNvbTAmBggrBgEFBQcwAoYaaHR0cDovL3NzLnN5bWNiLmNvbS9z
cy5jcnQwCwYJKoZIhvcNAQELA4IBAQCW/VubLFxdVANoMJbczp6aApft57ZuS4wM
esJppvch0CI4wMAUs+q5OSDdNyCjb1cfJ5H3y7XULxQEH+u8TUnmrzcV4eTVq1cb
BJ8CY6xpiDsAIXPj4/TSJVo8f7s23q3fTn4ovMQi6DTE89BFLEBIZJRbBp9bU1vt
bITUM+YF5rgnmDJvAqEaoLCAEVB6A4WmpZql1kGsfJt8T+pUHRvPKX6dSXFbNbzd
A9YywILCDI8RYvSQtSOMojquiRIHYTsEtygyxsTdHrhhEScs7oIpI2rTISf5xkwL
pXuCeEbJT/ZL0UMYqD4AP22XtdnglKVBpeOz72KTNQ5PkGkZwLVV
-----END CERTIFICATE-----
-----BEGIN CERTIFICATE-----
MIIEEzCCAv2gAwIBAgIFBDFmk+0wCwYJKoZIhvcNAQELMFQxFjAUBgNVBAMTDU1v
dGhlciBOYXR1cmUxEzARBgNVBAsTCkV2ZXJ5dGhpbmcxFjAUBgNVBAoTDU1vdGhl
ciBOYXR1cmUxCzAJBgNVBAYTAlVTMQAwHhcNMTcwODI0MDM0NzI0WhcNMTcxMTA1
MDM0NzI0WjCBgTEPMA0GA1UEAxMGZ292LnVzMQ4wDAYDVQQLEwVDaGFvczEcMBoG
A1UECRMTMzIxMCBIb2xseSBNaWxsIFJ1bjERMA8GA1UECBMIcHJvdmluY2UxDjAM
BgNVBBETBTMwMDYyMQswCQYDVQQGEwJVUzEOMAwGA1UEKhMFaGVsbG8xADCCASIw
DQYJKoZIhvcNAQEBBQADggEPADCCAQoCggEBALd9mZ3OCyp+kzCR7591udQ+mm/p
C3/QnqdrD1PhE60+E9xfGYuKRmq1wEYEwJOQPbAcvhm1TqQv64058L1Kq7cMC0ZG
T6Zlp7pvS2o3ilG/GHZLolM4hvjJrSKMXIiNeNVIO5OVZJxU0su94UOlWR0lxK/7
lJJcbyrFGS/c+3n03cw9P3hddkvBeZOlftQxfSAbTm95WpbKZvITcu+DT+ZuhCSq
dWzX37c/tntV+rXnZRjheSyjo3lFeZROwtjIp82MVyG5lAWis+aDwtoLd3GlpqDU
PUUbr08H2pP7hN60v/OU3mMSNGDZMTskNKhvhBC1E/Y5iJpZqjsJaAhMth0CAwEA
AaOBwTCBvjAOBgNVHQ8BAf8EBAMCAKAwHQYDVR0lBBYwFAYIKwYBBQUHAwIGCCsG
AQUFBwMBMAwGA1UdEwEB/wQCMAAwDgYDVR0jBAcwBYADAQIDMBMGA1UdIAQMMAow
CAYGZ4EMAQIDMFoGCCsGAQUFBwEBAQH/BEswSTAfBggrBgEFBQcwAYYTaHR0cDov
L3NzLnN5bWNkLmNvbTAmBggrBgEFBQcwAoYaaHR0cDovL3NzLnN5bWNiLmNvbS9z
cy5jcnQwCwYJKoZIhvcNAQELA4IBAQCW/VubLFxdVANoMJbczp6aApft57ZuS4wM
esJppvch0CI4wMAUs+q5OSDdNyCjb1cfJ5H3y7XULxQEH+u8TUnmrzcV4eTVq1cb
BJ8CY6xpiDsAIXPj4/TSJVo8f7s23q3fTn4ovMQi6DTE89BFLEBIZJRbBp9bU1vt
bITUM+YF5rgnmDJvAqEaoLCAEVB6A4WmpZql1kGsfJt8T+pUHRvPKX6dSXFbNbzd
A9YywILCDI8RYvSQtSOMojquiRIHYTsEtygyxsTdHrhhEScs7oIpI2rTISf5xkwL
pXuCeEbJT/ZL0UMYqD4AP22XtdnglKVBpeOz72KTNQ5PkGkZwLVV
-----END CERTIFICATE-----
