Certificate:
    Data:
        Version: 3 (0x2)
        Serial Number: 18008675309 (0x4316693ed)
    Signature Algorithm: sha256WithRSAEncryption
        Issuer: C = US, O = Mother Nature, OU = Everything, CN = Mother Nature
        Validity
            Not Before: Jul  1 19:39:35 2016 GMT
            Not After : Sep 13 19:39:35 2016 GMT
        Subject: C = US, ST = FL, L = Tallahassee, street = 3210 Holly Mill Run, postalCode = 30062, O = Extreme Discord, OU = Chaos, CN = gov.us
        Subject Public Key Info:
            Public Key Algorithm: rsaEncryption
                Public-Key: (2048 bit)
                Modulus:
                    00:fb:ce:d9:ef:94:5e:bf:b6:dd:3d:a4:a9:b0:ff:
                    c9:32:4f:12:28:43:82:b0:f9:d3:c4:fc:82:09:3f:
                    b3:c8:b8:f7:5c:0d:3d:5f:69:a4:ec:75:7f:ac:09:
                    a7:9c:1f:09:99:9a:1b:44:3b:1f:cb:03:c8:b1:06:
                    5a:bc:95:df:89:c0:6d:90:32:93:3c:a9:cd:8b:01:
                    14:1e:1b:06:dc:c5:b4:1a:b4:d5:82:1b:6f:38:b8:
                    f8:ac:14:86:e7:ec:c7:d6:67:4a:c1:6d:15:ff:3b:
                    4b:0c:ad:c5:22:5a:90:ea:5b:8d:de:57:ee:c3:ac:
                    7c:0c:42:72:ab:09:f2:72:ef:79:ca:67:4c:d4:eb:
                    ca:da:92:7f:5b:7c:4f:cc:8c:27:b4:5d:5d:de:c6:
                    b3:1b:de:a2:8f:7f:be:31:90:3a:bf:13:0c:b1:59:
                    98:f6:d1:18:8f:cb:39:f2:4c:d0:71:43:3c:1e:d4:
                    f1:1d:65:58:69:96:d7:d5:05:8c:5e:72:3d:25:3f:
                    8c:46:5d:38:c0:70:d3:07:8e:fd:23:d2:b4:cc:7f:
                    6e:ed:56:7e:c0:fd:06:66:e6:90:b8:49:c1:87:6c:
                    63:ec:d5:83:94:76:61:cb:2a:a8:64:08:61:f6:64:
                    2b:07:54:d5:d7:4f:d2:21:20:4f:74:fe:76:11:45:
                    9c:83
                Exponent: 65537 (0x10001)
        X509v3 extensions:
            X509v3 Authority Key Identifier: 
                keyid:01:02:03

            X509v3 Subject Key Identifier: 
                04:03:02:01
            X509v3 Subject Alternative Name: 
                DNS:*.gov.us, DNS:gov.us
            X509v3 Key Usage: 
                Digital Signature, Certificate Sign, CRL Sign
            X509v3 Basic Constraints: critical
                CA:TRUE
            Authority Information Access: 
                OCSP - URI:http://ocsp.starfieldtech.com/
                CA Issuers - URI:http://certificates.starfieldtech.com/repository/sfig2.crt

    Signature Algorithm: sha256WithRSAEncryption
         d9:68:80:a3:c0:48:ef:b7:0b:c3:1d:eb:f1:56:d3:30:86:5e:
         10:0a:8b:3f:6d:a7:1a:45:2e:03:25:21:d7:f7:e9:d0:a2:07:
         ee:f5:54:fd:55:ab:45:b2:c8:41:d0:e7:fd:9c:de:1e:40:2c:
         26:72:9d:d4:3e:b2:c5:dc:0d:76:6a:7d:72:24:dc:92:17:08:
         1f:7f:aa:25:51:4a:ae:b6:e5:34:ac:ae:06:5f:62:b8:19:b0:
         99:fa:2c:1c:8e:06:ad:4a:2e:19:ce:99:b1:b7:88:16:15:6a:
         f6:09:41:bc:53:01:81:24:15:f3:0c:e4:a3:02:f0:4b:a9:d8:
         34:32:02:ea:5a:d5:3b:4a:b4:fa:bb:3f:58:f4:94:82:48:ae:
         bc:41:43:bd:3e:6a:4a:2c:d4:c7:8c:4f:3b:64:48:05:0d:d4:
         78:77:46:c2:2e:d7:82:da:6a:81:3a:60:e1:40:e7:23:dc:c1:
         95:bc:07:23:14:24:eb:ec:90:15:ab:92:d9:26:1a:3c:b7:70:
         70:f4:66:c1:fb:6b:22:b0:f2:c2:b0:e5:76:84:79:35:6b:8c:
         80:fc:cf:b6:71:c5:c3:98:72:53:67:33:e8:4c:ef:8a:8c:ee:
         85:f0:c0:41:73:85:63:97:9c:94:e8:06:a5:99:fb:c7:94:89:
         04:ac:f8:8c
-----BEGIN CERTIFICATE-----
MIIETjCCAzagAwIBAgIFBDFmk+0wDQYJKoZIhvcNAQELBQAwUjELMAkGA1UEBhMC
VVMxFjAUBgNVBAoTDU1vdGhlciBOYXR1cmUxEzARBgNVBAsTCkV2ZXJ5dGhpbmcx
FjAUBgNVBAMTDU1vdGhlciBOYXR1cmUwHhcNMTYwNzAxMTkzOTM1WhcNMTYwOTEz
MTkzOTM1WjCBmTELMAkGA1UEBhMCVVMxCzAJBgNVBAgTAkZMMRQwEgYDVQQHEwtU
YWxsYWhhc3NlZTEcMBoGA1UECRMTMzIxMCBIb2xseSBNaWxsIFJ1bjEOMAwGA1UE
ERMFMzAwNjIxGDAWBgNVBAoTD0V4dHJlbWUgRGlzY29yZDEOMAwGA1UECxMFQ2hh
b3MxDzANBgNVBAMTBmdvdi51czCCASIwDQYJKoZIhvcNAQEBBQADggEPADCCAQoC
ggEBAPvO2e+UXr+23T2kqbD/yTJPEihDgrD508T8ggk/s8i491wNPV9ppOx1f6wJ
p5wfCZmaG0Q7H8sDyLEGWryV34nAbZAykzypzYsBFB4bBtzFtBq01YIbbzi4+KwU
hufsx9ZnSsFtFf87SwytxSJakOpbjd5X7sOsfAxCcqsJ8nLvecpnTNTrytqSf1t8
T8yMJ7RdXd7Gsxveoo9/vjGQOr8TDLFZmPbRGI/LOfJM0HFDPB7U8R1lWGmW19UF
jF5yPSU/jEZdOMBw0weO/SPStMx/bu1WfsD9BmbmkLhJwYdsY+zVg5R2YcsqqGQI
YfZkKwdU1ddP0iEgT3T+dhFFnIMCAwEAAaOB4jCB3zAOBgNVHSMEBzAFgAMBAgMw
DQYDVR0OBAYEBAQDAgEwGwYDVR0RBBQwEoIIKi5nb3YudXOCBmdvdi51czALBgNV
HQ8EBAMCAYYwDwYDVR0TAQH/BAUwAwEB/zCBggYIKwYBBQUHAQEEdjB0MCoGCCsG
AQUFBzABhh5odHRwOi8vb2NzcC5zdGFyZmllbGR0ZWNoLmNvbS8wRgYIKwYBBQUH
MAKGOmh0dHA6Ly9jZXJ0aWZpY2F0ZXMuc3RhcmZpZWxkdGVjaC5jb20vcmVwb3Np
dG9yeS9zZmlnMi5jcnQwDQYJKoZIhvcNAQELBQADggEBANlogKPASO+3C8Md6/FW
0zCGXhAKiz9tpxpFLgMlIdf36dCiB+71VP1Vq0WyyEHQ5/2c3h5ALCZyndQ+ssXc
DXZqfXIk3JIXCB9/qiVRSq625TSsrgZfYrgZsJn6LByOBq1KLhnOmbG3iBYVavYJ
QbxTAYEkFfMM5KMC8Eup2DQyAupa1TtKtPq7P1j0lIJIrrxBQ70+akos1MeMTztk
SAUN1Hh3RsIu14LaaoE6YOFA5yPcwZW8ByMUJOvskBWrktkmGjy3cHD0ZsH7ayKw
8sKw5XaEeTVrjID8z7ZxxcOYclNnM+hM74qM7oXwwEFzhWOXnJToBqWZ+8eUiQSs
+Iw=
-----END CERTIFICATE-----
