Certificate:
    Data:
        Version: 3 (0x2)
        Serial Number: 18008675309 (0x4316693ed)
    Signature Algorithm: sha256WithRSAEncryption
        Issuer: C = US, O = Mother Nature, OU = Everything, CN = Mother Nature
        Validity
            Not Before: Jul  5 15:28:59 2016 GMT
            Not After : Sep 17 15:28:59 2016 GMT
        Subject: C = US, ST = FL, L = Tallahassee, street = 3210 Holly Mill Run, postalCode = 30062, O = Extreme Discord, OU = Chaos, CN = gov.us
        Subject Public Key Info:
            Public Key Algorithm: rsaEncryption
                Public-Key: (2048 bit)
                Modulus:
                    00:bb:69:54:27:8c:65:d7:3f:ad:b7:a1:9c:8f:7b:
                    ec:1a:64:1a:b0:9d:b3:de:8a:46:e7:da:04:c6:8a:
                    ea:82:95:3a:ad:e1:82:9b:b5:72:2c:51:dc:03:f2:
                    7b:3f:e1:7d:79:8d:b4:2e:c2:4d:2b:4a:03:7b:5d:
                    1f:55:1d:69:b3:d8:d7:d3:71:47:69:9a:ea:a4:b3:
                    02:c5:e3:d1:a3:97:d1:6b:a4:5c:a0:4a:2c:06:14:
                    07:1f:da:54:2a:d1:87:35:0c:3c:2b:92:4f:fb:f2:
                    4f:5f:ac:6d:58:ed:a3:d5:f7:f2:b9:66:6f:66:e7:
                    62:bb:4a:03:bb:f8:3f:8e:e0:d1:3a:b7:5f:44:67:
                    79:1f:07:cb:ce:a5:49:cf:a2:5e:50:61:5a:85:7c:
                    c6:bb:f4:a8:69:27:44:45:06:9e:6d:f9:a8:c1:a8:
                    50:25:be:6a:4b:3c:a8:7c:30:ce:1c:b6:53:b8:cd:
                    62:df:48:f2:aa:85:bf:7f:7b:b2:6a:2b:c2:a6:8a:
                    33:75:c8:5f:ef:8a:5a:8f:04:2a:0f:ef:97:e6:38:
                    be:02:c5:9b:06:be:28:71:a2:d8:79:ea:eb:3f:80:
                    f3:71:a0:b9:34:c5:2d:9d:a5:9c:12:3e:ae:12:44:
                    bf:7e:56:95:fe:b3:12:7c:43:53:f5:9d:92:ed:da:
                    84:97
                Exponent: 65537 (0x10001)
        X509v3 extensions:
            X509v3 Basic Constraints: critical
                CA:TRUE
            X509v3 Authority Key Identifier: 
                keyid:01:02:03

            X509v3 Subject Key Identifier: 
                04:03:02:01
            X509v3 Subject Alternative Name: 
                DNS:*.gov.us, DNS:gov.us
            X509v3 Key Usage: 
                Digital Signature, Certificate Sign, CRL Sign
            Authority Information Access: critical
                
    Signature Algorithm: sha256WithRSAEncryption
         cf:1f:6c:fd:7c:e5:24:b6:e4:b5:bc:52:f0:54:eb:b1:30:ba:
         43:09:5b:5f:ed:a0:a5:24:16:3f:fa:93:a6:12:50:8f:1c:7c:
         57:7a:1a:29:50:9b:6c:35:ae:82:06:7b:b2:6d:6a:32:ba:43:
         3d:ce:c4:ec:11:e4:d9:d2:ab:47:05:58:ae:3b:33:1f:48:c8:
         8b:cb:76:ef:12:ec:0a:a6:81:14:68:5b:d9:6d:6b:f8:64:83:
         ab:db:70:de:02:30:4d:e2:ff:ca:32:a4:88:1d:b6:09:11:c7:
         9b:56:99:9e:d8:13:d9:f9:db:c2:de:fe:ed:a4:df:0d:e5:cb:
         31:5f:61:1b:f3:45:32:e2:70:1a:20:92:0b:cb:4c:4b:98:be:
         70:89:bc:06:48:84:19:87:c1:60:ab:c2:00:09:53:63:d2:44:
         1a:bc:e2:05:d4:b2:05:28:e3:40:8f:74:6c:03:80:c5:e3:07:
         1a:54:fe:54:42:15:8a:db:0d:a3:67:a4:b0:a0:c8:93:26:56:
         0d:87:97:f0:74:e3:41:84:4d:86:86:08:16:85:49:a1:2c:25:
         ca:8c:2e:37:fc:b7:0a:c6:9c:b0:ec:18:59:d5:5f:58:28:b1:
         d7:4b:89:0f:cd:d2:c5:25:ee:c0:a2:e4:a1:fc:91:a0:c3:f1:
         ad:84:7a:a1
-----BEGIN CERTIFICATE-----
MIID2DCCAsCgAwIBAgIFBDFmk+0wDQYJKoZIhvcNAQELBQAwUjELMAkGA1UEBhMC
VVMxFjAUBgNVBAoTDU1vdGhlciBOYXR1cmUxEzARBgNVBAsTCkV2ZXJ5dGhpbmcx
FjAUBgNVBAMTDU1vdGhlciBOYXR1cmUwHhcNMTYwNzA1MTUyODU5WhcNMTYwOTE3
MTUyODU5WjCBmTELMAkGA1UEBhMCVVMxCzAJBgNVBAgTAkZMMRQwEgYDVQQHEwtU
YWxsYWhhc3NlZTEcMBoGA1UECRMTMzIxMCBIb2xseSBNaWxsIFJ1bjEOMAwGA1UE
ERMFMzAwNjIxGDAWBgNVBAoTD0V4dHJlbWUgRGlzY29yZDEOMAwGA1UECxMFQ2hh
b3MxDzANBgNVBAMTBmdvdi51czCCASIwDQYJKoZIhvcNAQEBBQADggEPADCCAQoC
ggEBALtpVCeMZdc/rbehnI977BpkGrCds96KRufaBMaK6oKVOq3hgpu1cixR3APy
ez/hfXmNtC7CTStKA3tdH1UdabPY19NxR2ma6qSzAsXj0aOX0WukXKBKLAYUBx/a
VCrRhzUMPCuST/vyT1+sbVjto9X38rlmb2bnYrtKA7v4P47g0Tq3X0RneR8Hy86l
Sc+iXlBhWoV8xrv0qGknREUGnm35qMGoUCW+aks8qHwwzhy2U7jNYt9I8qqFv397
smorwqaKM3XIX++KWo8EKg/vl+Y4vgLFmwa+KHGi2Hnq6z+A83GguTTFLZ2lnBI+
rhJEv35Wlf6zEnxDU/Wdku3ahJcCAwEAAaNtMGswDwYDVR0TAQH/BAUwAwEB/zAO
BgNVHSMEBzAFgAMBAgMwDQYDVR0OBAYEBAQDAgEwGwYDVR0RBBQwEoIIKi5nb3Yu
dXOCBmdvdi51czALBgNVHQ8EBAMCAYYwDwYIKwYBBQUHAQEBAf8EADANBgkqhkiG
9w0BAQsFAAOCAQEAzx9s/XzlJLbktbxS8FTrsTC6QwlbX+2gpSQWP/qTphJQjxx8
V3oaKVCbbDWuggZ7sm1qMrpDPc7E7BHk2dKrRwVYrjszH0jIi8t27xLsCqaBFGhb
2W1r+GSDq9tw3gIwTeL/yjKkiB22CRHHm1aZntgT2fnbwt7+7aTfDeXLMV9hG/NF
MuJwGiCSC8tMS5i+cIm8BkiEGYfBYKvCAAlTY9JEGrziBdSyBSjjQI90bAOAxeMH
GlT+VEIVitsNo2eksKDIkyZWDYeX8HTjQYRNhoYIFoVJoSwlyowuN/y3CsacsOwY
WdVfWCix10uJD83SxSXuwKLkofyRoMPxrYR6oQ==
-----END CERTIFICATE-----
