Certificate:
    Data:
        Version: 3 (0x2)
        Serial Number:
            79:47:ab:44:e3:f0:3a:13:fa:f9:a8:8e:f1:08:50:37
        Signature Algorithm: sha256WithRSAEncryption
        Issuer: C = XX, O = Some CA, CN = Fake Root CA for zlint testing
        Validity
            Not Before: Jun 21 08:50:52 2025 GMT
            Not After : Jun 20 08:50:52 2030 GMT
        Subject: C = XX, ST = Some State, L = Some Locality, O = Some CA, CN = Fake CA for zlint testing
        Subject Public Key Info:
            Public Key Algorithm: rsaEncryption
                RSA Public-Key: (4096 bit)
                Modulus:
                    00:cf:5d:19:00:a9:39:13:9d:09:33:eb:2e:71:13:
                    ad:f2:6d:76:02:89:57:1e:bd:54:45:a8:6e:a1:49:
                    69:0b:0e:7d:ec:cb:9f:84:17:6e:a5:99:ea:01:4f:
                    6f:0e:39:24:b6:5c:05:5a:26:9a:06:38:82:ec:51:
                    8c:e9:18:d2:68:71:65:14:74:8f:40:b0:9a:43:54:
                    bc:81:e8:81:f1:46:6b:74:63:2b:1f:1b:d9:ae:23:
                    37:d5:6c:98:f0:80:80:08:40:40:42:f5:dd:75:2c:
                    c4:0b:b2:ec:e9:02:aa:f6:c8:fc:03:ca:1e:ba:3e:
                    58:3c:ba:ef:f5:3e:45:50:c0:66:3c:07:cb:7a:64:
                    f6:6d:6a:5a:71:ba:7c:3d:79:2c:be:0f:70:3d:2a:
                    40:83:36:07:e2:17:2a:8a:94:33:35:25:88:a7:45:
                    e0:4d:89:8f:60:9d:44:7f:74:8c:ca:71:3c:f6:5e:
                    5d:bf:89:f9:8d:a4:32:c9:6d:ff:c6:35:f8:31:1e:
                    f6:89:a0:56:b6:9f:2b:c9:7f:93:fe:33:fd:cb:7e:
                    4e:e9:9d:e8:b7:53:2b:74:70:0b:5d:e2:c8:95:cb:
                    00:8e:c7:a9:11:f6:16:57:f6:08:81:22:6d:53:9f:
                    5c:7f:2c:aa:b2:f4:fc:b7:15:5f:7e:50:0c:db:9b:
                    2b:8f:7e:0e:33:2a:fc:d7:b6:c9:96:06:88:4f:2b:
                    e1:72:e0:9f:39:e1:c2:3c:75:1b:7c:72:0a:6c:27:
                    84:fc:ac:f6:e5:fa:55:72:e6:ce:9b:6e:d7:8a:f7:
                    7a:29:fd:82:c4:80:2e:20:1e:1c:02:c7:d5:b1:3b:
                    7e:da:fc:75:42:3d:3a:42:a2:ae:52:23:60:75:f7:
                    62:c4:a5:93:5f:62:93:77:c0:2a:44:38:2b:26:d8:
                    fc:33:02:d1:03:9a:c5:6d:a0:0d:9c:c8:08:ea:fd:
                    f3:b5:19:44:cd:04:76:12:15:fa:ee:38:31:3a:5b:
                    b1:f2:f7:e7:fd:11:33:c0:b7:d8:70:93:36:93:e7:
                    da:6f:68:41:90:68:c3:40:c8:bb:24:22:3b:dc:d8:
                    06:d3:c3:64:dd:df:b8:47:07:02:b6:ee:ea:e4:b1:
                    6a:61:ae:ed:ff:2d:d4:0e:65:06:c6:bf:15:d1:ed:
                    ab:e3:2f:a4:b7:48:a6:55:dd:dc:b7:d5:85:4e:d9:
                    7f:52:9f:68:5c:7b:50:cc:5f:1c:4f:cf:9d:8d:ac:
                    65:33:8f:af:ab:8a:a8:b8:96:d9:d1:86:96:67:e5:
                    ca:5c:04:7d:36:59:be:bf:60:a8:9a:fe:90:5b:85:
                    72:0e:fd:c8:f0:8a:a4:00:88:de:fe:fe:c5:ca:cf:
                    f4:25:8b
                Exponent: 65537 (0x10001)
        X509v3 extensions:
            X509v3 Key Usage: critical
                Certificate Sign, CRL Sign
            X509v3 Extended Key Usage: 
                TLS Web Client Authentication, TLS Web Server Authentication
            X509v3 Basic Constraints: critical
                CA:TRUE
            X509v3 Subject Key Identifier: 
                4B:30:1B:47:5D:7D:D8:2E:C5:13:D4:19:76:5F:1F:16:F0:97:E8:4E
            X509v3 Authority Key Identifier: 
                keyid:E8:B6:F6:76:4B:D0:3B:E5:46:A5:F9:54:D4:7E:07:B3:DE:0D:60:3E

            Authority Information Access: 
                OCSP - URI:http://ca.someca-inc.com/ocsp
                CA Issuers - URI:http://ca.someca-inc.com/root

            X509v3 Certificate Policies: 
                Policy: X509v3 Any Policy

            X509v3 CRL Distribution Points: 

                Full Name:
                  URI:http://ca.someca-inc.com/crl

    Signature Algorithm: sha256WithRSAEncryption
         33:be:58:2d:da:16:cc:8d:15:17:38:74:c9:17:0d:d0:12:c3:
         42:64:74:f1:1c:0d:26:d5:af:65:89:80:6a:00:a4:df:0b:7a:
         f8:1e:07:bc:7d:45:11:e4:dd:c7:3d:79:75:4b:dc:51:75:a7:
         5b:31:15:00:df:2b:0d:25:d9:ef:c5:d4:bb:aa:c0:42:2e:14:
         a6:17:24:5e:ff:d2:05:35:2e:d0:4b:94:48:f7:19:fd:16:4b:
         4b:52:6c:c3:64:e7:77:e5:dc:26:f2:88:2f:30:2c:96:65:6e:
         0a:2f:e6:04:44:6d:38:d1:65:11:32:07:9c:b7:9c:dd:55:01:
         4c:25:a4:b4:37:4b:7e:d4:e9:58:08:90:c5:bc:d9:26:f3:97:
         81:67:7b:14:35:1c:ef:1e:67:d5:c3:b8:3f:1d:1c:14:62:2c:
         ed:99:bf:89:f4:a1:90:e3:d6:c5:e0:89:e3:98:ac:03:c5:e6:
         93:7c:ad:a5:e7:ba:93:02:1a:03:fd:86:d1:93:ca:0b:f6:d4:
         52:d8:d6:72:5f:2c:17:74:99:00:f2:be:6f:ee:ad:a9:dc:3b:
         37:df:4d:d7:ee:3a:23:25:20:45:5e:69:0c:75:70:8f:ec:a2:
         cd:50:42:13:f1:c8:c6:38:c5:d9:d7:26:ad:aa:1d:03:77:9f:
         68:bc:ad:44:e4:b4:74:cb:0b:9f:41:29:05:48:b0:95:44:e9:
         cb:6b:a1:71:1c:a6:99:b5:3b:42:d4:fd:9f:20:5a:23:97:f9:
         15:f7:02:ef:e4:72:2f:55:89:9b:03:5f:c4:25:ad:2c:c6:fe:
         66:88:bc:ab:dd:2f:04:95:55:bc:64:e8:2f:47:64:98:1e:c6:
         e3:d4:a6:43:22:2e:18:53:f1:91:81:7f:54:a8:fc:04:5a:0d:
         79:31:89:b3:bc:14:1f:b5:1f:99:58:43:4d:c8:00:e0:79:a1:
         f9:be:dd:b2:01:0d:94:69:e7:37:df:ae:d9:10:69:a9:f2:1f:
         ff:08:c8:94:e4:ac:fa:9a:bc:2b:6d:c9:8e:74:f3:d1:c1:f7:
         00:8f:73:e0:d5:6a:ad:65:bb:16:4e:07:84:1f:d3:bd:ad:3e:
         da:26:6e:29:bf:9b:5b:11:e6:a5:a9:5f:71:4f:28:59:42:2d:
         ab:68:33:47:35:74:2a:a1:b0:c7:0e:97:51:2d:4d:08:4c:25:
         ab:ec:17:a0:ef:22:58:bc:8a:6d:82:ba:04:95:33:75:24:a5:
         d4:47:b6:78:50:d2:9f:b8:7f:bb:3a:30:2b:ad:30:ed:ec:1d:
         45:ec:b8:c6:f4:14:dc:12:41:bd:c2:fd:1f:7d:fd:e7:96:84:
         6f:17:1c:03:05:9a:58:e0
-----BEGIN CERTIFICATE-----
MIIGcDCCBFigAwIBAgIQeUerROPwOhP6+aiO8QhQNzANBgkqhkiG9w0BAQsFADBI
MQswCQYDVQQGEwJYWDEQMA4GA1UEChMHU29tZSBDQTEnMCUGA1UEAxMeRmFrZSBS
b290IENBIGZvciB6bGludCB0ZXN0aW5nMB4XDTI1MDYyMTA4NTA1MloXDTMwMDYy
MDA4NTA1MlowcDELMAkGA1UEBhMCWFgxEzARBgNVBAgTClNvbWUgU3RhdGUxFjAU
BgNVBAcTDVNvbWUgTG9jYWxpdHkxEDAOBgNVBAoTB1NvbWUgQ0ExIjAgBgNVBAMT
GUZha2UgQ0EgZm9yIHpsaW50IHRlc3RpbmcwggIiMA0GCSqGSIb3DQEBAQUAA4IC
DwAwggIKAoICAQDPXRkAqTkTnQkz6y5xE63ybXYCiVcevVRFqG6hSWkLDn3sy5+E
F26lmeoBT28OOSS2XAVaJpoGOILsUYzpGNJocWUUdI9AsJpDVLyB6IHxRmt0Yysf
G9muIzfVbJjwgIAIQEBC9d11LMQLsuzpAqr2yPwDyh66Plg8uu/1PkVQwGY8B8t6
ZPZtalpxunw9eSy+D3A9KkCDNgfiFyqKlDM1JYinReBNiY9gnUR/dIzKcTz2Xl2/
ifmNpDLJbf/GNfgxHvaJoFa2nyvJf5P+M/3Lfk7pnei3Uyt0cAtd4siVywCOx6kR
9hZX9giBIm1Tn1x/LKqy9Py3FV9+UAzbmyuPfg4zKvzXtsmWBohPK+Fy4J854cI8
dRt8cgpsJ4T8rPbl+lVy5s6bbteK93op/YLEgC4gHhwCx9WxO37a/HVCPTpCoq5S
I2B192LEpZNfYpN3wCpEOCsm2PwzAtEDmsVtoA2cyAjq/fO1GUTNBHYSFfruODE6
W7Hy9+f9ETPAt9hwkzaT59pvaEGQaMNAyLskIjvc2AbTw2Td37hHBwK27urksWph
ru3/LdQOZQbGvxXR7avjL6S3SKZV3dy31YVO2X9Sn2hce1DMXxxPz52NrGUzj6+r
iqi4ltnRhpZn5cpcBH02Wb6/YKia/pBbhXIO/cjwiqQAiN7+/sXKz/QliwIDAQAB
o4IBLDCCASgwDgYDVR0PAQH/BAQDAgEGMB0GA1UdJQQWMBQGCCsGAQUFBwMCBggr
BgEFBQcDATAPBgNVHRMBAf8EBTADAQH/MB0GA1UdDgQWBBRLMBtHXX3YLsUT1Bl2
Xx8W8JfoTjAfBgNVHSMEGDAWgBTotvZ2S9A75Ual+VTUfgez3g1gPjBkBggrBgEF
BQcBAQRYMFYwKQYIKwYBBQUHMAGGHWh0dHA6Ly9jYS5zb21lY2EtaW5jLmNvbS9v
Y3NwMCkGCCsGAQUFBzAChh1odHRwOi8vY2Euc29tZWNhLWluYy5jb20vcm9vdDAR
BgNVHSAECjAIMAYGBFUdIAAwLQYDVR0fBCYwJDAioCCgHoYcaHR0cDovL2NhLnNv
bWVjYS1pbmMuY29tL2NybDANBgkqhkiG9w0BAQsFAAOCAgEAM75YLdoWzI0VFzh0
yRcN0BLDQmR08RwNJtWvZYmAagCk3wt6+B4HvH1FEeTdxz15dUvcUXWnWzEVAN8r
DSXZ78XUu6rAQi4UphckXv/SBTUu0EuUSPcZ/RZLS1Jsw2Tnd+XcJvKILzAslmVu
Ci/mBERtONFlETIHnLec3VUBTCWktDdLftTpWAiQxbzZJvOXgWd7FDUc7x5n1cO4
Px0cFGIs7Zm/ifShkOPWxeCJ45isA8Xmk3ytpee6kwIaA/2G0ZPKC/bUUtjWcl8s
F3SZAPK+b+6tqdw7N99N1+46IyUgRV5pDHVwj+yizVBCE/HIxjjF2dcmraodA3ef
aLytROS0dMsLn0EpBUiwlUTpy2uhcRymmbU7QtT9nyBaI5f5FfcC7+RyL1WJmwNf
xCWtLMb+Zoi8q90vBJVVvGToL0dkmB7G49SmQyIuGFPxkYF/VKj8BFoNeTGJs7wU
H7UfmVhDTcgA4Hmh+b7dsgENlGnnN9+u2RBpqfIf/wjIlOSs+pq8K23JjnTz0cH3
AI9z4NVqrWW7Fk4HhB/Tva0+2iZuKb+bWxHmpalfcU8oWUItq2gzRzV0KqGwxw6X
US1NCEwlq+wXoO8iWLyKbYK6BJUzdSSl1Ee2eFDSn7h/uzowK60w7ewdRey4xvQU
3BJBvcL9H33955aEbxccAwWaWOA=
-----END CERTIFICATE-----
