Certificate:
    Data:
        Version: 3 (0x2)
        Serial Number: 18008675309 (0x4316693ed)
    Signature Algorithm: sha256WithRSAEncryption
        Issuer: C = US, O = Mother Nature, OU = Everything, CN = Mother Nature
        Validity
            Not Before: Jun 29 20:03:51 2016 GMT
            Not After : Sep 10 20:03:51 2016 GMT
        Subject: 
        Subject Public Key Info:
            Public Key Algorithm: rsaEncryption
                Public-Key: (2048 bit)
                Modulus:
                    00:a6:2c:ad:4c:93:c1:99:40:74:43:ad:dc:87:d2:
                    d6:f4:ed:86:83:50:cd:4a:73:07:af:07:d2:39:5c:
                    59:2c:7a:24:f5:08:b0:c9:41:a1:5f:c0:89:17:29:
                    92:f9:8d:fa:33:d2:e2:d9:2b:c6:89:a8:63:7f:13:
                    84:f6:4e:71:99:4c:02:04:60:c7:b6:cf:7f:65:3e:
                    0f:ce:83:c5:61:51:c6:f0:32:92:8c:b6:31:e5:e7:
                    b4:ff:a0:7e:70:d2:bc:3c:98:80:3d:e5:5e:c2:0b:
                    17:6b:d0:29:0d:81:99:4d:9a:7c:e6:55:1c:5f:af:
                    fb:9f:5c:7e:d2:04:0f:77:0a:8a:3a:12:41:8c:1c:
                    33:c0:5e:ee:c6:be:2a:20:7b:44:f0:04:81:c7:fb:
                    89:ba:3f:f4:74:07:32:4d:be:34:da:8b:d2:0e:16:
                    44:bc:d2:d7:b4:ef:9a:7b:68:fc:a5:45:56:bf:d8:
                    ba:2e:61:d8:9e:8f:1b:aa:4a:a9:d6:b1:08:39:f0:
                    9f:2b:f8:92:dd:c1:d6:8e:55:a5:f0:b7:3a:6a:22:
                    91:09:9a:21:ce:9a:40:b3:0c:91:80:ae:ce:45:10:
                    c8:0b:1a:10:94:76:94:56:f6:63:b8:01:f2:ad:ce:
                    64:9e:15:8b:9e:f1:69:18:78:45:24:1c:47:bd:e9:
                    4a:f7
                Exponent: 65537 (0x10001)
        X509v3 extensions:
            X509v3 Key Usage: critical
                Digital Signature, Key Encipherment
            X509v3 Extended Key Usage: 
                TLS Web Client Authentication, TLS Web Server Authentication
            X509v3 Basic Constraints: critical
                CA:FALSE
            X509v3 Authority Key Identifier: 
                keyid:01:02:03

            Authority Information Access: 
                OCSP - URI:http://theca.net/ocsp
                CA Issuers - URI:http://theca.net/totallythecert.crt

            X509v3 Subject Key Identifier: 
                04:03:02:01
            X509v3 Subject Alternative Name: critical
                DNS:*.gov.us, DNS:gov.us
    Signature Algorithm: sha256WithRSAEncryption
         aa:ef:39:37:54:5e:b4:b8:4e:58:29:ff:53:b1:16:78:4d:7a:
         20:7e:1c:ca:53:1e:f3:31:b6:a7:96:aa:82:70:77:80:b1:87:
         13:42:5b:16:5d:9e:6c:cc:a0:96:ee:cc:bf:ef:00:df:63:b9:
         32:07:69:bf:fb:7b:da:ac:76:e7:a1:ec:ca:cb:2b:6f:54:16:
         95:4b:e0:78:1d:26:1d:cd:56:f5:0c:ad:8a:f6:9a:c4:66:ab:
         9e:e8:5e:76:16:f8:58:ee:d7:47:0e:78:0c:cd:b0:17:63:ff:
         a2:af:9c:14:03:f9:23:f3:b1:c0:9a:d7:12:7e:78:da:19:2e:
         da:e8:3b:5f:62:b0:59:c9:01:2a:e5:fa:5c:8b:6c:4b:bd:e6:
         ff:7d:02:64:6a:5c:6d:c6:82:4e:6d:14:68:d0:73:f7:9a:ba:
         f5:21:b8:55:50:a2:75:62:66:c1:7c:e2:7f:c0:46:3c:ae:2e:
         eb:4f:74:fe:03:ad:41:de:ef:b7:85:bd:dd:78:51:20:71:29:
         89:36:e8:d4:0b:24:03:fe:87:55:a3:be:8e:9c:18:e2:90:fb:
         d1:87:73:06:0b:36:6b:0b:71:f8:03:0d:5f:52:66:5e:9c:db:
         bf:df:c3:bf:10:81:92:b4:de:dd:a5:92:2d:48:3b:d1:7a:80:
         1c:cc:78:88
-----BEGIN CERTIFICATE-----
MIIDtTCCAp2gAwIBAgIFBDFmk+0wDQYJKoZIhvcNAQELBQAwUjELMAkGA1UEBhMC
VVMxFjAUBgNVBAoTDU1vdGhlciBOYXR1cmUxEzARBgNVBAsTCkV2ZXJ5dGhpbmcx
FjAUBgNVBAMTDU1vdGhlciBOYXR1cmUwHhcNMTYwNjI5MjAwMzUxWhcNMTYwOTEw
MjAwMzUxWjAAMIIBIjANBgkqhkiG9w0BAQEFAAOCAQ8AMIIBCgKCAQEApiytTJPB
mUB0Q63ch9LW9O2Gg1DNSnMHrwfSOVxZLHok9QiwyUGhX8CJFymS+Y36M9Li2SvG
iahjfxOE9k5xmUwCBGDHts9/ZT4PzoPFYVHG8DKSjLYx5ee0/6B+cNK8PJiAPeVe
wgsXa9ApDYGZTZp85lUcX6/7n1x+0gQPdwqKOhJBjBwzwF7uxr4qIHtE8ASBx/uJ
uj/0dAcyTb402ovSDhZEvNLXtO+ae2j8pUVWv9i6LmHYno8bqkqp1rEIOfCfK/iS
3cHWjlWl8Lc6aiKRCZohzppAswyRgK7ORRDICxoQlHaUVvZjuAHyrc5knhWLnvFp
GHhFJBxHvelK9wIDAQABo4HjMIHgMA4GA1UdDwEB/wQEAwIFoDAdBgNVHSUEFjAU
BggrBgEFBQcDAgYIKwYBBQUHAwEwDAYDVR0TAQH/BAIwADAOBgNVHSMEBzAFgAMB
AgMwYgYIKwYBBQUHAQEEVjBUMCEGCCsGAQUFBzABhhVodHRwOi8vdGhlY2EubmV0
L29jc3AwLwYIKwYBBQUHMAKGI2h0dHA6Ly90aGVjYS5uZXQvdG90YWxseXRoZWNl
cnQuY3J0MA0GA1UdDgQGBAQEAwIBMB4GA1UdEQEB/wQUMBKCCCouZ292LnVzggZn
b3YudXMwDQYJKoZIhvcNAQELBQADggEBAKrvOTdUXrS4Tlgp/1OxFnhNeiB+HMpT
HvMxtqeWqoJwd4CxhxNCWxZdnmzMoJbuzL/vAN9juTIHab/7e9qsdueh7MrLK29U
FpVL4HgdJh3NVvUMrYr2msRmq57oXnYW+Fju10cOeAzNsBdj/6KvnBQD+SPzscCa
1xJ+eNoZLtroO19isFnJASrl+lyLbEu95v99AmRqXG3Ggk5tFGjQc/eauvUhuFVQ
onViZsF84n/ARjyuLutPdP4DrUHe77eFvd14USBxKYk26NQLJAP+h1Wjvo6cGOKQ
+9GHcwYLNmsLcfgDDV9SZl6c27/fw78QgZK03t2lki1IO9F6gBzMeIg=
-----END CERTIFICATE-----
