Certificate:
    Data:
        Version: 3 (0x2)
        Serial Number: 18008675309 (0x4316693ed)
    Signature Algorithm: sha256WithRSAEncryption
        Issuer: CN=Mother Nature, OU=Everything, O=Mother Nature/postalCode=postalcode, C=US, GN=givenname, SN=surname
        Validity
            Not Before: Aug 24 04:26:31 2017 GMT
            Not After : Nov  5 04:26:31 2017 GMT
        Subject: CN=gov.us, OU=Chaos, O=org/street=3210 Holly Mill Run, ST=province/postalCode=30062, GN=hello, SN=surname
        Subject Public Key Info:
            Public Key Algorithm: rsaEncryption
                Public-Key: (2048 bit)
                Modulus:
                    00:bb:4f:ed:ce:7d:07:e0:2b:e7:36:3d:94:31:6a:
                    22:04:f2:29:c1:de:ea:6d:05:58:cc:61:7a:5d:98:
                    66:0f:34:e9:99:f6:19:19:bc:fa:82:98:64:a3:62:
                    8a:d1:a3:95:a1:1b:56:53:a9:5b:d6:c5:9c:f6:fb:
                    6b:45:64:d5:ab:24:47:90:e0:52:a2:d3:f2:2d:cf:
                    d8:c0:d1:75:e0:09:25:e4:ed:53:7c:8a:bd:d2:9f:
                    ac:0b:d8:34:66:91:fc:c7:5e:7b:22:63:d3:ed:51:
                    aa:ce:ee:9e:ea:96:25:22:80:c7:11:ae:e1:9d:2e:
                    af:8f:da:71:be:76:11:81:39:ec:17:5f:c9:49:2c:
                    58:b8:b6:28:4e:60:97:cb:c6:e2:29:e2:57:08:15:
                    74:94:ea:af:36:cf:81:21:61:0d:15:d4:7c:8d:ca:
                    82:82:cb:d9:c0:d7:ac:fc:83:9a:d6:ea:5c:d5:42:
                    81:77:9a:c6:f7:27:5a:67:5a:8f:09:3f:a0:6a:5c:
                    07:0f:72:da:d8:9c:c8:96:49:bd:68:ce:4e:f3:24:
                    47:60:b7:06:9a:78:ff:bd:14:02:89:16:ac:fe:4e:
                    5d:90:f4:97:95:cb:45:b5:ca:00:ee:ed:48:de:a7:
                    f9:1a:8d:6e:e5:31:aa:29:3c:6a:e8:23:48:bb:2e:
                    18:5b
                Exponent: 65537 (0x10001)
        X509v3 extensions:
            X509v3 Key Usage: critical
                Digital Signature, Key Encipherment
            X509v3 Extended Key Usage: 
                TLS Web Client Authentication, TLS Web Server Authentication
            X509v3 Basic Constraints: critical
                CA:FALSE
            X509v3 Authority Key Identifier: 
                keyid:01:02:03

            X509v3 Certificate Policies: 
                Policy: 2.23.140.1.2.3

            Authority Information Access: critical
                OCSP - URI:http://ss.symcd.com
                CA Issuers - URI:http://ss.symcb.com/ss.crt

    Signature Algorithm: sha256WithRSAEncryption
         02:35:c9:e3:14:6f:d3:36:a4:b7:17:90:75:31:d2:d1:50:40:
         4e:3e:5f:ae:55:0b:a0:99:72:dd:fe:50:61:cc:8b:1b:78:06:
         3b:ab:7c:df:9b:5d:6e:c4:65:5d:e8:b2:97:cd:2a:6f:22:21:
         74:59:7b:93:48:83:c9:db:8c:92:1a:91:88:3f:e5:f3:a3:ed:
         15:54:44:32:00:b0:12:b0:b7:b8:ab:49:68:60:f2:4b:07:f9:
         94:3d:af:0f:0c:1f:62:53:04:25:92:4b:33:0b:37:9f:90:36:
         68:a2:e5:d8:ba:3b:c1:38:be:77:76:88:05:82:6e:f3:8e:f6:
         62:1c:4b:5b:3e:dc:b5:43:02:ee:e3:66:17:ab:ed:d9:2c:c5:
         76:d1:1e:eb:e3:a9:46:5a:78:f8:52:22:76:01:27:8e:8f:05:
         0e:24:07:66:7f:ec:81:53:86:fd:59:ea:ba:40:55:40:ad:98:
         d9:c9:34:d7:a4:a3:e7:27:be:9e:00:21:45:f0:05:24:44:f7:
         2d:5c:34:4a:93:d8:de:5a:90:be:e5:c3:19:58:7a:b3:ea:d1:
         b1:67:62:f2:41:1a:06:bc:c3:4f:02:16:f6:57:c4:83:3f:ff:
         54:6f:b6:27:a2:ff:96:26:73:4a:4f:2f:24:74:c9:ff:0e:52:
         ed:7a:86:0c
-----BEGIN CERTIFICATE-----
MIIEYjCCA0ygAwIBAgIFBDFmk+0wCwYJKoZIhvcNAQELMIGPMRYwFAYDVQQDEw1N
b3RoZXIgTmF0dXJlMRMwEQYDVQQLEwpFdmVyeXRoaW5nMRYwFAYDVQQKEw1Nb3Ro
ZXIgTmF0dXJlMRMwEQYDVQQREwpwb3N0YWxjb2RlMQswCQYDVQQGEwJVUzESMBAG
A1UEKhMJZ2l2ZW5uYW1lMRAwDgYDVQQEEwdzdXJuYW1lMQAwHhcNMTcwODI0MDQy
NjMxWhcNMTcxMTA1MDQyNjMxWjCBlDEPMA0GA1UEAxMGZ292LnVzMQ4wDAYDVQQL
EwVDaGFvczEMMAoGA1UEChMDb3JnMRwwGgYDVQQJExMzMjEwIEhvbGx5IE1pbGwg
UnVuMREwDwYDVQQIEwhwcm92aW5jZTEOMAwGA1UEERMFMzAwNjIxDjAMBgNVBCoT
BWhlbGxvMRAwDgYDVQQEEwdzdXJuYW1lMQAwggEiMA0GCSqGSIb3DQEBAQUAA4IB
DwAwggEKAoIBAQC7T+3OfQfgK+c2PZQxaiIE8inB3uptBVjMYXpdmGYPNOmZ9hkZ
vPqCmGSjYorRo5WhG1ZTqVvWxZz2+2tFZNWrJEeQ4FKi0/Itz9jA0XXgCSXk7VN8
ir3Sn6wL2DRmkfzHXnsiY9PtUarO7p7qliUigMcRruGdLq+P2nG+dhGBOewXX8lJ
LFi4tihOYJfLxuIp4lcIFXSU6q82z4EhYQ0V1HyNyoKCy9nA16z8g5rW6lzVQoF3
msb3J1pnWo8JP6BqXAcPctrYnMiWSb1ozk7zJEdgtwaaeP+9FAKJFqz+Tl2Q9JeV
y0W1ygDu7Ujep/kajW7lMaopPGroI0i7LhhbAgMBAAGjgcEwgb4wDgYDVR0PAQH/
BAQDAgCgMB0GA1UdJQQWMBQGCCsGAQUFBwMCBggrBgEFBQcDATAMBgNVHRMBAf8E
AjAAMA4GA1UdIwQHMAWAAwECAzATBgNVHSAEDDAKMAgGBmeBDAECAzBaBggrBgEF
BQcBAQEB/wRLMEkwHwYIKwYBBQUHMAGGE2h0dHA6Ly9zcy5zeW1jZC5jb20wJgYI
KwYBBQUHMAKGGmh0dHA6Ly9zcy5zeW1jYi5jb20vc3MuY3J0MAsGCSqGSIb3DQEB
CwOCAQEAAjXJ4xRv0zaktxeQdTHS0VBATj5frlULoJly3f5QYcyLG3gGO6t835td
bsRlXeiyl80qbyIhdFl7k0iDyduMkhqRiD/l86PtFVREMgCwErC3uKtJaGDySwf5
lD2vDwwfYlMEJZJLMws3n5A2aKLl2Lo7wTi+d3aIBYJu8472YhxLWz7ctUMC7uNm
F6vt2SzFdtEe6+OpRlp4+FIidgEnjo8FDiQHZn/sgVOG/VnqukBVQK2Y2ck016Sj
5ye+ngAhRfAFJET3LVw0SpPY3lqQvuXDGVh6s+rRsWdi8kEaBrzDTwIW9lfEgz//
VG+2J6L/liZzSk8vJHTJ/w5S7XqGDA==
-----END CERTIFICATE-----
