Certificate:
    Data:
        Version: 3 (0x2)
        Serial Number: 18008675309 (0x4316693ed)
        Signature Algorithm: sha256WithRSAEncryption
        Issuer: CN = Mother Nature, OU = Everything, O = Mother Nature, C = US
        Validity
            Not Before: Aug 24 03:19:50 2017 GMT
            Not After : Nov  5 03:19:50 2017 GMT
        Subject: CN = gov.us, OU = Chaos, street = 3210 Holly Mill Run, L = localility, postalCode = 30062, C = US
        Subject Public Key Info:
            Public Key Algorithm: rsaEncryption
                RSA Public-Key: (2048 bit)
                Modulus:
                    00:b7:ed:99:d7:4f:8c:4c:b4:3d:b5:d5:19:54:e1:
                    95:32:78:08:5f:c8:a6:00:2f:66:fa:bc:85:46:56:
                    29:fd:89:a2:87:1c:68:9b:f3:18:17:e9:01:85:2f:
                    09:ce:a3:bc:74:89:be:24:b6:ed:e7:84:b6:0c:80:
                    3e:72:7c:b6:6f:65:66:6e:c2:23:94:2d:97:c6:d9:
                    10:12:d3:68:5d:c7:71:d1:ca:0d:39:9c:b9:72:bf:
                    b6:08:0f:88:c6:4e:57:8d:27:15:48:02:81:32:be:
                    bf:80:00:55:06:47:1f:af:19:77:42:27:f9:9a:e6:
                    6a:0f:74:b6:a0:13:96:ef:0a:da:aa:d9:75:a6:f3:
                    0b:06:07:5f:10:3d:5b:d3:90:0e:86:4c:9a:58:6c:
                    5b:6b:4c:29:29:d8:33:ca:4e:48:cc:7f:26:dc:99:
                    32:3c:39:39:4b:03:cc:6e:c3:7f:58:d3:1e:bc:d7:
                    5c:8f:d4:02:1f:78:9b:0c:7a:72:16:36:20:f7:74:
                    de:16:cf:ac:f5:23:4d:3b:11:f1:8d:d5:e1:71:48:
                    f6:42:e3:98:74:8d:7a:9a:7c:50:c6:aa:0b:08:d3:
                    3d:63:87:67:7a:21:e7:e4:2c:29:29:44:64:eb:4d:
                    cf:e5:ec:fa:ca:91:6e:a4:4e:fd:18:e5:76:0c:38:
                    f5:e3
                Exponent: 65537 (0x10001)
        X509v3 extensions:
            X509v3 Key Usage: critical
                Digital Signature, Key Encipherment
            X509v3 Extended Key Usage: 
                TLS Web Client Authentication, TLS Web Server Authentication
            X509v3 Basic Constraints: critical
                CA:FALSE
            X509v3 Authority Key Identifier: 
                keyid:01:02:03

            X509v3 Certificate Policies: 
                Policy: 2.23.140.1.2.3

            Authority Information Access: critical
                OCSP - URI:http://ss.symcd.com
                CA Issuers - URI:http://ss.symcb.com/ss.crt

    Signature Algorithm: sha256WithRSAEncryption
         dc:36:ce:ed:32:a2:5e:72:7d:f4:01:65:90:77:a3:23:c0:75:
         cc:af:51:b0:09:e4:ed:03:96:01:ad:54:09:85:c2:48:c9:2e:
         69:68:59:1a:6d:db:15:cc:ec:b8:c9:7d:8b:92:20:ad:1e:1d:
         9c:2f:43:85:89:70:46:eb:a9:1f:ee:85:39:a6:3b:b4:5d:89:
         f2:29:96:9e:c8:92:cc:20:f9:c4:f6:4a:4a:78:b0:e3:12:69:
         ac:ef:9f:bc:c3:c7:b4:9d:12:c1:74:19:cf:8c:ce:e2:bc:cb:
         27:c7:e0:0c:5e:a0:92:04:51:0c:5e:66:5f:96:42:90:fc:56:
         51:3a:bd:4a:3f:c1:5c:c4:86:d2:87:e6:ba:7a:f9:c4:dc:6e:
         04:00:ef:50:3d:2d:48:49:07:2f:ad:8e:98:30:6a:f8:56:fa:
         29:82:72:fe:50:bd:82:1d:3b:16:46:1d:6b:ab:a1:12:ce:65:
         2d:58:1f:57:dd:66:19:cc:96:52:1a:67:55:96:e7:c0:e1:64:
         22:b4:5e:65:52:57:da:46:47:33:7d:53:a5:42:b3:6f:f9:9a:
         40:9e:55:1e:ce:42:2e:66:8c:72:a5:2e:95:0d:48:97:9d:34:
         14:70:f6:ae:21:2e:b1:e2:26:98:b0:d0:49:05:c4:ba:4f:a6:
         46:ae:22:b5
-----BEGIN CERTIFICATE-----
MIIEBDCCAu6gAwIBAgIFBDFmk+0wCwYJKoZIhvcNAQELMFQxFjAUBgNVBAMTDU1v
dGhlciBOYXR1cmUxEzARBgNVBAsTCkV2ZXJ5dGhpbmcxFjAUBgNVBAoTDU1vdGhl
ciBOYXR1cmUxCzAJBgNVBAYTAlVTMQAwHhcNMTcwODI0MDMxOTUwWhcNMTcxMTA1
MDMxOTUwWjBzMQ8wDQYDVQQDEwZnb3YudXMxDjAMBgNVBAsTBUNoYW9zMRwwGgYD
VQQJExMzMjEwIEhvbGx5IE1pbGwgUnVuMRMwEQYDVQQHEwpsb2NhbGlsaXR5MQ4w
DAYDVQQREwUzMDA2MjELMAkGA1UEBhMCVVMxADCCASIwDQYJKoZIhvcNAQEBBQAD
ggEPADCCAQoCggEBALftmddPjEy0PbXVGVThlTJ4CF/IpgAvZvq8hUZWKf2Joocc
aJvzGBfpAYUvCc6jvHSJviS27eeEtgyAPnJ8tm9lZm7CI5Qtl8bZEBLTaF3HcdHK
DTmcuXK/tggPiMZOV40nFUgCgTK+v4AAVQZHH68Zd0In+Zrmag90tqATlu8K2qrZ
dabzCwYHXxA9W9OQDoZMmlhsW2tMKSnYM8pOSMx/JtyZMjw5OUsDzG7Df1jTHrzX
XI/UAh94mwx6chY2IPd03hbPrPUjTTsR8Y3V4XFI9kLjmHSNepp8UMaqCwjTPWOH
Z3oh5+QsKSlEZOtNz+Xs+sqRbqRO/Rjldgw49eMCAwEAAaOBwTCBvjAOBgNVHQ8B
Af8EBAMCAKAwHQYDVR0lBBYwFAYIKwYBBQUHAwIGCCsGAQUFBwMBMAwGA1UdEwEB
/wQCMAAwDgYDVR0jBAcwBYADAQIDMBMGA1UdIAQMMAowCAYGZ4EMAQIDMFoGCCsG
AQUFBwEBAQH/BEswSTAfBggrBgEFBQcwAYYTaHR0cDovL3NzLnN5bWNkLmNvbTAm
BggrBgEFBQcwAoYaaHR0cDovL3NzLnN5bWNiLmNvbS9zcy5jcnQwCwYJKoZIhvcN
AQELA4IBAQDcNs7tMqJecn30AWWQd6MjwHXMr1GwCeTtA5YBrVQJhcJIyS5paFka
bdsVzOy4yX2LkiCtHh2cL0OFiXBG66kf7oU5pju0XYnyKZaeyJLMIPnE9kpKeLDj
Emms75+8w8e0nRLBdBnPjM7ivMsnx+AMXqCSBFEMXmZflkKQ/FZROr1KP8FcxIbS
h+a6evnE3G4EAO9QPS1ISQcvrY6YMGr4VvopgnL+UL2CHTsWRh1rq6ESzmUtWB9X
3WYZzJZSGmdVlufA4WQitF5lUlfaRkczfVOlQrNv+ZpAnlUezkIuZoxypS6VDUiX
nTQUcPauIS6x4iaYsNBJBcS6T6ZGriK1
-----END CERTIFICATE-----
-----BEGIN CERTIFICATE-----
MIIEBDCCAu6gAwIBAgIFBDFmk+0wCwYJKoZIhvcNAQELMFQxFjAUBgNVBAMTDU1v
dGhlciBOYXR1cmUxEzARBgNVBAsTCkV2ZXJ5dGhpbmcxFjAUBgNVBAoTDU1vdGhl
ciBOYXR1cmUxCzAJBgNVBAYTAlVTMQAwHhcNMTcwODI0MDMxOTUwWhcNMTcxMTA1
MDMxOTUwWjBzMQ8wDQYDVQQDEwZnb3YudXMxDjAMBgNVBAsTBUNoYW9zMRwwGgYD
VQQJExMzMjEwIEhvbGx5IE1pbGwgUnVuMRMwEQYDVQQHEwpsb2NhbGlsaXR5MQ4w
DAYDVQQREwUzMDA2MjELMAkGA1UEBhMCVVMxADCCASIwDQYJKoZIhvcNAQEBBQAD
ggEPADCCAQoCggEBALftmddPjEy0PbXVGVThlTJ4CF/IpgAvZvq8hUZWKf2Joocc
aJvzGBfpAYUvCc6jvHSJviS27eeEtgyAPnJ8tm9lZm7CI5Qtl8bZEBLTaF3HcdHK
DTmcuXK/tggPiMZOV40nFUgCgTK+v4AAVQZHH68Zd0In+Zrmag90tqATlu8K2qrZ
dabzCwYHXxA9W9OQDoZMmlhsW2tMKSnYM8pOSMx/JtyZMjw5OUsDzG7Df1jTHrzX
XI/UAh94mwx6chY2IPd03hbPrPUjTTsR8Y3V4XFI9kLjmHSNepp8UMaqCwjTPWOH
Z3oh5+QsKSlEZOtNz+Xs+sqRbqRO/Rjldgw49eMCAwEAAaOBwTCBvjAOBgNVHQ8B
Af8EBAMCAKAwHQYDVR0lBBYwFAYIKwYBBQUHAwIGCCsGAQUFBwMBMAwGA1UdEwEB
/wQCMAAwDgYDVR0jBAcwBYADAQIDMBMGA1UdIAQMMAowCAYGZ4EMAQIDMFoGCCsG
AQUFBwEBAQH/BEswSTAfBggrBgEFBQcwAYYTaHR0cDovL3NzLnN5bWNkLmNvbTAm
BggrBgEFBQcwAoYaaHR0cDovL3NzLnN5bWNiLmNvbS9zcy5jcnQwCwYJKoZIhvcN
AQELA4IBAQDcNs7tMqJecn30AWWQd6MjwHXMr1GwCeTtA5YBrVQJhcJIyS5paFka
bdsVzOy4yX2LkiCtHh2cL0OFiXBG66kf7oU5pju0XYnyKZaeyJLMIPnE9kpKeLDj
Emms75+8w8e0nRLBdBnPjM7ivMsnx+AMXqCSBFEMXmZflkKQ/FZROr1KP8FcxIbS
h+a6evnE3G4EAO9QPS1ISQcvrY6YMGr4VvopgnL+UL2CHTsWRh1rq6ESzmUtWB9X
3WYZzJZSGmdVlufA4WQitF5lUlfaRkczfVOlQrNv+ZpAnlUezkIuZoxypS6VDUiX
nTQUcPauIS6x4iaYsNBJBcS6T6ZGriK1
-----END CERTIFICATE-----
