Certificate:
    Data:
        Version: 3 (0x2)
        Serial Number:
            f6:97:62:73:ef:cd:44:a4:0f:04:a2:82:6f:8f:35:19
        Signature Algorithm: sha256WithRSAEncryption
        Issuer: C = XX, O = Some CA, CN = Fake Root CA for zlint testing
        Validity
            Not Before: Jun 21 08:57:44 2025 GMT
            Not After : Jun 20 08:57:44 2030 GMT
        Subject: C = XX, ST = Some State, L = Some Locality, O = Some CA, CN = Fake CA for zlint testing
        Subject Public Key Info:
            Public Key Algorithm: rsaEncryption
                RSA Public-Key: (4096 bit)
                Modulus:
                    00:e5:17:4c:e1:a3:1b:c6:01:70:93:93:89:7a:c2:
                    e9:6c:a6:78:f2:34:8b:6e:92:53:2f:06:b9:d0:a3:
                    88:d3:91:b2:f5:00:fb:8c:19:af:1e:b6:5f:be:13:
                    a0:23:55:34:2e:a5:51:6c:5e:94:a2:8c:45:92:3b:
                    36:54:eb:2f:d0:cc:bb:8f:b3:81:dc:fa:81:00:8b:
                    97:09:1e:d1:80:ae:d0:b1:f9:b3:d2:a9:3d:32:b0:
                    af:17:7f:b9:0a:91:90:bd:82:21:26:17:ba:e3:70:
                    61:32:cb:58:4f:de:a5:17:0e:d2:4f:e1:ed:5a:b1:
                    46:65:f5:8b:12:3f:49:db:a0:1d:d5:8e:95:3a:3b:
                    05:57:99:13:61:7e:36:73:6e:b5:cb:4b:07:36:38:
                    bc:a5:f1:9f:4d:3c:e5:8b:04:08:37:77:99:2f:8c:
                    0e:e8:e9:15:e6:74:00:ce:f5:f2:96:af:72:9c:36:
                    04:76:10:78:a2:7a:bd:53:6d:8a:43:b3:08:ee:94:
                    49:59:fe:e8:33:8d:43:10:b3:c1:bc:42:30:8d:10:
                    ff:78:20:f2:aa:51:97:ef:bf:ca:18:fa:77:be:3e:
                    47:ef:a7:09:04:d9:c2:98:0a:d0:bf:2a:53:ed:83:
                    2a:0c:06:4b:40:44:12:46:eb:fa:20:e6:06:43:90:
                    9e:49:60:82:e4:91:d8:55:d6:df:b9:7f:d5:9e:f6:
                    46:5e:e0:f9:d8:a0:44:99:cb:9e:71:57:74:60:53:
                    e8:f9:85:49:b2:82:2b:8c:e0:39:68:e8:28:78:28:
                    91:81:1a:e7:50:d5:36:ea:98:36:01:04:51:40:66:
                    a5:20:e3:03:04:43:c4:65:76:bd:a4:7f:07:2b:57:
                    51:94:16:6d:06:32:61:b7:82:e8:30:8f:cf:22:87:
                    ee:59:30:4b:be:4b:b5:ac:c4:cf:3b:6b:5a:e6:2e:
                    01:ec:5a:3c:56:db:73:84:f1:ed:23:28:9d:b1:9f:
                    d6:6c:a3:bb:b6:53:93:b7:df:50:49:d1:70:96:ac:
                    85:f8:e4:41:6b:c7:f5:bf:d1:e7:54:58:8c:82:c6:
                    7e:a6:b2:1a:9c:a0:bf:8f:f0:96:09:ff:33:20:c0:
                    da:ae:4c:dc:a1:5b:34:5c:2a:fa:62:6a:09:b9:54:
                    4a:51:4e:ad:c6:ec:24:1c:8d:fb:4e:7f:b5:7e:cc:
                    0c:84:c8:09:3e:88:6b:08:3c:b2:70:b0:9b:e9:92:
                    32:c5:a1:8d:f4:e8:91:43:fc:f5:e8:ff:f5:fa:c3:
                    10:99:ee:85:67:76:a1:cb:07:32:19:96:e1:81:aa:
                    ce:f3:40:7f:bc:82:b2:77:62:14:dc:b5:34:b1:41:
                    e6:de:cb
                Exponent: 65537 (0x10001)
        X509v3 extensions:
            X509v3 Key Usage: critical
                Certificate Sign, CRL Sign
            X509v3 Extended Key Usage: 
                TLS Web Client Authentication, TLS Web Server Authentication
            X509v3 Basic Constraints: critical
                CA:TRUE
            X509v3 Subject Key Identifier: 
                1E:2C:22:6E:7F:46:C7:90:CE:17:35:37:24:39:11:DC:2E:9E:D9:8F
            X509v3 Authority Key Identifier: 
                keyid:E8:B6:F6:76:4B:D0:3B:E5:46:A5:F9:54:D4:7E:07:B3:DE:0D:60:3E

            Authority Information Access: 
                OCSP - URI:https://ca.someca-inc.com/ocsp

            X509v3 Certificate Policies: 
                Policy: X509v3 Any Policy

            X509v3 CRL Distribution Points: 

                Full Name:
                  URI:http://ca.someca-inc.com/crl

    Signature Algorithm: sha256WithRSAEncryption
         04:c0:54:c3:64:37:01:85:06:b3:61:26:c8:70:0c:a2:9c:b0:
         0b:d0:8f:ca:8b:cf:53:1e:7e:d5:3b:c8:cc:9f:34:e2:29:99:
         69:ba:1a:86:70:b2:f7:28:cb:a0:07:df:b9:ec:02:63:99:70:
         cb:5e:de:46:e6:47:9d:c0:e1:32:b4:c3:c2:95:10:0d:ea:47:
         5a:80:55:5f:c4:a7:ff:f9:df:f0:9e:c2:09:9a:75:c9:fe:0c:
         cb:e7:91:5a:cf:b7:1d:ac:d1:76:93:93:2e:33:c2:7f:40:64:
         87:ab:e0:e1:5c:db:e6:f8:4e:b7:b4:4c:19:19:2e:2a:2a:1e:
         a6:61:89:d1:88:04:b0:b9:8a:16:b4:bc:c5:38:00:23:d3:49:
         ed:49:68:d5:f5:c4:d0:7d:d9:6f:8c:60:b2:e5:ad:ce:2c:54:
         69:dd:c5:84:0d:88:28:57:8d:8e:ef:c1:a7:c4:6d:ca:11:93:
         a5:03:58:08:79:24:13:12:31:48:8e:b8:89:f8:7d:41:ef:31:
         e3:d6:c3:6d:e2:19:cd:05:71:1c:fa:93:f2:22:8a:be:7e:f2:
         b0:d4:15:7e:96:af:89:2d:fa:d4:6c:cd:3b:e6:9b:37:e9:56:
         59:06:e1:9e:b0:6e:52:00:d6:48:0b:5e:c5:d9:7e:3b:fc:ad:
         8c:48:57:0a:40:73:70:22:d6:43:f1:e1:28:e1:24:69:a5:63:
         32:17:f5:60:b7:5f:fb:d0:9b:fb:f3:6f:b0:02:b8:0b:56:76:
         ec:2e:7f:65:fc:d3:88:b4:5c:6e:47:9a:69:65:8b:1a:4f:b6:
         24:11:b6:3f:e2:aa:75:35:38:dd:41:a6:1d:b9:b9:20:e9:71:
         86:68:2e:b6:03:cc:dc:9c:91:c5:8f:97:63:0f:d1:d2:b0:bb:
         ec:ad:15:29:4f:46:e1:33:5e:76:31:18:52:de:40:95:9f:f2:
         87:02:74:55:5b:b2:0a:cf:2c:c4:c1:55:3f:d2:3b:a4:26:75:
         10:1e:e0:fb:c1:26:20:04:94:d9:86:50:f1:69:c5:d0:aa:c3:
         3d:a1:71:ce:d5:b6:cd:36:1f:47:c0:44:c2:da:37:3d:31:5b:
         d5:19:3d:ed:e7:ad:b8:a8:9d:c9:41:f0:94:fc:07:51:ec:4e:
         b6:f5:32:82:19:c5:8a:05:2a:95:03:ef:b0:a0:9f:40:d5:ef:
         d1:a2:cc:50:e0:47:9e:b5:f7:d9:99:85:60:fc:dd:2c:6c:4f:
         ac:26:9d:b3:d4:53:17:c8:41:01:9a:34:6e:a2:7e:e2:dc:d8:
         9e:98:5a:0e:b7:5f:49:43:64:1f:b3:e4:1e:e3:57:7e:5d:43:
         a7:3b:24:e2:6d:38:41:3e
-----BEGIN CERTIFICATE-----
MIIGRjCCBC6gAwIBAgIRAPaXYnPvzUSkDwSigm+PNRkwDQYJKoZIhvcNAQELBQAw
SDELMAkGA1UEBhMCWFgxEDAOBgNVBAoTB1NvbWUgQ0ExJzAlBgNVBAMTHkZha2Ug
Um9vdCBDQSBmb3IgemxpbnQgdGVzdGluZzAeFw0yNTA2MjEwODU3NDRaFw0zMDA2
MjAwODU3NDRaMHAxCzAJBgNVBAYTAlhYMRMwEQYDVQQIEwpTb21lIFN0YXRlMRYw
FAYDVQQHEw1Tb21lIExvY2FsaXR5MRAwDgYDVQQKEwdTb21lIENBMSIwIAYDVQQD
ExlGYWtlIENBIGZvciB6bGludCB0ZXN0aW5nMIICIjANBgkqhkiG9w0BAQEFAAOC
Ag8AMIICCgKCAgEA5RdM4aMbxgFwk5OJesLpbKZ48jSLbpJTLwa50KOI05Gy9QD7
jBmvHrZfvhOgI1U0LqVRbF6UooxFkjs2VOsv0My7j7OB3PqBAIuXCR7RgK7Qsfmz
0qk9MrCvF3+5CpGQvYIhJhe643BhMstYT96lFw7ST+HtWrFGZfWLEj9J26Ad1Y6V
OjsFV5kTYX42c261y0sHNji8pfGfTTzliwQIN3eZL4wO6OkV5nQAzvXylq9ynDYE
dhB4onq9U22KQ7MI7pRJWf7oM41DELPBvEIwjRD/eCDyqlGX77/KGPp3vj5H76cJ
BNnCmArQvypT7YMqDAZLQEQSRuv6IOYGQ5CeSWCC5JHYVdbfuX/VnvZGXuD52KBE
mcuecVd0YFPo+YVJsoIrjOA5aOgoeCiRgRrnUNU26pg2AQRRQGalIOMDBEPEZXa9
pH8HK1dRlBZtBjJht4LoMI/PIofuWTBLvku1rMTPO2ta5i4B7Fo8VttzhPHtIyid
sZ/WbKO7tlOTt99QSdFwlqyF+ORBa8f1v9HnVFiMgsZ+prIanKC/j/CWCf8zIMDa
rkzcoVs0XCr6YmoJuVRKUU6txuwkHI37Tn+1fswMhMgJPohrCDyycLCb6ZIyxaGN
9OiRQ/z16P/1+sMQme6FZ3ahywcyGZbhgarO80B/vIKyd2IU3LU0sUHm3ssCAwEA
AaOCAQEwgf4wDgYDVR0PAQH/BAQDAgEGMB0GA1UdJQQWMBQGCCsGAQUFBwMCBggr
BgEFBQcDATAPBgNVHRMBAf8EBTADAQH/MB0GA1UdDgQWBBQeLCJuf0bHkM4XNTck
ORHcLp7ZjzAfBgNVHSMEGDAWgBTotvZ2S9A75Ual+VTUfgez3g1gPjA6BggrBgEF
BQcBAQQuMCwwKgYIKwYBBQUHMAGGHmh0dHBzOi8vY2Euc29tZWNhLWluYy5jb20v
b2NzcDARBgNVHSAECjAIMAYGBFUdIAAwLQYDVR0fBCYwJDAioCCgHoYcaHR0cDov
L2NhLnNvbWVjYS1pbmMuY29tL2NybDANBgkqhkiG9w0BAQsFAAOCAgEABMBUw2Q3
AYUGs2EmyHAMopywC9CPyovPUx5+1TvIzJ804imZaboahnCy9yjLoAffuewCY5lw
y17eRuZHncDhMrTDwpUQDepHWoBVX8Sn//nf8J7CCZp1yf4My+eRWs+3HazRdpOT
LjPCf0Bkh6vg4Vzb5vhOt7RMGRkuKioepmGJ0YgEsLmKFrS8xTgAI9NJ7Ulo1fXE
0H3Zb4xgsuWtzixUad3FhA2IKFeNju/Bp8RtyhGTpQNYCHkkExIxSI64ifh9Qe8x
49bDbeIZzQVxHPqT8iKKvn7ysNQVfpaviS361GzNO+abN+lWWQbhnrBuUgDWSAte
xdl+O/ytjEhXCkBzcCLWQ/HhKOEkaaVjMhf1YLdf+9Cb+/NvsAK4C1Z27C5/ZfzT
iLRcbkeaaWWLGk+2JBG2P+KqdTU43UGmHbm5IOlxhmgutgPM3JyRxY+XYw/R0rC7
7K0VKU9G4TNedjEYUt5AlZ/yhwJ0VVuyCs8sxMFVP9I7pCZ1EB7g+8EmIASU2YZQ
8WnF0KrDPaFxztW2zTYfR8BEwto3PTFb1Rk97eetuKidyUHwlPwHUexOtvUyghnF
igUqlQPvsKCfQNXv0aLMUOBHnrX32ZmFYPzdLGxPrCads9RTF8hBAZo0bqJ+4tzY
nphaDrdfSUNkH7PkHuNXfl1Dpzsk4m04QT4=
-----END CERTIFICATE-----
