Certificate:
    Data:
        Version: 3 (0x2)
        Serial Number:
            88:85:13:f5:6f:7e:d1:c7:3f:4f:84:c5:7d:a7:b9:f9
        Signature Algorithm: sha256WithRSAEncryption
        Issuer: C = XX, O = Some CA, CN = Fake Root CA for zlint testing
        Validity
            Not Before: Apr 23 00:00:00 2023 GMT
            Not After : Apr 21 00:00:00 2028 GMT
        Subject: C = XX, ST = Some State, L = Some Locality, O = Some CA, CN = Fake CA for zlint testing
        Subject Public Key Info:
            Public Key Algorithm: rsaEncryption
                RSA Public-Key: (4096 bit)
                Modulus:
                    00:d6:fc:10:38:ce:fb:fc:91:71:86:e5:3a:5b:de:
                    cb:d0:d3:f4:9e:54:86:54:9d:d9:c4:87:b1:fa:f6:
                    92:78:13:a1:eb:21:15:19:24:37:53:e8:18:89:6d:
                    3e:0d:3d:90:f7:26:1e:45:1c:21:1d:c2:db:3c:06:
                    37:15:6f:4b:1d:06:6a:a2:bf:ca:1c:35:6d:0a:65:
                    36:78:d9:e5:13:83:a0:8f:16:de:90:59:ef:1d:7b:
                    57:56:fe:45:81:2c:cf:0c:e0:5f:d6:4f:41:c2:b6:
                    2c:05:f8:6b:3a:d0:18:4f:9d:30:ad:89:d2:47:ce:
                    a5:2c:5f:d7:d5:68:e2:e4:9c:cb:d9:1f:3c:ba:43:
                    fd:93:17:0f:97:9f:91:f7:48:ac:95:9d:e8:5a:3c:
                    45:fa:0d:34:72:db:b2:c2:0f:ea:2e:02:4a:e8:04:
                    c5:e2:17:cf:a4:31:16:61:c5:95:dc:85:c3:11:73:
                    1c:98:8f:42:44:ee:e0:2f:6e:90:ed:b8:67:b0:b8:
                    8d:0d:c2:08:93:7b:e9:3a:da:cb:45:35:9f:5b:04:
                    47:5a:5e:64:28:8c:a0:2f:17:95:20:84:4d:04:fb:
                    54:d9:0c:b0:19:15:c8:20:75:98:1c:7b:c2:0e:bc:
                    85:b1:1c:a1:e1:bb:88:35:de:05:16:54:bc:49:a4:
                    19:b1:ad:8d:a7:85:37:23:5a:33:b5:30:f1:68:6a:
                    78:62:ef:08:4c:91:84:20:6a:a3:d9:22:67:50:9b:
                    07:57:d5:06:c4:9f:ca:34:17:5a:9a:ab:0c:a2:24:
                    03:80:74:26:38:d1:ab:40:22:7b:7c:ca:30:3f:d1:
                    b4:fd:d5:3d:a9:8a:93:14:56:64:b3:23:38:e6:74:
                    a5:b2:b0:27:58:64:5d:0e:a6:6c:d7:a7:19:00:e6:
                    15:22:ae:a9:70:ed:f0:11:45:99:ef:c1:50:32:ad:
                    8a:c9:24:53:52:97:cc:00:8b:7e:f0:bd:73:c5:fb:
                    9a:cc:9a:31:00:53:30:81:b5:93:3a:64:f0:55:55:
                    91:9a:7b:bf:e2:3b:83:f2:b1:ed:ee:e5:57:96:cb:
                    9c:da:d7:ad:18:e3:d1:95:00:c4:0c:b8:15:74:1a:
                    b6:82:5c:7b:9d:9a:91:bc:80:4e:ae:c4:d3:62:a3:
                    1b:a6:1d:4a:51:9d:84:cb:66:1f:8f:60:58:a3:35:
                    b0:31:89:bc:89:6d:ba:40:ee:b7:52:bf:79:dd:47:
                    09:17:44:4f:a3:09:82:83:e9:14:4e:9a:1a:50:d8:
                    d5:00:ab:8e:d6:44:e2:97:f9:d1:cf:cf:ee:cd:13:
                    f9:be:0b:a9:fc:07:f7:0a:fe:97:84:03:a1:b5:3d:
                    08:7c:85
                Exponent: 65537 (0x10001)
        X509v3 extensions:
            X509v3 Key Usage: critical
                Certificate Sign, CRL Sign
            X509v3 Extended Key Usage: 
                TLS Web Client Authentication, TLS Web Server Authentication
            X509v3 Basic Constraints: critical
                CA:TRUE
            X509v3 Subject Key Identifier: 
                EC:35:AA:4C:03:48:59:C6:47:45:2E:27:0D:9B:E8:E7:DF:C8:E1:83
            X509v3 Authority Key Identifier: 
                keyid:E8:B6:F6:76:4B:D0:3B:E5:46:A5:F9:54:D4:7E:07:B3:DE:0D:60:3E

            Authority Information Access: 
                OCSP - URI:https://ca.someca-inc.com/ocsp

            X509v3 Certificate Policies: 
                Policy: X509v3 Any Policy

            X509v3 CRL Distribution Points: 

                Full Name:
                  URI:http://ca.someca-inc.com/crl

    Signature Algorithm: sha256WithRSAEncryption
         3d:41:34:53:ff:24:c2:72:c4:19:40:96:c2:97:d0:63:1a:94:
         4e:93:54:49:1d:a6:4a:0a:d6:56:6d:ed:a4:4f:77:84:74:89:
         6c:45:9c:5c:aa:fd:9a:42:6e:2d:75:61:6b:97:44:90:e8:c7:
         f6:a2:15:21:2b:04:c1:76:47:76:26:1b:c9:2b:a9:61:31:7d:
         4d:eb:18:e0:f2:3b:00:79:7f:40:67:50:17:ba:b2:6b:e7:71:
         55:ae:57:85:9f:fd:2d:7c:12:be:71:0c:78:2a:15:32:8b:7c:
         7b:79:50:7b:35:2a:26:96:00:15:26:f0:98:21:88:f3:c3:42:
         c6:f3:ee:39:6b:71:ab:1f:b5:ad:20:9f:42:44:81:9a:aa:e8:
         a9:78:61:e7:a0:9c:fc:bc:5b:94:16:ad:fb:2d:0d:bf:ee:f1:
         bf:48:6a:c1:9f:82:15:a2:48:42:a0:74:2f:21:6e:ff:c9:d6:
         d2:12:c2:3d:4e:4b:9d:54:e4:c3:fa:65:69:09:dd:bb:90:8e:
         db:2b:ff:d3:f8:25:cd:7e:9f:c3:e1:95:5a:b5:e1:26:26:ee:
         bb:9b:e9:17:74:77:99:14:f1:22:49:ee:eb:a3:49:4b:e9:59:
         27:f1:65:9d:80:f9:67:f6:f5:16:a6:ac:03:54:f0:ae:a7:02:
         22:b6:43:1c:cd:6e:c6:0e:9a:71:00:bb:c7:03:bb:cc:11:50:
         bd:d7:9c:b9:f8:36:1d:bc:71:ba:d2:83:c0:91:29:4c:3a:70:
         a2:49:39:8a:fc:b0:2b:a5:a3:e7:aa:a1:cd:7f:77:e3:1c:41:
         72:fe:e9:dc:aa:d0:3b:99:d4:d4:0b:3b:b3:8a:2d:57:4d:90:
         47:24:32:bb:85:ae:2e:80:ec:e0:9c:4f:f5:05:a3:4a:b1:0f:
         6b:d4:cd:3e:59:59:f5:90:44:b4:e9:6c:19:37:c6:d3:64:0c:
         3a:5d:6d:c5:b9:f7:09:21:2e:7c:5e:e6:68:56:bf:21:67:9f:
         15:fa:95:ba:79:b3:f6:77:c9:4d:5c:ee:dd:2d:cd:ae:e3:7c:
         e7:9b:9c:da:47:b4:47:9d:f6:37:a8:12:1d:10:4a:16:52:21:
         2e:09:42:fe:67:0c:0a:2e:1f:bb:a1:27:0c:f9:d5:1d:e0:78:
         af:e7:38:1f:49:4b:79:56:75:28:52:51:72:ea:41:84:d1:0a:
         c8:18:7a:7e:35:87:80:39:5e:78:bb:f8:6e:bc:30:9e:57:35:
         3e:6d:f8:ce:b9:07:46:b6:58:99:8f:05:78:5b:40:d5:21:e7:
         d1:08:af:88:94:16:d5:25:20:6c:21:a4:4e:1d:d1:a3:11:4c:
         44:61:8b:8d:7d:0d:93:8a
-----BEGIN CERTIFICATE-----
MIIGRjCCBC6gAwIBAgIRAIiFE/VvftHHP0+ExX2nufkwDQYJKoZIhvcNAQELBQAw
SDELMAkGA1UEBhMCWFgxEDAOBgNVBAoTB1NvbWUgQ0ExJzAlBgNVBAMTHkZha2Ug
Um9vdCBDQSBmb3IgemxpbnQgdGVzdGluZzAeFw0yMzA0MjMwMDAwMDBaFw0yODA0
MjEwMDAwMDBaMHAxCzAJBgNVBAYTAlhYMRMwEQYDVQQIEwpTb21lIFN0YXRlMRYw
FAYDVQQHEw1Tb21lIExvY2FsaXR5MRAwDgYDVQQKEwdTb21lIENBMSIwIAYDVQQD
ExlGYWtlIENBIGZvciB6bGludCB0ZXN0aW5nMIICIjANBgkqhkiG9w0BAQEFAAOC
Ag8AMIICCgKCAgEA1vwQOM77/JFxhuU6W97L0NP0nlSGVJ3ZxIex+vaSeBOh6yEV
GSQ3U+gYiW0+DT2Q9yYeRRwhHcLbPAY3FW9LHQZqor/KHDVtCmU2eNnlE4Ogjxbe
kFnvHXtXVv5FgSzPDOBf1k9BwrYsBfhrOtAYT50wrYnSR86lLF/X1Wji5JzL2R88
ukP9kxcPl5+R90islZ3oWjxF+g00ctuywg/qLgJK6ATF4hfPpDEWYcWV3IXDEXMc
mI9CRO7gL26Q7bhnsLiNDcIIk3vpOtrLRTWfWwRHWl5kKIygLxeVIIRNBPtU2Qyw
GRXIIHWYHHvCDryFsRyh4buINd4FFlS8SaQZsa2Np4U3I1oztTDxaGp4Yu8ITJGE
IGqj2SJnUJsHV9UGxJ/KNBdamqsMoiQDgHQmONGrQCJ7fMowP9G0/dU9qYqTFFZk
syM45nSlsrAnWGRdDqZs16cZAOYVIq6pcO3wEUWZ78FQMq2KySRTUpfMAIt+8L1z
xfuazJoxAFMwgbWTOmTwVVWRmnu/4juD8rHt7uVXlsuc2tetGOPRlQDEDLgVdBq2
glx7nZqRvIBOrsTTYqMbph1KUZ2Ey2Yfj2BYozWwMYm8iW26QO63Ur953UcJF0RP
owmCg+kUTpoaUNjVAKuO1kTil/nRz8/uzRP5vgup/Af3Cv6XhAOhtT0IfIUCAwEA
AaOCAQEwgf4wDgYDVR0PAQH/BAQDAgEGMB0GA1UdJQQWMBQGCCsGAQUFBwMCBggr
BgEFBQcDATAPBgNVHRMBAf8EBTADAQH/MB0GA1UdDgQWBBTsNapMA0hZxkdFLicN
m+jn38jhgzAfBgNVHSMEGDAWgBTotvZ2S9A75Ual+VTUfgez3g1gPjA6BggrBgEF
BQcBAQQuMCwwKgYIKwYBBQUHMAGGHmh0dHBzOi8vY2Euc29tZWNhLWluYy5jb20v
b2NzcDARBgNVHSAECjAIMAYGBFUdIAAwLQYDVR0fBCYwJDAioCCgHoYcaHR0cDov
L2NhLnNvbWVjYS1pbmMuY29tL2NybDANBgkqhkiG9w0BAQsFAAOCAgEAPUE0U/8k
wnLEGUCWwpfQYxqUTpNUSR2mSgrWVm3tpE93hHSJbEWcXKr9mkJuLXVha5dEkOjH
9qIVISsEwXZHdiYbySupYTF9TesY4PI7AHl/QGdQF7qya+dxVa5XhZ/9LXwSvnEM
eCoVMot8e3lQezUqJpYAFSbwmCGI88NCxvPuOWtxqx+1rSCfQkSBmqroqXhh56Cc
/LxblBat+y0Nv+7xv0hqwZ+CFaJIQqB0LyFu/8nW0hLCPU5LnVTkw/plaQndu5CO
2yv/0/glzX6fw+GVWrXhJibuu5vpF3R3mRTxIknu66NJS+lZJ/FlnYD5Z/b1Fqas
A1TwrqcCIrZDHM1uxg6acQC7xwO7zBFQvdecufg2HbxxutKDwJEpTDpwokk5ivyw
K6Wj56qhzX934xxBcv7p3KrQO5nU1As7s4otV02QRyQyu4WuLoDs4JxP9QWjSrEP
a9TNPllZ9ZBEtOlsGTfG02QMOl1txbn3CSEufF7maFa/IWefFfqVunmz9nfJTVzu
3S3NruN855uc2ke0R532N6gSHRBKFlIhLglC/mcMCi4fu6EnDPnVHeB4r+c4H0lL
eVZ1KFJRcupBhNEKyBh6fjWHgDleeLv4brwwnlc1Pm34zrkHRrZYmY8FeFtA1SHn
0QiviJQW1SUgbCGkTh3RoxFMRGGLjX0Nk4o=
-----END CERTIFICATE-----
