Certificate:
    Data:
        Version: 3 (0x2)
        Serial Number:
            e4:de:40:b7:32:5b:8c:a2:7a:78:2c:46:43:b5:1d:9b
        Signature Algorithm: sha256WithRSAEncryption
        Issuer: C = IT, O = Some Company SpA, CN = Fake Root CA for zlint testing
        Validity
            Not Before: Jun 26 14:51:05 2021 GMT
            Not After : Jun 27 00:51:05 2031 GMT
        Subject: C = IT, O = Some Company SpA, CN = Fake Subordinate CA for zlint testing
        Subject Public Key Info:
            Public Key Algorithm: rsaEncryption
                RSA Public-Key: (4096 bit)
                Modulus:
                    00:c9:5d:d9:6c:ef:88:36:a2:76:5a:be:70:d8:dc:
                    4b:7b:94:5a:ca:38:69:6e:2c:f7:11:17:2c:6d:77:
                    f6:1f:17:0f:3e:84:fc:4b:45:49:5b:63:4f:90:59:
                    a9:9d:e8:dc:e4:be:2f:4b:b4:82:27:1c:76:54:c5:
                    f5:ef:ff:67:90:ea:74:db:2b:17:1f:56:7f:95:d3:
                    ad:b4:45:3a:0a:75:d4:72:9c:3d:6e:be:2e:44:ad:
                    c7:1e:6b:3f:75:77:c8:50:d1:d5:fc:f2:ef:12:ab:
                    91:15:d7:33:34:e2:70:bd:cb:7b:ee:66:7c:a4:30:
                    51:3b:5c:40:33:96:b1:b6:c8:04:28:0b:e1:75:f5:
                    eb:d3:f3:49:21:85:b3:26:cf:24:4c:8d:95:6e:f3:
                    87:3a:79:af:7b:c8:e0:43:db:94:61:0a:93:91:99:
                    69:93:76:6f:d9:80:60:fe:4d:7d:e4:06:a6:fb:2f:
                    f9:29:27:56:24:cb:78:c8:ee:44:a4:31:75:7e:48:
                    39:a3:ff:96:0f:01:11:b8:c4:05:5b:95:37:d6:d9:
                    63:4d:95:b8:cf:b6:c8:77:9d:8b:65:b8:a4:3b:ab:
                    7e:85:9f:cb:42:99:bb:e3:84:90:b5:dc:88:f6:57:
                    0f:31:52:ff:da:a9:c0:4d:b9:6a:55:33:55:d9:5c:
                    de:f6:c7:fb:d9:fa:85:f4:e5:50:53:a0:42:bb:78:
                    83:da:91:ac:ba:6c:0a:ef:28:fd:23:09:2d:aa:b3:
                    27:83:ea:d7:5b:45:43:20:54:19:89:82:ab:15:4e:
                    11:4b:29:e8:44:df:84:57:89:f3:8a:0d:b2:b3:25:
                    7c:7e:de:8b:39:ac:00:ea:e5:fb:8f:90:76:34:ad:
                    aa:b9:7e:65:4a:2e:af:18:04:86:27:81:9a:6c:3a:
                    7f:14:ba:1f:cd:aa:e3:af:e4:d0:93:31:18:5b:f0:
                    50:59:b5:92:46:ec:9d:d0:39:76:19:70:45:18:8d:
                    ed:bb:99:ae:5a:a9:37:c6:ea:b2:1c:61:e3:37:0b:
                    96:19:10:57:0a:5c:1c:2c:6d:a2:43:99:2c:4c:d2:
                    3d:79:e6:c1:66:5b:2e:eb:13:16:0d:f6:9c:d6:0a:
                    b4:29:c5:38:19:5f:19:10:5f:a9:bf:c1:da:63:40:
                    cd:26:f7:97:4b:fe:75:81:9a:67:96:cf:15:bf:5c:
                    2a:96:00:bf:ed:85:3c:43:a6:9a:34:77:74:84:20:
                    f9:ef:66:6d:50:82:87:10:28:8d:25:82:fc:73:3a:
                    03:93:90:5b:ad:28:f6:dd:e3:d8:c6:ac:54:92:08:
                    bd:e9:c5:8e:45:86:61:0f:58:93:8a:24:49:58:5f:
                    17:e7:2d
                Exponent: 65537 (0x10001)
        X509v3 extensions:
            X509v3 Key Usage: critical
                Certificate Sign, CRL Sign
            X509v3 Extended Key Usage: 
                E-mail Protection, TLS Web Server Authentication
            X509v3 Basic Constraints: critical
                CA:TRUE
            X509v3 Subject Key Identifier: 
                3B:CB:28:37:47:2C:87:40:60:7B:16:0E:C5:08:B9:06:7D:AC:80:D0
            X509v3 Authority Key Identifier: 
                keyid:E8:B6:F6:76:4B:D0:3B:E5:46:A5:F9:54:D4:7E:07:B3:DE:0D:60:3E

            Authority Information Access: 
                OCSP - URI:http://ca.somecompany.it/ocsp
                CA Issuers - URI:http://ca.somecompany.it/root

            X509v3 Certificate Policies: 
                Policy: 1.2.3

            X509v3 CRL Distribution Points: 

                Full Name:
                  URI:http://ca.somecompany.it/crl

    Signature Algorithm: sha256WithRSAEncryption
         21:7f:19:af:6b:8e:ee:32:78:1b:94:8f:66:9e:dc:f3:ce:91:
         6c:7d:9b:11:c9:14:49:60:5c:9e:c0:03:ca:15:47:5b:32:62:
         5e:f3:d8:3d:64:c7:4e:4b:7d:9c:5f:01:52:42:eb:c9:eb:26:
         ce:55:bc:85:0a:b1:21:02:2b:64:62:47:ab:05:1d:ee:97:25:
         b7:8c:6d:57:1b:02:a6:8b:b2:8c:9d:2c:c8:52:8f:d0:de:46:
         5f:f1:ab:43:60:17:15:83:e1:b2:ec:0e:9c:bb:03:48:4b:ed:
         4e:dc:05:44:71:10:67:9a:c0:f2:8c:39:a7:fa:67:d1:20:e4:
         0a:a9:d5:5c:2d:de:b3:2b:50:9a:c3:9b:a3:8a:e3:4d:79:2b:
         ca:e9:b6:42:41:9d:63:17:ea:13:60:f3:9f:6c:d2:9a:cd:1e:
         40:6c:75:cd:8f:3e:35:74:6f:96:69:ee:1a:cb:c7:88:f2:aa:
         71:df:24:91:66:72:aa:d2:ae:c3:df:9a:e7:92:c1:cc:dc:91:
         31:84:75:ba:80:75:cd:c7:c0:09:9e:63:97:d1:5d:29:8c:51:
         ed:db:6a:c1:ec:48:5d:27:aa:4d:63:5b:f2:f5:f0:d5:de:75:
         99:f8:3e:37:8c:5a:32:83:63:b0:f9:ad:30:e5:25:3d:dd:fe:
         d2:bb:c8:80:92:44:24:ee:57:f3:05:0d:92:8a:b9:a6:bf:32:
         67:0d:5e:be:f8:e5:d2:d9:a0:16:f8:ea:9d:25:4e:5d:b6:e4:
         00:12:82:59:32:8e:45:f0:8a:ff:a6:27:b1:98:b7:a9:29:8e:
         d8:c0:77:e2:8c:00:ae:54:5f:42:67:98:94:b0:a1:27:4c:4e:
         4f:df:44:2f:59:f7:26:43:cf:21:98:26:bb:5b:d3:37:55:ec:
         5d:44:e2:60:08:8a:b5:04:08:a0:fb:54:68:6a:9a:19:80:34:
         d3:f5:e1:6a:94:93:c4:4b:34:f0:fe:4c:6b:6b:ef:54:62:8a:
         b4:db:0d:95:76:04:a8:c0:31:ce:dd:07:35:dc:59:bd:92:9c:
         fd:b0:36:ab:f7:d5:f6:a1:0f:b2:16:11:c2:8d:f0:55:18:33:
         a6:67:68:94:e2:b2:a0:7a:11:6c:28:71:57:1b:b0:e0:fe:73:
         a2:4d:24:45:66:d9:a2:f9:6b:ad:10:06:d4:2e:e2:9e:27:b5:
         f9:13:bf:11:fb:45:b4:f8:8c:fe:86:09:de:70:9e:09:bd:c0:
         90:e5:cd:eb:52:a4:40:b0:b8:61:25:0b:25:40:d0:27:f4:43:
         fb:74:45:1d:fd:1d:44:1f:eb:6d:70:28:66:bc:7e:ad:56:36:
         5f:37:1f:cf:76:2e:88:3a
-----BEGIN CERTIFICATE-----
MIIGYDCCBEigAwIBAgIRAOTeQLcyW4yiengsRkO1HZswDQYJKoZIhvcNAQELBQAw
UTELMAkGA1UEBhMCSVQxGTAXBgNVBAoTEFNvbWUgQ29tcGFueSBTcEExJzAlBgNV
BAMTHkZha2UgUm9vdCBDQSBmb3IgemxpbnQgdGVzdGluZzAeFw0yMTA2MjYxNDUx
MDVaFw0zMTA2MjcwMDUxMDVaMFgxCzAJBgNVBAYTAklUMRkwFwYDVQQKExBTb21l
IENvbXBhbnkgU3BBMS4wLAYDVQQDEyVGYWtlIFN1Ym9yZGluYXRlIENBIGZvciB6
bGludCB0ZXN0aW5nMIICIjANBgkqhkiG9w0BAQEFAAOCAg8AMIICCgKCAgEAyV3Z
bO+INqJ2Wr5w2NxLe5Rayjhpbiz3ERcsbXf2HxcPPoT8S0VJW2NPkFmpnejc5L4v
S7SCJxx2VMX17/9nkOp02ysXH1Z/ldOttEU6CnXUcpw9br4uRK3HHms/dXfIUNHV
/PLvEquRFdczNOJwvct77mZ8pDBRO1xAM5axtsgEKAvhdfXr0/NJIYWzJs8kTI2V
bvOHOnmve8jgQ9uUYQqTkZlpk3Zv2YBg/k195Aam+y/5KSdWJMt4yO5EpDF1fkg5
o/+WDwERuMQFW5U31tljTZW4z7bId52LZbikO6t+hZ/LQpm744SQtdyI9lcPMVL/
2qnATblqVTNV2Vze9sf72fqF9OVQU6BCu3iD2pGsumwK7yj9IwktqrMng+rXW0VD
IFQZiYKrFU4RSynoRN+EV4nzig2ysyV8ft6LOawA6uX7j5B2NK2quX5lSi6vGASG
J4GabDp/FLofzarjr+TQkzEYW/BQWbWSRuyd0Dl2GXBFGI3tu5muWqk3xuqyHGHj
NwuWGRBXClwcLG2iQ5ksTNI9eebBZlsu6xMWDfac1gq0KcU4GV8ZEF+pv8HaY0DN
JveXS/51gZpnls8Vv1wqlgC/7YU8Q6aaNHd0hCD572ZtUIKHECiNJYL8czoDk5Bb
rSj23ePYxqxUkgi96cWORYZhD1iTiiRJWF8X5y0CAwEAAaOCASowggEmMA4GA1Ud
DwEB/wQEAwIBBjAdBgNVHSUEFjAUBggrBgEFBQcDBAYIKwYBBQUHAwEwDwYDVR0T
AQH/BAUwAwEB/zAdBgNVHQ4EFgQUO8soN0csh0BgexYOxQi5Bn2sgNAwHwYDVR0j
BBgwFoAU6Lb2dkvQO+VGpflU1H4Hs94NYD4wZAYIKwYBBQUHAQEEWDBWMCkGCCsG
AQUFBzABhh1odHRwOi8vY2Euc29tZWNvbXBhbnkuaXQvb2NzcDApBggrBgEFBQcw
AoYdaHR0cDovL2NhLnNvbWVjb21wYW55Lml0L3Jvb3QwDwYDVR0gBAgwBjAEBgIq
AzAtBgNVHR8EJjAkMCKgIKAehhxodHRwOi8vY2Euc29tZWNvbXBhbnkuaXQvY3Js
MA0GCSqGSIb3DQEBCwUAA4ICAQAhfxmva47uMngblI9mntzzzpFsfZsRyRRJYFye
wAPKFUdbMmJe89g9ZMdOS32cXwFSQuvJ6ybOVbyFCrEhAitkYkerBR3ulyW3jG1X
GwKmi7KMnSzIUo/Q3kZf8atDYBcVg+Gy7A6cuwNIS+1O3AVEcRBnmsDyjDmn+mfR
IOQKqdVcLd6zK1Caw5ujiuNNeSvK6bZCQZ1jF+oTYPOfbNKazR5AbHXNjz41dG+W
ae4ay8eI8qpx3ySRZnKq0q7D35rnksHM3JExhHW6gHXNx8AJnmOX0V0pjFHt22rB
7EhdJ6pNY1vy9fDV3nWZ+D43jFoyg2Ow+a0w5SU93f7Su8iAkkQk7lfzBQ2Sirmm
vzJnDV6++OXS2aAW+OqdJU5dtuQAEoJZMo5F8Ir/piexmLepKY7YwHfijACuVF9C
Z5iUsKEnTE5P30QvWfcmQ88hmCa7W9M3VexdROJgCIq1BAig+1RoapoZgDTT9eFq
lJPESzTw/kxra+9UYoq02w2VdgSowDHO3Qc13Fm9kpz9sDar99X2oQ+yFhHCjfBV
GDOmZ2iU4rKgehFsKHFXG7Dg/nOiTSRFZtmi+WutEAbULuKeJ7X5E78R+0W0+Iz+
hgnecJ4JvcCQ5c3rUqRAsLhhJQslQNAn9EP7dEUd/R1EH+ttcChmvH6tVjZfNx/P
di6IOg==
-----END CERTIFICATE-----
