Certificate:
    Data:
        Version: 3 (0x2)
        Serial Number: 18008675309 (0x4316693ed)
    Signature Algorithm: sha256WithRSAEncryption
        Issuer: C=US, O=Mother Nature, OU=Everything, CN=Mother Nature
        Validity
            Not Before: Aug 23 22:04:32 2017 GMT
            Not After : Nov  4 22:04:32 2017 GMT
        Subject: C=US, ST=FL, L=Tallahassee/street=3210 Holly Mill Run/postalCode=30062, O=Extreme Discord, OU=Chaos, CN=gov.us
        Subject Public Key Info:
            Public Key Algorithm: rsaEncryption
                Public-Key: (2048 bit)
                Modulus:
                    00:bc:a4:fb:bf:3a:88:21:c6:ec:3c:c8:0b:0c:20:
                    10:fd:48:8d:27:8c:31:d5:74:f0:cc:df:c4:cd:cc:
                    a5:85:aa:49:f8:4e:a3:31:f9:0a:36:8f:72:5f:e3:
                    23:6c:74:62:8d:84:e8:86:fa:c3:08:16:02:b2:7a:
                    57:1f:37:89:72:5b:67:00:f1:65:b2:65:7c:6a:e8:
                    c2:39:18:3d:fa:7c:dd:38:fe:79:4f:f1:3b:16:09:
                    db:c6:f8:8f:10:e5:74:e8:0b:0f:5d:b4:c8:66:ca:
                    bd:a7:8b:d9:7e:a1:80:58:41:ff:03:97:50:83:c7:
                    ac:a2:21:5d:5e:36:3f:06:48:48:bb:ba:65:95:dd:
                    7e:e9:33:9c:43:92:be:f8:04:d5:69:37:f2:21:64:
                    b5:45:4a:50:5f:f9:95:c7:2a:67:b3:fd:32:8b:51:
                    a3:23:c3:cd:84:8c:8b:90:c1:90:1f:16:ab:97:30:
                    ab:da:7d:2a:a8:16:20:f5:a2:1e:86:9e:87:af:86:
                    d6:b1:04:94:9e:b3:27:dd:7c:f1:b5:e7:82:c9:20:
                    a8:e3:d5:e7:c4:57:81:69:eb:1a:2e:7c:1e:62:4e:
                    14:3e:ee:cd:7b:10:ca:51:34:19:22:29:57:3f:f7:
                    c7:af:f2:e9:3c:f2:b9:83:32:07:76:4f:09:b5:45:
                    fa:ff
                Exponent: 65537 (0x10001)
        X509v3 extensions:
            X509v3 Key Usage: critical
                Digital Signature, Key Encipherment
            X509v3 Basic Constraints: critical
                CA:TRUE
            X509v3 Authority Key Identifier: 
                keyid:01:02:03

            X509v3 Certificate Policies: 
                Policy: 2.23.140.1.2.2

            Authority Information Access: critical
                OCSP - URI:http://ss.symcd.com
                CA Issuers - URI:http://ss.symcb.com/ss.crt

    Signature Algorithm: sha256WithRSAEncryption
         44:36:0b:a8:2b:48:4b:84:d3:f2:a9:64:72:6b:5f:f9:c9:bb:
         88:c3:53:f0:2a:cd:f5:7c:cb:ae:5a:bd:0f:90:2d:09:50:e2:
         97:8b:85:29:e0:d7:8d:a1:ef:0e:81:69:4a:eb:c0:cf:a2:3a:
         37:13:07:e4:bc:f7:53:f7:11:6e:9f:d1:0a:3c:e5:d8:2a:aa:
         d7:76:79:b2:d8:0f:19:7a:87:c2:41:b0:5f:d3:3e:bf:59:bb:
         84:29:08:cd:c9:37:72:a5:5d:db:62:0a:4b:c1:d1:bd:5d:22:
         01:9f:f1:7c:94:2d:9c:7e:c6:75:0f:69:8a:de:d4:1c:98:5f:
         b4:05:83:29:ee:94:78:26:a6:d4:dd:78:03:e8:70:ce:ba:af:
         f5:bd:46:31:76:22:21:01:dd:67:1e:8c:d1:f4:0a:8b:cb:fa:
         9e:12:83:6d:7d:fd:05:d2:83:0f:ea:d9:ca:ba:66:c5:ea:24:
         0f:53:f5:4b:8e:76:68:69:07:3e:c9:39:bc:19:06:c8:42:53:
         09:84:df:73:5c:3c:a6:da:50:1e:2f:cd:47:32:97:d4:e5:d2:
         1f:89:af:5c:d7:1f:f0:43:93:25:d6:64:f8:39:e2:7e:61:be:
         92:74:ae:de:e2:45:24:e2:24:59:22:01:c1:a3:7e:0e:a2:77:
         af:6f:05:a4
-----BEGIN CERTIFICATE-----
MIIEETCCAvmgAwIBAgIFBDFmk+0wDQYJKoZIhvcNAQELBQAwUjELMAkGA1UEBhMC
VVMxFjAUBgNVBAoTDU1vdGhlciBOYXR1cmUxEzARBgNVBAsTCkV2ZXJ5dGhpbmcx
FjAUBgNVBAMTDU1vdGhlciBOYXR1cmUwHhcNMTcwODIzMjIwNDMyWhcNMTcxMTA0
MjIwNDMyWjCBmTELMAkGA1UEBhMCVVMxCzAJBgNVBAgTAkZMMRQwEgYDVQQHEwtU
YWxsYWhhc3NlZTEcMBoGA1UECRMTMzIxMCBIb2xseSBNaWxsIFJ1bjEOMAwGA1UE
ERMFMzAwNjIxGDAWBgNVBAoTD0V4dHJlbWUgRGlzY29yZDEOMAwGA1UECxMFQ2hh
b3MxDzANBgNVBAMTBmdvdi51czCCASIwDQYJKoZIhvcNAQEBBQADggEPADCCAQoC
ggEBALyk+786iCHG7DzICwwgEP1IjSeMMdV08MzfxM3MpYWqSfhOozH5CjaPcl/j
I2x0Yo2E6Ib6wwgWArJ6Vx83iXJbZwDxZbJlfGrowjkYPfp83Tj+eU/xOxYJ28b4
jxDldOgLD120yGbKvaeL2X6hgFhB/wOXUIPHrKIhXV42PwZISLu6ZZXdfukznEOS
vvgE1Wk38iFktUVKUF/5lccqZ7P9MotRoyPDzYSMi5DBkB8Wq5cwq9p9KqgWIPWi
Hoaeh6+G1rEElJ6zJ9188bXngskgqOPV58RXgWnrGi58HmJOFD7uzXsQylE0GSIp
Vz/3x6/y6TzyuYMyB3ZPCbVF+v8CAwEAAaOBpTCBojAOBgNVHQ8BAf8EBAMCBaAw
DwYDVR0TAQH/BAUwAwEB/zAOBgNVHSMEBzAFgAMBAgMwEwYDVR0gBAwwCjAIBgZn
gQwBAgIwWgYIKwYBBQUHAQEBAf8ESzBJMB8GCCsGAQUFBzABhhNodHRwOi8vc3Mu
c3ltY2QuY29tMCYGCCsGAQUFBzAChhpodHRwOi8vc3Muc3ltY2IuY29tL3NzLmNy
dDANBgkqhkiG9w0BAQsFAAOCAQEARDYLqCtIS4TT8qlkcmtf+cm7iMNT8CrN9XzL
rlq9D5AtCVDil4uFKeDXjaHvDoFpSuvAz6I6NxMH5Lz3U/cRbp/RCjzl2Cqq13Z5
stgPGXqHwkGwX9M+v1m7hCkIzck3cqVd22IKS8HRvV0iAZ/xfJQtnH7GdQ9pit7U
HJhftAWDKe6UeCam1N14A+hwzrqv9b1GMXYiIQHdZx6M0fQKi8v6nhKDbX39BdKD
D+rZyrpmxeokD1P1S452aGkHPsk5vBkGyEJTCYTfc1w8ptpQHi/NRzKX1OXSH4mv
XNcf8EOTJdZk+DnifmG+knSu3uJFJOIkWSIBwaN+DqJ3r28FpA==
-----END CERTIFICATE-----
