Certificate:
    Data:
        Version: 3 (0x2)
        Serial Number: 3 (0x3)
        Signature Algorithm: ecdsa-with-SHA256
        Issuer:
        Validity
            Not Before: Sep 15 12:00:00 2023 GMT
            Not After : Sep 15 12:00:00 2024 GMT
        Subject:
        Subject Public Key Info:
            Public Key Algorithm: id-ecPublicKey
                Public-Key: (256 bit)
                pub:
                    04:dc:6a:77:08:a6:fb:8d:f4:ef:32:79:42:ed:26:
                    85:93:77:a8:55:43:4e:83:24:21:08:08:d6:a3:c5:
                    a2:3d:dc:99:4f:5f:d1:24:57:3a:b9:ca:38:5f:0e:
                    19:06:14:15:ae:e7:b2:9f:11:a1:1e:f3:30:65:ae:
                    ad:de:25:0d:20
                ASN1 OID: prime256v1
                NIST CURVE: P-256
        X509v3 extensions:
            X509v3 Extended Key Usage:
                TLS Web Server Authentication, 1.2.3.4.5.6.7.8.9
    Signature Algorithm: ecdsa-with-SHA256
    Signature Value:
        30:44:02:20:53:6f:cb:e7:46:a0:d3:b4:1b:d5:4e:26:33:d1:
        8d:05:c0:6b:a9:e2:f2:f2:49:e9:2f:a0:b2:94:d6:27:83:ef:
        02:20:57:20:c7:04:ef:32:b1:38:86:4e:d2:94:ff:f2:11:14:
        2e:dd:33:6c:da:3a:a0:c7:56:93:d8:73:9d:1b:9c:f3
-----BEGIN CERTIFICATE-----
MIIBDjCBtqADAgECAgEDMAoGCCqGSM49BAMCMAAwHhcNMjMwOTE1MTIwMDAwWhcN
MjQwOTE1MTIwMDAwWjAAMFkwEwYHKoZIzj0CAQYIKoZIzj0DAQcDQgAE3Gp3CKb7
jfTvMnlC7SaFk3eoVUNOgyQhCAjWo8WiPdyZT1/RJFc6uco4Xw4ZBhQVrueynxGh
HvMwZa6t3iUNIKMhMB8wHQYDVR0lBBYwFAYIKwYBBQUHAwEGCCoDBAUGBwgJMAoG
CCqGSM49BAMCA0cAMEQCIFNvy+dGoNO0G9VOJjPRjQXAa6ni8vJJ6S+gspTWJ4Pv
AiBXIMcE7zKxOIZO0pT/8hEULt0zbNo6oMdWk9hznRuc8w==
-----END CERTIFICATE-----