Certificate:
    Data:
        Version: 3 (0x2)
        Serial Number: 3 (0x3)
        Signature Algorithm: ecdsa-with-SHA256
        Issuer:
        Validity
            Not Before: Sep 15 12:00:00 2023 GMT
            Not After : Sep 15 12:00:00 2024 GMT
        Subject:
        Subject Public Key Info:
            Public Key Algorithm: id-ecPublicKey
                Public-Key: (256 bit)
                pub:
                    04:02:25:25:0c:0d:7d:04:c1:30:d2:e7:91:73:20:
                    3c:e5:d3:eb:cb:20:44:94:fc:6c:8b:66:f5:8f:c5:
                    80:81:9e:0a:f5:63:98:9c:3b:90:bc:b9:06:b2:fa:
                    59:0c:3f:d6:24:b9:6b:70:cb:34:c7:c7:84:0d:90:
                    24:66:07:a1:54
                ASN1 OID: prime256v1
                NIST CURVE: P-256
        X509v3 extensions:
            X509v3 Extended Key Usage:
                TLS Web Server Authentication
    Signature Algorithm: ecdsa-with-SHA256
    Signature Value:
        30:44:02:20:71:fe:58:b0:cd:6f:5f:25:9f:16:d0:14:0d:f8:
        6e:e7:16:a0:83:d5:ad:a1:d7:c3:2a:00:af:eb:a0:33:c1:92:
        02:20:44:c7:39:54:49:bb:2e:f7:2c:7d:06:a9:d3:26:0a:03:
        7b:68:c7:6d:93:55:5e:da:7e:38:7e:cf:fd:14:b5:1e
-----BEGIN CERTIFICATE-----
MIIBBDCBrKADAgECAgEDMAoGCCqGSM49BAMCMAAwHhcNMjMwOTE1MTIwMDAwWhcN
MjQwOTE1MTIwMDAwWjAAMFkwEwYHKoZIzj0CAQYIKoZIzj0DAQcDQgAEAiUlDA19
BMEw0ueRcyA85dPryyBElPxsi2b1j8WAgZ4K9WOYnDuQvLkGsvpZDD/WJLlrcMs0
x8eEDZAkZgehVKMXMBUwEwYDVR0lBAwwCgYIKwYBBQUHAwEwCgYIKoZIzj0EAwID
RwAwRAIgcf5YsM1vXyWfFtAUDfhu5xagg9WtodfDKgCv66AzwZICIETHOVRJuy73
LH0GqdMmCgN7aMdtk1Ve2n44fs/9FLUe
-----END CERTIFICATE-----