Certificate:
    Data:
        Version: 3 (0x2)
        Serial Number: 14615016 (0xdf01e8)
    Signature Algorithm: sha256WithRSAEncryption
        Issuer: C = US, O = Mother Nature, OU = Everything, CN = Mother Nature
        Validity
            Not Before: Jul 11 20:15:44 2016 GMT
            Not After : Sep 23 20:15:44 2016 GMT
        Subject: C = US, ST = FL, L = Tallahassee, street = 3210 Holly Mill Run, postalCode = 30062, O = Extreme Discord, OU = Chaos, CN = gov.us
        Subject Public Key Info:
            Public Key Algorithm: id-ecPublicKey
                Public-Key: (224 bit)
                pub:
                    04:5f:a4:7c:cd:d6:f9:26:92:21:4e:69:06:bf:ae:
                    53:7d:bc:a5:54:05:11:7f:aa:c7:28:e1:3d:b2:d0:
                    80:c8:7c:0f:f3:0e:17:79:1d:11:71:d2:a0:e9:78:
                    96:37:6f:b8:9e:67:46:f7:65:5e:32:07
                ASN1 OID: secp224r1
                NIST CURVE: P-224
        X509v3 extensions:
            X509v3 Extended Key Usage: 
                TLS Web Client Authentication, TLS Web Server Authentication, E-mail Protection
            X509v3 Basic Constraints: critical
                CA:FALSE
            X509v3 Authority Key Identifier: 
                keyid:01:02:03

            X509v3 Subject Key Identifier: 
                04:03:02:01
            X509v3 Subject Alternative Name: 
                DNS:*.gov.us, DNS:gov.us
            X509v3 Key Usage: 
                Data Encipherment, Key Agreement
    Signature Algorithm: sha256WithRSAEncryption
         25:06:f2:6c:ab:44:82:7e:14:90:9f:2d:35:53:c1:f1:15:ae:
         45:62:5b:66:3b:04:49:b6:1b:e5:fe:bc:f7:9b:4a:70:52:93:
         ed:46:45:28:86:33:70:be:75:18:4b:43:e3:31:46:2f:9e:f2:
         42:d1:35:2b:50:be:2a:57:65:b4:a4:81:a3:85:15:b9:07:0e:
         d9:59:98:7f:61:30:97:c8:ab:5d:24:bf:3a:71:81:89:12:77:
         eb:9d:f6:8b:38:cb:58:2f:2a:4e:89:7e:58:0d:90:35:d8:aa:
         19:8c:a4:07:81:28:b6:f2:19:b9:de:64:50:6d:d8:df:0f:4f:
         9a:c0:3a:fa:5f:eb:53:de:c2:48:3b:2f:f6:10:ca:2c:02:5f:
         c3:14:2e:9d:af:49:92:40:19:3a:77:a4:fc:10:29:75:e2:e6:
         b7:8d:4a:b3:0c:36:39:9a:38:10:1b:15:7a:ec:25:f5:bf:95:
         6a:4e:e9:f2:ad:4c:bf:33:03:06:4f:8a:b5:df:3a:05:52:d0:
         68:c6:c1:31:fa:cb:20:d3:9f:9d:54:99:29:a8:e1:69:a3:a1:
         34:f7:bd:45:ee:2e:fe:e2:25:f5:27:88:e9:21:c2:78:cd:e7:
         0e:77:c6:1b:3b:5c:79:11:28:52:fe:80:9c:c5:34:20:bc:bf:
         ef:4a:36:cf
-----BEGIN CERTIFICATE-----
MIIDGDCCAgCgAwIBAgIEAN8B6DANBgkqhkiG9w0BAQsFADBSMQswCQYDVQQGEwJV
UzEWMBQGA1UEChMNTW90aGVyIE5hdHVyZTETMBEGA1UECxMKRXZlcnl0aGluZzEW
MBQGA1UEAxMNTW90aGVyIE5hdHVyZTAeFw0xNjA3MTEyMDE1NDRaFw0xNjA5MjMy
MDE1NDRaMIGZMQswCQYDVQQGEwJVUzELMAkGA1UECBMCRkwxFDASBgNVBAcTC1Rh
bGxhaGFzc2VlMRwwGgYDVQQJExMzMjEwIEhvbGx5IE1pbGwgUnVuMQ4wDAYDVQQR
EwUzMDA2MjEYMBYGA1UEChMPRXh0cmVtZSBEaXNjb3JkMQ4wDAYDVQQLEwVDaGFv
czEPMA0GA1UEAxMGZ292LnVzME4wEAYHKoZIzj0CAQYFK4EEACEDOgAEX6R8zdb5
JpIhTmkGv65TfbylVAURf6rHKOE9stCAyHwP8w4XeR0RcdKg6XiWN2+4nmdG92Ve
MgejgYMwgYAwJwYDVR0lBCAwHgYIKwYBBQUHAwIGCCsGAQUFBwMBBggrBgEFBQcD
BDAMBgNVHRMBAf8EAjAAMA4GA1UdIwQHMAWAAwECAzANBgNVHQ4EBgQEBAMCATAb
BgNVHREEFDASgggqLmdvdi51c4IGZ292LnVzMAsGA1UdDwQEAwIBGDANBgkqhkiG
9w0BAQsFAAOCAQEAJQbybKtEgn4UkJ8tNVPB8RWuRWJbZjsESbYb5f6895tKcFKT
7UZFKIYzcL51GEtD4zFGL57yQtE1K1C+KldltKSBo4UVuQcO2VmYf2Ewl8irXSS/
OnGBiRJ36532izjLWC8qTol+WA2QNdiqGYykB4EotvIZud5kUG3Y3w9PmsA6+l/r
U97CSDsv9hDKLAJfwxQuna9JkkAZOnek/BApdeLmt41Ksww2OZo4EBsVeuwl9b+V
ak7p8q1MvzMDBk+Ktd86BVLQaMbBMfrLINOfnVSZKajhaaOhNPe9Re4u/uIl9SeI
6SHCeM3nDnfGGztceREoUv6AnMU0ILy/70o2zw==
-----END CERTIFICATE-----
