Certificate:
    Data:
        Version: 3 (0x2)
        Serial Number: 3 (0x3)
        Signature Algorithm: ecdsa-with-SHA256
        Issuer:
        Validity
            Not Before: Sep 15 12:00:00 2023 GMT
            Not After : Sep 15 12:00:00 2024 GMT
        Subject:
        Subject Public Key Info:
            Public Key Algorithm: id-ecPublicKey
                Public-Key: (256 bit)
                pub:
                    04:f1:d5:c1:b1:f9:0f:63:d7:c2:ba:83:a3:c6:b7:
                    fb:cf:07:bb:c7:33:03:61:4d:13:0f:45:46:8d:47:
                    7f:41:ce:8f:9f:1f:85:37:ee:ff:30:00:37:3c:53:
                    8b:60:aa:38:48:a8:5c:ca:c7:0c:78:12:f4:2e:ca:
                    62:d8:f7:6c:b5
                ASN1 OID: prime256v1
                NIST CURVE: P-256
        X509v3 extensions:
            X509v3 Extended Key Usage:
                TLS Web Server Authentication, TLS Web Client Authentication
    Signature Algorithm: ecdsa-with-SHA256
    Signature Value:
        30:45:02:20:79:05:6d:37:0a:db:85:a5:6f:54:68:1d:37:50:
        33:ce:4a:97:d6:59:77:d3:98:1b:df:89:43:f9:02:d8:e2:91:
        02:21:00:83:cd:55:a0:54:f1:88:be:71:23:96:7b:4c:38:6a:
        d6:14:2c:dc:e0:75:e8:51:c3:bd:bc:09:74:63:5e:3d:7b
-----BEGIN CERTIFICATE-----
MIIBDzCBtqADAgECAgEDMAoGCCqGSM49BAMCMAAwHhcNMjMwOTE1MTIwMDAwWhcN
MjQwOTE1MTIwMDAwWjAAMFkwEwYHKoZIzj0CAQYIKoZIzj0DAQcDQgAE8dXBsfkP
Y9fCuoOjxrf7zwe7xzMDYU0TD0VGjUd/Qc6Pnx+FN+7/MAA3PFOLYKo4SKhcyscM
eBL0Lspi2PdstaMhMB8wHQYDVR0lBBYwFAYIKwYBBQUHAwEGCCsGAQUFBwMCMAoG
CCqGSM49BAMCA0gAMEUCIHkFbTcK24Wlb1RoHTdQM85Kl9ZZd9OYG9+JQ/kC2OKR
AiEAg81VoFTxiL5xI5Z7TDhq1hQs3OB16FHDvbwJdGNePXs=
-----END CERTIFICATE-----