Certificate:
    Data:
        Version: 3 (0x2)
        Serial Number: 3 (0x3)
        Signature Algorithm: ecdsa-with-SHA256
        Issuer:
        Validity
            Not Before: Sep 15 12:00:00 2023 GMT
            Not After : Sep 15 12:00:00 2024 GMT
        Subject:
        Subject Public Key Info:
            Public Key Algorithm: id-ecPublicKey
                Public-Key: (256 bit)
                pub:
                    04:04:3b:ca:38:58:01:84:3c:49:f1:45:a8:b6:02:
                    18:00:dc:f3:3d:78:2b:d0:ff:3d:16:62:07:4d:2e:
                    63:e0:92:0b:45:fc:f8:90:90:ce:bf:b6:db:ba:60:
                    e5:d2:fb:b0:f7:d1:39:18:7a:40:a9:7d:e3:22:ac:
                    ef:e9:f6:70:4c
                ASN1 OID: prime256v1
                NIST CURVE: P-256
        X509v3 extensions:
            X509v3 Extended Key Usage:
                TLS Web Client Authentication
            X509v3 Certificate Policies:
                Policy: 2.23.140.1.2.1
    Signature Algorithm: ecdsa-with-SHA256
    Signature Value:
        30:44:02:20:25:79:7b:74:45:0d:29:f9:24:f0:81:4d:03:e4:
        e0:b6:01:19:31:ee:dc:81:e6:bb:2a:88:91:ae:cd:d5:8e:5a:
        02:20:03:2f:9a:da:62:e6:d4:8f:96:99:f4:ea:22:0d:23:e0:
        a4:9b:eb:42:08:9f:47:ff:50:ba:e7:f1:e7:9f:15:39
-----BEGIN CERTIFICATE-----
MIIBGTCBwaADAgECAgEDMAoGCCqGSM49BAMCMAAwHhcNMjMwOTE1MTIwMDAwWhcN
MjQwOTE1MTIwMDAwWjAAMFkwEwYHKoZIzj0CAQYIKoZIzj0DAQcDQgAEBDvKOFgB
hDxJ8UWotgIYANzzPXgr0P89FmIHTS5j4JILRfz4kJDOv7bbumDl0vuw99E5GHpA
qX3jIqzv6fZwTKMsMCowEwYDVR0lBAwwCgYIKwYBBQUHAwIwEwYDVR0gBAwwCjAI
BgZngQwBAgEwCgYIKoZIzj0EAwIDRwAwRAIgJXl7dEUNKfkk8IFNA+TgtgEZMe7c
gea7KoiRrs3VjloCIAMvmtpi5tSPlpn06iINI+Ckm+tCCJ9H/1C65/HnnxU5
-----END CERTIFICATE-----