Certificate:
    Data:
        Version: 3 (0x2)
        Serial Number: 3 (0x3)
        Signature Algorithm: ecdsa-with-SHA256
        Issuer:
        Validity
            Not Before: Sep 15 12:00:00 2023 GMT
            Not After : Sep 15 12:00:00 2024 GMT
        Subject:
        Subject Public Key Info:
            Public Key Algorithm: id-ecPublicKey
                Public-Key: (256 bit)
                pub:
                    04:3d:7b:20:95:ed:81:70:b3:ac:cb:c7:df:97:11:
                    c3:54:ce:c8:a2:1e:41:8f:95:31:d6:cc:a0:7b:52:
                    31:ca:5f:62:b3:d3:cc:23:d3:db:e2:4b:6a:20:30:
                    18:60:84:e8:9d:d0:cf:f7:b5:7a:30:96:62:11:6d:
                    8b:f8:41:9e:9e
                ASN1 OID: prime256v1
                NIST CURVE: P-256
        X509v3 extensions:
            X509v3 Extended Key Usage:
                TLS Web Server Authentication, CT Precertificate Signer
    Signature Algorithm: ecdsa-with-SHA256
    Signature Value:
        30:46:02:21:00:a6:72:ed:5b:9a:ea:ff:63:9a:2b:36:c2:f9:
        e5:24:a8:2a:d8:4e:6f:b2:47:0c:8d:0c:ec:41:15:f4:5d:96:
        e0:02:21:00:d0:02:c2:da:af:40:5f:cb:71:25:50:e3:2e:eb:
        d9:00:50:ad:67:64:99:f2:2f:24:5c:9f:05:84:6b:df:47:7c
-----BEGIN CERTIFICATE-----
MIIBEjCBuKADAgECAgEDMAoGCCqGSM49BAMCMAAwHhcNMjMwOTE1MTIwMDAwWhcN
MjQwOTE1MTIwMDAwWjAAMFkwEwYHKoZIzj0CAQYIKoZIzj0DAQcDQgAEPXsgle2B
cLOsy8fflxHDVM7Ioh5Bj5Ux1syge1Ixyl9is9PMI9Pb4ktqIDAYYITondDP97V6
MJZiEW2L+EGenqMjMCEwHwYDVR0lBBgwFgYIKwYBBQUHAwEGCisGAQQB1nkCBAQw
CgYIKoZIzj0EAwIDSQAwRgIhAKZy7Vua6v9jmis2wvnlJKgq2E5vskcMjQzsQRX0
XZbgAiEA0ALC2q9AX8txJVDjLuvZAFCtZ2SZ8i8kXJ8FhGvfR3w=
-----END CERTIFICATE-----