Certificate:
    Data:
        Version: 3 (0x2)
        Serial Number: 3 (0x3)
        Signature Algorithm: ecdsa-with-SHA256
        Issuer:
        Validity
            Not Before: Sep 15 12:00:00 2023 GMT
            Not After : Sep 15 12:00:00 2024 GMT
        Subject:
        Subject Public Key Info:
            Public Key Algorithm: id-ecPublicKey
                Public-Key: (256 bit)
                pub:
                    04:74:62:e0:75:bb:1c:6b:a5:13:67:14:fd:f2:e6:
                    72:15:31:e7:b3:09:89:a9:d9:33:d4:13:e9:44:90:
                    71:d1:64:8d:02:d6:8a:e6:07:f8:7a:67:49:e7:92:
                    90:95:ee:a8:a8:30:38:7a:fa:4c:c7:12:0a:eb:fd:
                    4e:49:e0:7e:27
                ASN1 OID: prime256v1
                NIST CURVE: P-256
        X509v3 extensions:
            X509v3 Extended Key Usage:
                TLS Web Server Authentication, Time Stamping
    Signature Algorithm: ecdsa-with-SHA256
    Signature Value:
        30:45:02:20:62:b8:36:87:dc:aa:85:c6:f6:ae:86:04:ab:4b:
        46:58:9c:ae:84:57:bd:3f:45:94:e3:3f:9d:17:56:d1:18:5c:
        02:21:00:bc:c0:72:12:39:c7:47:07:75:7b:25:88:a4:6d:6c:
        af:ce:6e:a4:32:3b:6c:58:04:cb:1a:f5:6b:85:dd:69:c7
-----BEGIN CERTIFICATE-----
MIIBDzCBtqADAgECAgEDMAoGCCqGSM49BAMCMAAwHhcNMjMwOTE1MTIwMDAwWhcN
MjQwOTE1MTIwMDAwWjAAMFkwEwYHKoZIzj0CAQYIKoZIzj0DAQcDQgAEdGLgdbsc
a6UTZxT98uZyFTHnswmJqdkz1BPpRJBx0WSNAtaK5gf4emdJ55KQle6oqDA4evpM
xxIK6/1OSeB+J6MhMB8wHQYDVR0lBBYwFAYIKwYBBQUHAwEGCCsGAQUFBwMIMAoG
CCqGSM49BAMCA0gAMEUCIGK4NofcqoXG9q6GBKtLRlicroRXvT9FlOM/nRdW0Rhc
AiEAvMByEjnHRwd1eyWIpG1sr85upDI7bFgEyxr1a4Xdacc=
-----END CERTIFICATE-----