Certificate:
    Data:
        Version: 3 (0x2)
        Serial Number: 14615016 (0xdf01e8)
    Signature Algorithm: sha256WithRSAEncryption
        Issuer: C = US, O = Mother Nature, OU = Everything, CN = Mother Nature
        Validity
            Not Before: Jul 11 20:16:39 2016 GMT
            Not After : Sep 23 20:16:39 2016 GMT
        Subject: C = US, ST = FL, L = Tallahassee, street = 3210 Holly Mill Run, postalCode = 30062, O = Extreme Discord, OU = Chaos, CN = gov.us
        Subject Public Key Info:
            Public Key Algorithm: id-ecPublicKey
                Public-Key: (224 bit)
                pub:
                    04:fd:03:cb:e5:c1:fe:b3:bd:79:c4:c1:16:ca:5b:
                    86:52:c1:77:1e:9b:d6:a3:c7:00:d5:a7:fa:f0:49:
                    51:ba:4d:11:e9:b4:7d:18:93:7a:5d:1a:0d:fc:e4:
                    24:3b:ab:c8:e3:33:bf:45:f5:1d:7c:ab
                ASN1 OID: secp224r1
                NIST CURVE: P-224
        X509v3 extensions:
            X509v3 Extended Key Usage: 
                Code Signing
            X509v3 Basic Constraints: critical
                CA:FALSE
            X509v3 Authority Key Identifier: 
                keyid:01:02:03

            X509v3 Subject Key Identifier: 
                04:03:02:01
            X509v3 Subject Alternative Name: 
                DNS:*.gov.us, DNS:gov.us
            X509v3 Key Usage: 
                Data Encipherment, Key Agreement
    Signature Algorithm: sha256WithRSAEncryption
         83:61:e5:35:70:aa:bb:f1:c4:ec:42:9d:71:fc:55:e2:23:ca:
         77:74:93:a7:b6:56:5f:7e:67:2a:d9:27:7e:08:c6:9c:7e:d2:
         09:55:fb:ea:06:7f:12:21:f1:8f:71:ef:ba:7a:b4:5e:84:bd:
         cd:20:ac:a7:38:83:66:08:b6:f8:b4:0f:a6:c3:3c:9c:a5:c2:
         12:df:e7:1d:10:3d:72:02:11:5e:6e:1c:24:2b:79:23:f7:49:
         8e:a4:df:3d:57:2b:bd:2d:78:cf:7f:fe:ab:4b:9b:8c:9d:4c:
         c9:c7:0a:47:6e:20:a3:56:9d:7f:23:dc:42:a3:bb:b5:2e:5c:
         83:6b:d7:66:7c:93:04:b1:ff:98:c0:52:36:74:06:b6:ca:85:
         a2:2c:2e:99:17:46:d0:df:4c:34:16:ec:c4:8a:68:20:f8:12:
         92:21:be:8d:4a:5f:11:6c:db:fb:30:76:f3:1a:ce:dc:d0:f1:
         dd:e0:14:8d:38:1d:79:e7:1f:ea:07:a8:4d:b8:af:ec:6c:73:
         d5:b9:3d:d7:35:49:47:87:95:d9:84:27:75:8b:5b:75:dd:af:
         48:ec:76:91:f3:39:a5:29:19:0f:d2:09:ca:a5:9c:8b:7b:ca:
         98:7a:24:25:a0:90:11:22:da:c3:60:46:b7:58:ad:fd:b5:09:
         cb:e2:92:fb
-----BEGIN CERTIFICATE-----
MIIDAjCCAeqgAwIBAgIEAN8B6DANBgkqhkiG9w0BAQsFADBSMQswCQYDVQQGEwJV
UzEWMBQGA1UEChMNTW90aGVyIE5hdHVyZTETMBEGA1UECxMKRXZlcnl0aGluZzEW
MBQGA1UEAxMNTW90aGVyIE5hdHVyZTAeFw0xNjA3MTEyMDE2MzlaFw0xNjA5MjMy
MDE2MzlaMIGZMQswCQYDVQQGEwJVUzELMAkGA1UECBMCRkwxFDASBgNVBAcTC1Rh
bGxhaGFzc2VlMRwwGgYDVQQJExMzMjEwIEhvbGx5IE1pbGwgUnVuMQ4wDAYDVQQR
EwUzMDA2MjEYMBYGA1UEChMPRXh0cmVtZSBEaXNjb3JkMQ4wDAYDVQQLEwVDaGFv
czEPMA0GA1UEAxMGZ292LnVzME4wEAYHKoZIzj0CAQYFK4EEACEDOgAE/QPL5cH+
s715xMEWyluGUsF3HpvWo8cA1af68ElRuk0R6bR9GJN6XRoN/OQkO6vI4zO/RfUd
fKujbjBsMBMGA1UdJQQMMAoGCCsGAQUFBwMDMAwGA1UdEwEB/wQCMAAwDgYDVR0j
BAcwBYADAQIDMA0GA1UdDgQGBAQEAwIBMBsGA1UdEQQUMBKCCCouZ292LnVzggZn
b3YudXMwCwYDVR0PBAQDAgEYMA0GCSqGSIb3DQEBCwUAA4IBAQCDYeU1cKq78cTs
Qp1x/FXiI8p3dJOntlZffmcq2Sd+CMacftIJVfvqBn8SIfGPce+6erRehL3NIKyn
OINmCLb4tA+mwzycpcIS3+cdED1yAhFebhwkK3kj90mOpN89Vyu9LXjPf/6rS5uM
nUzJxwpHbiCjVp1/I9xCo7u1LlyDa9dmfJMEsf+YwFI2dAa2yoWiLC6ZF0bQ30w0
FuzEimgg+BKSIb6NSl8RbNv7MHbzGs7c0PHd4BSNOB155x/qB6hNuK/sbHPVuT3X
NUlHh5XZhCd1i1t13a9I7HaR8zmlKRkP0gnKpZyLe8qYeiQloJARItrDYEa3WK39
tQnL4pL7
-----END CERTIFICATE-----
