Certificate:
    Data:
        Version: 3 (0x2)
        Serial Number: 3 (0x3)
        Signature Algorithm: ecdsa-with-SHA256
        Issuer:
        Validity
            Not Before: Sep 15 12:00:00 2021 GMT
            Not After : Sep 15 12:00:00 2022 GMT
        Subject:
        Subject Public Key Info:
            Public Key Algorithm: id-ecPublicKey
                Public-Key: (256 bit)
                pub:
                    04:9f:35:d5:be:59:9a:3f:da:a9:43:64:45:37:85:
                    6c:c2:71:2b:4f:49:21:d6:b0:b8:79:c8:54:48:d6:
                    41:50:e3:3c:d6:2d:69:8a:c9:a1:95:c3:32:50:3c:
                    63:d1:72:05:01:79:b7:cd:be:ea:29:d5:06:6a:31:
                    5b:82:2d:e9:4b
                ASN1 OID: prime256v1
                NIST CURVE: P-256
        X509v3 extensions:
            X509v3 Extended Key Usage:
                TLS Web Client Authentication
            X509v3 Certificate Policies:
                Policy: 2.23.140.1.2.1
    Signature Algorithm: ecdsa-with-SHA256
    Signature Value:
        30:45:02:21:00:b2:f6:57:3c:fe:4b:32:52:2d:33:44:61:50:
        4b:0e:e7:0c:62:1e:d7:25:e3:e2:68:ff:a2:fc:0b:b4:a7:fa:
        99:02:20:4a:63:d3:ea:6d:dd:eb:e4:45:71:ea:91:e2:28:9b:
        85:86:8e:3c:ce:8a:e1:4f:ac:ab:48:87:da:86:b6:f0:f2
-----BEGIN CERTIFICATE-----
MIIBGjCBwaADAgECAgEDMAoGCCqGSM49BAMCMAAwHhcNMjEwOTE1MTIwMDAwWhcN
MjIwOTE1MTIwMDAwWjAAMFkwEwYHKoZIzj0CAQYIKoZIzj0DAQcDQgAEnzXVvlma
P9qpQ2RFN4VswnErT0kh1rC4echUSNZBUOM81i1pismhlcMyUDxj0XIFAXm3zb7q
KdUGajFbgi3pS6MsMCowEwYDVR0lBAwwCgYIKwYBBQUHAwIwEwYDVR0gBAwwCjAI
BgZngQwBAgEwCgYIKoZIzj0EAwIDSAAwRQIhALL2Vzz+SzJSLTNEYVBLDucMYh7X
JePiaP+i/Au0p/qZAiBKY9Pqbd3r5EVx6pHiKJuFho48zorhT6yrSIfahrbw8g==
-----END CERTIFICATE-----