Certificate:
    Data:
        Version: 3 (0x2)
        Serial Number:
            a8:1a:72:b9:8f:9b:71:e9:7d:43:65:6f
        Signature Algorithm: ecdsa-with-SHA256
        Issuer: CN = Lint CA, O = Lint, C = DE
        Validity
            Not Before: Sep 15 00:00:00 2023 GMT
            Not After : Sep 15 00:00:00 2024 GMT
        Subject: O = TeletexString
        Subject Public Key Info:
            Public Key Algorithm: id-ecPublicKey
                Public-Key: (256 bit)
                pub:
                    04:35:7d:f8:9a:89:7d:6c:1c:d1:c8:e2:97:09:9f:
                    6f:2a:df:55:30:97:06:3d:06:59:94:66:92:da:3e:
                    f1:7d:5e:1f:22:3c:39:ed:f1:70:24:5e:7d:15:2a:
                    e0:fc:6f:8b:69:86:5c:b4:dc:11:fe:61:3f:41:71:
                    1d:c5:60:2b:14
                ASN1 OID: prime256v1
                NIST CURVE: P-256
        X509v3 extensions:
            X509v3 Certificate Policies: 
                Policy: 2.23.140.1.2.1

    Signature Algorithm: ecdsa-with-SHA256
         30:45:02:20:5e:75:64:c9:ff:9c:79:b2:a3:ab:55:84:35:04:
         0d:cb:29:9d:59:b5:47:ad:f3:98:53:7a:b9:83:e8:75:5a:b2:
         02:21:00:ba:12:07:23:d2:07:f5:e7:3c:19:d8:65:e9:46:d9:
         e9:ec:f0:bd:87:76:14:22:e8:87:00:fa:cf:e8:c9:ff:9c
-----BEGIN CERTIFICATE-----
MIIBVzCB/qADAgECAg0AqBpyuY+bcel9Q2VvMAoGCCqGSM49BAMCMC4xEDAOBgNV
BAMMB0xpbnQgQ0ExDTALBgNVBAoMBExpbnQxCzAJBgNVBAYTAkRFMB4XDTIzMDkx
NTAwMDAwMFoXDTI0MDkxNTAwMDAwMFowGDEWMBQGA1UEChQNVGVsZXRleFN0cmlu
ZzBZMBMGByqGSM49AgEGCCqGSM49AwEHA0IABDV9+JqJfWwc0cjilwmfbyrfVTCX
Bj0GWZRmkto+8X1eHyI8Oe3xcCRefRUq4Pxvi2mGXLTcEf5hP0FxHcVgKxSjFzAV
MBMGA1UdIAQMMAowCAYGZ4EMAQIBMAoGCCqGSM49BAMCA0gAMEUCIF51ZMn/nHmy
o6tVhDUEDcspnVm1R63zmFN6uYPodVqyAiEAuhIHI9IH9ec8Gdhl6UbZ6ezwvYd2
FCLohwD6z+jJ/5w=
-----END CERTIFICATE-----
