Certificate:
    Data:
        Version: 3 (0x2)
        Serial Number: 6256546164417316078 (0x56d3b79682ed44ee)
        Signature Algorithm: sha256WithRSAEncryption
        Issuer: C = IT, ST = Milano, L = Santa Redegonda, O = Certificati Gratis S.p.A., CN = Certificati Gratis CA
        Validity
            Not Before: Mar  8 14:12:00 2024 GMT
            Not After : Mar  8 08:50:00 2025 GMT
        Subject: C = IT, ST = Milano, L = Milano, street = Via Carducci, postalCode = 20100, O = Example
        Subject Public Key Info:
            Public Key Algorithm: rsaEncryption
                RSA Public-Key: (2048 bit)
                Modulus:
                    00:c1:0a:81:60:21:e7:7b:a3:ec:6f:e4:e0:fc:2f:
                    61:47:88:69:01:58:9b:a3:89:98:0b:42:17:47:87:
                    87:b2:0e:1f:74:22:28:e5:cf:9a:d2:7f:26:db:4f:
                    1d:e8:8d:19:fa:cd:e6:dd:4c:c0:da:38:93:f6:bf:
                    e8:f4:9d:1f:00:c8:bf:cb:f5:4f:b0:fa:c3:24:ce:
                    2f:04:3b:fa:27:dd:8c:3b:f7:44:09:89:16:19:0e:
                    95:0a:8d:eb:0e:54:3f:81:c0:e7:62:b0:d9:6b:5a:
                    89:93:78:08:db:8c:18:3d:24:81:6b:2e:b9:ff:0d:
                    5a:71:24:b7:53:1f:c2:96:57:cd:49:98:b6:21:35:
                    47:6b:83:19:2d:a9:4b:e2:17:a2:bd:1e:ab:16:4f:
                    d4:9a:9b:01:d8:e1:bf:d5:27:75:f2:09:78:63:1b:
                    24:5e:2d:fe:66:fa:32:96:60:51:9c:46:0e:0b:aa:
                    e8:57:22:d4:16:38:11:96:d0:fe:63:56:f1:e8:7e:
                    eb:99:75:ce:4b:d2:e2:f9:71:26:62:31:2a:03:5d:
                    b4:d4:04:fb:33:9f:34:de:a1:39:85:cf:48:d0:a1:
                    16:d5:95:c7:20:38:ba:24:d9:de:98:31:01:0b:1c:
                    be:6e:bb:16:0d:f5:06:42:27:82:49:57:32:f3:67:
                    02:ab
                Exponent: 65537 (0x10001)
        X509v3 extensions:
            X509v3 Extended Key Usage: 
                TLS Web Server Authentication
            X509v3 Subject Alternative Name: 
                DNS:example.org
    Signature Algorithm: sha256WithRSAEncryption
         4f:c8:a4:cf:30:8f:2b:6b:f8:98:ac:b2:38:d3:6a:97:2a:a8:
         12:d0:cc:b6:c9:bd:96:5b:96:f5:67:94:d0:00:a7:5c:06:c6:
         ab:96:ed:27:3a:67:41:0c:25:61:6d:58:f0:a5:94:93:41:b4:
         9c:4b:fa:08:27:7d:d8:a1:a0:15:77:77:e2:84:54:f2:60:4f:
         5b:02:11:4a:e9:ec:d2:97:00:9c:b1:f0:5e:b4:b1:da:27:41:
         27:49:8c:17:f0:3c:3f:c2:60:9d:3c:d2:20:1e:3d:ad:bf:6e:
         07:b7:ed:5f:cf:23:01:4f:26:9e:ed:0d:e5:a8:c1:c0:10:2c:
         72:8a:fd:b9:14:32:73:c6:f8:8f:a4:20:ef:ee:8f:c5:b7:81:
         be:80:df:a5:ac:81:e4:60:22:23:46:9d:81:23:17:4e:42:1e:
         3f:d8:8e:59:7b:6b:18:02:71:98:34:f7:12:db:d6:f8:51:2a:
         b4:3f:2f:15:47:78:1c:71:96:18:22:44:c6:97:75:ca:2e:b5:
         d1:ff:3b:6b:80:57:fb:67:88:ea:9b:9e:cd:e5:28:bc:ef:44:
         67:be:70:d4:cc:a2:5b:b4:7f:3b:6e:0b:fc:23:7c:3d:f7:30:
         bb:1f:07:c1:77:fb:58:13:71:20:1c:22:eb:63:05:9b:5d:8a:
         9d:e0:9c:3f:8b:32:34:ba:10:72:fa:36:e8:4c:0d:76:c3:2a:
         67:c9:70:ec:a9:1a:d7:84:c2:e2:a5:d3:e4:06:28:26:0b:94:
         c6:7b:88:5f:27:02:75:55:ee:26:ee:55:36:38:35:43:0f:8c:
         71:48:c2:7f:45:01:d5:b9:28:93:d6:26:31:43:53:25:33:98:
         e0:df:03:b3:db:6a:b9:a6:7c:3a:0f:d8:50:af:0d:56:e8:87:
         4a:a5:a0:da:91:db:19:4f:78:48:08:48:66:0a:9c:24:82:14:
         f0:a2:b0:6b:cc:fa:f4:1a:bf:b1:fa:ff:0a:45:d7:e3:df:66:
         60:0e:d5:75:a5:1f:94:09:0f:3a:98:06:d2:4b:7c:d3:fd:6e:
         7b:a1:ad:23:e0:d5:5e:0a:5e:96:a7:a0:97:8b:90:6e:29:ec:
         2e:7f:7a:bf:9c:a2:c8:3a:dc:fc:48:51:e8:05:bd:a3:5b:b5:
         4a:6d:73:62:1d:f4:a1:1b:d9:28:77:79:4b:a5:5c:0b:b5:61:
         4c:4c:c7:20:f5:6d:78:29:3e:5d:56:ef:4d:ca:45:6b:fb:70:
         48:e0:74:b9:89:a7:4b:30:29:59:3e:c2:33:97:35:d9:f3:2a:
         1b:96:d5:6b:fc:4d:09:a8:99:7b:7f:bc:44:d4:1e:30:f5:34:
         be:e6:e3:79:77:f0:3a:53
-----BEGIN CERTIFICATE-----
MIIElTCCAn2gAwIBAgIIVtO3loLtRO4wDQYJKoZIhvcNAQELBQAwfDELMAkGA1UE
BhMCSVQxDzANBgNVBAgTBk1pbGFubzEYMBYGA1UEBxMPU2FudGEgUmVkZWdvbmRh
MSIwIAYDVQQKExlDZXJ0aWZpY2F0aSBHcmF0aXMgUy5wLkEuMR4wHAYDVQQDExVD
ZXJ0aWZpY2F0aSBHcmF0aXMgQ0EwHhcNMjQwMzA4MTQxMjAwWhcNMjUwMzA4MDg1
MDAwWjBoMQswCQYDVQQGEwJJVDEPMA0GA1UECBMGTWlsYW5vMQ8wDQYDVQQHEwZN
aWxhbm8xFTATBgNVBAkTDFZpYSBDYXJkdWNjaTEOMAwGA1UEERMFMjAxMDAxEDAO
BgNVBAoTB0V4YW1wbGUwggEiMA0GCSqGSIb3DQEBAQUAA4IBDwAwggEKAoIBAQDB
CoFgIed7o+xv5OD8L2FHiGkBWJujiZgLQhdHh4eyDh90Iijlz5rSfybbTx3ojRn6
zebdTMDaOJP2v+j0nR8AyL/L9U+w+sMkzi8EO/on3Yw790QJiRYZDpUKjesOVD+B
wOdisNlrWomTeAjbjBg9JIFrLrn/DVpxJLdTH8KWV81JmLYhNUdrgxktqUviF6K9
HqsWT9SamwHY4b/VJ3XyCXhjGyReLf5m+jKWYFGcRg4LquhXItQWOBGW0P5jVvHo
fuuZdc5L0uL5cSZiMSoDXbTUBPsznzTeoTmFz0jQoRbVlccgOLok2d6YMQELHL5u
uxYN9QZCJ4JJVzLzZwKrAgMBAAGjLzAtMBMGA1UdJQQMMAoGCCsGAQUFBwMBMBYG
A1UdEQQPMA2CC2V4YW1wbGUub3JnMA0GCSqGSIb3DQEBCwUAA4ICAQBPyKTPMI8r
a/iYrLI402qXKqgS0My2yb2WW5b1Z5TQAKdcBsarlu0nOmdBDCVhbVjwpZSTQbSc
S/oIJ33YoaAVd3fihFTyYE9bAhFK6ezSlwCcsfBetLHaJ0EnSYwX8Dw/wmCdPNIg
Hj2tv24Ht+1fzyMBTyae7Q3lqMHAECxyiv25FDJzxviPpCDv7o/Ft4G+gN+lrIHk
YCIjRp2BIxdOQh4/2I5Ze2sYAnGYNPcS29b4USq0Py8VR3gccZYYIkTGl3XKLrXR
/ztrgFf7Z4jqm57N5Si870RnvnDUzKJbtH87bgv8I3w99zC7HwfBd/tYE3EgHCLr
YwWbXYqd4Jw/izI0uhBy+jboTA12wypnyXDsqRrXhMLipdPkBigmC5TGe4hfJwJ1
Ve4m7lU2ODVDD4xxSMJ/RQHVuSiT1iYxQ1MlM5jg3wOz22q5pnw6D9hQrw1W6IdK
paDakdsZT3hICEhmCpwkghTworBrzPr0Gr+x+v8KRdfj32ZgDtV1pR+UCQ86mAbS
S3zT/W57oa0j4NVeCl6Wp6CXi5BuKewuf3q/nKLIOtz8SFHoBb2jW7VKbXNiHfSh
G9kod3lLpVwLtWFMTMcg9W14KT5dVu9NykVr+3BI4HS5iadLMClZPsIzlzXZ8yob
ltVr/E0JqJl7f7xE1B4w9TS+5uN5d/A6Uw==
-----END CERTIFICATE-----
