Certificate:
    Data:
        Version: 3 (0x2)
        Serial Number:
            e6:9f:8a:70:eb:18:3a:10:6b:41:bf:25
        Signature Algorithm: ecdsa-with-SHA256
        Issuer: CN = Lint CA, O = Lint, C = DE
        Validity
            Not Before: Sep 15 00:00:00 2023 GMT
            Not After : Sep 15 00:00:00 2024 GMT
        Subject: serialNumber = PrintableString
        Subject Public Key Info:
            Public Key Algorithm: id-ecPublicKey
                Public-Key: (256 bit)
                pub:
                    04:35:7d:f8:9a:89:7d:6c:1c:d1:c8:e2:97:09:9f:
                    6f:2a:df:55:30:97:06:3d:06:59:94:66:92:da:3e:
                    f1:7d:5e:1f:22:3c:39:ed:f1:70:24:5e:7d:15:2a:
                    e0:fc:6f:8b:69:86:5c:b4:dc:11:fe:61:3f:41:71:
                    1d:c5:60:2b:14
                ASN1 OID: prime256v1
                NIST CURVE: P-256
        X509v3 extensions:
            X509v3 Certificate Policies: 
                Policy: 2.23.140.1.2.1

    Signature Algorithm: ecdsa-with-SHA256
         30:45:02:21:00:d5:60:1a:f2:ae:9f:49:ec:bc:3b:bf:21:6e:
         c5:06:94:12:65:be:96:32:5a:25:36:ac:3b:74:b0:01:06:62:
         93:02:20:23:ff:8a:d3:bb:d8:f9:2f:2a:19:3c:94:bd:40:05:
         d0:a6:94:17:aa:03:3b:4e:73:85:d8:9c:6b:65:1f:05:a9
-----BEGIN CERTIFICATE-----
MIIBWjCCAQCgAwIBAgINAOafinDrGDoQa0G/JTAKBggqhkjOPQQDAjAuMRAwDgYD
VQQDDAdMaW50IENBMQ0wCwYDVQQKDARMaW50MQswCQYDVQQGEwJERTAeFw0yMzA5
MTUwMDAwMDBaFw0yNDA5MTUwMDAwMDBaMBoxGDAWBgNVBAUTD1ByaW50YWJsZVN0
cmluZzBZMBMGByqGSM49AgEGCCqGSM49AwEHA0IABDV9+JqJfWwc0cjilwmfbyrf
VTCXBj0GWZRmkto+8X1eHyI8Oe3xcCRefRUq4Pxvi2mGXLTcEf5hP0FxHcVgKxSj
FzAVMBMGA1UdIAQMMAowCAYGZ4EMAQIBMAoGCCqGSM49BAMCA0gAMEUCIQDVYBry
rp9J7Lw7vyFuxQaUEmW+ljJaJTasO3SwAQZikwIgI/+K07vY+S8qGTyUvUAF0KaU
F6oDO05zhdica2UfBak=
-----END CERTIFICATE-----
