Certificate:
    Data:
        Version: 3 (0x2)
        Serial Number:
            72:07:7d:48:75:12:1e:cb:fd:57:f8:94
        Signature Algorithm: ecdsa-with-SHA256
        Issuer: CN = Lint CA, O = Lint, C = DE
        Validity
            Not Before: Sep 15 00:00:00 2023 GMT
            Not After : Sep 15 00:00:00 2024 GMT
        Subject: postalCode = UTF8String, postalCode = PrintableString
        Subject Public Key Info:
            Public Key Algorithm: id-ecPublicKey
                Public-Key: (256 bit)
                pub:
                    04:35:7d:f8:9a:89:7d:6c:1c:d1:c8:e2:97:09:9f:
                    6f:2a:df:55:30:97:06:3d:06:59:94:66:92:da:3e:
                    f1:7d:5e:1f:22:3c:39:ed:f1:70:24:5e:7d:15:2a:
                    e0:fc:6f:8b:69:86:5c:b4:dc:11:fe:61:3f:41:71:
                    1d:c5:60:2b:14
                ASN1 OID: prime256v1
                NIST CURVE: P-256
        X509v3 extensions:
            X509v3 Certificate Policies: 
                Policy: 2.23.140.1.2.1

    Signature Algorithm: ecdsa-with-SHA256
         30:45:02:20:65:1f:74:85:94:26:af:8a:11:40:b4:cc:26:3e:
         82:08:6e:f7:70:ec:56:bb:b7:b6:27:12:21:96:11:b9:7b:2f:
         02:21:00:c7:a8:bb:6a:7d:0d:99:fb:ec:0d:f4:54:10:94:dc:
         9d:72:dd:34:f7:4c:76:c5:60:3d:b5:eb:b1:10:10:d2:86
-----BEGIN CERTIFICATE-----
MIIBbjCCARSgAwIBAgIMcgd9SHUSHsv9V/iUMAoGCCqGSM49BAMCMC4xEDAOBgNV
BAMMB0xpbnQgQ0ExDTALBgNVBAoMBExpbnQxCzAJBgNVBAYTAkRFMB4XDTIzMDkx
NTAwMDAwMFoXDTI0MDkxNTAwMDAwMFowLzETMBEGA1UEEQwKVVRGOFN0cmluZzEY
MBYGA1UEERMPUHJpbnRhYmxlU3RyaW5nMFkwEwYHKoZIzj0CAQYIKoZIzj0DAQcD
QgAENX34mol9bBzRyOKXCZ9vKt9VMJcGPQZZlGaS2j7xfV4fIjw57fFwJF59FSrg
/G+LaYZctNwR/mE/QXEdxWArFKMXMBUwEwYDVR0gBAwwCjAIBgZngQwBAgEwCgYI
KoZIzj0EAwIDSAAwRQIgZR90hZQmr4oRQLTMJj6CCG73cOxWu7e2JxIhlhG5ey8C
IQDHqLtqfQ2Z++wN9FQQlNydct0090x2xWA9teuxEBDShg==
-----END CERTIFICATE-----
