Certificate:
    Data:
        Version: 3 (0x2)
        Serial Number:
            3b:ac:e1:ff:21:e4:71:37:e5:fe:d5:a6
        Signature Algorithm: ecdsa-with-SHA256
        Issuer: CN = Lint CA, O = Lint, C = DE
        Validity
            Not Before: Sep 15 00:00:00 2023 GMT
            Not After : Sep 15 00:00:00 2024 GMT
        Subject: jurisdictionL = UTF8String, jurisdictionL = PrintableString
        Subject Public Key Info:
            Public Key Algorithm: id-ecPublicKey
                Public-Key: (256 bit)
                pub:
                    04:35:7d:f8:9a:89:7d:6c:1c:d1:c8:e2:97:09:9f:
                    6f:2a:df:55:30:97:06:3d:06:59:94:66:92:da:3e:
                    f1:7d:5e:1f:22:3c:39:ed:f1:70:24:5e:7d:15:2a:
                    e0:fc:6f:8b:69:86:5c:b4:dc:11:fe:61:3f:41:71:
                    1d:c5:60:2b:14
                ASN1 OID: prime256v1
                NIST CURVE: P-256
        X509v3 extensions:
            X509v3 Certificate Policies: 
                Policy: 2.23.140.1.2.1

    Signature Algorithm: ecdsa-with-SHA256
         30:45:02:20:4f:48:36:68:89:4a:9d:62:86:99:99:ca:f5:72:
         8e:1b:1f:66:4e:7a:db:c8:a8:43:0a:9b:7c:59:ca:fd:0a:d1:
         02:21:00:f7:b5:73:b4:90:c5:77:f9:dc:7d:80:2f:02:17:35:
         15:49:d3:de:b5:df:65:f7:f9:69:35:3c:48:18:f5:95:50
-----BEGIN CERTIFICATE-----
MIIBfjCCASSgAwIBAgIMO6zh/yHkcTfl/tWmMAoGCCqGSM49BAMCMC4xEDAOBgNV
BAMMB0xpbnQgQ0ExDTALBgNVBAoMBExpbnQxCzAJBgNVBAYTAkRFMB4XDTIzMDkx
NTAwMDAwMFoXDTI0MDkxNTAwMDAwMFowPzEbMBkGCysGAQQBgjc8AgEBDApVVEY4
U3RyaW5nMSAwHgYLKwYBBAGCNzwCAQETD1ByaW50YWJsZVN0cmluZzBZMBMGByqG
SM49AgEGCCqGSM49AwEHA0IABDV9+JqJfWwc0cjilwmfbyrfVTCXBj0GWZRmkto+
8X1eHyI8Oe3xcCRefRUq4Pxvi2mGXLTcEf5hP0FxHcVgKxSjFzAVMBMGA1UdIAQM
MAowCAYGZ4EMAQIBMAoGCCqGSM49BAMCA0gAMEUCIE9INmiJSp1ihpmZyvVyjhsf
Zk5628ioQwqbfFnK/QrRAiEA97VztJDFd/ncfYAvAhc1FUnT3rXfZff5aTU8SBj1
lVA=
-----END CERTIFICATE-----
