Certificate:
    Data:
        Version: 3 (0x2)
        Serial Number:
            06:b4:95:6e:60:6a:d6:3d:9f:f0:88:26:af
        Signature Algorithm: sha256WithRSAEncryption
        Issuer: CN = Lint Sub CA, OU = Test, O = MTG, C = DE
        Validity
            Not Before: Aug 31 23:59:59 2022 GMT
            Not After : Sep 30 23:59:59 2022 GMT
        Subject: CN = lint.mtg.de, OU = Lint, O = MTG, L = Darmstadt, ST = Hesse, C = DE
        Subject Public Key Info:
            Public Key Algorithm: id-ecPublicKey
                Public-Key: (256 bit)
                pub:
                    04:d0:69:ba:bb:d9:f6:6c:de:e2:ed:b6:e0:5e:cb:
                    6a:f5:2a:35:c7:4f:d7:b4:9e:05:7d:fe:81:b4:bd:
                    a0:3e:40:90:3f:2e:b6:5a:7f:c3:e5:28:f3:c2:83:
                    16:82:9b:95:51:1d:6f:57:e8:0b:0a:7e:f4:df:d3:
                    9a:2e:83:6c:98
                ASN1 OID: prime256v1
                NIST CURVE: P-256
    Signature Algorithm: sha256WithRSAEncryption
         07:48:4c:a0:3a:c9:d0:12:bd:34:a9:eb:b6:0c:95:49:4e:43:
         83:c4:30:bd:b3:42:e9:bb:1c:c7:ba:96:3f:ab:5b:6b:12:dd:
         d0:07:09:e3:b9:d6:77:1a:06:20:2b:89:5e:79:8b:16:af:50:
         5f:f3:b2:46:15:61:e3:3b:95:e3:04:d0:b0:a9:b4:dc:95:6c:
         90:a6:29:d9:24:c7:c5:22:f2:5b:76:2d:9b:16:8c:13:13:c2:
         ed:47:d2:0a:81:5b:f0:26:30:6f:8d:7b:d9:b1:e0:b9:8d:0d:
         48:f3:2b:08:18:9d:c3:1e:1d:35:ce:f2:09:fb:c0:04:88:87:
         d7:58:87:d0:5f:09:c0:36:fa:c1:db:49:83:e2:d5:eb:4d:ff:
         c3:4b:e4:66:fd:a6:ea:41:a3:b8:59:08:1f:c5:41:2f:eb:f8:
         77:54:f8:53:33:19:0a:ac:e0:7d:f4:8e:65:8a:69:e9:71:8c:
         5b:2d:ef:06:89:60:4e:00:ff:63:f1:fa:64:a1:7a:f2:0e:9e:
         45:bc:d7:51:7f:3e:bd:a6:3f:14:15:db:c8:34:ee:29:3c:23:
         96:c6:f9:88:df:a2:6c:99:93:c1:91:dc:29:43:89:45:6c:1f:
         6b:16:86:0c:60:e0:c0:4c:cf:0e:46:93:c7:40:46:79:45:78:
         85:fc:65:35
-----BEGIN CERTIFICATE-----
MIICXjCCAUagAwIBAgINBrSVbmBq1j2f8IgmrzANBgkqhkiG9w0BAQsFADBAMRQw
EgYDVQQDDAtMaW50IFN1YiBDQTENMAsGA1UECwwEVGVzdDEMMAoGA1UECgwDTVRH
MQswCQYDVQQGEwJERTAeFw0yMjA4MzEyMzU5NTlaFw0yMjA5MzAyMzU5NTlaMGQx
FDASBgNVBAMMC2xpbnQubXRnLmRlMQ0wCwYDVQQLDARMaW50MQwwCgYDVQQKDANN
VEcxEjAQBgNVBAcMCURhcm1zdGFkdDEOMAwGA1UECAwFSGVzc2UxCzAJBgNVBAYT
AkRFMFkwEwYHKoZIzj0CAQYIKoZIzj0DAQcDQgAE0Gm6u9n2bN7i7bbgXstq9So1
x0/XtJ4Fff6BtL2gPkCQPy62Wn/D5SjzwoMWgpuVUR1vV+gLCn7039OaLoNsmDAN
BgkqhkiG9w0BAQsFAAOCAQEAB0hMoDrJ0BK9NKnrtgyVSU5Dg8QwvbNC6bscx7qW
P6tbaxLd0AcJ47nWdxoGICuJXnmLFq9QX/OyRhVh4zuV4wTQsKm03JVskKYp2STH
xSLyW3YtmxaMExPC7UfSCoFb8CYwb4172bHguY0NSPMrCBidwx4dNc7yCfvABIiH
11iH0F8JwDb6wdtJg+LV603/w0vkZv2m6kGjuFkIH8VBL+v4d1T4UzMZCqzgffSO
ZYpp6XGMWy3vBolgTgD/Y/H6ZKF68g6eRbzXUX8+vaY/FBXbyDTuKTwjlsb5iN+i
bJmTwZHcKUOJRWwfaxaGDGDgwEzPDkaTx0BGeUV4hfxlNQ==
-----END CERTIFICATE-----
