Certificate:
    Data:
        Version: 3 (0x2)
        Serial Number: 3989736575603356219 (0x375e6446e838b23b)
        Signature Algorithm: sha256WithRSAEncryption
        Issuer: C = IT, ST = Milano, L = Santa Redegonda, O = Certificati Gratis S.p.A., CN = Certificati Gratis CA
        Validity
            Not Before: Mar  8 14:07:00 2024 GMT
            Not After : Mar  8 08:50:00 2025 GMT
        Subject: C = IT, ST = Milano, L = Milano, GN = Flash, SN = Gordon, CN = example.org
        Subject Public Key Info:
            Public Key Algorithm: rsaEncryption
                RSA Public-Key: (2048 bit)
                Modulus:
                    00:c1:0a:81:60:21:e7:7b:a3:ec:6f:e4:e0:fc:2f:
                    61:47:88:69:01:58:9b:a3:89:98:0b:42:17:47:87:
                    87:b2:0e:1f:74:22:28:e5:cf:9a:d2:7f:26:db:4f:
                    1d:e8:8d:19:fa:cd:e6:dd:4c:c0:da:38:93:f6:bf:
                    e8:f4:9d:1f:00:c8:bf:cb:f5:4f:b0:fa:c3:24:ce:
                    2f:04:3b:fa:27:dd:8c:3b:f7:44:09:89:16:19:0e:
                    95:0a:8d:eb:0e:54:3f:81:c0:e7:62:b0:d9:6b:5a:
                    89:93:78:08:db:8c:18:3d:24:81:6b:2e:b9:ff:0d:
                    5a:71:24:b7:53:1f:c2:96:57:cd:49:98:b6:21:35:
                    47:6b:83:19:2d:a9:4b:e2:17:a2:bd:1e:ab:16:4f:
                    d4:9a:9b:01:d8:e1:bf:d5:27:75:f2:09:78:63:1b:
                    24:5e:2d:fe:66:fa:32:96:60:51:9c:46:0e:0b:aa:
                    e8:57:22:d4:16:38:11:96:d0:fe:63:56:f1:e8:7e:
                    eb:99:75:ce:4b:d2:e2:f9:71:26:62:31:2a:03:5d:
                    b4:d4:04:fb:33:9f:34:de:a1:39:85:cf:48:d0:a1:
                    16:d5:95:c7:20:38:ba:24:d9:de:98:31:01:0b:1c:
                    be:6e:bb:16:0d:f5:06:42:27:82:49:57:32:f3:67:
                    02:ab
                Exponent: 65537 (0x10001)
        X509v3 extensions:
            X509v3 Extended Key Usage: 
                TLS Web Server Authentication
    Signature Algorithm: sha256WithRSAEncryption
         89:58:5c:be:7f:1e:6f:91:36:9c:cd:ec:e0:c2:5d:89:62:9a:
         74:37:de:b1:ba:12:7e:86:bb:33:0f:b9:78:fb:f1:b2:fd:bf:
         54:4f:f2:7c:ac:92:e8:5f:26:e9:fe:18:51:86:12:c9:d5:1e:
         81:4c:1b:16:f5:e2:b9:f5:5d:7e:82:0f:bd:f0:ec:07:8c:81:
         92:ab:81:a4:5e:37:cb:f1:a4:b7:d5:de:14:9d:d2:62:76:b5:
         e7:58:4f:70:8e:dc:61:10:9b:be:f3:56:3b:77:12:87:08:c7:
         75:f3:45:17:74:2a:23:16:f4:4e:20:65:60:60:45:04:b2:45:
         3c:8d:65:d8:b6:f8:85:8f:cc:d0:3f:73:21:98:a5:27:87:b4:
         d5:69:51:4b:86:88:c1:a0:86:dc:e6:0b:6a:e1:6a:02:30:ef:
         5b:b6:73:74:a7:f2:ec:92:d2:e2:60:f0:fd:cc:af:ae:8a:fd:
         fa:2e:91:85:99:69:b2:6f:b1:84:f3:c2:dd:fb:1d:30:e8:c7:
         bc:d4:10:c9:ff:be:38:95:c4:13:c4:22:50:5f:99:3c:2f:78:
         cf:c7:6f:4c:99:20:dc:4a:d1:e7:8b:ec:ab:08:b8:0c:14:5e:
         42:27:06:86:17:6c:41:53:d2:38:30:17:49:3d:22:3e:25:1c:
         d5:94:5d:aa:eb:01:6b:9e:9c:fc:8a:a9:7b:f4:56:8e:a8:2c:
         bc:2c:19:ce:1b:f6:4e:88:ec:1e:62:1e:ab:cb:53:ab:38:02:
         f7:ee:33:fa:c2:a3:80:97:57:88:7b:fb:6c:6d:7f:de:93:42:
         27:b1:91:73:2c:3f:f6:44:41:2c:d9:44:55:9d:3f:57:1c:6c:
         83:89:8d:74:77:c1:81:f4:1d:69:ff:e9:38:b9:fa:fe:e6:ec:
         38:a3:52:1d:df:ff:bd:f3:80:fd:e7:52:84:2c:f7:6c:42:54:
         c0:a6:24:13:90:95:8d:91:11:40:6d:b9:1e:f6:04:fa:ab:58:
         41:2b:26:e3:bd:88:30:4e:82:d0:6f:a2:91:ff:05:58:08:9d:
         02:d0:cd:c5:94:16:ed:75:3c:3c:e0:0b:02:af:e7:ff:9a:71:
         5b:2e:df:dc:e7:24:14:c5:91:70:d0:de:b9:52:89:44:9b:8f:
         29:10:c6:eb:86:29:66:e3:12:62:96:f1:0c:b3:1a:71:68:73:
         91:77:83:1c:d1:64:47:9c:13:ca:ef:84:1e:04:23:82:25:12:
         b6:54:a1:c4:a8:3d:37:e4:f6:b3:e5:e3:c3:1d:6e:5d:a6:73:
         36:8d:aa:82:2c:35:6a:69:99:ea:24:7b:f2:e5:ce:2b:8f:5a:
         a1:c2:ce:d6:d4:dc:0f:06
-----BEGIN CERTIFICATE-----
MIIEezCCAmOgAwIBAgIIN15kRug4sjswDQYJKoZIhvcNAQELBQAwfDELMAkGA1UE
BhMCSVQxDzANBgNVBAgTBk1pbGFubzEYMBYGA1UEBxMPU2FudGEgUmVkZWdvbmRh
MSIwIAYDVQQKExlDZXJ0aWZpY2F0aSBHcmF0aXMgUy5wLkEuMR4wHAYDVQQDExVD
ZXJ0aWZpY2F0aSBHcmF0aXMgQ0EwHhcNMjQwMzA4MTQwNzAwWhcNMjUwMzA4MDg1
MDAwWjBmMQswCQYDVQQGEwJJVDEPMA0GA1UECBMGTWlsYW5vMQ8wDQYDVQQHEwZN
aWxhbm8xDjAMBgNVBCoTBUZsYXNoMQ8wDQYDVQQEEwZHb3Jkb24xFDASBgNVBAMT
C2V4YW1wbGUub3JnMIIBIjANBgkqhkiG9w0BAQEFAAOCAQ8AMIIBCgKCAQEAwQqB
YCHne6Psb+Tg/C9hR4hpAVibo4mYC0IXR4eHsg4fdCIo5c+a0n8m208d6I0Z+s3m
3UzA2jiT9r/o9J0fAMi/y/VPsPrDJM4vBDv6J92MO/dECYkWGQ6VCo3rDlQ/gcDn
YrDZa1qJk3gI24wYPSSBay65/w1acSS3Ux/CllfNSZi2ITVHa4MZLalL4heivR6r
Fk/UmpsB2OG/1Sd18gl4YxskXi3+ZvoylmBRnEYOC6roVyLUFjgRltD+Y1bx6H7r
mXXOS9Li+XEmYjEqA1201AT7M5803qE5hc9I0KEW1ZXHIDi6JNnemDEBCxy+brsW
DfUGQieCSVcy82cCqwIDAQABoxcwFTATBgNVHSUEDDAKBggrBgEFBQcDATANBgkq
hkiG9w0BAQsFAAOCAgEAiVhcvn8eb5E2nM3s4MJdiWKadDfesboSfoa7Mw+5ePvx
sv2/VE/yfKyS6F8m6f4YUYYSydUegUwbFvXiufVdfoIPvfDsB4yBkquBpF43y/Gk
t9XeFJ3SYna151hPcI7cYRCbvvNWO3cShwjHdfNFF3QqIxb0TiBlYGBFBLJFPI1l
2Lb4hY/M0D9zIZilJ4e01WlRS4aIwaCG3OYLauFqAjDvW7ZzdKfy7JLS4mDw/cyv
ror9+i6RhZlpsm+xhPPC3fsdMOjHvNQQyf++OJXEE8QiUF+ZPC94z8dvTJkg3ErR
54vsqwi4DBReQicGhhdsQVPSODAXST0iPiUc1ZRdqusBa56c/Iqpe/RWjqgsvCwZ
zhv2TojsHmIeq8tTqzgC9+4z+sKjgJdXiHv7bG1/3pNCJ7GRcyw/9kRBLNlEVZ0/
Vxxsg4mNdHfBgfQdaf/pOLn6/ubsOKNSHd//vfOA/edShCz3bEJUwKYkE5CVjZER
QG25HvYE+qtYQSsm472IME6C0G+ikf8FWAidAtDNxZQW7XU8POALAq/n/5pxWy7f
3OckFMWRcNDeuVKJRJuPKRDG64YpZuMSYpbxDLMacWhzkXeDHNFkR5wTyu+EHgQj
giUStlShxKg9N+T2s+Xjwx1uXaZzNo2qgiw1ammZ6iR78uXOK49aocLO1tTcDwY=
-----END CERTIFICATE-----
