Certificate:
    Data:
        Version: 3 (0x2)
        Serial Number:
            99:42:56:2d:ab:36:16:3c:57:d3:4f:24
        Signature Algorithm: ecdsa-with-SHA256
        Issuer: CN = Lint CA, O = Lint, C = DE
        Validity
            Not Before: Sep 15 00:00:00 2023 GMT
            Not After : Sep 15 00:00:00 2024 GMT
        Subject: L = IA5String
        Subject Public Key Info:
            Public Key Algorithm: id-ecPublicKey
                Public-Key: (256 bit)
                pub:
                    04:35:7d:f8:9a:89:7d:6c:1c:d1:c8:e2:97:09:9f:
                    6f:2a:df:55:30:97:06:3d:06:59:94:66:92:da:3e:
                    f1:7d:5e:1f:22:3c:39:ed:f1:70:24:5e:7d:15:2a:
                    e0:fc:6f:8b:69:86:5c:b4:dc:11:fe:61:3f:41:71:
                    1d:c5:60:2b:14
                ASN1 OID: prime256v1
                NIST CURVE: P-256
        X509v3 extensions:
            X509v3 Certificate Policies: 
                Policy: 2.23.140.1.2.1

    Signature Algorithm: ecdsa-with-SHA256
         30:45:02:21:00:de:54:87:79:ec:d5:19:62:fa:e6:10:81:3b:
         ef:ab:26:21:d0:ec:67:28:59:4d:7a:fd:61:72:93:59:5c:a9:
         b3:02:20:31:ca:1d:6b:38:b9:c3:8a:e5:59:f0:de:73:21:5b:
         e6:0d:23:1b:7c:bc:35:fb:24:8a:78:a8:00:87:73:94:fd
-----BEGIN CERTIFICATE-----
MIIBUzCB+qADAgECAg0AmUJWLas2FjxX008kMAoGCCqGSM49BAMCMC4xEDAOBgNV
BAMMB0xpbnQgQ0ExDTALBgNVBAoMBExpbnQxCzAJBgNVBAYTAkRFMB4XDTIzMDkx
NTAwMDAwMFoXDTI0MDkxNTAwMDAwMFowFDESMBAGA1UEBxYJSUE1U3RyaW5nMFkw
EwYHKoZIzj0CAQYIKoZIzj0DAQcDQgAENX34mol9bBzRyOKXCZ9vKt9VMJcGPQZZ
lGaS2j7xfV4fIjw57fFwJF59FSrg/G+LaYZctNwR/mE/QXEdxWArFKMXMBUwEwYD
VR0gBAwwCjAIBgZngQwBAgEwCgYIKoZIzj0EAwIDSAAwRQIhAN5Uh3ns1Rli+uYQ
gTvvqyYh0OxnKFlNev1hcpNZXKmzAiAxyh1rOLnDiuVZ8N5zIVvmDSMbfLw1+ySK
eKgAh3OU/Q==
-----END CERTIFICATE-----
