Certificate:
    Data:
        Version: 3 (0x2)
        Serial Number:
            bd:36:1c:fc:36:8f:3d:66:2e:02:1e:ee
        Signature Algorithm: ecdsa-with-SHA256
        Issuer: CN = Lint CA, O = Lint, C = DE
        Validity
            Not Before: Sep 15 00:00:00 2023 GMT
            Not After : Sep 15 00:00:00 2024 GMT
        Subject: jurisdictionST = UTF8String, jurisdictionST = PrintableString
        Subject Public Key Info:
            Public Key Algorithm: id-ecPublicKey
                Public-Key: (256 bit)
                pub:
                    04:35:7d:f8:9a:89:7d:6c:1c:d1:c8:e2:97:09:9f:
                    6f:2a:df:55:30:97:06:3d:06:59:94:66:92:da:3e:
                    f1:7d:5e:1f:22:3c:39:ed:f1:70:24:5e:7d:15:2a:
                    e0:fc:6f:8b:69:86:5c:b4:dc:11:fe:61:3f:41:71:
                    1d:c5:60:2b:14
                ASN1 OID: prime256v1
                NIST CURVE: P-256
        X509v3 extensions:
            X509v3 Certificate Policies: 
                Policy: 2.23.140.1.2.1

    Signature Algorithm: ecdsa-with-SHA256
         30:45:02:20:59:42:8f:1a:d0:24:9a:9a:7c:19:09:41:c7:f1:
         e8:47:82:c7:1e:8d:94:d6:d5:4c:f9:de:52:7b:c4:6f:19:d1:
         02:21:00:97:8d:85:94:70:18:86:53:38:7b:cf:9d:ba:57:63:
         24:18:13:c1:c6:f9:eb:32:4f:31:bd:38:99:00:50:e8:1b
-----BEGIN CERTIFICATE-----
MIIBfzCCASWgAwIBAgINAL02HPw2jz1mLgIe7jAKBggqhkjOPQQDAjAuMRAwDgYD
VQQDDAdMaW50IENBMQ0wCwYDVQQKDARMaW50MQswCQYDVQQGEwJERTAeFw0yMzA5
MTUwMDAwMDBaFw0yNDA5MTUwMDAwMDBaMD8xGzAZBgsrBgEEAYI3PAIBAgwKVVRG
OFN0cmluZzEgMB4GCysGAQQBgjc8AgECEw9QcmludGFibGVTdHJpbmcwWTATBgcq
hkjOPQIBBggqhkjOPQMBBwNCAAQ1ffiaiX1sHNHI4pcJn28q31UwlwY9BlmUZpLa
PvF9Xh8iPDnt8XAkXn0VKuD8b4tphly03BH+YT9BcR3FYCsUoxcwFTATBgNVHSAE
DDAKMAgGBmeBDAECATAKBggqhkjOPQQDAgNIADBFAiBZQo8a0CSamnwZCUHH8ehH
gscejZTW1Uz53lJ7xG8Z0QIhAJeNhZRwGIZTOHvPnbpXYyQYE8HG+esyTzG9OJkA
UOgb
-----END CERTIFICATE-----
