Certificate:
    Data:
        Version: 3 (0x2)
        Serial Number:
            50:74:cf:cd:9f:31:5a:1c:de:62:19:2d
        Signature Algorithm: ecdsa-with-SHA256
        Issuer: CN = Lint CA, O = Lint, C = DE
        Validity
            Not Before: Sep 15 00:00:00 2023 GMT
            Not After : Sep 15 00:00:00 2024 GMT
        Subject: C = DE
        Subject Public Key Info:
            Public Key Algorithm: id-ecPublicKey
                Public-Key: (256 bit)
                pub:
                    04:35:7d:f8:9a:89:7d:6c:1c:d1:c8:e2:97:09:9f:
                    6f:2a:df:55:30:97:06:3d:06:59:94:66:92:da:3e:
                    f1:7d:5e:1f:22:3c:39:ed:f1:70:24:5e:7d:15:2a:
                    e0:fc:6f:8b:69:86:5c:b4:dc:11:fe:61:3f:41:71:
                    1d:c5:60:2b:14
                ASN1 OID: prime256v1
                NIST CURVE: P-256
        X509v3 extensions:
            X509v3 Certificate Policies: 
                Policy: 2.23.140.1.2.1

    Signature Algorithm: ecdsa-with-SHA256
         30:44:02:20:74:ae:46:d1:20:2a:4c:2d:cd:2a:69:3f:29:6a:
         79:24:b5:d4:1d:7c:c7:b2:bc:83:13:e6:8a:7a:1f:54:8f:92:
         02:20:01:b0:fe:9d:42:6c:f6:8f:15:d2:5d:d9:51:a3:94:5f:
         a7:cf:b7:ed:b9:69:83:1c:e3:be:d1:37:55:9a:16:22
-----BEGIN CERTIFICATE-----
MIIBSjCB8qADAgECAgxQdM/NnzFaHN5iGS0wCgYIKoZIzj0EAwIwLjEQMA4GA1UE
AwwHTGludCBDQTENMAsGA1UECgwETGludDELMAkGA1UEBhMCREUwHhcNMjMwOTE1
MDAwMDAwWhcNMjQwOTE1MDAwMDAwWjANMQswCQYDVQQGDAJERTBZMBMGByqGSM49
AgEGCCqGSM49AwEHA0IABDV9+JqJfWwc0cjilwmfbyrfVTCXBj0GWZRmkto+8X1e
HyI8Oe3xcCRefRUq4Pxvi2mGXLTcEf5hP0FxHcVgKxSjFzAVMBMGA1UdIAQMMAow
CAYGZ4EMAQIBMAoGCCqGSM49BAMCA0cAMEQCIHSuRtEgKkwtzSppPylqeSS11B18
x7K8gxPminofVI+SAiABsP6dQmz2jxXSXdlRo5Rfp8+37blpgxzjvtE3VZoWIg==
-----END CERTIFICATE-----
