Certificate:
    Data:
        Version: 3 (0x2)
        Serial Number:
            03:35:6c:9e:e5:bf:bd:6d:df:0a:ea:ed:3e
        Signature Algorithm: sha256WithRSAEncryption
        Issuer: CN = Lint Sub CA, OU = Test, O = MTG, C = DE
        Validity
            Not Before: Aug 31 23:59:59 2022 GMT
            Not After : Sep 30 23:59:59 2022 GMT
        Subject: CN = lint.mtg.de, OU = Lint, L = Darmstadt, ST = Hesse, C = DE
        Subject Public Key Info:
            Public Key Algorithm: id-ecPublicKey
                Public-Key: (256 bit)
                pub:
                    04:73:15:3c:c5:ea:4b:a7:6d:6f:92:75:d7:66:35:
                    af:c2:2d:fb:a2:5f:d8:b5:3c:e2:61:91:ef:7a:b8:
                    bb:68:91:9b:8f:46:ed:8a:f9:69:1a:04:0c:3d:5d:
                    5d:a1:59:d9:d3:54:27:2d:22:1b:09:b9:7d:ea:29:
                    0d:b9:d1:0d:41
                ASN1 OID: prime256v1
                NIST CURVE: P-256
    Signature Algorithm: sha256WithRSAEncryption
         1b:b7:ee:bf:a8:39:75:65:48:31:da:3b:af:37:25:b0:bd:3a:
         7c:5a:eb:cb:06:eb:b4:f0:4f:3a:9b:b3:40:53:c0:cb:58:ef:
         88:86:e9:80:bd:5e:14:d1:fc:95:60:72:c8:2b:43:b2:3d:64:
         e5:e8:28:23:3c:dd:70:e1:5f:8e:31:c1:7f:76:e0:5d:8d:36:
         da:0f:e1:2f:5e:88:5c:c3:52:5e:ad:c6:46:29:eb:47:3c:67:
         20:87:ec:51:01:ef:a6:a2:bb:15:cf:ac:53:9b:66:c5:4b:c3:
         77:a9:15:d5:3a:41:93:a0:ca:c9:a7:85:80:e8:00:99:5f:83:
         e4:de:e3:4e:32:ff:e3:c8:7e:97:f6:2b:f2:74:e1:57:d6:19:
         41:c7:e4:b2:51:10:82:96:56:76:6b:54:6e:d7:aa:8c:91:d6:
         4f:b2:f1:5d:30:c6:11:16:7e:cc:e5:30:cf:47:03:c3:2a:4b:
         1b:ff:ff:e9:62:8f:c1:dc:33:15:7e:0b:b9:cf:68:1d:c2:88:
         8f:7f:44:08:61:8c:8d:ba:33:7f:31:9d:c2:1b:5a:77:d0:1f:
         dc:fb:de:29:37:84:3e:94:0c:81:a1:70:2d:e4:07:06:18:d2:
         e0:97:3d:f4:ab:a3:42:0d:e5:1a:14:9a:bc:49:11:61:4f:94:
         ee:44:1b:84
-----BEGIN CERTIFICATE-----
MIICUDCCATigAwIBAgINAzVsnuW/vW3fCurtPjANBgkqhkiG9w0BAQsFADBAMRQw
EgYDVQQDDAtMaW50IFN1YiBDQTENMAsGA1UECwwEVGVzdDEMMAoGA1UECgwDTVRH
MQswCQYDVQQGEwJERTAeFw0yMjA4MzEyMzU5NTlaFw0yMjA5MzAyMzU5NTlaMFYx
FDASBgNVBAMMC2xpbnQubXRnLmRlMQ0wCwYDVQQLDARMaW50MRIwEAYDVQQHDAlE
YXJtc3RhZHQxDjAMBgNVBAgMBUhlc3NlMQswCQYDVQQGEwJERTBZMBMGByqGSM49
AgEGCCqGSM49AwEHA0IABHMVPMXqS6dtb5J112Y1r8It+6Jf2LU84mGR73q4u2iR
m49G7Yr5aRoEDD1dXaFZ2dNUJy0iGwm5feopDbnRDUEwDQYJKoZIhvcNAQELBQAD
ggEBABu37r+oOXVlSDHaO683JbC9Onxa68sG67TwTzqbs0BTwMtY74iG6YC9XhTR
/JVgcsgrQ7I9ZOXoKCM83XDhX44xwX924F2NNtoP4S9eiFzDUl6txkYp60c8ZyCH
7FEB76aiuxXPrFObZsVLw3epFdU6QZOgysmnhYDoAJlfg+Te404y/+PIfpf2K/J0
4VfWGUHH5LJREIKWVnZrVG7XqoyR1k+y8V0wxhEWfszlMM9HA8MqSxv//+lij8Hc
MxV+C7nPaB3CiI9/RAhhjI26M38xncIbWnfQH9z73ik3hD6UDIGhcC3kBwYY0uCX
PfSro0IN5RoUmrxJEWFPlO5EG4Q=
-----END CERTIFICATE-----
