Certificate:
    Data:
        Version: 3 (0x2)
        Serial Number:
            b5:a3:07:25:a9:87:c6:6a:13:70:84:34
        Signature Algorithm: ecdsa-with-SHA256
        Issuer: CN = Lint CA, O = Lint, C = DE
        Validity
            Not Before: Sep 15 00:00:00 2023 GMT
            Not After : Sep 15 00:00:00 2024 GMT
        Subject: SN = UTF8String, SN = PrintableString
        Subject Public Key Info:
            Public Key Algorithm: id-ecPublicKey
                Public-Key: (256 bit)
                pub:
                    04:35:7d:f8:9a:89:7d:6c:1c:d1:c8:e2:97:09:9f:
                    6f:2a:df:55:30:97:06:3d:06:59:94:66:92:da:3e:
                    f1:7d:5e:1f:22:3c:39:ed:f1:70:24:5e:7d:15:2a:
                    e0:fc:6f:8b:69:86:5c:b4:dc:11:fe:61:3f:41:71:
                    1d:c5:60:2b:14
                ASN1 OID: prime256v1
                NIST CURVE: P-256
        X509v3 extensions:
            X509v3 Certificate Policies: 
                Policy: 2.23.140.1.2.1

    Signature Algorithm: ecdsa-with-SHA256
         30:46:02:21:00:b4:b2:d8:d6:cb:9d:ef:a0:ce:e2:f2:42:47:
         82:da:77:4c:8e:36:5e:01:54:4d:34:b8:18:39:a1:41:41:6a:
         a9:02:21:00:ef:27:77:3c:5b:b3:00:ae:c3:76:88:13:df:e8:
         37:cd:3f:16:bd:59:25:83:2a:c3:13:c0:f0:46:51:6d:bf:ea
-----BEGIN CERTIFICATE-----
MIIBcDCCARWgAwIBAgINALWjByWph8ZqE3CENDAKBggqhkjOPQQDAjAuMRAwDgYD
VQQDDAdMaW50IENBMQ0wCwYDVQQKDARMaW50MQswCQYDVQQGEwJERTAeFw0yMzA5
MTUwMDAwMDBaFw0yNDA5MTUwMDAwMDBaMC8xEzARBgNVBAQMClVURjhTdHJpbmcx
GDAWBgNVBAQTD1ByaW50YWJsZVN0cmluZzBZMBMGByqGSM49AgEGCCqGSM49AwEH
A0IABDV9+JqJfWwc0cjilwmfbyrfVTCXBj0GWZRmkto+8X1eHyI8Oe3xcCRefRUq
4Pxvi2mGXLTcEf5hP0FxHcVgKxSjFzAVMBMGA1UdIAQMMAowCAYGZ4EMAQIBMAoG
CCqGSM49BAMCA0kAMEYCIQC0stjWy53voM7i8kJHgtp3TI42XgFUTTS4GDmhQUFq
qQIhAO8ndzxbswCuw3aIE9/oN80/Fr1ZJYMqwxPA8EZRbb/q
-----END CERTIFICATE-----
