Certificate:
    Data:
        Version: 3 (0x2)
        Serial Number:
            fc:8a:16:73:6e:d4:28:5b:52:ec:08:4c
        Signature Algorithm: ecdsa-with-SHA256
        Issuer: CN = Lint CA, O = Lint, C = DE
        Validity
            Not Before: Sep 15 00:00:00 2023 GMT
            Not After : Sep 15 00:00:00 2024 GMT
        Subject: C = PrintableString
        Subject Public Key Info:
            Public Key Algorithm: id-ecPublicKey
                Public-Key: (256 bit)
                pub:
                    04:35:7d:f8:9a:89:7d:6c:1c:d1:c8:e2:97:09:9f:
                    6f:2a:df:55:30:97:06:3d:06:59:94:66:92:da:3e:
                    f1:7d:5e:1f:22:3c:39:ed:f1:70:24:5e:7d:15:2a:
                    e0:fc:6f:8b:69:86:5c:b4:dc:11:fe:61:3f:41:71:
                    1d:c5:60:2b:14
                ASN1 OID: prime256v1
                NIST CURVE: P-256
        X509v3 extensions:
            X509v3 Certificate Policies: 
                Policy: 2.23.140.1.2.1

    Signature Algorithm: ecdsa-with-SHA256
         30:46:02:21:00:c4:d4:22:13:8d:22:8f:b2:bf:e6:0a:cd:61:
         d8:bd:5c:9a:07:bb:88:4a:dd:6c:55:b0:09:30:fa:53:e0:fd:
         e8:02:21:00:9a:42:16:de:fb:6f:50:ba:7a:5b:14:24:b4:cd:
         d7:9f:91:0f:44:2d:88:9f:5f:20:38:c5:60:a1:70:ff:ae:84
-----BEGIN CERTIFICATE-----
MIIBWzCCAQCgAwIBAgINAPyKFnNu1ChbUuwITDAKBggqhkjOPQQDAjAuMRAwDgYD
VQQDDAdMaW50IENBMQ0wCwYDVQQKDARMaW50MQswCQYDVQQGEwJERTAeFw0yMzA5
MTUwMDAwMDBaFw0yNDA5MTUwMDAwMDBaMBoxGDAWBgNVBAYTD1ByaW50YWJsZVN0
cmluZzBZMBMGByqGSM49AgEGCCqGSM49AwEHA0IABDV9+JqJfWwc0cjilwmfbyrf
VTCXBj0GWZRmkto+8X1eHyI8Oe3xcCRefRUq4Pxvi2mGXLTcEf5hP0FxHcVgKxSj
FzAVMBMGA1UdIAQMMAowCAYGZ4EMAQIBMAoGCCqGSM49BAMCA0kAMEYCIQDE1CIT
jSKPsr/mCs1h2L1cmge7iErdbFWwCTD6U+D96AIhAJpCFt77b1C6elsUJLTN15+R
D0QtiJ9fIDjFYKFw/66E
-----END CERTIFICATE-----
