Certificate:
    Data:
        Version: 3 (0x2)
        Serial Number: 3991351525678630817 (0x37642110c5c9c7a1)
        Signature Algorithm: sha256WithRSAEncryption
        Issuer: C = IT, ST = Milano, L = Santa Redegonda, O = Certificati Gratis S.p.A., CN = Certificati Gratis CA
        Validity
            Not Before: Mar  8 13:34:00 2024 GMT
            Not After : Mar  8 08:50:00 2025 GMT
        Subject: C = IT, ST = Milano, L = Milano, SN = Flash, GN = Gordon, CN = example.org
        Subject Public Key Info:
            Public Key Algorithm: rsaEncryption
                RSA Public-Key: (2048 bit)
                Modulus:
                    00:c1:0a:81:60:21:e7:7b:a3:ec:6f:e4:e0:fc:2f:
                    61:47:88:69:01:58:9b:a3:89:98:0b:42:17:47:87:
                    87:b2:0e:1f:74:22:28:e5:cf:9a:d2:7f:26:db:4f:
                    1d:e8:8d:19:fa:cd:e6:dd:4c:c0:da:38:93:f6:bf:
                    e8:f4:9d:1f:00:c8:bf:cb:f5:4f:b0:fa:c3:24:ce:
                    2f:04:3b:fa:27:dd:8c:3b:f7:44:09:89:16:19:0e:
                    95:0a:8d:eb:0e:54:3f:81:c0:e7:62:b0:d9:6b:5a:
                    89:93:78:08:db:8c:18:3d:24:81:6b:2e:b9:ff:0d:
                    5a:71:24:b7:53:1f:c2:96:57:cd:49:98:b6:21:35:
                    47:6b:83:19:2d:a9:4b:e2:17:a2:bd:1e:ab:16:4f:
                    d4:9a:9b:01:d8:e1:bf:d5:27:75:f2:09:78:63:1b:
                    24:5e:2d:fe:66:fa:32:96:60:51:9c:46:0e:0b:aa:
                    e8:57:22:d4:16:38:11:96:d0:fe:63:56:f1:e8:7e:
                    eb:99:75:ce:4b:d2:e2:f9:71:26:62:31:2a:03:5d:
                    b4:d4:04:fb:33:9f:34:de:a1:39:85:cf:48:d0:a1:
                    16:d5:95:c7:20:38:ba:24:d9:de:98:31:01:0b:1c:
                    be:6e:bb:16:0d:f5:06:42:27:82:49:57:32:f3:67:
                    02:ab
                Exponent: 65537 (0x10001)
        X509v3 extensions:
            X509v3 Extended Key Usage: 
                TLS Web Server Authentication
    Signature Algorithm: sha256WithRSAEncryption
         a7:1d:bd:b0:9e:f1:16:d7:ec:76:90:d4:97:37:dd:d4:64:f7:
         4f:fe:2e:31:83:a9:9f:3f:d3:d6:49:f6:d3:0a:89:06:8e:dc:
         25:4c:3c:c9:0b:04:69:b3:f3:1c:2a:38:28:71:89:7d:5a:04:
         b4:c9:1e:e7:03:45:7c:ed:04:f1:1e:0f:95:f4:fa:e8:04:0c:
         25:1b:05:34:85:ab:e8:b2:7e:aa:9b:1a:45:ae:d4:24:d6:ae:
         77:ab:11:9c:2c:fd:a7:63:3f:30:52:85:ae:3d:7c:b6:9b:e6:
         d3:b0:b2:6c:d7:4d:1d:89:b5:9b:b3:c3:2d:1c:24:38:ca:4c:
         f4:fb:70:bf:86:bb:a2:e6:85:0e:4e:70:90:62:dc:6d:86:83:
         b9:43:5d:6a:bb:79:88:8a:cb:ac:dc:28:91:5b:6e:d3:06:81:
         a5:d0:36:52:d7:49:b4:3c:f5:d2:8d:ac:1a:9d:80:e7:1e:42:
         13:ce:2d:ef:ea:ed:6e:8a:28:e7:5e:a2:57:22:a7:a5:21:67:
         42:43:47:9e:a0:a8:50:e9:0f:f5:32:37:a0:2f:42:66:c8:6b:
         0a:d8:ac:18:19:67:7e:e5:45:9a:1d:f5:5b:4a:91:2d:07:d0:
         af:fc:3e:35:91:f4:e8:41:b4:ec:5b:7f:41:1c:f7:04:6e:78:
         8f:bc:79:47:c5:59:a7:98:35:c3:19:3a:06:f0:53:0f:e1:e7:
         2b:28:40:ac:c0:09:2f:42:43:0c:56:23:09:62:06:e9:c2:0f:
         27:6b:90:09:8a:fe:6a:ed:c3:cb:ba:4c:be:0c:af:a4:30:5c:
         60:90:ba:41:fa:8b:fc:39:ad:95:2f:81:8b:e9:ba:d8:db:1f:
         e9:95:47:a5:90:d7:2a:b9:48:e3:e9:16:59:2a:ae:7e:0c:e6:
         ff:0c:f3:e5:91:15:b3:97:fc:46:93:ec:a1:e3:93:5f:e5:4c:
         3a:ed:8b:a6:f1:f3:b6:c9:af:41:fa:23:2d:e6:1c:96:a0:48:
         86:1a:9d:99:e4:68:0b:3b:33:94:3d:98:c1:1f:c8:48:81:32:
         6a:7c:c6:51:06:a0:72:bd:8a:00:13:0a:c6:17:46:e4:3c:44:
         42:d8:ee:c2:03:34:cf:3e:21:13:c9:4f:ab:27:de:1c:bb:d3:
         44:a3:d9:fc:8c:ea:62:20:ee:d3:7f:2c:1f:1b:40:6e:d2:af:
         fb:81:af:52:39:34:41:e3:99:ce:f5:04:c2:a5:97:eb:16:18:
         c6:fd:46:46:97:6a:26:1b:7a:18:27:47:f2:3a:b1:bd:f1:21:
         67:a6:98:e5:6f:b9:d6:c1:11:cb:ce:ee:43:32:f3:31:b3:35:
         d3:c8:1d:4a:97:d0:e7:16
-----BEGIN CERTIFICATE-----
MIIEezCCAmOgAwIBAgIIN2QhEMXJx6EwDQYJKoZIhvcNAQELBQAwfDELMAkGA1UE
BhMCSVQxDzANBgNVBAgTBk1pbGFubzEYMBYGA1UEBxMPU2FudGEgUmVkZWdvbmRh
MSIwIAYDVQQKExlDZXJ0aWZpY2F0aSBHcmF0aXMgUy5wLkEuMR4wHAYDVQQDExVD
ZXJ0aWZpY2F0aSBHcmF0aXMgQ0EwHhcNMjQwMzA4MTMzNDAwWhcNMjUwMzA4MDg1
MDAwWjBmMQswCQYDVQQGEwJJVDEPMA0GA1UECBMGTWlsYW5vMQ8wDQYDVQQHEwZN
aWxhbm8xDjAMBgNVBAQTBUZsYXNoMQ8wDQYDVQQqEwZHb3Jkb24xFDASBgNVBAMT
C2V4YW1wbGUub3JnMIIBIjANBgkqhkiG9w0BAQEFAAOCAQ8AMIIBCgKCAQEAwQqB
YCHne6Psb+Tg/C9hR4hpAVibo4mYC0IXR4eHsg4fdCIo5c+a0n8m208d6I0Z+s3m
3UzA2jiT9r/o9J0fAMi/y/VPsPrDJM4vBDv6J92MO/dECYkWGQ6VCo3rDlQ/gcDn
YrDZa1qJk3gI24wYPSSBay65/w1acSS3Ux/CllfNSZi2ITVHa4MZLalL4heivR6r
Fk/UmpsB2OG/1Sd18gl4YxskXi3+ZvoylmBRnEYOC6roVyLUFjgRltD+Y1bx6H7r
mXXOS9Li+XEmYjEqA1201AT7M5803qE5hc9I0KEW1ZXHIDi6JNnemDEBCxy+brsW
DfUGQieCSVcy82cCqwIDAQABoxcwFTATBgNVHSUEDDAKBggrBgEFBQcDATANBgkq
hkiG9w0BAQsFAAOCAgEApx29sJ7xFtfsdpDUlzfd1GT3T/4uMYOpnz/T1kn20wqJ
Bo7cJUw8yQsEabPzHCo4KHGJfVoEtMke5wNFfO0E8R4PlfT66AQMJRsFNIWr6LJ+
qpsaRa7UJNaud6sRnCz9p2M/MFKFrj18tpvm07CybNdNHYm1m7PDLRwkOMpM9Ptw
v4a7ouaFDk5wkGLcbYaDuUNdart5iIrLrNwokVtu0waBpdA2UtdJtDz10o2sGp2A
5x5CE84t7+rtbooo516iVyKnpSFnQkNHnqCoUOkP9TI3oC9CZshrCtisGBlnfuVF
mh31W0qRLQfQr/w+NZH06EG07Ft/QRz3BG54j7x5R8VZp5g1wxk6BvBTD+HnKyhA
rMAJL0JDDFYjCWIG6cIPJ2uQCYr+au3Dy7pMvgyvpDBcYJC6QfqL/DmtlS+Bi+m6
2Nsf6ZVHpZDXKrlI4+kWWSqufgzm/wzz5ZEVs5f8RpPsoeOTX+VMOu2LpvHztsmv
QfojLeYclqBIhhqdmeRoCzszlD2YwR/ISIEyanzGUQagcr2KABMKxhdG5DxEQtju
wgM0zz4hE8lPqyfeHLvTRKPZ/IzqYiDu038sHxtAbtKv+4GvUjk0QeOZzvUEwqWX
6xYYxv1GRpdqJht6GCdH8jqxvfEhZ6aY5W+51sERy87uQzLzMbM108gdSpfQ5xY=
-----END CERTIFICATE-----
