Certificate:
    Data:
        Version: 3 (0x2)
        Serial Number:
            03:7b:4c:a4:c9:81:9e:65:a5:05:25:17:ed:fa:93:e3:6b:11
        Signature Algorithm: sha256WithRSAEncryption
        Issuer: C = US, O = Let's Encrypt, CN = Let's Encrypt Authority X3
        Validity
            Not Before: Mar 12 22:28:26 2018 GMT
            Not After : Jun 10 22:28:26 2018 GMT
        Subject: CN = *.b4a87c.aws.radiantlock.org
        Subject Public Key Info:
            Public Key Algorithm: rsaEncryption
                RSA Public-Key: (2048 bit)
                Modulus:
                    00:fc:11:7b:d2:73:6c:2f:fc:11:6c:2d:ce:85:ae:
                    49:80:78:13:fe:d4:1c:4f:ed:d2:94:43:c9:35:e7:
                    5b:1f:ed:f5:e5:18:72:f8:1d:e9:93:d2:07:9e:6c:
                    0f:dc:6b:4f:73:8d:f0:2e:b5:c8:e8:11:a9:79:f2:
                    fd:c4:08:55:8c:a3:ad:a4:69:32:5f:88:b8:b8:9f:
                    e5:74:a3:e5:b0:db:8b:58:fb:b3:07:2a:67:14:79:
                    84:5e:c4:b7:32:9e:1d:ad:75:0e:14:51:f9:4d:aa:
                    1e:02:80:d8:41:9a:90:46:fc:de:2e:40:2b:df:b8:
                    ce:07:5d:64:2c:9d:ca:36:6a:22:5d:d4:96:ab:9c:
                    e0:14:6e:c7:2f:9b:43:ad:54:cd:44:be:57:e4:40:
                    ac:0a:ea:19:12:4d:b8:d7:e8:ce:ea:83:5b:bf:91:
                    2e:d2:04:19:3c:60:7c:fb:fa:5e:a5:17:e8:61:e0:
                    3d:a3:d3:3d:fa:c3:d6:5f:b7:6c:c4:8a:be:e3:90:
                    2f:c6:28:08:21:bd:33:fc:8c:09:fc:26:db:16:ab:
                    a8:ca:59:bc:66:e8:d3:98:28:d9:2d:86:78:d0:cb:
                    61:2c:3b:5a:dc:a5:5a:e9:20:9d:45:08:12:68:51:
                    61:58:ea:35:37:9b:81:12:67:78:73:37:cd:5f:41:
                    65:3b
                Exponent: 65537 (0x10001)
        X509v3 extensions:
            X509v3 Key Usage: critical
                Digital Signature, Key Encipherment
            X509v3 Extended Key Usage: 
                TLS Web Server Authentication, TLS Web Client Authentication
            X509v3 Basic Constraints: critical
                CA:FALSE
            X509v3 Subject Key Identifier: 
                FC:B3:85:E4:D7:4B:01:38:66:0B:42:DB:CF:04:4A:2D:95:F6:89:11
            X509v3 Authority Key Identifier: 
                keyid:A8:4A:6A:63:04:7D:DD:BA:E6:D1:39:B7:A6:45:65:EF:F3:A8:EC:A1

            Authority Information Access: 
                OCSP - URI:http://ocsp.int-x3.letsencrypt.org
                CA Issuers - URI:http://cert.int-x3.letsencrypt.org/

            X509v3 Subject Alternative Name: 
                DNS:*.b4a87c.aws.radiantlock.org, DNS:b4a87c.aws.radiantlock.org
            X509v3 Certificate Policies: 
                Policy: 2.23.140.1.2.1
                Policy: 1.3.6.1.4.1.44947.1.1.1
                  CPS: http://cps.letsencrypt.org
                  User Notice:
                    Explicit Text: This Certificate may only be relied upon by Relying Parties and only in accordance with the Certificate Policy found at https://letsencrypt.org/repository/

    Signature Algorithm: sha256WithRSAEncryption
         47:67:24:53:f2:0b:b1:12:d7:b8:fb:b2:93:7f:52:0a:80:47:
         2f:e4:45:e3:25:2a:ff:e0:cb:9d:1e:c5:c0:65:e2:d3:f0:02:
         d5:92:93:48:27:be:c9:af:99:f6:d1:fc:57:db:83:b5:5e:25:
         fa:a4:14:46:71:68:08:c5:68:9b:b6:f0:0b:69:db:80:03:1a:
         2e:f6:e7:07:fa:8e:75:61:07:1b:6a:9b:05:c0:be:11:cf:be:
         d0:69:2e:32:dc:ac:19:d2:9c:1a:02:07:05:e4:08:3f:80:30:
         34:7c:ef:d2:32:1f:27:0b:ea:ef:22:79:e5:51:4c:0d:67:1e:
         11:fd:ef:83:07:ec:fe:3f:d0:cd:5f:09:b1:ee:6c:02:0f:d0:
         91:c1:90:9a:b3:53:76:a6:fc:a8:e7:f6:98:e5:d8:bd:e9:dd:
         d3:7b:00:7b:cf:3e:7c:26:54:a9:04:8b:87:00:c1:d2:31:21:
         52:fb:59:0f:f8:ed:23:db:40:6b:69:50:e5:bd:25:42:30:08:
         e2:e7:a2:2b:36:bd:4d:e7:44:6f:8e:99:5f:7e:b0:d2:71:1a:
         d6:e2:c9:d5:3a:41:22:81:94:f8:d4:41:e5:45:8f:24:dd:65:
         f1:dd:7c:08:55:9e:da:10:dd:44:3c:5a:85:28:02:b6:f4:9d:
         7e:92:e8:a6
-----BEGIN CERTIFICATE-----
MIIFNzCCBB+gAwIBAgISA3tMpMmBnmWlBSUX7fqT42sRMA0GCSqGSIb3DQEBCwUA
MEoxCzAJBgNVBAYTAlVTMRYwFAYDVQQKEw1MZXQncyBFbmNyeXB0MSMwIQYDVQQD
ExpMZXQncyBFbmNyeXB0IEF1dGhvcml0eSBYMzAeFw0xODAzMTIyMjI4MjZaFw0x
ODA2MTAyMjI4MjZaMCcxJTAjBgNVBAMTHCouYjRhODdjLmF3cy5yYWRpYW50bG9j
ay5vcmcwggEiMA0GCSqGSIb3DQEBAQUAA4IBDwAwggEKAoIBAQD8EXvSc2wv/BFs
Lc6FrkmAeBP+1BxP7dKUQ8k151sf7fXlGHL4HemT0geebA/ca09zjfAutcjoEal5
8v3ECFWMo62kaTJfiLi4n+V0o+Ww24tY+7MHKmcUeYRexLcynh2tdQ4UUflNqh4C
gNhBmpBG/N4uQCvfuM4HXWQsnco2aiJd1JarnOAUbscvm0OtVM1EvlfkQKwK6hkS
TbjX6M7qg1u/kS7SBBk8YHz7+l6lF+hh4D2j0z36w9Zft2zEir7jkC/GKAghvTP8
jAn8JtsWq6jKWbxm6NOYKNkthnjQy2EsO1rcpVrpIJ1FCBJoUWFY6jU3m4ESZ3hz
N81fQWU7AgMBAAGjggI4MIICNDAOBgNVHQ8BAf8EBAMCBaAwHQYDVR0lBBYwFAYI
KwYBBQUHAwEGCCsGAQUFBwMCMAwGA1UdEwEB/wQCMAAwHQYDVR0OBBYEFPyzheTX
SwE4ZgtC288ESi2V9okRMB8GA1UdIwQYMBaAFKhKamMEfd265tE5t6ZFZe/zqOyh
MG8GCCsGAQUFBwEBBGMwYTAuBggrBgEFBQcwAYYiaHR0cDovL29jc3AuaW50LXgz
LmxldHNlbmNyeXB0Lm9yZzAvBggrBgEFBQcwAoYjaHR0cDovL2NlcnQuaW50LXgz
LmxldHNlbmNyeXB0Lm9yZy8wQwYDVR0RBDwwOoIcKi5iNGE4N2MuYXdzLnJhZGlh
bnRsb2NrLm9yZ4IaYjRhODdjLmF3cy5yYWRpYW50bG9jay5vcmcwgf4GA1UdIASB
9jCB8zAIBgZngQwBAgEwgeYGCysGAQQBgt8TAQEBMIHWMCYGCCsGAQUFBwIBFhpo
dHRwOi8vY3BzLmxldHNlbmNyeXB0Lm9yZzCBqwYIKwYBBQUHAgIwgZ4MgZtUaGlz
IENlcnRpZmljYXRlIG1heSBvbmx5IGJlIHJlbGllZCB1cG9uIGJ5IFJlbHlpbmcg
UGFydGllcyBhbmQgb25seSBpbiBhY2NvcmRhbmNlIHdpdGggdGhlIENlcnRpZmlj
YXRlIFBvbGljeSBmb3VuZCBhdCBodHRwczovL2xldHNlbmNyeXB0Lm9yZy9yZXBv
c2l0b3J5LzANBgkqhkiG9w0BAQsFAAOCAQEAR2ckU/ILsRLXuPuyk39SCoBHL+RF
4yUq/+DLnR7FwGXi0/AC1ZKTSCe+ya+Z9tH8V9uDtV4l+qQURnFoCMVom7bwC2nb
gAMaLvbnB/qOdWEHG2qbBcC+Ec++0GkuMtysGdKcGgIHBeQIP4AwNHzv0jIfJwvq
7yJ55VFMDWceEf3vgwfs/j/QzV8Jse5sAg/QkcGQmrNTdqb8qOf2mOXYvend03sA
e88+fCZUqQSLhwDB0jEhUvtZD/jtI9tAa2lQ5b0lQjAI4ueiKza9TedEb46ZX36w
0nEa1uLJ1TpBIoGU+NRB5UWPJN1l8d18CFWe2hDdRDxahSgCtvSdfpLopg==
-----END CERTIFICATE-----
