Certificate:
    Data:
        Version: 3 (0x2)
        Serial Number: 766384265038364412 (0xaa2be6db70f7efc)
        Signature Algorithm: sha256WithRSAEncryption
        Issuer: C = IT, ST = Milano, L = Santa Redegonda, O = Certificati Gratis S.p.A., CN = Certificati Gratis CA
        Validity
            Not Before: Mar  8 13:59:00 2024 GMT
            Not After : Mar  8 08:50:00 2025 GMT
        Subject: CN = example.org, O = Example, L = Milano, ST = Milano, C = IT
        Subject Public Key Info:
            Public Key Algorithm: rsaEncryption
                RSA Public-Key: (2048 bit)
                Modulus:
                    00:c1:0a:81:60:21:e7:7b:a3:ec:6f:e4:e0:fc:2f:
                    61:47:88:69:01:58:9b:a3:89:98:0b:42:17:47:87:
                    87:b2:0e:1f:74:22:28:e5:cf:9a:d2:7f:26:db:4f:
                    1d:e8:8d:19:fa:cd:e6:dd:4c:c0:da:38:93:f6:bf:
                    e8:f4:9d:1f:00:c8:bf:cb:f5:4f:b0:fa:c3:24:ce:
                    2f:04:3b:fa:27:dd:8c:3b:f7:44:09:89:16:19:0e:
                    95:0a:8d:eb:0e:54:3f:81:c0:e7:62:b0:d9:6b:5a:
                    89:93:78:08:db:8c:18:3d:24:81:6b:2e:b9:ff:0d:
                    5a:71:24:b7:53:1f:c2:96:57:cd:49:98:b6:21:35:
                    47:6b:83:19:2d:a9:4b:e2:17:a2:bd:1e:ab:16:4f:
                    d4:9a:9b:01:d8:e1:bf:d5:27:75:f2:09:78:63:1b:
                    24:5e:2d:fe:66:fa:32:96:60:51:9c:46:0e:0b:aa:
                    e8:57:22:d4:16:38:11:96:d0:fe:63:56:f1:e8:7e:
                    eb:99:75:ce:4b:d2:e2:f9:71:26:62:31:2a:03:5d:
                    b4:d4:04:fb:33:9f:34:de:a1:39:85:cf:48:d0:a1:
                    16:d5:95:c7:20:38:ba:24:d9:de:98:31:01:0b:1c:
                    be:6e:bb:16:0d:f5:06:42:27:82:49:57:32:f3:67:
                    02:ab
                Exponent: 65537 (0x10001)
        X509v3 extensions:
            X509v3 Extended Key Usage: 
                TLS Web Server Authentication
    Signature Algorithm: sha256WithRSAEncryption
         0a:eb:9d:c0:96:17:e6:9b:d4:49:91:07:f4:30:3f:f4:89:49:
         d0:85:e3:45:94:13:2d:d7:e6:fd:9b:1c:76:9f:80:d6:2b:98:
         de:46:f5:bd:a4:95:06:d5:4d:45:f2:1a:b2:a8:ec:9f:d5:77:
         8a:70:af:d9:3f:e4:77:f0:ae:d9:de:6d:86:68:5b:1d:1e:a6:
         f4:2e:f0:a9:c9:a8:a6:cf:f6:03:d2:c5:d1:87:a1:d0:77:1c:
         93:9d:f3:22:90:00:16:83:9f:8d:ac:fb:f1:17:45:12:f3:28:
         f0:6a:d3:67:d7:7c:6b:13:18:98:3b:13:31:c1:83:c5:63:9b:
         4d:19:cd:bb:da:32:89:e4:c8:b3:60:bf:0c:86:58:8e:51:04:
         c9:4d:fa:f6:02:9b:2a:8a:d3:bc:26:92:24:84:1e:36:37:f0:
         27:78:6b:48:8a:18:07:95:6c:99:00:37:b3:37:46:e2:f4:01:
         f9:b5:f9:76:a2:78:d4:2e:44:71:ba:36:87:b4:19:43:7d:ce:
         a2:bd:b9:69:f8:ea:56:c0:e2:d6:55:89:c6:80:3c:0a:bb:1f:
         5e:3d:9a:bd:f1:f8:b9:92:84:6e:22:da:d2:a8:01:17:33:1c:
         44:a6:0d:22:20:e1:f7:5e:42:60:06:9e:dc:5a:3b:3e:63:b8:
         d8:db:0a:e8:bf:32:ca:bb:34:fd:d2:a5:27:89:af:46:af:2d:
         5b:e4:4c:f5:c6:e2:d1:a1:60:4f:e6:50:63:4f:9d:87:c2:e4:
         65:6d:4c:15:fa:60:84:c8:d5:f1:47:60:48:9a:e7:dc:70:1c:
         67:78:b4:e2:3d:3d:0b:7f:3f:33:32:dd:0a:dc:97:30:c0:d9:
         5b:0f:7c:a5:c7:70:23:64:b5:7c:0c:ba:67:67:71:b9:28:53:
         28:08:c6:1a:ae:d1:69:4f:aa:39:78:57:fd:02:50:de:de:73:
         a9:51:f0:d2:4b:e9:9e:20:fd:96:55:70:37:5c:55:11:c1:a8:
         2b:1a:c1:4e:30:f5:b0:7d:09:3b:2b:4b:e6:73:d0:ca:d2:80:
         01:bd:57:81:e0:6b:4b:04:27:a8:fe:27:cb:d0:37:2b:78:1d:
         c6:71:f1:ec:0e:b1:ac:db:d5:bb:d0:e2:94:84:04:a0:23:d0:
         2e:29:49:77:92:36:d1:8b:d2:aa:02:af:ca:8b:f4:0c:54:fa:
         b3:56:90:a8:2a:54:ad:b2:2f:c5:8d:2c:7d:c5:55:99:d7:51:
         c8:6d:a4:60:60:79:3f:f1:56:06:1b:a8:71:0d:8b:5f:b7:f7:
         be:81:19:15:67:3d:c8:4b:8d:d0:90:2a:d6:d1:a4:c0:d8:9a:
         79:b9:1a:1b:92:40:ab:7c
-----BEGIN CERTIFICATE-----
MIIEbDCCAlSgAwIBAgIICqK+bbcPfvwwDQYJKoZIhvcNAQELBQAwfDELMAkGA1UE
BhMCSVQxDzANBgNVBAgTBk1pbGFubzEYMBYGA1UEBxMPU2FudGEgUmVkZWdvbmRh
MSIwIAYDVQQKExlDZXJ0aWZpY2F0aSBHcmF0aXMgUy5wLkEuMR4wHAYDVQQDExVD
ZXJ0aWZpY2F0aSBHcmF0aXMgQ0EwHhcNMjQwMzA4MTM1OTAwWhcNMjUwMzA4MDg1
MDAwWjBXMRQwEgYDVQQDEwtleGFtcGxlLm9yZzEQMA4GA1UEChMHRXhhbXBsZTEP
MA0GA1UEBxMGTWlsYW5vMQ8wDQYDVQQIEwZNaWxhbm8xCzAJBgNVBAYTAklUMIIB
IjANBgkqhkiG9w0BAQEFAAOCAQ8AMIIBCgKCAQEAwQqBYCHne6Psb+Tg/C9hR4hp
AVibo4mYC0IXR4eHsg4fdCIo5c+a0n8m208d6I0Z+s3m3UzA2jiT9r/o9J0fAMi/
y/VPsPrDJM4vBDv6J92MO/dECYkWGQ6VCo3rDlQ/gcDnYrDZa1qJk3gI24wYPSSB
ay65/w1acSS3Ux/CllfNSZi2ITVHa4MZLalL4heivR6rFk/UmpsB2OG/1Sd18gl4
YxskXi3+ZvoylmBRnEYOC6roVyLUFjgRltD+Y1bx6H7rmXXOS9Li+XEmYjEqA120
1AT7M5803qE5hc9I0KEW1ZXHIDi6JNnemDEBCxy+brsWDfUGQieCSVcy82cCqwID
AQABoxcwFTATBgNVHSUEDDAKBggrBgEFBQcDATANBgkqhkiG9w0BAQsFAAOCAgEA
CuudwJYX5pvUSZEH9DA/9IlJ0IXjRZQTLdfm/Zscdp+A1iuY3kb1vaSVBtVNRfIa
sqjsn9V3inCv2T/kd/Cu2d5thmhbHR6m9C7wqcmops/2A9LF0Yeh0Hcck53zIpAA
FoOfjaz78RdFEvMo8GrTZ9d8axMYmDsTMcGDxWObTRnNu9oyieTIs2C/DIZYjlEE
yU369gKbKorTvCaSJIQeNjfwJ3hrSIoYB5VsmQA3szdG4vQB+bX5dqJ41C5Ecbo2
h7QZQ33Oor25afjqVsDi1lWJxoA8CrsfXj2avfH4uZKEbiLa0qgBFzMcRKYNIiDh
915CYAae3Fo7PmO42NsK6L8yyrs0/dKlJ4mvRq8tW+RM9cbi0aFgT+ZQY0+dh8Lk
ZW1MFfpghMjV8UdgSJrn3HAcZ3i04j09C38/MzLdCtyXMMDZWw98pcdwI2S1fAy6
Z2dxuShTKAjGGq7RaU+qOXhX/QJQ3t5zqVHw0kvpniD9llVwN1xVEcGoKxrBTjD1
sH0JOytL5nPQytKAAb1XgeBrSwQnqP4ny9A3K3gdxnHx7A6xrNvVu9DilIQEoCPQ
LilJd5I20YvSqgKvyov0DFT6s1aQqCpUrbIvxY0sfcVVmddRyG2kYGB5P/FWBhuo
cQ2LX7f3voEZFWc9yEuN0JAq1tGkwNiaebkaG5JAq3w=
-----END CERTIFICATE-----
