Certificate:
    Data:
        Version: 3 (0x2)
        Serial Number:
            fb:92:dd:31:92:cd:49:21:21:54:22:d6
        Signature Algorithm: ecdsa-with-SHA256
        Issuer: CN = Lint CA, O = Lint, C = DE
        Validity
            Not Before: Sep 15 00:00:00 2023 GMT
            Not After : Sep 15 00:00:00 2024 GMT
        Subject: organizationIdentifier = UTF8String, organizationIdentifier = PrintableString
        Subject Public Key Info:
            Public Key Algorithm: id-ecPublicKey
                Public-Key: (256 bit)
                pub:
                    04:35:7d:f8:9a:89:7d:6c:1c:d1:c8:e2:97:09:9f:
                    6f:2a:df:55:30:97:06:3d:06:59:94:66:92:da:3e:
                    f1:7d:5e:1f:22:3c:39:ed:f1:70:24:5e:7d:15:2a:
                    e0:fc:6f:8b:69:86:5c:b4:dc:11:fe:61:3f:41:71:
                    1d:c5:60:2b:14
                ASN1 OID: prime256v1
                NIST CURVE: P-256
        X509v3 extensions:
            X509v3 Certificate Policies: 
                Policy: 2.23.140.1.2.1

    Signature Algorithm: ecdsa-with-SHA256
         30:44:02:20:33:3b:b9:c3:1a:90:70:96:96:08:0f:b5:0c:c4:
         d8:6e:46:19:9d:e4:d0:f9:f9:b3:db:2f:09:10:b6:d5:e8:a9:
         02:20:70:b9:ec:fd:ea:9d:50:b4:bf:c7:5f:75:eb:50:bd:6e:
         36:be:8c:3a:46:6a:94:ae:61:88:75:ae:37:c2:19:da
-----BEGIN CERTIFICATE-----
MIIBbjCCARWgAwIBAgINAPuS3TGSzUkhIVQi1jAKBggqhkjOPQQDAjAuMRAwDgYD
VQQDDAdMaW50IENBMQ0wCwYDVQQKDARMaW50MQswCQYDVQQGEwJERTAeFw0yMzA5
MTUwMDAwMDBaFw0yNDA5MTUwMDAwMDBaMC8xEzARBgNVBGEMClVURjhTdHJpbmcx
GDAWBgNVBGETD1ByaW50YWJsZVN0cmluZzBZMBMGByqGSM49AgEGCCqGSM49AwEH
A0IABDV9+JqJfWwc0cjilwmfbyrfVTCXBj0GWZRmkto+8X1eHyI8Oe3xcCRefRUq
4Pxvi2mGXLTcEf5hP0FxHcVgKxSjFzAVMBMGA1UdIAQMMAowCAYGZ4EMAQIBMAoG
CCqGSM49BAMCA0cAMEQCIDM7ucMakHCWlggPtQzE2G5GGZ3k0Pn5s9svCRC21eip
AiBwuez96p1QtL/HX3XrUL1uNr6MOkZqlK5hiHWuN8IZ2g==
-----END CERTIFICATE-----
