Certificate:
    Data:
        Version: 3 (0x2)
        Serial Number: 2032570151512653799 (0x1c3523c8a5f93fe7)
        Signature Algorithm: sha256WithRSAEncryption
        Issuer: C = IT, ST = Milano, L = Santa Redegonda, O = Certificati Gratis S.p.A., CN = Certificati Gratis CA
        Validity
            Not Before: Mar  8 13:44:00 2024 GMT
            Not After : Mar  8 08:50:00 2025 GMT
        Subject: CN = example.org
        Subject Public Key Info:
            Public Key Algorithm: rsaEncryption
                RSA Public-Key: (2048 bit)
                Modulus:
                    00:c1:0a:81:60:21:e7:7b:a3:ec:6f:e4:e0:fc:2f:
                    61:47:88:69:01:58:9b:a3:89:98:0b:42:17:47:87:
                    87:b2:0e:1f:74:22:28:e5:cf:9a:d2:7f:26:db:4f:
                    1d:e8:8d:19:fa:cd:e6:dd:4c:c0:da:38:93:f6:bf:
                    e8:f4:9d:1f:00:c8:bf:cb:f5:4f:b0:fa:c3:24:ce:
                    2f:04:3b:fa:27:dd:8c:3b:f7:44:09:89:16:19:0e:
                    95:0a:8d:eb:0e:54:3f:81:c0:e7:62:b0:d9:6b:5a:
                    89:93:78:08:db:8c:18:3d:24:81:6b:2e:b9:ff:0d:
                    5a:71:24:b7:53:1f:c2:96:57:cd:49:98:b6:21:35:
                    47:6b:83:19:2d:a9:4b:e2:17:a2:bd:1e:ab:16:4f:
                    d4:9a:9b:01:d8:e1:bf:d5:27:75:f2:09:78:63:1b:
                    24:5e:2d:fe:66:fa:32:96:60:51:9c:46:0e:0b:aa:
                    e8:57:22:d4:16:38:11:96:d0:fe:63:56:f1:e8:7e:
                    eb:99:75:ce:4b:d2:e2:f9:71:26:62:31:2a:03:5d:
                    b4:d4:04:fb:33:9f:34:de:a1:39:85:cf:48:d0:a1:
                    16:d5:95:c7:20:38:ba:24:d9:de:98:31:01:0b:1c:
                    be:6e:bb:16:0d:f5:06:42:27:82:49:57:32:f3:67:
                    02:ab
                Exponent: 65537 (0x10001)
        X509v3 extensions:
            X509v3 Extended Key Usage: 
                TLS Web Server Authentication
    Signature Algorithm: sha256WithRSAEncryption
         a1:49:74:57:6e:4d:64:95:5e:9e:a5:03:98:2a:87:e2:2d:3f:
         b5:c2:67:8d:d6:13:d2:ba:0f:c5:e0:8c:6b:fe:1a:66:49:7d:
         f3:c7:6c:ef:68:91:d7:0e:7b:a0:71:dd:9e:33:36:8a:04:09:
         c9:ce:ab:fb:c3:f2:39:82:e3:f3:44:17:b0:31:a4:8a:27:73:
         60:31:9f:de:7a:6a:8a:da:44:9e:70:e1:37:37:12:55:99:37:
         10:81:79:06:d0:7e:02:0d:8b:0d:8f:eb:1d:e3:08:9c:04:70:
         1b:31:f0:53:a6:08:3f:6c:20:8d:0b:51:eb:f4:96:7c:96:e6:
         54:34:86:bf:7e:75:c8:09:e7:ff:78:7c:35:69:ac:f1:0b:33:
         53:2c:3a:a1:66:05:35:61:81:82:4f:c8:2d:7d:a8:0e:04:76:
         49:20:c7:1e:85:c8:2d:c4:45:ae:0b:d2:d1:54:b2:3e:48:1c:
         e7:b5:fb:34:ae:dd:1e:4f:83:30:0a:18:82:47:2b:2c:ce:44:
         79:27:fc:a6:e9:08:a7:74:5c:c0:e2:9f:c4:2d:df:e8:9d:fb:
         e5:33:b2:06:26:9f:60:b6:eb:05:d0:21:de:e9:02:9a:79:5b:
         3e:29:db:f7:b5:73:89:d1:f6:d7:39:a4:45:0a:82:e9:c1:06:
         4d:2b:6d:fe:16:b3:4d:11:7e:12:2e:19:89:9e:05:1d:d5:ae:
         7b:17:3a:75:c7:3e:17:33:d4:35:23:63:20:bd:ea:6e:57:52:
         ba:d7:55:45:67:0b:b5:55:82:d1:f2:4f:20:21:b7:8a:49:7b:
         43:37:a7:5c:7c:1f:67:83:15:bf:ff:22:c8:da:06:8d:fb:11:
         06:7b:7c:b8:9b:2f:bf:0e:91:a7:c8:7e:e8:a9:68:6c:09:b5:
         f0:b9:86:ce:12:12:3d:ef:9f:45:1e:e0:b8:eb:23:d9:39:b3:
         7d:99:e9:92:3e:83:84:88:2d:ae:81:71:ff:af:20:a5:fd:ad:
         d3:00:40:64:fb:58:77:80:7a:07:7b:29:20:bc:9f:51:29:ad:
         72:72:8a:03:03:dd:c5:51:ec:f9:8f:a7:9e:2e:ad:3e:e9:b2:
         24:c7:af:46:81:01:0d:7a:f2:41:1b:b3:4d:97:52:ca:c0:e9:
         ed:74:c1:e3:27:d5:e3:48:55:1e:95:2a:25:b8:f8:c8:ba:8d:
         90:0a:6d:d1:ec:37:9e:63:04:d2:ae:33:aa:29:42:07:e7:37:
         be:24:be:be:65:30:cd:c2:e3:a0:b4:d5:bb:81:e1:03:7a:fd:
         91:96:2b:69:e9:e9:57:64:e1:52:19:fd:7c:8c:a7:a6:08:d8:
         6c:da:c3:8c:1d:0e:3e:35
-----BEGIN CERTIFICATE-----
MIIEKzCCAhOgAwIBAgIIHDUjyKX5P+cwDQYJKoZIhvcNAQELBQAwfDELMAkGA1UE
BhMCSVQxDzANBgNVBAgTBk1pbGFubzEYMBYGA1UEBxMPU2FudGEgUmVkZWdvbmRh
MSIwIAYDVQQKExlDZXJ0aWZpY2F0aSBHcmF0aXMgUy5wLkEuMR4wHAYDVQQDExVD
ZXJ0aWZpY2F0aSBHcmF0aXMgQ0EwHhcNMjQwMzA4MTM0NDAwWhcNMjUwMzA4MDg1
MDAwWjAWMRQwEgYDVQQDEwtleGFtcGxlLm9yZzCCASIwDQYJKoZIhvcNAQEBBQAD
ggEPADCCAQoCggEBAMEKgWAh53uj7G/k4PwvYUeIaQFYm6OJmAtCF0eHh7IOH3Qi
KOXPmtJ/JttPHeiNGfrN5t1MwNo4k/a/6PSdHwDIv8v1T7D6wyTOLwQ7+ifdjDv3
RAmJFhkOlQqN6w5UP4HA52Kw2WtaiZN4CNuMGD0kgWsuuf8NWnEkt1MfwpZXzUmY
tiE1R2uDGS2pS+IXor0eqxZP1JqbAdjhv9UndfIJeGMbJF4t/mb6MpZgUZxGDguq
6Fci1BY4EZbQ/mNW8eh+65l1zkvS4vlxJmIxKgNdtNQE+zOfNN6hOYXPSNChFtWV
xyA4uiTZ3pgxAQscvm67Fg31BkIngklXMvNnAqsCAwEAAaMXMBUwEwYDVR0lBAww
CgYIKwYBBQUHAwEwDQYJKoZIhvcNAQELBQADggIBAKFJdFduTWSVXp6lA5gqh+It
P7XCZ43WE9K6D8XgjGv+GmZJffPHbO9okdcOe6Bx3Z4zNooECcnOq/vD8jmC4/NE
F7AxpIonc2Axn956aoraRJ5w4Tc3ElWZNxCBeQbQfgINiw2P6x3jCJwEcBsx8FOm
CD9sII0LUev0lnyW5lQ0hr9+dcgJ5/94fDVprPELM1MsOqFmBTVhgYJPyC19qA4E
dkkgxx6FyC3ERa4L0tFUsj5IHOe1+zSu3R5PgzAKGIJHKyzORHkn/KbpCKd0XMDi
n8Qt3+id++UzsgYmn2C26wXQId7pApp5Wz4p2/e1c4nR9tc5pEUKgunBBk0rbf4W
s00RfhIuGYmeBR3VrnsXOnXHPhcz1DUjYyC96m5XUrrXVUVnC7VVgtHyTyAht4pJ
e0M3p1x8H2eDFb//IsjaBo37EQZ7fLibL78OkafIfuipaGwJtfC5hs4SEj3vn0Ue
4LjrI9k5s32Z6ZI+g4SILa6Bcf+vIKX9rdMAQGT7WHeAegd7KSC8n1EprXJyigMD
3cVR7PmPp54urT7psiTHr0aBAQ168kEbs02XUsrA6e10weMn1eNIVR6VKiW4+Mi6
jZAKbdHsN55jBNKuM6opQgfnN74kvr5lMM3C46C01buB4QN6/ZGWK2np6Vdk4VIZ
/XyMp6YI2Gzaw4wdDj41
-----END CERTIFICATE-----
