Certificate:
    Data:
        Version: 3 (0x2)
        Serial Number:
            a5:1b:98:5a:61:8e:fa:4e:1d:db:3a:ea
        Signature Algorithm: ecdsa-with-SHA256
        Issuer: CN = Lint CA, O = Lint, C = DE
        Validity
            Not Before: Sep 15 00:00:00 2023 GMT
            Not After : Sep 15 00:00:00 2024 GMT
        Subject: jurisdictionL = BMPString
        Subject Public Key Info:
            Public Key Algorithm: id-ecPublicKey
                Public-Key: (256 bit)
                pub:
                    04:35:7d:f8:9a:89:7d:6c:1c:d1:c8:e2:97:09:9f:
                    6f:2a:df:55:30:97:06:3d:06:59:94:66:92:da:3e:
                    f1:7d:5e:1f:22:3c:39:ed:f1:70:24:5e:7d:15:2a:
                    e0:fc:6f:8b:69:86:5c:b4:dc:11:fe:61:3f:41:71:
                    1d:c5:60:2b:14
                ASN1 OID: prime256v1
                NIST CURVE: P-256
        X509v3 extensions:
            X509v3 Certificate Policies: 
                Policy: 2.23.140.1.2.1

    Signature Algorithm: ecdsa-with-SHA256
         30:45:02:21:00:cf:38:54:96:6d:9f:aa:4e:54:b9:b5:17:e6:
         c5:33:d8:57:7d:62:b4:f3:06:16:ec:f2:a7:bd:45:a8:dc:cb:
         bf:02:20:22:3e:7a:37:19:30:58:58:4d:68:f6:66:66:94:51:
         e7:60:83:46:fd:68:6b:c6:1f:35:58:b5:8f:d9:91:f1:84
-----BEGIN CERTIFICATE-----
MIIBZTCCAQugAwIBAgINAKUbmFphjvpOHds66jAKBggqhkjOPQQDAjAuMRAwDgYD
VQQDDAdMaW50IENBMQ0wCwYDVQQKDARMaW50MQswCQYDVQQGEwJERTAeFw0yMzA5
MTUwMDAwMDBaFw0yNDA5MTUwMDAwMDBaMCUxIzAhBgsrBgEEAYI3PAIBAR4SAEIA
TQBQAFMAdAByAGkAbgBnMFkwEwYHKoZIzj0CAQYIKoZIzj0DAQcDQgAENX34mol9
bBzRyOKXCZ9vKt9VMJcGPQZZlGaS2j7xfV4fIjw57fFwJF59FSrg/G+LaYZctNwR
/mE/QXEdxWArFKMXMBUwEwYDVR0gBAwwCjAIBgZngQwBAgEwCgYIKoZIzj0EAwID
SAAwRQIhAM84VJZtn6pOVLm1F+bFM9hXfWK08wYW7PKnvUWo3Mu/AiAiPno3GTBY
WE1o9mZmlFHnYING/Whrxh81WLWP2ZHxhA==
-----END CERTIFICATE-----
