Certificate:
    Data:
        Version: 3 (0x2)
        Serial Number:
            a1:68:4b:d3:9f:d5:85:6f:62:65:e5
        Signature Algorithm: ecdsa-with-SHA256
        Issuer: CN = Lint CA, O = Lint, C = DE
        Validity
            Not Before: Sep 15 00:00:00 2023 GMT
            Not After : Sep 15 00:00:00 2024 GMT
        Subject: jurisdictionST = IA5String
        Subject Public Key Info:
            Public Key Algorithm: id-ecPublicKey
                Public-Key: (256 bit)
                pub:
                    04:35:7d:f8:9a:89:7d:6c:1c:d1:c8:e2:97:09:9f:
                    6f:2a:df:55:30:97:06:3d:06:59:94:66:92:da:3e:
                    f1:7d:5e:1f:22:3c:39:ed:f1:70:24:5e:7d:15:2a:
                    e0:fc:6f:8b:69:86:5c:b4:dc:11:fe:61:3f:41:71:
                    1d:c5:60:2b:14
                ASN1 OID: prime256v1
                NIST CURVE: P-256
        X509v3 extensions:
            X509v3 Certificate Policies: 
                Policy: 2.23.140.1.2.1

    Signature Algorithm: ecdsa-with-SHA256
         30:46:02:21:00:e0:47:84:22:ee:9d:fd:89:e5:c1:6b:5d:95:
         27:f3:23:30:44:9b:ff:c2:62:a4:eb:86:d8:01:17:73:1c:31:
         a1:02:21:00:d7:85:c0:a3:8a:2b:53:07:ec:63:10:15:74:c2:
         24:0b:62:6e:6f:24:46:d9:c7:de:a3:98:10:62:8f:a8:4e:f2
-----BEGIN CERTIFICATE-----
MIIBXDCCAQGgAwIBAgIMAKFoS9Of1YVvYmXlMAoGCCqGSM49BAMCMC4xEDAOBgNV
BAMMB0xpbnQgQ0ExDTALBgNVBAoMBExpbnQxCzAJBgNVBAYTAkRFMB4XDTIzMDkx
NTAwMDAwMFoXDTI0MDkxNTAwMDAwMFowHDEaMBgGCysGAQQBgjc8AgECFglJQTVT
dHJpbmcwWTATBgcqhkjOPQIBBggqhkjOPQMBBwNCAAQ1ffiaiX1sHNHI4pcJn28q
31UwlwY9BlmUZpLaPvF9Xh8iPDnt8XAkXn0VKuD8b4tphly03BH+YT9BcR3FYCsU
oxcwFTATBgNVHSAEDDAKMAgGBmeBDAECATAKBggqhkjOPQQDAgNJADBGAiEA4EeE
Iu6d/YnlwWtdlSfzIzBEm//CYqTrhtgBF3McMaECIQDXhcCjiitTB+xjEBV0wiQL
Ym5vJEbZx96jmBBij6hO8g==
-----END CERTIFICATE-----
