Certificate:
    Data:
        Version: 3 (0x2)
        Serial Number:
            0d:a9:b5:12:3e:f5:be:5c:fe:ea:79:c3:5a
        Signature Algorithm: sha256WithRSAEncryption
        Issuer: CN = Lint Sub CA, OU = Test, O = MTG, C = DE
        Validity
            Not Before: Aug 31 23:59:59 2022 GMT
            Not After : Sep 30 23:59:59 2022 GMT
        Subject: CN = lint.mtg.de, OU = Lint, O = MTG, L = Darmstadt, ST = Hesse, C = DE
        Subject Public Key Info:
            Public Key Algorithm: id-ecPublicKey
                Public-Key: (256 bit)
                pub:
                    04:db:74:f5:9c:dc:b1:1f:a6:35:be:e8:4c:76:63:
                    a6:1d:f3:75:33:e6:28:53:56:49:ac:42:b7:ed:df:
                    7f:80:43:c7:6b:a3:4d:2a:73:4c:0d:56:b1:02:39:
                    bf:26:b7:02:9d:e3:ec:34:18:7c:c7:61:cd:d3:ce:
                    3b:59:e7:61:a1
                ASN1 OID: prime256v1
                NIST CURVE: P-256
    Signature Algorithm: sha256WithRSAEncryption
         2d:50:ee:64:69:49:29:69:e8:30:6f:90:cd:d3:95:22:f3:41:
         32:4a:9d:5a:34:95:35:b9:9f:28:53:2d:f1:7b:08:e5:b5:12:
         fc:1a:26:51:8d:90:4b:b3:60:e4:ab:cf:b1:e4:b2:d5:23:de:
         1d:b1:44:33:10:45:cf:b5:9e:34:69:50:08:d1:32:8e:58:e2:
         2e:55:f5:9c:1d:f9:bb:c0:be:6d:c5:d1:4b:78:8b:9c:fc:53:
         c0:9c:c2:ed:b7:fe:2a:a2:84:95:69:8f:6c:62:2c:1f:fc:1c:
         cb:7b:dc:08:27:ac:f2:c3:d2:46:7c:a8:11:46:8d:3e:d1:a5:
         48:b9:d8:19:5a:b8:4d:e2:a8:cd:de:d4:d1:6c:9f:08:c9:2b:
         49:af:7a:52:e0:0f:d6:a4:9e:79:e0:14:d2:e0:8b:34:7f:02:
         bf:67:78:2a:89:1c:c9:02:c4:8a:14:83:68:72:62:83:5f:07:
         3c:07:fa:ed:26:e3:52:96:8e:7f:2e:97:e8:26:89:3d:84:4f:
         c0:3d:b6:6a:9b:d1:75:13:bd:49:e3:f4:b9:53:25:7d:f7:c7:
         13:59:91:15:be:f1:26:83:74:35:e5:20:9c:7f:2a:0e:b5:cf:
         22:fd:71:03:e7:ca:6c:b8:0b:57:e2:ad:90:98:bb:66:78:28:
         32:90:47:43
-----BEGIN CERTIFICATE-----
MIICXjCCAUagAwIBAgINDam1Ej71vlz+6nnDWjANBgkqhkiG9w0BAQsFADBAMRQw
EgYDVQQDDAtMaW50IFN1YiBDQTENMAsGA1UECwwEVGVzdDEMMAoGA1UECgwDTVRH
MQswCQYDVQQGEwJERTAeFw0yMjA4MzEyMzU5NTlaFw0yMjA5MzAyMzU5NTlaMGQx
FDASBgNVBAMMC2xpbnQubXRnLmRlMQ0wCwYDVQQLDARMaW50MQwwCgYDVQQKDANN
VEcxEjAQBgNVBAcMCURhcm1zdGFkdDEOMAwGA1UECAwFSGVzc2UxCzAJBgNVBAYT
AkRFMFkwEwYHKoZIzj0CAQYIKoZIzj0DAQcDQgAE23T1nNyxH6Y1vuhMdmOmHfN1
M+YoU1ZJrEK37d9/gEPHa6NNKnNMDVaxAjm/JrcCnePsNBh8x2HN0847WedhoTAN
BgkqhkiG9w0BAQsFAAOCAQEALVDuZGlJKWnoMG+QzdOVIvNBMkqdWjSVNbmfKFMt
8XsI5bUS/BomUY2QS7Ng5KvPseSy1SPeHbFEMxBFz7WeNGlQCNEyjljiLlX1nB35
u8C+bcXRS3iLnPxTwJzC7bf+KqKElWmPbGIsH/wcy3vcCCes8sPSRnyoEUaNPtGl
SLnYGVq4TeKozd7U0WyfCMkrSa96UuAP1qSeeeAU0uCLNH8Cv2d4KokcyQLEihSD
aHJig18HPAf67SbjUpaOfy6X6CaJPYRPwD22apvRdRO9SeP0uVMlfffHE1mRFb7x
JoN0NeUgnH8qDrXPIv1xA+fKbLgLV+KtkJi7ZngoMpBHQw==
-----END CERTIFICATE-----
