Certificate:
    Data:
        Version: 3 (0x2)
        Serial Number:
            01:f1:6c:4a:e1:db:54:1a:f7:fc:67:e1
        Signature Algorithm: ecdsa-with-SHA256
        Issuer: CN = Lint CA, O = Lint, C = DE
        Validity
            Not Before: Sep 15 00:00:00 2023 GMT
            Not After : Sep 15 00:00:00 2024 GMT
        Subject: CN = UTF8String, CN = PrintableString
        Subject Public Key Info:
            Public Key Algorithm: id-ecPublicKey
                Public-Key: (256 bit)
                pub:
                    04:35:7d:f8:9a:89:7d:6c:1c:d1:c8:e2:97:09:9f:
                    6f:2a:df:55:30:97:06:3d:06:59:94:66:92:da:3e:
                    f1:7d:5e:1f:22:3c:39:ed:f1:70:24:5e:7d:15:2a:
                    e0:fc:6f:8b:69:86:5c:b4:dc:11:fe:61:3f:41:71:
                    1d:c5:60:2b:14
                ASN1 OID: prime256v1
                NIST CURVE: P-256
        X509v3 extensions:
            X509v3 Certificate Policies: 
                Policy: 2.23.140.1.2.1

    Signature Algorithm: ecdsa-with-SHA256
         30:45:02:20:18:2a:92:d5:5d:3b:ae:17:9a:f4:c0:60:bb:d5:
         bb:a6:4a:ef:0e:12:51:a6:4a:18:6c:01:c0:fd:3d:4e:93:56:
         02:21:00:a8:92:ec:4d:64:d6:6c:a7:29:92:67:dc:d9:f6:6b:
         11:c8:a5:06:b0:58:4c:56:05:18:9b:f0:7e:de:fa:0c:bb
-----BEGIN CERTIFICATE-----
MIIBbjCCARSgAwIBAgIMAfFsSuHbVBr3/GfhMAoGCCqGSM49BAMCMC4xEDAOBgNV
BAMMB0xpbnQgQ0ExDTALBgNVBAoMBExpbnQxCzAJBgNVBAYTAkRFMB4XDTIzMDkx
NTAwMDAwMFoXDTI0MDkxNTAwMDAwMFowLzETMBEGA1UEAwwKVVRGOFN0cmluZzEY
MBYGA1UEAxMPUHJpbnRhYmxlU3RyaW5nMFkwEwYHKoZIzj0CAQYIKoZIzj0DAQcD
QgAENX34mol9bBzRyOKXCZ9vKt9VMJcGPQZZlGaS2j7xfV4fIjw57fFwJF59FSrg
/G+LaYZctNwR/mE/QXEdxWArFKMXMBUwEwYDVR0gBAwwCjAIBgZngQwBAgEwCgYI
KoZIzj0EAwIDSAAwRQIgGCqS1V07rhea9MBgu9W7pkrvDhJRpkoYbAHA/T1Ok1YC
IQCokuxNZNZspymSZ9zZ9msRyKUGsFhMVgUYm/B+3voMuw==
-----END CERTIFICATE-----
