Certificate:
    Data:
        Version: 3 (0x2)
        Serial Number:
            8c:b6:83:1f:00:80:ae:5c:0b:cc:b9:f3
        Signature Algorithm: ecdsa-with-SHA256
        Issuer: CN = Lint CA, O = Lint, C = DE
        Validity
            Not Before: Sep 15 00:00:00 2023 GMT
            Not After : Sep 15 00:00:00 2024 GMT
        Subject: OU = BMPString
        Subject Public Key Info:
            Public Key Algorithm: id-ecPublicKey
                Public-Key: (256 bit)
                pub:
                    04:35:7d:f8:9a:89:7d:6c:1c:d1:c8:e2:97:09:9f:
                    6f:2a:df:55:30:97:06:3d:06:59:94:66:92:da:3e:
                    f1:7d:5e:1f:22:3c:39:ed:f1:70:24:5e:7d:15:2a:
                    e0:fc:6f:8b:69:86:5c:b4:dc:11:fe:61:3f:41:71:
                    1d:c5:60:2b:14
                ASN1 OID: prime256v1
                NIST CURVE: P-256
        X509v3 extensions:
            X509v3 Certificate Policies: 
                Policy: 2.23.140.1.2.1

    Signature Algorithm: ecdsa-with-SHA256
         30:45:02:20:3c:aa:9f:07:54:ee:be:ba:9e:2e:ee:6b:04:f2:
         ab:e6:87:ec:22:60:13:bc:32:3d:d7:bf:25:21:c9:a5:20:47:
         02:21:00:e0:40:c1:e7:84:d9:67:43:09:c2:e0:64:7b:98:b1:
         99:b5:81:8d:59:f0:0c:96:8a:de:7d:63:37:d0:05:0f:7d
-----BEGIN CERTIFICATE-----
MIIBXTCCAQOgAwIBAgINAIy2gx8AgK5cC8y58zAKBggqhkjOPQQDAjAuMRAwDgYD
VQQDDAdMaW50IENBMQ0wCwYDVQQKDARMaW50MQswCQYDVQQGEwJERTAeFw0yMzA5
MTUwMDAwMDBaFw0yNDA5MTUwMDAwMDBaMB0xGzAZBgNVBAseEgBCAE0AUABTAHQA
cgBpAG4AZzBZMBMGByqGSM49AgEGCCqGSM49AwEHA0IABDV9+JqJfWwc0cjilwmf
byrfVTCXBj0GWZRmkto+8X1eHyI8Oe3xcCRefRUq4Pxvi2mGXLTcEf5hP0FxHcVg
KxSjFzAVMBMGA1UdIAQMMAowCAYGZ4EMAQIBMAoGCCqGSM49BAMCA0gAMEUCIDyq
nwdU7r66ni7uawTyq+aH7CJgE7wyPde/JSHJpSBHAiEA4EDB54TZZ0MJwuBke5ix
mbWBjVnwDJaK3n1jN9AFD30=
-----END CERTIFICATE-----
