Certificate:
    Data:
        Version: 3 (0x2)
        Serial Number: 3792628805646187502 (0x34a21fcdf5747bee)
        Signature Algorithm: sha256WithRSAEncryption
        Issuer: C = IT, ST = Milano, L = Santa Redegonda, O = Certificati Gratis S.p.A., CN = Certificati Gratis CA
        Validity
            Not Before: Mar  8 14:05:00 2024 GMT
            Not After : Mar  8 08:50:00 2025 GMT
        Subject: C = IT, ST = Milano, L = Milano, O = Example, CN = example.org, DC = org, DC = example
        Subject Public Key Info:
            Public Key Algorithm: rsaEncryption
                RSA Public-Key: (2048 bit)
                Modulus:
                    00:c1:0a:81:60:21:e7:7b:a3:ec:6f:e4:e0:fc:2f:
                    61:47:88:69:01:58:9b:a3:89:98:0b:42:17:47:87:
                    87:b2:0e:1f:74:22:28:e5:cf:9a:d2:7f:26:db:4f:
                    1d:e8:8d:19:fa:cd:e6:dd:4c:c0:da:38:93:f6:bf:
                    e8:f4:9d:1f:00:c8:bf:cb:f5:4f:b0:fa:c3:24:ce:
                    2f:04:3b:fa:27:dd:8c:3b:f7:44:09:89:16:19:0e:
                    95:0a:8d:eb:0e:54:3f:81:c0:e7:62:b0:d9:6b:5a:
                    89:93:78:08:db:8c:18:3d:24:81:6b:2e:b9:ff:0d:
                    5a:71:24:b7:53:1f:c2:96:57:cd:49:98:b6:21:35:
                    47:6b:83:19:2d:a9:4b:e2:17:a2:bd:1e:ab:16:4f:
                    d4:9a:9b:01:d8:e1:bf:d5:27:75:f2:09:78:63:1b:
                    24:5e:2d:fe:66:fa:32:96:60:51:9c:46:0e:0b:aa:
                    e8:57:22:d4:16:38:11:96:d0:fe:63:56:f1:e8:7e:
                    eb:99:75:ce:4b:d2:e2:f9:71:26:62:31:2a:03:5d:
                    b4:d4:04:fb:33:9f:34:de:a1:39:85:cf:48:d0:a1:
                    16:d5:95:c7:20:38:ba:24:d9:de:98:31:01:0b:1c:
                    be:6e:bb:16:0d:f5:06:42:27:82:49:57:32:f3:67:
                    02:ab
                Exponent: 65537 (0x10001)
        X509v3 extensions:
            X509v3 Extended Key Usage: 
                TLS Web Server Authentication
    Signature Algorithm: sha256WithRSAEncryption
         5a:12:f1:b2:6e:5f:cc:89:31:18:08:57:82:40:eb:4a:1f:41:
         5c:ef:7d:9d:d8:3f:eb:1f:7f:49:17:cf:9e:4b:69:76:85:6d:
         28:af:1b:09:c8:e0:98:3d:41:36:7a:24:e3:e9:39:8d:e3:c6:
         7c:c2:03:f8:81:1a:c8:7c:de:4f:94:c1:4c:8c:8d:0b:63:d7:
         09:d7:87:74:b2:a3:3d:8c:15:f3:a9:0e:3b:45:5e:21:01:84:
         d5:ca:b9:39:0d:9b:fb:e8:52:3b:6d:ed:6d:6d:33:d5:08:ff:
         6c:cc:4f:43:81:f0:46:cb:b0:84:80:5c:e4:67:9b:ee:a7:f4:
         9c:94:19:13:3e:cd:8a:8d:7c:45:79:cc:bf:55:86:48:3a:d3:
         51:f3:92:d1:ec:91:40:bf:57:7b:84:1d:20:b5:3f:a8:39:a0:
         a3:67:66:12:4a:c2:eb:d2:74:33:10:2b:82:fb:ea:61:68:33:
         42:a9:27:c2:ca:ce:6b:cc:d3:57:f8:27:66:26:a7:18:ff:6c:
         63:93:a2:a3:f8:ca:55:b6:06:65:f2:db:c9:8b:41:0c:bc:3f:
         ca:b8:b7:3a:d6:a2:e5:9e:08:17:33:c8:bd:85:e2:2f:71:60:
         30:9c:79:ec:90:4c:c8:ef:73:49:a3:6b:56:8d:25:c1:4a:2f:
         c5:ef:03:43:cd:fe:cb:9f:cb:b9:73:06:33:45:81:ab:85:da:
         a5:5b:9f:9f:9e:60:6a:98:95:71:c1:27:06:ed:c4:d5:dd:ca:
         42:f2:12:cb:bb:c6:eb:ec:2b:ad:15:5a:91:cb:fd:d2:f1:f6:
         ef:a4:00:86:c1:96:1b:59:58:6f:83:e1:3b:3a:2e:f0:d2:b4:
         8d:55:5a:82:4e:9a:8b:62:ed:a6:99:97:a3:aa:b6:ad:08:45:
         01:04:2c:1e:ec:f3:5b:f8:9c:15:0e:24:b0:60:94:b4:2c:86:
         97:7a:42:18:f8:d9:25:d4:8b:b4:5c:87:a9:8d:13:82:c6:f5:
         68:94:39:ab:63:26:85:37:e5:ca:d0:be:de:79:6a:97:5e:35:
         08:9b:83:76:14:18:81:c3:e9:76:60:42:9a:f8:be:02:35:9f:
         e1:f0:81:e9:2d:be:58:fa:29:c0:67:59:45:f6:7f:a0:49:0c:
         93:37:48:aa:08:cf:6a:ca:c7:d4:58:25:c9:4d:01:cc:19:65:
         4c:de:52:e9:2b:2a:8c:94:0c:1c:f0:67:f0:9f:75:c0:32:b7:
         d7:9c:e4:f9:99:a0:8a:0e:8a:6c:ff:4c:74:18:6c:43:40:3c:
         f9:1a:94:76:a0:25:c3:1b:71:7b:36:64:8f:44:97:08:52:fe:
         c5:2c:a6:64:d2:1e:00:ec
-----BEGIN CERTIFICATE-----
MIIEmzCCAoOgAwIBAgIINKIfzfV0e+4wDQYJKoZIhvcNAQELBQAwfDELMAkGA1UE
BhMCSVQxDzANBgNVBAgTBk1pbGFubzEYMBYGA1UEBxMPU2FudGEgUmVkZWdvbmRh
MSIwIAYDVQQKExlDZXJ0aWZpY2F0aSBHcmF0aXMgUy5wLkEuMR4wHAYDVQQDExVD
ZXJ0aWZpY2F0aSBHcmF0aXMgQ0EwHhcNMjQwMzA4MTQwNTAwWhcNMjUwMzA4MDg1
MDAwWjCBhTELMAkGA1UEBhMCSVQxDzANBgNVBAgTBk1pbGFubzEPMA0GA1UEBxMG
TWlsYW5vMRAwDgYDVQQKEwdFeGFtcGxlMRQwEgYDVQQDEwtleGFtcGxlLm9yZzET
MBEGCgmSJomT8ixkARkWA29yZzEXMBUGCgmSJomT8ixkARkWB2V4YW1wbGUwggEi
MA0GCSqGSIb3DQEBAQUAA4IBDwAwggEKAoIBAQDBCoFgIed7o+xv5OD8L2FHiGkB
WJujiZgLQhdHh4eyDh90Iijlz5rSfybbTx3ojRn6zebdTMDaOJP2v+j0nR8AyL/L
9U+w+sMkzi8EO/on3Yw790QJiRYZDpUKjesOVD+BwOdisNlrWomTeAjbjBg9JIFr
Lrn/DVpxJLdTH8KWV81JmLYhNUdrgxktqUviF6K9HqsWT9SamwHY4b/VJ3XyCXhj
GyReLf5m+jKWYFGcRg4LquhXItQWOBGW0P5jVvHofuuZdc5L0uL5cSZiMSoDXbTU
BPsznzTeoTmFz0jQoRbVlccgOLok2d6YMQELHL5uuxYN9QZCJ4JJVzLzZwKrAgMB
AAGjFzAVMBMGA1UdJQQMMAoGCCsGAQUFBwMBMA0GCSqGSIb3DQEBCwUAA4ICAQBa
EvGybl/MiTEYCFeCQOtKH0Fc732d2D/rH39JF8+eS2l2hW0orxsJyOCYPUE2eiTj
6TmN48Z8wgP4gRrIfN5PlMFMjI0LY9cJ14d0sqM9jBXzqQ47RV4hAYTVyrk5DZv7
6FI7be1tbTPVCP9szE9DgfBGy7CEgFzkZ5vup/SclBkTPs2KjXxFecy/VYZIOtNR
85LR7JFAv1d7hB0gtT+oOaCjZ2YSSsLr0nQzECuC++phaDNCqSfCys5rzNNX+Cdm
JqcY/2xjk6Kj+MpVtgZl8tvJi0EMvD/KuLc61qLlnggXM8i9heIvcWAwnHnskEzI
73NJo2tWjSXBSi/F7wNDzf7Ln8u5cwYzRYGrhdqlW5+fnmBqmJVxwScG7cTV3cpC
8hLLu8br7CutFVqRy/3S8fbvpACGwZYbWVhvg+E7Oi7w0rSNVVqCTpqLYu2mmZej
qratCEUBBCwe7PNb+JwVDiSwYJS0LIaXekIY+Nkl1Iu0XIepjROCxvVolDmrYyaF
N+XK0L7eeWqXXjUIm4N2FBiBw+l2YEKa+L4CNZ/h8IHpLb5Y+inAZ1lF9n+gSQyT
N0iqCM9qysfUWCXJTQHMGWVM3lLpKyqMlAwc8Gfwn3XAMrfXnOT5maCKDops/0x0
GGxDQDz5GpR2oCXDG3F7NmSPRJcIUv7FLKZk0h4A7A==
-----END CERTIFICATE-----
