Certificate:
    Data:
        Version: 3 (0x2)
        Serial Number:
            09:b9:c2:93:fd:37:fc:10:25:7a:29:af:60
        Signature Algorithm: sha256WithRSAEncryption
        Issuer: CN = Lint Sub CA, OU = Test, O = MTG, C = DE
        Validity
            Not Before: Sep  1 00:00:00 2022 GMT
            Not After : Oct  1 00:00:00 2022 GMT
        Subject: CN = lint.mtg.de, OU = Lint, O = MTG, L = Darmstadt, ST = Hesse, C = DE
        Subject Public Key Info:
            Public Key Algorithm: id-ecPublicKey
                Public-Key: (256 bit)
                pub:
                    04:8f:e6:22:82:c8:54:ce:db:d5:34:64:90:17:71:
                    14:0e:e8:29:c0:d3:43:0d:ac:ba:fc:a3:5b:94:10:
                    5c:af:c5:5e:52:5d:51:09:c6:1e:3d:f6:af:95:64:
                    57:2f:7f:70:cc:05:e4:ba:54:5b:92:21:b9:31:57:
                    d9:34:a2:ab:ca
                ASN1 OID: prime256v1
                NIST CURVE: P-256
    Signature Algorithm: sha256WithRSAEncryption
         95:ef:f5:e3:23:78:75:81:78:06:90:be:25:1e:7f:e8:3a:04:
         cf:82:1f:96:0a:be:08:73:f0:88:bb:ff:51:8b:6b:60:b7:3d:
         02:23:eb:8f:27:5c:ce:9a:d1:f0:29:35:b6:aa:85:f1:2d:ba:
         ab:46:74:37:c0:af:bf:56:35:ef:11:bd:b2:1a:5a:08:6b:b3:
         7f:e7:7f:12:44:20:13:e3:f0:2a:0f:56:71:ee:fa:49:20:dd:
         33:91:6c:b5:84:1a:c9:f2:8a:c5:77:cf:c2:f4:35:e3:96:d4:
         c8:34:02:ac:cd:fb:db:3b:18:e9:df:12:88:3f:5e:42:cb:ea:
         f6:5f:7b:d4:67:60:0a:e4:6c:68:6e:b4:53:6d:99:06:64:c8:
         2a:c3:8a:2d:07:ca:31:3a:cf:e2:a4:90:77:4a:79:a5:7f:9d:
         21:d3:8d:f7:5c:ca:1e:e9:11:f6:27:03:6a:72:5e:2e:24:54:
         03:71:ee:7c:15:52:97:a4:62:23:a7:1c:c9:43:a2:49:5b:a0:
         c1:9b:bf:0b:bb:73:69:46:34:78:c3:c2:8e:c5:e5:04:94:3a:
         53:8c:18:79:f5:3f:af:84:d5:7f:f6:34:0a:86:29:38:0e:ba:
         04:c7:16:1b:cc:ee:8f:f2:6a:1d:e2:2a:ab:9d:f2:29:c0:8b:
         7f:ca:c5:06
-----BEGIN CERTIFICATE-----
MIICXjCCAUagAwIBAgINCbnCk/03/BAleimvYDANBgkqhkiG9w0BAQsFADBAMRQw
EgYDVQQDDAtMaW50IFN1YiBDQTENMAsGA1UECwwEVGVzdDEMMAoGA1UECgwDTVRH
MQswCQYDVQQGEwJERTAeFw0yMjA5MDEwMDAwMDBaFw0yMjEwMDEwMDAwMDBaMGQx
FDASBgNVBAMMC2xpbnQubXRnLmRlMQ0wCwYDVQQLDARMaW50MQwwCgYDVQQKDANN
VEcxEjAQBgNVBAcMCURhcm1zdGFkdDEOMAwGA1UECAwFSGVzc2UxCzAJBgNVBAYT
AkRFMFkwEwYHKoZIzj0CAQYIKoZIzj0DAQcDQgAEj+YigshUztvVNGSQF3EUDugp
wNNDDay6/KNblBBcr8VeUl1RCcYePfavlWRXL39wzAXkulRbkiG5MVfZNKKryjAN
BgkqhkiG9w0BAQsFAAOCAQEAle/14yN4dYF4BpC+JR5/6DoEz4Iflgq+CHPwiLv/
UYtrYLc9AiPrjydczprR8Ck1tqqF8S26q0Z0N8Cvv1Y17xG9shpaCGuzf+d/EkQg
E+PwKg9Wce76SSDdM5FstYQayfKKxXfPwvQ145bUyDQCrM372zsY6d8SiD9eQsvq
9l971GdgCuRsaG60U22ZBmTIKsOKLQfKMTrP4qSQd0p5pX+dIdON91zKHukR9icD
anJeLiRUA3HufBVSl6RiI6ccyUOiSVugwZu/C7tzaUY0eMPCjsXlBJQ6U4wYefU/
r4TVf/Y0CoYpOA66BMcWG8zuj/JqHeIqq53yKcCLf8rFBg==
-----END CERTIFICATE-----
