Certificate:
    Data:
        Version: 3 (0x2)
        Serial Number:
            0a:f6:d2:0f:f1:ea:32:7e:e5:aa:c4:5f
        Signature Algorithm: ecdsa-with-SHA256
        Issuer: CN = Lint CA, O = Lint, C = DE
        Validity
            Not Before: Sep 15 00:00:00 2023 GMT
            Not After : Sep 15 00:00:00 2024 GMT
        Subject: OU = UTF8String, OU = PrintableString
        Subject Public Key Info:
            Public Key Algorithm: id-ecPublicKey
                Public-Key: (256 bit)
                pub:
                    04:35:7d:f8:9a:89:7d:6c:1c:d1:c8:e2:97:09:9f:
                    6f:2a:df:55:30:97:06:3d:06:59:94:66:92:da:3e:
                    f1:7d:5e:1f:22:3c:39:ed:f1:70:24:5e:7d:15:2a:
                    e0:fc:6f:8b:69:86:5c:b4:dc:11:fe:61:3f:41:71:
                    1d:c5:60:2b:14
                ASN1 OID: prime256v1
                NIST CURVE: P-256
        X509v3 extensions:
            X509v3 Certificate Policies: 
                Policy: 2.23.140.1.2.1

    Signature Algorithm: ecdsa-with-SHA256
         30:46:02:21:00:85:07:51:a7:6e:09:2d:0e:61:f2:22:d4:46:
         ba:10:c8:e4:93:e8:5b:76:5d:4f:22:20:c1:92:29:81:32:f2:
         2c:02:21:00:a7:63:06:e6:ed:54:44:06:24:c5:dc:e2:a5:81:
         fd:14:5a:80:a7:54:09:b4:58:31:a8:8a:54:cb:57:04:48:42
-----BEGIN CERTIFICATE-----
MIIBbzCCARSgAwIBAgIMCvbSD/HqMn7lqsRfMAoGCCqGSM49BAMCMC4xEDAOBgNV
BAMMB0xpbnQgQ0ExDTALBgNVBAoMBExpbnQxCzAJBgNVBAYTAkRFMB4XDTIzMDkx
NTAwMDAwMFoXDTI0MDkxNTAwMDAwMFowLzETMBEGA1UECwwKVVRGOFN0cmluZzEY
MBYGA1UECxMPUHJpbnRhYmxlU3RyaW5nMFkwEwYHKoZIzj0CAQYIKoZIzj0DAQcD
QgAENX34mol9bBzRyOKXCZ9vKt9VMJcGPQZZlGaS2j7xfV4fIjw57fFwJF59FSrg
/G+LaYZctNwR/mE/QXEdxWArFKMXMBUwEwYDVR0gBAwwCjAIBgZngQwBAgEwCgYI
KoZIzj0EAwIDSQAwRgIhAIUHUaduCS0OYfIi1Ea6EMjkk+hbdl1PIiDBkimBMvIs
AiEAp2MG5u1URAYkxdzipYH9FFqAp1QJtFgxqIpUy1cESEI=
-----END CERTIFICATE-----
