Certificate:
    Data:
        Version: 3 (0x2)
        Serial Number: 204622961721394657 (0x2d6f77fe24ac5e1)
        Signature Algorithm: sha256WithRSAEncryption
        Issuer: C = IT, ST = Milano, L = Santa Redegonda, O = Certificati Gratis S.p.A., CN = Certificati Gratis CA
        Validity
            Not Before: Mar  8 14:15:00 2024 GMT
            Not After : Mar  8 08:50:00 2025 GMT
        Subject: CN = example.org, C = IT
        Subject Public Key Info:
            Public Key Algorithm: rsaEncryption
                RSA Public-Key: (2048 bit)
                Modulus:
                    00:c1:0a:81:60:21:e7:7b:a3:ec:6f:e4:e0:fc:2f:
                    61:47:88:69:01:58:9b:a3:89:98:0b:42:17:47:87:
                    87:b2:0e:1f:74:22:28:e5:cf:9a:d2:7f:26:db:4f:
                    1d:e8:8d:19:fa:cd:e6:dd:4c:c0:da:38:93:f6:bf:
                    e8:f4:9d:1f:00:c8:bf:cb:f5:4f:b0:fa:c3:24:ce:
                    2f:04:3b:fa:27:dd:8c:3b:f7:44:09:89:16:19:0e:
                    95:0a:8d:eb:0e:54:3f:81:c0:e7:62:b0:d9:6b:5a:
                    89:93:78:08:db:8c:18:3d:24:81:6b:2e:b9:ff:0d:
                    5a:71:24:b7:53:1f:c2:96:57:cd:49:98:b6:21:35:
                    47:6b:83:19:2d:a9:4b:e2:17:a2:bd:1e:ab:16:4f:
                    d4:9a:9b:01:d8:e1:bf:d5:27:75:f2:09:78:63:1b:
                    24:5e:2d:fe:66:fa:32:96:60:51:9c:46:0e:0b:aa:
                    e8:57:22:d4:16:38:11:96:d0:fe:63:56:f1:e8:7e:
                    eb:99:75:ce:4b:d2:e2:f9:71:26:62:31:2a:03:5d:
                    b4:d4:04:fb:33:9f:34:de:a1:39:85:cf:48:d0:a1:
                    16:d5:95:c7:20:38:ba:24:d9:de:98:31:01:0b:1c:
                    be:6e:bb:16:0d:f5:06:42:27:82:49:57:32:f3:67:
                    02:ab
                Exponent: 65537 (0x10001)
        X509v3 extensions:
            X509v3 Extended Key Usage: 
                TLS Web Server Authentication
    Signature Algorithm: sha256WithRSAEncryption
         9f:e6:50:72:f3:e3:a3:4c:2a:83:33:fa:84:7b:20:4a:db:fd:
         d7:5c:c0:57:07:35:fd:3f:b6:6b:14:61:69:69:f4:c4:ed:cf:
         c0:d2:6c:07:b9:48:da:93:1b:54:25:d1:5b:62:2c:0e:67:95:
         3f:50:20:ac:fd:bf:82:c4:19:9c:3a:77:0b:c5:05:d6:6c:f2:
         c0:37:f0:db:f9:81:f6:bd:23:f6:1f:b5:f0:14:4c:65:8d:fa:
         ac:6c:22:d7:3f:92:34:e7:a6:bf:15:0c:b4:88:33:95:ec:70:
         04:75:e9:0a:e1:da:de:f3:46:10:c7:81:6f:9c:28:1c:cd:89:
         99:2e:0c:1b:c9:87:fc:b0:dc:bc:fd:81:e5:ac:5b:5c:23:1b:
         eb:c9:32:22:55:b9:3e:bb:67:93:59:13:e8:50:f8:3e:83:0d:
         de:3b:6e:89:d6:39:fe:49:dd:d1:ad:0f:42:92:54:10:2c:9d:
         9e:04:cf:db:5c:1a:b6:96:8a:77:6f:e1:75:4c:d3:36:57:a1:
         81:b0:12:ad:76:0a:11:d3:99:9b:49:1f:52:be:9f:7e:d2:c0:
         66:f0:1c:e1:a7:34:ad:bb:c5:55:cd:d0:c1:2c:12:6a:46:6b:
         83:32:e7:c3:d5:0f:80:04:c6:35:4f:61:35:45:87:17:c2:97:
         e3:51:fd:c6:77:96:16:b4:e3:22:d2:f5:ea:dd:c4:c3:0b:61:
         d4:2d:3b:46:81:eb:d5:38:3c:a1:90:b1:f7:ef:dd:31:a1:12:
         c8:2b:7b:12:20:84:b8:85:72:20:3e:a5:fc:97:57:eb:ed:55:
         6a:70:69:c4:dd:14:60:65:a9:17:e9:d2:ba:a6:57:3c:9c:2b:
         6e:de:8b:b8:ab:52:15:82:e3:ce:f5:a0:60:21:c1:72:11:0f:
         f9:ea:af:fd:c7:99:bb:83:97:b8:93:30:1f:65:4f:38:d1:4f:
         cb:ce:64:9f:35:3a:e7:3d:0e:09:ba:a7:ac:4e:75:7d:37:aa:
         d6:e5:38:d2:4b:e2:73:fb:39:f8:2b:62:08:96:f2:2a:d1:6b:
         ef:9f:af:00:a9:b8:56:f5:be:d1:bb:c6:37:cf:9e:6b:40:9f:
         15:66:4e:99:5b:ce:89:0d:7a:9b:8f:af:31:cd:85:ab:67:10:
         05:82:f4:0f:e5:4f:fb:46:f6:12:ed:6c:cb:38:a7:eb:4c:ae:
         2b:7f:b3:b1:65:c4:d7:46:46:50:a8:a4:79:bb:75:e2:aa:d5:
         c0:33:9e:37:54:a3:04:ba:fa:9e:ee:07:b3:ae:e8:dd:f8:53:
         45:f0:16:d2:f2:0c:a8:87:80:92:a8:7d:72:60:f1:a5:42:f4:
         9f:16:d4:c5:a1:0f:7f:d7
-----BEGIN CERTIFICATE-----
MIIEODCCAiCgAwIBAgIIAtb3f+JKxeEwDQYJKoZIhvcNAQELBQAwfDELMAkGA1UE
BhMCSVQxDzANBgNVBAgTBk1pbGFubzEYMBYGA1UEBxMPU2FudGEgUmVkZWdvbmRh
MSIwIAYDVQQKExlDZXJ0aWZpY2F0aSBHcmF0aXMgUy5wLkEuMR4wHAYDVQQDExVD
ZXJ0aWZpY2F0aSBHcmF0aXMgQ0EwHhcNMjQwMzA4MTQxNTAwWhcNMjUwMzA4MDg1
MDAwWjAjMRQwEgYDVQQDEwtleGFtcGxlLm9yZzELMAkGA1UEBhMCSVQwggEiMA0G
CSqGSIb3DQEBAQUAA4IBDwAwggEKAoIBAQDBCoFgIed7o+xv5OD8L2FHiGkBWJuj
iZgLQhdHh4eyDh90Iijlz5rSfybbTx3ojRn6zebdTMDaOJP2v+j0nR8AyL/L9U+w
+sMkzi8EO/on3Yw790QJiRYZDpUKjesOVD+BwOdisNlrWomTeAjbjBg9JIFrLrn/
DVpxJLdTH8KWV81JmLYhNUdrgxktqUviF6K9HqsWT9SamwHY4b/VJ3XyCXhjGyRe
Lf5m+jKWYFGcRg4LquhXItQWOBGW0P5jVvHofuuZdc5L0uL5cSZiMSoDXbTUBPsz
nzTeoTmFz0jQoRbVlccgOLok2d6YMQELHL5uuxYN9QZCJ4JJVzLzZwKrAgMBAAGj
FzAVMBMGA1UdJQQMMAoGCCsGAQUFBwMBMA0GCSqGSIb3DQEBCwUAA4ICAQCf5lBy
8+OjTCqDM/qEeyBK2/3XXMBXBzX9P7ZrFGFpafTE7c/A0mwHuUjakxtUJdFbYiwO
Z5U/UCCs/b+CxBmcOncLxQXWbPLAN/Db+YH2vSP2H7XwFExljfqsbCLXP5I056a/
FQy0iDOV7HAEdekK4dre80YQx4FvnCgczYmZLgwbyYf8sNy8/YHlrFtcIxvryTIi
Vbk+u2eTWRPoUPg+gw3eO26J1jn+Sd3RrQ9CklQQLJ2eBM/bXBq2lop3b+F1TNM2
V6GBsBKtdgoR05mbSR9Svp9+0sBm8BzhpzStu8VVzdDBLBJqRmuDMufD1Q+ABMY1
T2E1RYcXwpfjUf3Gd5YWtOMi0vXq3cTDC2HULTtGgevVODyhkLH3790xoRLIK3sS
IIS4hXIgPqX8l1fr7VVqcGnE3RRgZakX6dK6plc8nCtu3ou4q1IVguPO9aBgIcFy
EQ/56q/9x5m7g5e4kzAfZU840U/LzmSfNTrnPQ4JuqesTnV9N6rW5TjSS+Jz+zn4
K2IIlvIq0Wvvn68AqbhW9b7Ru8Y3z55rQJ8VZk6ZW86JDXqbj68xzYWrZxAFgvQP
5U/7RvYS7WzLOKfrTK4rf7OxZcTXRkZQqKR5u3XiqtXAM543VKMEuvqe7gezrujd
+FNF8BbS8gyoh4CSqH1yYPGlQvSfFtTFoQ9/1w==
-----END CERTIFICATE-----
