Certificate:
    Data:
        Version: 3 (0x2)
        Serial Number: 8707574737929004705 (0x78d78516e56c66a1)
        Signature Algorithm: sha256WithRSAEncryption
        Issuer: C = IT, ST = Milano, L = Santa Redegonda, O = Certificati Gratis S.p.A., CN = Certificati Gratis CA
        Validity
            Not Before: Mar  8 10:20:00 2024 GMT
            Not After : Mar  8 08:50:00 2025 GMT
        Subject: C = IT, ST = Milano, L = Milano, postalCode = 20100, street = Via Carducci, O = Example, CN = example.org
        Subject Public Key Info:
            Public Key Algorithm: rsaEncryption
                RSA Public-Key: (2048 bit)
                Modulus:
                    00:c1:0a:81:60:21:e7:7b:a3:ec:6f:e4:e0:fc:2f:
                    61:47:88:69:01:58:9b:a3:89:98:0b:42:17:47:87:
                    87:b2:0e:1f:74:22:28:e5:cf:9a:d2:7f:26:db:4f:
                    1d:e8:8d:19:fa:cd:e6:dd:4c:c0:da:38:93:f6:bf:
                    e8:f4:9d:1f:00:c8:bf:cb:f5:4f:b0:fa:c3:24:ce:
                    2f:04:3b:fa:27:dd:8c:3b:f7:44:09:89:16:19:0e:
                    95:0a:8d:eb:0e:54:3f:81:c0:e7:62:b0:d9:6b:5a:
                    89:93:78:08:db:8c:18:3d:24:81:6b:2e:b9:ff:0d:
                    5a:71:24:b7:53:1f:c2:96:57:cd:49:98:b6:21:35:
                    47:6b:83:19:2d:a9:4b:e2:17:a2:bd:1e:ab:16:4f:
                    d4:9a:9b:01:d8:e1:bf:d5:27:75:f2:09:78:63:1b:
                    24:5e:2d:fe:66:fa:32:96:60:51:9c:46:0e:0b:aa:
                    e8:57:22:d4:16:38:11:96:d0:fe:63:56:f1:e8:7e:
                    eb:99:75:ce:4b:d2:e2:f9:71:26:62:31:2a:03:5d:
                    b4:d4:04:fb:33:9f:34:de:a1:39:85:cf:48:d0:a1:
                    16:d5:95:c7:20:38:ba:24:d9:de:98:31:01:0b:1c:
                    be:6e:bb:16:0d:f5:06:42:27:82:49:57:32:f3:67:
                    02:ab
                Exponent: 65537 (0x10001)
        X509v3 extensions:
            X509v3 Extended Key Usage: 
                TLS Web Server Authentication
    Signature Algorithm: sha256WithRSAEncryption
         62:89:12:5f:aa:93:da:26:e6:4e:6c:79:93:74:8d:2b:c3:3f:
         8f:7e:cc:0f:6c:8a:19:79:5b:2f:55:41:cf:28:ca:cb:78:06:
         51:ef:a5:01:8c:4d:d3:43:74:53:37:05:af:6b:26:39:81:b3:
         d2:86:d0:c8:20:37:2e:ed:7b:f4:55:ba:44:22:2c:bf:3b:81:
         f9:ac:bf:a8:94:15:d9:96:cd:38:32:39:82:c2:a9:69:ba:eb:
         61:a6:0a:72:b1:0b:dd:8e:8e:56:5f:71:64:12:5f:62:98:f1:
         52:88:0f:ff:b0:76:5d:5d:e2:52:74:2b:1f:62:f5:10:74:89:
         cf:4e:0b:a9:0d:3c:20:40:9c:59:10:d8:c7:78:b9:82:22:fa:
         3b:6e:92:16:e7:07:90:3f:26:ef:d1:11:d5:04:0a:8b:8f:2c:
         9a:19:f3:03:aa:aa:93:6d:9c:97:65:b0:ff:cd:1d:44:ac:7e:
         f0:ee:6a:b1:df:2f:77:f2:a4:c8:fb:ab:e6:b9:9d:30:44:74:
         06:d5:53:22:87:1e:bc:d2:cf:9f:12:53:02:88:dc:42:0c:a3:
         fe:f8:55:0f:3c:a0:a7:69:58:b0:9c:a4:bb:47:24:62:da:d2:
         76:0f:eb:f3:c1:f8:4e:7f:79:e1:b8:45:6a:95:41:9b:f8:75:
         41:c3:e4:96:da:1d:a3:f4:03:8c:61:ce:95:86:d2:ce:02:79:
         2c:cf:4e:a2:17:03:7d:72:13:ed:b9:a3:85:a3:05:b5:a6:a0:
         f5:7a:78:39:9b:81:9c:4d:b7:6b:ce:90:89:c5:d7:2b:28:27:
         f3:fb:2a:cb:5a:42:79:b0:59:f8:c4:0a:ef:67:c3:21:83:93:
         46:fa:a8:9c:4b:a2:57:1b:3d:6a:69:99:1b:ce:c8:ad:30:75:
         35:14:29:0d:5e:ae:1d:db:16:1e:a3:7f:0c:cf:26:b5:6d:17:
         a3:a8:42:d6:ff:5b:49:5a:57:57:4f:4b:cd:b7:bc:06:4d:59:
         6b:75:b3:92:d4:89:91:dd:70:93:ec:d2:06:72:61:2b:f3:23:
         1e:e8:7e:62:c1:ea:5b:94:4d:d6:24:4a:66:07:33:fb:c2:a5:
         30:b5:0a:b0:11:ce:90:39:b9:fe:c7:74:6a:13:9a:c7:09:cd:
         5d:49:af:95:c9:eb:4f:02:1c:c9:fd:1a:d6:12:9e:3d:d2:36:
         95:62:d1:1e:66:8f:85:2c:14:46:ac:a2:36:b8:a0:05:95:d1:
         98:72:d9:68:a3:25:ef:1c:31:01:7d:b6:cc:82:2b:04:98:0a:
         07:53:a8:03:bd:70:af:29:8b:2f:e0:de:16:6f:36:0e:99:aa:
         68:09:72:49:9f:61:1b:ad
-----BEGIN CERTIFICATE-----
MIIEkzCCAnugAwIBAgIIeNeFFuVsZqEwDQYJKoZIhvcNAQELBQAwfDELMAkGA1UE
BhMCSVQxDzANBgNVBAgTBk1pbGFubzEYMBYGA1UEBxMPU2FudGEgUmVkZWdvbmRh
MSIwIAYDVQQKExlDZXJ0aWZpY2F0aSBHcmF0aXMgUy5wLkEuMR4wHAYDVQQDExVD
ZXJ0aWZpY2F0aSBHcmF0aXMgQ0EwHhcNMjQwMzA4MTAyMDAwWhcNMjUwMzA4MDg1
MDAwWjB+MQswCQYDVQQGEwJJVDEPMA0GA1UECBMGTWlsYW5vMQ8wDQYDVQQHEwZN
aWxhbm8xDjAMBgNVBBETBTIwMTAwMRUwEwYDVQQJEwxWaWEgQ2FyZHVjY2kxEDAO
BgNVBAoTB0V4YW1wbGUxFDASBgNVBAMTC2V4YW1wbGUub3JnMIIBIjANBgkqhkiG
9w0BAQEFAAOCAQ8AMIIBCgKCAQEAwQqBYCHne6Psb+Tg/C9hR4hpAVibo4mYC0IX
R4eHsg4fdCIo5c+a0n8m208d6I0Z+s3m3UzA2jiT9r/o9J0fAMi/y/VPsPrDJM4v
BDv6J92MO/dECYkWGQ6VCo3rDlQ/gcDnYrDZa1qJk3gI24wYPSSBay65/w1acSS3
Ux/CllfNSZi2ITVHa4MZLalL4heivR6rFk/UmpsB2OG/1Sd18gl4YxskXi3+Zvoy
lmBRnEYOC6roVyLUFjgRltD+Y1bx6H7rmXXOS9Li+XEmYjEqA1201AT7M5803qE5
hc9I0KEW1ZXHIDi6JNnemDEBCxy+brsWDfUGQieCSVcy82cCqwIDAQABoxcwFTAT
BgNVHSUEDDAKBggrBgEFBQcDATANBgkqhkiG9w0BAQsFAAOCAgEAYokSX6qT2ibm
Tmx5k3SNK8M/j37MD2yKGXlbL1VBzyjKy3gGUe+lAYxN00N0UzcFr2smOYGz0obQ
yCA3Lu179FW6RCIsvzuB+ay/qJQV2ZbNODI5gsKpabrrYaYKcrEL3Y6OVl9xZBJf
YpjxUogP/7B2XV3iUnQrH2L1EHSJz04LqQ08IECcWRDYx3i5giL6O26SFucHkD8m
79ER1QQKi48smhnzA6qqk22cl2Ww/80dRKx+8O5qsd8vd/KkyPur5rmdMER0BtVT
IocevNLPnxJTAojcQgyj/vhVDzygp2lYsJyku0ckYtrSdg/r88H4Tn954bhFapVB
m/h1QcPkltodo/QDjGHOlYbSzgJ5LM9OohcDfXIT7bmjhaMFtaag9Xp4OZuBnE23
a86QicXXKygn8/sqy1pCebBZ+MQK72fDIYOTRvqonEuiVxs9ammZG87IrTB1NRQp
DV6uHdsWHqN/DM8mtW0Xo6hC1v9bSVpXV09Lzbe8Bk1Za3WzktSJkd1wk+zSBnJh
K/MjHuh+YsHqW5RN1iRKZgcz+8KlMLUKsBHOkDm5/sd0ahOaxwnNXUmvlcnrTwIc
yf0a1hKePdI2lWLRHmaPhSwURqyiNrigBZXRmHLZaKMl7xwxAX22zIIrBJgKB1Oo
A71wrymLL+DeFm82DpmqaAlySZ9hG60=
-----END CERTIFICATE-----
