Certificate:
    Data:
        Version: 3 (0x2)
        Serial Number:
            a9:e8:5a:c9:48:7b:c5:64:fe:39:bf:ce
        Signature Algorithm: ecdsa-with-SHA256
        Issuer: CN = Lint CA, O = Lint, C = DE
        Validity
            Not Before: Sep 15 00:00:00 2023 GMT
            Not After : Sep 15 00:00:00 2024 GMT
        Subject: CN = U
        Subject Public Key Info:
            Public Key Algorithm: id-ecPublicKey
                Public-Key: (256 bit)
                pub:
                    04:35:7d:f8:9a:89:7d:6c:1c:d1:c8:e2:97:09:9f:
                    6f:2a:df:55:30:97:06:3d:06:59:94:66:92:da:3e:
                    f1:7d:5e:1f:22:3c:39:ed:f1:70:24:5e:7d:15:2a:
                    e0:fc:6f:8b:69:86:5c:b4:dc:11:fe:61:3f:41:71:
                    1d:c5:60:2b:14
                ASN1 OID: prime256v1
                NIST CURVE: P-256
        X509v3 extensions:
            X509v3 Certificate Policies: 
                Policy: 2.23.140.1.2.1

    Signature Algorithm: ecdsa-with-SHA256
         30:45:02:20:1b:11:5a:e3:fe:73:e1:c0:16:6f:7f:24:ee:15:
         65:cf:82:35:4d:c2:0c:1d:6e:e7:d6:cb:1a:ee:7c:d1:e0:a7:
         02:21:00:bd:86:46:6f:51:a3:ad:76:89:34:59:bd:46:83:6a:
         bf:42:b8:bf:f1:fe:ec:4a:02:5f:69:de:33:c7:4a:16:94
-----BEGIN CERTIFICATE-----
MIIBTjCB9aADAgECAg0AqehayUh7xWT+Ob/OMAoGCCqGSM49BAMCMC4xEDAOBgNV
BAMMB0xpbnQgQ0ExDTALBgNVBAoMBExpbnQxCzAJBgNVBAYTAkRFMB4XDTIzMDkx
NTAwMDAwMFoXDTI0MDkxNTAwMDAwMFowDzENMAsGA1UEAxwEAAAAVTBZMBMGByqG
SM49AgEGCCqGSM49AwEHA0IABDV9+JqJfWwc0cjilwmfbyrfVTCXBj0GWZRmkto+
8X1eHyI8Oe3xcCRefRUq4Pxvi2mGXLTcEf5hP0FxHcVgKxSjFzAVMBMGA1UdIAQM
MAowCAYGZ4EMAQIBMAoGCCqGSM49BAMCA0gAMEUCIBsRWuP+c+HAFm9/JO4VZc+C
NU3CDB1u59bLGu580eCnAiEAvYZGb1GjrXaJNFm9RoNqv0K4v/H+7EoCX2neM8dK
FpQ=
-----END CERTIFICATE-----
