Certificate:
    Data:
        Version: 3 (0x2)
        Serial Number:
            1b:6f:0c:d0:d1:24:8f:e7:93:c5:16:fd
        Signature Algorithm: ecdsa-with-SHA256
        Issuer: CN = Lint CA, O = Lint, C = DE
        Validity
            Not Before: Sep 15 00:00:00 2023 GMT
            Not After : Sep 15 00:00:00 2024 GMT
        Subject: jurisdictionC = BMPString
        Subject Public Key Info:
            Public Key Algorithm: id-ecPublicKey
                Public-Key: (256 bit)
                pub:
                    04:35:7d:f8:9a:89:7d:6c:1c:d1:c8:e2:97:09:9f:
                    6f:2a:df:55:30:97:06:3d:06:59:94:66:92:da:3e:
                    f1:7d:5e:1f:22:3c:39:ed:f1:70:24:5e:7d:15:2a:
                    e0:fc:6f:8b:69:86:5c:b4:dc:11:fe:61:3f:41:71:
                    1d:c5:60:2b:14
                ASN1 OID: prime256v1
                NIST CURVE: P-256
        X509v3 extensions:
            X509v3 Certificate Policies: 
                Policy: 2.23.140.1.2.1

    Signature Algorithm: ecdsa-with-SHA256
         30:45:02:20:52:bb:30:1b:86:c8:fd:9b:4a:a8:f4:de:ba:56:
         b5:fb:b2:26:04:95:7c:7c:b9:77:68:68:10:5a:48:90:c5:c9:
         02:21:00:c5:8f:a2:59:e3:e7:85:34:2a:84:0f:64:fe:41:87:
         f0:54:26:f0:03:af:01:56:2c:d0:08:df:f5:54:8a:b1:3c
-----BEGIN CERTIFICATE-----
MIIBZDCCAQqgAwIBAgIMG28M0NEkj+eTxRb9MAoGCCqGSM49BAMCMC4xEDAOBgNV
BAMMB0xpbnQgQ0ExDTALBgNVBAoMBExpbnQxCzAJBgNVBAYTAkRFMB4XDTIzMDkx
NTAwMDAwMFoXDTI0MDkxNTAwMDAwMFowJTEjMCEGCysGAQQBgjc8AgEDHhIAQgBN
AFAAUwB0AHIAaQBuAGcwWTATBgcqhkjOPQIBBggqhkjOPQMBBwNCAAQ1ffiaiX1s
HNHI4pcJn28q31UwlwY9BlmUZpLaPvF9Xh8iPDnt8XAkXn0VKuD8b4tphly03BH+
YT9BcR3FYCsUoxcwFTATBgNVHSAEDDAKMAgGBmeBDAECATAKBggqhkjOPQQDAgNI
ADBFAiBSuzAbhsj9m0qo9N66VrX7siYElXx8uXdoaBBaSJDFyQIhAMWPolnj54U0
KoQPZP5Bh/BUJvADrwFWLNAI3/VUirE8
-----END CERTIFICATE-----
