Certificate:
    Data:
        Version: 3 (0x2)
        Serial Number:
            0d:dd:64:b2:6e:79:0f:6b:00:11:37:10
        Signature Algorithm: ecdsa-with-SHA256
        Issuer: CN = Lint CA, O = Lint, C = DE
        Validity
            Not Before: Sep 15 00:00:00 2023 GMT
            Not After : Sep 15 00:00:00 2024 GMT
        Subject: street = UTF8String, street = PrintableString
        Subject Public Key Info:
            Public Key Algorithm: id-ecPublicKey
                Public-Key: (256 bit)
                pub:
                    04:35:7d:f8:9a:89:7d:6c:1c:d1:c8:e2:97:09:9f:
                    6f:2a:df:55:30:97:06:3d:06:59:94:66:92:da:3e:
                    f1:7d:5e:1f:22:3c:39:ed:f1:70:24:5e:7d:15:2a:
                    e0:fc:6f:8b:69:86:5c:b4:dc:11:fe:61:3f:41:71:
                    1d:c5:60:2b:14
                ASN1 OID: prime256v1
                NIST CURVE: P-256
        X509v3 extensions:
            X509v3 Certificate Policies: 
                Policy: 2.23.140.1.2.1

    Signature Algorithm: ecdsa-with-SHA256
         30:45:02:21:00:c0:7a:ce:f0:ee:9e:d0:2a:0a:bb:8b:b5:76:
         df:18:fc:25:8b:b4:fa:0c:5a:e8:aa:15:21:4c:86:40:34:50:
         5e:02:20:7a:c5:9a:fc:74:10:4b:e3:4d:71:ca:30:f1:29:f0:
         92:53:85:ed:f2:52:9a:f9:23:4d:80:55:f1:a2:56:d2:82
-----BEGIN CERTIFICATE-----
MIIBbjCCARSgAwIBAgIMDd1ksm55D2sAETcQMAoGCCqGSM49BAMCMC4xEDAOBgNV
BAMMB0xpbnQgQ0ExDTALBgNVBAoMBExpbnQxCzAJBgNVBAYTAkRFMB4XDTIzMDkx
NTAwMDAwMFoXDTI0MDkxNTAwMDAwMFowLzETMBEGA1UECQwKVVRGOFN0cmluZzEY
MBYGA1UECRMPUHJpbnRhYmxlU3RyaW5nMFkwEwYHKoZIzj0CAQYIKoZIzj0DAQcD
QgAENX34mol9bBzRyOKXCZ9vKt9VMJcGPQZZlGaS2j7xfV4fIjw57fFwJF59FSrg
/G+LaYZctNwR/mE/QXEdxWArFKMXMBUwEwYDVR0gBAwwCjAIBgZngQwBAgEwCgYI
KoZIzj0EAwIDSAAwRQIhAMB6zvDuntAqCruLtXbfGPwli7T6DFroqhUhTIZANFBe
AiB6xZr8dBBL401xyjDxKfCSU4Xt8lKa+SNNgFXxolbSgg==
-----END CERTIFICATE-----
