Certificate:
    Data:
        Version: 3 (0x2)
        Serial Number:
            61:e3:b0:74:8a:9b:b7:a9:95:11:ef:b2
        Signature Algorithm: ecdsa-with-SHA256
        Issuer: CN = Lint CA, O = Lint, C = DE
        Validity
            Not Before: Sep 15 00:00:00 2023 GMT
            Not After : Sep 15 00:00:00 2024 GMT
        Subject: postalCode = U
        Subject Public Key Info:
            Public Key Algorithm: id-ecPublicKey
                Public-Key: (256 bit)
                pub:
                    04:35:7d:f8:9a:89:7d:6c:1c:d1:c8:e2:97:09:9f:
                    6f:2a:df:55:30:97:06:3d:06:59:94:66:92:da:3e:
                    f1:7d:5e:1f:22:3c:39:ed:f1:70:24:5e:7d:15:2a:
                    e0:fc:6f:8b:69:86:5c:b4:dc:11:fe:61:3f:41:71:
                    1d:c5:60:2b:14
                ASN1 OID: prime256v1
                NIST CURVE: P-256
        X509v3 extensions:
            X509v3 Certificate Policies: 
                Policy: 2.23.140.1.2.1

    Signature Algorithm: ecdsa-with-SHA256
         30:45:02:21:00:d6:70:f8:73:e1:e8:3f:92:31:e5:cf:04:12:
         93:9f:66:b6:a2:a4:3b:a1:27:8c:81:d1:c2:8c:5c:fd:4f:ea:
         f5:02:20:76:bb:a2:1c:5e:b0:b0:ab:13:56:ae:3e:e4:b0:1e:
         89:b9:88:93:47:83:a6:83:70:de:1b:c9:2a:9e:79:34:e8
-----BEGIN CERTIFICATE-----
MIIBTTCB9KADAgECAgxh47B0ipu3qZUR77IwCgYIKoZIzj0EAwIwLjEQMA4GA1UE
AwwHTGludCBDQTENMAsGA1UECgwETGludDELMAkGA1UEBhMCREUwHhcNMjMwOTE1
MDAwMDAwWhcNMjQwOTE1MDAwMDAwWjAPMQ0wCwYDVQQRHAQAAABVMFkwEwYHKoZI
zj0CAQYIKoZIzj0DAQcDQgAENX34mol9bBzRyOKXCZ9vKt9VMJcGPQZZlGaS2j7x
fV4fIjw57fFwJF59FSrg/G+LaYZctNwR/mE/QXEdxWArFKMXMBUwEwYDVR0gBAww
CjAIBgZngQwBAgEwCgYIKoZIzj0EAwIDSAAwRQIhANZw+HPh6D+SMeXPBBKTn2a2
oqQ7oSeMgdHCjFz9T+r1AiB2u6IcXrCwqxNWrj7ksB6JuYiTR4Omg3DeG8kqnnk0
6A==
-----END CERTIFICATE-----
