Certificate:
    Data:
        Version: 3 (0x2)
        Serial Number: 6076550832111709079 (0x54543ec96f9f6b97)
        Signature Algorithm: sha256WithRSAEncryption
        Issuer: C = IT, ST = Milano, L = Santa Redegonda, O = Certificati Gratis S.p.A., CN = Certificati Gratis CA
        Validity
            Not Before: Mar  8 09:41:00 2024 GMT
            Not After : Mar  8 08:50:00 2025 GMT
        Subject: C = IT, ST = Milano, L = Milano, O = Example, CN = example.org
        Subject Public Key Info:
            Public Key Algorithm: rsaEncryption
                RSA Public-Key: (2048 bit)
                Modulus:
                    00:b4:a3:ea:46:45:d7:d9:9a:04:ab:00:77:7e:df:
                    14:c9:ac:f3:b7:3e:da:75:a1:6b:20:d7:89:ec:55:
                    9d:03:e1:27:47:bf:cc:1b:e0:01:e8:b5:d0:ad:ff:
                    ff:19:e1:eb:f5:ae:7f:7f:35:a4:09:98:6a:17:87:
                    76:d3:36:e1:8c:25:c2:17:a7:5e:32:12:4e:c4:9a:
                    b7:c4:d5:cb:f8:fe:28:66:b5:e0:d6:bf:d3:b7:2e:
                    55:30:5d:ec:7b:5e:ef:c0:32:0d:89:44:2b:67:8c:
                    1e:bd:88:b0:50:cb:18:22:e7:42:4a:c3:82:5f:4b:
                    3a:b3:47:8c:08:f1:cf:dd:d3:e4:a1:f4:68:29:76:
                    30:f9:bc:43:5d:90:a0:38:cc:be:73:04:10:42:1f:
                    9c:75:b1:5f:2f:af:95:4d:98:87:36:13:16:cf:18:
                    3e:cd:fd:f4:1d:42:b7:10:ee:4f:11:1c:4d:74:1a:
                    2f:58:9f:4e:29:35:0d:9a:af:55:0c:11:23:81:50:
                    ad:7f:2b:13:fc:95:af:a7:68:fe:7f:af:97:4a:85:
                    a5:a2:b5:a9:cf:96:63:3e:84:8b:f2:c6:61:a4:f9:
                    26:13:9e:1b:5f:79:06:7b:8e:c5:f6:d5:6c:52:bb:
                    3c:40:ff:03:f2:e2:ee:d8:a5:7f:d4:25:f7:52:45:
                    7f:e7
                Exponent: 65537 (0x10001)
        X509v3 extensions:
            X509v3 Extended Key Usage: 
                TLS Web Server Authentication
    Signature Algorithm: sha256WithRSAEncryption
         3f:a4:2a:b5:7a:99:11:c0:a0:4b:3b:b4:5f:14:38:7e:1b:ef:
         6d:c8:b9:8d:c6:74:7d:09:ce:7b:84:9c:88:47:db:e1:20:fd:
         35:d3:ac:5e:ba:ff:89:77:88:86:9e:d5:74:b4:72:28:94:35:
         01:1b:5e:b4:26:d1:e3:3c:e1:93:57:0d:09:ab:7a:14:36:3d:
         7a:5d:ed:01:4a:57:cf:2c:b9:4d:61:70:b4:f7:6c:c1:60:74:
         fa:68:7a:08:0f:23:84:3a:e8:f9:1d:96:ca:7c:75:66:62:25:
         e3:d5:45:f9:e1:a5:ab:a3:54:c8:4c:53:c4:4f:0e:b5:39:45:
         2c:a0:45:f5:fc:6e:49:3d:eb:f4:70:75:6a:68:e3:ed:fc:64:
         82:56:e9:c0:be:31:1e:a8:a4:92:22:6e:c6:94:03:49:ae:21:
         e9:77:52:4f:5a:de:59:9a:d9:a1:ea:bb:00:3e:0c:62:c1:8a:
         81:4d:e8:46:29:00:f6:23:83:c2:d3:df:b5:b3:cf:16:7e:d8:
         35:53:5b:8a:d2:85:a9:45:78:0c:d3:de:e8:3c:ba:8c:96:23:
         43:1e:53:35:36:de:0b:4a:29:63:0c:d9:e1:b4:52:67:01:94:
         98:75:34:5b:90:7f:6b:88:f9:9e:e4:73:08:1a:41:93:df:b4:
         39:bf:ae:d8:b4:b6:92:77:45:76:9f:98:78:14:c5:32:62:1d:
         40:2b:b1:a6:c9:63:67:94:5f:ce:08:50:9b:98:2f:d7:b6:d3:
         4f:66:1b:4f:85:dd:d9:6d:48:43:72:d5:a3:8e:13:bd:43:56:
         75:22:21:6d:dd:9a:6f:7c:13:45:ac:30:a2:6d:57:82:ef:11:
         94:a4:0c:d8:7b:f2:28:47:82:2d:5a:48:b8:a0:af:95:06:e1:
         3f:24:10:a0:cc:17:72:d1:cd:05:34:98:9d:05:98:38:74:22:
         9c:4f:72:37:a4:8e:41:c7:30:d5:ad:3f:f1:8b:a5:f3:76:05:
         f3:3a:fd:fd:2d:94:01:5e:6a:61:11:1c:e8:67:63:23:69:17:
         08:44:37:96:60:b8:e0:5e:eb:de:a7:66:49:55:13:90:bd:ec:
         80:bd:ca:ac:08:ce:d7:18:e3:fc:5f:eb:73:46:7f:e4:f8:e4:
         b2:bf:09:1b:36:32:89:93:ac:aa:96:e4:fb:47:69:79:b7:fa:
         21:c0:5c:9c:24:4e:ff:8e:6a:2d:24:24:e1:71:04:19:39:37:
         89:41:a3:b8:4a:2f:60:a0:e4:f8:12:87:9e:37:d6:15:5a:b2:
         d0:46:75:7b:c7:07:0e:8e:40:36:b6:1f:dd:5d:5b:06:a9:f8:
         53:76:15:a0:76:3f:50:e3
-----BEGIN CERTIFICATE-----
MIIEbDCCAlSgAwIBAgIIVFQ+yW+fa5cwDQYJKoZIhvcNAQELBQAwfDELMAkGA1UE
BhMCSVQxDzANBgNVBAgTBk1pbGFubzEYMBYGA1UEBxMPU2FudGEgUmVkZWdvbmRh
MSIwIAYDVQQKExlDZXJ0aWZpY2F0aSBHcmF0aXMgUy5wLkEuMR4wHAYDVQQDExVD
ZXJ0aWZpY2F0aSBHcmF0aXMgQ0EwHhcNMjQwMzA4MDk0MTAwWhcNMjUwMzA4MDg1
MDAwWjBXMQswCQYDVQQGEwJJVDEPMA0GA1UECBMGTWlsYW5vMQ8wDQYDVQQHEwZN
aWxhbm8xEDAOBgNVBAoTB0V4YW1wbGUxFDASBgNVBAMTC2V4YW1wbGUub3JnMIIB
IjANBgkqhkiG9w0BAQEFAAOCAQ8AMIIBCgKCAQEAtKPqRkXX2ZoEqwB3ft8Uyazz
tz7adaFrINeJ7FWdA+EnR7/MG+AB6LXQrf//GeHr9a5/fzWkCZhqF4d20zbhjCXC
F6deMhJOxJq3xNXL+P4oZrXg1r/Tty5VMF3se17vwDINiUQrZ4wevYiwUMsYIudC
SsOCX0s6s0eMCPHP3dPkofRoKXYw+bxDXZCgOMy+cwQQQh+cdbFfL6+VTZiHNhMW
zxg+zf30HUK3EO5PERxNdBovWJ9OKTUNmq9VDBEjgVCtfysT/JWvp2j+f6+XSoWl
orWpz5ZjPoSL8sZhpPkmE54bX3kGe47F9tVsUrs8QP8D8uLu2KV/1CX3UkV/5wID
AQABoxcwFTATBgNVHSUEDDAKBggrBgEFBQcDATANBgkqhkiG9w0BAQsFAAOCAgEA
P6QqtXqZEcCgSzu0XxQ4fhvvbci5jcZ0fQnOe4SciEfb4SD9NdOsXrr/iXeIhp7V
dLRyKJQ1ARtetCbR4zzhk1cNCat6FDY9el3tAUpXzyy5TWFwtPdswWB0+mh6CA8j
hDro+R2Wynx1ZmIl49VF+eGlq6NUyExTxE8OtTlFLKBF9fxuST3r9HB1amjj7fxk
glbpwL4xHqikkiJuxpQDSa4h6XdST1reWZrZoeq7AD4MYsGKgU3oRikA9iODwtPf
tbPPFn7YNVNbitKFqUV4DNPe6Dy6jJYjQx5TNTbeC0opYwzZ4bRSZwGUmHU0W5B/
a4j5nuRzCBpBk9+0Ob+u2LS2kndFdp+YeBTFMmIdQCuxpsljZ5RfzghQm5gv17bT
T2YbT4Xd2W1IQ3LVo44TvUNWdSIhbd2ab3wTRawwom1Xgu8RlKQM2HvyKEeCLVpI
uKCvlQbhPyQQoMwXctHNBTSYnQWYOHQinE9yN6SOQccw1a0/8Yul83YF8zr9/S2U
AV5qYREc6GdjI2kXCEQ3lmC44F7r3qdmSVUTkL3sgL3KrAjO1xjj/F/rc0Z/5Pjk
sr8JGzYyiZOsqpbk+0dpebf6IcBcnCRO/45qLSQk4XEEGTk3iUGjuEovYKDk+BKH
njfWFVqy0EZ1e8cHDo5ANrYf3V1bBqn4U3YVoHY/UOM=
-----END CERTIFICATE-----
