Certificate:
    Data:
        Version: 3 (0x2)
        Serial Number:
            16:18:78:a4:fd:6c:de:80:46:61:3f:d1
        Signature Algorithm: ecdsa-with-SHA256
        Issuer: CN = Lint CA, O = Lint, C = DE
        Validity
            Not Before: Sep 15 00:00:00 2023 GMT
            Not After : Sep 15 00:00:00 2024 GMT
        Subject: organizationIdentifier = TeletexString
        Subject Public Key Info:
            Public Key Algorithm: id-ecPublicKey
                Public-Key: (256 bit)
                pub:
                    04:35:7d:f8:9a:89:7d:6c:1c:d1:c8:e2:97:09:9f:
                    6f:2a:df:55:30:97:06:3d:06:59:94:66:92:da:3e:
                    f1:7d:5e:1f:22:3c:39:ed:f1:70:24:5e:7d:15:2a:
                    e0:fc:6f:8b:69:86:5c:b4:dc:11:fe:61:3f:41:71:
                    1d:c5:60:2b:14
                ASN1 OID: prime256v1
                NIST CURVE: P-256
        X509v3 extensions:
            X509v3 Certificate Policies: 
                Policy: 2.23.140.1.2.1

    Signature Algorithm: ecdsa-with-SHA256
         30:44:02:20:70:b1:29:ff:cc:f7:94:32:13:42:c8:e2:76:0d:
         8e:8d:2b:ec:b3:3d:aa:53:98:b7:45:43:48:6d:46:33:59:9b:
         02:20:69:89:4a:2f:61:65:94:93:55:fe:9a:e7:81:67:1a:43:
         c2:ad:80:9f:b3:a9:87:21:a8:e1:f1:3c:11:98:16:dd
-----BEGIN CERTIFICATE-----
MIIBVTCB/aADAgECAgwWGHik/WzegEZhP9EwCgYIKoZIzj0EAwIwLjEQMA4GA1UE
AwwHTGludCBDQTENMAsGA1UECgwETGludDELMAkGA1UEBhMCREUwHhcNMjMwOTE1
MDAwMDAwWhcNMjQwOTE1MDAwMDAwWjAYMRYwFAYDVQRhFA1UZWxldGV4U3RyaW5n
MFkwEwYHKoZIzj0CAQYIKoZIzj0DAQcDQgAENX34mol9bBzRyOKXCZ9vKt9VMJcG
PQZZlGaS2j7xfV4fIjw57fFwJF59FSrg/G+LaYZctNwR/mE/QXEdxWArFKMXMBUw
EwYDVR0gBAwwCjAIBgZngQwBAgEwCgYIKoZIzj0EAwIDRwAwRAIgcLEp/8z3lDIT
Qsjidg2OjSvssz2qU5i3RUNIbUYzWZsCIGmJSi9hZZSTVf6a54FnGkPCrYCfs6mH
Iajh8TwRmBbd
-----END CERTIFICATE-----
