Certificate:
    Data:
        Version: 3 (0x2)
        Serial Number: 3065546558357960659 (0x2a8b025a5558f7d3)
        Signature Algorithm: sha256WithRSAEncryption
        Issuer: C = IT, ST = Milano, L = Santa Redegonda, O = Certificati Gratis S.p.A., CN = Certificati Gratis CA
        Validity
            Not Before: Mar  8 14:02:00 2024 GMT
            Not After : Mar  8 08:50:00 2025 GMT
        Subject: C = IT, ST = Milano, L = Milano, O = Example, CN = example.org, street = Via Carducci
        Subject Public Key Info:
            Public Key Algorithm: rsaEncryption
                RSA Public-Key: (2048 bit)
                Modulus:
                    00:c1:0a:81:60:21:e7:7b:a3:ec:6f:e4:e0:fc:2f:
                    61:47:88:69:01:58:9b:a3:89:98:0b:42:17:47:87:
                    87:b2:0e:1f:74:22:28:e5:cf:9a:d2:7f:26:db:4f:
                    1d:e8:8d:19:fa:cd:e6:dd:4c:c0:da:38:93:f6:bf:
                    e8:f4:9d:1f:00:c8:bf:cb:f5:4f:b0:fa:c3:24:ce:
                    2f:04:3b:fa:27:dd:8c:3b:f7:44:09:89:16:19:0e:
                    95:0a:8d:eb:0e:54:3f:81:c0:e7:62:b0:d9:6b:5a:
                    89:93:78:08:db:8c:18:3d:24:81:6b:2e:b9:ff:0d:
                    5a:71:24:b7:53:1f:c2:96:57:cd:49:98:b6:21:35:
                    47:6b:83:19:2d:a9:4b:e2:17:a2:bd:1e:ab:16:4f:
                    d4:9a:9b:01:d8:e1:bf:d5:27:75:f2:09:78:63:1b:
                    24:5e:2d:fe:66:fa:32:96:60:51:9c:46:0e:0b:aa:
                    e8:57:22:d4:16:38:11:96:d0:fe:63:56:f1:e8:7e:
                    eb:99:75:ce:4b:d2:e2:f9:71:26:62:31:2a:03:5d:
                    b4:d4:04:fb:33:9f:34:de:a1:39:85:cf:48:d0:a1:
                    16:d5:95:c7:20:38:ba:24:d9:de:98:31:01:0b:1c:
                    be:6e:bb:16:0d:f5:06:42:27:82:49:57:32:f3:67:
                    02:ab
                Exponent: 65537 (0x10001)
        X509v3 extensions:
            X509v3 Extended Key Usage: 
                TLS Web Server Authentication
    Signature Algorithm: sha256WithRSAEncryption
         09:82:cd:65:23:8d:a9:1c:b2:c2:10:a2:ee:44:4c:03:d4:e0:
         69:b3:bf:cc:43:10:d7:a7:6c:3a:cf:8d:9f:61:0c:38:8a:09:
         b2:f0:73:41:2f:07:94:7a:d3:38:ba:75:d7:4c:63:a8:2d:48:
         c5:56:80:d7:3c:62:ba:c5:15:43:cd:de:60:33:2b:42:0b:e2:
         7c:65:f6:d9:ae:0b:9a:0b:54:c0:5a:1c:9b:95:91:17:6d:e9:
         c5:7d:cc:52:47:35:65:16:10:45:81:58:45:3e:bf:35:15:b4:
         30:d2:ba:6a:75:3e:68:9c:2e:d5:aa:2c:07:ea:ae:71:74:78:
         63:63:3d:9f:15:08:5a:0f:80:cf:7a:f1:cc:ba:48:d5:a1:f7:
         da:b8:c0:1c:c3:7c:94:fc:fd:d7:5b:56:ec:5a:a8:33:23:6a:
         18:74:d0:9a:a4:91:6e:3d:53:d0:ff:d3:a2:81:c2:74:50:44:
         4a:57:92:cd:8e:4b:d4:b0:08:22:9e:20:13:b0:0b:eb:9c:ce:
         c2:b7:e9:d6:28:c6:d2:ea:29:3e:2f:7f:b1:02:16:7f:74:b3:
         4a:09:88:b9:ef:ce:74:60:18:cd:7b:37:03:07:45:d6:63:2d:
         af:d2:df:80:b5:00:af:27:d0:f2:18:2b:b1:8a:68:ec:7e:f9:
         0e:cf:f1:4e:e0:89:03:1b:be:36:d4:a0:a7:f5:f3:76:b8:10:
         92:99:5c:00:08:85:c2:68:9c:47:5d:5a:f1:fa:29:ee:29:df:
         44:9a:bb:97:1d:cf:89:80:c2:4b:b0:39:68:07:48:e2:51:23:
         2e:d7:4b:49:5e:11:ad:60:c4:e3:1b:08:2e:01:7e:85:d0:76:
         a3:5e:09:92:0f:0c:a0:9f:e5:d4:75:9e:f8:a6:f3:ac:43:6d:
         26:ca:29:5d:3a:e3:b1:33:2d:60:9b:a7:ea:d8:62:43:11:38:
         c9:0b:f9:c1:ae:fb:c2:37:2a:65:62:21:6f:ba:49:33:98:5a:
         c0:a0:8a:16:16:e6:56:29:e6:e8:f7:54:f5:68:48:aa:66:e0:
         90:17:42:ac:64:77:09:39:d7:e1:ba:c8:e3:9d:89:76:d3:bb:
         ea:f7:64:23:8c:7e:24:ff:0d:7a:0e:49:5d:b9:1f:26:92:5f:
         64:a3:e5:07:40:27:f3:2b:6a:e8:4b:7c:95:7b:3e:9d:42:db:
         8d:03:04:f5:ab:1a:8d:13:93:fb:92:80:e0:1f:c2:49:70:22:
         25:b9:6f:bb:b7:49:6c:6c:05:59:6d:db:81:91:14:1d:92:9b:
         73:50:a6:80:3e:dd:a8:13:fe:df:3c:a3:92:fd:d4:95:ed:f6:
         57:84:a0:7f:1d:1f:05:13
-----BEGIN CERTIFICATE-----
MIIEgzCCAmugAwIBAgIIKosCWlVY99MwDQYJKoZIhvcNAQELBQAwfDELMAkGA1UE
BhMCSVQxDzANBgNVBAgTBk1pbGFubzEYMBYGA1UEBxMPU2FudGEgUmVkZWdvbmRh
MSIwIAYDVQQKExlDZXJ0aWZpY2F0aSBHcmF0aXMgUy5wLkEuMR4wHAYDVQQDExVD
ZXJ0aWZpY2F0aSBHcmF0aXMgQ0EwHhcNMjQwMzA4MTQwMjAwWhcNMjUwMzA4MDg1
MDAwWjBuMQswCQYDVQQGEwJJVDEPMA0GA1UECBMGTWlsYW5vMQ8wDQYDVQQHEwZN
aWxhbm8xEDAOBgNVBAoTB0V4YW1wbGUxFDASBgNVBAMTC2V4YW1wbGUub3JnMRUw
EwYDVQQJEwxWaWEgQ2FyZHVjY2kwggEiMA0GCSqGSIb3DQEBAQUAA4IBDwAwggEK
AoIBAQDBCoFgIed7o+xv5OD8L2FHiGkBWJujiZgLQhdHh4eyDh90Iijlz5rSfybb
Tx3ojRn6zebdTMDaOJP2v+j0nR8AyL/L9U+w+sMkzi8EO/on3Yw790QJiRYZDpUK
jesOVD+BwOdisNlrWomTeAjbjBg9JIFrLrn/DVpxJLdTH8KWV81JmLYhNUdrgxkt
qUviF6K9HqsWT9SamwHY4b/VJ3XyCXhjGyReLf5m+jKWYFGcRg4LquhXItQWOBGW
0P5jVvHofuuZdc5L0uL5cSZiMSoDXbTUBPsznzTeoTmFz0jQoRbVlccgOLok2d6Y
MQELHL5uuxYN9QZCJ4JJVzLzZwKrAgMBAAGjFzAVMBMGA1UdJQQMMAoGCCsGAQUF
BwMBMA0GCSqGSIb3DQEBCwUAA4ICAQAJgs1lI42pHLLCEKLuREwD1OBps7/MQxDX
p2w6z42fYQw4igmy8HNBLweUetM4unXXTGOoLUjFVoDXPGK6xRVDzd5gMytCC+J8
ZfbZrguaC1TAWhyblZEXbenFfcxSRzVlFhBFgVhFPr81FbQw0rpqdT5onC7VqiwH
6q5xdHhjYz2fFQhaD4DPevHMukjVoffauMAcw3yU/P3XW1bsWqgzI2oYdNCapJFu
PVPQ/9OigcJ0UERKV5LNjkvUsAginiATsAvrnM7Ct+nWKMbS6ik+L3+xAhZ/dLNK
CYi57850YBjNezcDB0XWYy2v0t+AtQCvJ9DyGCuximjsfvkOz/FO4IkDG7421KCn
9fN2uBCSmVwACIXCaJxHXVrx+inuKd9EmruXHc+JgMJLsDloB0jiUSMu10tJXhGt
YMTjGwguAX6F0HajXgmSDwygn+XUdZ74pvOsQ20myildOuOxMy1gm6fq2GJDETjJ
C/nBrvvCNyplYiFvukkzmFrAoIoWFuZWKebo91T1aEiqZuCQF0KsZHcJOdfhusjj
nYl207vq92QjjH4k/w16DklduR8mkl9ko+UHQCfzK2roS3yVez6dQtuNAwT1qxqN
E5P7koDgH8JJcCIluW+7t0lsbAVZbduBkRQdkptzUKaAPt2oE/7fPKOS/dSV7fZX
hKB/HR8FEw==
-----END CERTIFICATE-----
