Certificate:
    Data:
        Version: 3 (0x2)
        Serial Number: 1337 (0x539)
        Signature Algorithm: sha256WithRSAEncryption
        Issuer: 
        Validity
            Not Before: Feb 27 13:58:15 2019 GMT
            Not After : Feb 24 14:58:15 2029 GMT
        Subject: 
        Subject Public Key Info:
            Public Key Algorithm: rsaEncryption
                RSA Public-Key: (512 bit)
                Modulus:
                    00:db:d3:8f:ab:1a:f5:3c:4e:9a:20:91:1c:31:39:
                    6f:ef:fb:01:89:b8:b7:9c:2b:29:37:89:e8:ec:64:
                    13:7f:2c:44:f3:b4:ee:de:62:32:7a:9d:eb:56:28:
                    39:96:f1:d9:3e:64:ed:f1:cd:8e:b6:cd:07:f3:17:
                    0f:a2:da:bc:6d
                Exponent: 65537 (0x10001)
        X509v3 extensions:
            X509v3 Extended Key Usage: 
                TLS Web Server Authentication, TLS Web Client Authentication
            X509v3 Basic Constraints: critical
                CA:FALSE
            X509v3 Subject Alternative Name: critical
                DNS:zmap.io, DNS:j.a.9.8.7.6.5.0.4.0.0.0.3.0.0.0.2.0.0.0.1.0.0.0.0.0.0.0.1.2.3.4.ip6.arpa
    Signature Algorithm: sha256WithRSAEncryption
         81:db:ec:6b:38:09:b5:e4:b0:dd:1f:97:db:27:13:28:f3:6e:
         c8:32:92:bf:9b:40:8e:16:03:2c:6a:cc:a6:eb:b1:f0:a3:30:
         f0:39:b6:38:86:6b:6f:0c:c3:91:16:1a:3d:48:12:61:e6:5d:
         28:52:7c:4d:b8:45:2b:e6:28:ff
-----BEGIN CERTIFICATE-----
MIIBhDCCAS6gAwIBAgICBTkwDQYJKoZIhvcNAQELBQAwADAeFw0xOTAyMjcxMzU4
MTVaFw0yOTAyMjQxNDU4MTVaMAAwXDANBgkqhkiG9w0BAQEFAANLADBIAkEA29OP
qxr1PE6aIJEcMTlv7/sBibi3nCspN4no7GQTfyxE87Tu3mIyep3rVig5lvHZPmTt
8c2Ots0H8xcPotq8bQIDAQABo4GRMIGOMB0GA1UdJQQWMBQGCCsGAQUFBwMBBggr
BgEFBQcDAjAMBgNVHRMBAf8EAjAAMF8GA1UdEQEB/wRVMFOCB3ptYXAuaW+CSGou
YS45LjguNy42LjUuMC40LjAuMC4wLjMuMC4wLjAuMi4wLjAuMC4xLjAuMC4wLjAu
MC4wLjAuMS4yLjMuNC5pcDYuYXJwYTANBgkqhkiG9w0BAQsFAANBAIHb7Gs4CbXk
sN0fl9snEyjzbsgykr+bQI4WAyxqzKbrsfCjMPA5tjiGa28Mw5EWGj1IEmHmXShS
fE24RSvmKP8=
-----END CERTIFICATE-----
