Certificate:
    Data:
        Version: 3 (0x2)
        Serial Number: 3787884309683191120 (0x349144b5e8f13d50)
        Signature Algorithm: sha256WithRSAEncryption
        Issuer: C = IT, ST = Milano, L = Santa Redegonda, O = Certificati Gratis S.p.A., CN = Certificati Gratis CA
        Validity
            Not Before: Mar  8 10:29:00 2024 GMT
            Not After : Mar  8 08:50:00 2025 GMT
        Subject: 
        Subject Public Key Info:
            Public Key Algorithm: rsaEncryption
                RSA Public-Key: (2048 bit)
                Modulus:
                    00:c1:0a:81:60:21:e7:7b:a3:ec:6f:e4:e0:fc:2f:
                    61:47:88:69:01:58:9b:a3:89:98:0b:42:17:47:87:
                    87:b2:0e:1f:74:22:28:e5:cf:9a:d2:7f:26:db:4f:
                    1d:e8:8d:19:fa:cd:e6:dd:4c:c0:da:38:93:f6:bf:
                    e8:f4:9d:1f:00:c8:bf:cb:f5:4f:b0:fa:c3:24:ce:
                    2f:04:3b:fa:27:dd:8c:3b:f7:44:09:89:16:19:0e:
                    95:0a:8d:eb:0e:54:3f:81:c0:e7:62:b0:d9:6b:5a:
                    89:93:78:08:db:8c:18:3d:24:81:6b:2e:b9:ff:0d:
                    5a:71:24:b7:53:1f:c2:96:57:cd:49:98:b6:21:35:
                    47:6b:83:19:2d:a9:4b:e2:17:a2:bd:1e:ab:16:4f:
                    d4:9a:9b:01:d8:e1:bf:d5:27:75:f2:09:78:63:1b:
                    24:5e:2d:fe:66:fa:32:96:60:51:9c:46:0e:0b:aa:
                    e8:57:22:d4:16:38:11:96:d0:fe:63:56:f1:e8:7e:
                    eb:99:75:ce:4b:d2:e2:f9:71:26:62:31:2a:03:5d:
                    b4:d4:04:fb:33:9f:34:de:a1:39:85:cf:48:d0:a1:
                    16:d5:95:c7:20:38:ba:24:d9:de:98:31:01:0b:1c:
                    be:6e:bb:16:0d:f5:06:42:27:82:49:57:32:f3:67:
                    02:ab
                Exponent: 65537 (0x10001)
        X509v3 extensions:
            X509v3 Extended Key Usage: 
                TLS Web Server Authentication
            X509v3 Subject Alternative Name: critical
                DNS:example.org
    Signature Algorithm: sha256WithRSAEncryption
         14:1d:17:7b:5e:e0:bc:fd:b5:cb:c0:3c:0e:ba:c9:e4:c3:89:
         d9:c1:8e:37:13:5d:dc:c3:b1:2e:b6:93:77:a6:7e:54:e4:62:
         28:ce:77:e2:c9:83:42:26:51:59:f4:31:83:db:d9:d1:0f:45:
         9a:2a:a0:23:d3:29:dc:7c:0b:58:d9:36:db:8a:e0:78:c0:23:
         ee:2c:8d:f6:5a:16:44:77:70:b2:07:15:08:e4:db:8b:96:24:
         46:2d:36:46:64:8d:39:17:65:e2:cd:d1:62:a4:03:3a:b0:ba:
         96:28:fb:2e:67:13:24:26:ed:17:08:30:56:d2:a8:6e:21:25:
         26:e4:fe:44:b0:3f:08:3b:53:a6:06:36:b7:66:4f:f4:83:27:
         35:e7:15:98:3b:0f:3a:1b:b4:28:53:4b:2c:78:0b:bb:64:a5:
         bf:e4:bf:d3:4f:87:dc:86:e7:a5:ea:0d:e2:01:b9:c2:f7:95:
         72:9b:6c:2d:7d:58:3b:f5:b7:3d:b7:e0:6a:3f:07:fa:5a:9d:
         56:c0:f9:51:e0:ed:d2:94:27:e8:dd:d6:8b:b4:39:ba:0f:f8:
         99:ea:25:e5:3a:04:11:07:ca:3f:b0:49:5d:09:a3:6d:f6:d5:
         0b:f7:76:dd:1b:39:aa:13:ba:77:56:37:a8:21:cf:ba:99:da:
         55:dd:84:26:03:e5:f2:cf:32:08:3f:cf:a6:47:5d:3e:aa:66:
         80:34:8d:45:5e:cf:59:d9:f8:00:68:09:94:bd:72:ee:93:b4:
         ab:6d:d3:e6:4d:b7:82:f0:84:fb:2c:3d:27:61:51:d1:2d:03:
         9e:bd:d2:f3:20:4f:08:b9:6d:ca:a3:5d:23:6d:9a:07:54:31:
         cf:aa:bd:cc:05:c9:f4:be:83:5f:13:ce:a6:a9:ae:42:73:96:
         c4:b5:05:ee:61:49:78:8b:65:46:2a:64:ae:8c:44:9e:3b:e5:
         2d:b4:fc:9a:79:50:cb:c1:39:3f:7b:78:3b:09:9a:aa:29:69:
         46:a4:a0:10:c5:33:39:66:0e:42:bf:f1:f3:02:3d:d8:56:d0:
         e8:80:e2:f9:54:cc:74:9d:52:67:32:73:eb:cf:c8:d5:15:10:
         da:78:08:cb:71:a1:73:1a:55:1c:65:30:17:d2:49:b8:ae:ac:
         33:6a:6f:81:10:63:26:1d:fe:51:ef:e7:1c:55:d9:41:cb:7f:
         d1:bc:36:80:1f:fe:c1:1b:6c:e6:ba:27:b7:78:f5:29:1d:b0:
         30:57:b3:e3:9a:da:5e:17:71:8a:ef:dd:b6:52:9a:f3:1f:fb:
         f3:91:2e:fb:5a:c3:a3:a3:1a:73:bc:8e:45:56:96:e6:7c:58:
         5c:e4:85:96:a8:57:e4:ea
-----BEGIN CERTIFICATE-----
MIIEMDCCAhigAwIBAgIINJFEtejxPVAwDQYJKoZIhvcNAQELBQAwfDELMAkGA1UE
BhMCSVQxDzANBgNVBAgTBk1pbGFubzEYMBYGA1UEBxMPU2FudGEgUmVkZWdvbmRh
MSIwIAYDVQQKExlDZXJ0aWZpY2F0aSBHcmF0aXMgUy5wLkEuMR4wHAYDVQQDExVD
ZXJ0aWZpY2F0aSBHcmF0aXMgQ0EwHhcNMjQwMzA4MTAyOTAwWhcNMjUwMzA4MDg1
MDAwWjAAMIIBIjANBgkqhkiG9w0BAQEFAAOCAQ8AMIIBCgKCAQEAwQqBYCHne6Ps
b+Tg/C9hR4hpAVibo4mYC0IXR4eHsg4fdCIo5c+a0n8m208d6I0Z+s3m3UzA2jiT
9r/o9J0fAMi/y/VPsPrDJM4vBDv6J92MO/dECYkWGQ6VCo3rDlQ/gcDnYrDZa1qJ
k3gI24wYPSSBay65/w1acSS3Ux/CllfNSZi2ITVHa4MZLalL4heivR6rFk/UmpsB
2OG/1Sd18gl4YxskXi3+ZvoylmBRnEYOC6roVyLUFjgRltD+Y1bx6H7rmXXOS9Li
+XEmYjEqA1201AT7M5803qE5hc9I0KEW1ZXHIDi6JNnemDEBCxy+brsWDfUGQieC
SVcy82cCqwIDAQABozIwMDATBgNVHSUEDDAKBggrBgEFBQcDATAZBgNVHREBAf8E
DzANggtleGFtcGxlLm9yZzANBgkqhkiG9w0BAQsFAAOCAgEAFB0Xe17gvP21y8A8
DrrJ5MOJ2cGONxNd3MOxLraTd6Z+VORiKM534smDQiZRWfQxg9vZ0Q9FmiqgI9Mp
3HwLWNk224rgeMAj7iyN9loWRHdwsgcVCOTbi5YkRi02RmSNORdl4s3RYqQDOrC6
lij7LmcTJCbtFwgwVtKobiElJuT+RLA/CDtTpgY2t2ZP9IMnNecVmDsPOhu0KFNL
LHgLu2Slv+S/00+H3IbnpeoN4gG5wveVcptsLX1YO/W3Pbfgaj8H+lqdVsD5UeDt
0pQn6N3Wi7Q5ug/4meol5ToEEQfKP7BJXQmjbfbVC/d23Rs5qhO6d1Y3qCHPupna
Vd2EJgPl8s8yCD/PpkddPqpmgDSNRV7PWdn4AGgJlL1y7pO0q23T5k23gvCE+yw9
J2FR0S0Dnr3S8yBPCLltyqNdI22aB1Qxz6q9zAXJ9L6DXxPOpqmuQnOWxLUF7mFJ
eItlRipkroxEnjvlLbT8mnlQy8E5P3t4OwmaqilpRqSgEMUzOWYOQr/x8wI92FbQ
6IDi+VTMdJ1SZzJz68/I1RUQ2ngIy3GhcxpVHGUwF9JJuK6sM2pvgRBjJh3+Ue/n
HFXZQct/0bw2gB/+wRts5ront3j1KR2wMFez45raXhdxiu/dtlKa8x/785Eu+1rD
o6Mac7yORVaW5nxYXOSFlqhX5Oo=
-----END CERTIFICATE-----
