Certificate:
    Data:
        Version: 3 (0x2)
        Serial Number:
            87:56:ba:6b:cb:7a:5b:1f:0e:b5:48:26
        Signature Algorithm: ecdsa-with-SHA256
        Issuer: CN = Lint CA, O = Lint, C = DE
        Validity
            Not Before: Sep 15 00:00:00 2023 GMT
            Not After : Sep 15 00:00:00 2024 GMT
        Subject: SN = IA5String
        Subject Public Key Info:
            Public Key Algorithm: id-ecPublicKey
                Public-Key: (256 bit)
                pub:
                    04:35:7d:f8:9a:89:7d:6c:1c:d1:c8:e2:97:09:9f:
                    6f:2a:df:55:30:97:06:3d:06:59:94:66:92:da:3e:
                    f1:7d:5e:1f:22:3c:39:ed:f1:70:24:5e:7d:15:2a:
                    e0:fc:6f:8b:69:86:5c:b4:dc:11:fe:61:3f:41:71:
                    1d:c5:60:2b:14
                ASN1 OID: prime256v1
                NIST CURVE: P-256
        X509v3 extensions:
            X509v3 Certificate Policies: 
                Policy: 2.23.140.1.2.1

    Signature Algorithm: ecdsa-with-SHA256
         30:44:02:20:0d:57:db:b2:67:2e:65:19:ce:63:53:70:6a:47:
         3c:04:39:e7:53:87:20:60:06:96:5b:9b:29:f4:03:d7:25:ac:
         02:20:07:a1:fb:68:1b:6b:ea:a3:15:7f:e7:89:13:64:d0:5d:
         6b:3c:03:56:aa:6f:d7:57:0a:f1:00:7b:f5:ab:b3:dc
-----BEGIN CERTIFICATE-----
MIIBUjCB+qADAgECAg0Ah1a6a8t6Wx8OtUgmMAoGCCqGSM49BAMCMC4xEDAOBgNV
BAMMB0xpbnQgQ0ExDTALBgNVBAoMBExpbnQxCzAJBgNVBAYTAkRFMB4XDTIzMDkx
NTAwMDAwMFoXDTI0MDkxNTAwMDAwMFowFDESMBAGA1UEBBYJSUE1U3RyaW5nMFkw
EwYHKoZIzj0CAQYIKoZIzj0DAQcDQgAENX34mol9bBzRyOKXCZ9vKt9VMJcGPQZZ
lGaS2j7xfV4fIjw57fFwJF59FSrg/G+LaYZctNwR/mE/QXEdxWArFKMXMBUwEwYD
VR0gBAwwCjAIBgZngQwBAgEwCgYIKoZIzj0EAwIDRwAwRAIgDVfbsmcuZRnOY1Nw
akc8BDnnU4cgYAaWW5sp9APXJawCIAeh+2gba+qjFX/niRNk0F1rPANWqm/XVwrx
AHv1q7Pc
-----END CERTIFICATE-----
