Certificate:
    Data:
        Version: 3 (0x2)
        Serial Number:
            0c:63:c4:5d:54:cf:7c:8b:7a:49:96:88:77
        Signature Algorithm: sha256WithRSAEncryption
        Issuer: CN = Lint Sub CA, OU = Test, O = MTG, C = DE
        Validity
            Not Before: Sep  1 00:00:00 2022 GMT
            Not After : Oct  1 00:00:00 2022 GMT
        Subject: CN = lint.mtg.de, O = MTG, L = Darmstadt, ST = Hesse, C = DE
        Subject Public Key Info:
            Public Key Algorithm: id-ecPublicKey
                Public-Key: (256 bit)
                pub:
                    04:77:38:5b:83:c9:dd:29:38:ca:67:28:7e:95:98:
                    2c:f4:e4:73:af:92:b2:63:0e:56:87:4b:57:2c:2e:
                    b1:0e:40:8e:59:5f:86:ec:3e:7e:70:61:f9:de:6a:
                    27:b8:6e:e7:f5:cd:f5:94:99:1d:83:db:7a:4e:0f:
                    5f:4e:17:0b:d2
                ASN1 OID: prime256v1
                NIST CURVE: P-256
    Signature Algorithm: sha256WithRSAEncryption
         83:61:61:cc:d0:bc:ad:ea:a1:e5:cb:f3:c5:52:03:6e:bc:05:
         33:2e:ce:28:78:9e:3b:5f:43:59:24:95:c0:7f:0b:ed:70:b8:
         c5:cc:48:0b:19:bc:60:6e:c1:5d:a9:8c:62:11:b6:3a:78:97:
         18:35:43:e0:ea:42:fb:7d:1b:a0:2e:6d:f0:af:86:37:90:d3:
         e4:e2:d0:a0:11:98:62:18:5b:d9:47:b7:b0:1a:02:90:49:9d:
         ef:1e:78:6e:4b:68:69:df:77:f4:fa:1b:60:97:d7:1d:41:3c:
         77:a9:b8:4f:60:83:b0:ca:a3:0b:dd:ce:02:38:60:44:ec:9f:
         65:e2:6f:cb:00:2c:f0:83:a5:f3:62:69:41:b2:42:97:be:63:
         97:fe:f3:6a:04:4a:89:9e:18:e2:08:5e:f8:87:f7:4f:e0:d4:
         2d:04:d2:74:67:f3:f9:08:a2:96:8d:9d:d7:81:22:43:66:80:
         a4:3f:4f:94:a5:ee:b9:8f:b0:d3:1a:37:92:07:42:07:97:ad:
         b0:59:68:54:bd:f9:52:22:0d:b8:93:85:b0:de:24:fd:6e:3f:
         32:55:0b:87:1f:94:9e:46:40:ca:84:7e:c7:32:94:a3:41:42:
         f6:07:90:0a:b0:21:72:e1:ba:fc:84:5e:a5:d0:06:e8:c1:77:
         c8:6b:9a:75
-----BEGIN CERTIFICATE-----
MIICTzCCATegAwIBAgINDGPEXVTPfIt6SZaIdzANBgkqhkiG9w0BAQsFADBAMRQw
EgYDVQQDDAtMaW50IFN1YiBDQTENMAsGA1UECwwEVGVzdDEMMAoGA1UECgwDTVRH
MQswCQYDVQQGEwJERTAeFw0yMjA5MDEwMDAwMDBaFw0yMjEwMDEwMDAwMDBaMFUx
FDASBgNVBAMMC2xpbnQubXRnLmRlMQwwCgYDVQQKDANNVEcxEjAQBgNVBAcMCURh
cm1zdGFkdDEOMAwGA1UECAwFSGVzc2UxCzAJBgNVBAYTAkRFMFkwEwYHKoZIzj0C
AQYIKoZIzj0DAQcDQgAEdzhbg8ndKTjKZyh+lZgs9ORzr5KyYw5Wh0tXLC6xDkCO
WV+G7D5+cGH53monuG7n9c31lJkdg9t6Tg9fThcL0jANBgkqhkiG9w0BAQsFAAOC
AQEAg2FhzNC8reqh5cvzxVIDbrwFMy7OKHieO19DWSSVwH8L7XC4xcxICxm8YG7B
XamMYhG2OniXGDVD4OpC+30boC5t8K+GN5DT5OLQoBGYYhhb2Ue3sBoCkEmd7x54
bktoad939PobYJfXHUE8d6m4T2CDsMqjC93OAjhgROyfZeJvywAs8IOl82JpQbJC
l75jl/7zagRKiZ4Y4ghe+If3T+DULQTSdGfz+Qiilo2d14EiQ2aApD9PlKXuuY+w
0xo3kgdCB5etsFloVL35UiINuJOFsN4k/W4/MlULhx+UnkZAyoR+xzKUo0FC9geQ
CrAhcuG6/IRepdAG6MF3yGuadQ==
-----END CERTIFICATE-----
