Certificate:
    Data:
        Version: 3 (0x2)
        Serial Number: 14615016 (0xdf01e8)
    Signature Algorithm: sha256WithRSAEncryption
        Issuer: C = US, O = Mother Nature, OU = Everything, CN = Mother Nature
        Validity
            Not Before: Apr 25 16:30:11 2017 GMT
            Not After : Jul  7 16:30:11 2017 GMT
        Subject: C = US, O = Extreme Discord, OU = Chaos, L = Tallahassee, ST = FL, street = 3210 Holly Mill Run, postalCode = 30062, CN = www.totallyfake.com
        Subject Public Key Info:
            Public Key Algorithm: rsaEncryption
                Public-Key: (2048 bit)
                Modulus:
                    00:cf:99:87:35:23:1c:cd:73:42:07:2b:b0:08:01:
                    d9:2d:a1:5d:55:ed:e1:ed:85:75:08:e5:f1:21:d9:
                    2c:1e:dd:d4:d5:0b:f1:18:44:04:c0:8f:10:fd:19:
                    11:47:83:83:3d:f1:6f:c4:a9:80:db:7a:d8:3a:3f:
                    a1:57:14:f7:c1:1b:67:9e:ff:7a:0c:5a:ad:6a:af:
                    81:da:c6:c8:b7:05:0e:f5:56:66:0b:75:ee:de:25:
                    66:b9:64:88:be:38:9d:04:2e:c6:c9:58:2a:41:7e:
                    86:7a:13:a1:55:4b:75:10:fc:80:eb:f2:63:31:a6:
                    fb:14:36:24:47:35:57:74:87:27:ad:8e:e0:f0:19:
                    56:e6:27:49:e4:b3:33:e2:5e:40:0d:99:49:27:ae:
                    52:57:a6:5c:7f:3f:2c:51:e3:64:37:23:f9:cc:d1:
                    8d:50:f4:e3:2b:79:d1:28:1c:60:80:c2:44:3f:0a:
                    30:5a:58:95:7a:09:6b:31:55:5f:63:86:f2:09:ed:
                    89:2e:6d:de:c4:1e:05:8b:7b:d5:10:1d:e9:59:8d:
                    18:ed:2c:6a:16:21:09:47:29:73:8b:d8:29:b0:94:
                    d9:83:d5:fb:d5:cb:40:77:0f:ed:db:c4:82:f9:ae:
                    72:0d:ec:6b:27:a4:a0:5a:2b:08:5a:2c:25:56:ef:
                    f3:95
                Exponent: 65537 (0x10001)
        X509v3 extensions:
            X509v3 Basic Constraints: critical
                CA:FALSE
            X509v3 Authority Key Identifier: 
                keyid:01:02:03

            Authority Information Access: 
                OCSP - URI:http://theca.net/ocsp
                CA Issuers - URI:theca.net/totallythecert.crt

            X509v3 Subject Alternative Name: 
                DNS:Not a dns, IP Address:128.168.45.1
            X509v3 CRL Distribution Points: 

                Full Name:
                  URI:ldap://theca.net/crlpoint

            X509v3 Subject Key Identifier: 
                04:03:02:01
            X509v3 Key Usage: 
                Data Encipherment, Key Agreement
            X509v3 Extended Key Usage: 
                TLS Web Server Authentication, 1.2.840.113635.100.4.3, Signing KDC Response, Any Extended Key Usage
            X509v3 Certificate Policies: 
                Policy: 2.16.840.1.114414.1.7.23.1
                  CPS: http://certificates.starfieldtech.com/repository/

    Signature Algorithm: sha256WithRSAEncryption
         7e:cd:bf:35:0e:bd:a0:44:f9:1d:68:c3:3c:d2:a0:63:87:62:
         b9:78:55:7d:b9:36:01:67:6a:5f:1e:37:2c:c9:a9:72:a9:11:
         1c:f0:13:dd:d0:d5:3e:d3:b2:3c:e3:84:eb:3f:d4:7e:8c:02:
         50:01:6d:36:07:a6:8d:2d:80:68:70:65:0f:25:71:12:d8:9d:
         80:df:7e:8d:79:66:16:dd:3e:6b:34:40:85:82:04:81:84:6a:
         e2:32:57:c7:e1:eb:0b:9f:7c:17:61:8c:e1:5d:09:d8:3e:0f:
         c8:1f:7a:3b:04:13:b9:97:00:86:a7:ab:ce:16:0f:3c:60:cb:
         bc:fb:bb:32:79:29:cb:30:2d:0e:7e:07:ce:31:6e:c4:6b:c7:
         a9:c0:4b:b6:b7:c2:f5:36:03:ef:d0:24:21:c7:26:2e:21:41:
         88:17:dd:81:82:de:71:ac:69:7e:de:59:35:10:98:c4:10:b8:
         a0:bb:6b:18:c6:35:fd:6e:19:ef:33:06:92:46:86:86:9e:8e:
         e8:14:f4:f3:96:b3:2b:05:d2:b1:7a:3c:c3:b5:5c:55:c6:b2:
         4a:ec:5c:2e:49:f5:11:b6:1d:ef:4f:a4:a8:b1:6d:c9:90:9f:
         cb:41:b9:e8:fe:d0:ff:fa:a9:e4:08:13:f0:f6:a1:08:41:2f:
         e9:3c:4e:ea
-----BEGIN CERTIFICATE-----
MIIE5jCCA9CgAwIBAgIEAN8B6DALBgkqhkiG9w0BAQswVDELMAkGA1UEBhMCVVMx
FjAUBgNVBAoTDU1vdGhlciBOYXR1cmUxEzARBgNVBAsTCkV2ZXJ5dGhpbmcxFjAU
BgNVBAMTDU1vdGhlciBOYXR1cmUxADAeFw0xNzA0MjUxNjMwMTFaFw0xNzA3MDcx
NjMwMTFaMIGoMQswCQYDVQQGEwJVUzEYMBYGA1UEChMPRXh0cmVtZSBEaXNjb3Jk
MQ4wDAYDVQQLEwVDaGFvczEUMBIGA1UEBxMLVGFsbGFoYXNzZWUxCzAJBgNVBAgT
AkZMMRwwGgYDVQQJExMzMjEwIEhvbGx5IE1pbGwgUnVuMQ4wDAYDVQQREwUzMDA2
MjEcMBoGA1UEAxMTd3d3LnRvdGFsbHlmYWtlLmNvbTEAMIIBIjANBgkqhkiG9w0B
AQEFAAOCAQ8AMIIBCgKCAQEAz5mHNSMczXNCByuwCAHZLaFdVe3h7YV1COXxIdks
Ht3U1QvxGEQEwI8Q/RkRR4ODPfFvxKmA23rYOj+hVxT3wRtnnv96DFqtaq+B2sbI
twUO9VZmC3Xu3iVmuWSIvjidBC7GyVgqQX6GehOhVUt1EPyA6/JjMab7FDYkRzVX
dIcnrY7g8BlW5idJ5LMz4l5ADZlJJ65SV6Zcfz8sUeNkNyP5zNGNUPTjK3nRKBxg
gMJEPwowWliVeglrMVVfY4byCe2JLm3exB4Fi3vVEB3pWY0Y7SxqFiEJRylzi9gp
sJTZg9X71ctAdw/t28SC+a5yDexrJ6SgWisIWiwlVu/zlQIDAQABo4IBbTCCAWkw
DAYDVR0TAQH/BAIwADAOBgNVHSMEBzAFgAMBAgMwWwYIKwYBBQUHAQEETzBNMCEG
CCsGAQUFBzABhhVodHRwOi8vdGhlY2EubmV0L29jc3AwKAYIKwYBBQUHMAKGHHRo
ZWNhLm5ldC90b3RhbGx5dGhlY2VydC5jcnQwGgYDVR0RBBMwEYIJTm90IGEgZG5z
hwSAqC0BMCoGA1UdHwQjMCEwH6AdoBuGGWxkYXA6Ly90aGVjYS5uZXQvY3JscG9p
bnQwDQYDVR0OBAYEBAQDAgEwCwYDVR0PBAQDAgEYMC0GA1UdJQQmMCQGCCsGAQUF
BwMBBgkqhkiG92NkBAMGBysGAQUCAwUGBFUdJQAwWQYDVR0gBFIwUDBOBgtghkgB
hv1uAQcXATA/MD0GCCsGAQUFBwIBFjFodHRwOi8vY2VydGlmaWNhdGVzLnN0YXJm
aWVsZHRlY2guY29tL3JlcG9zaXRvcnkvMAsGCSqGSIb3DQEBCwOCAQEAfs2/NQ69
oET5HWjDPNKgY4diuXhVfbk2AWdqXx43LMmpcqkRHPAT3dDVPtOyPOOE6z/UfowC
UAFtNgemjS2AaHBlDyVxEtidgN9+jXlmFt0+azRAhYIEgYRq4jJXx+HrC598F2GM
4V0J2D4PyB96OwQTuZcAhqerzhYPPGDLvPu7MnkpyzAtDn4HzjFuxGvHqcBLtrfC
9TYD79AkIccmLiFBiBfdgYLecaxpft5ZNRCYxBC4oLtrGMY1/W4Z7zMGkkaGhp6O
6BT085azKwXSsXo8w7VcVcaySuxcLkn1EbYd70+kqLFtyZCfy0G56P7Q//qp5AgT
8PahCEEv6TxO6g==
-----END CERTIFICATE-----
