Certificate:
    Data:
        Version: 3 (0x2)
        Serial Number:
            31:37:37:39:31:38:35:30:36:30:34:31:32:39:38:34
    Signature Algorithm: sha256WithRSAEncryption
        Issuer: O = Business Enablement \C3\A2\C2\80\C2\93 North American Quality Systems
        Validity
            Not Before: Jan  8 23:10:14 2019 GMT
            Not After : Jan  8 23:10:14 2020 GMT
        Subject: O = Business Enablement \C3\A2\C2\80\C2\93 North American Quality Systems
        Subject Public Key Info:
            Public Key Algorithm: rsaEncryption
                Public-Key: (2048 bit)
                Modulus:
                    00:e7:1f:62:87:c2:f1:30:99:61:bd:a5:c0:fd:fc:
                    b2:84:6a:5b:45:b2:82:8c:dc:65:1e:4b:5c:83:f0:
                    2d:97:37:a9:87:ea:c6:bf:57:57:30:2d:08:6f:70:
                    5d:05:f8:0c:c2:92:ca:92:48:1f:13:53:c0:28:55:
                    ee:f7:7e:bf:56:63:fd:bc:f8:55:f9:c0:91:c8:3d:
                    93:c0:a6:b7:09:0b:1c:c4:0c:80:42:62:e2:ad:78:
                    c5:f8:a1:47:a4:87:2f:b4:ae:52:f0:07:ad:bf:d2:
                    a7:27:0c:44:fa:fc:d2:a4:68:c4:6b:a7:12:3c:76:
                    b5:51:68:e5:20:39:3f:a1:74:41:c6:1b:11:c2:77:
                    99:21:59:ed:13:fe:d3:5b:dc:8d:c3:83:c1:b7:c8:
                    c5:77:d2:c2:a5:a2:9f:2c:1f:29:28:f4:43:a7:e4:
                    5f:ed:cd:5e:e0:31:74:b1:ee:a6:41:c5:8e:81:66:
                    63:a0:33:52:c3:b3:f8:2e:1d:c4:1d:12:15:b6:39:
                    a0:f7:8f:4c:ca:a7:4e:a7:77:3a:7c:1a:30:4e:ac:
                    1c:ba:9d:4b:cc:af:fd:d5:24:94:1a:90:ca:8e:6f:
                    a0:c5:df:d1:f9:60:ce:d9:db:a9:b2:e2:a5:12:e0:
                    2f:02:43:cb:6c:56:60:7b:03:5b:b9:a0:c6:77:b6:
                    90:11
                Exponent: 65537 (0x10001)
    Signature Algorithm: sha256WithRSAEncryption
         0e:b9:0e:c6:c8:07:df:d9:b7:31:93:04:51:3a:4c:42:21:8d:
         db:bf:54:76:dd:fb:ca:71:ca:26:dd:e3:05:ae:4a:e4:96:d1:
         4c:82:10:3e:f2:27:39:db:70:2e:18:44:ec:8c:d2:bb:cb:80:
         6d:3d:5f:0a:74:33:4c:c9:91:04:60:3f:42:40:0c:80:2f:2e:
         ee:74:41:d7:03:64:fe:3f:62:1e:33:8c:48:e7:f7:bd:5f:42:
         b9:4f:c8:55:be:83:74:c7:4b:3e:fc:20:92:25:a2:a2:e6:aa:
         e2:fb:71:57:f7:24:01:61:81:48:94:eb:b3:b7:f5:ab:cb:97:
         9b:ed:ba:44:3a:a6:b8:ee:55:2a:99:9d:cf:95:00:13:d3:13:
         b0:e0:ea:32:1d:3c:9d:e0:07:8a:ee:d7:e0:3b:9e:4e:bd:1e:
         de:0a:2f:97:e3:13:62:95:95:bd:73:84:28:e3:a3:49:a5:83:
         e9:b4:9b:50:e8:d8:c6:24:ae:42:f8:50:64:1e:95:34:66:d5:
         a1:2a:be:e4:1e:1a:18:f9:2c:d9:14:62:35:a5:d6:c6:8e:24:
         0a:79:3e:b3:9c:3f:fe:aa:d7:09:c0:3b:d0:7e:a8:bd:e8:04:
         bd:b4:b6:cf:b2:fb:3e:1a:bd:70:3e:a4:33:f6:8c:b9:a9:b2:
         9d:62:9f:8b
-----BEGIN CERTIFICATE-----
MIIDFDCCAfygAwIBAgIQMTc3OTE4NTA2MDQxMjk4NDANBgkqhkiG9w0BAQsFADBE
MUIwQAYDVQQKDDlCdXNpbmVzcyBFbmFibGVtZW50IMOiwoDCkyBOb3J0aCBBbWVy
aWNhbiBRdWFsaXR5IFN5c3RlbXMwHhcNMTkwMTA4MjMxMDE0WhcNMjAwMTA4MjMx
MDE0WjBEMUIwQAYDVQQKDDlCdXNpbmVzcyBFbmFibGVtZW50IMOiwoDCkyBOb3J0
aCBBbWVyaWNhbiBRdWFsaXR5IFN5c3RlbXMwggEiMA0GCSqGSIb3DQEBAQUAA4IB
DwAwggEKAoIBAQDnH2KHwvEwmWG9pcD9/LKEaltFsoKM3GUeS1yD8C2XN6mH6sa/
V1cwLQhvcF0F+AzCksqSSB8TU8AoVe73fr9WY/28+FX5wJHIPZPAprcJCxzEDIBC
YuKteMX4oUekhy+0rlLwB62/0qcnDET6/NKkaMRrpxI8drVRaOUgOT+hdEHGGxHC
d5khWe0T/tNb3I3Dg8G3yMV30sKlop8sHyko9EOn5F/tzV7gMXSx7qZBxY6BZmOg
M1LDs/guHcQdEhW2OaD3j0zKp06ndzp8GjBOrBy6nUvMr/3VJJQakMqOb6DF39H5
YM7Z26my4qUS4C8CQ8tsVmB7A1u5oMZ3tpARAgMBAAGjAjAAMA0GCSqGSIb3DQEB
CwUAA4IBAQAOuQ7GyAff2bcxkwRROkxCIY3bv1R23fvKccom3eMFrkrkltFMghA+
8ic523AuGETsjNK7y4BtPV8KdDNMyZEEYD9CQAyALy7udEHXA2T+P2IeM4xI5/e9
X0K5T8hVvoN0x0s+/CCSJaKi5qri+3FX9yQBYYFIlOuzt/Wry5eb7bpEOqa47lUq
mZ3PlQAT0xOw4OoyHTyd4AeK7tfgO55OvR7eCi+X4xNilZW9c4Qo46NJpYPptJtQ
6NjGJK5C+FBkHpU0ZtWhKr7kHhoY+SzZFGI1pdbGjiQKeT6znD/+qtcJwDvQfqi9
6AS9tLbPsvs+Gr1wPqQz9oy5qbKdYp+L
-----END CERTIFICATE-----
