Certificate:
    Data:
        Version: 3 (0x2)
        Serial Number:
            fd:43:52:4e:ca:cf:bd:a7:ca:48:a3:e2
        Signature Algorithm: ecdsa-with-SHA256
        Issuer: CN = Lint CA, O = Lint, C = DE
        Validity
            Not Before: Sep 15 00:00:00 2023 GMT
            Not After : Sep 15 00:00:00 2024 GMT
        Subject: L = UTF8String, L = PrintableString
        Subject Public Key Info:
            Public Key Algorithm: id-ecPublicKey
                Public-Key: (256 bit)
                pub:
                    04:35:7d:f8:9a:89:7d:6c:1c:d1:c8:e2:97:09:9f:
                    6f:2a:df:55:30:97:06:3d:06:59:94:66:92:da:3e:
                    f1:7d:5e:1f:22:3c:39:ed:f1:70:24:5e:7d:15:2a:
                    e0:fc:6f:8b:69:86:5c:b4:dc:11:fe:61:3f:41:71:
                    1d:c5:60:2b:14
                ASN1 OID: prime256v1
                NIST CURVE: P-256
        X509v3 extensions:
            X509v3 Certificate Policies: 
                Policy: 2.23.140.1.2.1

    Signature Algorithm: ecdsa-with-SHA256
         30:46:02:21:00:de:ae:f6:4d:40:84:d4:31:25:d9:70:1f:f7:
         41:71:b9:e2:35:f5:e4:8d:34:a9:ee:b0:01:8a:b7:33:e3:5a:
         cd:02:21:00:f0:a2:95:d3:72:5e:79:cd:b9:b0:bf:ad:f6:d8:
         b1:0a:f9:22:00:2b:d8:0a:e1:ca:76:9c:18:ca:66:f2:a5:82
-----BEGIN CERTIFICATE-----
MIIBcDCCARWgAwIBAgINAP1DUk7Kz72nykij4jAKBggqhkjOPQQDAjAuMRAwDgYD
VQQDDAdMaW50IENBMQ0wCwYDVQQKDARMaW50MQswCQYDVQQGEwJERTAeFw0yMzA5
MTUwMDAwMDBaFw0yNDA5MTUwMDAwMDBaMC8xEzARBgNVBAcMClVURjhTdHJpbmcx
GDAWBgNVBAcTD1ByaW50YWJsZVN0cmluZzBZMBMGByqGSM49AgEGCCqGSM49AwEH
A0IABDV9+JqJfWwc0cjilwmfbyrfVTCXBj0GWZRmkto+8X1eHyI8Oe3xcCRefRUq
4Pxvi2mGXLTcEf5hP0FxHcVgKxSjFzAVMBMGA1UdIAQMMAowCAYGZ4EMAQIBMAoG
CCqGSM49BAMCA0kAMEYCIQDervZNQITUMSXZcB/3QXG54jX15I00qe6wAYq3M+Na
zQIhAPCildNyXnnNubC/rfbYsQr5IgAr2ArhynacGMpm8qWC
-----END CERTIFICATE-----
