Certificate:
    Data:
        Version: 3 (0x2)
        Serial Number:
            e1:12:a3:76:b6:33:ae:cb:c5:1c:89:06
        Signature Algorithm: ecdsa-with-SHA256
        Issuer: CN = Lint CA, O = Lint, C = DE
        Validity
            Not Before: Sep 15 00:00:00 2023 GMT
            Not After : Sep 15 00:00:00 2024 GMT
        Subject: O = UTF8String, O = PrintableString
        Subject Public Key Info:
            Public Key Algorithm: id-ecPublicKey
                Public-Key: (256 bit)
                pub:
                    04:35:7d:f8:9a:89:7d:6c:1c:d1:c8:e2:97:09:9f:
                    6f:2a:df:55:30:97:06:3d:06:59:94:66:92:da:3e:
                    f1:7d:5e:1f:22:3c:39:ed:f1:70:24:5e:7d:15:2a:
                    e0:fc:6f:8b:69:86:5c:b4:dc:11:fe:61:3f:41:71:
                    1d:c5:60:2b:14
                ASN1 OID: prime256v1
                NIST CURVE: P-256
        X509v3 extensions:
            X509v3 Certificate Policies: 
                Policy: 2.23.140.1.2.1

    Signature Algorithm: ecdsa-with-SHA256
         30:45:02:20:2a:1a:d4:fd:b7:f9:21:b6:45:4b:39:2f:5e:6f:
         06:1c:67:85:2a:ce:a4:fc:9f:1f:1b:aa:36:54:8b:94:40:1e:
         02:21:00:b9:79:3f:c5:59:2b:22:d2:74:ea:f2:c7:aa:db:7d:
         e3:3e:68:0a:7d:c3:1f:08:e5:b4:12:af:a9:9a:c5:5b:e1
-----BEGIN CERTIFICATE-----
MIIBbzCCARWgAwIBAgINAOESo3a2M67LxRyJBjAKBggqhkjOPQQDAjAuMRAwDgYD
VQQDDAdMaW50IENBMQ0wCwYDVQQKDARMaW50MQswCQYDVQQGEwJERTAeFw0yMzA5
MTUwMDAwMDBaFw0yNDA5MTUwMDAwMDBaMC8xEzARBgNVBAoMClVURjhTdHJpbmcx
GDAWBgNVBAoTD1ByaW50YWJsZVN0cmluZzBZMBMGByqGSM49AgEGCCqGSM49AwEH
A0IABDV9+JqJfWwc0cjilwmfbyrfVTCXBj0GWZRmkto+8X1eHyI8Oe3xcCRefRUq
4Pxvi2mGXLTcEf5hP0FxHcVgKxSjFzAVMBMGA1UdIAQMMAowCAYGZ4EMAQIBMAoG
CCqGSM49BAMCA0gAMEUCICoa1P23+SG2RUs5L15vBhxnhSrOpPyfHxuqNlSLlEAe
AiEAuXk/xVkrItJ06vLHqtt94z5oCn3DHwjltBKvqZrFW+E=
-----END CERTIFICATE-----
