Certificate:
    Data:
        Version: 3 (0x2)
        Serial Number:
            7c:9f:cd:3d:05:2e:92:af:7e:a7:d2:e2
        Signature Algorithm: ecdsa-with-SHA256
        Issuer: CN = Lint CA, O = Lint, C = DE
        Validity
            Not Before: Sep 15 00:00:00 2023 GMT
            Not After : Sep 15 00:00:00 2024 GMT
        Subject: ST = UTF8String, ST = PrintableString
        Subject Public Key Info:
            Public Key Algorithm: id-ecPublicKey
                Public-Key: (256 bit)
                pub:
                    04:35:7d:f8:9a:89:7d:6c:1c:d1:c8:e2:97:09:9f:
                    6f:2a:df:55:30:97:06:3d:06:59:94:66:92:da:3e:
                    f1:7d:5e:1f:22:3c:39:ed:f1:70:24:5e:7d:15:2a:
                    e0:fc:6f:8b:69:86:5c:b4:dc:11:fe:61:3f:41:71:
                    1d:c5:60:2b:14
                ASN1 OID: prime256v1
                NIST CURVE: P-256
        X509v3 extensions:
            X509v3 Certificate Policies: 
                Policy: 2.23.140.1.2.1

    Signature Algorithm: ecdsa-with-SHA256
         30:44:02:20:4b:65:8e:ac:28:4c:99:36:8d:73:9f:dc:86:c8:
         7a:34:93:de:d9:11:9e:0b:67:fd:fe:c4:47:d8:1f:00:c2:29:
         02:20:74:40:fe:11:7b:1d:f7:ca:0b:3f:53:88:18:b1:a3:49:
         70:62:66:93:5a:02:c4:1f:12:87:5e:c1:60:94:02:ee
-----BEGIN CERTIFICATE-----
MIIBbTCCARSgAwIBAgIMfJ/NPQUukq9+p9LiMAoGCCqGSM49BAMCMC4xEDAOBgNV
BAMMB0xpbnQgQ0ExDTALBgNVBAoMBExpbnQxCzAJBgNVBAYTAkRFMB4XDTIzMDkx
NTAwMDAwMFoXDTI0MDkxNTAwMDAwMFowLzETMBEGA1UECAwKVVRGOFN0cmluZzEY
MBYGA1UECBMPUHJpbnRhYmxlU3RyaW5nMFkwEwYHKoZIzj0CAQYIKoZIzj0DAQcD
QgAENX34mol9bBzRyOKXCZ9vKt9VMJcGPQZZlGaS2j7xfV4fIjw57fFwJF59FSrg
/G+LaYZctNwR/mE/QXEdxWArFKMXMBUwEwYDVR0gBAwwCjAIBgZngQwBAgEwCgYI
KoZIzj0EAwIDRwAwRAIgS2WOrChMmTaNc5/chsh6NJPe2RGeC2f9/sRH2B8AwikC
IHRA/hF7HffKCz9TiBixo0lwYmaTWgLEHxKHXsFglALu
-----END CERTIFICATE-----
