Certificate:
    Data:
        Version: 3 (0x2)
        Serial Number:
            c9:88:c5:81:06:7a:d4:b0:6f:98:e3:12
        Signature Algorithm: ecdsa-with-SHA256
        Issuer: CN = Lint CA, O = Lint, C = DE
        Validity
            Not Before: Sep 15 00:00:00 2023 GMT
            Not After : Sep 15 00:00:00 2024 GMT
        Subject: businessCategory = UTF8String, businessCategory = PrintableString
        Subject Public Key Info:
            Public Key Algorithm: id-ecPublicKey
                Public-Key: (256 bit)
                pub:
                    04:35:7d:f8:9a:89:7d:6c:1c:d1:c8:e2:97:09:9f:
                    6f:2a:df:55:30:97:06:3d:06:59:94:66:92:da:3e:
                    f1:7d:5e:1f:22:3c:39:ed:f1:70:24:5e:7d:15:2a:
                    e0:fc:6f:8b:69:86:5c:b4:dc:11:fe:61:3f:41:71:
                    1d:c5:60:2b:14
                ASN1 OID: prime256v1
                NIST CURVE: P-256
        X509v3 extensions:
            X509v3 Certificate Policies: 
                Policy: 2.23.140.1.2.1

    Signature Algorithm: ecdsa-with-SHA256
         30:46:02:21:00:80:09:37:f3:94:b7:13:94:89:bf:1b:52:75:
         1d:80:35:72:87:75:59:75:82:95:f4:38:8f:ae:53:bc:0f:dd:
         dd:02:21:00:dc:c9:04:73:2f:79:fb:bf:74:15:53:ee:24:33:
         eb:88:3c:db:6f:8a:58:19:54:01:8e:c8:6a:a7:90:83:0b:14
-----BEGIN CERTIFICATE-----
MIIBcDCCARWgAwIBAgINAMmIxYEGetSwb5jjEjAKBggqhkjOPQQDAjAuMRAwDgYD
VQQDDAdMaW50IENBMQ0wCwYDVQQKDARMaW50MQswCQYDVQQGEwJERTAeFw0yMzA5
MTUwMDAwMDBaFw0yNDA5MTUwMDAwMDBaMC8xEzARBgNVBA8MClVURjhTdHJpbmcx
GDAWBgNVBA8TD1ByaW50YWJsZVN0cmluZzBZMBMGByqGSM49AgEGCCqGSM49AwEH
A0IABDV9+JqJfWwc0cjilwmfbyrfVTCXBj0GWZRmkto+8X1eHyI8Oe3xcCRefRUq
4Pxvi2mGXLTcEf5hP0FxHcVgKxSjFzAVMBMGA1UdIAQMMAowCAYGZ4EMAQIBMAoG
CCqGSM49BAMCA0kAMEYCIQCACTfzlLcTlIm/G1J1HYA1cod1WXWClfQ4j65TvA/d
3QIhANzJBHMvefu/dBVT7iQz64g822+KWBlUAY7IaqeQgwsU
-----END CERTIFICATE-----
