Certificate:
    Data:
        Version: 3 (0x2)
        Serial Number: 5917778588860444809 (0x52202c45d8707089)
        Signature Algorithm: sha256WithRSAEncryption
        Issuer: C = IT, ST = Milano, L = Santa Redegonda, O = Certificati Gratis S.p.A., CN = Certificati Gratis CA
        Validity
            Not Before: Mar  8 10:50:00 2024 GMT
            Not After : Mar  8 08:50:00 2025 GMT
        Subject: DC = org, DC = example, C = IT, ST = Milano, L = Milano, O = Example, CN = example.org
        Subject Public Key Info:
            Public Key Algorithm: rsaEncryption
                RSA Public-Key: (2048 bit)
                Modulus:
                    00:c1:0a:81:60:21:e7:7b:a3:ec:6f:e4:e0:fc:2f:
                    61:47:88:69:01:58:9b:a3:89:98:0b:42:17:47:87:
                    87:b2:0e:1f:74:22:28:e5:cf:9a:d2:7f:26:db:4f:
                    1d:e8:8d:19:fa:cd:e6:dd:4c:c0:da:38:93:f6:bf:
                    e8:f4:9d:1f:00:c8:bf:cb:f5:4f:b0:fa:c3:24:ce:
                    2f:04:3b:fa:27:dd:8c:3b:f7:44:09:89:16:19:0e:
                    95:0a:8d:eb:0e:54:3f:81:c0:e7:62:b0:d9:6b:5a:
                    89:93:78:08:db:8c:18:3d:24:81:6b:2e:b9:ff:0d:
                    5a:71:24:b7:53:1f:c2:96:57:cd:49:98:b6:21:35:
                    47:6b:83:19:2d:a9:4b:e2:17:a2:bd:1e:ab:16:4f:
                    d4:9a:9b:01:d8:e1:bf:d5:27:75:f2:09:78:63:1b:
                    24:5e:2d:fe:66:fa:32:96:60:51:9c:46:0e:0b:aa:
                    e8:57:22:d4:16:38:11:96:d0:fe:63:56:f1:e8:7e:
                    eb:99:75:ce:4b:d2:e2:f9:71:26:62:31:2a:03:5d:
                    b4:d4:04:fb:33:9f:34:de:a1:39:85:cf:48:d0:a1:
                    16:d5:95:c7:20:38:ba:24:d9:de:98:31:01:0b:1c:
                    be:6e:bb:16:0d:f5:06:42:27:82:49:57:32:f3:67:
                    02:ab
                Exponent: 65537 (0x10001)
        X509v3 extensions:
            X509v3 Extended Key Usage: 
                TLS Web Server Authentication
    Signature Algorithm: sha256WithRSAEncryption
         11:f4:93:85:4a:d1:7d:d4:28:5b:fa:c5:79:99:8f:e5:2c:74:
         bd:13:c9:35:4d:92:2d:84:a5:aa:b1:63:83:4e:99:3b:c3:bb:
         03:51:f8:f2:9e:42:c3:7d:e1:e5:4c:da:67:cd:c9:3c:d6:68:
         0c:1e:2b:70:80:4a:81:0b:d2:b5:82:0f:6f:93:5d:48:2e:29:
         d9:52:45:8d:91:29:26:b6:69:e8:0f:f7:29:4d:83:da:e9:5a:
         f6:71:57:4e:b2:4a:e7:7e:b6:68:f1:56:5d:41:d8:03:94:d1:
         46:7b:b3:d8:38:42:26:80:18:ef:4c:42:30:66:2a:a2:de:fe:
         e0:2e:e8:74:79:16:b1:a2:9a:bc:93:3e:5c:30:68:6e:38:83:
         f0:b2:51:e9:a0:ab:8b:43:d8:1f:15:98:86:fe:e0:34:69:27:
         bb:65:12:26:dd:0c:56:53:86:c3:33:0d:da:b5:70:73:39:67:
         6d:55:84:2b:bb:71:5e:93:c1:29:ee:bc:37:78:39:c3:74:80:
         04:8d:ff:29:af:48:ec:a9:34:5a:d4:7b:d4:f2:cf:a4:81:13:
         f7:3c:03:6c:73:cf:1b:f1:d7:cd:2e:fd:ea:9c:9e:98:63:29:
         aa:90:02:91:68:28:aa:ec:4e:f7:12:05:73:b9:32:f0:17:ca:
         a5:d1:68:dd:b2:8a:56:be:7b:73:57:b9:2b:7e:58:7d:3b:f4:
         74:ae:b5:88:c1:88:0d:6e:d4:23:78:4b:36:fe:21:b2:d8:7a:
         57:90:95:47:c1:a1:c5:15:65:02:50:cf:11:f1:8e:94:b7:f8:
         46:9c:2e:b2:db:78:69:e8:a8:c8:43:57:be:cb:82:f2:65:3c:
         49:f3:f9:b1:95:57:50:4c:53:ce:21:55:42:06:b4:bd:91:67:
         21:5f:c9:c8:b6:d4:f7:e8:8d:f9:67:c3:08:4b:7e:60:86:79:
         7f:d2:70:75:fa:b0:af:90:39:e3:f3:f9:69:8f:a8:9e:3f:16:
         af:e7:46:fd:07:fe:77:13:7a:41:8e:f4:a9:60:45:ba:c0:4a:
         51:ce:bf:fe:e4:e6:04:01:b1:e1:d0:60:3a:4c:f0:bf:d5:9f:
         b4:6d:e8:06:9a:21:01:8e:ae:d3:bf:d8:29:1b:ec:5f:d3:5d:
         4e:22:37:6a:05:c9:30:8b:41:58:38:64:21:f0:a0:77:28:66:
         95:32:1f:f6:5b:42:48:84:4d:a6:d6:bf:81:d0:5c:3c:89:40:
         75:74:f6:fb:de:16:7c:9b:d6:7a:76:3a:37:c1:04:68:e9:7d:
         14:c5:8f:6c:6c:70:d5:c3:c6:d1:08:cc:6d:a1:5f:8b:d2:16:
         3a:58:53:2e:3f:9c:f1:cc
-----BEGIN CERTIFICATE-----
MIIEmzCCAoOgAwIBAgIIUiAsRdhwcIkwDQYJKoZIhvcNAQELBQAwfDELMAkGA1UE
BhMCSVQxDzANBgNVBAgTBk1pbGFubzEYMBYGA1UEBxMPU2FudGEgUmVkZWdvbmRh
MSIwIAYDVQQKExlDZXJ0aWZpY2F0aSBHcmF0aXMgUy5wLkEuMR4wHAYDVQQDExVD
ZXJ0aWZpY2F0aSBHcmF0aXMgQ0EwHhcNMjQwMzA4MTA1MDAwWhcNMjUwMzA4MDg1
MDAwWjCBhTETMBEGCgmSJomT8ixkARkWA29yZzEXMBUGCgmSJomT8ixkARkWB2V4
YW1wbGUxCzAJBgNVBAYTAklUMQ8wDQYDVQQIEwZNaWxhbm8xDzANBgNVBAcTBk1p
bGFubzEQMA4GA1UEChMHRXhhbXBsZTEUMBIGA1UEAxMLZXhhbXBsZS5vcmcwggEi
MA0GCSqGSIb3DQEBAQUAA4IBDwAwggEKAoIBAQDBCoFgIed7o+xv5OD8L2FHiGkB
WJujiZgLQhdHh4eyDh90Iijlz5rSfybbTx3ojRn6zebdTMDaOJP2v+j0nR8AyL/L
9U+w+sMkzi8EO/on3Yw790QJiRYZDpUKjesOVD+BwOdisNlrWomTeAjbjBg9JIFr
Lrn/DVpxJLdTH8KWV81JmLYhNUdrgxktqUviF6K9HqsWT9SamwHY4b/VJ3XyCXhj
GyReLf5m+jKWYFGcRg4LquhXItQWOBGW0P5jVvHofuuZdc5L0uL5cSZiMSoDXbTU
BPsznzTeoTmFz0jQoRbVlccgOLok2d6YMQELHL5uuxYN9QZCJ4JJVzLzZwKrAgMB
AAGjFzAVMBMGA1UdJQQMMAoGCCsGAQUFBwMBMA0GCSqGSIb3DQEBCwUAA4ICAQAR
9JOFStF91Chb+sV5mY/lLHS9E8k1TZIthKWqsWODTpk7w7sDUfjynkLDfeHlTNpn
zck81mgMHitwgEqBC9K1gg9vk11ILinZUkWNkSkmtmnoD/cpTYPa6Vr2cVdOskrn
frZo8VZdQdgDlNFGe7PYOEImgBjvTEIwZiqi3v7gLuh0eRaxopq8kz5cMGhuOIPw
slHpoKuLQ9gfFZiG/uA0aSe7ZRIm3QxWU4bDMw3atXBzOWdtVYQru3Fek8Ep7rw3
eDnDdIAEjf8pr0jsqTRa1HvU8s+kgRP3PANsc88b8dfNLv3qnJ6YYymqkAKRaCiq
7E73EgVzuTLwF8ql0WjdsopWvntzV7krflh9O/R0rrWIwYgNbtQjeEs2/iGy2HpX
kJVHwaHFFWUCUM8R8Y6Ut/hGnC6y23hp6KjIQ1e+y4LyZTxJ8/mxlVdQTFPOIVVC
BrS9kWchX8nIttT36I35Z8MIS35ghnl/0nB1+rCvkDnj8/lpj6iePxav50b9B/53
E3pBjvSpYEW6wEpRzr/+5OYEAbHh0GA6TPC/1Z+0begGmiEBjq7Tv9gpG+xf011O
IjdqBckwi0FYOGQh8KB3KGaVMh/2W0JIhE2m1r+B0Fw8iUB1dPb73hZ8m9Z6djo3
wQRo6X0UxY9sbHDVw8bRCMxtoV+L0hY6WFMuP5zxzA==
-----END CERTIFICATE-----
