Certificate:
    Data:
        Version: 3 (0x2)
        Serial Number:
            72:79:d9:f0:64:67:5a:c4:c8:15:0b:a9
        Signature Algorithm: ecdsa-with-SHA256
        Issuer: CN = Lint CA, O = Lint, C = DE
        Validity
            Not Before: Sep 15 00:00:00 2023 GMT
            Not After : Sep 15 00:00:00 2024 GMT
        Subject: businessCategory = TeletexString
        Subject Public Key Info:
            Public Key Algorithm: id-ecPublicKey
                Public-Key: (256 bit)
                pub:
                    04:35:7d:f8:9a:89:7d:6c:1c:d1:c8:e2:97:09:9f:
                    6f:2a:df:55:30:97:06:3d:06:59:94:66:92:da:3e:
                    f1:7d:5e:1f:22:3c:39:ed:f1:70:24:5e:7d:15:2a:
                    e0:fc:6f:8b:69:86:5c:b4:dc:11:fe:61:3f:41:71:
                    1d:c5:60:2b:14
                ASN1 OID: prime256v1
                NIST CURVE: P-256
        X509v3 extensions:
            X509v3 Certificate Policies: 
                Policy: 2.23.140.1.2.1

    Signature Algorithm: ecdsa-with-SHA256
         30:45:02:21:00:c1:11:e3:cc:ef:5b:30:71:bc:ef:33:94:fe:
         96:f5:ff:00:e0:a9:6b:22:85:57:9f:7e:8d:cf:0b:42:28:52:
         d9:02:20:05:86:c6:76:6a:38:5f:10:52:c8:8e:7a:88:de:46:
         58:0f:45:14:9e:a3:37:9c:ea:13:ab:b9:b5:bc:ff:f3:c4
-----BEGIN CERTIFICATE-----
MIIBVjCB/aADAgECAgxyednwZGdaxMgVC6kwCgYIKoZIzj0EAwIwLjEQMA4GA1UE
AwwHTGludCBDQTENMAsGA1UECgwETGludDELMAkGA1UEBhMCREUwHhcNMjMwOTE1
MDAwMDAwWhcNMjQwOTE1MDAwMDAwWjAYMRYwFAYDVQQPFA1UZWxldGV4U3RyaW5n
MFkwEwYHKoZIzj0CAQYIKoZIzj0DAQcDQgAENX34mol9bBzRyOKXCZ9vKt9VMJcG
PQZZlGaS2j7xfV4fIjw57fFwJF59FSrg/G+LaYZctNwR/mE/QXEdxWArFKMXMBUw
EwYDVR0gBAwwCjAIBgZngQwBAgEwCgYIKoZIzj0EAwIDSAAwRQIhAMER48zvWzBx
vO8zlP6W9f8A4KlrIoVXn36NzwtCKFLZAiAFhsZ2ajhfEFLIjnqI3kZYD0UUnqM3
nOoTq7m1vP/zxA==
-----END CERTIFICATE-----
