Certificate:
    Data:
        Version: 3 (0x2)
        Serial Number:
            35:96:ec:fa:02:c8:74:f8:36:55:4a:09
        Signature Algorithm: ecdsa-with-SHA256
        Issuer: CN = Lint CA, O = Lint, C = DE
        Validity
            Not Before: Sep 15 00:00:00 2023 GMT
            Not After : Sep 15 00:00:00 2024 GMT
        Subject: ST = TeletexString
        Subject Public Key Info:
            Public Key Algorithm: id-ecPublicKey
                Public-Key: (256 bit)
                pub:
                    04:35:7d:f8:9a:89:7d:6c:1c:d1:c8:e2:97:09:9f:
                    6f:2a:df:55:30:97:06:3d:06:59:94:66:92:da:3e:
                    f1:7d:5e:1f:22:3c:39:ed:f1:70:24:5e:7d:15:2a:
                    e0:fc:6f:8b:69:86:5c:b4:dc:11:fe:61:3f:41:71:
                    1d:c5:60:2b:14
                ASN1 OID: prime256v1
                NIST CURVE: P-256
        X509v3 extensions:
            X509v3 Certificate Policies: 
                Policy: 2.23.140.1.2.1

    Signature Algorithm: ecdsa-with-SHA256
         30:44:02:20:2a:f5:49:91:9d:e2:3f:27:70:52:03:4c:0a:97:
         56:7b:07:8e:3d:84:97:15:2c:51:62:0b:ba:da:33:a7:c2:7f:
         02:20:50:52:02:d8:0f:64:d3:ef:20:db:0b:c2:3a:b2:d0:66:
         21:ef:c0:a2:b8:41:22:72:ce:dc:c0:9f:ff:04:71:f0
-----BEGIN CERTIFICATE-----
MIIBVTCB/aADAgECAgw1luz6Ash0+DZVSgkwCgYIKoZIzj0EAwIwLjEQMA4GA1UE
AwwHTGludCBDQTENMAsGA1UECgwETGludDELMAkGA1UEBhMCREUwHhcNMjMwOTE1
MDAwMDAwWhcNMjQwOTE1MDAwMDAwWjAYMRYwFAYDVQQIFA1UZWxldGV4U3RyaW5n
MFkwEwYHKoZIzj0CAQYIKoZIzj0DAQcDQgAENX34mol9bBzRyOKXCZ9vKt9VMJcG
PQZZlGaS2j7xfV4fIjw57fFwJF59FSrg/G+LaYZctNwR/mE/QXEdxWArFKMXMBUw
EwYDVR0gBAwwCjAIBgZngQwBAgEwCgYIKoZIzj0EAwIDRwAwRAIgKvVJkZ3iPydw
UgNMCpdWeweOPYSXFSxRYgu62jOnwn8CIFBSAtgPZNPvINsLwjqy0GYh78CiuEEi
cs7cwJ//BHHw
-----END CERTIFICATE-----
