Certificate:
    Data:
        Version: 3 (0x2)
        Serial Number:
            09:c7:e4:31:63:88:86:55:5f:10:1b:ae
        Signature Algorithm: ecdsa-with-SHA256
        Issuer: CN = Lint CA, O = Lint, C = DE
        Validity
            Not Before: Sep 15 00:00:00 2023 GMT
            Not After : Sep 15 00:00:00 2024 GMT
        Subject: GN = BMPString
        Subject Public Key Info:
            Public Key Algorithm: id-ecPublicKey
                Public-Key: (256 bit)
                pub:
                    04:35:7d:f8:9a:89:7d:6c:1c:d1:c8:e2:97:09:9f:
                    6f:2a:df:55:30:97:06:3d:06:59:94:66:92:da:3e:
                    f1:7d:5e:1f:22:3c:39:ed:f1:70:24:5e:7d:15:2a:
                    e0:fc:6f:8b:69:86:5c:b4:dc:11:fe:61:3f:41:71:
                    1d:c5:60:2b:14
                ASN1 OID: prime256v1
                NIST CURVE: P-256
        X509v3 extensions:
            X509v3 Certificate Policies: 
                Policy: 2.23.140.1.2.1

    Signature Algorithm: ecdsa-with-SHA256
         30:45:02:20:6b:96:97:b5:98:2e:18:17:e5:b1:72:ae:8a:99:
         7a:50:71:13:79:ca:f8:46:e3:a7:c2:32:f4:a9:59:a6:c3:44:
         02:21:00:84:00:fc:57:ee:56:f0:af:fe:bf:dd:4a:9b:0b:fd:
         b0:d3:5c:83:26:7c:59:a8:c9:a3:b0:3d:9d:1a:8c:c0:17
-----BEGIN CERTIFICATE-----
MIIBXDCCAQKgAwIBAgIMCcfkMWOIhlVfEBuuMAoGCCqGSM49BAMCMC4xEDAOBgNV
BAMMB0xpbnQgQ0ExDTALBgNVBAoMBExpbnQxCzAJBgNVBAYTAkRFMB4XDTIzMDkx
NTAwMDAwMFoXDTI0MDkxNTAwMDAwMFowHTEbMBkGA1UEKh4SAEIATQBQAFMAdABy
AGkAbgBnMFkwEwYHKoZIzj0CAQYIKoZIzj0DAQcDQgAENX34mol9bBzRyOKXCZ9v
Kt9VMJcGPQZZlGaS2j7xfV4fIjw57fFwJF59FSrg/G+LaYZctNwR/mE/QXEdxWAr
FKMXMBUwEwYDVR0gBAwwCjAIBgZngQwBAgEwCgYIKoZIzj0EAwIDSAAwRQIga5aX
tZguGBflsXKuipl6UHETecr4RuOnwjL0qVmmw0QCIQCEAPxX7lbwr/6/3UqbC/2w
01yDJnxZqMmjsD2dGozAFw==
-----END CERTIFICATE-----
