Certificate:
    Data:
        Version: 3 (0x2)
        Serial Number:
            28:84:5a:df:36:ba:eb:5b:ea:4a:c0:63
        Signature Algorithm: ecdsa-with-SHA256
        Issuer: CN = Lint CA, O = Lint, C = DE
        Validity
            Not Before: Sep 15 00:00:00 2023 GMT
            Not After : Sep 15 00:00:00 2024 GMT
        Subject: serialNumber = U
        Subject Public Key Info:
            Public Key Algorithm: id-ecPublicKey
                Public-Key: (256 bit)
                pub:
                    04:35:7d:f8:9a:89:7d:6c:1c:d1:c8:e2:97:09:9f:
                    6f:2a:df:55:30:97:06:3d:06:59:94:66:92:da:3e:
                    f1:7d:5e:1f:22:3c:39:ed:f1:70:24:5e:7d:15:2a:
                    e0:fc:6f:8b:69:86:5c:b4:dc:11:fe:61:3f:41:71:
                    1d:c5:60:2b:14
                ASN1 OID: prime256v1
                NIST CURVE: P-256
        X509v3 extensions:
            X509v3 Certificate Policies: 
                Policy: 2.23.140.1.2.1

    Signature Algorithm: ecdsa-with-SHA256
         30:45:02:21:00:92:35:89:a2:57:f4:15:70:91:98:62:00:dd:
         a7:a2:a2:72:be:eb:13:68:a9:57:7a:f5:70:76:3f:69:66:dd:
         7c:02:20:57:7a:bc:e3:79:df:95:0e:44:8e:ea:4f:a1:3b:f8:
         66:a7:1d:72:c1:d9:27:3f:0d:cb:3f:5a:4f:17:71:7a:78
-----BEGIN CERTIFICATE-----
MIIBTTCB9KADAgECAgwohFrfNrrrW+pKwGMwCgYIKoZIzj0EAwIwLjEQMA4GA1UE
AwwHTGludCBDQTENMAsGA1UECgwETGludDELMAkGA1UEBhMCREUwHhcNMjMwOTE1
MDAwMDAwWhcNMjQwOTE1MDAwMDAwWjAPMQ0wCwYDVQQFHAQAAABVMFkwEwYHKoZI
zj0CAQYIKoZIzj0DAQcDQgAENX34mol9bBzRyOKXCZ9vKt9VMJcGPQZZlGaS2j7x
fV4fIjw57fFwJF59FSrg/G+LaYZctNwR/mE/QXEdxWArFKMXMBUwEwYDVR0gBAww
CjAIBgZngQwBAgEwCgYIKoZIzj0EAwIDSAAwRQIhAJI1iaJX9BVwkZhiAN2noqJy
vusTaKlXevVwdj9pZt18AiBXerzjed+VDkSO6k+hO/hmpx1ywdknPw3LP1pPF3F6
eA==
-----END CERTIFICATE-----
