Certificate:
    Data:
        Version: 3 (0x2)
        Serial Number:
            71:f7:0d:aa:3e:ce:4e:3b:9c:b5:21:d6
        Signature Algorithm: ecdsa-with-SHA256
        Issuer: CN = Lint CA, O = Lint, C = DE
        Validity
            Not Before: Sep 15 00:00:00 2023 GMT
            Not After : Sep 15 00:00:00 2024 GMT
        Subject: GN = UTF8String, GN = PrintableString
        Subject Public Key Info:
            Public Key Algorithm: id-ecPublicKey
                Public-Key: (256 bit)
                pub:
                    04:35:7d:f8:9a:89:7d:6c:1c:d1:c8:e2:97:09:9f:
                    6f:2a:df:55:30:97:06:3d:06:59:94:66:92:da:3e:
                    f1:7d:5e:1f:22:3c:39:ed:f1:70:24:5e:7d:15:2a:
                    e0:fc:6f:8b:69:86:5c:b4:dc:11:fe:61:3f:41:71:
                    1d:c5:60:2b:14
                ASN1 OID: prime256v1
                NIST CURVE: P-256
        X509v3 extensions:
            X509v3 Certificate Policies: 
                Policy: 2.23.140.1.2.1

    Signature Algorithm: ecdsa-with-SHA256
         30:45:02:20:25:7c:64:c8:65:26:d2:63:02:bd:bd:2c:a5:40:
         cf:34:a7:22:bc:e0:0b:ba:ac:cc:46:42:6e:4f:d6:bc:65:6e:
         02:21:00:aa:0a:93:85:6c:c4:d4:e5:91:6d:8d:5d:c1:75:14:
         33:ca:ad:89:28:30:06:e7:d7:ea:22:63:c9:56:18:99:93
-----BEGIN CERTIFICATE-----
MIIBbjCCARSgAwIBAgIMcfcNqj7OTjuctSHWMAoGCCqGSM49BAMCMC4xEDAOBgNV
BAMMB0xpbnQgQ0ExDTALBgNVBAoMBExpbnQxCzAJBgNVBAYTAkRFMB4XDTIzMDkx
NTAwMDAwMFoXDTI0MDkxNTAwMDAwMFowLzETMBEGA1UEKgwKVVRGOFN0cmluZzEY
MBYGA1UEKhMPUHJpbnRhYmxlU3RyaW5nMFkwEwYHKoZIzj0CAQYIKoZIzj0DAQcD
QgAENX34mol9bBzRyOKXCZ9vKt9VMJcGPQZZlGaS2j7xfV4fIjw57fFwJF59FSrg
/G+LaYZctNwR/mE/QXEdxWArFKMXMBUwEwYDVR0gBAwwCjAIBgZngQwBAgEwCgYI
KoZIzj0EAwIDSAAwRQIgJXxkyGUm0mMCvb0spUDPNKcivOALuqzMRkJuT9a8ZW4C
IQCqCpOFbMTU5ZFtjV3BdRQzyq2JKDAG59fqImPJVhiZkw==
-----END CERTIFICATE-----
