Certificate:
    Data:
        Version: 3 (0x2)
        Serial Number:
            0e:da:e1:4f:b5:2d:76:0f:f8:d4:c4:c7
        Signature Algorithm: ecdsa-with-SHA256
        Issuer: CN = Lint CA, O = Lint, C = DE
        Validity
            Not Before: Sep 15 00:00:00 2023 GMT
            Not After : Sep 15 00:00:00 2024 GMT
        Subject: street = BMPString
        Subject Public Key Info:
            Public Key Algorithm: id-ecPublicKey
                Public-Key: (256 bit)
                pub:
                    04:35:7d:f8:9a:89:7d:6c:1c:d1:c8:e2:97:09:9f:
                    6f:2a:df:55:30:97:06:3d:06:59:94:66:92:da:3e:
                    f1:7d:5e:1f:22:3c:39:ed:f1:70:24:5e:7d:15:2a:
                    e0:fc:6f:8b:69:86:5c:b4:dc:11:fe:61:3f:41:71:
                    1d:c5:60:2b:14
                ASN1 OID: prime256v1
                NIST CURVE: P-256
        X509v3 extensions:
            X509v3 Certificate Policies: 
                Policy: 2.23.140.1.2.1

    Signature Algorithm: ecdsa-with-SHA256
         30:46:02:21:00:b5:b2:dd:b6:7f:e5:b6:8c:c2:fb:59:4b:10:
         88:5b:93:73:ca:4e:74:2f:2f:44:fd:1a:13:42:fa:3f:d4:8b:
         61:02:21:00:fe:a2:e0:c5:d7:fe:66:90:be:a3:86:30:d1:45:
         87:16:4e:06:87:a8:6d:f3:82:55:41:95:0b:69:fe:9d:79:d5
-----BEGIN CERTIFICATE-----
MIIBXTCCAQKgAwIBAgIMDtrhT7Utdg/41MTHMAoGCCqGSM49BAMCMC4xEDAOBgNV
BAMMB0xpbnQgQ0ExDTALBgNVBAoMBExpbnQxCzAJBgNVBAYTAkRFMB4XDTIzMDkx
NTAwMDAwMFoXDTI0MDkxNTAwMDAwMFowHTEbMBkGA1UECR4SAEIATQBQAFMAdABy
AGkAbgBnMFkwEwYHKoZIzj0CAQYIKoZIzj0DAQcDQgAENX34mol9bBzRyOKXCZ9v
Kt9VMJcGPQZZlGaS2j7xfV4fIjw57fFwJF59FSrg/G+LaYZctNwR/mE/QXEdxWAr
FKMXMBUwEwYDVR0gBAwwCjAIBgZngQwBAgEwCgYIKoZIzj0EAwIDSQAwRgIhALWy
3bZ/5baMwvtZSxCIW5Nzyk50Ly9E/RoTQvo/1IthAiEA/qLgxdf+ZpC+o4Yw0UWH
Fk4Gh6ht84JVQZULaf6dedU=
-----END CERTIFICATE-----
