Certificate:
    Data:
        Version: 3 (0x2)
        Serial Number:
            fe:1e:6a:61:05:21:d3:4a:fc:2a:42:57
        Signature Algorithm: ecdsa-with-SHA256
        Issuer: CN = Lint CA, O = Lint, C = DE
        Validity
            Not Before: Sep 15 00:00:00 2023 GMT
            Not After : Sep 15 00:00:00 2024 GMT
        Subject: jurisdictionC = PrintableString
        Subject Public Key Info:
            Public Key Algorithm: id-ecPublicKey
                Public-Key: (256 bit)
                pub:
                    04:35:7d:f8:9a:89:7d:6c:1c:d1:c8:e2:97:09:9f:
                    6f:2a:df:55:30:97:06:3d:06:59:94:66:92:da:3e:
                    f1:7d:5e:1f:22:3c:39:ed:f1:70:24:5e:7d:15:2a:
                    e0:fc:6f:8b:69:86:5c:b4:dc:11:fe:61:3f:41:71:
                    1d:c5:60:2b:14
                ASN1 OID: prime256v1
                NIST CURVE: P-256
        X509v3 extensions:
            X509v3 Certificate Policies: 
                Policy: 2.23.140.1.2.1

    Signature Algorithm: ecdsa-with-SHA256
         30:45:02:20:05:98:30:fd:9e:69:1a:f2:e2:14:0e:28:a1:92:
         48:99:94:98:3b:e7:74:95:77:ed:40:28:de:10:22:e0:2b:a2:
         02:21:00:f7:d7:8d:63:83:b2:d8:4e:95:40:b6:a8:ee:57:73:
         5c:2e:e3:27:b9:3c:bb:72:cf:da:a4:97:56:e9:ca:ea:20
-----BEGIN CERTIFICATE-----
MIIBYjCCAQigAwIBAgINAP4eamEFIdNK/CpCVzAKBggqhkjOPQQDAjAuMRAwDgYD
VQQDDAdMaW50IENBMQ0wCwYDVQQKDARMaW50MQswCQYDVQQGEwJERTAeFw0yMzA5
MTUwMDAwMDBaFw0yNDA5MTUwMDAwMDBaMCIxIDAeBgsrBgEEAYI3PAIBAxMPUHJp
bnRhYmxlU3RyaW5nMFkwEwYHKoZIzj0CAQYIKoZIzj0DAQcDQgAENX34mol9bBzR
yOKXCZ9vKt9VMJcGPQZZlGaS2j7xfV4fIjw57fFwJF59FSrg/G+LaYZctNwR/mE/
QXEdxWArFKMXMBUwEwYDVR0gBAwwCjAIBgZngQwBAgEwCgYIKoZIzj0EAwIDSAAw
RQIgBZgw/Z5pGvLiFA4ooZJImZSYO+d0lXftQCjeECLgK6ICIQD3141jg7LYTpVA
tqjuV3NcLuMnuTy7cs/apJdW6crqIA==
-----END CERTIFICATE-----
