Certificate:
    Data:
        Version: 3 (0x2)
        Serial Number:
            d2:c3:3a:50:ff:62:66:a7:bf:00:f3:ee
        Signature Algorithm: ecdsa-with-SHA256
        Issuer: CN = Lint CA, O = Lint, C = DE
        Validity
            Not Before: Sep 15 00:00:00 2023 GMT
            Not After : Sep 15 00:00:00 2024 GMT
        Subject: DC = UTF8String
        Subject Public Key Info:
            Public Key Algorithm: id-ecPublicKey
                Public-Key: (256 bit)
                pub:
                    04:35:7d:f8:9a:89:7d:6c:1c:d1:c8:e2:97:09:9f:
                    6f:2a:df:55:30:97:06:3d:06:59:94:66:92:da:3e:
                    f1:7d:5e:1f:22:3c:39:ed:f1:70:24:5e:7d:15:2a:
                    e0:fc:6f:8b:69:86:5c:b4:dc:11:fe:61:3f:41:71:
                    1d:c5:60:2b:14
                ASN1 OID: prime256v1
                NIST CURVE: P-256
        X509v3 extensions:
            X509v3 Certificate Policies: 
                Policy: 2.23.140.1.2.1

    Signature Algorithm: ecdsa-with-SHA256
         30:44:02:20:2f:c7:9c:0d:15:66:fb:69:df:a6:e9:d2:cf:06:
         de:ed:5f:3a:e5:eb:fc:39:2e:6e:74:f3:43:48:3c:a6:8f:d5:
         02:20:41:67:95:a6:22:1a:70:11:45:89:c3:c4:b5:3b:4c:fa:
         cd:dd:15:6a:c2:0e:f9:e1:e2:8f:5c:22:be:a3:31:23
-----BEGIN CERTIFICATE-----
MIIBWzCCAQKgAwIBAgINANLDOlD/YmanvwDz7jAKBggqhkjOPQQDAjAuMRAwDgYD
VQQDDAdMaW50IENBMQ0wCwYDVQQKDARMaW50MQswCQYDVQQGEwJERTAeFw0yMzA5
MTUwMDAwMDBaFw0yNDA5MTUwMDAwMDBaMBwxGjAYBgoJkiaJk/IsZAEZDApVVEY4
U3RyaW5nMFkwEwYHKoZIzj0CAQYIKoZIzj0DAQcDQgAENX34mol9bBzRyOKXCZ9v
Kt9VMJcGPQZZlGaS2j7xfV4fIjw57fFwJF59FSrg/G+LaYZctNwR/mE/QXEdxWAr
FKMXMBUwEwYDVR0gBAwwCjAIBgZngQwBAgEwCgYIKoZIzj0EAwIDRwAwRAIgL8ec
DRVm+2nfpunSzwbe7V865ev8OS5udPNDSDymj9UCIEFnlaYiGnARRYnDxLU7TPrN
3RVqwg754eKPXCK+ozEj
-----END CERTIFICATE-----
