Certificate:
    Data:
        Version: 3 (0x2)
        Serial Number: 3973831062308419373 (0x3725e24c024e772d)
        Signature Algorithm: sha256WithRSAEncryption
        Issuer: C = IT, ST = Milano, L = Santa Redegonda, O = Certificati Gratis S.p.A., CN = Certificati Gratis CA
        Validity
            Not Before: Mar  8 11:11:00 2024 GMT
            Not After : Mar  8 08:50:00 2025 GMT
        Subject: C = IT, ST = Milano, L = Milano, street = Via Carducci, O = Example, CN = example.org, serialNumber = 1234567890, businessCategory = Private Organization, jurisdictionC = IT
        Subject Public Key Info:
            Public Key Algorithm: rsaEncryption
                RSA Public-Key: (2048 bit)
                Modulus:
                    00:c1:0a:81:60:21:e7:7b:a3:ec:6f:e4:e0:fc:2f:
                    61:47:88:69:01:58:9b:a3:89:98:0b:42:17:47:87:
                    87:b2:0e:1f:74:22:28:e5:cf:9a:d2:7f:26:db:4f:
                    1d:e8:8d:19:fa:cd:e6:dd:4c:c0:da:38:93:f6:bf:
                    e8:f4:9d:1f:00:c8:bf:cb:f5:4f:b0:fa:c3:24:ce:
                    2f:04:3b:fa:27:dd:8c:3b:f7:44:09:89:16:19:0e:
                    95:0a:8d:eb:0e:54:3f:81:c0:e7:62:b0:d9:6b:5a:
                    89:93:78:08:db:8c:18:3d:24:81:6b:2e:b9:ff:0d:
                    5a:71:24:b7:53:1f:c2:96:57:cd:49:98:b6:21:35:
                    47:6b:83:19:2d:a9:4b:e2:17:a2:bd:1e:ab:16:4f:
                    d4:9a:9b:01:d8:e1:bf:d5:27:75:f2:09:78:63:1b:
                    24:5e:2d:fe:66:fa:32:96:60:51:9c:46:0e:0b:aa:
                    e8:57:22:d4:16:38:11:96:d0:fe:63:56:f1:e8:7e:
                    eb:99:75:ce:4b:d2:e2:f9:71:26:62:31:2a:03:5d:
                    b4:d4:04:fb:33:9f:34:de:a1:39:85:cf:48:d0:a1:
                    16:d5:95:c7:20:38:ba:24:d9:de:98:31:01:0b:1c:
                    be:6e:bb:16:0d:f5:06:42:27:82:49:57:32:f3:67:
                    02:ab
                Exponent: 65537 (0x10001)
        X509v3 extensions:
            X509v3 Extended Key Usage: 
                TLS Web Server Authentication
    Signature Algorithm: sha256WithRSAEncryption
         33:90:f2:a3:3f:3a:7b:cf:f6:ce:c9:1c:05:40:58:90:07:a5:
         13:15:f1:5c:cb:35:22:95:be:a0:29:fe:cb:7a:29:eb:d5:91:
         95:94:f4:73:cd:2e:fb:92:ec:a4:6e:b9:3d:d1:a9:1a:9b:d9:
         1d:cb:68:1b:a9:36:03:4a:62:d3:1b:cd:a1:2a:8f:ca:1e:8b:
         27:e0:22:d8:a6:02:cb:fd:e5:91:ff:30:0f:98:a7:33:b6:b5:
         c4:75:7e:87:63:20:86:57:8f:7e:10:48:fe:76:0e:d0:6c:6d:
         d9:e5:a7:d8:31:c8:cc:c6:3b:40:4e:56:dc:fc:40:2d:4a:7c:
         46:b3:67:c3:a9:6c:e4:23:d1:12:48:96:37:39:a8:7d:50:b4:
         07:57:ff:50:74:d9:82:84:1a:ff:b0:c6:11:0d:da:65:4b:27:
         50:64:a6:d6:48:66:52:d4:49:f1:44:08:2b:6b:96:76:b4:94:
         eb:0e:b3:29:57:77:e2:69:08:66:81:31:d3:c5:69:c9:ae:cb:
         9e:08:99:55:7d:fc:20:51:a5:4a:95:24:5a:66:2a:70:6a:ee:
         f2:cb:ad:04:fd:54:71:a7:68:a4:55:ee:1b:db:7e:44:03:99:
         74:72:bb:15:84:d0:f5:e1:84:8d:df:7d:d0:fb:92:b1:22:5d:
         d1:8f:b6:fd:c3:aa:ab:c0:87:c4:71:af:17:63:5e:f3:21:8c:
         89:94:b9:e0:52:5c:5c:69:67:b3:10:fd:12:8b:a3:a2:fa:ec:
         e7:b9:85:a9:b7:a6:06:5e:d4:23:52:c9:87:92:41:4e:a5:eb:
         ea:71:9a:b5:ef:54:0d:46:04:f9:18:5a:4b:25:9a:74:a5:9b:
         73:08:f4:d6:55:1f:12:07:67:ff:26:26:e4:ea:30:7b:34:6e:
         39:a1:57:71:fc:91:fd:ea:2c:f5:c8:bf:ee:db:d9:12:2c:24:
         bf:c1:09:f5:0e:ca:d3:86:e5:da:d5:58:42:dc:5a:b5:6f:c7:
         6e:45:6c:97:15:18:fc:5d:f6:58:20:e4:60:08:50:45:75:3a:
         94:d0:ba:d7:aa:5f:30:02:6d:6a:85:56:06:3b:1e:75:6f:91:
         5b:5c:e0:07:a5:9c:56:32:b7:81:e8:c5:9a:55:20:47:64:e8:
         68:b9:76:c4:e3:e1:db:80:b6:ee:e7:35:2d:d2:38:bb:52:ac:
         32:99:90:9b:d4:33:27:51:dc:f1:26:bc:90:95:82:c3:ab:28:
         92:a2:6b:e3:f7:1b:f4:5e:9b:3d:98:61:e0:c3:69:2a:26:af:
         89:88:dc:ad:86:12:18:93:04:6c:83:7f:af:7b:5c:f3:87:7a:
         e0:5a:c5:2e:70:f1:9d:27
-----BEGIN CERTIFICATE-----
MIIEzTCCArWgAwIBAgIINyXiTAJOdy0wDQYJKoZIhvcNAQELBQAwfDELMAkGA1UE
BhMCSVQxDzANBgNVBAgTBk1pbGFubzEYMBYGA1UEBxMPU2FudGEgUmVkZWdvbmRh
MSIwIAYDVQQKExlDZXJ0aWZpY2F0aSBHcmF0aXMgUy5wLkEuMR4wHAYDVQQDExVD
ZXJ0aWZpY2F0aSBHcmF0aXMgQ0EwHhcNMjQwMzA4MTExMTAwWhcNMjUwMzA4MDg1
MDAwWjCBtzELMAkGA1UEBhMCSVQxDzANBgNVBAgTBk1pbGFubzEPMA0GA1UEBxMG
TWlsYW5vMRUwEwYDVQQJEwxWaWEgQ2FyZHVjY2kxEDAOBgNVBAoTB0V4YW1wbGUx
FDASBgNVBAMTC2V4YW1wbGUub3JnMRMwEQYDVQQFEwoxMjM0NTY3ODkwMR0wGwYD
VQQPExRQcml2YXRlIE9yZ2FuaXphdGlvbjETMBEGCysGAQQBgjc8AgEDEwJJVDCC
ASIwDQYJKoZIhvcNAQEBBQADggEPADCCAQoCggEBAMEKgWAh53uj7G/k4PwvYUeI
aQFYm6OJmAtCF0eHh7IOH3QiKOXPmtJ/JttPHeiNGfrN5t1MwNo4k/a/6PSdHwDI
v8v1T7D6wyTOLwQ7+ifdjDv3RAmJFhkOlQqN6w5UP4HA52Kw2WtaiZN4CNuMGD0k
gWsuuf8NWnEkt1MfwpZXzUmYtiE1R2uDGS2pS+IXor0eqxZP1JqbAdjhv9UndfIJ
eGMbJF4t/mb6MpZgUZxGDguq6Fci1BY4EZbQ/mNW8eh+65l1zkvS4vlxJmIxKgNd
tNQE+zOfNN6hOYXPSNChFtWVxyA4uiTZ3pgxAQscvm67Fg31BkIngklXMvNnAqsC
AwEAAaMXMBUwEwYDVR0lBAwwCgYIKwYBBQUHAwEwDQYJKoZIhvcNAQELBQADggIB
ADOQ8qM/OnvP9s7JHAVAWJAHpRMV8VzLNSKVvqAp/st6KevVkZWU9HPNLvuS7KRu
uT3RqRqb2R3LaBupNgNKYtMbzaEqj8oeiyfgItimAsv95ZH/MA+YpzO2tcR1fodj
IIZXj34QSP52DtBsbdnlp9gxyMzGO0BOVtz8QC1KfEazZ8OpbOQj0RJIljc5qH1Q
tAdX/1B02YKEGv+wxhEN2mVLJ1BkptZIZlLUSfFECCtrlna0lOsOsylXd+JpCGaB
MdPFacmuy54ImVV9/CBRpUqVJFpmKnBq7vLLrQT9VHGnaKRV7hvbfkQDmXRyuxWE
0PXhhI3ffdD7krEiXdGPtv3DqqvAh8RxrxdjXvMhjImUueBSXFxpZ7MQ/RKLo6L6
7Oe5ham3pgZe1CNSyYeSQU6l6+pxmrXvVA1GBPkYWkslmnSlm3MI9NZVHxIHZ/8m
JuTqMHs0bjmhV3H8kf3qLPXIv+7b2RIsJL/BCfUOytOG5drVWELcWrVvx25FbJcV
GPxd9lgg5GAIUEV1OpTQuteqXzACbWqFVgY7HnVvkVtc4AelnFYyt4HoxZpVIEdk
6Gi5dsTj4duAtu7nNS3SOLtSrDKZkJvUMydR3PEmvJCVgsOrKJKia+P3G/Remz2Y
YeDDaSomr4mI3K2GEhiTBGyDf697XPOHeuBaxS5w8Z0n
-----END CERTIFICATE-----
