Certificate:
    Data:
        Version: 3 (0x2)
        Serial Number:
            20:73:b8:73:d2:e3:be:9f:24:56:19:f0
        Signature Algorithm: ecdsa-with-SHA256
        Issuer: CN = Lint CA, O = Lint, C = DE
        Validity
            Not Before: Sep 15 00:00:00 2023 GMT
            Not After : Sep 15 00:00:00 2024 GMT
        Subject: DC = IA5String
        Subject Public Key Info:
            Public Key Algorithm: id-ecPublicKey
                Public-Key: (256 bit)
                pub:
                    04:35:7d:f8:9a:89:7d:6c:1c:d1:c8:e2:97:09:9f:
                    6f:2a:df:55:30:97:06:3d:06:59:94:66:92:da:3e:
                    f1:7d:5e:1f:22:3c:39:ed:f1:70:24:5e:7d:15:2a:
                    e0:fc:6f:8b:69:86:5c:b4:dc:11:fe:61:3f:41:71:
                    1d:c5:60:2b:14
                ASN1 OID: prime256v1
                NIST CURVE: P-256
        X509v3 extensions:
            X509v3 Certificate Policies: 
                Policy: 2.23.140.1.2.1

    Signature Algorithm: ecdsa-with-SHA256
         30:44:02:20:11:8c:da:ba:cc:77:19:93:0e:bb:e5:fd:1b:1e:
         cb:07:fa:60:7d:40:fe:87:fb:83:c0:f9:73:a7:ce:cb:34:1b:
         02:20:0c:6e:cd:6f:99:97:4a:f6:64:76:23:02:09:2a:cb:24:
         9e:36:88:d6:ef:5c:11:71:f4:50:5c:de:38:67:8b:c3
-----BEGIN CERTIFICATE-----
MIIBWTCCAQCgAwIBAgIMIHO4c9Ljvp8kVhnwMAoGCCqGSM49BAMCMC4xEDAOBgNV
BAMMB0xpbnQgQ0ExDTALBgNVBAoMBExpbnQxCzAJBgNVBAYTAkRFMB4XDTIzMDkx
NTAwMDAwMFoXDTI0MDkxNTAwMDAwMFowGzEZMBcGCgmSJomT8ixkARkWCUlBNVN0
cmluZzBZMBMGByqGSM49AgEGCCqGSM49AwEHA0IABDV9+JqJfWwc0cjilwmfbyrf
VTCXBj0GWZRmkto+8X1eHyI8Oe3xcCRefRUq4Pxvi2mGXLTcEf5hP0FxHcVgKxSj
FzAVMBMGA1UdIAQMMAowCAYGZ4EMAQIBMAoGCCqGSM49BAMCA0cAMEQCIBGM2rrM
dxmTDrvl/Rseywf6YH1A/of7g8D5c6fOyzQbAiAMbs1vmZdK9mR2IwIJKssknjaI
1u9cEXH0UFzeOGeLww==
-----END CERTIFICATE-----
