-------------Leaf-------------
Certificate:
    Data:
        Version: 3 (0x2)
        Serial Number: 3 (0x3)
        Signature Algorithm: ecdsa-with-SHA256
        Issuer: 
        Validity
            Not Before: Apr 11 17:09:50 2021 GMT
            Not After : Apr 11 17:09:50 2021 GMT
        Subject: SN = This is the song that doesn't end.
        Subject Public Key Info:
            Public Key Algorithm: id-ecPublicKey
                Public-Key: (256 bit)
                pub:
                    04:02:2d:23:96:80:c0:53:a0:b9:82:e3:c7:9b:d1:
                    f1:7d:ae:59:1e:7f:00:9f:25:d0:fa:e6:2b:2d:ff:
                    bb:9a:82:55:eb:73:5d:86:c8:2d:fe:0e:05:6d:5a:
                    57:5f:3a:fe:bd:77:6e:9b:47:21:cb:d5:85:39:16:
                    fa:86:5b:d5:65
                ASN1 OID: prime256v1
                NIST CURVE: P-256
        X509v3 extensions:
            X509v3 Authority Key Identifier: 
                keyid:82:8E:C8:52:EF:32:59:68:76:D1:20:94:89:C3:05:68:86:C9:8B:2C

    Signature Algorithm: ecdsa-with-SHA256
         30:45:02:21:00:c9:7b:d4:1b:d8:ca:82:30:ee:3b:55:b0:25:
         2f:f9:3b:f8:8b:db:19:31:25:cf:7c:d1:0a:b3:23:cb:0b:d5:
         8e:02:20:52:44:b0:09:5f:29:50:cb:de:15:50:db:2d:6e:b2:
         e5:b9:37:33:b8:ec:bf:11:51:5c:69:36:e7:07:b4:a8:85
-----BEGIN CERTIFICATE-----
MIIBPjCB5aADAgECAgEDMAoGCCqGSM49BAMCMAAwHhcNMjEwNDExMTcwOTUwWhcN
MjEwNDExMTcwOTUwWjAtMSswKQYDVQQEEyJUaGlzIGlzIHRoZSBzb25nIHRoYXQg
ZG9lc24ndCBlbmQuMFkwEwYHKoZIzj0CAQYIKoZIzj0DAQcDQgAEAi0jloDAU6C5
guPHm9Hxfa5ZHn8AnyXQ+uYrLf+7moJV63Ndhsgt/g4FbVpXXzr+vXdum0chy9WF
ORb6hlvVZaMjMCEwHwYDVR0jBBgwFoAUgo7IUu8yWWh20SCUicMFaIbJiywwCgYI
KoZIzj0EAwIDSAAwRQIhAMl71BvYyoIw7jtVsCUv+Tv4i9sZMSXPfNEKsyPLC9WO
AiBSRLAJXylQy94VUNstbrLluTczuOy/EVFcaTbnB7SohQ==
-----END CERTIFICATE-----

