Certificate:
    Data:
        Version: 3 (0x2)
        Serial Number: 3 (0x3)
        Signature Algorithm: ecdsa-with-SHA256
        Issuer: 
        Validity
            Not Before: Apr 11 17:09:20 2021 GMT
            Not After : Apr 11 17:09:20 2021 GMT
        Subject: SN = "This is the song that doesn't end. Yes, it goes on and on, my friend. Some people started singing it, not knowing what it was. And they'll continue singing it forever just because."
        Subject Public Key Info:
            Public Key Algorithm: id-ecPublicKey
                Public-Key: (256 bit)
                pub:
                    04:1f:41:df:f8:a0:95:0b:9b:88:a8:07:55:ce:76:
                    93:d4:74:cb:d4:8c:25:65:31:75:bf:06:76:0f:a5:
                    64:f8:04:ff:89:bc:f9:fa:28:fc:b2:38:70:89:18:
                    66:fe:c6:df:53:5d:3b:46:73:ac:66:4a:ad:13:0b:
                    8d:6c:8b:9b:4f
                ASN1 OID: prime256v1
                NIST CURVE: P-256
        X509v3 extensions:
            X509v3 Authority Key Identifier: 
                keyid:FB:7E:18:16:89:62:55:1E:91:A8:2A:9C:47:07:8F:D5:5D:12:0E:90

    Signature Algorithm: ecdsa-with-SHA256
         30:45:02:20:54:6b:be:17:e9:0d:06:d4:9f:4f:76:d0:f4:09:
         4b:11:8a:f4:13:a6:0c:a7:fb:e8:0f:36:af:77:a6:0e:92:cd:
         02:21:00:87:af:bd:11:3b:00:71:f2:23:dc:37:76:96:9b:ff:
         84:97:37:34:80:dd:93:cc:51:6a:b8:bb:b6:3b:dd:e0:21
-----BEGIN CERTIFICATE-----
MIIB1TCCAXugAwIBAgIBAzAKBggqhkjOPQQDAjAAMB4XDTIxMDQxMTE3MDkyMFoX
DTIxMDQxMTE3MDkyMFowgcIxgb8wgbwGA1UEBBOBtFRoaXMgaXMgdGhlIHNvbmcg
dGhhdCBkb2Vzbid0IGVuZC4gWWVzLCBpdCBnb2VzIG9uIGFuZCBvbiwgbXkgZnJp
ZW5kLiBTb21lIHBlb3BsZSBzdGFydGVkIHNpbmdpbmcgaXQsIG5vdCBrbm93aW5n
IHdoYXQgaXQgd2FzLiBBbmQgdGhleSdsbCBjb250aW51ZSBzaW5naW5nIGl0IGZv
cmV2ZXIganVzdCBiZWNhdXNlLjBZMBMGByqGSM49AgEGCCqGSM49AwEHA0IABB9B
3/iglQubiKgHVc52k9R0y9SMJWUxdb8Gdg+lZPgE/4m8+foo/LI4cIkYZv7G31Nd
O0ZzrGZKrRMLjWyLm0+jIzAhMB8GA1UdIwQYMBaAFPt+GBaJYlUekagqnEcHj9Vd
Eg6QMAoGCCqGSM49BAMCA0gAMEUCIFRrvhfpDQbUn0920PQJSxGK9BOmDKf76A82
r3emDpLNAiEAh6+9ETsAcfIj3Dd2lpv/hJc3NIDdk8xRari7tjvd4CE=
-----END CERTIFICATE-----
