Certificate:
    Data:
        Version: 3 (0x2)
        Serial Number:
            53:b5:9d:4d:f8:db:4b:61:0f:69:e0:57:2e:14:a9:81
        Signature Algorithm: sha256WithRSAEncryption
        Issuer: C = US, O = Some CA Inc., CN = Fake CA for zlint testing
        Validity
            Not Before: Aug 30 11:54:51 2022 GMT
            Not After : Aug 30 11:54:51 2023 GMT
        Subject: C = IT, L = Nowhere, O = Some Company Ltd., OU = Some Department, CN = example.com
        Subject Public Key Info:
            Public Key Algorithm: rsaEncryption
                RSA Public-Key: (4096 bit)
                Modulus:
                    00:cf:d5:b2:6e:2d:f3:e1:9d:6c:7f:3e:88:99:04:
                    25:ad:17:83:6e:8c:2f:9f:8d:10:7c:54:83:0c:59:
                    31:d4:21:21:ae:96:c4:75:2c:3a:b1:93:38:bb:42:
                    89:2e:9c:dc:8e:ae:29:fc:71:03:e4:9f:58:c0:0a:
                    6f:58:59:8a:1c:97:34:ec:48:7e:d7:20:bc:56:bf:
                    d7:34:63:44:27:f9:e2:dd:16:4a:51:c9:81:84:10:
                    70:8f:88:71:49:a7:eb:a9:8a:57:a1:2c:15:9d:4f:
                    08:b7:74:6a:52:42:98:ea:dc:d7:9b:bb:88:60:c0:
                    68:fb:37:5a:52:28:6a:4c:6a:d5:82:1c:72:5e:ba:
                    df:d3:e2:c3:37:98:fd:89:ae:0f:6b:ae:cc:56:5e:
                    c4:c9:3d:81:42:13:02:92:c7:f8:f7:58:ef:57:9b:
                    9c:1b:d5:ab:68:41:c8:0e:ef:4f:d8:b0:4f:54:fc:
                    85:e4:af:a3:ef:ee:a1:f2:ea:1a:8d:80:bb:f2:e9:
                    1c:2d:c9:e8:5a:ec:0d:f7:26:9a:ab:ab:73:ee:aa:
                    66:53:70:c6:d4:f8:ee:1b:d7:0f:0b:81:11:fe:17:
                    10:2b:d3:55:de:f4:ba:f2:2c:2c:57:b9:21:07:41:
                    1b:0c:90:f1:c4:f2:f5:38:e2:2b:aa:b5:43:ee:66:
                    da:14:82:40:54:3d:e3:81:80:0c:bb:94:9e:da:be:
                    1e:ab:c2:43:30:65:71:91:c5:6b:77:4d:ac:87:67:
                    ad:9a:a4:32:e1:14:8a:5b:bb:75:8c:6c:3b:c4:f5:
                    1f:a8:f3:8d:be:0c:c9:4d:f6:a2:e9:ed:f2:af:04:
                    b1:9a:32:02:27:f1:38:02:13:12:d4:01:e7:3c:9c:
                    fd:63:91:84:26:aa:a2:b3:9a:b4:07:f7:e4:a4:32:
                    42:95:bd:03:e1:15:89:d8:1c:bd:f6:12:36:c6:53:
                    aa:d8:84:81:4a:2e:38:33:ca:96:1a:66:fc:e6:46:
                    9f:fb:ae:7f:d4:b6:95:4e:e8:ee:05:16:92:31:62:
                    f2:f4:4e:bb:e6:58:58:a0:59:bb:df:25:91:95:25:
                    e9:1e:a5:14:cc:4a:2a:87:d8:e0:17:12:45:47:a3:
                    c4:85:cd:0a:9d:eb:f4:b5:c1:46:a5:36:91:c1:26:
                    53:06:1d:e4:61:23:53:44:85:6c:aa:4f:90:17:df:
                    1c:c4:cd:e9:cb:66:28:bc:72:62:90:ee:a9:7b:ab:
                    56:10:4a:be:b9:63:18:4c:10:09:3f:68:6d:28:6c:
                    19:a0:ea:d0:6e:2a:24:e1:ae:5f:9c:27:e4:7f:94:
                    d3:15:12:e2:63:b8:ad:29:e6:91:21:a2:be:37:0e:
                    8c:a4:5b
                Exponent: 65537 (0x10001)
        X509v3 extensions:
            X509v3 Key Usage: critical
                Digital Signature, Key Encipherment
            X509v3 Extended Key Usage: 
                TLS Web Client Authentication, TLS Web Server Authentication
            X509v3 Subject Key Identifier: 
                1E:4A:D5:54:E3:17:B0:EE:75:35:08:31:77:7B:C7:78:21:58:C5:71
            X509v3 Authority Key Identifier: 
                keyid:E8:B6:F6:76:4B:D0:3B:E5:46:A5:F9:54:D4:7E:07:B3:DE:0D:60:3E

            Authority Information Access: 
                OCSP - URI:http://ca.someca-inc.com/ocsp
                CA Issuers - URI:http://ca.someca-inc.com/root

            X509v3 Subject Alternative Name: 
                DNS:example.com
            X509v3 Certificate Policies: 
                Policy: 1.2.3

            X509v3 CRL Distribution Points: 

                Full Name:
                  URI:http://ca.someca-inc.com/crl

    Signature Algorithm: sha256WithRSAEncryption
         56:ba:23:f1:61:4b:58:92:12:f3:41:ed:42:d3:4c:c6:a0:30:
         51:ea:27:3b:51:58:99:51:45:a7:ed:62:cb:15:54:85:0d:5a:
         1d:2c:d8:a8:64:a2:bc:c7:60:6b:80:ff:c4:7b:e0:ae:18:39:
         81:c1:a7:55:c9:24:a3:ff:f0:26:32:13:0b:70:56:70:8c:4b:
         d0:3f:20:eb:35:2e:52:cf:92:1a:30:3b:70:91:72:61:53:cf:
         a6:b6:c9:5b:d7:7e:b3:3d:15:86:bf:a4:72:ec:11:42:4c:6e:
         d0:99:ef:8b:34:95:bb:c5:4e:17:46:00:e7:8f:90:72:3e:d0:
         ff:c2:09:ee:90:69:b5:52:11:a7:31:a9:18:3f:56:ee:37:f3:
         78:cf:b2:6d:2a:ce:41:e1:07:26:3f:02:cf:f8:f9:3a:09:35:
         5f:11:92:79:0c:9f:f8:c9:c4:f8:bb:95:1d:f4:bf:da:63:c0:
         6a:b8:b6:52:37:5f:8e:69:65:0b:ff:f6:14:d0:9a:bf:e3:57:
         e3:ce:bc:ac:84:6c:7b:3e:6c:12:e2:bc:e1:91:a4:4d:40:67:
         46:ed:9d:43:cd:29:fe:f8:c0:28:ae:78:3b:92:34:42:3a:f5:
         d3:4b:bc:62:f5:af:2c:66:08:e7:6d:02:64:85:c5:d7:9b:a6:
         b8:20:e5:80:07:7e:99:2d:b6:f5:83:cb:2f:c5:8f:08:25:f4:
         52:c8:07:2d:f7:ad:98:1e:71:96:06:6c:77:fd:6b:ee:37:00:
         f2:06:9d:1f:5a:99:c9:fb:91:82:27:6c:78:32:75:ff:ea:c0:
         1e:00:32:c8:4e:44:48:08:9c:fc:2a:63:69:be:af:7d:7a:6e:
         fe:ff:02:ff:e6:a9:9b:ea:f8:bb:ff:8e:c3:11:b8:3f:5b:0c:
         fe:2b:07:76:98:98:c8:7d:d3:33:1b:6e:49:57:df:7b:1b:8d:
         54:3f:1d:18:42:87:95:b7:13:12:f9:16:63:f8:eb:32:e7:b3:
         c9:76:b8:04:9d:2d:ce:d5:37:61:ac:94:c1:06:22:8a:db:c9:
         a1:ca:73:ad:63:a8:6f:f6:03:45:08:ef:21:94:24:5b:66:40:
         70:8d:17:d0:b5:70:e4:85:77:fa:87:b0:c2:54:74:de:7f:09:
         91:b5:80:0b:6c:35:02:9a:55:70:1a:7c:6e:f0:ff:62:1b:91:
         35:bc:07:12:99:e5:18:1c:bf:38:05:0c:4c:e4:72:24:82:95:
         be:3b:a6:72:80:be:12:36:51:14:87:dc:3c:66:4c:42:d7:c3:
         3c:fa:50:f7:ca:bb:02:63:82:32:c3:aa:9a:27:72:ab:81:a4:
         1b:d2:83:da:03:1f:e2:5e
-----BEGIN CERTIFICATE-----
MIIGcDCCBFigAwIBAgIQU7WdTfjbS2EPaeBXLhSpgTANBgkqhkiG9w0BAQsFADBI
MQswCQYDVQQGEwJVUzEVMBMGA1UEChMMU29tZSBDQSBJbmMuMSIwIAYDVQQDExlG
YWtlIENBIGZvciB6bGludCB0ZXN0aW5nMB4XDTIyMDgzMDExNTQ1MVoXDTIzMDgz
MDExNTQ1MVowazELMAkGA1UEBhMCSVQxEDAOBgNVBAcTB05vd2hlcmUxGjAYBgNV
BAoTEVNvbWUgQ29tcGFueSBMdGQuMRgwFgYDVQQLEw9Tb21lIERlcGFydG1lbnQx
FDASBgNVBAMTC2V4YW1wbGUuY29tMIICIjANBgkqhkiG9w0BAQEFAAOCAg8AMIIC
CgKCAgEAz9Wybi3z4Z1sfz6ImQQlrReDbowvn40QfFSDDFkx1CEhrpbEdSw6sZM4
u0KJLpzcjq4p/HED5J9YwApvWFmKHJc07Eh+1yC8Vr/XNGNEJ/ni3RZKUcmBhBBw
j4hxSafrqYpXoSwVnU8It3RqUkKY6tzXm7uIYMBo+zdaUihqTGrVghxyXrrf0+LD
N5j9ia4Pa67MVl7EyT2BQhMCksf491jvV5ucG9WraEHIDu9P2LBPVPyF5K+j7+6h
8uoajYC78ukcLcnoWuwN9yaaq6tz7qpmU3DG1PjuG9cPC4ER/hcQK9NV3vS68iws
V7khB0EbDJDxxPL1OOIrqrVD7mbaFIJAVD3jgYAMu5Se2r4eq8JDMGVxkcVrd02s
h2etmqQy4RSKW7t1jGw7xPUfqPONvgzJTfai6e3yrwSxmjICJ/E4AhMS1AHnPJz9
Y5GEJqqis5q0B/fkpDJClb0D4RWJ2By99hI2xlOq2ISBSi44M8qWGmb85kaf+65/
1LaVTujuBRaSMWLy9E675lhYoFm73yWRlSXpHqUUzEoqh9jgFxJFR6PEhc0Knev0
tcFGpTaRwSZTBh3kYSNTRIVsqk+QF98cxM3py2YovHJikO6pe6tWEEq+uWMYTBAJ
P2htKGwZoOrQbiok4a5fnCfkf5TTFRLiY7itKeaRIaK+Nw6MpFsCAwEAAaOCATEw
ggEtMA4GA1UdDwEB/wQEAwIFoDAdBgNVHSUEFjAUBggrBgEFBQcDAgYIKwYBBQUH
AwEwHQYDVR0OBBYEFB5K1VTjF7DudTUIMXd7x3ghWMVxMB8GA1UdIwQYMBaAFOi2
9nZL0DvlRqX5VNR+B7PeDWA+MGQGCCsGAQUFBwEBBFgwVjApBggrBgEFBQcwAYYd
aHR0cDovL2NhLnNvbWVjYS1pbmMuY29tL29jc3AwKQYIKwYBBQUHMAKGHWh0dHA6
Ly9jYS5zb21lY2EtaW5jLmNvbS9yb290MBYGA1UdEQQPMA2CC2V4YW1wbGUuY29t
MA8GA1UdIAQIMAYwBAYCKgMwLQYDVR0fBCYwJDAioCCgHoYcaHR0cDovL2NhLnNv
bWVjYS1pbmMuY29tL2NybDANBgkqhkiG9w0BAQsFAAOCAgEAVroj8WFLWJIS80Ht
QtNMxqAwUeonO1FYmVFFp+1iyxVUhQ1aHSzYqGSivMdga4D/xHvgrhg5gcGnVckk
o//wJjITC3BWcIxL0D8g6zUuUs+SGjA7cJFyYVPPprbJW9d+sz0Vhr+kcuwRQkxu
0JnvizSVu8VOF0YA54+Qcj7Q/8IJ7pBptVIRpzGpGD9W7jfzeM+ybSrOQeEHJj8C
z/j5Ogk1XxGSeQyf+MnE+LuVHfS/2mPAari2UjdfjmllC//2FNCav+NX4868rIRs
ez5sEuK84ZGkTUBnRu2dQ80p/vjAKK54O5I0Qjr100u8YvWvLGYI520CZIXF15um
uCDlgAd+mS229YPLL8WPCCX0UsgHLfetmB5xlgZsd/1r7jcA8gadH1qZyfuRgids
eDJ1/+rAHgAyyE5ESAic/Cpjab6vfXpu/v8C/+apm+r4u/+OwxG4P1sM/isHdpiY
yH3TMxtuSVffexuNVD8dGEKHlbcTEvkWY/jrMuezyXa4BJ0tztU3YayUwQYiitvJ
ocpzrWOob/YDRQjvIZQkW2ZAcI0X0LVw5IV3+oewwlR03n8JkbWAC2w1AppVcBp8
bvD/YhuRNbwHEpnlGBy/OAUMTORyJIKVvjumcoC+EjZRFIfcPGZMQtfDPPpQ98q7
AmOCMsOqmidyq4GkG9KD2gMf4l4=
-----END CERTIFICATE-----
