Certificate:
    Data:
        Version: 3 (0x2)
        Serial Number:
            b2:65:55:6c:44:9f:86:e8:40:2e:80:f3:f3:1c:63:cd
        Signature Algorithm: sha256WithRSAEncryption
        Issuer: C = US, O = Some CA Inc., CN = Fake CA for zlint testing
        Validity
            Not Before: Oct 23 00:00:00 2022 GMT
            Not After : Oct 23 00:00:00 2023 GMT
        Subject: C = IT, L = Nowhere, O = Some Company Ltd., OU = Some Department, CN = example.com
        Subject Public Key Info:
            Public Key Algorithm: rsaEncryption
                RSA Public-Key: (4096 bit)
                Modulus:
                    00:ca:0f:22:07:9e:a2:8d:f2:bb:96:e1:84:5e:63:
                    a9:49:c8:84:68:42:dd:ff:0d:ad:84:8a:3c:d6:b5:
                    35:9d:36:c5:a9:0c:e3:06:a4:b9:a2:c8:82:22:16:
                    ec:f6:53:44:7b:d1:8a:e2:b2:34:45:5c:4d:73:8c:
                    37:21:5c:c1:d0:0a:d8:93:0b:f3:e8:46:34:9e:6e:
                    da:81:cf:dc:16:ea:2f:70:c6:b7:28:f4:db:14:57:
                    77:6c:4d:c8:bd:2c:86:b9:bf:2b:8e:93:f0:94:33:
                    2b:56:af:9d:81:b4:83:74:a7:db:e2:98:9f:10:c0:
                    b3:6e:9a:69:3d:87:24:63:a1:f4:00:84:df:1d:c9:
                    7c:21:6a:a7:e7:dd:84:d3:41:e6:d2:ef:ca:b0:f6:
                    04:dc:22:31:5d:fa:e4:2d:e4:cc:be:8a:77:47:d0:
                    fd:d4:ec:68:02:46:62:bf:b5:04:7b:f7:04:5c:b0:
                    ee:3c:63:c5:86:81:ac:ed:01:f1:9d:ca:d2:40:d4:
                    42:1e:45:7e:d6:97:bf:1b:e2:62:87:eb:fe:c1:c1:
                    b3:54:a3:63:70:05:ce:ba:15:a7:55:a2:f5:2d:da:
                    3f:8e:59:6c:fb:84:27:68:c9:05:04:21:8c:50:89:
                    06:19:b8:2b:8c:a4:35:ef:bd:4c:ca:66:7a:17:55:
                    4f:16:21:fe:36:a9:8d:47:2b:e1:8e:40:aa:d9:df:
                    d7:d2:31:c0:b3:95:bb:46:d9:d8:69:e6:f1:17:03:
                    63:76:fd:d6:8d:af:96:45:b5:30:50:65:1d:b8:72:
                    79:a2:8f:90:78:71:63:e5:9d:78:0e:a5:20:05:fb:
                    57:21:95:86:f7:1e:ea:25:66:95:2c:12:7a:12:b4:
                    6d:1d:3e:80:f1:f8:23:06:99:e8:b7:f2:e7:89:a8:
                    10:af:17:b9:03:35:cf:3c:3e:fb:c3:23:6e:0b:2a:
                    f5:c0:a8:0f:c8:1e:62:d3:57:2e:3d:3f:3c:8a:f7:
                    cb:1a:75:3e:65:96:df:26:f5:0f:7f:54:14:fb:7b:
                    ab:c1:95:97:97:34:d3:07:1d:59:ce:e1:b8:f7:61:
                    2e:d0:c0:2b:e0:df:ae:9c:97:28:83:52:c5:72:fd:
                    ae:53:62:f1:ff:3a:39:0e:7d:80:0c:b7:ed:f2:da:
                    d9:a2:be:27:92:7e:ab:cd:84:e1:86:35:f2:e9:70:
                    51:f0:76:ad:bb:71:df:83:14:09:ed:ab:58:34:9f:
                    a2:75:e4:66:2b:00:49:ba:d4:33:28:49:2a:b8:d3:
                    40:89:9c:e8:cb:69:a0:e3:82:47:19:5e:93:43:68:
                    cc:87:ef:b9:08:bc:89:66:00:b0:9f:bf:5d:0c:77:
                    c9:e8:c9
                Exponent: 65537 (0x10001)
        X509v3 extensions:
            X509v3 Key Usage: critical
                Digital Signature, Key Encipherment
            X509v3 Extended Key Usage: 
                TLS Web Client Authentication, TLS Web Server Authentication
            X509v3 Subject Key Identifier: 
                E4:E2:C4:0F:66:41:9A:7D:F5:AD:89:A8:0F:E3:62:26:C2:72:C3:35
            X509v3 Authority Key Identifier: 
                keyid:E8:B6:F6:76:4B:D0:3B:E5:46:A5:F9:54:D4:7E:07:B3:DE:0D:60:3E

            Authority Information Access: 
                OCSP - URI:http://ca.someca-inc.com/ocsp
                CA Issuers - URI:http://ca.someca-inc.com/root

            X509v3 Subject Alternative Name: 
                DNS:example.com
            X509v3 Certificate Policies: 
                Policy: 1.2.3

            X509v3 CRL Distribution Points: 

                Full Name:
                  URI:http://ca.someca-inc.com/crl

    Signature Algorithm: sha256WithRSAEncryption
         37:d4:7d:c8:43:ed:61:7c:3e:ba:ca:05:79:4b:cf:3f:de:74:
         51:68:ed:c8:0a:55:cc:17:ac:bd:d4:dc:6a:9b:01:bf:43:2e:
         97:07:e2:d7:27:27:12:d0:4b:c2:e5:1e:51:ab:17:56:18:85:
         4c:26:83:22:ca:1d:3b:5e:b5:75:ee:7f:02:09:27:c6:de:14:
         b4:e6:c8:a1:54:2d:7a:e3:12:17:75:a6:ed:3a:e1:d0:d9:18:
         66:71:ad:49:98:bf:27:24:b8:3e:da:1d:9e:05:32:59:c3:b2:
         d2:e3:32:9e:f2:1b:0c:2d:00:ac:2c:cb:eb:e0:70:0a:f5:68:
         ce:df:e0:7b:c6:85:81:b3:69:2b:38:28:f9:db:66:2f:5f:1a:
         e5:87:1b:62:42:df:e4:2f:fe:6f:8c:48:1c:cf:cc:0f:7b:be:
         50:45:02:71:00:ab:65:a7:6c:37:a2:ae:de:d7:17:b9:e9:91:
         a5:c4:ee:51:b3:0e:d6:d6:f2:54:f5:15:d5:d2:8d:0c:16:5e:
         04:12:d6:31:e7:a7:20:e0:84:95:2f:91:4b:a4:a7:3c:16:02:
         a8:74:1b:3e:e0:e9:7a:46:ed:08:e3:a6:e0:60:71:a0:c0:d8:
         46:96:d1:95:41:a2:7c:f0:9c:af:50:cd:ec:c3:ca:eb:6d:e8:
         a8:35:02:f4:05:95:e0:d9:05:68:28:ef:fd:96:e6:f6:10:81:
         cc:12:93:f7:fd:79:31:b3:8e:5e:ef:00:c0:8c:e2:73:ed:e5:
         ae:5b:4c:2e:eb:9c:88:ea:35:d1:49:02:e3:d2:36:65:0e:16:
         6e:12:55:d8:da:0a:67:59:78:d0:15:d9:b0:dd:0f:5c:44:31:
         c8:14:ba:44:49:8a:ef:54:8f:d6:84:97:a6:83:c5:4d:78:15:
         de:dd:a7:da:11:9a:70:14:05:cb:4b:d7:ae:a0:fa:b4:f6:cf:
         b5:7c:6e:89:38:79:4c:7f:75:69:11:99:02:be:2e:bf:e6:d0:
         75:ba:c0:11:7e:46:d7:e8:8c:b6:75:92:43:79:e8:c2:c2:25:
         8a:1a:2c:58:3e:be:01:f9:a2:c4:62:c1:32:e4:dc:cd:01:68:
         e9:fc:c8:12:c2:3d:cb:73:50:80:d7:77:f9:97:f6:c6:f7:43:
         d2:a4:01:92:6b:58:f5:da:cc:a8:9c:8a:58:9f:43:94:ec:92:
         6f:11:14:90:2d:5a:65:9d:30:97:ea:84:02:84:11:f4:5d:4d:
         55:e0:8a:8b:1a:03:66:8d:e8:ac:19:10:c0:9c:88:f9:bf:f5:
         66:81:17:5d:0a:f5:09:8c:7a:90:6b:a0:bf:66:fe:b2:61:34:
         8e:62:86:31:8a:57:93:94
-----BEGIN CERTIFICATE-----
MIIGcTCCBFmgAwIBAgIRALJlVWxEn4boQC6A8/McY80wDQYJKoZIhvcNAQELBQAw
SDELMAkGA1UEBhMCVVMxFTATBgNVBAoTDFNvbWUgQ0EgSW5jLjEiMCAGA1UEAxMZ
RmFrZSBDQSBmb3IgemxpbnQgdGVzdGluZzAeFw0yMjEwMjMwMDAwMDBaFw0yMzEw
MjMwMDAwMDBaMGsxCzAJBgNVBAYTAklUMRAwDgYDVQQHEwdOb3doZXJlMRowGAYD
VQQKExFTb21lIENvbXBhbnkgTHRkLjEYMBYGA1UECxMPU29tZSBEZXBhcnRtZW50
MRQwEgYDVQQDEwtleGFtcGxlLmNvbTCCAiIwDQYJKoZIhvcNAQEBBQADggIPADCC
AgoCggIBAMoPIgeeoo3yu5bhhF5jqUnIhGhC3f8NrYSKPNa1NZ02xakM4wakuaLI
giIW7PZTRHvRiuKyNEVcTXOMNyFcwdAK2JML8+hGNJ5u2oHP3BbqL3DGtyj02xRX
d2xNyL0shrm/K46T8JQzK1avnYG0g3Sn2+KYnxDAs26aaT2HJGOh9ACE3x3JfCFq
p+fdhNNB5tLvyrD2BNwiMV365C3kzL6Kd0fQ/dTsaAJGYr+1BHv3BFyw7jxjxYaB
rO0B8Z3K0kDUQh5FftaXvxviYofr/sHBs1SjY3AFzroVp1Wi9S3aP45ZbPuEJ2jJ
BQQhjFCJBhm4K4ykNe+9TMpmehdVTxYh/japjUcr4Y5Aqtnf19IxwLOVu0bZ2Gnm
8RcDY3b91o2vlkW1MFBlHbhyeaKPkHhxY+WdeA6lIAX7VyGVhvce6iVmlSwSehK0
bR0+gPH4IwaZ6Lfy54moEK8XuQM1zzw++8Mjbgsq9cCoD8geYtNXLj0/PIr3yxp1
PmWW3yb1D39UFPt7q8GVl5c00wcdWc7huPdhLtDAK+DfrpyXKINSxXL9rlNi8f86
OQ59gAy37fLa2aK+J5J+q82E4YY18ulwUfB2rbtx34MUCe2rWDSfonXkZisASbrU
MyhJKrjTQImc6MtpoOOCRxlek0NozIfvuQi8iWYAsJ+/XQx3yejJAgMBAAGjggEx
MIIBLTAOBgNVHQ8BAf8EBAMCBaAwHQYDVR0lBBYwFAYIKwYBBQUHAwIGCCsGAQUF
BwMBMB0GA1UdDgQWBBTk4sQPZkGaffWtiagP42ImwnLDNTAfBgNVHSMEGDAWgBTo
tvZ2S9A75Ual+VTUfgez3g1gPjBkBggrBgEFBQcBAQRYMFYwKQYIKwYBBQUHMAGG
HWh0dHA6Ly9jYS5zb21lY2EtaW5jLmNvbS9vY3NwMCkGCCsGAQUFBzAChh1odHRw
Oi8vY2Euc29tZWNhLWluYy5jb20vcm9vdDAWBgNVHREEDzANggtleGFtcGxlLmNv
bTAPBgNVHSAECDAGMAQGAioDMC0GA1UdHwQmMCQwIqAgoB6GHGh0dHA6Ly9jYS5z
b21lY2EtaW5jLmNvbS9jcmwwDQYJKoZIhvcNAQELBQADggIBADfUfchD7WF8PrrK
BXlLzz/edFFo7cgKVcwXrL3U3GqbAb9DLpcH4tcnJxLQS8LlHlGrF1YYhUwmgyLK
HTtetXXufwIJJ8beFLTmyKFULXrjEhd1pu064dDZGGZxrUmYvyckuD7aHZ4FMlnD
stLjMp7yGwwtAKwsy+vgcAr1aM7f4HvGhYGzaSs4KPnbZi9fGuWHG2JC3+Qv/m+M
SBzPzA97vlBFAnEAq2WnbDeirt7XF7npkaXE7lGzDtbW8lT1FdXSjQwWXgQS1jHn
pyDghJUvkUukpzwWAqh0Gz7g6XpG7QjjpuBgcaDA2EaW0ZVBonzwnK9QzezDyutt
6Kg1AvQFleDZBWgo7/2W5vYQgcwSk/f9eTGzjl7vAMCM4nPt5a5bTC7rnIjqNdFJ
AuPSNmUOFm4SVdjaCmdZeNAV2bDdD1xEMcgUukRJiu9Uj9aEl6aDxU14Fd7dp9oR
mnAUBctL166g+rT2z7V8bok4eUx/dWkRmQK+Lr/m0HW6wBF+RtfojLZ1kkN56MLC
JYoaLFg+vgH5osRiwTLk3M0BaOn8yBLCPctzUIDXd/mX9sb3Q9KkAZJrWPXazKic
ilifQ5Tskm8RFJAtWmWdMJfqhAKEEfRdTVXgiosaA2aN6KwZEMCciPm/9WaBF10K
9QmMepBroL9m/rJhNI5ihjGKV5OU
-----END CERTIFICATE-----
