Certificate:
    Data:
        Version: 3 (0x2)
        Serial Number:
            7c:4d:02:68:da:5b:7e:75:ef:be:83:ee:6d:9f:d4:97
        Signature Algorithm: sha256WithRSAEncryption
        Issuer: C = US, O = Some CA Inc., CN = Fake CA for zlint testing
        Validity
            Not Before: Sep  1 00:00:00 2022 GMT
            Not After : Sep  1 00:00:00 2023 GMT
        Subject: C = IT, L = Nowhere, O = Some Company Ltd., OU = Some Department, CN = example.com
        Subject Public Key Info:
            Public Key Algorithm: rsaEncryption
                RSA Public-Key: (4096 bit)
                Modulus:
                    00:ef:fa:f4:a7:7b:3a:ee:d6:25:e9:b2:f3:11:01:
                    61:59:c3:e5:bd:39:0b:a0:23:82:c5:79:1b:be:32:
                    89:f4:02:4c:1f:4f:95:ea:1f:96:48:18:9c:aa:dc:
                    d5:fe:3a:62:1f:64:98:00:b2:d1:d2:a1:b2:3f:72:
                    4e:25:01:03:f7:b0:e8:13:9f:0c:70:77:67:50:fa:
                    9c:3c:59:24:a8:8c:e4:b3:d4:c0:39:0a:0e:7c:cd:
                    f8:18:3f:d7:f9:57:1f:fb:93:50:a0:9a:ca:5e:a0:
                    da:9b:1a:18:53:c9:c7:24:53:87:69:ed:37:49:13:
                    e1:49:0e:e6:57:e0:45:52:62:64:36:88:71:e6:7a:
                    db:45:cb:92:56:d1:36:2f:a8:fc:10:81:f6:bd:76:
                    c7:e3:28:5f:a1:83:6a:e2:4a:1a:68:30:f6:86:21:
                    27:e9:d5:a0:3a:8d:ad:d1:9b:cd:58:0a:ae:e4:b6:
                    01:68:d2:b7:9e:d9:75:e6:af:da:54:fc:b5:5d:12:
                    23:83:43:e6:e1:97:2a:b6:3f:51:dc:42:b6:70:cf:
                    1e:2a:a6:91:da:73:75:2f:9d:e1:a8:06:59:38:d4:
                    97:f5:47:84:47:ac:db:ef:11:ca:c4:09:8d:50:d5:
                    14:53:ab:95:f9:55:fa:48:8d:47:08:a3:de:3a:cb:
                    69:50:96:5a:2d:ab:29:54:ed:c1:e2:73:74:59:cd:
                    67:c2:f6:93:18:0f:2a:54:29:cb:2c:a4:e3:26:84:
                    a1:c2:bd:47:d7:9b:2f:2b:03:ba:4e:50:0b:8e:a5:
                    4b:1a:42:1d:26:63:83:d5:ca:a2:d8:d3:3f:3a:e7:
                    09:9c:50:60:42:0d:fa:d6:8b:4c:34:fe:83:02:c2:
                    90:1f:c1:3e:4d:63:17:64:b6:fd:de:f5:07:5e:0e:
                    50:9b:09:2d:de:6b:3d:62:53:71:95:3d:0f:b5:17:
                    27:d4:7e:05:19:5e:97:ff:2f:6f:a4:c6:93:4b:84:
                    e7:93:70:8e:57:f0:a2:b8:74:b0:3e:c4:00:ec:7b:
                    d7:4a:35:b8:3c:97:98:24:8d:2e:b5:fa:95:5c:28:
                    fb:c2:f9:8d:66:5a:71:20:f2:e0:7f:6c:07:76:6d:
                    e4:f0:f2:30:61:79:40:97:47:96:8d:5d:0b:7d:c7:
                    7c:5d:d1:e4:45:b5:7c:c1:96:5a:5e:00:8f:61:83:
                    d4:c8:d4:83:b5:57:87:78:0c:fc:d7:6c:e3:fa:1e:
                    a5:40:b5:ad:d4:07:b4:ff:dc:c3:56:fb:46:a2:d7:
                    14:c5:4d:4d:12:2f:d4:2c:b8:17:1d:c4:64:17:79:
                    43:37:22:27:36:ef:75:f3:d8:84:40:66:b4:b0:14:
                    bd:4e:79
                Exponent: 65537 (0x10001)
        X509v3 extensions:
            X509v3 Key Usage: critical
                Digital Signature, Key Encipherment
            X509v3 Extended Key Usage: 
                TLS Web Client Authentication, TLS Web Server Authentication
            X509v3 Subject Key Identifier: 
                11:AC:EF:42:3F:45:91:1C:87:B8:5D:C1:F8:2E:1C:0E:0A:51:09:35
            X509v3 Authority Key Identifier: 
                keyid:E8:B6:F6:76:4B:D0:3B:E5:46:A5:F9:54:D4:7E:07:B3:DE:0D:60:3E

            Authority Information Access: 
                OCSP - URI:http://ca.someca-inc.com/ocsp
                CA Issuers - URI:http://ca.someca-inc.com/root

            X509v3 Subject Alternative Name: 
                DNS:example.com
            X509v3 Certificate Policies: 
                Policy: 1.2.3

            X509v3 CRL Distribution Points: 

                Full Name:
                  URI:http://ca.someca-inc.com/crl

    Signature Algorithm: sha256WithRSAEncryption
         06:d4:a3:a7:c4:7e:f8:64:ed:0a:1e:76:0d:9f:51:a2:42:b1:
         40:05:25:a7:50:e6:16:ac:b6:02:45:e0:af:bf:89:6e:f5:4c:
         ed:ca:d3:0b:ff:ff:bd:87:49:92:7a:44:91:4d:3f:5d:a9:85:
         29:41:72:9b:e5:ee:c5:13:b4:1d:75:f4:98:e2:a8:db:68:35:
         8f:5f:ab:91:3a:d8:58:1d:6a:9b:a7:bb:8d:02:9c:fc:69:57:
         87:05:1f:29:3f:b7:1d:14:2a:c3:79:16:25:88:d2:90:8c:98:
         25:df:7b:b3:18:d7:70:08:2e:91:05:42:6b:e3:0a:87:27:18:
         17:97:be:47:54:02:89:85:6b:02:b6:c2:83:94:fd:31:79:e1:
         99:7b:6e:86:b3:b4:51:68:c0:cc:f0:df:41:5b:13:7c:1e:9e:
         3f:62:b5:03:c9:fe:62:8d:b5:92:b5:41:ba:a2:80:91:fc:e8:
         5c:22:93:bc:23:63:c1:ac:95:27:98:c3:f9:e2:6a:54:fd:d1:
         40:87:d7:20:ad:f5:b0:94:98:7c:00:e1:bd:9a:51:42:61:50:
         a0:c8:14:1d:27:10:97:5a:6b:2c:fc:1c:86:2a:41:dd:be:fc:
         31:40:61:60:a9:ab:65:96:96:ef:f5:98:52:0c:9d:f9:7d:ea:
         c0:8a:bb:f8:fb:be:aa:ec:a5:80:04:9e:2e:5d:05:17:73:e2:
         f8:c4:eb:59:5f:df:13:20:07:47:48:45:b8:5d:bf:a0:27:68:
         37:52:1a:71:cf:90:b1:0b:6c:40:df:c2:26:d9:fc:29:04:c0:
         77:6c:a4:08:a1:f9:b8:30:05:60:57:20:23:52:fd:99:eb:9b:
         1d:b4:7b:08:1b:ec:0a:8d:53:7b:94:92:b2:f8:e6:15:89:17:
         f2:81:26:de:06:a5:ba:e4:5b:22:74:00:76:5a:c6:0d:f0:27:
         61:65:f4:33:f0:b7:11:b3:bd:39:3e:56:d3:44:ac:d4:1e:6a:
         ed:c6:4f:cd:9c:09:c6:3d:05:6b:88:2a:66:2a:24:26:43:33:
         e4:7f:76:b3:f0:bb:56:16:a0:f4:10:84:fc:2a:29:0a:d0:89:
         f2:8c:41:1d:35:d7:0c:8e:5f:ee:39:72:73:fa:39:9d:2e:73:
         50:96:13:d2:ef:f9:6b:74:ff:5c:6a:b3:d9:fb:74:bd:e5:38:
         67:1d:8c:2e:3f:04:82:ec:75:65:8a:04:41:b2:d1:23:d1:17:
         1c:6f:de:4b:c6:40:bd:42:4f:14:d2:95:4d:9c:ba:4f:aa:d2:
         d9:09:31:a0:27:ff:25:d4:3b:cc:c5:cc:87:c8:44:30:98:c1:
         f1:91:12:34:42:95:4d:a3
-----BEGIN CERTIFICATE-----
MIIGcDCCBFigAwIBAgIQfE0CaNpbfnXvvoPubZ/UlzANBgkqhkiG9w0BAQsFADBI
MQswCQYDVQQGEwJVUzEVMBMGA1UEChMMU29tZSBDQSBJbmMuMSIwIAYDVQQDExlG
YWtlIENBIGZvciB6bGludCB0ZXN0aW5nMB4XDTIyMDkwMTAwMDAwMFoXDTIzMDkw
MTAwMDAwMFowazELMAkGA1UEBhMCSVQxEDAOBgNVBAcTB05vd2hlcmUxGjAYBgNV
BAoTEVNvbWUgQ29tcGFueSBMdGQuMRgwFgYDVQQLEw9Tb21lIERlcGFydG1lbnQx
FDASBgNVBAMTC2V4YW1wbGUuY29tMIICIjANBgkqhkiG9w0BAQEFAAOCAg8AMIIC
CgKCAgEA7/r0p3s67tYl6bLzEQFhWcPlvTkLoCOCxXkbvjKJ9AJMH0+V6h+WSBic
qtzV/jpiH2SYALLR0qGyP3JOJQED97DoE58McHdnUPqcPFkkqIzks9TAOQoOfM34
GD/X+Vcf+5NQoJrKXqDamxoYU8nHJFOHae03SRPhSQ7mV+BFUmJkNohx5nrbRcuS
VtE2L6j8EIH2vXbH4yhfoYNq4koaaDD2hiEn6dWgOo2t0ZvNWAqu5LYBaNK3ntl1
5q/aVPy1XRIjg0Pm4Zcqtj9R3EK2cM8eKqaR2nN1L53hqAZZONSX9UeER6zb7xHK
xAmNUNUUU6uV+VX6SI1HCKPeOstpUJZaLaspVO3B4nN0Wc1nwvaTGA8qVCnLLKTj
JoShwr1H15svKwO6TlALjqVLGkIdJmOD1cqi2NM/OucJnFBgQg361otMNP6DAsKQ
H8E+TWMXZLb93vUHXg5Qmwkt3ms9YlNxlT0PtRcn1H4FGV6X/y9vpMaTS4Tnk3CO
V/CiuHSwPsQA7HvXSjW4PJeYJI0utfqVXCj7wvmNZlpxIPLgf2wHdm3k8PIwYXlA
l0eWjV0Lfcd8XdHkRbV8wZZaXgCPYYPUyNSDtVeHeAz812zj+h6lQLWt1Ae0/9zD
VvtGotcUxU1NEi/ULLgXHcRkF3lDNyInNu9189iEQGa0sBS9TnkCAwEAAaOCATEw
ggEtMA4GA1UdDwEB/wQEAwIFoDAdBgNVHSUEFjAUBggrBgEFBQcDAgYIKwYBBQUH
AwEwHQYDVR0OBBYEFBGs70I/RZEch7hdwfguHA4KUQk1MB8GA1UdIwQYMBaAFOi2
9nZL0DvlRqX5VNR+B7PeDWA+MGQGCCsGAQUFBwEBBFgwVjApBggrBgEFBQcwAYYd
aHR0cDovL2NhLnNvbWVjYS1pbmMuY29tL29jc3AwKQYIKwYBBQUHMAKGHWh0dHA6
Ly9jYS5zb21lY2EtaW5jLmNvbS9yb290MBYGA1UdEQQPMA2CC2V4YW1wbGUuY29t
MA8GA1UdIAQIMAYwBAYCKgMwLQYDVR0fBCYwJDAioCCgHoYcaHR0cDovL2NhLnNv
bWVjYS1pbmMuY29tL2NybDANBgkqhkiG9w0BAQsFAAOCAgEABtSjp8R++GTtCh52
DZ9RokKxQAUlp1DmFqy2AkXgr7+JbvVM7crTC///vYdJknpEkU0/XamFKUFym+Xu
xRO0HXX0mOKo22g1j1+rkTrYWB1qm6e7jQKc/GlXhwUfKT+3HRQqw3kWJYjSkIyY
Jd97sxjXcAgukQVCa+MKhycYF5e+R1QCiYVrArbCg5T9MXnhmXtuhrO0UWjAzPDf
QVsTfB6eP2K1A8n+Yo21krVBuqKAkfzoXCKTvCNjwayVJ5jD+eJqVP3RQIfXIK31
sJSYfADhvZpRQmFQoMgUHScQl1prLPwchipB3b78MUBhYKmrZZaW7/WYUgyd+X3q
wIq7+Pu+quylgASeLl0FF3Pi+MTrWV/fEyAHR0hFuF2/oCdoN1Iacc+QsQtsQN/C
Jtn8KQTAd2ykCKH5uDAFYFcgI1L9meubHbR7CBvsCo1Te5SSsvjmFYkX8oEm3gal
uuRbInQAdlrGDfAnYWX0M/C3EbO9OT5W00Ss1B5q7cZPzZwJxj0Fa4gqZiokJkMz
5H92s/C7Vhag9BCE/CopCtCJ8oxBHTXXDI5f7jlyc/o5nS5zUJYT0u/5a3T/XGqz
2ft0veU4Zx2MLj8Egux1ZYoEQbLRI9EXHG/eS8ZAvUJPFNKVTZy6T6rS2QkxoCf/
JdQ7zMXMh8hEMJjB8ZESNEKVTaM=
-----END CERTIFICATE-----
