Certificate:
    Data:
        Version: 3 (0x2)
        Serial Number:
            b4:46:c4:b3:ce:86:d6:20:9e:21:34:ab:26:72:da:f2
        Signature Algorithm: sha256WithRSAEncryption
        Issuer: C = US, O = Some CA Inc., CN = Fake CA for zlint testing
        Validity
            Not Before: Sep  2 00:00:00 2022 GMT
            Not After : Sep  2 00:00:00 2023 GMT
        Subject: C = IT, L = Nowhere, O = Some Company Ltd., CN = example.com
        Subject Public Key Info:
            Public Key Algorithm: rsaEncryption
                RSA Public-Key: (4096 bit)
                Modulus:
                    00:f6:59:aa:ac:6f:21:24:ca:00:ef:dc:88:bb:3a:
                    a4:e0:02:b0:a1:78:7b:3b:08:d7:fa:fd:54:01:43:
                    f3:f7:8b:41:57:77:06:81:4e:2b:94:c0:3c:f5:7d:
                    cb:8b:fe:79:4e:d9:ef:7d:88:b8:28:49:80:0a:ae:
                    da:98:a7:4c:21:9c:4b:fa:bc:6a:20:5f:d6:2d:0e:
                    c7:07:3c:5b:2b:f8:1b:08:ee:e4:1e:eb:67:a3:eb:
                    fb:14:54:01:14:7b:9b:f6:56:92:06:35:eb:55:7f:
                    ca:67:e1:a4:9f:3d:91:75:e4:de:15:d5:8f:0d:7a:
                    96:7f:7b:2d:ab:b3:99:e8:70:d2:fa:68:be:a8:24:
                    bb:79:70:59:85:2e:37:7c:49:de:c3:0d:25:42:24:
                    b5:9c:01:93:d2:a0:2e:5f:93:6c:3b:b1:1d:38:e4:
                    7d:8b:c6:8a:7d:9c:b7:2c:54:e3:6d:d4:19:a3:53:
                    e8:5e:3b:7f:ae:81:8d:84:6b:12:7a:ec:38:6a:8e:
                    83:11:8e:bb:8e:b0:8d:6d:6e:60:3d:96:d3:0f:21:
                    65:6d:3e:44:07:43:b9:c4:63:3b:5b:ab:dc:e9:5e:
                    6f:18:5a:4a:c3:e9:99:9f:3f:f2:cb:a8:91:d5:73:
                    98:6d:b4:4d:75:82:95:fb:9c:75:d6:13:c5:0e:39:
                    dd:ce:fb:07:65:10:fa:9a:54:df:01:f8:c7:13:08:
                    8d:cf:41:b5:af:38:5f:ce:48:ec:30:88:c4:e6:a9:
                    f0:0a:2b:57:47:8a:50:47:b6:3d:ab:3b:96:37:ed:
                    75:c9:d0:b5:18:5d:45:27:06:52:8b:79:1a:d7:b2:
                    01:ee:e5:3b:09:f7:db:29:d7:50:a9:cd:bc:12:51:
                    4e:e0:60:14:7e:6c:55:ae:d6:8e:1a:76:40:a7:41:
                    7e:dc:77:52:59:db:51:92:2b:fc:98:f8:4e:03:99:
                    86:fc:a7:83:63:f6:f9:af:cb:0e:2e:e7:ed:7d:20:
                    50:a2:19:7d:05:54:19:87:a8:02:c7:22:eb:92:17:
                    8f:e8:27:b5:3d:95:c5:7a:fe:f9:17:58:05:50:16:
                    06:4d:dc:bb:dd:1c:57:bb:8c:8e:96:bc:d0:68:ba:
                    45:07:f7:eb:65:85:b0:83:9b:ed:04:dc:e2:7d:22:
                    cc:c6:cf:fd:dc:d5:f2:ff:70:49:25:c7:c4:20:c1:
                    32:35:b1:6e:3a:a7:fd:15:d6:74:3e:64:f0:4a:e9:
                    a3:12:05:4f:69:57:58:52:5f:23:9e:c8:d2:47:92:
                    57:90:3b:4c:a4:c0:17:3a:d6:45:1a:cf:2c:73:a7:
                    ec:6a:67:8f:3c:24:4a:03:07:97:ba:6e:a4:57:46:
                    f4:07:c3
                Exponent: 65537 (0x10001)
        X509v3 extensions:
            X509v3 Key Usage: critical
                Digital Signature, Key Encipherment
            X509v3 Extended Key Usage: 
                TLS Web Client Authentication, TLS Web Server Authentication
            X509v3 Subject Key Identifier: 
                34:20:67:3A:A2:F6:19:6D:33:BF:61:F2:FE:04:26:EC:85:11:34:77
            X509v3 Authority Key Identifier: 
                keyid:E8:B6:F6:76:4B:D0:3B:E5:46:A5:F9:54:D4:7E:07:B3:DE:0D:60:3E

            Authority Information Access: 
                OCSP - URI:http://ca.someca-inc.com/ocsp
                CA Issuers - URI:http://ca.someca-inc.com/root

            X509v3 Subject Alternative Name: 
                DNS:example.com
            X509v3 Certificate Policies: 
                Policy: 1.2.3

            X509v3 CRL Distribution Points: 

                Full Name:
                  URI:http://ca.someca-inc.com/crl

    Signature Algorithm: sha256WithRSAEncryption
         26:42:8a:ac:f9:19:2c:df:9d:40:25:3d:ed:68:82:4e:20:99:
         c6:bd:a2:0a:bc:92:ab:92:35:22:ab:86:bc:77:73:ab:81:37:
         00:3a:e5:91:a0:18:79:19:72:30:32:67:7c:79:c2:08:cf:f0:
         a7:6c:e3:a5:4e:5a:9b:d9:9c:2a:5a:60:5e:2f:b1:b7:3c:7a:
         ee:29:bf:91:4e:1a:34:bb:67:0b:83:e0:7e:ed:cf:e4:19:58:
         e0:e4:ef:b2:a0:64:9f:6f:49:ce:81:20:93:25:5a:28:a7:e8:
         6e:02:a0:db:f1:ea:bf:57:47:c5:e1:54:1c:b7:b2:92:a7:17:
         ef:01:e1:f8:13:d6:1e:22:a9:e4:ea:d2:ff:fb:29:72:06:37:
         f8:c0:81:68:99:60:d5:2e:f2:29:40:7e:66:3d:3c:15:fc:a5:
         b4:bb:c6:04:07:54:b0:6d:e8:fa:20:03:24:bd:4a:e9:5c:d0:
         14:45:5e:94:b4:4a:ae:e1:9b:4e:79:c1:79:96:cf:59:c4:c7:
         12:62:5c:b5:41:ee:af:af:a0:79:af:41:9f:f6:4a:56:4c:6f:
         62:35:ca:69:c7:e0:ed:43:bb:98:fd:b7:5e:8f:f3:80:79:8e:
         28:8e:4e:bd:83:cd:e7:c7:50:f8:47:d1:de:03:4f:56:c2:9f:
         35:d3:cb:13:32:9e:9b:be:37:d8:8f:78:e7:a6:0d:ef:cd:8b:
         7f:49:9d:e3:90:b4:08:2b:8f:11:83:20:ea:a4:c6:24:7b:25:
         33:ab:01:52:7d:32:c7:6c:fa:9e:99:ae:ca:51:af:ab:0f:56:
         85:b0:7f:40:16:fa:b8:b1:1f:7f:df:9a:8f:fd:22:b7:13:4b:
         2b:2f:e7:a3:69:48:ae:2f:42:ab:e1:37:58:30:46:61:42:94:
         ae:e7:6b:50:c0:a1:a1:c3:fd:a3:56:8f:bc:7f:a9:8f:0a:f3:
         0f:ca:37:60:f9:8e:d9:52:5b:6e:a1:84:8a:87:a8:11:43:50:
         01:f5:e9:53:c5:40:c6:fa:70:bb:3e:79:db:b0:01:09:4f:cc:
         80:84:02:39:72:a2:2e:ca:fd:77:4e:d2:d3:4e:73:70:41:52:
         eb:32:5f:52:3e:9d:54:b9:2e:8b:85:31:5c:60:e3:8a:02:b6:
         77:e4:4c:9e:d4:04:ad:d2:c7:95:db:3d:ed:11:8e:2e:98:21:
         01:2c:69:8b:46:61:f3:ab:bb:67:6f:1a:a9:b1:c5:af:b1:37:
         08:0e:7e:c1:b8:69:03:25:8b:2c:60:4a:40:a3:0d:3c:3c:b5:
         8e:4f:bf:f9:a6:88:13:b5:17:94:24:f7:50:4c:7e:88:47:ca:
         64:6f:46:8c:71:c1:4e:d0
-----BEGIN CERTIFICATE-----
MIIGVzCCBD+gAwIBAgIRALRGxLPOhtYgniE0qyZy2vIwDQYJKoZIhvcNAQELBQAw
SDELMAkGA1UEBhMCVVMxFTATBgNVBAoTDFNvbWUgQ0EgSW5jLjEiMCAGA1UEAxMZ
RmFrZSBDQSBmb3IgemxpbnQgdGVzdGluZzAeFw0yMjA5MDIwMDAwMDBaFw0yMzA5
MDIwMDAwMDBaMFExCzAJBgNVBAYTAklUMRAwDgYDVQQHEwdOb3doZXJlMRowGAYD
VQQKExFTb21lIENvbXBhbnkgTHRkLjEUMBIGA1UEAxMLZXhhbXBsZS5jb20wggIi
MA0GCSqGSIb3DQEBAQUAA4ICDwAwggIKAoICAQD2WaqsbyEkygDv3Ii7OqTgArCh
eHs7CNf6/VQBQ/P3i0FXdwaBTiuUwDz1fcuL/nlO2e99iLgoSYAKrtqYp0whnEv6
vGogX9YtDscHPFsr+BsI7uQe62ej6/sUVAEUe5v2VpIGNetVf8pn4aSfPZF15N4V
1Y8NepZ/ey2rs5nocNL6aL6oJLt5cFmFLjd8Sd7DDSVCJLWcAZPSoC5fk2w7sR04
5H2Lxop9nLcsVONt1BmjU+heO3+ugY2EaxJ67DhqjoMRjruOsI1tbmA9ltMPIWVt
PkQHQ7nEYztbq9zpXm8YWkrD6ZmfP/LLqJHVc5httE11gpX7nHXWE8UOOd3O+wdl
EPqaVN8B+McTCI3PQbWvOF/OSOwwiMTmqfAKK1dHilBHtj2rO5Y37XXJ0LUYXUUn
BlKLeRrXsgHu5TsJ99sp11CpzbwSUU7gYBR+bFWu1o4adkCnQX7cd1JZ21GSK/yY
+E4DmYb8p4Nj9vmvyw4u5+19IFCiGX0FVBmHqALHIuuSF4/oJ7U9lcV6/vkXWAVQ
FgZN3LvdHFe7jI6WvNBoukUH9+tlhbCDm+0E3OJ9IszGz/3c1fL/cEklx8QgwTI1
sW46p/0V1nQ+ZPBK6aMSBU9pV1hSXyOeyNJHkleQO0ykwBc61kUazyxzp+xqZ488
JEoDB5e6bqRXRvQHwwIDAQABo4IBMTCCAS0wDgYDVR0PAQH/BAQDAgWgMB0GA1Ud
JQQWMBQGCCsGAQUFBwMCBggrBgEFBQcDATAdBgNVHQ4EFgQUNCBnOqL2GW0zv2Hy
/gQm7IURNHcwHwYDVR0jBBgwFoAU6Lb2dkvQO+VGpflU1H4Hs94NYD4wZAYIKwYB
BQUHAQEEWDBWMCkGCCsGAQUFBzABhh1odHRwOi8vY2Euc29tZWNhLWluYy5jb20v
b2NzcDApBggrBgEFBQcwAoYdaHR0cDovL2NhLnNvbWVjYS1pbmMuY29tL3Jvb3Qw
FgYDVR0RBA8wDYILZXhhbXBsZS5jb20wDwYDVR0gBAgwBjAEBgIqAzAtBgNVHR8E
JjAkMCKgIKAehhxodHRwOi8vY2Euc29tZWNhLWluYy5jb20vY3JsMA0GCSqGSIb3
DQEBCwUAA4ICAQAmQoqs+Rks351AJT3taIJOIJnGvaIKvJKrkjUiq4a8d3OrgTcA
OuWRoBh5GXIwMmd8ecIIz/CnbOOlTlqb2ZwqWmBeL7G3PHruKb+RTho0u2cLg+B+
7c/kGVjg5O+yoGSfb0nOgSCTJVoop+huAqDb8eq/V0fF4VQct7KSpxfvAeH4E9Ye
Iqnk6tL/+ylyBjf4wIFomWDVLvIpQH5mPTwV/KW0u8YEB1Swbej6IAMkvUrpXNAU
RV6UtEqu4ZtOecF5ls9ZxMcSYly1Qe6vr6B5r0Gf9kpWTG9iNcppx+DtQ7uY/bde
j/OAeY4ojk69g83nx1D4R9HeA09Wwp8108sTMp6bvjfYj3jnpg3vzYt/SZ3jkLQI
K48RgyDqpMYkeyUzqwFSfTLHbPqema7KUa+rD1aFsH9AFvq4sR9/35qP/SK3E0sr
L+ejaUiuL0Kr4TdYMEZhQpSu52tQwKGhw/2jVo+8f6mPCvMPyjdg+Y7ZUltuoYSK
h6gRQ1AB9elTxUDG+nC7PnnbsAEJT8yAhAI5cqIuyv13TtLTTnNwQVLrMl9SPp1U
uS6LhTFcYOOKArZ35Eye1ASt0seV2z3tEY4umCEBLGmLRmHzq7tnbxqpscWvsTcI
Dn7BuGkDJYssYEpAow08PLWOT7/5pogTtReUJPdQTH6IR8pkb0aMccFO0A==
-----END CERTIFICATE-----
