Certificate:
    Data:
        Version: 3 (0x2)
        Serial Number:
            bf:82:94:0e:35:fb:1e:26:bb:1f:04:22
        Signature Algorithm: ecdsa-with-SHA256
        Issuer: CN = Lint CA, O = Lint, C = DE
        Validity
            Not Before: Sep 15 00:00:00 2023 GMT
            Not After : Sep 15 00:00:00 2024 GMT
        Subject: 
        Subject Public Key Info:
            Public Key Algorithm: id-ecPublicKey
                Public-Key: (256 bit)
                pub:
                    04:08:6a:eb:89:5c:e8:2e:41:1f:55:5a:bb:dc:71:
                    88:83:9d:7b:6a:cb:ea:f3:04:f0:ea:99:b0:32:b8:
                    a9:7b:70:99:0d:f0:82:29:ff:cf:40:49:16:be:72:
                    b6:71:ae:fe:b9:24:ca:18:0c:9d:dc:57:f4:98:db:
                    34:0f:c7:ca:5a
                ASN1 OID: prime256v1
                NIST CURVE: P-256
        X509v3 extensions:
            X509v3 Certificate Policies: 
                Policy: 2.23.140.1.2.1

            Authority Information Access: 
                2.23.140.1.2.1 - URI:http://issuers.example.com/

    Signature Algorithm: ecdsa-with-SHA256
         30:45:02:21:00:fe:95:48:35:22:81:f9:9f:b3:c3:e0:87:c0:
         6a:81:fb:9a:7f:19:85:b7:02:90:af:23:93:0f:ba:e4:8d:a9:
         d3:02:20:62:cc:b4:65:c3:86:4f:86:d5:4b:e1:9a:2c:c3:5f:
         c0:f1:4f:f9:c9:cb:4e:93:2d:0a:5d:f9:8c:2f:58:51:b6
-----BEGIN CERTIFICATE-----
MIIBdzCCAR2gAwIBAgINAL+ClA41+x4mux8EIjAKBggqhkjOPQQDAjAuMRAwDgYD
VQQDDAdMaW50IENBMQ0wCwYDVQQKDARMaW50MQswCQYDVQQGEwJERTAeFw0yMzA5
MTUwMDAwMDBaFw0yNDA5MTUwMDAwMDBaMAAwWTATBgcqhkjOPQIBBggqhkjOPQMB
BwNCAAQIauuJXOguQR9VWrvccYiDnXtqy+rzBPDqmbAyuKl7cJkN8IIp/89ASRa+
crZxrv65JMoYDJ3cV/SY2zQPx8pao04wTDATBgNVHSAEDDAKMAgGBmeBDAECATA1
BggrBgEFBQcBAQQpMCcwJQYGZ4EMAQIBhhtodHRwOi8vaXNzdWVycy5leGFtcGxl
LmNvbS8wCgYIKoZIzj0EAwIDSAAwRQIhAP6VSDUigfmfs8Pgh8BqgfuafxmFtwKQ
ryOTD7rkjanTAiBizLRlw4ZPhtVL4Zosw1/A8U/5yctOky0KXfmML1hRtg==
-----END CERTIFICATE-----
