Certificate:
    Data:
        Version: 3 (0x2)
        Serial Number: 18008675309 (0x4316693ed)
    Signature Algorithm: sha256WithRSAEncryption
        Issuer: C = US, O = Mother Nature, OU = Everything, CN = Mother Nature
        Validity
            Not Before: Jan  1 02:03:04 2015 GMT
            Not After : Dec  1 06:07:08 2017 GMT
        Subject: C = US, O = Extreme Discord, OU = Chaos, L = Tallahassee, ST = FL, street = 3210 Holly Mill Run, postalCode = 30062, CN = gov.us
        Subject Public Key Info:
            Public Key Algorithm: rsaEncryption
                Public-Key: (512 bit)
                Modulus:
                    00:ac:ba:3f:27:2e:33:55:18:fa:f4:a2:ad:9a:57:
                    f0:b6:19:86:d8:87:74:b1:c9:6c:df:38:57:d6:ee:
                    ac:3b:13:e6:e2:bf:72:81:29:d3:7e:56:c4:8d:f7:
                    e8:14:9a:93:51:23:01:a9:46:66:e9:d4:21:2a:3f:
                    e1:97:ba:9e:45
                Exponent: 65537 (0x10001)
        X509v3 extensions:
            X509v3 Key Usage: critical
                Digital Signature, Key Encipherment, Certificate Sign
            X509v3 Extended Key Usage: 
                TLS Web Client Authentication, TLS Web Server Authentication
            X509v3 Basic Constraints: critical
                CA:FALSE
            X509v3 Authority Key Identifier: 
                keyid:01:02:03

            Authority Information Access: 
                OCSP - URI:http://theca.net/ocsp
                CA Issuers - URI:http://theca.net/totallythecert.crt

            X509v3 Certificate Policies: 
                Policy: 2.23.140.1.2.2

            X509v3 Name Constraints: 
                Permitted:
                  IP:192.168.1.1/1.2.3.4

            X509v3 Subject Key Identifier: 
                04:03:02:01
            X509v3 Subject Alternative Name: 
                URI:, DNS:ˬ
            X509v3 Inhibit Any Policy: 
                ..
            Subject Information Access: 
                ..
    Signature Algorithm: sha256WithRSAEncryption
         51:af:37:91:41:17:1a:22:8f:2f:97:57:4a:27:16:b0:70:c5:
         30:3c:87:5a:b6:f4:a3:b0:c2:d7:3f:5d:99:ca:a0:ec:42:5d:
         98:8b:a9:e0:2a:e4:de:ff:d4:4b:85:00:60:15:be:88:99:64:
         a6:cc:55:3b:da:b2:ed:75:cb:0f
-----BEGIN CERTIFICATE-----
MIIDATCCAq2gAwIBAgIFBDFmk+0wCwYJKoZIhvcNAQELMFQxCzAJBgNVBAYTAlVT
MRYwFAYDVQQKEw1Nb3RoZXIgTmF0dXJlMRMwEQYDVQQLEwpFdmVyeXRoaW5nMRYw
FAYDVQQDEw1Nb3RoZXIgTmF0dXJlMQAwHhcNMTUwMTAxMDIwMzA0WhcNMTcxMjAx
MDYwNzA4WjCBmzELMAkGA1UEBhMCVVMxGDAWBgNVBAoTD0V4dHJlbWUgRGlzY29y
ZDEOMAwGA1UECxMFQ2hhb3MxFDASBgNVBAcTC1RhbGxhaGFzc2VlMQswCQYDVQQI
EwJGTDEcMBoGA1UECRMTMzIxMCBIb2xseSBNaWxsIFJ1bjEOMAwGA1UEERMFMzAw
NjIxDzANBgNVBAMTBmdvdi51czEAMFwwDQYJKoZIhvcNAQEBBQADSwAwSAJBAKy6
PycuM1UY+vSirZpX8LYZhtiHdLHJbN84V9burDsT5uK/coEp035WxI336BSak1Ej
AalGZunUISo/4Ze6nkUCAwEAAaOCAR4wggEaMA4GA1UdDwEB/wQEAwIApDAdBgNV
HSUEFjAUBggrBgEFBQcDAgYIKwYBBQUHAwEwDAYDVR0TAQH/BAIwADAOBgNVHSME
BzAFgAMBAgMwYgYIKwYBBQUHAQEEVjBUMCEGCCsGAQUFBzABhhVodHRwOi8vdGhl
Y2EubmV0L29jc3AwLwYIKwYBBQUHMAKGI2h0dHA6Ly90aGVjYS5uZXQvdG90YWxs
eXRoZWNlcnQuY3J0MBMGA1UdIAQMMAowCAYGZ4EMAQICMBcGA1UdHgQQMA6gDDAK
hwjAqAEBAQIDBDANBgNVHQ4EBgQEBAMCATAPBgNVHREECDAGhgCCAsCoMAkGA1Ud
NgQCAgEwDgYIKwYBBQUHAQsEAgIBMAsGCSqGSIb3DQEBCwNBAFGvN5FBFxoijy+X
V0onFrBwxTA8h1q29KOwwtc/XZnKoOxCXZiLqeAq5N7/1EuFAGAVvoiZZKbMVTva
su11yw8=
-----END CERTIFICATE-----
