Certificate:
    Data:
        Version: 3 (0x2)
        Serial Number:
            5b:3a:6c:e6:29:40:99:e2:86:74:81:c1:21:ee:14:12
        Signature Algorithm: sha256WithRSAEncryption
        Issuer: C=XX, O=Some CA, CN=Fake CA for Zlint testing
        Validity
            Not Before: Mar 17 05:39:21 2025 GMT
            Not After : Mar 17 05:39:21 2026 GMT
        Subject: C=AT, ST=Steiermark, L=Graz, O=Institut für Unterhaltung, CN=Institut für Unterhaltung
        Subject Public Key Info:
            Public Key Algorithm: id-ecPublicKey
                Public-Key: (256 bit)
                pub:
                    04:d9:5a:58:3a:61:e5:17:ec:30:97:df:39:63:16:
                    98:43:e2:c5:d2:fe:36:2c:5b:2a:f2:3f:ce:37:64:
                    8a:fa:1e:9b:91:b6:d8:51:43:1c:d9:5f:57:4c:ec:
                    92:6e:d8:6c:3b:75:79:7d:a5:49:94:77:a6:9f:87:
                    45:1c:f3:09:65
                ASN1 OID: prime256v1
                NIST CURVE: P-256
        X509v3 extensions:
            X509v3 Key Usage: critical
                Digital Signature
            X509v3 Extended Key Usage: 
                Code Signing
            X509v3 Subject Key Identifier: 
                6A:50:93:88:93:E0:A6:17:C4:FF:25:01:62:38:BD:28:06:77:61:7C
            X509v3 Authority Key Identifier: 
                E8:B6:F6:76:4B:D0:3B:E5:46:A5:F9:54:D4:7E:07:B3:DE:0D:60:3E
            Authority Information Access: 
                OCSP - URI:http://ca.someca-inc.com/ocsp
                CA Issuers - URI:http://ca.someca-inc.com/root
            X509v3 Certificate Policies: 
                Policy: 2.23.140.1.4.1
            X509v3 CRL Distribution Points: 
                Full Name:
                  URI:http://ca.someca-inc.com/crl
    Signature Algorithm: sha256WithRSAEncryption
    Signature Value:
        3d:23:3d:98:76:39:d7:c3:4b:e9:25:12:38:fc:26:ef:61:90:
        2d:20:d8:5a:bc:6c:ad:45:fe:f0:5f:12:d1:26:88:86:cd:4b:
        35:9b:e6:cf:a8:1a:0e:6c:17:07:2a:15:2f:80:5d:89:0a:4d:
        9b:28:17:13:5c:74:d9:cb:73:7e:6f:5e:0a:fc:97:74:e4:55:
        46:ae:63:d6:80:cc:b1:08:56:6c:7c:15:35:57:c7:30:c3:a8:
        ff:8e:05:10:89:90:a8:e4:69:ef:2c:e9:7f:be:ec:17:fc:12:
        f7:c0:51:15:39:5f:d5:6f:c1:e2:b4:20:39:8f:41:94:3a:39:
        2a:e8:78:fb:0c:48:4c:c5:d7:59:cd:02:6c:a8:d3:4c:1e:63:
        84:6a:cc:2c:5b:9c:6a:9a:11:f0:0f:d1:d6:61:22:f9:78:ad:
        cf:91:80:99:7e:61:95:ee:20:a9:89:14:22:f1:b9:7e:e9:2b:
        27:1b:1c:57:11:df:73:d2:ad:6e:a1:d7:9d:70:84:af:95:da:
        70:89:9f:03:5a:02:3d:a5:c0:f4:02:0b:2c:6f:cb:99:e9:b2:
        8e:2a:6d:2b:90:c7:1e:3c:18:4f:c0:b9:2b:ea:24:1a:47:67:
        af:e5:f7:a4:95:da:c8:83:d8:93:c9:82:c3:af:0e:7e:c3:ea:
        df:88:eb:3b:06:44:f9:73:f1:87:57:83:4f:99:fb:93:b0:11:
        92:ee:1d:93:3f:93:2f:58:6c:09:d8:03:69:6d:9b:46:78:0c:
        90:ca:2c:90:fe:a9:e3:90:a9:01:da:d8:10:0f:11:98:99:07:
        86:15:2a:bb:ec:d9:b8:7d:33:94:5d:2b:7b:70:3d:2f:8f:99:
        10:ab:4d:06:f6:28:32:38:25:6f:b4:29:bc:87:b1:9f:02:c9:
        59:da:e8:08:1d:00:77:9f:da:60:54:3b:ac:d3:4b:3b:97:f7:
        8e:84:6b:85:4f:01:3f:75:ca:b0:d5:b9:c6:29:2d:06:1a:1e:
        26:39:35:a9:ef:8a:69:b7:27:dc:de:62:d3:5c:48:70:9a:0d:
        3d:c3:eb:00:4f:eb:46:7e:68:43:b6:61:98:68:67:77:40:ee:
        99:f5:25:5a:ae:98:be:7d:d1:b4:c7:ec:f3:28:59:e3:97:af:
        52:5c:0a:af:f8:3d:f7:12:ad:e5:10:fd:72:31:1d:fb:75:f1:
        f9:77:18:57:2f:fa:21:bf:05:e8:e5:13:11:e6:0f:ba:a4:8e:
        80:bb:d8:56:cf:64:da:ba:5c:53:1d:80:2b:cc:29:94:f3:6c:
        f7:7f:14:7f:62:a0:c4:02:83:82:34:40:39:e0:9e:67:10:1a:
        0f:0d:5b:1f:26:81:7e:67
-----BEGIN CERTIFICATE-----
MIIEljCCAn6gAwIBAgIQWzps5ilAmeKGdIHBIe4UEjANBgkqhkiG9w0BAQsFADBD
MQswCQYDVQQGEwJYWDEQMA4GA1UEChMHU29tZSBDQTEiMCAGA1UEAxMZRmFrZSBD
QSBmb3IgWmxpbnQgdGVzdGluZzAeFw0yNTAzMTcwNTM5MjFaFw0yNjAzMTcwNTM5
MjFaMH8xCzAJBgNVBAYTAkFUMRMwEQYDVQQIEwpTdGVpZXJtYXJrMQ0wCwYDVQQH
EwRHcmF6MSUwIwYDVQQKDBxJbnN0aXR1dCBmw4PCvHIgVW50ZXJoYWx0dW5nMSUw
IwYDVQQDDBxJbnN0aXR1dCBmw4PCvHIgVW50ZXJoYWx0dW5nMFkwEwYHKoZIzj0C
AQYIKoZIzj0DAQcDQgAE2VpYOmHlF+wwl985YxaYQ+LF0v42LFsq8j/ON2SK+h6b
kbbYUUMc2V9XTOySbthsO3V5faVJlHemn4dFHPMJZaOCARMwggEPMA4GA1UdDwEB
/wQEAwIHgDATBgNVHSUEDDAKBggrBgEFBQcDAzAdBgNVHQ4EFgQUalCTiJPgphfE
/yUBYji9KAZ3YXwwHwYDVR0jBBgwFoAU6Lb2dkvQO+VGpflU1H4Hs94NYD4wZAYI
KwYBBQUHAQEEWDBWMCkGCCsGAQUFBzABhh1odHRwOi8vY2Euc29tZWNhLWluYy5j
b20vb2NzcDApBggrBgEFBQcwAoYdaHR0cDovL2NhLnNvbWVjYS1pbmMuY29tL3Jv
b3QwEwYDVR0gBAwwCjAIBgZngQwBBAEwLQYDVR0fBCYwJDAioCCgHoYcaHR0cDov
L2NhLnNvbWVjYS1pbmMuY29tL2NybDANBgkqhkiG9w0BAQsFAAOCAgEAPSM9mHY5
18NL6SUSOPwm72GQLSDYWrxsrUX+8F8S0SaIhs1LNZvmz6gaDmwXByoVL4BdiQpN
mygXE1x02ctzfm9eCvyXdORVRq5j1oDMsQhWbHwVNVfHMMOo/44FEImQqORp7yzp
f77sF/wS98BRFTlf1W/B4rQgOY9BlDo5Kuh4+wxITMXXWc0CbKjTTB5jhGrMLFuc
apoR8A/R1mEi+Xitz5GAmX5hle4gqYkUIvG5fukrJxscVxHfc9KtbqHXnXCEr5Xa
cImfA1oCPaXA9AILLG/LmemyjiptK5DHHjwYT8C5K+okGkdnr+X3pJXayIPYk8mC
w68OfsPq34jrOwZE+XPxh1eDT5n7k7ARku4dkz+TL1hsCdgDaW2bRngMkMoskP6p
45CpAdrYEA8RmJkHhhUqu+zZuH0zlF0re3A9L4+ZEKtNBvYoMjglb7QpvIexnwLJ
WdroCB0Ad5/aYFQ7rNNLO5f3joRrhU8BP3XKsNW5xiktBhoeJjk1qe+Kabcn3N5i
01xIcJoNPcPrAE/rRn5oQ7ZhmGhnd0DumfUlWq6Yvn3RtMfs8yhZ45evUlwKr/g9
9xKt5RD9cjEd+3Xx+XcYVy/6Ib8F6OUTEeYPuqSOgLvYVs9k2rpcUx2AK8wplPNs
938Uf2KgxAKDgjRAOeCeZxAaDw1bHyaBfmc=
-----END CERTIFICATE-----
