Certificate:
    Data:
        Version: 3 (0x2)
        Serial Number:
            ec:d7:49:84:45:a6:0a:77:00:82:87:d9:13:5c:5b:a5
        Signature Algorithm: sha256WithRSAEncryption
        Issuer: C=XX, O=Some CA, CN=Fake CA for zlint testing
        Validity
            Not Before: Mar 16 17:27:18 2025 GMT
            Not After : Mar 16 17:27:18 2026 GMT
        Subject: C=DE, ST=Baden-Württemberg, L=Balingen, O=Ein Unternehmen GmbH, CN=example.org
        Subject Public Key Info:
            Public Key Algorithm: rsaEncryption
                Public-Key: (2048 bit)
                Modulus:
                    00:cc:3b:0b:9a:4d:85:94:ea:16:c3:0d:14:a6:ba:
                    4c:e7:a7:46:17:f5:a6:b6:2e:87:6a:77:9d:e6:84:
                    d9:73:5c:f2:01:bd:14:85:80:e6:da:ef:dc:9c:0a:
                    c8:9f:a8:78:c4:1e:5d:cd:a8:0f:7d:bf:25:3f:b0:
                    7f:49:64:d8:ba:28:3d:5c:ac:d5:71:b1:41:59:31:
                    a8:60:90:9b:81:7f:e8:ee:5a:8b:03:ef:a8:6a:82:
                    93:2a:fd:4d:36:0e:ee:a4:03:50:38:4a:28:7d:76:
                    14:9e:a4:9a:82:40:25:cb:03:e8:b6:0d:4c:eb:4e:
                    5d:64:38:ec:d8:62:ec:b5:df:dc:9c:18:bf:eb:c8:
                    03:89:ad:53:33:84:04:35:02:4a:f2:45:32:87:e6:
                    6d:8f:6b:ae:d5:d2:e0:61:4d:ab:9f:53:75:11:19:
                    98:44:05:2e:e0:40:5c:c5:69:77:f1:8d:5d:95:fa:
                    df:a3:87:a2:dc:5a:25:5a:2e:1f:16:40:84:bd:77:
                    8b:38:7b:41:c3:6f:8a:84:0c:30:8b:5b:ab:28:03:
                    2e:61:89:7c:f7:8b:78:41:a4:a9:14:22:d1:f6:e1:
                    aa:f5:a3:48:7e:4e:10:c6:b5:34:db:aa:a0:31:4e:
                    11:4f:38:85:91:46:ac:09:40:3d:21:c9:31:fc:f6:
                    27:65
                Exponent: 65537 (0x10001)
        X509v3 extensions:
            X509v3 Key Usage: critical
                Digital Signature, Key Encipherment
            X509v3 Extended Key Usage: 
                TLS Web Client Authentication, TLS Web Server Authentication
            X509v3 Subject Key Identifier: 
                84:74:8D:BD:D8:9F:55:C8:A2:8B:A3:36:B2:24:04:42:75:5B:9C:64
            X509v3 Authority Key Identifier: 
                E8:B6:F6:76:4B:D0:3B:E5:46:A5:F9:54:D4:7E:07:B3:DE:0D:60:3E
            Authority Information Access: 
                OCSP - URI:http://ca.someca-inc.com/ocsp
                CA Issuers - URI:http://ca.someca-inc.com/root
            X509v3 Subject Alternative Name: 
                DNS:example.org
            X509v3 CRL Distribution Points: 
                Full Name:
                  URI:http://ca.someca-inc.com/crl
    Signature Algorithm: sha256WithRSAEncryption
    Signature Value:
        56:13:29:69:11:71:76:63:52:b4:8c:41:dc:46:2a:dd:9a:fc:
        d5:94:70:fa:77:77:27:60:a9:d2:3b:7e:3d:73:03:30:eb:e9:
        a0:ad:f4:4a:ca:68:94:5b:d4:30:e6:a3:6d:75:26:c7:2a:5e:
        24:c5:23:1b:bb:3d:d6:16:b0:93:ea:fe:dd:84:92:dc:22:c7:
        70:a7:b6:1c:36:05:80:13:0c:54:cc:6c:22:6e:8c:42:a9:25:
        38:5d:dd:67:9e:02:17:85:60:b6:0a:af:ee:87:23:0e:e0:fc:
        76:f9:83:c2:97:48:7f:b1:f3:f6:c7:c8:42:58:4a:26:0e:63:
        fa:37:50:e9:8e:a3:bf:46:e3:4e:14:5d:d0:34:00:31:70:71:
        c7:48:46:bb:45:1a:c7:28:ac:79:1e:89:db:c2:73:ea:f5:88:
        b5:26:68:49:51:b7:c0:be:40:7a:ae:36:54:99:b2:d3:73:16:
        35:64:51:c7:74:83:4b:36:88:65:72:16:7c:5a:b8:c4:c5:2e:
        66:da:58:ba:fd:16:ab:d5:cf:2d:c4:1f:c7:86:62:9b:54:36:
        0b:2b:0a:f5:10:4a:f0:a2:e6:2b:96:bb:17:51:7b:15:ba:91:
        e7:6f:0c:21:fb:22:a9:32:2f:fe:3c:92:6c:92:8e:99:54:a6:
        bb:f1:ed:45
-----BEGIN CERTIFICATE-----
MIIEZDCCA0ygAwIBAgIRAOzXSYRFpgp3AIKH2RNcW6UwDQYJKoZIhvcNAQELBQAw
QzELMAkGA1UEBhMCWFgxEDAOBgNVBAoTB1NvbWUgQ0ExIjAgBgNVBAMTGUZha2Ug
Q0EgZm9yIHpsaW50IHRlc3RpbmcwHhcNMjUwMzE2MTcyNzE4WhcNMjYwMzE2MTcy
NzE4WjB0MQswCQYDVQQGEwJERTEdMBsGA1UECAwUQmFkZW4tV8ODwrxydHRlbWJl
cmcxETAPBgNVBAcTCEJhbGluZ2VuMR0wGwYDVQQKExRFaW4gVW50ZXJuZWhtZW4g
R21iSDEUMBIGA1UEAxMLZXhhbXBsZS5vcmcwggEiMA0GCSqGSIb3DQEBAQUAA4IB
DwAwggEKAoIBAQDMOwuaTYWU6hbDDRSmukznp0YX9aa2Lodqd53mhNlzXPIBvRSF
gOba79ycCsifqHjEHl3NqA99vyU/sH9JZNi6KD1crNVxsUFZMahgkJuBf+juWosD
76hqgpMq/U02Du6kA1A4Sih9dhSepJqCQCXLA+i2DUzrTl1kOOzYYuy139ycGL/r
yAOJrVMzhAQ1AkryRTKH5m2Pa67V0uBhTaufU3URGZhEBS7gQFzFaXfxjV2V+t+j
h6LcWiVaLh8WQIS9d4s4e0HDb4qEDDCLW6soAy5hiXz3i3hBpKkUItH24ar1o0h+
ThDGtTTbqqAxThFPOIWRRqwJQD0hyTH89idlAgMBAAGjggEgMIIBHDAOBgNVHQ8B
Af8EBAMCBaAwHQYDVR0lBBYwFAYIKwYBBQUHAwIGCCsGAQUFBwMBMB0GA1UdDgQW
BBSEdI292J9VyKKLozayJARCdVucZDAfBgNVHSMEGDAWgBTotvZ2S9A75Ual+VTU
fgez3g1gPjBkBggrBgEFBQcBAQRYMFYwKQYIKwYBBQUHMAGGHWh0dHA6Ly9jYS5z
b21lY2EtaW5jLmNvbS9vY3NwMCkGCCsGAQUFBzAChh1odHRwOi8vY2Euc29tZWNh
LWluYy5jb20vcm9vdDAWBgNVHREEDzANggtleGFtcGxlLm9yZzAtBgNVHR8EJjAk
MCKgIKAehhxodHRwOi8vY2Euc29tZWNhLWluYy5jb20vY3JsMA0GCSqGSIb3DQEB
CwUAA4IBAQBWEylpEXF2Y1K0jEHcRirdmvzVlHD6d3cnYKnSO349cwMw6+mgrfRK
ymiUW9Qw5qNtdSbHKl4kxSMbuz3WFrCT6v7dhJLcIsdwp7YcNgWAEwxUzGwiboxC
qSU4Xd1nngIXhWC2Cq/uhyMO4Px2+YPCl0h/sfP2x8hCWEomDmP6N1DpjqO/RuNO
FF3QNAAxcHHHSEa7RRrHKKx5HonbwnPq9Yi1JmhJUbfAvkB6rjZUmbLTcxY1ZFHH
dINLNohlchZ8WrjExS5m2li6/Rar1c8txB/HhmKbVDYLKwr1EErwouYrlrsXUXsV
upHnbwwh+yKpMi/+PJJsko6ZVKa78e1F
-----END CERTIFICATE-----
