Certificate:
    Data:
        Version: 3 (0x2)
        Serial Number:
            48:ff:9e:8f:5a:4f:5f:b7:34:5d:0f:87:a3:e3:da:ee
        Signature Algorithm: sha256WithRSAEncryption
        Issuer: C=XX, O=Some CA, CN=Fake CA for Zlint testing
        Validity
            Not Before: Mar 16 17:51:15 2025 GMT
            Not After : Mar 16 17:51:15 2026 GMT
        Subject: C=BR, ST=Bahia, L=Juazeiro, CN=João Gilberto, GN=João, SN=Gilberto
        Subject Public Key Info:
            Public Key Algorithm: rsaEncryption
                Public-Key: (2048 bit)
                Modulus:
                    00:a6:35:6e:47:a5:43:b5:89:d7:47:91:17:b2:ac:
                    a3:0e:7a:62:eb:e0:f1:cd:51:d0:5d:81:32:11:5b:
                    0e:2e:ba:80:d8:2d:77:ed:62:85:ed:9d:89:3c:e8:
                    90:30:64:fa:fd:fe:90:48:a7:14:30:51:5f:78:53:
                    cb:00:a0:f7:66:a6:ae:1f:0b:8e:34:ab:99:5b:55:
                    0d:6e:23:85:e2:59:aa:55:99:7e:b0:68:32:b6:a3:
                    96:49:6a:0c:6c:e0:4a:0f:19:6f:22:1a:80:fc:fc:
                    0b:d5:68:58:dd:50:49:4a:91:a4:5e:51:72:e6:81:
                    e5:13:ea:75:2b:57:84:d0:a4:65:2c:a5:d0:99:f3:
                    c4:16:84:49:08:35:af:9f:2a:3a:7a:5d:e1:d4:00:
                    88:13:a2:ca:37:5e:14:a2:bc:3e:ea:7a:ca:c8:28:
                    3c:b5:aa:0f:59:42:cd:05:94:8f:51:de:63:d9:17:
                    5e:6b:3d:81:78:54:1c:de:5b:2e:6d:96:bd:e2:85:
                    a7:da:3e:e1:b0:02:ba:e5:d3:ea:12:e2:71:b5:6a:
                    be:8f:b8:4c:40:4c:16:81:37:86:35:85:4b:ed:5f:
                    26:5a:65:fd:ef:f2:30:9c:a2:e5:f0:b7:09:2d:99:
                    9a:0a:61:7a:0b:9b:5b:5a:f3:16:cb:58:35:bf:9b:
                    9a:c9
                Exponent: 65537 (0x10001)
        X509v3 extensions:
            X509v3 Key Usage: critical
                Digital Signature, Key Encipherment
            X509v3 Extended Key Usage: 
                TLS Web Client Authentication, E-mail Protection
            X509v3 Subject Key Identifier: 
                D4:02:48:63:CD:49:01:26:6A:3B:0F:27:54:DF:A1:3B:E8:F5:DF:14
            X509v3 Authority Key Identifier: 
                E8:B6:F6:76:4B:D0:3B:E5:46:A5:F9:54:D4:7E:07:B3:DE:0D:60:3E
            Authority Information Access: 
                OCSP - URI:http://ca.someca-inc.com/ocsp
                CA Issuers - URI:http://ca.someca-inc.com/root
            X509v3 Subject Alternative Name: 
                email:joao.gilberto@example.org
            X509v3 Certificate Policies: 
                Policy: 2.23.140.1.5.4.1
            X509v3 CRL Distribution Points: 
                Full Name:
                  URI:http://ca.someca-inc.com/crl
    Signature Algorithm: sha256WithRSAEncryption
    Signature Value:
        12:46:a4:b1:4f:8f:a8:a0:6d:07:3f:15:94:de:41:08:0e:24:
        3d:de:05:c4:fc:42:5e:30:a6:1c:80:00:4f:eb:cc:e4:c4:3a:
        25:19:6e:ec:37:e9:e9:ce:69:69:a5:38:74:94:f5:6e:b6:24:
        b0:c6:db:6e:63:d0:e9:97:12:22:14:f7:1c:5f:91:0b:b0:78:
        88:d3:37:40:77:57:2b:2c:41:76:8c:71:d1:63:e4:a0:26:53:
        0e:f5:1b:5b:0c:a5:cb:ec:ee:c2:a1:75:9f:b5:12:73:49:22:
        ec:83:08:61:d7:7e:f1:bd:1d:4e:b1:0f:d1:8b:93:24:39:74:
        44:97:d9:b7:c7:d3:38:26:10:74:a8:c2:31:59:52:ed:c7:fd:
        42:43:a1:48:a6:2d:d0:6b:f1:2b:4e:28:c5:26:35:00:8a:f0:
        a7:07:8f:7f:91:f5:7a:8b:cb:a5:9f:fe:8f:3f:5a:8c:57:05:
        65:a7:00:4b:44:ac:11:8a:c4:dc:b3:9f:f7:62:27:e7:f3:1a:
        41:94:c3:52:92:20:29:8f:3b:a4:94:da:e6:62:1c:c7:56:d4:
        6f:e0:cc:7b:07:b9:3e:be:22:4f:1d:ff:a4:b3:69:37:85:6d:
        eb:7d:df:cc:00:d3:ad:25:39:fd:32:16:78:7e:98:e3:25:2b:
        3d:98:ad:d0:dc:55:62:5d:de:8c:92:d3:a2:86:1f:ab:0e:a2:
        37:53:06:c5:e1:61:a5:6d:f5:b7:44:1f:aa:e5:62:d3:9b:ef:
        a5:50:3c:05:e1:e4:1e:44:bb:92:ac:60:0e:51:87:85:8c:5d:
        44:6e:fa:e4:8b:53:c1:6f:3f:aa:90:e7:45:4d:1d:4f:a4:c3:
        21:83:fb:cc:c8:b5:4c:08:10:86:89:7e:95:8e:bb:d2:b8:5c:
        86:1d:ed:44:1b:db:10:23:ce:c9:05:c9:a1:ba:82:15:99:47:
        b8:84:06:9b:41:ef:b4:b5:49:6d:87:f1:7d:70:33:3d:9c:b6:
        3d:ca:46:4d:81:cb:c3:86:71:b9:e8:a3:79:2f:9c:96:5b:7d:
        bb:46:fc:bb:74:0f:ea:38:1e:47:13:5e:50:77:3d:0a:93:20:
        38:2a:d1:f3:1c:c9:90:89:ef:c2:8f:5c:6d:ee:fb:a5:04:7a:
        06:8a:a8:27:01:ec:12:ff:fd:9c:13:8a:66:b2:97:5b:b6:a0:
        06:c9:e0:f1:11:3a:af:2f:11:20:42:5c:bb:0a:fa:c3:2d:8a:
        89:d1:dc:18:ea:be:16:99:55:a6:0d:6d:db:62:22:f7:6f:a9:
        58:d6:94:29:30:d0:49:04:15:8e:7f:6e:40:ae:f0:fe:74:9d:
        05:7e:92:f6:43:fe:bf:ea
-----BEGIN CERTIFICATE-----
MIIFgzCCA2ugAwIBAgIQSP+ej1pPX7c0XQ+Ho+Pa7jANBgkqhkiG9w0BAQsFADBD
MQswCQYDVQQGEwJYWDEQMA4GA1UEChMHU29tZSBDQTEiMCAGA1UEAxMZRmFrZSBD
QSBmb3IgWmxpbnQgdGVzdGluZzAeFw0yNTAzMTYxNzUxMTVaFw0yNjAzMTYxNzUx
MTVaMHAxCzAJBgNVBAYTAkJSMQ4wDAYDVQQIEwVCYWhpYTERMA8GA1UEBxMISnVh
emVpcm8xGTAXBgNVBAMMEEpvw4PCo28gR2lsYmVydG8xEDAOBgNVBCoMB0pvw4PC
o28xETAPBgNVBAQTCEdpbGJlcnRvMIIBIjANBgkqhkiG9w0BAQEFAAOCAQ8AMIIB
CgKCAQEApjVuR6VDtYnXR5EXsqyjDnpi6+DxzVHQXYEyEVsOLrqA2C137WKF7Z2J
POiQMGT6/f6QSKcUMFFfeFPLAKD3ZqauHwuONKuZW1UNbiOF4lmqVZl+sGgytqOW
SWoMbOBKDxlvIhqA/PwL1WhY3VBJSpGkXlFy5oHlE+p1K1eE0KRlLKXQmfPEFoRJ
CDWvnyo6el3h1ACIE6LKN14Uorw+6nrKyCg8taoPWULNBZSPUd5j2Rdeaz2BeFQc
3lsubZa94oWn2j7hsAK65dPqEuJxtWq+j7hMQEwWgTeGNYVL7V8mWmX97/IwnKLl
8LcJLZmaCmF6C5tbWvMWy1g1v5uayQIDAQABo4IBRDCCAUAwDgYDVR0PAQH/BAQD
AgWgMB0GA1UdJQQWMBQGCCsGAQUFBwMCBggrBgEFBQcDBDAdBgNVHQ4EFgQU1AJI
Y81JASZqOw8nVN+hO+j13xQwHwYDVR0jBBgwFoAU6Lb2dkvQO+VGpflU1H4Hs94N
YD4wZAYIKwYBBQUHAQEEWDBWMCkGCCsGAQUFBzABhh1odHRwOi8vY2Euc29tZWNh
LWluYy5jb20vb2NzcDApBggrBgEFBQcwAoYdaHR0cDovL2NhLnNvbWVjYS1pbmMu
Y29tL3Jvb3QwJAYDVR0RBB0wG4EZam9hby5naWxiZXJ0b0BleGFtcGxlLm9yZzAU
BgNVHSAEDTALMAkGB2eBDAEFBAEwLQYDVR0fBCYwJDAioCCgHoYcaHR0cDovL2Nh
LnNvbWVjYS1pbmMuY29tL2NybDANBgkqhkiG9w0BAQsFAAOCAgEAEkaksU+PqKBt
Bz8VlN5BCA4kPd4FxPxCXjCmHIAAT+vM5MQ6JRlu7Dfp6c5paaU4dJT1brYksMbb
bmPQ6ZcSIhT3HF+RC7B4iNM3QHdXKyxBdoxx0WPkoCZTDvUbWwyly+zuwqF1n7US
c0ki7IMIYdd+8b0dTrEP0YuTJDl0RJfZt8fTOCYQdKjCMVlS7cf9QkOhSKYt0Gvx
K04oxSY1AIrwpwePf5H1eovLpZ/+jz9ajFcFZacAS0SsEYrE3LOf92In5/MaQZTD
UpIgKY87pJTa5mIcx1bUb+DMewe5Pr4iTx3/pLNpN4Vt633fzADTrSU5/TIWeH6Y
4yUrPZit0NxVYl3ejJLTooYfqw6iN1MGxeFhpW31t0QfquVi05vvpVA8BeHkHkS7
kqxgDlGHhYxdRG765ItTwW8/qpDnRU0dT6TDIYP7zMi1TAgQhol+lY670rhchh3t
RBvbECPOyQXJobqCFZlHuIQGm0HvtLVJbYfxfXAzPZy2PcpGTYHLw4ZxueijeS+c
llt9u0b8u3QP6jgeRxNeUHc9CpMgOCrR8xzJkInvwo9cbe77pQR6BoqoJwHsEv/9
nBOKZrKXW7agBsng8RE6ry8RIEJcuwr6wy2KidHcGOq+FplVpg1t22Ii92+pWNaU
KTDQSQQVjn9uQK7w/nSdBX6S9kP+v+o=
-----END CERTIFICATE-----
