Certificate:
    Data:
        Version: 3 (0x2)
        Serial Number:
            24:9d:53:ee:a7:6a:7c:20:b9:bf:10:47:28:60:ea:4c
        Signature Algorithm: sha256WithRSAEncryption
        Issuer: C=XX, O=Some CA, CN=Fake CA for zlint testing
        Validity
            Not Before: Mar 16 17:18:44 2025 GMT
            Not After : Mar 16 17:18:44 2026 GMT
        Subject: C=SE, ST=Götaland, L=Göteborg, O=Some Company AB, CN=example.org
        Subject Public Key Info:
            Public Key Algorithm: rsaEncryption
                Public-Key: (2048 bit)
                Modulus:
                    00:d3:96:41:c4:06:52:7e:64:3a:71:79:d4:32:42:
                    9a:84:07:ab:8b:d8:07:d9:7f:89:b8:8d:59:0c:85:
                    ff:96:b0:fb:0e:97:17:4c:29:e4:0b:e2:35:10:92:
                    01:7a:5d:52:19:20:f1:6d:04:1f:8a:1a:3f:c2:76:
                    8b:bd:2a:ca:d3:15:f6:92:c9:9a:5a:a0:4a:17:58:
                    ef:37:be:46:47:55:72:b5:3b:62:77:88:f6:73:0c:
                    c2:62:69:79:44:a5:ec:3e:1e:f5:94:09:1d:96:53:
                    39:b8:f1:c7:21:0d:03:c2:17:35:d8:72:aa:f8:00:
                    d7:1a:b6:84:44:de:6c:f1:fe:10:12:c2:eb:fe:56:
                    40:a7:90:ca:08:55:de:cf:ea:f7:36:a3:b9:ce:26:
                    48:27:78:fe:4f:f5:35:12:a0:36:4a:52:a7:b6:dd:
                    d7:b1:a0:89:5b:dc:63:4f:d5:be:47:6a:00:a4:ae:
                    f0:24:42:d5:d1:7d:ed:50:65:2a:8b:d4:96:58:03:
                    a3:4e:8e:2a:6a:0e:13:f5:6a:0d:0c:79:f3:db:04:
                    d4:82:44:fd:2f:7c:01:14:e1:02:f6:a0:9d:10:d4:
                    21:f4:2d:ad:6a:80:20:3f:be:0c:db:0e:7c:33:bb:
                    ac:cf:cf:c2:bd:a1:d6:2c:f9:92:fd:82:82:a5:80:
                    5f:5f
                Exponent: 65537 (0x10001)
        X509v3 extensions:
            X509v3 Key Usage: critical
                Digital Signature, Key Encipherment
            X509v3 Extended Key Usage: 
                TLS Web Client Authentication, TLS Web Server Authentication
            X509v3 Subject Key Identifier: 
                74:72:DE:3C:AB:FB:01:A7:68:87:2B:03:94:A2:3C:AD:23:CC:A3:24
            X509v3 Authority Key Identifier: 
                E8:B6:F6:76:4B:D0:3B:E5:46:A5:F9:54:D4:7E:07:B3:DE:0D:60:3E
            Authority Information Access: 
                OCSP - URI:http://ca.someca-inc.com/ocsp
                CA Issuers - URI:http://ca.someca-inc.com/root
            X509v3 Subject Alternative Name: 
                DNS:example.org
            X509v3 Certificate Policies: 
                Policy: 2.23.140.1.2.2
            X509v3 CRL Distribution Points: 
                Full Name:
                  URI:http://ca.someca-inc.com/crl
    Signature Algorithm: sha256WithRSAEncryption
    Signature Value:
        45:e5:98:f9:2b:8c:3a:04:f4:fd:c2:2a:70:e1:87:f6:55:04:
        1d:aa:49:30:42:5d:cd:9e:f4:ee:18:5d:b4:d0:72:6b:30:aa:
        9b:45:ea:af:71:c8:65:3d:d8:92:93:99:d1:2a:c3:ee:f6:d0:
        5c:12:3b:b7:4b:94:94:cc:3f:45:9a:18:25:3d:c5:d4:80:c4:
        ad:ba:fa:0a:e7:aa:ec:ee:41:71:b4:b9:71:21:aa:a5:1e:09:
        13:d7:97:d1:b1:d2:79:36:97:65:4c:f7:67:bb:ac:75:52:75:
        79:81:ba:0c:dd:06:a7:28:1e:cb:79:a7:43:17:44:b8:3e:33:
        13:aa:3a:76:1e:25:5b:19:b5:64:b0:68:a3:30:a8:31:9e:11:
        bb:d7:49:7c:42:ac:dc:7e:cd:2b:0e:40:82:6e:6c:8f:02:cf:
        ce:c0:5d:35:af:a7:bc:d9:9f:a0:d6:e3:25:5d:88:6c:53:2f:
        8a:77:cf:68:61:c5:c7:44:16:97:d4:60:68:e4:f6:cb:d0:91:
        ac:dc:16:32:49:98:4a:18:5b:f9:fd:e2:83:5a:0f:75:01:c2:
        55:c2:20:96:6d:f1:98:cf:c2:69:6a:dc:7a:30:0f:b1:98:a9:
        40:83:13:9c:52:a2:74:54:7a:f6:eb:2f:3f:a0:85:c9:5b:98:
        0a:28:1c:54
-----BEGIN CERTIFICATE-----
MIIEaTCCA1GgAwIBAgIQJJ1T7qdqfCC5vxBHKGDqTDANBgkqhkiG9w0BAQsFADBD
MQswCQYDVQQGEwJYWDEQMA4GA1UEChMHU29tZSBDQTEiMCAGA1UEAxMZRmFrZSBD
QSBmb3IgemxpbnQgdGVzdGluZzAeFw0yNTAzMTYxNzE4NDRaFw0yNjAzMTYxNzE4
NDRaMGUxCzAJBgNVBAYTAlNFMRIwEAYDVQQIDAlHw7Z0YWxhbmQxEjAQBgNVBAcM
CUfDtnRlYm9yZzEYMBYGA1UEChMPU29tZSBDb21wYW55IEFCMRQwEgYDVQQDEwtl
eGFtcGxlLm9yZzCCASIwDQYJKoZIhvcNAQEBBQADggEPADCCAQoCggEBANOWQcQG
Un5kOnF51DJCmoQHq4vYB9l/ibiNWQyF/5aw+w6XF0wp5AviNRCSAXpdUhkg8W0E
H4oaP8J2i70qytMV9pLJmlqgShdY7ze+RkdVcrU7YneI9nMMwmJpeUSl7D4e9ZQJ
HZZTObjxxyENA8IXNdhyqvgA1xq2hETebPH+EBLC6/5WQKeQyghV3s/q9zajuc4m
SCd4/k/1NRKgNkpSp7bd17GgiVvcY0/VvkdqAKSu8CRC1dF97VBlKovUllgDo06O
KmoOE/VqDQx589sE1IJE/S98ARThAvagnRDUIfQtrWqAID++DNsOfDO7rM/Pwr2h
1iz5kv2CgqWAX18CAwEAAaOCATUwggExMA4GA1UdDwEB/wQEAwIFoDAdBgNVHSUE
FjAUBggrBgEFBQcDAgYIKwYBBQUHAwEwHQYDVR0OBBYEFHRy3jyr+wGnaIcrA5Si
PK0jzKMkMB8GA1UdIwQYMBaAFOi29nZL0DvlRqX5VNR+B7PeDWA+MGQGCCsGAQUF
BwEBBFgwVjApBggrBgEFBQcwAYYdaHR0cDovL2NhLnNvbWVjYS1pbmMuY29tL29j
c3AwKQYIKwYBBQUHMAKGHWh0dHA6Ly9jYS5zb21lY2EtaW5jLmNvbS9yb290MBYG
A1UdEQQPMA2CC2V4YW1wbGUub3JnMBMGA1UdIAQMMAowCAYGZ4EMAQICMC0GA1Ud
HwQmMCQwIqAgoB6GHGh0dHA6Ly9jYS5zb21lY2EtaW5jLmNvbS9jcmwwDQYJKoZI
hvcNAQELBQADggEBAEXlmPkrjDoE9P3CKnDhh/ZVBB2qSTBCXc2e9O4YXbTQcmsw
qptF6q9xyGU92JKTmdEqw+720FwSO7dLlJTMP0WaGCU9xdSAxK26+grnquzuQXG0
uXEhqqUeCRPXl9Gx0nk2l2VM92e7rHVSdXmBugzdBqcoHst5p0MXRLg+MxOqOnYe
JVsZtWSwaKMwqDGeEbvXSXxCrNx+zSsOQIJubI8Cz87AXTWvp7zZn6DW4yVdiGxT
L4p3z2hhxcdEFpfUYGjk9svQkazcFjJJmEoYW/n94oNaD3UBwlXCIJZt8ZjPwmlq
3HowD7GYqUCDE5xSonRUevbrLz+ghclbmAooHFQ=
-----END CERTIFICATE-----
