Certificate:
    Data:
        Version: 3 (0x2)
        Serial Number:
            25:db:e4:0d:41:e8:52:82:82:df:af:a7:94:19:4a:d8
        Signature Algorithm: ecdsa-with-SHA256
        Issuer: CN=Client Auth CA, OU=CA, O=Example Co, C=US
        Validity
            Not Before: May  2 20:44:46 2026 GMT
            Not After : Nov 16 21:44:46 2026 GMT
        Subject: C=US
        Subject Public Key Info:
            Public Key Algorithm: id-ecPublicKey
                Public-Key: (256 bit)
                pub:
                    04:03:0a:7d:a5:72:0c:3d:30:8f:af:b7:89:50:ba:
                    14:da:67:a5:3c:fe:71:8b:8f:73:91:5d:96:e1:7e:
                    a3:91:d7:a3:48:8d:8d:81:1f:98:ea:1f:66:7b:55:
                    f8:0f:66:fe:88:89:b3:e8:66:2f:cc:4e:4f:23:7b:
                    a3:ce:f3:bb:bd
                ASN1 OID: prime256v1
                NIST CURVE: P-256
        X509v3 extensions:
            X509v3 Key Usage: critical
                Digital Signature
            X509v3 Extended Key Usage: 
                TLS Web Server Authentication
            X509v3 Subject Key Identifier: 
                AB:3A:04:77:ED:57:3D:34:32:14:E4:89:42:54:3C:A2:15:02:BA:CD
            X509v3 Authority Key Identifier: 
                F9:04:69:0E:46:72:BC:A0:D5:FE:B4:18:A4:60:2B:14:CF:13:C7:9E
            Authority Information Access: 
                OCSP - URI:http://ocsp.example.com
                CA Issuers - URI:http://example.com/ca1.crt
            X509v3 Subject Alternative Name: 
                DNS:dvserverauth.example.com
            X509v3 Certificate Policies: 
                Policy: 2.23.140.1.2.1
            X509v3 CRL Distribution Points: 
                Full Name:
                  URI:http://crl1.example.com/ca1.crl

                Full Name:
                  URI:http://crl2.example.com/ca1.crl

            CT Precertificate SCTs: 
                Signed Certificate Timestamp:
                    Version   : v1 (0x0)
                    Log ID    : C4:69:28:BC:87:DE:23:B9:A8:BD:23:5A:A1:FE:67:CC:
                                B1:54:2C:83:89:AD:3F:02:BF:4A:B5:CF:F5:06:E9:8F
                    Timestamp : Jan 15 06:56:07.890 1970 GMT
                    Extensions: none
                    Signature : ecdsa-with-SHA256
                                73:69:67:6E:61:74:75:72:65:31
                Signed Certificate Timestamp:
                    Version   : v1 (0x0)
                    Log ID    : 73:AA:A5:07:1D:9F:86:15:50:D5:14:69:CB:D8:9E:0A:
                                6E:53:71:48:6F:D9:4C:96:75:28:1D:1C:EF:BD:51:17
                    Timestamp : Jan 15 06:56:07.891 1970 GMT
                    Extensions: none
                    Signature : ecdsa-with-SHA256
                                73:69:67:6E:61:74:75:72:65:32
    Signature Algorithm: ecdsa-with-SHA256
    Signature Value:
        30:44:02:20:39:90:78:37:19:cd:8b:51:87:44:f3:9f:75:36:
        45:02:db:f1:68:db:b0:41:c4:8a:2c:e6:02:0e:75:7b:5c:03:
        02:20:2a:5b:33:bf:ff:9f:b9:ac:84:77:0c:ff:79:70:ea:12:
        65:45:89:6d:96:4b:f1:a3:65:66:bc:10:91:f2:6d:ce
-----BEGIN CERTIFICATE-----
MIIDODCCAt+gAwIBAgIQJdvkDUHoUoKC36+nlBlK2DAKBggqhkjOPQQDAjBIMRcw
FQYDVQQDEw5DbGllbnQgQXV0aCBDQTELMAkGA1UECxMCQ0ExEzARBgNVBAoTCkV4
YW1wbGUgQ28xCzAJBgNVBAYTAlVTMB4XDTI2MDUwMjIwNDQ0NloXDTI2MTExNjIx
NDQ0NlowDTELMAkGA1UEBhMCVVMwWTATBgcqhkjOPQIBBggqhkjOPQMBBwNCAAQD
Cn2lcgw9MI+vt4lQuhTaZ6U8/nGLj3ORXZbhfqOR16NIjY2BH5jqH2Z7VfgPZv6I
ibPoZi/MTk8je6PO87u9o4IB5DCCAeAwDgYDVR0PAQH/BAQDAgeAMBMGA1UdJQQM
MAoGCCsGAQUFBwMBMB0GA1UdDgQWBBSrOgR37Vc9NDIU5IlCVDyiFQK6zTAfBgNV
HSMEGDAWgBT5BGkORnK8oNX+tBikYCsUzxPHnjBbBggrBgEFBQcBAQRPME0wIwYI
KwYBBQUHMAGGF2h0dHA6Ly9vY3NwLmV4YW1wbGUuY29tMCYGCCsGAQUFBzAChhpo
dHRwOi8vZXhhbXBsZS5jb20vY2ExLmNydDAjBgNVHREEHDAaghhkdnNlcnZlcmF1
dGguZXhhbXBsZS5jb20wEwYDVR0gBAwwCjAIBgZngQwBAgEwVwYDVR0fBFAwTjAl
oCOgIYYfaHR0cDovL2NybDEuZXhhbXBsZS5jb20vY2ExLmNybDAloCOgIYYfaHR0
cDovL2NybDIuZXhhbXBsZS5jb20vY2ExLmNybDCBiAYKKwYBBAHWeQIEAgR6BHgA
dgA5AMRpKLyH3iO5qL0jWqH+Z8yxVCyDia0/Ar9Ktc/1BumPAAAAAEmWAtIAAAQD
AApzaWduYXR1cmUxADkAc6qlBx2fhhVQ1RRpy9ieCm5TcUhv2UyWdSgdHO+9URcA
AAAASZYC0wAABAMACnNpZ25hdHVyZTIwCgYIKoZIzj0EAwIDRwAwRAIgOZB4NxnN
i1GHRPOfdTZFAtvxaNuwQcSKLOYCDnV7XAMCICpbM7//n7mshHcM/3lw6hJlRYlt
lkvxo2VmvBCR8m3O
-----END CERTIFICATE-----
