Certificate:
    Data:
        Version: 3 (0x2)
        Serial Number: 3 (0x3)
        Signature Algorithm: ecdsa-with-SHA256
        Issuer:
        Validity
            Not Before: Sep 30 00:00:00 2023 GMT
            Not After : Nov 30 00:00:00 9998 GMT
        Subject:
        Subject Public Key Info:
            Public Key Algorithm: id-ecPublicKey
                Public-Key: (256 bit)
                pub:
                    04:61:2b:e3:83:17:e5:3f:e9:df:88:f7:5f:13:1f:
                    64:bc:f2:6c:bb:6d:10:f3:9c:be:42:ad:ef:e7:63:
                    a4:0b:5b:b9:9d:c5:52:a8:ad:d9:9d:95:6c:c2:ed:
                    e2:26:5e:45:04:bf:38:f5:a2:f9:69:0f:e6:bc:2d:
                    79:85:5b:26:2d
                ASN1 OID: prime256v1
                NIST CURVE: P-256
        X509v3 extensions:
            X509v3 Subject Key Identifier:
                01:02:03:04
    Signature Algorithm: ecdsa-with-SHA256
    Signature Value:
        30:46:02:21:00:cc:f5:b0:6b:3a:1d:5c:88:79:85:2d:d6:c4:
        e3:da:ba:37:8c:19:5a:96:dc:1d:95:d6:2a:91:f6:5d:bf:9b:
        3a:02:21:00:f2:f6:73:c4:60:52:96:d0:43:a9:25:f7:d5:49:
        25:ca:0c:7f:20:df:6b:65:71:61:c6:06:90:1c:2b:99:73:15
-----BEGIN CERTIFICATE-----
MIIBAjCBqKADAgECAgEDMAoGCCqGSM49BAMCMAAwIBcNMjMwOTMwMDAwMDAwWhgP
OTk5ODExMzAwMDAwMDBaMAAwWTATBgcqhkjOPQIBBggqhkjOPQMBBwNCAARhK+OD
F+U/6d+I918TH2S88my7bRDznL5Cre/nY6QLW7mdxVKordmdlWzC7eImXkUEvzj1
ovlpD+a8LXmFWyYtoxEwDzANBgNVHQ4EBgQEAQIDBDAKBggqhkjOPQQDAgNJADBG
AiEAzPWwazodXIh5hS3WxOPaujeMGVqW3B2V1iqR9l2/mzoCIQDy9nPEYFKW0EOp
JffVSSXKDH8g32tlcWHGBpAcK5lzFQ==
-----END CERTIFICATE-----
