Certificate:
    Data:
        Version: 3 (0x2)
        Serial Number:
            4a:9d:a2:2e:85:a3:38:f3:da:b9:b8:8d
        Signature Algorithm: sha256WithRSAEncryption
        Issuer: CN = JLint Sub CA, O = Lint, C = DE
        Validity
            Not Before: Jul  1 14:48:20 2023 GMT
            Not After : Jul  1 15:48:20 2024 GMT
        Subject: CN = e_ext_cert_policy_disallowed_any_policy_qualifier, O = Lint, C = DE
        Subject Public Key Info:
            Public Key Algorithm: rsaEncryption
                RSA Public-Key: (2048 bit)
                Modulus:
                    00:c8:91:8a:84:6a:c8:41:81:65:8b:97:78:8b:d3:
                    6c:bf:92:0f:56:22:12:82:83:9d:72:51:c0:5c:19:
                    9c:00:12:03:49:8c:1d:05:0b:b2:34:61:78:f5:12:
                    92:10:a0:cc:c9:4c:c9:d8:03:3e:cc:b3:29:42:1b:
                    f7:3a:2c:9e:de:68:29:09:88:49:8f:28:22:2a:95:
                    bd:db:ce:83:e3:f3:08:80:e1:8b:dd:37:36:c9:28:
                    2b:3d:c9:6e:07:7b:3b:1a:b9:69:d8:a6:e0:22:80:
                    49:4b:04:50:be:5c:1b:fe:8b:c1:6d:8f:1a:09:33:
                    d6:5c:c8:6a:e4:ee:d3:48:34:ab:af:27:3c:b6:be:
                    7a:43:98:fc:4f:9f:6b:84:0d:e1:98:c8:6a:7e:17:
                    62:4c:a4:a0:50:f7:f3:71:6c:8c:a3:25:9c:06:7f:
                    5b:a4:5f:0b:af:b5:d5:1c:f9:aa:9c:22:e9:fe:e2:
                    bf:16:5d:a0:9e:ec:da:32:dc:c0:fa:32:57:7b:0d:
                    bb:c7:41:9b:9d:f3:7e:38:3a:65:96:1b:9c:44:b9:
                    a3:38:55:d0:4b:c7:04:f8:dd:65:9f:57:e2:56:88:
                    b2:b4:69:dc:df:50:6a:4f:ca:f6:20:65:a3:13:b9:
                    a0:86:9c:c5:c5:84:12:f9:c5:58:17:7c:9b:d8:41:
                    4e:e5
                Exponent: 65537 (0x10001)
        X509v3 extensions:
            X509v3 Authority Key Identifier: 
                keyid:C4:8F:CF:FE:87:49:92:71:70:4E:93:BC:C1:34:21:EE:A0:93:65:84

            X509v3 Subject Key Identifier: 
                C1:01:30:D6:18:D9:DA:F6:28:B6:73:A4:93:E0:0D:2C:46:F9:77:0B
            X509v3 Certificate Policies: critical
                Policy: X509v3 Any Policy
                  User Notice:
                    Explicit Text: zlint

    Signature Algorithm: sha256WithRSAEncryption
         45:74:4a:e2:5d:9d:50:ae:6f:66:c9:70:28:19:9a:47:10:ba:
         1f:e6:75:73:a9:08:e3:1d:9f:f3:55:ea:a6:6a:58:5b:24:b7:
         ea:77:6d:94:1e:b1:5a:52:45:2b:99:59:ed:82:5a:84:f3:ba:
         a6:a8:1e:ae:74:75:17:2b:49:a4:40:ec:36:81:b7:f7:e5:6a:
         9c:10:bc:ca:4a:70:d8:7c:bd:36:05:94:df:6e:32:c1:c9:7d:
         f1:d4:a9:e6:cb:89:e7:51:5d:db:b9:de:9c:b4:3b:de:92:dc:
         0f:97:a2:e8:d3:40:41:34:95:2b:97:92:17:e9:91:fb:de:a4:
         0b:c7:1f:e1:d6:40:2d:d9:86:b1:db:05:d3:2f:f7:8f:73:27:
         43:4b:da:85:44:7f:a8:28:34:df:a2:de:a6:65:b5:a1:30:de:
         8f:e7:71:b3:34:a2:2e:be:e8:02:f5:ef:f9:ad:6e:dc:42:18:
         eb:ec:a1:c9:98:4a:95:ab:c2:46:61:fa:98:bb:74:20:cf:91:
         89:b7:af:3f:52:25:c1:61:ff:57:a0:51:a9:b3:6a:34:4e:c0:
         52:78:9e:0a:f4:1c:58:4a:15:f6:c4:2e:51:9a:1c:78:19:38:
         a6:23:d3:34:4a:7a:35:91:0a:12:36:ea:4f:5e:0b:61:32:28:
         78:2c:61:de
-----BEGIN CERTIFICATE-----
MIIDgDCCAmigAwIBAgIMSp2iLoWjOPPaubiNMA0GCSqGSIb3DQEBCwUAMDMxFTAT
BgNVBAMMDEpMaW50IFN1YiBDQTENMAsGA1UECgwETGludDELMAkGA1UEBhMCREUw
HhcNMjMwNzAxMTQ0ODIwWhcNMjQwNzAxMTU0ODIwWjBYMTowOAYDVQQDDDFlX2V4
dF9jZXJ0X3BvbGljeV9kaXNhbGxvd2VkX2FueV9wb2xpY3lfcXVhbGlmaWVyMQ0w
CwYDVQQKDARMaW50MQswCQYDVQQGEwJERTCCASIwDQYJKoZIhvcNAQEBBQADggEP
ADCCAQoCggEBAMiRioRqyEGBZYuXeIvTbL+SD1YiEoKDnXJRwFwZnAASA0mMHQUL
sjRhePUSkhCgzMlMydgDPsyzKUIb9zosnt5oKQmISY8oIiqVvdvOg+PzCIDhi903
NskoKz3Jbgd7Oxq5adim4CKASUsEUL5cG/6LwW2PGgkz1lzIauTu00g0q68nPLa+
ekOY/E+fa4QN4ZjIan4XYkykoFD383FsjKMlnAZ/W6RfC6+11Rz5qpwi6f7ivxZd
oJ7s2jLcwPoyV3sNu8dBm53zfjg6ZZYbnES5ozhV0EvHBPjdZZ9X4laIsrRp3N9Q
ak/K9iBloxO5oIacxcWEEvnFWBd8m9hBTuUCAwEAAaNvMG0wHwYDVR0jBBgwFoAU
xI/P/odJknFwTpO8wTQh7qCTZYQwHQYDVR0OBBYEFMEBMNYY2dr2KLZzpJPgDSxG
+XcLMCsGA1UdIAEB/wQhMB8wHQYEVR0gADAVMBMGCCsGAQUFBwICMAcMBXpsaW50
MA0GCSqGSIb3DQEBCwUAA4IBAQBFdEriXZ1Qrm9myXAoGZpHELof5nVzqQjjHZ/z
VeqmalhbJLfqd22UHrFaUkUrmVntglqE87qmqB6udHUXK0mkQOw2gbf35WqcELzK
SnDYfL02BZTfbjLByX3x1Knmy4nnUV3bud6ctDvektwPl6Lo00BBNJUrl5IX6ZH7
3qQLxx/h1kAt2Yax2wXTL/ePcydDS9qFRH+oKDTfot6mZbWhMN6P53GzNKIuvugC
9e/5rW7cQhjr7KHJmEqVq8JGYfqYu3Qgz5GJt68/UiXBYf9XoFGps2o0TsBSeJ4K
9BxYShX2xC5Rmhx4GTimI9M0Sno1kQoSNupPXgthMih4LGHe
-----END CERTIFICATE-----
