Certificate:
    Data:
        Version: 3 (0x2)
        Serial Number:
            87:51:1e:16:2e:f7:22:25:c8:a6:34:15
        Signature Algorithm: sha256WithRSAEncryption
        Issuer: CN = JLint Sub CA, O = Lint, C = DE
        Validity
            Not Before: Jul  1 14:48:19 2023 GMT
            Not After : Jul  1 15:48:19 2024 GMT
        Subject: CN = e_ext_cert_policy_disallowed_any_policy_qualifier, O = Lint, C = DE
        Subject Public Key Info:
            Public Key Algorithm: rsaEncryption
                RSA Public-Key: (2048 bit)
                Modulus:
                    00:a9:ab:6e:ba:1c:b8:e9:08:e2:30:06:3a:9a:16:
                    ee:07:a5:aa:24:27:f0:d2:67:aa:bd:82:98:53:8d:
                    c8:a2:82:47:ee:30:66:94:1e:ae:37:b9:81:0a:fe:
                    03:72:d8:00:2b:7b:1d:81:25:be:47:3d:2e:fc:9b:
                    64:19:eb:91:b6:a6:0e:a6:f1:60:ce:bd:e7:ff:78:
                    94:68:a4:96:25:df:4e:0e:c8:a5:c6:f8:15:6f:76:
                    34:16:ed:01:f5:c8:6e:9e:47:dd:24:c4:33:3f:d4:
                    d3:62:8c:51:83:d5:d1:aa:c0:ce:52:77:80:10:6d:
                    98:fc:41:8c:63:64:b9:81:56:f1:0b:a8:67:70:3d:
                    98:77:16:93:42:64:55:88:8b:39:89:32:60:91:4b:
                    eb:11:30:4d:49:91:fa:f5:0e:7a:b5:18:e8:45:cc:
                    37:b2:e3:4a:f5:8e:d1:4f:94:2e:89:5d:8c:1a:79:
                    d7:79:91:1c:c8:cd:fd:85:8e:c0:75:41:e0:25:a0:
                    fb:4e:5d:42:88:98:85:23:35:d0:39:56:2c:7f:37:
                    68:cf:ab:33:0f:63:98:11:77:64:74:16:bd:20:70:
                    e5:2d:17:ad:f7:84:4e:39:51:6b:ab:50:73:01:31:
                    04:54:b1:e7:02:3d:d0:1a:41:39:03:18:86:29:45:
                    ef:15
                Exponent: 65537 (0x10001)
        X509v3 extensions:
            X509v3 Authority Key Identifier: 
                keyid:C4:8F:CF:FE:87:49:92:71:70:4E:93:BC:C1:34:21:EE:A0:93:65:84

            X509v3 Subject Key Identifier: 
                A3:6D:DA:40:AC:DC:B7:A4:E2:3D:D1:5B:F3:C5:F3:65:BC:57:6B:85
            X509v3 Certificate Policies: critical
                Policy: X509v3 Any Policy

    Signature Algorithm: sha256WithRSAEncryption
         b0:84:c9:75:ab:d7:b7:c7:02:cb:eb:44:06:cd:ba:38:9a:9a:
         1b:d5:fe:c5:77:65:69:38:54:26:ce:f1:d9:34:e4:2f:e8:11:
         cb:89:15:2d:2d:4a:fd:5c:9f:11:93:10:d9:a6:4e:71:b6:61:
         c8:41:f9:91:15:70:50:af:c6:6d:5b:ed:53:ba:a6:86:1a:68:
         d9:24:2a:45:da:cd:8f:bb:55:61:68:6f:1b:39:07:8d:be:5b:
         df:5e:41:a1:59:95:0b:ea:e4:b5:08:67:4b:4e:36:d8:67:78:
         12:08:a4:a3:49:42:1f:98:c6:5f:7c:9c:49:39:ee:4d:ef:f0:
         44:de:fc:b7:92:c1:9d:30:25:c9:58:fe:11:4a:2e:8e:99:88:
         24:1c:bd:72:a0:55:22:bc:d2:1c:c3:5e:3b:d2:94:00:49:4e:
         e6:ba:80:6d:19:2a:e4:32:d1:08:1d:49:cd:80:3c:48:76:9c:
         30:ff:1b:c5:5d:53:0b:4c:b1:70:0a:1b:02:9e:71:66:9f:61:
         76:73:d7:a1:13:53:3a:21:a4:ad:b1:e5:7e:9f:46:de:58:9b:
         59:83:33:85:00:2d:87:08:a6:29:9c:b7:c9:01:10:d6:65:2b:
         60:76:2c:d0:e0:7c:41:3c:8e:91:70:e5:93:0a:b3:eb:59:1e:
         9a:f0:fa:b1
-----BEGIN CERTIFICATE-----
MIIDajCCAlKgAwIBAgINAIdRHhYu9yIlyKY0FTANBgkqhkiG9w0BAQsFADAzMRUw
EwYDVQQDDAxKTGludCBTdWIgQ0ExDTALBgNVBAoMBExpbnQxCzAJBgNVBAYTAkRF
MB4XDTIzMDcwMTE0NDgxOVoXDTI0MDcwMTE1NDgxOVowWDE6MDgGA1UEAwwxZV9l
eHRfY2VydF9wb2xpY3lfZGlzYWxsb3dlZF9hbnlfcG9saWN5X3F1YWxpZmllcjEN
MAsGA1UECgwETGludDELMAkGA1UEBhMCREUwggEiMA0GCSqGSIb3DQEBAQUAA4IB
DwAwggEKAoIBAQCpq266HLjpCOIwBjqaFu4HpaokJ/DSZ6q9gphTjciigkfuMGaU
Hq43uYEK/gNy2AArex2BJb5HPS78m2QZ65G2pg6m8WDOvef/eJRopJYl304OyKXG
+BVvdjQW7QH1yG6eR90kxDM/1NNijFGD1dGqwM5Sd4AQbZj8QYxjZLmBVvELqGdw
PZh3FpNCZFWIizmJMmCRS+sRME1Jkfr1Dnq1GOhFzDey40r1jtFPlC6JXYwaedd5
kRzIzf2FjsB1QeAloPtOXUKImIUjNdA5Vix/N2jPqzMPY5gRd2R0Fr0gcOUtF633
hE45UWurUHMBMQRUsecCPdAaQTkDGIYpRe8VAgMBAAGjWDBWMB8GA1UdIwQYMBaA
FMSPz/6HSZJxcE6TvME0Ie6gk2WEMB0GA1UdDgQWBBSjbdpArNy3pOI90VvzxfNl
vFdrhTAUBgNVHSABAf8ECjAIMAYGBFUdIAAwDQYJKoZIhvcNAQELBQADggEBALCE
yXWr17fHAsvrRAbNujiamhvV/sV3ZWk4VCbO8dk05C/oEcuJFS0tSv1cnxGTENmm
TnG2YchB+ZEVcFCvxm1b7VO6poYaaNkkKkXazY+7VWFobxs5B42+W99eQaFZlQvq
5LUIZ0tONthneBIIpKNJQh+Yxl98nEk57k3v8ETe/LeSwZ0wJclY/hFKLo6ZiCQc
vXKgVSK80hzDXjvSlABJTua6gG0ZKuQy0QgdSc2APEh2nDD/G8VdUwtMsXAKGwKe
cWafYXZz16ETUzohpK2x5X6fRt5Ym1mDM4UALYcIpimct8kBENZlK2B2LNDgfEE8
jpFw5ZMKs+tZHprw+rE=
-----END CERTIFICATE-----
