Certificate:
    Data:
        Version: 3 (0x2)
        Serial Number:
            0e:91:ba:ef:5b:5c:2d:ab:72:75:67:fd
        Signature Algorithm: ecdsa-with-SHA256
        Issuer: CN = Lint CA, O = Lint, C = DE
        Validity
            Not Before: Feb  1 00:00:00 2032 GMT
            Not After : Mar 18 23:59:59 2032 GMT
        Subject: 
        Subject Public Key Info:
            Public Key Algorithm: id-ecPublicKey
                Public-Key: (256 bit)
                pub:
                    04:85:3c:6a:dd:38:6a:d9:4c:fc:53:ab:2a:8b:79:
                    d7:0b:0b:56:cb:12:50:ea:5e:d3:2c:fc:38:13:2a:
                    3d:43:ab:51:25:4d:c6:42:3a:af:c2:ea:de:75:48:
                    47:82:d6:ae:8e:47:eb:6b:d0:e0:59:ad:e3:24:3b:
                    10:74:3c:16:e2
                ASN1 OID: prime256v1
                NIST CURVE: P-256
        X509v3 extensions:
            X509v3 Certificate Policies: 
                Policy: 2.23.140.1.2.1

    Signature Algorithm: ecdsa-with-SHA256
         30:45:02:20:2b:4b:95:23:eb:3a:c7:cc:dd:ec:68:76:f5:62:
         09:18:cd:14:80:03:84:b5:52:b1:94:aa:f5:3f:ca:26:1b:d7:
         02:21:00:ae:8b:7e:e0:a2:bc:b1:51:44:84:8b:8e:09:f1:3b:
         98:25:19:63:93:6c:da:47:a8:06:49:a3:f7:67:a1:62:a8
-----BEGIN CERTIFICATE-----
MIIBPjCB5aADAgECAgwOkbrvW1wtq3J1Z/0wCgYIKoZIzj0EAwIwLjEQMA4GA1UE
AwwHTGludCBDQTENMAsGA1UECgwETGludDELMAkGA1UEBhMCREUwHhcNMzIwMjAx
MDAwMDAwWhcNMzIwMzE4MjM1OTU5WjAAMFkwEwYHKoZIzj0CAQYIKoZIzj0DAQcD
QgAEhTxq3Thq2Uz8U6sqi3nXCwtWyxJQ6l7TLPw4Eyo9Q6tRJU3GQjqvwuredUhH
gtaujkfra9DgWa3jJDsQdDwW4qMXMBUwEwYDVR0gBAwwCjAIBgZngQwBAgEwCgYI
KoZIzj0EAwIDSAAwRQIgK0uVI+s6x8zd7Gh29WIJGM0UgAOEtVKxlKr1P8omG9cC
IQCui37goryxUUSEi44J8TuYJRljk2zaR6gGSaP3Z6FiqA==
-----END CERTIFICATE-----
