Certificate:
    Data:
        Version: 3 (0x2)
        Serial Number:
            90:d6:6f:b9:81:d7:44:95:a0:8a:7d:b2
        Signature Algorithm: sha256WithRSAEncryption
        Issuer: CN = JLint Sub CA, O = Lint, C = DE
        Validity
            Not Before: Jul  1 14:48:21 2023 GMT
            Not After : Jul  1 15:48:21 2024 GMT
        Subject: CN = e_ext_cert_policy_disallowed_any_policy_qualifier, O = Lint, C = DE
        Subject Public Key Info:
            Public Key Algorithm: rsaEncryption
                RSA Public-Key: (2048 bit)
                Modulus:
                    00:d0:bb:91:6a:82:b1:af:b7:a6:0a:5e:7a:21:e5:
                    2f:4c:43:29:29:d9:f7:3c:c9:e4:14:05:75:50:e9:
                    4c:e5:7c:9f:a5:51:37:ce:23:66:5c:d0:b7:f9:73:
                    bc:ff:00:15:8f:5c:d0:3c:dc:3b:3d:16:c2:5b:e2:
                    bc:9b:5e:d6:bb:a2:01:73:2f:05:01:71:78:4b:8a:
                    2c:15:d6:d2:e1:ad:af:69:17:b2:e7:3e:77:f6:89:
                    db:d6:30:e7:f4:1c:03:28:9c:97:2c:e0:f6:59:57:
                    7e:6a:57:76:e3:76:35:38:87:b7:0b:00:8b:b7:35:
                    9e:bd:94:c5:fc:84:68:b7:13:21:c3:95:a6:34:9f:
                    f6:5b:22:f5:f0:29:35:c7:7f:83:c3:16:8d:8a:8a:
                    fb:9f:78:95:4d:0e:38:3a:e8:e8:91:6c:1e:95:da:
                    56:4a:7e:11:f7:7a:1c:7f:d3:75:00:68:42:bd:07:
                    4b:79:5a:42:d3:bb:1d:de:e8:aa:b9:10:d1:99:eb:
                    d1:c8:e4:35:39:de:f2:48:21:39:81:0b:3d:33:40:
                    0d:10:17:2b:96:8a:4a:c0:c3:89:70:23:a2:14:33:
                    85:e4:25:5a:2d:cb:ef:9c:af:ba:cd:a2:08:e6:55:
                    9e:89:4e:1b:f8:84:d5:d4:14:da:3e:81:a3:10:2c:
                    6c:13
                Exponent: 65537 (0x10001)
        X509v3 extensions:
            X509v3 Authority Key Identifier: 
                keyid:C4:8F:CF:FE:87:49:92:71:70:4E:93:BC:C1:34:21:EE:A0:93:65:84

            X509v3 Subject Key Identifier: 
                2A:84:5B:84:E0:ED:59:9D:F9:86:6A:DB:AD:87:6D:1E:FB:70:5A:F5
            X509v3 Certificate Policies: critical
                Policy: 1.2.3.4.5.6
                    Unknown Qualifier: 1.3.2
                    Unknown Qualifier: 1.3.2.4
                    Unknown Qualifier: 1.3.2.4.5
                Policy: X509v3 Any Policy
                  CPS: https://example.com/cps
                  User Notice:
                    Explicit Text: zlint
                  User Notice:
                    Organization: zlint
                    Numbers: 1, 2
                    Explicit Text: zlint
                Policy: 2.9.8.7.6.5
                Policy: 1.9.8.7.6.5
                  CPS: https://example.com/cps
                  User Notice:
                  User Notice:
                    Explicit Text: zlint
                  User Notice:
                    Organization: zlint
                    Numbers: 1, 2
                    Explicit Text: zlint

    Signature Algorithm: sha256WithRSAEncryption
         65:0c:48:54:fe:59:07:49:41:46:87:85:de:bd:8a:26:ca:e1:
         38:5a:2b:21:d4:75:d2:01:86:2e:5c:e6:a6:6f:81:27:6e:0f:
         3d:7c:2b:ca:e0:24:a2:a2:84:a4:6d:05:ce:32:56:fc:5c:84:
         1d:7d:78:dd:73:bc:96:b3:10:a7:96:e6:4b:16:ea:14:b4:fc:
         ee:f3:12:ef:9f:60:53:53:fa:20:93:3d:86:e3:f1:8a:32:4c:
         2c:4e:b0:51:04:6c:12:51:9f:26:e4:08:bc:fa:4e:61:d9:b7:
         01:f4:36:de:ce:4a:a3:4b:79:f4:1b:34:e7:f9:40:d9:33:34:
         23:de:99:6c:eb:08:0a:78:4d:cd:0b:27:e0:17:94:23:88:11:
         c0:10:d1:82:c6:df:bf:20:96:b2:e4:2a:79:90:3a:be:f2:70:
         e6:f3:d6:2b:ce:26:56:59:55:e0:27:04:56:1d:38:48:bc:a4:
         21:a4:f7:0a:ca:26:68:fc:6b:d5:fd:47:a3:9a:f6:67:e7:8b:
         08:c5:f1:09:e7:c3:61:f1:dd:15:04:75:72:ae:47:5c:a9:ac:
         84:c3:c0:bb:de:fb:7f:06:a3:02:c9:02:bd:41:7f:08:e7:df:
         4a:1f:c5:78:f1:ec:55:04:df:54:6c:a1:b9:bc:40:06:aa:84:
         57:67:6d:61
-----BEGIN CERTIFICATE-----
MIIEwzCCA6ugAwIBAgINAJDWb7mB10SVoIp9sjANBgkqhkiG9w0BAQsFADAzMRUw
EwYDVQQDDAxKTGludCBTdWIgQ0ExDTALBgNVBAoMBExpbnQxCzAJBgNVBAYTAkRF
MB4XDTIzMDcwMTE0NDgyMVoXDTI0MDcwMTE1NDgyMVowWDE6MDgGA1UEAwwxZV9l
eHRfY2VydF9wb2xpY3lfZGlzYWxsb3dlZF9hbnlfcG9saWN5X3F1YWxpZmllcjEN
MAsGA1UECgwETGludDELMAkGA1UEBhMCREUwggEiMA0GCSqGSIb3DQEBAQUAA4IB
DwAwggEKAoIBAQDQu5FqgrGvt6YKXnoh5S9MQykp2fc8yeQUBXVQ6UzlfJ+lUTfO
I2Zc0Lf5c7z/ABWPXNA83Ds9FsJb4rybXta7ogFzLwUBcXhLiiwV1tLhra9pF7Ln
Pnf2idvWMOf0HAMonJcs4PZZV35qV3bjdjU4h7cLAIu3NZ69lMX8hGi3EyHDlaY0
n/ZbIvXwKTXHf4PDFo2KivufeJVNDjg66OiRbB6V2lZKfhH3ehx/03UAaEK9B0t5
WkLTux3e6Kq5ENGZ69HI5DU53vJIITmBCz0zQA0QFyuWikrAw4lwI6IUM4XkJVot
y++cr7rNogjmVZ6JThv4hNXUFNo+gaMQLGwTAgMBAAGjggGvMIIBqzAfBgNVHSME
GDAWgBTEj8/+h0mScXBOk7zBNCHuoJNlhDAdBgNVHQ4EFgQUKoRbhODtWZ35hmrb
rYdtHvtwWvUwggFnBgNVHSABAf8EggFbMIIBVzBpBgUqAwQFBjBgMB0GAisCFhdo
dHRwczovL2V4YW1wbGUuY29tL2NwczAeBgMrAgQWF2h0dHBzOi8vZXhhbXBsZS5j
b20vY3BzMB8GBCsCBAUWF2h0dHBzOi8vZXhhbXBsZS5jb20vY3BzMGgGBFUdIAAw
YDAjBggrBgEFBQcCARYXaHR0cHM6Ly9leGFtcGxlLmNvbS9jcHMwEwYIKwYBBQUH
AgIwBwwFemxpbnQwJAYIKwYBBQUHAgIwGDAPDAV6bGludDAGAgEBAgECDAV6bGlu
dDAHBgVZCAcGBTB3BgUxCAcGBTBuMCMGCCsGAQUFBwIBFhdodHRwczovL2V4YW1w
bGUuY29tL2NwczAMBggrBgEFBQcCAjAAMBMGCCsGAQUFBwICMAcMBXpsaW50MCQG
CCsGAQUFBwICMBgwDwwFemxpbnQwBgIBAQIBAgwFemxpbnQwDQYJKoZIhvcNAQEL
BQADggEBAGUMSFT+WQdJQUaHhd69iibK4ThaKyHUddIBhi5c5qZvgSduDz18K8rg
JKKihKRtBc4yVvxchB19eN1zvJazEKeW5ksW6hS0/O7zEu+fYFNT+iCTPYbj8Yoy
TCxOsFEEbBJRnybkCLz6TmHZtwH0Nt7OSqNLefQbNOf5QNkzNCPemWzrCAp4Tc0L
J+AXlCOIEcAQ0YLG378glrLkKnmQOr7ycObz1ivOJlZZVeAnBFYdOEi8pCGk9wrK
Jmj8a9X9R6Oa9mfniwjF8Qnnw2Hx3RUEdXKuR1yprITDwLve+38GowLJAr1Bfwjn
30ofxXjx7FUE31Rsobm8QAaqhFdnbWE=
-----END CERTIFICATE-----
