Certificate:
    Data:
        Version: 3 (0x2)
        Serial Number:
            02:ab:5a:09:80:0d:91:82:4e:b2:d3:73
        Signature Algorithm: sha256WithRSAEncryption
        Issuer: CN = JLint Sub CA, O = Lint, C = DE
        Validity
            Not Before: Jul  1 14:48:19 2023 GMT
            Not After : Jul  1 15:48:19 2024 GMT
        Subject: CN = e_ext_cert_policy_disallowed_any_policy_qualifier, O = Lint, C = DE
        Subject Public Key Info:
            Public Key Algorithm: rsaEncryption
                RSA Public-Key: (2048 bit)
                Modulus:
                    00:cd:57:0a:b3:a5:c0:3d:65:87:fb:37:98:d6:ba:
                    41:4c:32:43:c3:e5:46:74:09:50:6e:45:62:c7:32:
                    0f:ec:27:ad:22:c2:90:e8:95:1b:f5:b3:6a:a9:e9:
                    0e:c9:b5:9a:61:de:99:5d:4a:aa:53:a1:e7:a6:38:
                    fa:7b:02:c1:49:8f:dd:b0:89:0b:90:b2:75:c2:96:
                    be:69:c3:12:55:18:08:ae:82:ca:7d:6a:d0:88:33:
                    52:22:d8:0e:cc:a2:37:f3:59:3f:01:9b:3f:4d:9f:
                    6f:fe:38:d8:f1:9b:70:7e:46:34:f8:c4:ff:10:b4:
                    c7:2a:dc:28:84:5a:01:a2:fd:f3:a7:52:38:d6:f1:
                    d4:c1:24:c5:ef:a3:f7:0f:2c:bb:d5:56:ec:a5:c6:
                    2a:6b:07:dc:e0:2f:ac:52:c8:86:36:17:cd:e9:6d:
                    fe:a4:7b:80:64:2c:70:61:82:21:f9:12:03:33:00:
                    ef:72:e5:97:cb:c1:5e:5d:6a:ba:2b:21:32:c3:0b:
                    da:9e:9e:20:a3:45:a7:c2:11:5a:af:11:dd:22:8b:
                    fc:58:c7:33:ad:de:3a:be:49:8e:7b:98:cc:9a:33:
                    42:88:2c:63:b0:8d:67:45:0d:1e:9b:9c:3f:58:5d:
                    8c:b5:da:44:a0:03:2a:05:af:5d:d8:53:e9:d9:86:
                    f3:33
                Exponent: 65537 (0x10001)
        X509v3 extensions:
            X509v3 Authority Key Identifier: 
                keyid:C4:8F:CF:FE:87:49:92:71:70:4E:93:BC:C1:34:21:EE:A0:93:65:84

            X509v3 Subject Key Identifier: 
                AA:89:35:E1:E1:C4:5B:8C:4A:E0:CF:EC:0E:9E:B6:63:A8:EB:8E:BC
            X509v3 Certificate Policies: critical
                Policy: 1.2.3.4.5

    Signature Algorithm: sha256WithRSAEncryption
         c5:1e:77:5f:5c:26:cc:5e:ea:03:8e:51:47:61:1b:5c:c8:2c:
         2a:3b:44:8d:a2:80:5e:34:e6:e5:7c:c1:6f:01:15:01:5f:ac:
         6d:b6:bb:74:af:33:ec:ad:2a:21:4c:ed:7f:ce:90:a4:21:5c:
         5e:27:68:de:ca:c7:90:cc:fd:b2:62:25:d3:a8:b5:fb:0b:d9:
         8a:f9:d2:df:59:23:48:56:19:08:45:21:b8:e4:65:9e:d1:5b:
         74:9c:38:48:f1:b0:90:3a:6a:77:58:97:50:44:d3:76:55:b1:
         ac:72:8a:cb:a0:10:0f:ea:da:91:68:5c:77:8f:4b:7d:94:1b:
         b8:25:03:6e:ea:35:0e:e2:86:81:e4:42:36:d3:4d:d6:b3:38:
         eb:8c:05:94:4d:a5:62:08:6e:75:7f:f6:07:58:e0:7c:14:0a:
         e7:ba:39:87:6b:08:9a:99:42:b4:ab:1c:7c:86:41:0e:01:28:
         0c:f8:e3:1d:b8:8d:2e:6e:a4:82:ed:5d:3e:9c:17:4e:8d:d6:
         9b:b9:84:25:43:78:13:f8:c5:04:e4:d5:93:a4:10:bd:72:d9:
         5a:bd:3b:85:fe:eb:b1:65:09:b5:e8:89:41:8d:b4:f4:32:ee:
         8f:5f:5a:53:dc:d3:31:37:af:6b:a2:6f:a9:18:b5:d3:e6:8c:
         26:e8:8b:1c
-----BEGIN CERTIFICATE-----
MIIDaTCCAlGgAwIBAgIMAqtaCYANkYJOstNzMA0GCSqGSIb3DQEBCwUAMDMxFTAT
BgNVBAMMDEpMaW50IFN1YiBDQTENMAsGA1UECgwETGludDELMAkGA1UEBhMCREUw
HhcNMjMwNzAxMTQ0ODE5WhcNMjQwNzAxMTU0ODE5WjBYMTowOAYDVQQDDDFlX2V4
dF9jZXJ0X3BvbGljeV9kaXNhbGxvd2VkX2FueV9wb2xpY3lfcXVhbGlmaWVyMQ0w
CwYDVQQKDARMaW50MQswCQYDVQQGEwJERTCCASIwDQYJKoZIhvcNAQEBBQADggEP
ADCCAQoCggEBAM1XCrOlwD1lh/s3mNa6QUwyQ8PlRnQJUG5FYscyD+wnrSLCkOiV
G/WzaqnpDsm1mmHemV1KqlOh56Y4+nsCwUmP3bCJC5CydcKWvmnDElUYCK6Cyn1q
0IgzUiLYDsyiN/NZPwGbP02fb/442PGbcH5GNPjE/xC0xyrcKIRaAaL986dSONbx
1MEkxe+j9w8su9VW7KXGKmsH3OAvrFLIhjYXzelt/qR7gGQscGGCIfkSAzMA73Ll
l8vBXl1quishMsML2p6eIKNFp8IRWq8R3SKL/FjHM63eOr5JjnuYzJozQogsY7CN
Z0UNHpucP1hdjLXaRKADKgWvXdhT6dmG8zMCAwEAAaNYMFYwHwYDVR0jBBgwFoAU
xI/P/odJknFwTpO8wTQh7qCTZYQwHQYDVR0OBBYEFKqJNeHhxFuMSuDP7A6etmOo
6468MBQGA1UdIAEB/wQKMAgwBgYEKgMEBTANBgkqhkiG9w0BAQsFAAOCAQEAxR53
X1wmzF7qA45RR2EbXMgsKjtEjaKAXjTm5XzBbwEVAV+sbba7dK8z7K0qIUztf86Q
pCFcXido3srHkMz9smIl06i1+wvZivnS31kjSFYZCEUhuORlntFbdJw4SPGwkDpq
d1iXUETTdlWxrHKKy6AQD+rakWhcd49LfZQbuCUDbuo1DuKGgeRCNtNN1rM464wF
lE2lYghudX/2B1jgfBQK57o5h2sImplCtKscfIZBDgEoDPjjHbiNLm6kgu1dPpwX
To3Wm7mEJUN4E/jFBOTVk6QQvXLZWr07hf7rsWUJteiJQY209DLuj19aU9zTMTev
a6JvqRi10+aMJuiLHA==
-----END CERTIFICATE-----
