Certificate:
    Data:
        Version: 3 (0x2)
        Serial Number:
            67:32:5c:93:e9:a2:32:b8:61:f6:d6:e2
        Signature Algorithm: sha256WithRSAEncryption
        Issuer: CN = JLint Sub CA, O = Lint, C = DE
        Validity
            Not Before: Jul  1 14:48:19 2023 GMT
            Not After : Jul  1 15:48:19 2024 GMT
        Subject: CN = e_ext_cert_policy_disallowed_any_policy_qualifier, O = Lint, C = DE
        Subject Public Key Info:
            Public Key Algorithm: rsaEncryption
                RSA Public-Key: (2048 bit)
                Modulus:
                    00:c6:ee:a4:ff:af:f9:d3:57:78:a1:35:b9:b9:6e:
                    f1:67:fd:3e:d3:b1:e5:13:25:5a:34:eb:68:7c:ea:
                    ae:32:01:e1:98:15:15:32:c3:03:75:e5:d6:2e:56:
                    2d:03:34:28:25:e0:77:b8:db:1a:47:d9:ff:b1:d4:
                    31:6a:d2:8e:ab:64:3a:0e:a3:e8:53:40:4f:ff:55:
                    32:1d:59:a6:db:09:20:aa:c3:ee:57:ca:90:8d:de:
                    26:2c:f5:b3:b3:45:d6:32:81:18:46:44:ad:1e:f8:
                    92:a3:ed:b3:af:e5:72:80:3d:0b:c8:fc:fa:a1:e6:
                    20:16:d7:18:70:4b:4a:c1:5f:a7:3b:aa:26:75:36:
                    7a:13:62:98:2e:8f:18:5c:c0:e7:88:40:36:03:44:
                    91:a9:80:3c:6a:dd:36:b1:53:ff:1b:d8:8a:97:ef:
                    06:04:e0:ce:8b:53:4e:24:5d:89:9e:75:b1:31:75:
                    bf:b3:26:ba:6b:08:70:49:b8:b8:76:2c:27:07:e7:
                    a6:e5:ee:ac:de:f6:28:6b:b8:78:0e:b0:53:12:c2:
                    0e:d7:b2:b7:e6:c2:e8:1d:2c:b1:6e:ac:19:a3:88:
                    14:67:3e:7b:67:04:34:e5:8d:90:23:06:63:e0:c3:
                    6b:b0:e1:c6:75:54:7d:47:47:c9:26:14:07:1a:e1:
                    6f:c5
                Exponent: 65537 (0x10001)
        X509v3 extensions:
            X509v3 Authority Key Identifier: 
                keyid:C4:8F:CF:FE:87:49:92:71:70:4E:93:BC:C1:34:21:EE:A0:93:65:84

            X509v3 Subject Key Identifier: 
                22:BF:08:67:F1:B4:F2:53:77:63:B5:3A:39:74:A3:80:C1:2F:C3:D1
            X509v3 Certificate Policies: critical
                Policy: X509v3 Any Policy
                  CPS: https://example.com/cps

    Signature Algorithm: sha256WithRSAEncryption
         3e:38:b8:e6:68:5f:81:95:8f:de:5f:dc:9a:82:8b:93:78:6d:
         16:ba:7e:dd:57:72:9e:91:72:21:07:b0:22:3a:83:68:b9:b2:
         26:ed:5b:9b:b9:b5:ac:49:8a:4c:8d:6f:32:cc:24:e7:b8:99:
         2b:b9:47:68:4a:55:9a:7a:74:de:06:a6:2d:58:57:00:89:76:
         ac:ec:99:4f:44:69:28:21:25:31:9b:35:9d:82:46:bf:9d:0e:
         05:ff:58:a5:df:df:19:d2:df:4f:e2:ed:0d:85:d7:7d:98:e8:
         dd:80:d8:e1:c5:3c:82:1b:69:3e:82:03:fc:2b:d5:87:37:c3:
         b1:dc:06:f3:8e:83:42:90:b8:1c:2d:91:44:8c:8b:5a:eb:5c:
         dc:77:86:e7:39:7b:c2:3c:40:1f:1c:5e:ad:f0:b4:2c:ad:45:
         81:82:a2:37:17:c5:05:80:d5:9c:ee:f8:24:ea:2f:91:e2:95:
         32:38:a0:fd:77:3c:ad:97:58:ff:3b:ba:0e:fd:a7:1a:06:61:
         a0:6c:02:08:20:df:4e:9e:ab:f0:92:62:65:09:83:54:3e:17:
         b4:a3:3a:8c:2c:c4:03:4d:5c:a7:bf:84:0f:0a:39:61:c5:39:
         5c:8d:8a:24:0b:31:84:d1:76:2a:74:1b:da:9b:f9:13:c9:9e:
         5f:f0:c1:34
-----BEGIN CERTIFICATE-----
MIIDkDCCAnigAwIBAgIMZzJck+miMrhh9tbiMA0GCSqGSIb3DQEBCwUAMDMxFTAT
BgNVBAMMDEpMaW50IFN1YiBDQTENMAsGA1UECgwETGludDELMAkGA1UEBhMCREUw
HhcNMjMwNzAxMTQ0ODE5WhcNMjQwNzAxMTU0ODE5WjBYMTowOAYDVQQDDDFlX2V4
dF9jZXJ0X3BvbGljeV9kaXNhbGxvd2VkX2FueV9wb2xpY3lfcXVhbGlmaWVyMQ0w
CwYDVQQKDARMaW50MQswCQYDVQQGEwJERTCCASIwDQYJKoZIhvcNAQEBBQADggEP
ADCCAQoCggEBAMbupP+v+dNXeKE1ublu8Wf9PtOx5RMlWjTraHzqrjIB4ZgVFTLD
A3Xl1i5WLQM0KCXgd7jbGkfZ/7HUMWrSjqtkOg6j6FNAT/9VMh1ZptsJIKrD7lfK
kI3eJiz1s7NF1jKBGEZErR74kqPts6/lcoA9C8j8+qHmIBbXGHBLSsFfpzuqJnU2
ehNimC6PGFzA54hANgNEkamAPGrdNrFT/xvYipfvBgTgzotTTiRdiZ51sTF1v7Mm
umsIcEm4uHYsJwfnpuXurN72KGu4eA6wUxLCDteyt+bC6B0ssW6sGaOIFGc+e2cE
NOWNkCMGY+DDa7DhxnVUfUdHySYUBxrhb8UCAwEAAaN/MH0wHwYDVR0jBBgwFoAU
xI/P/odJknFwTpO8wTQh7qCTZYQwHQYDVR0OBBYEFCK/CGfxtPJTd2O1Ojl0o4DB
L8PRMDsGA1UdIAEB/wQxMC8wLQYEVR0gADAlMCMGCCsGAQUFBwIBFhdodHRwczov
L2V4YW1wbGUuY29tL2NwczANBgkqhkiG9w0BAQsFAAOCAQEAPji45mhfgZWP3l/c
moKLk3htFrp+3VdynpFyIQewIjqDaLmyJu1bm7m1rEmKTI1vMswk57iZK7lHaEpV
mnp03gamLVhXAIl2rOyZT0RpKCElMZs1nYJGv50OBf9Ypd/fGdLfT+LtDYXXfZjo
3YDY4cU8ghtpPoID/CvVhzfDsdwG846DQpC4HC2RRIyLWutc3HeG5zl7wjxAHxxe
rfC0LK1FgYKiNxfFBYDVnO74JOovkeKVMjig/Xc8rZdY/zu6Dv2nGgZhoGwCCCDf
Tp6r8JJiZQmDVD4XtKM6jCzEA01cp7+EDwo5YcU5XI2KJAsxhNF2KnQb2pv5E8me
X/DBNA==
-----END CERTIFICATE-----
