Certificate:
    Data:
        Version: 3 (0x2)
        Serial Number:
            3a:f9:7b:5e:a6:69:99:05:6b:4c:3b:96
        Signature Algorithm: sha256WithRSAEncryption
        Issuer: CN = JLint Sub CA, O = Lint, C = DE
        Validity
            Not Before: Jul  1 14:48:20 2023 GMT
            Not After : Jul  1 15:48:20 2024 GMT
        Subject: CN = e_ext_cert_policy_disallowed_any_policy_qualifier, O = Lint, C = DE
        Subject Public Key Info:
            Public Key Algorithm: rsaEncryption
                RSA Public-Key: (2048 bit)
                Modulus:
                    00:ba:e7:11:c5:f8:d3:d8:72:c9:a2:c0:eb:b8:05:
                    71:c7:0b:af:f0:a6:de:53:3c:78:15:4e:03:f5:0d:
                    62:f0:e9:48:9c:d5:2c:35:c6:84:bd:11:53:43:aa:
                    b7:58:58:70:30:7c:f1:c3:9a:36:54:13:7f:38:12:
                    f6:40:43:67:97:9c:be:8d:a4:2b:93:dc:24:ad:00:
                    d2:4a:7e:51:13:7f:bd:42:e3:8c:0d:5e:f0:cb:90:
                    53:70:d6:87:08:cb:e9:26:5f:4f:90:9b:f2:fa:f4:
                    e0:8c:14:de:ea:13:c0:aa:af:97:d7:f2:14:2e:e1:
                    85:00:3b:89:b8:54:3f:61:e2:3d:9a:4c:7a:83:40:
                    1d:aa:1e:71:40:10:b3:c3:34:e6:e9:ec:70:8c:40:
                    c5:a7:29:41:cb:eb:04:a1:85:78:4d:a9:12:73:48:
                    09:d0:5e:d6:4d:dd:d0:a4:1c:61:3b:e8:c4:d7:02:
                    6b:b4:2e:28:8a:6b:1a:1f:49:b5:41:4d:00:7b:2d:
                    d9:60:1e:e9:3e:f3:dd:fc:5b:b2:6c:4c:bb:aa:e7:
                    86:2f:1e:23:73:8e:fe:28:a2:5f:cf:dd:45:5e:da:
                    9b:9b:a9:8c:e5:11:53:26:64:a0:fc:98:4a:d8:8d:
                    2e:65:61:86:06:80:30:a9:6e:d8:0d:e4:d4:93:88:
                    42:ef
                Exponent: 65537 (0x10001)
        X509v3 extensions:
            X509v3 Authority Key Identifier: 
                keyid:C4:8F:CF:FE:87:49:92:71:70:4E:93:BC:C1:34:21:EE:A0:93:65:84

            X509v3 Subject Key Identifier: 
                46:D5:80:6C:65:70:28:2D:61:BE:6B:BE:54:38:B0:68:4E:B3:2A:B7
            X509v3 Certificate Policies: critical
                Policy: X509v3 Any Policy
                    Unknown Qualifier: 1.2.3.4.5

    Signature Algorithm: sha256WithRSAEncryption
         04:86:83:16:30:6b:88:00:16:d7:07:1b:08:9f:bd:99:43:a8:
         19:68:42:3f:3e:16:95:e5:d7:d4:04:22:60:c6:6f:b7:5d:bb:
         d8:04:db:ac:42:94:63:a3:72:7d:c8:13:84:59:6b:99:d0:0b:
         8d:0c:ca:23:4b:81:f0:ae:61:f8:59:f9:c0:b8:dc:b4:8b:ca:
         2a:8a:45:21:bd:07:43:f1:35:da:cb:aa:a3:37:f3:80:73:29:
         0c:2e:8d:6a:7d:7a:38:0f:6b:27:ba:85:bc:5a:2b:7e:84:ef:
         a7:80:38:7c:c1:45:00:35:89:fc:eb:c1:f9:3e:01:53:7c:7e:
         2a:9d:0c:32:c3:f0:4a:16:bc:93:75:85:92:50:af:3e:a3:42:
         d6:85:3a:16:c9:61:80:c1:61:8d:40:f6:14:15:dd:94:a1:71:
         3f:12:d9:82:fa:6f:b8:e0:ea:1f:bd:60:4d:ce:59:da:a6:e6:
         ce:c1:0a:07:14:17:34:30:19:c3:f4:11:94:56:b6:7a:b9:22:
         21:87:d4:ca:b0:26:57:0d:d7:b3:e0:ce:4d:24:36:f2:10:bd:
         50:80:ae:fb:6e:43:d9:42:17:76:4d:cd:bb:a7:0b:22:ca:ba:
         3f:eb:d9:2a:93:f2:d7:f1:7a:18:b8:b5:32:3f:16:79:4d:d5:
         83:52:20:a4
-----BEGIN CERTIFICATE-----
MIIDjDCCAnSgAwIBAgIMOvl7XqZpmQVrTDuWMA0GCSqGSIb3DQEBCwUAMDMxFTAT
BgNVBAMMDEpMaW50IFN1YiBDQTENMAsGA1UECgwETGludDELMAkGA1UEBhMCREUw
HhcNMjMwNzAxMTQ0ODIwWhcNMjQwNzAxMTU0ODIwWjBYMTowOAYDVQQDDDFlX2V4
dF9jZXJ0X3BvbGljeV9kaXNhbGxvd2VkX2FueV9wb2xpY3lfcXVhbGlmaWVyMQ0w
CwYDVQQKDARMaW50MQswCQYDVQQGEwJERTCCASIwDQYJKoZIhvcNAQEBBQADggEP
ADCCAQoCggEBALrnEcX409hyyaLA67gFcccLr/Cm3lM8eBVOA/UNYvDpSJzVLDXG
hL0RU0Oqt1hYcDB88cOaNlQTfzgS9kBDZ5ecvo2kK5PcJK0A0kp+URN/vULjjA1e
8MuQU3DWhwjL6SZfT5Cb8vr04IwU3uoTwKqvl9fyFC7hhQA7ibhUP2HiPZpMeoNA
HaoecUAQs8M05unscIxAxacpQcvrBKGFeE2pEnNICdBe1k3d0KQcYTvoxNcCa7Qu
KIprGh9JtUFNAHst2WAe6T7z3fxbsmxMu6rnhi8eI3OO/iiiX8/dRV7am5upjOUR
UyZkoPyYStiNLmVhhgaAMKlu2A3k1JOIQu8CAwEAAaN7MHkwHwYDVR0jBBgwFoAU
xI/P/odJknFwTpO8wTQh7qCTZYQwHQYDVR0OBBYEFEbVgGxlcCgtYb5rvlQ4sGhO
syq3MDcGA1UdIAEB/wQtMCswKQYEVR0gADAhMB8GBCoDBAUWF2h0dHBzOi8vZXhh
bXBsZS5jb20vY3BzMA0GCSqGSIb3DQEBCwUAA4IBAQAEhoMWMGuIABbXBxsIn72Z
Q6gZaEI/PhaV5dfUBCJgxm+3XbvYBNusQpRjo3J9yBOEWWuZ0AuNDMojS4HwrmH4
WfnAuNy0i8oqikUhvQdD8TXay6qjN/OAcykMLo1qfXo4D2snuoW8Wit+hO+ngDh8
wUUANYn868H5PgFTfH4qnQwyw/BKFryTdYWSUK8+o0LWhToWyWGAwWGNQPYUFd2U
oXE/EtmC+m+44OofvWBNzlnapubOwQoHFBc0MBnD9BGUVrZ6uSIhh9TKsCZXDdez
4M5NJDbyEL1QgK77bkPZQhd2Tc27pwsiyro/69kqk/LX8XoYuLUyPxZ5TdWDUiCk
-----END CERTIFICATE-----
