-------------Leaf-------------
Certificate:
    Data:
        Version: 3 (0x2)
        Serial Number: 3 (0x3)
        Signature Algorithm: ecdsa-with-SHA256
        Issuer: 
        Validity
            Not Before: Jul  1 00:00:00 2013 GMT
            Not After : Nov 30 00:00:00 9998 GMT
        Subject: 
        Subject Public Key Info:
            Public Key Algorithm: id-ecPublicKey
                Public-Key: (256 bit)
                pub:
                    04:b4:e1:b9:18:cc:76:73:cf:10:3e:7b:9b:34:18:
                    fd:bc:3c:06:5c:d9:db:97:2e:fe:e5:c1:09:85:c1:
                    a8:ee:7d:e0:23:06:55:07:c3:61:79:41:48:d3:1c:
                    96:d5:f3:b2:64:17:92:c8:86:9c:c8:c1:a6:7b:dc:
                    65:c4:67:f9:3a
                ASN1 OID: prime256v1
                NIST CURVE: P-256
        X509v3 extensions:
            X509v3 Extended Key Usage: 
                E-mail Protection
            Authority Information Access: 
                OCSP - URI:http://internalname
                CA Issuers - URI:https://internalname
            X509v3 Certificate Policies: 
                Policy: 2.23.140.1.5.1.3
    Signature Algorithm: ecdsa-with-SHA256
    Signature Value:
        30:44:02:20:65:eb:c1:25:80:1b:e3:7d:3d:ed:25:62:7c:c6:
        c7:75:ba:ea:f6:5d:2f:e0:70:1f:6e:e5:f5:02:a1:ed:59:48:
        02:20:0c:a8:2d:ef:3d:41:67:7f:c2:07:a9:d4:83:0d:a2:47:
        6e:7c:a4:5a:29:fd:67:d3:35:df:1f:f7:8d:2b:82:ce
-----BEGIN CERTIFICATE-----
MIIBcTCCARigAwIBAgIBAzAKBggqhkjOPQQDAjAAMCAXDTEzMDcwMTAwMDAwMFoY
Dzk5OTgxMTMwMDAwMDAwWjAAMFkwEwYHKoZIzj0CAQYIKoZIzj0DAQcDQgAEtOG5
GMx2c88QPnubNBj9vDwGXNnbly7+5cEJhcGo7n3gIwZVB8NheUFI0xyW1fOyZBeS
yIacyMGme9xlxGf5OqOBgDB+MBMGA1UdJQQMMAoGCCsGAQUFBwMEMFEGCCsGAQUF
BwEBBEUwQzAfBggrBgEFBQcwAYYTaHR0cDovL2ludGVybmFsbmFtZTAgBggrBgEF
BQcwAoYUaHR0cHM6Ly9pbnRlcm5hbG5hbWUwFAYDVR0gBA0wCzAJBgdngQwBBQED
MAoGCCqGSM49BAMCA0cAMEQCIGXrwSWAG+N9Pe0lYnzGx3W66vZdL+BwH27l9QKh
7VlIAiAMqC3vPUFnf8IHqdSDDaJHbnykWin9Z9M13x/3jSuCzg==
-----END CERTIFICATE-----
