Certificate:
    Data:
        Version: 3 (0x2)
        Serial Number:
            5a:35:62:65:45:00:06:4d:53:f4:df:9f
        Signature Algorithm: sha256WithRSAEncryption
        Issuer: CN = Lint CA, O = Lint, C = DE
        Validity
            Not Before: Sep  1 00:00:00 2023 GMT
            Not After : Sep  1 00:00:00 2024 GMT
        Subject: CN = Certificate, O = Lint, C = DE
        Subject Public Key Info:
            Public Key Algorithm: rsaEncryption
                RSA Public-Key: (2048 bit)
                Modulus:
                    00:ce:e7:4c:52:f7:2b:a6:55:dd:21:2d:9e:85:e7:
                    a9:83:66:48:15:89:b1:4c:c2:63:08:fc:ec:86:ef:
                    9a:b3:96:42:f4:fd:1c:d8:65:a1:aa:c2:7c:92:69:
                    b6:59:44:40:c6:9b:73:11:16:7e:fb:73:4f:9c:31:
                    12:f9:0f:23:ef:8b:f2:7a:1b:96:7c:7d:1f:c2:75:
                    98:79:fc:13:74:9e:5f:60:6d:c4:4a:a8:07:08:2a:
                    ef:0f:82:43:ac:48:31:19:2d:e1:0f:f4:a1:f1:a6:
                    0b:fd:c1:45:e4:7c:d5:83:25:0e:17:3e:64:cc:0c:
                    62:1a:61:92:5f:c3:d7:92:b4:5e:7e:a6:db:d2:4f:
                    c3:e6:65:33:6d:1d:42:3e:4d:d2:18:15:dc:84:3c:
                    b0:02:da:aa:87:72:6a:d1:03:3d:ce:bc:67:ec:3c:
                    1e:11:bc:d6:df:ea:4b:91:ec:70:3b:9e:05:fe:6c:
                    97:8a:34:a5:45:67:83:37:51:f5:40:1a:6d:07:b6:
                    f8:e8:3d:9e:25:51:4c:59:20:96:71:b3:d2:81:b0:
                    44:34:7b:d8:8e:07:36:08:de:d9:15:42:2c:ca:1a:
                    0c:e5:5d:f1:9c:da:af:20:98:e9:76:af:3f:78:22:
                    a2:32:b4:c2:a2:3a:9c:3c:30:ec:e7:b9:e9:b9:4e:
                    28:1f
                Exponent: 65537 (0x10001)
        X509v3 extensions:
            X509v3 Authority Key Identifier: 
                keyid:D7:41:86:D3:AD:A1:D9:97:CE:38:D3:D5:F1:16:3B:A3:8C:67:95:44

            X509v3 Subject Key Identifier: 
                07:6B:7A:FA:43:EF:B0:ED:01:BA:30:E2:5E:D0:3F:C5:C8:0F:A9:4E
            X509v3 Extended Key Usage: 
                E-mail Protection
            X509v3 Subject Alternative Name: 
                email:test@example.com
            Authority Information Access: 
                OCSP - URI:http://192.0.2.42/ocsp

            X509v3 Certificate Policies: 
                Policy: 2.23.140.1.5.1.3

    Signature Algorithm: sha256WithRSAEncryption
         26:53:97:a8:d3:b0:f6:d5:19:7d:3a:95:b0:ef:4c:75:e9:01:
         d8:d2:41:1c:1f:82:22:14:c6:a3:01:eb:16:bb:c6:d4:ab:4a:
         3e:8d:ee:9f:01:47:30:eb:d0:1f:e3:b6:cf:83:76:4e:95:e0:
         3f:ca:1d:c9:2d:e8:58:c1:d0:45:1c:27:3d:07:78:0a:61:ec:
         4f:9b:67:7c:fd:0e:ee:6d:0d:37:64:70:d7:c7:2f:84:60:66:
         1e:1a:7a:0b:45:d9:91:e5:37:26:0b:1b:23:d7:da:10:37:f1:
         66:90:3d:ed:89:27:34:2d:68:66:f4:ae:2e:0e:b0:0a:f7:dd:
         e0:59:33:30:f2:19:7c:ac:28:4a:aa:fe:45:62:18:4b:2c:b5:
         f8:b5:fd:02:c2:aa:cb:bc:0d:b3:77:f1:d7:fc:55:52:ea:23:
         f7:d3:a0:09:52:78:be:7f:ef:3c:f3:2a:2d:87:15:54:84:db:
         47:89:ec:ad:63:41:7c:41:67:58:bf:77:09:5b:b4:c8:63:a2:
         3c:a3:df:8d:6d:2e:9c:28:34:3d:5d:79:57:33:05:d8:ec:27:
         d6:d1:79:fd:d2:b2:5f:41:a1:e4:78:77:ce:31:ad:2e:e3:ea:
         1e:26:72:e4:fc:09:84:3a:ee:92:37:fb:6d:c8:f1:13:40:e2:
         45:a8:47:b4
-----BEGIN CERTIFICATE-----
MIIDpjCCAo6gAwIBAgIMWjViZUUABk1T9N+fMA0GCSqGSIb3DQEBCwUAMC4xEDAO
BgNVBAMMB0xpbnQgQ0ExDTALBgNVBAoMBExpbnQxCzAJBgNVBAYTAkRFMB4XDTIz
MDkwMTAwMDAwMFoXDTI0MDkwMTAwMDAwMFowMjEUMBIGA1UEAwwLQ2VydGlmaWNh
dGUxDTALBgNVBAoMBExpbnQxCzAJBgNVBAYTAkRFMIIBIjANBgkqhkiG9w0BAQEF
AAOCAQ8AMIIBCgKCAQEAzudMUvcrplXdIS2eheepg2ZIFYmxTMJjCPzshu+as5ZC
9P0c2GWhqsJ8kmm2WURAxptzERZ++3NPnDES+Q8j74vyehuWfH0fwnWYefwTdJ5f
YG3ESqgHCCrvD4JDrEgxGS3hD/Sh8aYL/cFF5HzVgyUOFz5kzAxiGmGSX8PXkrRe
fqbb0k/D5mUzbR1CPk3SGBXchDywAtqqh3Jq0QM9zrxn7DweEbzW3+pLkexwO54F
/myXijSlRWeDN1H1QBptB7b46D2eJVFMWSCWcbPSgbBENHvYjgc2CN7ZFUIsyhoM
5V3xnNqvIJjpdq8/eCKiMrTCojqcPDDs57npuU4oHwIDAQABo4G/MIG8MB8GA1Ud
IwQYMBaAFNdBhtOtodmXzjjT1fEWO6OMZ5VEMB0GA1UdDgQWBBQHa3r6Q++w7QG6
MOJe0D/FyA+pTjATBgNVHSUEDDAKBggrBgEFBQcDBDAbBgNVHREEFDASgRB0ZXN0
QGV4YW1wbGUuY29tMDIGCCsGAQUFBwEBBCYwJDAiBggrBgEFBQcwAYYWaHR0cDov
LzE5Mi4wLjIuNDIvb2NzcDAUBgNVHSAEDTALMAkGB2eBDAEFAQMwDQYJKoZIhvcN
AQELBQADggEBACZTl6jTsPbVGX06lbDvTHXpAdjSQRwfgiIUxqMB6xa7xtSrSj6N
7p8BRzDr0B/jts+Ddk6V4D/KHckt6FjB0EUcJz0HeAph7E+bZ3z9Du5tDTdkcNfH
L4RgZh4aegtF2ZHlNyYLGyPX2hA38WaQPe2JJzQtaGb0ri4OsAr33eBZMzDyGXys
KEqq/kViGEsstfi1/QLCqsu8DbN38df8VVLqI/fToAlSeL5/7zzzKi2HFVSE20eJ
7K1jQXxBZ1i/dwlbtMhjojyj341tLpwoND1deVczBdjsJ9bRef3Ssl9BoeR4d84x
rS7j6h4mcuT8CYQ67pI3+23I8RNA4kWoR7Q=
-----END CERTIFICATE-----
