Certificate:
    Data:
        Version: 3 (0x2)
        Serial Number: 3 (0x3)
        Signature Algorithm: ecdsa-with-SHA256
        Issuer: 
        Validity
            Not Before: Jul  1 00:00:00 2013 GMT
            Not After : Nov 30 00:00:00 9998 GMT
        Subject: 
        Subject Public Key Info:
            Public Key Algorithm: id-ecPublicKey
                Public-Key: (256 bit)
                pub:
                    04:d7:ad:e9:f2:3e:78:01:94:ee:51:9e:77:d1:13:
                    9f:ce:90:7c:61:f1:d7:17:6a:02:f1:54:a9:bd:ba:
                    a7:57:c8:b0:99:82:36:9b:ad:f3:f9:60:5b:f0:3e:
                    f9:b5:94:9c:cb:e1:ef:e4:db:ca:11:8b:a2:be:ce:
                    69:44:7a:86:0f
                ASN1 OID: prime256v1
                NIST CURVE: P-256
        X509v3 extensions:
            X509v3 Extended Key Usage: 
                E-mail Protection
            Authority Information Access: 
                OCSP - URI:http://example.com
                CA Issuers - URI:http://example.com
            X509v3 Certificate Policies: 
                Policy: 2.23.140.1.5.1.1
    Signature Algorithm: ecdsa-with-SHA256
    Signature Value:
        30:46:02:21:00:a8:50:59:84:77:d9:2a:89:79:e3:f6:6f:60:
        2a:d9:81:f5:b9:36:0f:bc:4e:4a:d5:9e:b0:f5:13:8f:15:2d:
        86:02:21:00:fa:32:fc:3d:fc:c3:94:6b:b7:6d:84:a5:32:b5:
        80:4d:cb:3d:40:5f:91:05:46:8d:21:cd:75:fc:26:0e:8a:c5
-----BEGIN CERTIFICATE-----
MIIBbzCCARSgAwIBAgIBAzAKBggqhkjOPQQDAjAAMCAXDTEzMDcwMTAwMDAwMFoY
Dzk5OTgxMTMwMDAwMDAwWjAAMFkwEwYHKoZIzj0CAQYIKoZIzj0DAQcDQgAE163p
8j54AZTuUZ530ROfzpB8YfHXF2oC8VSpvbqnV8iwmYI2m63z+WBb8D75tZScy+Hv
5NvKEYuivs5pRHqGD6N9MHswEwYDVR0lBAwwCgYIKwYBBQUHAwQwTgYIKwYBBQUH
AQEEQjBAMB4GCCsGAQUFBzABhhJodHRwOi8vZXhhbXBsZS5jb20wHgYIKwYBBQUH
MAKGEmh0dHA6Ly9leGFtcGxlLmNvbTAUBgNVHSAEDTALMAkGB2eBDAEFAQEwCgYI
KoZIzj0EAwIDSQAwRgIhAKhQWYR32SqJeeP2b2Aq2YH1uTYPvE5K1Z6w9ROPFS2G
AiEA+jL8PfzDlGu3bYSlMrWATcs9QF+RBUaNIc11/CYOisU=
-----END CERTIFICATE-----