-------------Leaf-------------
Certificate:
    Data:
        Version: 3 (0x2)
        Serial Number: 3 (0x3)
        Signature Algorithm: ecdsa-with-SHA256
        Issuer: 
        Validity
            Not Before: Jul  1 00:00:00 2013 GMT
            Not After : Nov 30 00:00:00 9998 GMT
        Subject: 
        Subject Public Key Info:
            Public Key Algorithm: id-ecPublicKey
                Public-Key: (256 bit)
                pub:
                    04:a4:9a:65:ae:91:bb:b1:a0:67:05:19:95:4c:c0:
                    9f:b6:a9:20:6c:c3:4d:10:c6:d5:34:b9:d7:75:36:
                    dc:a0:f5:2e:41:99:47:62:20:bf:a6:f6:2c:e7:65:
                    a2:d9:0d:8a:48:3e:68:9c:83:a5:39:bb:a2:41:4e:
                    23:ad:16:f0:5f
                ASN1 OID: prime256v1
                NIST CURVE: P-256
        X509v3 extensions:
            X509v3 Extended Key Usage: 
                E-mail Protection
            Authority Information Access: 
                OCSP - URI:http://example.com
                CA Issuers - URI:https://example.com
            X509v3 Certificate Policies: 
                Policy: 2.23.140.1.5.1.3
    Signature Algorithm: ecdsa-with-SHA256
    Signature Value:
        30:46:02:21:00:e5:93:5c:ca:ef:66:8b:62:b4:60:fe:f3:73:
        2e:c4:97:a1:e5:89:b9:46:7c:c4:72:1d:b3:d9:1e:e4:13:33:
        ec:02:21:00:93:d2:88:65:1f:24:ae:7a:7c:4e:a1:15:59:56:
        f7:e9:7e:85:8a:54:ff:70:59:f4:ae:f4:9c:2d:59:04:4b:e1
-----BEGIN CERTIFICATE-----
MIIBcDCCARWgAwIBAgIBAzAKBggqhkjOPQQDAjAAMCAXDTEzMDcwMTAwMDAwMFoY
Dzk5OTgxMTMwMDAwMDAwWjAAMFkwEwYHKoZIzj0CAQYIKoZIzj0DAQcDQgAEpJpl
rpG7saBnBRmVTMCftqkgbMNNEMbVNLnXdTbcoPUuQZlHYiC/pvYs52Wi2Q2KSD5o
nIOlObuiQU4jrRbwX6N+MHwwEwYDVR0lBAwwCgYIKwYBBQUHAwQwTwYIKwYBBQUH
AQEEQzBBMB4GCCsGAQUFBzABhhJodHRwOi8vZXhhbXBsZS5jb20wHwYIKwYBBQUH
MAKGE2h0dHBzOi8vZXhhbXBsZS5jb20wFAYDVR0gBA0wCzAJBgdngQwBBQEDMAoG
CCqGSM49BAMCA0kAMEYCIQDlk1zK72aLYrRg/vNzLsSXoeWJuUZ8xHIds9ke5BMz
7AIhAJPSiGUfJK56fE6hFVlW9+l+hYpU/3BZ9K70nC1ZBEvh
-----END CERTIFICATE-----
