Certificate:
    Data:
        Version: 3 (0x2)
        Serial Number:
            b0:17:e5:a0:6e:4d:08:40:ad:94:ad:82
        Signature Algorithm: sha256WithRSAEncryption
        Issuer: CN = Lint CA, O = Lint, C = DE
        Validity
            Not Before: Sep  1 00:00:00 2023 GMT
            Not After : Sep  1 00:00:00 2024 GMT
        Subject: CN = Certificate, O = Lint, C = DE
        Subject Public Key Info:
            Public Key Algorithm: rsaEncryption
                RSA Public-Key: (2048 bit)
                Modulus:
                    00:d8:e3:a3:b0:95:15:95:5b:da:13:b5:06:2d:bd:
                    da:7f:56:0c:e3:47:e1:08:fe:4e:b6:fb:33:c1:4b:
                    ea:ac:e0:b9:13:8b:9c:5c:43:b3:ff:c1:b5:01:f3:
                    b1:6c:b9:20:c9:f0:e9:57:de:38:a5:b6:b5:60:67:
                    f4:c3:7e:b4:45:47:82:cc:13:3f:a8:b9:d3:c6:6f:
                    6a:73:86:bd:78:7f:9f:0e:e5:ac:16:e9:e9:02:04:
                    38:fe:46:9e:9d:a7:94:3c:85:d1:b4:bc:31:9f:1c:
                    b1:c0:18:3d:06:21:bf:ce:2b:82:78:46:e4:3f:30:
                    af:14:32:c3:24:b1:5f:a6:52:54:d8:b9:42:48:29:
                    1b:64:25:64:c9:d7:50:bd:b8:75:df:fc:b3:f7:a3:
                    d5:76:69:51:da:2f:ae:f5:c4:ce:9f:4f:5d:bc:9b:
                    b9:ee:1c:54:ea:8b:86:59:fc:b6:eb:42:17:98:54:
                    32:f5:b5:2c:d8:06:3b:c3:51:17:53:b1:5a:4e:26:
                    d4:72:51:05:49:3d:ba:1c:63:77:49:3b:71:c5:1c:
                    96:cf:8c:b6:1e:6a:2c:a4:ed:1a:fd:3a:24:49:d6:
                    56:b7:7b:22:80:a2:b8:25:ac:3b:d9:5c:06:72:1c:
                    09:71:61:1f:0a:ed:93:11:64:a9:f8:ee:23:ec:d2:
                    5d:25
                Exponent: 65537 (0x10001)
        X509v3 extensions:
            X509v3 Authority Key Identifier: 
                keyid:2A:CF:EA:C7:CA:F3:0A:87:CE:11:8E:7E:1F:12:FA:32:57:58:6D:64

            X509v3 Subject Key Identifier: 
                C0:C9:54:74:37:F7:70:0D:CC:2C:C1:69:CE:3A:DA:78:76:09:50:8D
            X509v3 Extended Key Usage: 
                E-mail Protection
            X509v3 Subject Alternative Name: 
                email:test@example.com
            Authority Information Access: 
                OCSP - URI:http://internalname
                CA Issuers - URI:http://issuers.example.com/issuer

            X509v3 Certificate Policies: 
                Policy: 2.23.140.1.5.1.3

    Signature Algorithm: sha256WithRSAEncryption
         b9:6e:c7:d3:b9:14:e9:8a:2e:8e:50:32:c2:9d:bf:00:1d:9d:
         c1:6a:0a:63:8d:9e:e0:46:46:bc:24:ba:75:c6:71:c0:61:5e:
         e7:d2:38:85:0d:f8:b2:a9:a5:29:d8:1e:e4:6c:2f:a1:84:1a:
         c5:9a:85:c0:af:d8:aa:9b:bf:94:3f:8d:5b:56:78:12:28:1d:
         35:c6:28:71:09:3e:02:e4:ae:60:60:b6:d1:51:30:86:2f:46:
         29:82:a8:d3:14:99:7f:f1:f2:9b:88:58:9f:e0:4c:a7:2f:18:
         ae:70:8e:2e:d4:b0:f9:47:3d:aa:70:9d:a2:ed:c1:a1:ca:cc:
         f3:60:e5:8e:87:df:7c:40:0b:af:71:2e:43:60:49:c6:20:52:
         78:17:82:54:fe:84:b2:dc:31:b3:0f:21:14:f0:85:8c:fa:d4:
         e2:ab:46:56:02:ad:be:eb:cb:fc:8d:06:e5:f3:47:e7:73:02:
         60:35:06:79:34:c5:06:0b:9d:12:bc:7c:1f:70:08:50:f5:66:
         f1:74:16:94:d9:23:bf:7b:5d:2a:89:0d:1a:ba:58:88:0c:de:
         28:dc:4b:b6:c7:80:cb:a7:bf:8a:35:eb:08:02:79:50:39:4e:
         23:cd:c6:80:b1:4d:5f:52:29:e5:c7:4b:5f:3d:ea:24:91:81:
         26:57:b0:65
-----BEGIN CERTIFICATE-----
MIID0zCCArugAwIBAgINALAX5aBuTQhArZStgjANBgkqhkiG9w0BAQsFADAuMRAw
DgYDVQQDDAdMaW50IENBMQ0wCwYDVQQKDARMaW50MQswCQYDVQQGEwJERTAeFw0y
MzA5MDEwMDAwMDBaFw0yNDA5MDEwMDAwMDBaMDIxFDASBgNVBAMMC0NlcnRpZmlj
YXRlMQ0wCwYDVQQKDARMaW50MQswCQYDVQQGEwJERTCCASIwDQYJKoZIhvcNAQEB
BQADggEPADCCAQoCggEBANjjo7CVFZVb2hO1Bi292n9WDONH4Qj+Trb7M8FL6qzg
uROLnFxDs//BtQHzsWy5IMnw6VfeOKW2tWBn9MN+tEVHgswTP6i508ZvanOGvXh/
nw7lrBbp6QIEOP5Gnp2nlDyF0bS8MZ8cscAYPQYhv84rgnhG5D8wrxQywySxX6ZS
VNi5QkgpG2QlZMnXUL24dd/8s/ej1XZpUdovrvXEzp9PXbybue4cVOqLhln8tutC
F5hUMvW1LNgGO8NRF1OxWk4m1HJRBUk9uhxjd0k7ccUcls+Mth5qLKTtGv06JEnW
Vrd7IoCiuCWsO9lcBnIcCXFhHwrtkxFkqfjuI+zSXSUCAwEAAaOB6zCB6DAfBgNV
HSMEGDAWgBQqz+rHyvMKh84Rjn4fEvoyV1htZDAdBgNVHQ4EFgQUwMlUdDf3cA3M
LMFpzjraeHYJUI0wEwYDVR0lBAwwCgYIKwYBBQUHAwQwGwYDVR0RBBQwEoEQdGVz
dEBleGFtcGxlLmNvbTBeBggrBgEFBQcBAQRSMFAwHwYIKwYBBQUHMAGGE2h0dHA6
Ly9pbnRlcm5hbG5hbWUwLQYIKwYBBQUHMAKGIWh0dHA6Ly9pc3N1ZXJzLmV4YW1w
bGUuY29tL2lzc3VlcjAUBgNVHSAEDTALMAkGB2eBDAEFAQMwDQYJKoZIhvcNAQEL
BQADggEBALlux9O5FOmKLo5QMsKdvwAdncFqCmONnuBGRrwkunXGccBhXufSOIUN
+LKppSnYHuRsL6GEGsWahcCv2Kqbv5Q/jVtWeBIoHTXGKHEJPgLkrmBgttFRMIYv
RimCqNMUmX/x8puIWJ/gTKcvGK5wji7UsPlHPapwnaLtwaHKzPNg5Y6H33xAC69x
LkNgScYgUngXglT+hLLcMbMPIRTwhYz61OKrRlYCrb7ry/yNBuXzR+dzAmA1Bnk0
xQYLnRK8fB9wCFD1ZvF0FpTZI797XSqJDRq6WIgM3ijcS7bHgMunv4o16wgCeVA5
TiPNxoCxTV9SKeXHS1896iSRgSZXsGU=
-----END CERTIFICATE-----
