-------------Leaf-------------
Certificate:
    Data:
        Version: 3 (0x2)
        Serial Number: 3 (0x3)
        Signature Algorithm: ecdsa-with-SHA256
        Issuer: 
        Validity
            Not Before: Jul  1 00:00:00 2013 GMT
            Not After : Nov 30 00:00:00 9998 GMT
        Subject: 
        Subject Public Key Info:
            Public Key Algorithm: id-ecPublicKey
                Public-Key: (256 bit)
                pub:
                    04:96:46:49:35:0c:1a:0e:34:80:cb:ce:20:91:70:
                    5d:75:83:e0:71:70:a5:d6:90:4e:4f:81:13:42:b7:
                    61:5b:56:69:5c:f6:13:24:2e:04:4c:b4:a4:c4:5d:
                    23:46:2d:f2:44:57:3b:19:ea:84:43:42:ae:2a:15:
                    69:df:18:d9:b5
                ASN1 OID: prime256v1
                NIST CURVE: P-256
        X509v3 extensions:
            X509v3 Extended Key Usage: 
                E-mail Protection
            Authority Information Access: 
                OCSP - URI:http://internalname
                CA Issuers - URI:http://internalname
            X509v3 Certificate Policies: 
                Policy: 2.23.140.1.5.1.1
    Signature Algorithm: ecdsa-with-SHA256
    Signature Value:
        30:45:02:21:00:c0:94:36:cc:97:78:32:72:60:db:a2:66:a0:
        4d:4f:5c:6e:39:5f:eb:dc:eb:64:2e:05:0e:b7:d1:e8:60:a1:
        20:02:20:6e:4b:07:46:4e:bf:61:ab:c4:06:8d:b3:62:27:ac:
        0f:77:5a:bb:c2:92:75:71:e0:b1:07:aa:7a:ef:8c:87:63
-----BEGIN CERTIFICATE-----
MIIBcDCCARagAwIBAgIBAzAKBggqhkjOPQQDAjAAMCAXDTEzMDcwMTAwMDAwMFoY
Dzk5OTgxMTMwMDAwMDAwWjAAMFkwEwYHKoZIzj0CAQYIKoZIzj0DAQcDQgAElkZJ
NQwaDjSAy84gkXBddYPgcXCl1pBOT4ETQrdhW1ZpXPYTJC4ETLSkxF0jRi3yRFc7
GeqEQ0KuKhVp3xjZtaN/MH0wEwYDVR0lBAwwCgYIKwYBBQUHAwQwUAYIKwYBBQUH
AQEERDBCMB8GCCsGAQUFBzABhhNodHRwOi8vaW50ZXJuYWxuYW1lMB8GCCsGAQUF
BzAChhNodHRwOi8vaW50ZXJuYWxuYW1lMBQGA1UdIAQNMAswCQYHZ4EMAQUBATAK
BggqhkjOPQQDAgNIADBFAiEAwJQ2zJd4MnJg26JmoE1PXG45X+vc62QuBQ630ehg
oSACIG5LB0ZOv2GrxAaNs2InrA93WrvCknVx4LEHqnrvjIdj
-----END CERTIFICATE-----