Certificate:
    Data:
        Version: 3 (0x2)
        Serial Number: 3 (0x3)
        Signature Algorithm: ecdsa-with-SHA256
        Issuer: 
        Validity
            Not Before: Jul  1 00:00:00 2013 GMT
            Not After : Nov 30 00:00:00 9998 GMT
        Subject: 
        Subject Public Key Info:
            Public Key Algorithm: id-ecPublicKey
                Public-Key: (256 bit)
                pub:
                    04:e4:d0:84:31:91:f3:f9:2b:2d:c8:d7:a1:8e:fb:
                    fc:6f:66:89:b1:32:c6:88:33:d5:70:12:d8:33:ab:
                    8e:e9:cf:ca:27:7b:cf:f4:98:ce:dc:1c:7e:db:60:
                    e6:84:35:79:ff:f3:1d:91:88:2a:c7:53:b6:23:cc:
                    f6:8a:be:56:e2
                ASN1 OID: prime256v1
                NIST CURVE: P-256
        X509v3 extensions:
            X509v3 Extended Key Usage: 
                E-mail Protection
            Authority Information Access: 
                OCSP - URI:http://internalname
                CA Issuers - URI:http://internalname
            X509v3 Certificate Policies: 
                Policy: 2.23.140.1.5.1.3
    Signature Algorithm: ecdsa-with-SHA256
    Signature Value:
        30:45:02:21:00:b0:b4:b9:9d:b3:8e:c7:8d:a8:a8:1b:a0:ae:
        d1:55:79:83:b8:4f:4f:19:2c:7c:43:b0:e0:70:c1:f2:ab:23:
        66:02:20:4f:1a:37:63:c8:f6:0a:12:53:d9:9e:84:0a:f1:61:
        8f:2a:b4:6a:b3:06:8d:1f:bc:c6:44:57:9f:f0:0a:0e:61
-----BEGIN CERTIFICATE-----
MIIBcDCCARagAwIBAgIBAzAKBggqhkjOPQQDAjAAMCAXDTEzMDcwMTAwMDAwMFoY
Dzk5OTgxMTMwMDAwMDAwWjAAMFkwEwYHKoZIzj0CAQYIKoZIzj0DAQcDQgAE5NCE
MZHz+SstyNehjvv8b2aJsTLGiDPVcBLYM6uO6c/KJ3vP9JjO3Bx+22DmhDV5//Md
kYgqx1O2I8z2ir5W4qN/MH0wEwYDVR0lBAwwCgYIKwYBBQUHAwQwUAYIKwYBBQUH
AQEERDBCMB8GCCsGAQUFBzABhhNodHRwOi8vaW50ZXJuYWxuYW1lMB8GCCsGAQUF
BzAChhNodHRwOi8vaW50ZXJuYWxuYW1lMBQGA1UdIAQNMAswCQYHZ4EMAQUBAzAK
BggqhkjOPQQDAgNIADBFAiEAsLS5nbOOx42oqBugrtFVeYO4T08ZLHxDsOBwwfKr
I2YCIE8aN2PI9goSU9mehArxYY8qtGqzBo0fvMZEV5/wCg5h
-----END CERTIFICATE-----
