Certificate:
    Data:
        Version: 3 (0x2)
        Serial Number:
            41:26:41:96:4b:9f:3d:d1:4f:ec:da:03
        Signature Algorithm: sha256WithRSAEncryption
        Issuer: CN = Lint CA, O = Lint, C = DE
        Validity
            Not Before: Sep  1 00:00:00 2023 GMT
            Not After : Sep  1 00:00:00 2024 GMT
        Subject: CN = Certificate, O = Lint, C = DE
        Subject Public Key Info:
            Public Key Algorithm: rsaEncryption
                RSA Public-Key: (2048 bit)
                Modulus:
                    00:b4:37:8d:9d:e4:fe:2a:73:df:92:1a:37:e7:37:
                    41:a2:3f:fe:72:9d:de:f0:65:46:51:36:ec:f0:bd:
                    96:c1:ca:8e:5c:19:01:b3:f9:1d:c3:33:78:0d:06:
                    d8:a6:f8:b4:53:5a:fe:72:46:56:88:41:05:e6:28:
                    bb:9d:d2:61:f5:8d:c9:9c:7b:c2:07:31:67:0c:35:
                    53:e4:69:90:51:2a:85:ca:41:c1:0d:72:5c:1a:d6:
                    3f:0a:f4:dd:f9:0e:24:29:fa:e8:1f:c4:1b:83:41:
                    d2:36:d1:7f:ee:d8:e4:44:0a:66:f8:8b:8e:4b:5c:
                    d2:ec:f1:97:c0:2c:67:a7:b2:2c:5e:e5:5b:85:e6:
                    92:f4:7f:cc:51:04:73:5a:17:f6:fc:d8:ea:03:c4:
                    f3:0b:53:f6:73:f9:e2:4d:5a:8e:54:3c:fa:c4:40:
                    d3:b7:2f:ab:1c:cf:bb:06:49:56:52:0d:e8:87:8b:
                    c6:ad:b4:6a:f4:79:f4:c8:ac:a2:d3:cf:03:24:9e:
                    f2:51:e5:97:70:0e:d6:dc:94:7f:ee:f3:bd:6f:46:
                    3a:2b:eb:29:7b:2a:92:d1:03:7a:d9:22:cc:4d:e3:
                    dd:f3:d9:bb:8d:18:f2:bf:98:b0:ca:f9:39:59:e2:
                    71:05:ac:ea:f5:61:52:65:c9:90:a1:91:9c:45:88:
                    62:b5
                Exponent: 65537 (0x10001)
        X509v3 extensions:
            X509v3 Authority Key Identifier: 
                keyid:73:8F:6A:0E:B2:E5:63:CB:0E:1B:22:D6:56:40:FA:96:A6:DE:B1:2C

            X509v3 Subject Key Identifier: 
                21:86:4F:4B:C0:DF:AE:90:1C:61:B5:7C:04:5E:05:89:2C:9C:FB:44
            X509v3 Extended Key Usage: 
                E-mail Protection
            X509v3 Subject Alternative Name: critical
                email:test@example.com
            Authority Information Access: 
                OCSP - URI:http://ocsp.example.com/ocsp
                OCSP - URI:http://ocsp.example.com/ocsp
                OCSP - URI:ldap://ocsp.example.com/C=DE

            X509v3 Certificate Policies: 
                Policy: 2.23.140.1.5.1.3

    Signature Algorithm: sha256WithRSAEncryption
         70:8f:99:59:33:77:e3:a9:85:82:91:fe:20:58:2e:e9:47:35:
         f2:78:4e:d9:80:5e:14:cd:11:8e:85:6e:ec:5f:17:de:94:51:
         e3:33:89:4d:07:02:f1:af:6c:07:13:76:64:34:bb:9a:1c:d9:
         f7:57:52:33:8c:59:41:7f:3e:f0:0e:a4:27:f1:0e:4a:08:3a:
         23:2a:ad:34:87:65:6e:df:16:67:07:16:85:e8:54:cd:87:3c:
         01:5b:ce:b6:3b:a6:da:9d:6b:7d:2e:25:7e:ed:e1:b6:9f:89:
         8c:5c:c9:96:52:92:4a:88:61:52:13:6b:46:fa:27:ed:a9:a4:
         ed:1f:d7:18:98:f8:0c:75:f9:10:4c:06:44:47:60:fc:f5:8a:
         45:78:48:c5:5f:dc:e8:37:65:b9:64:78:45:fe:7d:6c:81:46:
         cc:33:7b:1e:a6:54:f8:93:13:fe:5d:a4:94:fd:51:ce:4d:0d:
         b7:ad:2c:9b:9e:d0:80:91:2a:b0:16:8e:22:67:b7:e5:ca:e7:
         b8:9e:4c:35:63:20:0c:8b:f9:3e:82:0c:92:7e:74:4c:08:f4:
         1d:28:58:4b:de:e8:34:dc:bb:16:15:6b:ca:8d:c0:d1:32:d3:
         9e:f3:c5:6d:2c:c1:ba:90:ef:3f:54:4e:a6:af:12:b1:a1:90:
         c6:02:a3:0d
-----BEGIN CERTIFICATE-----
MIIEBzCCAu+gAwIBAgIMQSZBlkufPdFP7NoDMA0GCSqGSIb3DQEBCwUAMC4xEDAO
BgNVBAMMB0xpbnQgQ0ExDTALBgNVBAoMBExpbnQxCzAJBgNVBAYTAkRFMB4XDTIz
MDkwMTAwMDAwMFoXDTI0MDkwMTAwMDAwMFowMjEUMBIGA1UEAwwLQ2VydGlmaWNh
dGUxDTALBgNVBAoMBExpbnQxCzAJBgNVBAYTAkRFMIIBIjANBgkqhkiG9w0BAQEF
AAOCAQ8AMIIBCgKCAQEAtDeNneT+KnPfkho35zdBoj/+cp3e8GVGUTbs8L2WwcqO
XBkBs/kdwzN4DQbYpvi0U1r+ckZWiEEF5ii7ndJh9Y3JnHvCBzFnDDVT5GmQUSqF
ykHBDXJcGtY/CvTd+Q4kKfroH8Qbg0HSNtF/7tjkRApm+IuOS1zS7PGXwCxnp7Is
XuVbheaS9H/MUQRzWhf2/NjqA8TzC1P2c/niTVqOVDz6xEDTty+rHM+7BklWUg3o
h4vGrbRq9Hn0yKyi088DJJ7yUeWXcA7W3JR/7vO9b0Y6K+speyqS0QN62SLMTePd
89m7jRjyv5iwyvk5WeJxBazq9WFSZcmQoZGcRYhitQIDAQABo4IBHzCCARswHwYD
VR0jBBgwFoAUc49qDrLlY8sOGyLWVkD6lqbesSwwHQYDVR0OBBYEFCGGT0vA366Q
HGG1fAReBYksnPtEMBMGA1UdJQQMMAoGCCsGAQUFBwMEMB4GA1UdEQEB/wQUMBKB
EHRlc3RAZXhhbXBsZS5jb20wgY0GCCsGAQUFBwEBBIGAMH4wKAYIKwYBBQUHMAGG
HGh0dHA6Ly9vY3NwLmV4YW1wbGUuY29tL29jc3AwKAYIKwYBBQUHMAGGHGh0dHA6
Ly9vY3NwLmV4YW1wbGUuY29tL29jc3AwKAYIKwYBBQUHMAGGHGxkYXA6Ly9vY3Nw
LmV4YW1wbGUuY29tL0M9REUwFAYDVR0gBA0wCzAJBgdngQwBBQEDMA0GCSqGSIb3
DQEBCwUAA4IBAQBwj5lZM3fjqYWCkf4gWC7pRzXyeE7ZgF4UzRGOhW7sXxfelFHj
M4lNBwLxr2wHE3ZkNLuaHNn3V1IzjFlBfz7wDqQn8Q5KCDojKq00h2Vu3xZnBxaF
6FTNhzwBW862O6banWt9LiV+7eG2n4mMXMmWUpJKiGFSE2tG+iftqaTtH9cYmPgM
dfkQTAZER2D89YpFeEjFX9zoN2W5ZHhF/n1sgUbMM3seplT4kxP+XaSU/VHOTQ23
rSybntCAkSqwFo4iZ7flyue4nkw1YyAMi/k+ggySfnRMCPQdKFhL3ug03LsWFWvK
jcDRMtOe88VtLMG6kO8/VE6mrxKxoZDGAqMN
-----END CERTIFICATE-----
