Certificate:
    Data:
        Version: 3 (0x2)
        Serial Number: 3 (0x3)
        Signature Algorithm: ecdsa-with-SHA256
        Issuer: 
        Validity
            Not Before: Jul  1 00:00:00 2013 GMT
            Not After : Nov 30 00:00:00 9998 GMT
        Subject: 
        Subject Public Key Info:
            Public Key Algorithm: id-ecPublicKey
                Public-Key: (256 bit)
                pub:
                    04:ff:f8:b8:3e:49:fe:38:81:47:72:04:50:f3:28:
                    60:e6:6a:d2:3e:cf:61:10:2d:3e:1b:a5:68:29:07:
                    e6:12:6e:56:d2:c5:c9:57:88:14:c5:b8:39:9d:56:
                    b3:d5:fb:d6:f4:f6:4d:2b:36:c6:c4:f8:7c:d2:86:
                    57:56:07:04:66
                ASN1 OID: prime256v1
                NIST CURVE: P-256
        X509v3 extensions:
            X509v3 Extended Key Usage: 
                E-mail Protection
            Authority Information Access: 
                OCSP - URI:http://internalname
                CA Issuers - URI:http://internalname
            X509v3 Certificate Policies: 
                Policy: 2.23.140.1.5.1.1
    Signature Algorithm: ecdsa-with-SHA256
    Signature Value:
        30:44:02:20:23:1d:e4:1d:dc:ba:69:ab:20:9f:b1:1b:d8:b3:
        dd:53:ad:78:3e:36:f0:dd:56:ae:de:2b:52:f1:ef:e2:f5:1f:
        02:20:69:92:53:4f:9f:72:58:d6:76:e2:ac:fe:e3:dd:88:1d:
        50:68:cc:8a:17:b5:23:f7:3b:9d:6a:58:70:f1:98:7b
-----BEGIN CERTIFICATE-----
MIIBbzCCARagAwIBAgIBAzAKBggqhkjOPQQDAjAAMCAXDTEzMDcwMTAwMDAwMFoY
Dzk5OTgxMTMwMDAwMDAwWjAAMFkwEwYHKoZIzj0CAQYIKoZIzj0DAQcDQgAE//i4
Pkn+OIFHcgRQ8yhg5mrSPs9hEC0+G6VoKQfmEm5W0sXJV4gUxbg5nVaz1fvW9PZN
KzbGxPh80oZXVgcEZqN/MH0wEwYDVR0lBAwwCgYIKwYBBQUHAwQwUAYIKwYBBQUH
AQEERDBCMB8GCCsGAQUFBzABhhNodHRwOi8vaW50ZXJuYWxuYW1lMB8GCCsGAQUF
BzAChhNodHRwOi8vaW50ZXJuYWxuYW1lMBQGA1UdIAQNMAswCQYHZ4EMAQUBATAK
BggqhkjOPQQDAgNHADBEAiAjHeQd3LppqyCfsRvYs91TrXg+NvDdVq7eK1Lx7+L1
HwIgaZJTT59yWNZ24qz+492IHVBozIoXtSP3O51qWHDxmHs=
-----END CERTIFICATE-----