-------------Leaf-------------
Certificate:
    Data:
        Version: 3 (0x2)
        Serial Number: 3 (0x3)
        Signature Algorithm: ecdsa-with-SHA256
        Issuer: 
        Validity
            Not Before: Jul  1 00:00:00 2013 GMT
            Not After : Nov 30 00:00:00 9998 GMT
        Subject: 
        Subject Public Key Info:
            Public Key Algorithm: id-ecPublicKey
                Public-Key: (256 bit)
                pub:
                    04:2a:ba:ab:6a:1b:51:8d:a9:a3:59:d0:b1:39:a8:
                    b2:bb:a3:40:f3:1f:fe:7e:11:8c:f3:6f:30:39:c0:
                    4e:49:91:c5:b5:ae:49:67:78:c1:5b:c0:40:c0:ff:
                    ef:dc:54:d1:34:d3:4b:a0:ef:20:96:00:79:7f:be:
                    48:ee:81:5b:2c
                ASN1 OID: prime256v1
                NIST CURVE: P-256
        X509v3 extensions:
            X509v3 Extended Key Usage: 
                E-mail Protection
            Authority Information Access: 
                OCSP - URI:http://example.com
                CA Issuers - URI:https://example.com
            X509v3 Certificate Policies: 
                Policy: 2.23.140.1.5.1.1
    Signature Algorithm: ecdsa-with-SHA256
    Signature Value:
        30:45:02:21:00:8a:1f:29:4f:10:72:1f:25:8b:4d:f5:46:a7:
        2f:60:2e:86:ce:15:6c:26:61:ff:fb:79:36:b4:3e:df:65:6e:
        a7:02:20:2b:e1:88:3d:91:d2:b7:a7:35:20:3d:b8:a2:12:f6:
        2b:98:57:b9:c0:2b:e6:77:ae:9b:36:13:11:16:ff:d4:38
-----BEGIN CERTIFICATE-----
MIIBbzCCARWgAwIBAgIBAzAKBggqhkjOPQQDAjAAMCAXDTEzMDcwMTAwMDAwMFoY
Dzk5OTgxMTMwMDAwMDAwWjAAMFkwEwYHKoZIzj0CAQYIKoZIzj0DAQcDQgAEKrqr
ahtRjamjWdCxOaiyu6NA8x/+fhGM828wOcBOSZHFta5JZ3jBW8BAwP/v3FTRNNNL
oO8glgB5f75I7oFbLKN+MHwwEwYDVR0lBAwwCgYIKwYBBQUHAwQwTwYIKwYBBQUH
AQEEQzBBMB4GCCsGAQUFBzABhhJodHRwOi8vZXhhbXBsZS5jb20wHwYIKwYBBQUH
MAKGE2h0dHBzOi8vZXhhbXBsZS5jb20wFAYDVR0gBA0wCzAJBgdngQwBBQEBMAoG
CCqGSM49BAMCA0gAMEUCIQCKHylPEHIfJYtN9UanL2Auhs4VbCZh//t5NrQ+32Vu
pwIgK+GIPZHSt6c1ID24ohL2K5hXucAr5neumzYTERb/1Dg=
-----END CERTIFICATE-----
