Certificate:
    Data:
        Version: 3 (0x2)
        Serial Number:
            74:5a:c6:4c:d7:e3:ec:89:b3:22:ae:c9
        Signature Algorithm: sha256WithRSAEncryption
        Issuer: CN = Lint CA, O = Lint, C = DE
        Validity
            Not Before: Sep  1 00:00:00 2023 GMT
            Not After : Sep  1 00:00:00 2024 GMT
        Subject: CN = Certificate, O = Lint, C = DE
        Subject Public Key Info:
            Public Key Algorithm: rsaEncryption
                RSA Public-Key: (2048 bit)
                Modulus:
                    00:96:fe:66:6f:11:72:79:1e:e2:cd:7a:8a:d4:39:
                    0e:0d:08:50:71:37:82:b6:39:16:9b:d7:b3:9b:46:
                    14:52:af:9f:09:17:67:0c:c2:d5:00:f0:aa:aa:45:
                    c1:97:7c:7c:aa:3e:7a:b9:47:d5:82:90:68:8b:a6:
                    10:e3:40:96:f8:f1:a7:98:ef:e4:d2:32:4d:47:98:
                    12:93:16:86:ce:3e:ed:31:39:28:91:0e:5e:6f:ec:
                    e1:47:7d:71:a8:a7:a9:05:21:c8:8f:e2:3f:8d:2d:
                    da:77:d9:f3:06:c4:71:21:fe:61:61:8d:00:0e:22:
                    13:34:25:3a:54:c2:17:02:ca:04:50:5a:c7:c0:d9:
                    41:8f:86:0d:58:fb:72:e6:3e:fc:2f:18:6f:a5:9d:
                    aa:a0:c2:c4:c6:c9:e5:aa:32:50:3c:14:be:d1:be:
                    3b:32:99:9f:5f:40:9a:0e:20:ce:15:ad:41:89:1d:
                    65:64:61:35:31:ab:33:63:c3:43:e2:88:f2:cd:ce:
                    9b:cb:93:da:9c:c4:80:f7:73:ae:5a:dd:5a:f5:e8:
                    3e:be:c2:07:69:20:56:b2:47:cd:0e:7e:5d:d5:b7:
                    1f:62:a7:e8:1e:b9:5e:c7:bc:bf:dd:f5:a7:1d:e7:
                    4e:30:41:16:bd:9b:1c:37:de:b6:53:e7:71:36:7e:
                    5e:69
                Exponent: 65537 (0x10001)
        X509v3 extensions:
            X509v3 Authority Key Identifier: 
                keyid:5A:2F:23:67:76:FC:51:D5:86:5F:F1:6C:A5:65:62:FC:2C:06:24:A1

            X509v3 Subject Key Identifier: 
                FF:87:DE:1F:7C:39:0C:F2:1B:FF:D8:27:97:79:32:08:0D:B3:AE:32
            X509v3 Extended Key Usage: 
                E-mail Protection
            X509v3 Subject Alternative Name: critical
                email:test@example.com
            Authority Information Access: 
                OCSP - URI:http://ocsp1.example.com/ocsp
                OCSP - URI:http://ocsp2.example.com/ocsp
                OCSP - URI:http://ocsp3.example.com/ocsp
                CA Issuers - URI:http://issuers1.example.com/issuer
                CA Issuers - URI:http://issuers2.example.com/issuer
                CA Issuers - URI:http://issuers3.example.com/issuer

            X509v3 Certificate Policies: 
                Policy: 2.23.140.1.5.1.3

    Signature Algorithm: sha256WithRSAEncryption
         09:1c:41:1b:15:1c:92:68:75:50:6f:ea:dc:d7:6f:1a:3d:e6:
         1e:e4:72:b4:9b:10:83:c3:36:f5:e9:0d:45:6c:08:52:34:8f:
         dc:b8:88:fc:5b:b9:65:f1:39:29:3e:13:0d:1d:f5:70:45:29:
         e7:c1:dd:b3:e4:51:5d:95:1d:80:a7:50:a6:c5:e9:6d:a3:fd:
         1a:b6:ad:7a:dd:33:a2:4c:17:bd:85:fd:ca:c8:4b:e8:e9:b6:
         8b:57:cd:a1:f4:36:d3:92:75:ea:84:d5:75:d3:d0:67:84:cf:
         fc:0c:7c:47:19:fa:cf:f3:6b:7d:a7:13:87:7b:c5:1a:c6:12:
         5f:e6:ce:34:30:98:a3:b7:e1:ed:11:e0:ee:ff:7c:1b:be:b7:
         84:7e:5c:be:f5:ea:02:dc:3d:b2:38:f7:bb:09:fc:4f:95:e5:
         70:a0:41:3c:5a:95:ce:95:9f:f2:ff:7a:20:4a:91:cd:18:5e:
         af:a6:bc:3c:47:06:00:9b:91:8c:f6:6f:f8:8b:69:88:40:d5:
         32:80:12:f9:c6:7b:08:06:eb:6e:8e:9b:eb:99:77:a3:06:40:
         00:35:da:ad:db:13:40:6d:81:33:f1:39:0b:8c:d8:d2:4b:eb:
         f0:66:62:00:a8:d3:33:8b:13:ae:54:22:24:65:c5:82:3f:f3:
         54:24:1b:a8
-----BEGIN CERTIFICATE-----
MIIEnjCCA4agAwIBAgIMdFrGTNfj7ImzIq7JMA0GCSqGSIb3DQEBCwUAMC4xEDAO
BgNVBAMMB0xpbnQgQ0ExDTALBgNVBAoMBExpbnQxCzAJBgNVBAYTAkRFMB4XDTIz
MDkwMTAwMDAwMFoXDTI0MDkwMTAwMDAwMFowMjEUMBIGA1UEAwwLQ2VydGlmaWNh
dGUxDTALBgNVBAoMBExpbnQxCzAJBgNVBAYTAkRFMIIBIjANBgkqhkiG9w0BAQEF
AAOCAQ8AMIIBCgKCAQEAlv5mbxFyeR7izXqK1DkODQhQcTeCtjkWm9ezm0YUUq+f
CRdnDMLVAPCqqkXBl3x8qj56uUfVgpBoi6YQ40CW+PGnmO/k0jJNR5gSkxaGzj7t
MTkokQ5eb+zhR31xqKepBSHIj+I/jS3ad9nzBsRxIf5hYY0ADiITNCU6VMIXAsoE
UFrHwNlBj4YNWPty5j78LxhvpZ2qoMLExsnlqjJQPBS+0b47MpmfX0CaDiDOFa1B
iR1lZGE1MaszY8ND4ojyzc6by5PanMSA93OuWt1a9eg+vsIHaSBWskfNDn5d1bcf
YqfoHrlex7y/3fWnHedOMEEWvZscN962U+dxNn5eaQIDAQABo4IBtjCCAbIwHwYD
VR0jBBgwFoAUWi8jZ3b8UdWGX/FspWVi/CwGJKEwHQYDVR0OBBYEFP+H3h98OQzy
G//YJ5d5MggNs64yMBMGA1UdJQQMMAoGCCsGAQUFBwMEMB4GA1UdEQEB/wQUMBKB
EHRlc3RAZXhhbXBsZS5jb20wggEjBggrBgEFBQcBAQSCARUwggERMCkGCCsGAQUF
BzABhh1odHRwOi8vb2NzcDEuZXhhbXBsZS5jb20vb2NzcDApBggrBgEFBQcwAYYd
aHR0cDovL29jc3AyLmV4YW1wbGUuY29tL29jc3AwKQYIKwYBBQUHMAGGHWh0dHA6
Ly9vY3NwMy5leGFtcGxlLmNvbS9vY3NwMC4GCCsGAQUFBzAChiJodHRwOi8vaXNz
dWVyczEuZXhhbXBsZS5jb20vaXNzdWVyMC4GCCsGAQUFBzAChiJodHRwOi8vaXNz
dWVyczIuZXhhbXBsZS5jb20vaXNzdWVyMC4GCCsGAQUFBzAChiJodHRwOi8vaXNz
dWVyczMuZXhhbXBsZS5jb20vaXNzdWVyMBQGA1UdIAQNMAswCQYHZ4EMAQUBAzAN
BgkqhkiG9w0BAQsFAAOCAQEACRxBGxUckmh1UG/q3NdvGj3mHuRytJsQg8M29ekN
RWwIUjSP3LiI/Fu5ZfE5KT4TDR31cEUp58Hds+RRXZUdgKdQpsXpbaP9Gratet0z
okwXvYX9yshL6Om2i1fNofQ205J16oTVddPQZ4TP/Ax8Rxn6z/NrfacTh3vFGsYS
X+bONDCYo7fh7RHg7v98G763hH5cvvXqAtw9sjj3uwn8T5XlcKBBPFqVzpWf8v96
IEqRzRher6a8PEcGAJuRjPZv+ItpiEDVMoAS+cZ7CAbrbo6b65l3owZAADXardsT
QG2BM/E5C4zY0kvr8GZiAKjTM4sTrlQiJGXFgj/zVCQbqA==
-----END CERTIFICATE-----
