Certificate:
    Data:
        Version: 3 (0x2)
        Serial Number: 3 (0x3)
        Signature Algorithm: ecdsa-with-SHA256
        Issuer: 
        Validity
            Not Before: Jul  1 00:00:00 2013 GMT
            Not After : Nov 30 00:00:00 9998 GMT
        Subject: 
        Subject Public Key Info:
            Public Key Algorithm: id-ecPublicKey
                Public-Key: (256 bit)
                pub:
                    04:5a:a5:56:3a:03:7d:75:47:a2:b8:f2:30:36:59:
                    c5:e4:89:34:2c:6e:c5:74:fd:2c:6d:1c:21:e7:f1:
                    d1:cc:04:f2:aa:88:f5:dd:52:20:57:b8:95:79:97:
                    51:ea:02:ea:22:f3:d9:00:17:e8:f6:05:60:e2:8e:
                    96:1f:b9:df:4d
                ASN1 OID: prime256v1
                NIST CURVE: P-256
        X509v3 extensions:
            X509v3 Extended Key Usage: 
                E-mail Protection
            Authority Information Access: 
                OCSP - URI:http://example.com
                CA Issuers - URI:http://example.com
            X509v3 Certificate Policies: 
                Policy: 2.23.140.1.5.1.3
    Signature Algorithm: ecdsa-with-SHA256
    Signature Value:
        30:45:02:21:00:93:d3:05:1a:7c:5c:59:fa:f7:16:99:12:3b:
        a5:16:00:49:56:bd:0a:c4:8c:eb:a6:a6:d2:57:f5:96:2c:dc:
        a2:02:20:52:0e:73:ef:98:16:9b:5c:04:36:04:5c:e9:cf:3c:
        f3:b3:e8:b1:77:84:73:f9:d2:63:a2:8d:3a:29:d7:b4:05
-----BEGIN CERTIFICATE-----
MIIBbjCCARSgAwIBAgIBAzAKBggqhkjOPQQDAjAAMCAXDTEzMDcwMTAwMDAwMFoY
Dzk5OTgxMTMwMDAwMDAwWjAAMFkwEwYHKoZIzj0CAQYIKoZIzj0DAQcDQgAEWqVW
OgN9dUeiuPIwNlnF5Ik0LG7FdP0sbRwh5/HRzATyqoj13VIgV7iVeZdR6gLqIvPZ
ABfo9gVg4o6WH7nfTaN9MHswEwYDVR0lBAwwCgYIKwYBBQUHAwQwTgYIKwYBBQUH
AQEEQjBAMB4GCCsGAQUFBzABhhJodHRwOi8vZXhhbXBsZS5jb20wHgYIKwYBBQUH
MAKGEmh0dHA6Ly9leGFtcGxlLmNvbTAUBgNVHSAEDTALMAkGB2eBDAEFAQMwCgYI
KoZIzj0EAwIDSAAwRQIhAJPTBRp8XFn69xaZEjulFgBJVr0KxIzrpqbSV/WWLNyi
AiBSDnPvmBabXAQ2BFzpzzzzs+ixd4Rz+dJjoo06Kde0BQ==
-----END CERTIFICATE-----
