Certificate:
    Data:
        Version: 3 (0x2)
        Serial Number:
            85:6e:56:e0:d8:1b:75:d7:9e:3f:90:49
        Signature Algorithm: sha256WithRSAEncryption
        Issuer: CN = Lint CA, O = Lint, C = DE
        Validity
            Not Before: Sep  1 00:00:00 2023 GMT
            Not After : Sep  1 00:00:00 2024 GMT
        Subject: CN = Certificate, O = Lint, C = DE
        Subject Public Key Info:
            Public Key Algorithm: rsaEncryption
                RSA Public-Key: (2048 bit)
                Modulus:
                    00:b1:7a:9b:36:eb:63:86:22:0a:d2:03:fa:71:14:
                    35:c1:5a:f3:8e:73:77:2d:db:72:a8:68:24:06:e4:
                    18:8d:65:13:35:43:36:af:1f:e9:31:3d:5d:00:bd:
                    3f:c1:f4:c1:33:fa:b6:36:8e:15:7a:7c:32:67:c3:
                    a2:4a:b1:f5:ff:88:f2:c7:65:1c:8f:69:04:15:39:
                    96:62:8c:1c:d8:e5:d5:94:fd:8d:db:6b:2e:4d:89:
                    52:51:a2:86:e0:72:b2:0d:4c:02:a1:d8:ff:c4:57:
                    e3:9d:b4:6c:5b:e1:5a:2f:d1:73:b5:2b:3f:1f:8b:
                    51:dd:c0:c4:f8:b0:68:21:49:ab:95:25:5a:4b:0e:
                    30:6d:09:f8:ff:6d:d5:f3:9d:56:1c:e7:8a:1e:b9:
                    e9:4d:44:23:bd:33:0b:47:da:16:2c:3e:ef:ed:8d:
                    57:a5:3b:f1:25:ed:c6:17:ea:2b:3b:ca:85:c9:ac:
                    71:14:4e:8b:f5:d6:a3:cc:6b:05:c1:28:c0:61:74:
                    db:4a:81:f5:76:c8:43:0b:d1:a8:ce:d7:4e:88:67:
                    5d:33:49:2d:c8:e1:08:31:ef:bc:12:93:e5:32:8e:
                    df:16:d0:1f:7b:72:53:34:65:0b:72:12:69:bb:c0:
                    fb:8f:6a:7e:af:a5:6c:97:04:58:d5:c6:be:77:64:
                    07:9b
                Exponent: 65537 (0x10001)
        X509v3 extensions:
            X509v3 Authority Key Identifier: 
                keyid:F5:4E:91:89:7E:AF:1C:0C:87:90:82:F6:0A:B6:7F:20:4A:76:01:34

            X509v3 Subject Key Identifier: 
                08:13:4B:D8:0B:9E:AC:34:66:88:85:15:F5:DD:4E:60:90:FB:D7:F7
            X509v3 Extended Key Usage: 
                E-mail Protection
            X509v3 Subject Alternative Name: 
                email:test@example.com
            Authority Information Access: 
                OCSP - URI:http://ocsp.example.com/ocsp
                CA Issuers - URI:http://internalname

            X509v3 Certificate Policies: 
                Policy: 2.23.140.1.5.1.3

    Signature Algorithm: sha256WithRSAEncryption
         5f:dd:0f:b0:06:04:7a:fc:05:7d:d8:22:04:9e:56:cd:2c:37:
         81:02:c3:fc:8f:fb:5d:7f:37:fa:49:71:78:b4:55:a9:c0:83:
         50:42:fb:98:cd:4e:ce:37:34:6c:03:97:8e:f7:a2:47:28:b8:
         5a:03:a0:6e:42:d1:d2:36:b8:61:17:c1:af:ec:a1:aa:02:59:
         f3:9a:4b:7a:29:07:c6:dd:bb:30:56:20:e6:b9:59:22:89:7e:
         fd:c4:99:43:64:19:a9:a6:16:c5:07:f2:df:2e:af:b6:48:fe:
         75:58:2f:27:06:f6:d3:81:8b:dd:6b:75:a1:ed:e1:64:92:72:
         7a:22:d9:b8:56:a9:48:e9:fb:4d:a6:ec:89:c7:a0:dc:2c:56:
         50:a0:74:f7:2c:6b:09:55:83:28:65:d1:d2:a3:24:57:b3:5a:
         5e:d8:18:1f:a8:e0:1d:a6:a4:28:30:a6:ed:f0:72:d9:26:94:
         c4:1b:24:da:f5:32:71:0b:08:98:88:55:00:0a:b9:cf:67:54:
         3c:dc:3a:f0:a5:2d:24:c7:93:23:01:3c:c7:69:30:bf:4a:f4:
         f0:e4:5a:fa:47:5a:e0:74:14:cb:1f:ea:2a:29:95:8e:b4:cb:
         24:a2:e5:cb:d0:90:aa:92:5b:b8:70:a2:c4:c9:e2:2e:58:49:
         b8:8f:00:0c
-----BEGIN CERTIFICATE-----
MIIDzjCCAragAwIBAgINAIVuVuDYG3XXnj+QSTANBgkqhkiG9w0BAQsFADAuMRAw
DgYDVQQDDAdMaW50IENBMQ0wCwYDVQQKDARMaW50MQswCQYDVQQGEwJERTAeFw0y
MzA5MDEwMDAwMDBaFw0yNDA5MDEwMDAwMDBaMDIxFDASBgNVBAMMC0NlcnRpZmlj
YXRlMQ0wCwYDVQQKDARMaW50MQswCQYDVQQGEwJERTCCASIwDQYJKoZIhvcNAQEB
BQADggEPADCCAQoCggEBALF6mzbrY4YiCtID+nEUNcFa845zdy3bcqhoJAbkGI1l
EzVDNq8f6TE9XQC9P8H0wTP6tjaOFXp8MmfDokqx9f+I8sdlHI9pBBU5lmKMHNjl
1ZT9jdtrLk2JUlGihuBysg1MAqHY/8RX4520bFvhWi/Rc7UrPx+LUd3AxPiwaCFJ
q5UlWksOMG0J+P9t1fOdVhznih656U1EI70zC0faFiw+7+2NV6U78SXtxhfqKzvK
hcmscRROi/XWo8xrBcEowGF020qB9XbIQwvRqM7XTohnXTNJLcjhCDHvvBKT5TKO
3xbQH3tyUzRlC3ISabvA+49qfq+lbJcEWNXGvndkB5sCAwEAAaOB5jCB4zAfBgNV
HSMEGDAWgBT1TpGJfq8cDIeQgvYKtn8gSnYBNDAdBgNVHQ4EFgQUCBNL2AuerDRm
iIUV9d1OYJD71/cwEwYDVR0lBAwwCgYIKwYBBQUHAwQwGwYDVR0RBBQwEoEQdGVz
dEBleGFtcGxlLmNvbTBZBggrBgEFBQcBAQRNMEswKAYIKwYBBQUHMAGGHGh0dHA6
Ly9vY3NwLmV4YW1wbGUuY29tL29jc3AwHwYIKwYBBQUHMAKGE2h0dHA6Ly9pbnRl
cm5hbG5hbWUwFAYDVR0gBA0wCzAJBgdngQwBBQEDMA0GCSqGSIb3DQEBCwUAA4IB
AQBf3Q+wBgR6/AV92CIEnlbNLDeBAsP8j/tdfzf6SXF4tFWpwINQQvuYzU7ONzRs
A5eO96JHKLhaA6BuQtHSNrhhF8Gv7KGqAlnzmkt6KQfG3bswViDmuVkiiX79xJlD
ZBmpphbFB/LfLq+2SP51WC8nBvbTgYvda3Wh7eFkknJ6Itm4VqlI6ftNpuyJx6Dc
LFZQoHT3LGsJVYMoZdHSoyRXs1pe2BgfqOAdpqQoMKbt8HLZJpTEGyTa9TJxCwiY
iFUACrnPZ1Q83DrwpS0kx5MjATzHaTC/SvTw5Fr6R1rgdBTLH+oqKZWOtMskouXL
0JCqklu4cKLEyeIuWEm4jwAM
-----END CERTIFICATE-----
