Certificate:
    Data:
        Version: 3 (0x2)
        Serial Number:
            22:b2:8c:fd:4d:f9:a8:99:5c:df:e4:e1:7d:ac:b7:28:42:04:d7:66
        Signature Algorithm: sha256WithRSAEncryption
        Issuer: C = US
        Validity
            Not Before: Feb 14 18:26:57 2024 GMT
            Not After : Feb 13 18:26:57 2025 GMT
        Subject: C = US
        Subject Public Key Info:
            Public Key Algorithm: rsaEncryption
                Public-Key: (4096 bit)
                Modulus:
                    00:c3:f2:b7:e8:42:70:bd:84:b0:12:7c:a3:a6:dc:
                    c2:60:b7:02:b2:f4:b8:1a:1e:6d:4d:e8:af:2d:58:
                    4f:95:4c:bd:47:46:68:d4:93:ff:68:85:f8:ca:71:
                    ba:f5:dd:9a:19:95:c9:3b:66:17:e9:81:77:ca:d7:
                    b8:da:85:fb:f8:51:44:9e:1b:ad:5f:3f:7c:da:1c:
                    45:13:01:cd:17:ce:fd:23:b7:25:57:33:7c:e2:6d:
                    2e:47:c1:36:2d:21:b7:10:32:a5:c8:54:49:d1:88:
                    c8:8b:c4:56:e4:79:f4:ee:9e:9a:ec:0c:1b:01:6a:
                    51:c2:19:04:42:31:1e:ae:92:78:8e:eb:42:8e:e3:
                    3d:7b:d3:33:bb:31:9a:48:a3:26:46:89:4c:9a:dd:
                    f0:ee:98:23:70:2b:33:69:9f:1b:52:ea:39:d0:eb:
                    c8:7a:36:bf:8b:6a:57:0b:03:c3:8f:a0:d3:cb:2d:
                    dc:20:00:11:b1:3b:8c:bb:6c:2a:38:29:2a:1c:41:
                    ba:a4:57:52:87:fc:3f:f7:63:02:62:de:61:9e:58:
                    14:a7:85:13:c3:8a:f5:18:c8:50:ba:f7:a7:90:96:
                    13:dc:44:e6:bf:71:dd:b7:af:89:21:9c:b9:58:1a:
                    be:b6:0c:b2:26:14:40:67:66:ce:45:8e:da:ca:8e:
                    b6:4d:6c:7c:9c:0a:6b:d3:84:56:09:0f:46:3e:19:
                    42:94:01:ce:56:12:9b:69:8e:19:ad:0b:3b:be:7b:
                    27:d0:10:83:a7:a4:0b:ae:eb:1f:8f:16:22:68:0d:
                    58:ae:2c:b4:e4:88:89:23:1d:29:6f:da:cb:b9:69:
                    c7:4e:21:1f:7c:ec:76:64:f1:4e:84:d4:f3:f8:b9:
                    1f:f0:7a:96:4e:00:a1:82:d9:35:c6:a8:72:7c:67:
                    ca:13:1c:30:be:cc:e2:83:4e:b4:aa:01:de:06:86:
                    b4:f9:0b:3c:57:4c:0b:73:ea:14:7f:4b:f1:29:b5:
                    3c:80:0f:57:52:95:5c:63:b1:6f:a3:2e:d9:5b:27:
                    84:6d:d2:02:ad:91:40:3e:cb:8b:d5:fc:2c:76:44:
                    6b:55:28:4f:09:ad:64:44:bd:31:d1:f5:96:e4:e9:
                    10:6f:a1:ab:b3:98:ea:01:4f:fa:a4:6f:d3:21:33:
                    b7:a9:2f:6d:5a:de:5d:d5:53:bf:03:39:91:57:1c:
                    60:3b:b0:46:08:1f:0d:ef:44:67:85:42:53:a3:2c:
                    bd:14:c0:eb:6c:c1:c8:90:b2:c9:f6:ff:5d:fe:80:
                    7a:7f:ab:5e:10:57:b6:29:20:97:1c:c4:08:39:ac:
                    b3:c5:c1:25:89:8b:b4:59:60:48:50:64:bd:af:a5:
                    69:25:69
                Exponent: 65537 (0x10001)
        X509v3 extensions:
            X509v3 Subject Key Identifier: 
                5E:3C:DE:9B:05:CB:3B:E0:7F:38:65:51:A7:12:D5:92:A2:FD:2D:23
            X509v3 Basic Constraints: critical
                CA:TRUE
            X509v3 Authority Key Identifier: 
                DirName:/C=US
                serial:22:B2:8C:FD:4D:F9:A8:99:5C:DF:E4:E1:7D:AC:B7:28:42:04:D7:66
            X509v3 Extended Key Usage: 
                E-mail Protection
            X509v3 Certificate Policies: 
                Policy: 2.23.140.1.5.1.3
            X509v3 Subject Alternative Name: 
                email:user@example.com
    Signature Algorithm: sha256WithRSAEncryption
    Signature Value:
        84:1e:d4:e8:07:01:39:ec:c6:51:92:ba:88:37:54:43:13:46:
        cb:39:99:80:03:ce:15:84:18:91:67:17:41:6b:ba:d1:c1:bd:
        ba:ca:3a:d3:31:4a:0b:e3:a4:3a:67:46:99:68:32:3c:89:32:
        5d:e1:85:d5:60:57:6a:ab:79:c8:00:24:4c:62:a6:a7:5e:54:
        02:2e:c5:fe:31:41:95:79:ad:df:76:5a:72:29:72:9d:60:31:
        11:3b:85:dd:2b:be:fb:1b:56:1c:59:2d:48:87:9d:f5:e3:e1:
        12:f4:98:d4:6c:86:f9:71:91:66:d7:90:0d:b1:53:ea:ad:3d:
        ad:97:4f:b4:89:54:4e:5e:81:23:ae:f3:6f:6d:a0:f7:a3:af:
        20:41:44:e7:74:e8:3a:7c:a3:38:cb:a0:4e:3d:49:10:c8:8a:
        03:ea:ec:a2:f5:45:ac:af:f9:a2:a7:81:44:90:c5:ad:76:02:
        42:9f:d6:6e:23:73:17:6f:25:54:18:fc:97:0f:a2:b2:0a:c1:
        e1:9e:bb:ba:51:fa:4e:38:65:0a:d2:b3:9a:8a:c1:18:0f:bd:
        3c:fa:1e:12:22:76:de:82:b5:40:b3:74:b8:09:5e:17:c4:25:
        d7:dc:f4:5d:09:56:a0:3c:12:06:0d:02:3f:c8:3f:5d:16:27:
        f4:0d:6f:f9:0c:aa:d2:d3:8e:f8:7e:61:9f:dd:08:c0:9a:6e:
        21:b9:64:e0:cd:0b:17:c2:74:e6:6b:f9:22:c3:b0:42:18:59:
        c9:05:00:18:e4:64:9f:9c:d5:52:a3:56:c2:5b:1c:56:85:fa:
        a2:1e:46:09:ab:dd:29:94:46:69:a7:ec:8e:dd:7c:37:a8:35:
        cc:64:a0:bd:46:12:e6:5b:d4:42:9b:fa:a8:d1:29:a0:1a:07:
        b7:42:35:23:4a:f9:95:3b:f4:c9:8c:f9:27:c6:f1:4b:3d:93:
        e5:7f:57:29:7b:5e:4d:13:9a:c1:6c:4f:85:c1:ed:95:8b:9c:
        43:89:de:c5:e5:a8:f1:ce:b2:2d:e9:cf:9d:c4:ed:54:f3:86:
        21:3b:c9:61:c3:eb:a4:74:66:cb:b7:f6:01:81:2c:4e:d5:9d:
        1e:b0:5a:d2:cd:32:c6:0b:35:60:55:5f:13:29:20:2e:64:3b:
        9f:5f:f4:3f:2b:8f:d2:3e:5d:d4:7b:e7:dd:b0:c2:bb:a8:86:
        4c:9e:be:6d:de:ca:ef:5e:fb:ac:7c:0d:51:83:dc:0b:4d:dc:
        0f:9b:94:7f:45:7f:a7:f0:5e:21:6f:69:ea:e5:71:50:23:47:
        a2:9d:4d:f4:7d:9c:d5:9b:47:3d:18:b0:60:da:08:cd:f0:b9:
        2e:79:62:a4:23:77:45:2b
-----BEGIN CERTIFICATE-----
MIIFWDCCA0CgAwIBAgIUIrKM/U35qJlc3+Thfay3KEIE12YwDQYJKoZIhvcNAQEL
BQAwDTELMAkGA1UEBhMCVVMwHhcNMjQwMjE0MTgyNjU3WhcNMjUwMjEzMTgyNjU3
WjANMQswCQYDVQQGEwJVUzCCAiIwDQYJKoZIhvcNAQEBBQADggIPADCCAgoCggIB
AMPyt+hCcL2EsBJ8o6bcwmC3ArL0uBoebU3ory1YT5VMvUdGaNST/2iF+MpxuvXd
mhmVyTtmF+mBd8rXuNqF+/hRRJ4brV8/fNocRRMBzRfO/SO3JVczfOJtLkfBNi0h
txAypchUSdGIyIvEVuR59O6emuwMGwFqUcIZBEIxHq6SeI7rQo7jPXvTM7sxmkij
JkaJTJrd8O6YI3ArM2mfG1LqOdDryHo2v4tqVwsDw4+g08st3CAAEbE7jLtsKjgp
KhxBuqRXUof8P/djAmLeYZ5YFKeFE8OK9RjIULr3p5CWE9xE5r9x3beviSGcuVga
vrYMsiYUQGdmzkWO2sqOtk1sfJwKa9OEVgkPRj4ZQpQBzlYSm2mOGa0LO757J9AQ
g6ekC67rH48WImgNWK4stOSIiSMdKW/ay7lpx04hH3zsdmTxToTU8/i5H/B6lk4A
oYLZNcaocnxnyhMcML7M4oNOtKoB3gaGtPkLPFdMC3PqFH9L8Sm1PIAPV1KVXGOx
b6Mu2VsnhG3SAq2RQD7Li9X8LHZEa1UoTwmtZES9MdH1luTpEG+hq7OY6gFP+qRv
0yEzt6kvbVreXdVTvwM5kVccYDuwRggfDe9EZ4VCU6MsvRTA62zByJCyyfb/Xf6A
en+rXhBXtikglxzECDmss8XBJYmLtFlgSFBkva+laSVpAgMBAAGjga8wgawwHQYD
VR0OBBYEFF483psFyzvgfzhlUacS1ZKi/S0jMA8GA1UdEwEB/wQFMAMBAf8wMgYD
VR0jBCswKaERpA8wDTELMAkGA1UEBhMCVVOCFCKyjP1N+aiZXN/k4X2styhCBNdm
MBMGA1UdJQQMMAoGCCsGAQUFBwMEMBQGA1UdIAQNMAswCQYHZ4EMAQUBAzAbBgNV
HREEFDASgRB1c2VyQGV4YW1wbGUuY29tMA0GCSqGSIb3DQEBCwUAA4ICAQCEHtTo
BwE57MZRkrqIN1RDE0bLOZmAA84VhBiRZxdBa7rRwb26yjrTMUoL46Q6Z0aZaDI8
iTJd4YXVYFdqq3nIACRMYqanXlQCLsX+MUGVea3fdlpyKXKdYDERO4XdK777G1Yc
WS1Ih5314+ES9JjUbIb5cZFm15ANsVPqrT2tl0+0iVROXoEjrvNvbaD3o68gQUTn
dOg6fKM4y6BOPUkQyIoD6uyi9UWsr/mip4FEkMWtdgJCn9ZuI3MXbyVUGPyXD6Ky
CsHhnru6UfpOOGUK0rOaisEYD708+h4SInbegrVAs3S4CV4XxCXX3PRdCVagPBIG
DQI/yD9dFif0DW/5DKrS0474fmGf3QjAmm4huWTgzQsXwnTma/kiw7BCGFnJBQAY
5GSfnNVSo1bCWxxWhfqiHkYJq90plEZpp+yO3Xw3qDXMZKC9RhLmW9RCm/qo0Smg
Gge3QjUjSvmVO/TJjPknxvFLPZPlf1cpe15NE5rBbE+Fwe2Vi5xDid7F5ajxzrIt
6c+dxO1U84YhO8lhw+ukdGbLt/YBgSxO1Z0esFrSzTLGCzVgVV8TKSAuZDufX/Q/
K4/SPl3Ue+fdsMK7qIZMnr5t3srvXvusfA1Rg9wLTdwPm5R/RX+n8F4hb2nq5XFQ
I0einU30fZzVm0c9GLBg2gjN8LkueWKkI3dFKw==
-----END CERTIFICATE-----