ertificate:
    Data:
        Version: 3 (0x2)
        Serial Number: 3 (0x3)
        Signature Algorithm: ecdsa-with-SHA256
        Issuer: 
        Validity
            Not Before: Feb 13 22:41:43 2024 GMT
            Not After : Nov 30 00:00:00 9998 GMT
        Subject: 
        Subject Public Key Info:
            Public Key Algorithm: id-ecPublicKey
                Public-Key: (256 bit)
                pub:
                    04:60:39:4c:31:a8:73:c7:9f:0e:eb:42:8c:ee:dc:
                    4a:99:ff:f6:16:2b:d9:da:a0:70:56:7c:d8:19:55:
                    73:8a:c9:1a:1c:5f:63:94:fd:45:6a:bf:7c:8d:63:
                    05:25:cf:66:28:9e:e0:61:42:6a:15:87:b4:5d:be:
                    f9:90:14:90:38
                ASN1 OID: prime256v1
                NIST CURVE: P-256
        X509v3 extensions:
            X509v3 Extended Key Usage: 
                E-mail Protection
            X509v3 Authority Key Identifier: 
                30:3D:13:3B:33:44:3A:44:33:3A:35:30:3A:41:35:3A:44:36:3A:41:30:3A:41:44:3A:45:45:3A:46:33:3A:34:41:3A:36:30:3A:30:41:3A:36:35:3A:44:33:3A:32:31:3A:44:34:3A:46:38:3A:46:38:3A:44:36:3A:30:46
            X509v3 Certificate Policies: 
                Policy: 2.23.140.1.5.1.3
    Signature Algorithm: ecdsa-with-SHA256
    Signature Value:
        30:46:02:21:00:f1:95:21:f6:11:f5:ec:e1:75:22:72:dc:3a:
        af:5a:79:97:64:50:5e:bf:c3:67:93:61:74:cb:a8:29:42:5f:
        e7:02:21:00:ae:6b:4e:55:27:64:6e:5f:a9:a5:13:1d:ec:ca:
        df:7d:76:ab:6e:ed:ab:6e:a5:87:2d:19:69:7f:59:0e:d1:b4
-----BEGIN CERTIFICATE-----
MIIBazCCARCgAwIBAgIBAzAKBggqhkjOPQQDAjAAMCAXDTI0MDIxMzIyNDE0M1oY
Dzk5OTgxMTMwMDAwMDAwWjAAMFkwEwYHKoZIzj0CAQYIKoZIzj0DAQcDQgAEYDlM
Mahzx58O60KM7txKmf/2FivZ2qBwVnzYGVVziskaHF9jlP1Far98jWMFJc9mKJ7g
YUJqFYe0Xb75kBSQOKN5MHcwEwYDVR0lBAwwCgYIKwYBBQUHAwQwSgYDVR0jBEMw
QYA/MD0TOzNEOkQzOjUwOkE1OkQ2OkEwOkFEOkVFOkYzOjRBOjYwOjBBOjY1OkQz
OjIxOkQ0OkY4OkY4OkQ2OjBGMBQGA1UdIAQNMAswCQYHZ4EMAQUBAzAKBggqhkjO
PQQDAgNJADBGAiEA8ZUh9hH17OF1InLcOq9aeZdkUF6/w2eTYXTLqClCX+cCIQCu
a05VJ2RuX6mlEx3syt99dqtu7atupYctGWl/WQ7RtA==
-----END CERTIFICATE-----
