Certificate:
    Data:
        Version: 3 (0x2)
        Serial Number: 3 (0x3)
        Signature Algorithm: ecdsa-with-SHA256
        Issuer: 
        Validity
            Not Before: Sep  2 00:00:00 2023 GMT
            Not After : Nov 30 00:00:00 9998 GMT
        Subject: CN = johnsmith@example.com
        Subject Public Key Info:
            Public Key Algorithm: id-ecPublicKey
                Public-Key: (256 bit)
                pub:
                    04:30:eb:57:97:dc:90:9a:27:8f:7f:39:80:fa:21:
                    aa:3d:48:b1:35:6d:39:97:cf:9e:a4:ca:42:22:0c:
                    b2:71:67:42:bb:f4:a3:56:4a:51:fc:5e:0f:ec:ed:
                    98:9e:11:cf:f0:8a:68:62:c4:bf:8f:7b:65:ec:30:
                    69:d5:64:41:76
                ASN1 OID: prime256v1
                NIST CURVE: P-256
        X509v3 extensions:
            X509v3 Certificate Policies: 
                Policy: 2.23.140.1.2.1

    Signature Algorithm: ecdsa-with-SHA256
         30:46:02:21:00:ab:fa:9a:25:c9:b9:5f:c3:7c:bf:c1:dd:d2:
         dc:4f:00:ad:1d:b7:18:94:0f:a2:37:9d:34:13:b7:cf:7d:a1:
         da:02:21:00:f3:20:3b:d8:74:0e:b9:8d:6e:7a:74:d1:00:c8:
         72:fb:2c:34:6d:c0:c4:7e:5b:25:ef:04:27:5c:88:22:47:6f
-----BEGIN CERTIFICATE-----
MIIBKDCBzqADAgECAgEDMAoGCCqGSM49BAMCMAAwIBcNMjMwOTAyMDAwMDAwWhgP
OTk5ODExMzAwMDAwMDBaMCAxHjAcBgNVBAMMFWpvaG5zbWl0aEBleGFtcGxlLmNv
bTBZMBMGByqGSM49AgEGCCqGSM49AwEHA0IABDDrV5fckJonj385gPohqj1IsTVt
OZfPnqTKQiIMsnFnQrv0o1ZKUfxeD+ztmJ4Rz/CKaGLEv497ZewwadVkQXajFzAV
MBMGA1UdIAQMMAowCAYGZ4EMAQIBMAoGCCqGSM49BAMCA0kAMEYCIQCr+polyblf
w3y/wd3S3E8ArR23GJQPojedNBO3z32h2gIhAPMgO9h0DrmNbnp00QDIcvssNG3A
xH5bJe8EJ1yIIkdv
-----END CERTIFICATE-----