Certificate:
    Data:
        Version: 3 (0x2)
        Serial Number: 3 (0x3)
        Signature Algorithm: ecdsa-with-SHA256
        Issuer: 
        Validity
            Not Before: Sep  1 00:00:00 2023 GMT
            Not After : Nov 30 00:00:00 9998 GMT
        Subject: 
        Subject Public Key Info:
            Public Key Algorithm: id-ecPublicKey
                Public-Key: (256 bit)
                pub:
                    04:51:a4:d5:79:b9:32:be:a9:71:c1:d3:6c:9a:19:
                    94:d0:70:1f:64:bc:61:4e:a6:fc:5e:9f:ba:fb:4d:
                    b6:8a:a4:a0:2f:e6:13:16:f1:39:65:9c:02:ae:36:
                    22:a4:b6:59:49:02:ad:ec:3f:18:9c:93:32:42:6c:
                    9d:f8:9d:3a:bf
                ASN1 OID: prime256v1
                NIST CURVE: P-256
        X509v3 extensions:
            X509v3 Certificate Policies: 
                Policy: 2.23.140.1.5.4.3
            qcStatements: critical
                0.
    Signature Algorithm: ecdsa-with-SHA256
    Signature Value:
        30:44:02:20:17:97:15:1f:4f:72:1a:48:91:9d:b8:14:b7:61:
        96:cc:12:e1:5d:7a:47:4a:b2:98:31:81:70:fe:f4:1a:c9:a2:
        02:20:3d:1d:9c:00:cc:76:94:22:bb:37:cc:5c:5e:91:53:f9:
        1d:7b:0b:e9:01:54:38:16:85:3f:c0:10:3e:5d:df:bc
-----BEGIN CERTIFICATE-----
MIIBGjCBwqADAgECAgEDMAoGCCqGSM49BAMCMAAwIBcNMjMwOTAxMDAwMDAwWhgP
OTk5ODExMzAwMDAwMDBaMAAwWTATBgcqhkjOPQIBBggqhkjOPQMBBwNCAARRpNV5
uTK+qXHB02yaGZTQcB9kvGFOpvxen7r7TbaKpKAv5hMW8TllnAKuNiKktllJAq3s
PxickzJCbJ34nTq/oyswKTAUBgNVHSAEDTALMAkGB2eBDAEFBAMwEQYIKwYBBQUH
AQMBAf8EAjAAMAoGCCqGSM49BAMCA0cAMEQCIBeXFR9PchpIkZ24FLdhlswS4V16
R0qymDGBcP70GsmiAiA9HZwAzHaUIrs3zFxekVP5HXsL6QFUOBaFP8AQPl3fvA==
-----END CERTIFICATE-----
