Certificate:
    Data:
        Version: 3 (0x2)
        Serial Number: 3 (0x3)
        Signature Algorithm: ecdsa-with-SHA256
        Issuer: 
        Validity
            Not Before: Sep  1 00:00:00 2023 GMT
            Not After : Nov 30 00:00:00 9998 GMT
        Subject: 
        Subject Public Key Info:
            Public Key Algorithm: id-ecPublicKey
                Public-Key: (256 bit)
                pub:
                    04:11:d1:b5:e6:9a:aa:67:7c:06:39:35:96:c1:1a:
                    8e:8e:15:7b:af:a2:ab:72:e0:0c:8e:b4:56:1e:3c:
                    61:16:1d:a0:19:b9:66:03:77:0b:0d:10:18:19:6e:
                    43:57:3d:8d:2b:5a:2f:73:64:21:40:3c:b8:b5:bc:
                    7f:3e:1a:d2:98
                ASN1 OID: prime256v1
                NIST CURVE: P-256
        X509v3 extensions:
            X509v3 Certificate Policies: 
                Policy: 2.23.140.1.5.4.3
            qcStatements: 
                0.
    Signature Algorithm: ecdsa-with-SHA256
    Signature Value:
        30:44:02:20:04:cf:50:3e:11:20:5c:01:14:70:5d:a3:f9:16:
        2a:1a:49:ad:c0:8c:2f:27:97:17:c2:c2:d3:db:88:2a:ac:1e:
        02:20:02:d7:1c:fc:e2:6f:93:c5:39:92:e1:3a:75:86:06:d8:
        46:a8:af:6b:44:77:98:a4:ad:a8:29:5b:45:c9:11:0d
-----BEGIN CERTIFICATE-----
MIIBFzCBv6ADAgECAgEDMAoGCCqGSM49BAMCMAAwIBcNMjMwOTAxMDAwMDAwWhgP
OTk5ODExMzAwMDAwMDBaMAAwWTATBgcqhkjOPQIBBggqhkjOPQMBBwNCAAQR0bXm
mqpnfAY5NZbBGo6OFXuvoqty4AyOtFYePGEWHaAZuWYDdwsNEBgZbkNXPY0rWi9z
ZCFAPLi1vH8+GtKYoygwJjAUBgNVHSAEDTALMAkGB2eBDAEFBAMwDgYIKwYBBQUH
AQMEAjAAMAoGCCqGSM49BAMCA0cAMEQCIATPUD4RIFwBFHBdo/kWKhpJrcCMLyeX
F8LC09uIKqweAiAC1xz84m+TxTmS4Tp1hgbYRqiva0R3mKStqClbRckRDQ==
-----END CERTIFICATE-----
