Certificate:
    Data:
        Version: 3 (0x2)
        Serial Number: 3 (0x3)
        Signature Algorithm: ecdsa-with-SHA256
        Issuer: 
        Validity
            Not Before: Sep  2 00:00:00 2023 GMT
            Not After : Nov 30 00:00:00 9998 GMT
        Subject: 
        Subject Public Key Info:
            Public Key Algorithm: id-ecPublicKey
                Public-Key: (256 bit)
                pub:
                    04:78:5e:77:0b:51:ee:62:51:97:e8:4b:e0:ec:68:
                    ad:96:d0:7a:72:55:42:5c:70:3b:53:8b:de:3f:70:
                    9e:67:1d:64:56:77:c6:88:39:07:f9:dc:9c:31:12:
                    ea:a7:83:6b:b1:07:2b:0e:b3:b4:8b:29:aa:dd:a5:
                    02:92:d4:10:91
                ASN1 OID: prime256v1
                NIST CURVE: P-256
        X509v3 extensions:
            X509v3 Key Usage: critical
                Digital Signature
            X509v3 Certificate Policies: 
                Policy: 2.23.140.1.5.1.1

    Signature Algorithm: ecdsa-with-SHA256
         30:46:02:21:00:d3:50:94:c6:e1:23:7a:cd:fc:bd:09:c4:63:
         07:7a:cd:92:9c:4e:03:38:81:c7:07:07:64:23:d4:2f:d8:29:
         74:02:21:00:8c:05:f8:b4:09:c4:d6:d2:f6:29:c5:ef:58:66:
         b7:a8:50:70:26:b5:c6:9c:8d:83:87:52:67:4f:35:73:3d:12
-----BEGIN CERTIFICATE-----
MIIBGTCBv6ADAgECAgEDMAoGCCqGSM49BAMCMAAwIBcNMjMwOTAyMDAwMDAwWhgP
OTk5ODExMzAwMDAwMDBaMAAwWTATBgcqhkjOPQIBBggqhkjOPQMBBwNCAAR4XncL
Ue5iUZfoS+DsaK2W0HpyVUJccDtTi94/cJ5nHWRWd8aIOQf53JwxEuqng2uxBysO
s7SLKardpQKS1BCRoygwJjAOBgNVHQ8BAf8EBAMCAIAwFAYDVR0gBA0wCzAJBgdn
gQwBBQEBMAoGCCqGSM49BAMCA0kAMEYCIQDTUJTG4SN6zfy9CcRjB3rNkpxOAziB
xwcHZCPUL9gpdAIhAIwF+LQJxNbS9inF71hmt6hQcCa1xpyNg4dSZ081cz0S
-----END CERTIFICATE-----