Certificate:
    Data:
        Version: 3 (0x2)
        Serial Number: 3 (0x3)
        Signature Algorithm: ecdsa-with-SHA256
        Issuer: 
        Validity
            Not Before: Sep  2 00:00:00 2023 GMT
            Not After : Nov 30 00:00:00 9998 GMT
        Subject: 
        Subject Public Key Info:
            Public Key Algorithm: id-ecPublicKey
                Public-Key: (256 bit)
                pub:
                    04:4a:88:87:8c:6a:e1:e6:58:a9:a9:49:b8:59:27:
                    c7:0a:2c:a0:0e:f2:20:0a:f3:df:d8:8a:f4:95:ab:
                    f2:34:be:60:2f:b2:1a:49:35:de:b3:5c:2c:47:2c:
                    9b:43:86:91:be:00:ca:90:d5:05:70:81:b3:93:cd:
                    a1:ab:5b:8e:e9
                ASN1 OID: prime256v1
                NIST CURVE: P-256
        X509v3 extensions:
            X509v3 Key Usage: critical
                Key Agreement, Encipher Only
            X509v3 Certificate Policies: 
                Policy: 2.23.140.1.5.1.1

    Signature Algorithm: ecdsa-with-SHA256
         30:45:02:20:0b:e6:e9:8a:f9:ea:18:0d:71:15:fc:fa:1b:66:
         04:05:6b:d5:da:ff:2c:c1:58:a6:2a:01:ce:87:28:34:ea:b1:
         02:21:00:90:fa:f2:02:7c:96:cb:2e:2b:38:61:23:8b:eb:6c:
         e6:1e:a0:d0:14:ef:8f:86:d8:48:87:42:33:0a:67:da:30
-----BEGIN CERTIFICATE-----
MIIBGDCBv6ADAgECAgEDMAoGCCqGSM49BAMCMAAwIBcNMjMwOTAyMDAwMDAwWhgP
OTk5ODExMzAwMDAwMDBaMAAwWTATBgcqhkjOPQIBBggqhkjOPQMBBwNCAARKiIeM
auHmWKmpSbhZJ8cKLKAO8iAK89/YivSVq/I0vmAvshpJNd6zXCxHLJtDhpG+AMqQ
1QVwgbOTzaGrW47poygwJjAOBgNVHQ8BAf8EBAMCAAkwFAYDVR0gBA0wCzAJBgdn
gQwBBQEBMAoGCCqGSM49BAMCA0gAMEUCIAvm6Yr56hgNcRX8+htmBAVr1dr/LMFY
pioBzocoNOqxAiEAkPryAnyWyy4rOGEji+ts5h6g0BTvj4bYSIdCMwpn2jA=
-----END CERTIFICATE-----