Certificate:
    Data:
        Version: 3 (0x2)
        Serial Number: 3 (0x3)
        Signature Algorithm: ecdsa-with-SHA256
        Issuer: 
        Validity
            Not Before: Sep  2 00:00:00 2023 GMT
            Not After : Nov 30 00:00:00 9998 GMT
        Subject: 
        Subject Public Key Info:
            Public Key Algorithm: id-ecPublicKey
                Public-Key: (256 bit)
                pub:
                    04:4c:54:52:a5:81:b1:08:22:25:5c:c1:7f:a2:eb:
                    58:e8:25:83:6d:4f:fc:f1:19:8e:a5:dd:24:4c:9b:
                    2e:9b:a8:51:f4:45:1a:71:a2:5f:f8:5d:6d:3f:ff:
                    d2:64:bc:ab:af:02:51:c2:63:2d:93:4b:d8:27:dd:
                    52:85:e1:bc:67
                ASN1 OID: prime256v1
                NIST CURVE: P-256
        X509v3 extensions:
            X509v3 Key Usage: critical
                Key Agreement, Certificate Sign
            X509v3 Certificate Policies: 
                Policy: 2.23.140.1.5.4.1

    Signature Algorithm: ecdsa-with-SHA256
         30:46:02:21:00:e3:aa:e9:d3:60:c1:86:22:2c:a4:54:84:4b:
         62:06:8b:93:74:3a:5f:38:a0:fa:09:5f:98:c9:43:22:9d:7b:
         bb:02:21:00:f0:b5:4c:3a:d0:3a:0d:e5:5e:65:02:bd:79:4f:
         a7:01:f9:1c:8d:ee:ac:cf:75:06:e0:6a:c4:f8:a9:15:5c:16
-----BEGIN CERTIFICATE-----
MIIBGTCBv6ADAgECAgEDMAoGCCqGSM49BAMCMAAwIBcNMjMwOTAyMDAwMDAwWhgP
OTk5ODExMzAwMDAwMDBaMAAwWTATBgcqhkjOPQIBBggqhkjOPQMBBwNCAARMVFKl
gbEIIiVcwX+i61joJYNtT/zxGY6l3SRMmy6bqFH0RRpxol/4XW0//9JkvKuvAlHC
Yy2TS9gn3VKF4bxnoygwJjAOBgNVHQ8BAf8EBAMCAAwwFAYDVR0gBA0wCzAJBgdn
gQwBBQQBMAoGCCqGSM49BAMCA0kAMEYCIQDjqunTYMGGIiykVIRLYgaLk3Q6Xzig
+glfmMlDIp17uwIhAPC1TDrQOg3lXmUCvXlPpwH5HI3urM91BuBqxPipFVwW
-----END CERTIFICATE-----