Certificate:
    Data:
        Version: 3 (0x2)
        Serial Number: 3 (0x3)
        Signature Algorithm: ecdsa-with-SHA256
        Issuer: 
        Validity
            Not Before: Sep  2 00:00:00 2023 GMT
            Not After : Nov 30 00:00:00 9998 GMT
        Subject: 
        Subject Public Key Info:
            Public Key Algorithm: id-ecPublicKey
                Public-Key: (256 bit)
                pub:
                    04:7b:7c:7a:dc:e9:49:79:0c:91:ee:0e:84:7c:8b:
                    ee:ae:f2:cb:33:03:ea:e3:59:87:09:98:e3:13:20:
                    cf:fa:a7:1a:ea:6f:0d:06:0b:54:1f:57:b5:9c:09:
                    ce:0d:cc:85:68:8e:7a:1e:7b:a4:ca:16:55:95:dc:
                    07:f1:d8:93:63
                ASN1 OID: prime256v1
                NIST CURVE: P-256
        X509v3 extensions:
            X509v3 Key Usage: critical
                Digital Signature, Non Repudiation, Key Agreement, Decipher Only
            X509v3 Certificate Policies: 
                Policy: 2.23.140.1.5.4.1

    Signature Algorithm: ecdsa-with-SHA256
         30:45:02:20:4f:dd:da:4e:eb:05:f8:fa:bc:eb:02:7b:dc:dc:
         60:0a:65:9a:a9:a1:da:fe:d7:fd:4c:94:2c:75:35:0f:a0:dc:
         02:21:00:b7:d2:66:d8:f5:ea:27:f0:00:e2:0c:1f:be:63:e0:
         5c:17:29:20:69:ea:d5:74:1b:31:be:b1:92:79:c3:86:ff
-----BEGIN CERTIFICATE-----
MIIBGTCBwKADAgECAgEDMAoGCCqGSM49BAMCMAAwIBcNMjMwOTAyMDAwMDAwWhgP
OTk5ODExMzAwMDAwMDBaMAAwWTATBgcqhkjOPQIBBggqhkjOPQMBBwNCAAR7fHrc
6Ul5DJHuDoR8i+6u8sszA+rjWYcJmOMTIM/6pxrqbw0GC1QfV7WcCc4NzIVojnoe
e6TKFlWV3Afx2JNjoykwJzAPBgNVHQ8BAf8EBQMDAMiAMBQGA1UdIAQNMAswCQYH
Z4EMAQUEATAKBggqhkjOPQQDAgNIADBFAiBP3dpO6wX4+rzrAnvc3GAKZZqpodr+
1/1MlCx1NQ+g3AIhALfSZtj16ifwAOIMH75j4FwXKSBp6tV0GzG+sZJ5w4b/
-----END CERTIFICATE-----