-------------Leaf-------------
Certificate:
    Data:
        Version: 3 (0x2)
        Serial Number: 3 (0x3)
        Signature Algorithm: ecdsa-with-SHA256
        Issuer: 
        Validity
            Not Before: Sep  2 00:00:00 2023 GMT
            Not After : Nov 30 00:00:00 9998 GMT
        Subject: 
        Subject Public Key Info:
            Public Key Algorithm: id-ecPublicKey
                Public-Key: (256 bit)
                pub:
                    04:40:f5:fd:b3:9b:ba:a6:96:2e:9f:21:9f:99:44:
                    42:ac:69:e0:bd:b3:5c:85:00:5e:3e:2d:da:28:10:
                    36:2d:ec:e9:44:a2:00:e7:27:ef:b8:5e:4a:4c:ca:
                    eb:71:bd:eb:71:2b:4e:f8:18:5d:13:72:27:e3:e0:
                    50:9e:bc:53:84
                ASN1 OID: prime256v1
                NIST CURVE: P-256
        X509v3 extensions:
            X509v3 Key Usage: critical
                Key Agreement, Decipher Only
            X509v3 Certificate Policies: 
                Policy: 2.23.140.1.5.3.2

    Signature Algorithm: ecdsa-with-SHA256
         30:46:02:21:00:b5:80:a3:06:a0:f7:a4:72:8b:6a:a8:9a:0b:
         60:1b:00:37:51:68:04:7f:41:0a:2e:a4:34:32:8a:df:8c:34:
         f3:02:21:00:a8:e5:f6:94:a3:fb:cd:17:49:ca:d5:05:4b:83:
         4e:df:57:c4:c1:e4:8f:18:97:ad:f8:78:79:e5:2c:78:1b:fb
-----BEGIN CERTIFICATE-----
MIIBGjCBwKADAgECAgEDMAoGCCqGSM49BAMCMAAwIBcNMjMwOTAyMDAwMDAwWhgP
OTk5ODExMzAwMDAwMDBaMAAwWTATBgcqhkjOPQIBBggqhkjOPQMBBwNCAARA9f2z
m7qmli6fIZ+ZREKsaeC9s1yFAF4+LdooEDYt7OlEogDnJ++4XkpMyutxvetxK074
GF0Tcifj4FCevFOEoykwJzAPBgNVHQ8BAf8EBQMDAAiAMBQGA1UdIAQNMAswCQYH
Z4EMAQUDAjAKBggqhkjOPQQDAgNJADBGAiEAtYCjBqD3pHKLaqiaC2AbADdRaAR/
QQoupDQyit+MNPMCIQCo5faUo/vNF0nK1QVLg07fV8TB5I8Yl634eHnlLHgb+w==
-----END CERTIFICATE-----