Certificate:
    Data:
        Version: 3 (0x2)
        Serial Number: 3 (0x3)
        Signature Algorithm: ecdsa-with-SHA256
        Issuer: 
        Validity
            Not Before: Aug  2 00:00:00 2023 GMT
            Not After : Nov 30 00:00:00 9998 GMT
        Subject: 
        Subject Public Key Info:
            Public Key Algorithm: id-ecPublicKey
                Public-Key: (256 bit)
                pub:
                    04:4d:5b:ae:de:83:84:c9:94:89:6a:18:9b:91:90:
                    7e:71:09:83:fd:8d:40:de:7a:75:50:c4:de:86:86:
                    c9:d0:7c:74:fd:96:95:0d:a1:20:1f:e5:86:f5:cf:
                    16:80:0a:e2:0b:1a:a9:15:fb:d4:7b:7e:5d:c2:d4:
                    88:18:fe:6e:cd
                ASN1 OID: prime256v1
                NIST CURVE: P-256
        X509v3 extensions:
            X509v3 Key Usage: critical
                Key Agreement, Decipher Only
            X509v3 Certificate Policies: 
                Policy: 2.23.140.1.5.2.2

    Signature Algorithm: ecdsa-with-SHA256
         30:45:02:20:4e:06:a2:84:86:19:8d:fb:68:a9:da:dc:59:2f:
         03:2f:a7:e5:1f:f5:d5:73:53:13:57:f2:c7:9d:a0:a9:1e:b6:
         02:21:00:cf:b9:e0:5b:4d:07:4e:56:ee:48:55:1a:3b:8a:61:
         72:1a:70:45:a4:c4:16:e3:59:89:81:4b:a8:96:04:7e:a5
-----BEGIN CERTIFICATE-----
MIIBGTCBwKADAgECAgEDMAoGCCqGSM49BAMCMAAwIBcNMjMwODAyMDAwMDAwWhgP
OTk5ODExMzAwMDAwMDBaMAAwWTATBgcqhkjOPQIBBggqhkjOPQMBBwNCAARNW67e
g4TJlIlqGJuRkH5xCYP9jUDeenVQxN6GhsnQfHT9lpUNoSAf5Yb1zxaACuILGqkV
+9R7fl3C1IgY/m7NoykwJzAPBgNVHQ8BAf8EBQMDAAiAMBQGA1UdIAQNMAswCQYH
Z4EMAQUCAjAKBggqhkjOPQQDAgNIADBFAiBOBqKEhhmN+2ip2txZLwMvp+Uf9dVz
UxNX8sedoKketgIhAM+54FtNB05W7khVGjuKYXIacEWkxBbjWYmBS6iWBH6l
-----END CERTIFICATE-----
