Certificate:
    Data:
        Version: 3 (0x2)
        Serial Number: 3 (0x3)
        Signature Algorithm: ecdsa-with-SHA256
        Issuer: 
        Validity
            Not Before: Sep  2 00:00:00 2023 GMT
            Not After : Nov 30 00:00:00 9998 GMT
        Subject: 
        Subject Public Key Info:
            Public Key Algorithm: id-ecPublicKey
                Public-Key: (256 bit)
                pub:
                    04:09:b6:4c:a4:44:e0:1b:34:34:12:bc:03:b0:19:
                    6c:09:10:9a:11:1d:cc:d0:d5:d4:5d:c1:2f:08:40:
                    df:43:ad:48:d9:67:e2:c3:a3:ba:a5:d7:21:f6:e9:
                    67:f2:e5:25:e8:63:ce:4b:a8:11:98:2a:34:ca:9a:
                    bf:e4:ed:2d:1d
                ASN1 OID: prime256v1
                NIST CURVE: P-256
        X509v3 extensions:
            X509v3 Key Usage: critical
                Digital Signature, Key Agreement, Certificate Sign
            X509v3 Certificate Policies: 
                Policy: 2.23.140.1.5.2.2

    Signature Algorithm: ecdsa-with-SHA256
         30:45:02:20:2a:83:34:80:cc:d6:7f:89:b7:99:27:47:d3:64:
         bf:ad:de:db:8f:16:f4:0b:1d:e5:4f:c6:cc:40:f2:16:34:c5:
         02:21:00:9f:4e:0e:d3:1d:23:32:26:97:cb:45:d5:01:d0:02:
         e6:3a:74:1d:da:92:59:72:32:2e:a8:b4:02:22:25:a8:08
-----BEGIN CERTIFICATE-----
MIIBGDCBv6ADAgECAgEDMAoGCCqGSM49BAMCMAAwIBcNMjMwOTAyMDAwMDAwWhgP
OTk5ODExMzAwMDAwMDBaMAAwWTATBgcqhkjOPQIBBggqhkjOPQMBBwNCAAQJtkyk
ROAbNDQSvAOwGWwJEJoRHczQ1dRdwS8IQN9DrUjZZ+LDo7ql1yH26Wfy5SXoY85L
qBGYKjTKmr/k7S0doygwJjAOBgNVHQ8BAf8EBAMCAIwwFAYDVR0gBA0wCzAJBgdn
gQwBBQICMAoGCCqGSM49BAMCA0gAMEUCICqDNIDM1n+Jt5knR9Nkv63e248W9Asd
5U/GzEDyFjTFAiEAn04O0x0jMiaXy0XVAdAC5jp0HdqSWXIyLqi0AiIlqAg=
-----END CERTIFICATE-----