Certificate:
    Data:
        Version: 3 (0x2)
        Serial Number: 3 (0x3)
        Signature Algorithm: ecdsa-with-SHA256
        Issuer: 
        Validity
            Not Before: Sep  2 00:00:00 2023 GMT
            Not After : Nov 30 00:00:00 9998 GMT
        Subject: 
        Subject Public Key Info:
            Public Key Algorithm: id-ecPublicKey
                Public-Key: (256 bit)
                pub:
                    04:73:ff:7f:10:2d:7c:5d:57:30:59:9d:78:13:84:
                    da:d5:53:32:96:0b:90:6d:1a:ec:70:9b:db:e3:92:
                    ea:21:62:7a:6c:b1:78:25:94:6e:ef:17:69:ba:cc:
                    8a:9f:e6:29:a6:ab:a3:21:26:39:f7:d3:99:22:6d:
                    aa:91:ab:19:79
                ASN1 OID: prime256v1
                NIST CURVE: P-256
        X509v3 extensions:
            X509v3 Key Usage: critical
                Digital Signature, Non Repudiation
            X509v3 Certificate Policies: 
                Policy: 2.23.140.1.5.3.2

    Signature Algorithm: ecdsa-with-SHA256
         30:45:02:20:6c:ca:14:2d:0e:4f:85:16:a4:42:99:0c:02:19:
         2a:e5:82:97:8f:e8:28:a0:47:fe:e1:42:d9:4f:91:71:74:29:
         02:21:00:e0:af:27:08:cf:b3:f7:c6:9a:1d:39:11:d3:59:b3:
         6e:02:6e:24:c8:d0:56:11:96:43:e8:0b:94:3c:1e:88:eb
-----BEGIN CERTIFICATE-----
MIIBGDCBv6ADAgECAgEDMAoGCCqGSM49BAMCMAAwIBcNMjMwOTAyMDAwMDAwWhgP
OTk5ODExMzAwMDAwMDBaMAAwWTATBgcqhkjOPQIBBggqhkjOPQMBBwNCAARz/38Q
LXxdVzBZnXgThNrVUzKWC5BtGuxwm9vjkuohYnpssXgllG7vF2m6zIqf5immq6Mh
Jjn305kibaqRqxl5oygwJjAOBgNVHQ8BAf8EBAMCAMAwFAYDVR0gBA0wCzAJBgdn
gQwBBQMCMAoGCCqGSM49BAMCA0gAMEUCIGzKFC0OT4UWpEKZDAIZKuWCl4/oKKBH
/uFC2U+RcXQpAiEA4K8nCM+z98aaHTkR01mzbgJuJMjQVhGWQ+gLlDweiOs=
-----END CERTIFICATE-----