Certificate:
    Data:
        Version: 3 (0x2)
        Serial Number: 3 (0x3)
        Signature Algorithm: ecdsa-with-SHA256
        Issuer: 
        Validity
            Not Before: Sep  2 00:00:00 2023 GMT
            Not After : Nov 30 00:00:00 9998 GMT
        Subject: 
        Subject Public Key Info:
            Public Key Algorithm: id-ecPublicKey
                Public-Key: (256 bit)
                pub:
                    04:0a:52:2f:c4:c9:71:29:fa:16:08:93:a5:17:96:
                    08:f7:9e:d0:bb:87:0d:6a:38:b4:5d:b0:55:bd:eb:
                    8f:6b:6b:75:fb:41:e2:e2:c4:60:b8:13:6a:06:e0:
                    80:4e:a8:cf:27:a6:7b:ff:9c:c6:b8:cf:6f:e2:7f:
                    13:d2:df:6e:fa
                ASN1 OID: prime256v1
                NIST CURVE: P-256
        X509v3 extensions:
            X509v3 Key Usage: critical
                ....
            X509v3 Certificate Policies: 
                Policy: 2.23.140.1.5.1.3

    Signature Algorithm: ecdsa-with-SHA256
         30:45:02:20:46:d7:1c:19:69:11:dc:dd:5b:ca:10:77:18:eb:
         c9:8c:49:9b:a1:a9:e1:92:48:be:3d:3d:96:72:a6:74:69:bd:
         02:21:00:dc:3b:62:97:f5:15:73:d4:e3:5a:5f:60:6f:45:d4:
         10:d0:74:c8:7c:0c:d9:02:c9:65:10:14:00:a3:32:5f:14
-----BEGIN CERTIFICATE-----
MIIBGDCBv6ADAgECAgEDMAoGCCqGSM49BAMCMAAwIBcNMjMwOTAyMDAwMDAwWhgP
OTk5ODExMzAwMDAwMDBaMAAwWTATBgcqhkjOPQIBBggqhkjOPQMBBwNCAAQKUi/E
yXEp+hYIk6UXlgj3ntC7hw1qOLRdsFW9649ra3X7QeLixGC4E2oG4IBOqM8npnv/
nMa4z2/ifxPS3276oygwJjAOBgNVHQ8BAf8EBAMCAAAwFAYDVR0gBA0wCzAJBgdn
gQwBBQEDMAoGCCqGSM49BAMCA0gAMEUCIEbXHBlpEdzdW8oQdxjryYxJm6Gp4ZJI
vj09lnKmdGm9AiEA3Dtil/UVc9TjWl9gb0XUENB0yHwM2QLJZRAUAKMyXxQ=
-----END CERTIFICATE-----