Certificate:
    Data:
        Version: 3 (0x2)
        Serial Number: 3 (0x3)
        Signature Algorithm: ecdsa-with-SHA256
        Issuer: 
        Validity
            Not Before: Sep  2 00:00:00 2023 GMT
            Not After : Nov 30 00:00:00 9998 GMT
        Subject: 
        Subject Public Key Info:
            Public Key Algorithm: id-ecPublicKey
                Public-Key: (256 bit)
                pub:
                    04:ca:8f:61:9f:69:89:94:08:66:75:15:39:41:d4:
                    8c:8b:0a:1e:67:8a:47:15:17:3e:52:c9:41:84:d3:
                    0f:2f:bd:39:d6:1c:ea:cb:3e:c1:d5:ed:cb:62:82:
                    ef:d1:17:ea:01:ec:f9:80:67:f2:e2:6d:91:51:6a:
                    a9:ad:fc:82:44
                ASN1 OID: prime256v1
                NIST CURVE: P-256
        X509v3 extensions:
            X509v3 Key Usage: critical
                Key Agreement
            X509v3 Certificate Policies: 
                Policy: 2.23.140.1.5.1.3

    Signature Algorithm: ecdsa-with-SHA256
         30:46:02:21:00:e5:0b:63:23:64:5c:b2:7c:b6:8d:3e:c9:29:
         61:e9:a7:9e:0d:a9:b7:40:b6:e2:a0:da:47:43:53:7a:2c:0b:
         56:02:21:00:d4:8b:31:42:8e:4f:2e:96:69:b3:2a:36:c1:10:
         1d:20:80:b3:34:1c:44:9c:2f:a9:15:70:67:79:fa:bf:7f:07
-----BEGIN CERTIFICATE-----
MIIBGTCBv6ADAgECAgEDMAoGCCqGSM49BAMCMAAwIBcNMjMwOTAyMDAwMDAwWhgP
OTk5ODExMzAwMDAwMDBaMAAwWTATBgcqhkjOPQIBBggqhkjOPQMBBwNCAATKj2Gf
aYmUCGZ1FTlB1IyLCh5nikcVFz5SyUGE0w8vvTnWHOrLPsHV7ctigu/RF+oB7PmA
Z/LibZFRaqmt/IJEoygwJjAOBgNVHQ8BAf8EBAMCAAgwFAYDVR0gBA0wCzAJBgdn
gQwBBQEDMAoGCCqGSM49BAMCA0kAMEYCIQDlC2MjZFyyfLaNPskpYemnng2pt0C2
4qDaR0NTeiwLVgIhANSLMUKOTy6WabMqNsEQHSCAszQcRJwvqRVwZ3n6v38H
-----END CERTIFICATE-----