Certificate:
    Data:
        Version: 3 (0x2)
        Serial Number: 3 (0x3)
        Signature Algorithm: ecdsa-with-SHA256
        Issuer: 
        Validity
            Not Before: Sep  2 00:00:00 2023 GMT
            Not After : Nov 30 00:00:00 9998 GMT
        Subject: 
        Subject Public Key Info:
            Public Key Algorithm: id-ecPublicKey
                Public-Key: (256 bit)
                pub:
                    04:b5:0d:73:12:2c:12:f1:51:51:11:2e:7d:fc:35:
                    e9:8a:ab:a0:6e:0e:0e:83:1f:4f:5a:a1:0a:46:43:
                    42:6e:1e:c9:0b:6c:94:63:6d:4e:ff:18:aa:ab:62:
                    37:05:90:80:77:b8:26:9d:32:0f:96:01:56:22:93:
                    2b:4d:ad:9d:13
                ASN1 OID: prime256v1
                NIST CURVE: P-256
        X509v3 extensions:
            X509v3 Key Usage: critical
                Digital Signature, Certificate Sign
            X509v3 Certificate Policies: 
                Policy: 2.23.140.1.5.1.3

    Signature Algorithm: ecdsa-with-SHA256
         30:46:02:21:00:ea:15:67:d1:53:99:50:2a:e8:07:7d:21:fe:
         9c:5a:2f:fc:e4:6a:1b:85:6d:c3:86:a4:0c:4f:95:d3:bb:05:
         66:02:21:00:b9:3f:aa:d6:c5:6f:85:6b:80:bd:b0:da:a3:08:
         fd:5c:44:b4:47:fe:7c:bf:a1:32:28:76:0e:72:a7:0e:e6:22
-----BEGIN CERTIFICATE-----
MIIBGTCBv6ADAgECAgEDMAoGCCqGSM49BAMCMAAwIBcNMjMwOTAyMDAwMDAwWhgP
OTk5ODExMzAwMDAwMDBaMAAwWTATBgcqhkjOPQIBBggqhkjOPQMBBwNCAAS1DXMS
LBLxUVERLn38NemKq6BuDg6DH09aoQpGQ0JuHskLbJRjbU7/GKqrYjcFkIB3uCad
Mg+WAVYikytNrZ0ToygwJjAOBgNVHQ8BAf8EBAMCAIQwFAYDVR0gBA0wCzAJBgdn
gQwBBQEDMAoGCCqGSM49BAMCA0kAMEYCIQDqFWfRU5lQKugHfSH+nFov/ORqG4Vt
w4akDE+V07sFZgIhALk/qtbFb4VrgL2w2qMI/VxEtEf+fL+hMih2DnKnDuYi
-----END CERTIFICATE-----