Certificate:
    Data:
        Version: 3 (0x2)
        Serial Number: 3 (0x3)
        Signature Algorithm: ecdsa-with-SHA256
        Issuer: 
        Validity
            Not Before: Sep  2 00:00:00 2023 GMT
            Not After : Nov 30 00:00:00 9998 GMT
        Subject: 
        Subject Public Key Info:
            Public Key Algorithm: id-ecPublicKey
                Public-Key: (256 bit)
                pub:
                    04:47:18:e3:c2:8c:db:72:cb:a6:eb:5e:71:7c:ec:
                    c9:f6:f2:87:bd:b6:18:10:c1:c6:6b:a8:12:b7:c2:
                    f8:54:58:7c:46:54:60:9d:94:fb:8d:68:7f:84:97:
                    51:e7:f9:21:22:a6:01:98:be:cc:b4:f9:4d:a2:06:
                    0e:53:25:7d:58
                ASN1 OID: prime256v1
                NIST CURVE: P-256
        X509v3 extensions:
            X509v3 Key Usage: critical
                Digital Signature, Non Repudiation, Key Agreement, Encipher Only
            X509v3 Certificate Policies: 
                Policy: 2.23.140.1.5.1.3

    Signature Algorithm: ecdsa-with-SHA256
         30:46:02:21:00:bc:8e:23:b0:e9:0e:d3:66:3d:96:be:70:0f:
         0e:83:b5:2d:d2:2b:30:2d:89:92:26:26:1c:ea:f1:6a:39:c3:
         f2:02:21:00:91:95:b1:3c:59:a9:3a:39:ab:13:ed:8b:c3:1b:
         06:e2:5f:2e:51:61:11:89:b3:be:68:db:6c:b3:bb:b4:47:ce
-----BEGIN CERTIFICATE-----
MIIBGTCBv6ADAgECAgEDMAoGCCqGSM49BAMCMAAwIBcNMjMwOTAyMDAwMDAwWhgP
OTk5ODExMzAwMDAwMDBaMAAwWTATBgcqhkjOPQIBBggqhkjOPQMBBwNCAARHGOPC
jNtyy6brXnF87Mn28oe9thgQwcZrqBK3wvhUWHxGVGCdlPuNaH+El1Hn+SEipgGY
vsy0+U2iBg5TJX1YoygwJjAOBgNVHQ8BAf8EBAMCAMkwFAYDVR0gBA0wCzAJBgdn
gQwBBQEDMAoGCCqGSM49BAMCA0kAMEYCIQC8jiOw6Q7TZj2WvnAPDoO1LdIrMC2J
kiYmHOrxajnD8gIhAJGVsTxZqTo5qxPti8MbBuJfLlFhEYmzvmjbbLO7tEfO
-----END CERTIFICATE-----
