Certificate:
    Data:
        Version: 3 (0x2)
        Serial Number: 3 (0x3)
        Signature Algorithm: ecdsa-with-SHA256
        Issuer: 
        Validity
            Not Before: Sep  2 00:00:00 2023 GMT
            Not After : Nov 30 00:00:00 9998 GMT
        Subject: 
        Subject Public Key Info:
            Public Key Algorithm: id-ecPublicKey
                Public-Key: (256 bit)
                pub:
                    04:3d:40:b7:9c:e1:16:09:bc:af:3e:03:36:03:fb:
                    1e:ae:6b:80:26:fb:ef:3e:09:18:c7:1e:8c:21:2c:
                    0f:b9:f9:56:54:42:aa:db:27:e2:5d:9c:16:55:47:
                    b3:c5:32:55:f4:12:b0:6e:ae:54:6b:00:37:81:41:
                    13:a8:d2:7a:9b
                ASN1 OID: prime256v1
                NIST CURVE: P-256
        X509v3 extensions:
            X509v3 Key Usage: critical
                Certificate Sign
            X509v3 Certificate Policies: 
                Policy: 2.23.140.1.5.1.3

    Signature Algorithm: ecdsa-with-SHA256
         30:45:02:21:00:cc:94:6e:b8:34:47:0e:ab:43:5f:fe:ac:4f:
         9a:00:fd:53:83:b9:f6:6e:27:57:98:05:42:1e:b2:9b:d3:07:
         9c:02:20:61:0c:76:51:ac:b0:1a:f2:cc:fe:e9:9e:86:13:9e:
         4e:e7:2a:58:28:53:57:c6:ca:90:6f:ea:aa:cb:99:8d:36
-----BEGIN CERTIFICATE-----
MIIBGDCBv6ADAgECAgEDMAoGCCqGSM49BAMCMAAwIBcNMjMwOTAyMDAwMDAwWhgP
OTk5ODExMzAwMDAwMDBaMAAwWTATBgcqhkjOPQIBBggqhkjOPQMBBwNCAAQ9QLec
4RYJvK8+AzYD+x6ua4Am++8+CRjHHowhLA+5+VZUQqrbJ+JdnBZVR7PFMlX0ErBu
rlRrADeBQROo0nqboygwJjAOBgNVHQ8BAf8EBAMCAAQwFAYDVR0gBA0wCzAJBgdn
gQwBBQEDMAoGCCqGSM49BAMCA0gAMEUCIQDMlG64NEcOq0Nf/qxPmgD9U4O59m4n
V5gFQh6ym9MHnAIgYQx2UaywGvLM/umehhOeTucqWChTV8bKkG/qqsuZjTY=
-----END CERTIFICATE-----