Certificate:
    Data:
        Version: 3 (0x2)
        Serial Number:
            b6:c9:25:8f:ac:ff:ce:6a:e8:d6:40:ba
        Signature Algorithm: ecdsa-with-SHA256
        Issuer: CN = Lint CA, O = Lint, C = DE
        Validity
            Not Before: Sep  1 00:00:00 2023 GMT
            Not After : Sep  1 00:00:00 2024 GMT
        Subject: C = DE
        Subject Public Key Info:
            Public Key Algorithm: id-ecPublicKey
                Public-Key: (256 bit)
                pub:
                    04:b9:e5:d4:74:11:d8:a7:08:c6:ff:72:4b:75:1c:
                    74:d6:ef:f7:1c:09:62:d7:71:d5:96:37:72:39:d2:
                    8a:a7:d6:3c:73:11:88:5d:d9:04:c0:9f:a8:2d:7e:
                    9e:37:df:75:41:51:fd:a9:cb:d3:d5:f4:46:a3:e2:
                    c9:5e:0d:67:fa
                ASN1 OID: prime256v1
                NIST CURVE: P-256
        X509v3 extensions:
            X509v3 Certificate Policies: 
                Policy: 2.23.140.1.5.4.3
    Signature Algorithm: ecdsa-with-SHA256
    Signature Value:
        30:44:02:20:7c:78:cf:73:9e:82:83:e6:8d:36:ae:cc:1a:79:
        ba:0e:db:c8:7b:18:ba:93:4b:ff:6c:89:f4:a0:4d:20:1b:d2:
        02:20:15:c9:68:4d:69:72:d4:7b:86:b0:0c:d4:ba:35:ce:12:
        9d:85:85:c0:ce:ef:a3:e2:b4:d9:92:22:4c:1c:19:41
-----BEGIN CERTIFICATE-----
MIIBTDCB9KADAgECAg0Atsklj6z/zmro1kC6MAoGCCqGSM49BAMCMC4xEDAOBgNV
BAMMB0xpbnQgQ0ExDTALBgNVBAoMBExpbnQxCzAJBgNVBAYTAkRFMB4XDTIzMDkw
MTAwMDAwMFoXDTI0MDkwMTAwMDAwMFowDTELMAkGA1UEBhMCREUwWTATBgcqhkjO
PQIBBggqhkjOPQMBBwNCAAS55dR0EdinCMb/ckt1HHTW7/ccCWLXcdWWN3I50oqn
1jxzEYhd2QTAn6gtfp4333VBUf2py9PV9Eaj4sleDWf6oxgwFjAUBgNVHSAEDTAL
MAkGB2eBDAEFBAMwCgYIKoZIzj0EAwIDRwAwRAIgfHjPc56Cg+aNNq7MGnm6DtvI
exi6k0v/bIn0oE0gG9ICIBXJaE1pctR7hrAM1Lo1zhKdhYXAzu+j4rTZkiJMHBlB
-----END CERTIFICATE-----
