Certificate:
    Data:
        Version: 3 (0x2)
        Serial Number: 3 (0x3)
        Signature Algorithm: ecdsa-with-SHA256
        Issuer: 
        Validity
            Not Before: Sep  2 00:00:00 2023 GMT
            Not After : Nov 30 00:00:00 9998 GMT
        Subject: CN = johnsmith@example.com
        Subject Public Key Info:
            Public Key Algorithm: id-ecPublicKey
                Public-Key: (256 bit)
                pub:
                    04:f3:96:63:02:f4:04:19:9b:03:3f:01:a4:78:80:
                    f3:fe:ca:fb:ea:54:d1:e0:5c:1d:f9:58:9e:38:9a:
                    3f:70:b4:b9:3e:41:6f:a5:4c:5f:c3:fc:d4:a6:a3:
                    e6:c2:34:31:31:f4:ef:7c:15:f4:0d:f3:c5:0d:5d:
                    36:08:d0:67:20
                ASN1 OID: prime256v1
                NIST CURVE: P-256
        X509v3 extensions:
            X509v3 Extended Key Usage: 
                E-mail Protection, TLS Web Server Authentication
            X509v3 Certificate Policies: 
                Policy: 2.23.140.1.5.4.3

    Signature Algorithm: ecdsa-with-SHA256
         30:46:02:21:00:8e:9c:01:a7:ea:ea:5a:ba:1a:7a:a0:e8:34:
         ef:75:65:32:23:ed:db:6d:b6:f0:6a:c0:6d:f4:1c:6c:17:91:
         72:02:21:00:e5:1e:31:8b:4e:4f:7e:65:74:c0:75:1d:03:54:
         6b:c1:21:b7:93:10:81:bf:e2:8c:39:36:05:8d:fb:cf:5b:66
-----BEGIN CERTIFICATE-----
MIIBSDCB7qADAgECAgEDMAoGCCqGSM49BAMCMAAwIBcNMjMwOTAyMDAwMDAwWhgP
OTk5ODExMzAwMDAwMDBaMCAxHjAcBgNVBAMMFWpvaG5zbWl0aEBleGFtcGxlLmNv
bTBZMBMGByqGSM49AgEGCCqGSM49AwEHA0IABPOWYwL0BBmbAz8BpHiA8/7K++pU
0eBcHflYnjiaP3C0uT5Bb6VMX8P81Kaj5sI0MTH073wV9A3zxQ1dNgjQZyCjNzA1
MB0GA1UdJQQWMBQGCCsGAQUFBwMEBggrBgEFBQcDATAUBgNVHSAEDTALMAkGB2eB
DAEFBAMwCgYIKoZIzj0EAwIDSQAwRgIhAI6cAafq6lq6Gnqg6DTvdWUyI+3bbbbw
asBt9BxsF5FyAiEA5R4xi05PfmV0wHUdA1RrwSG3kxCBv+KMOTYFjfvPW2Y=
-----END CERTIFICATE-----