Certificate:
    Data:
        Version: 3 (0x2)
        Serial Number: 3 (0x3)
        Signature Algorithm: ecdsa-with-SHA256
        Issuer: 
        Validity
            Not Before: Feb 27 20:23:43 2024 GMT
            Not After : Nov 30 00:00:00 9998 GMT
        Subject: 
        Subject Public Key Info:
            Public Key Algorithm: id-ecPublicKey
                Public-Key: (256 bit)
                pub:
                    04:cd:01:83:83:79:70:8b:18:4b:21:2b:90:21:06:
                    46:67:63:13:21:83:7c:13:e8:7b:e5:b9:bd:d9:4e:
                    6d:c4:83:ad:1b:76:3f:92:be:b5:cb:f5:25:ea:10:
                    1b:a8:dc:c1:53:f4:c1:d6:68:c5:bc:db:3f:79:90:
                    8a:c5:56:28:cb
                ASN1 OID: prime256v1
                NIST CURVE: P-256
        X509v3 extensions:
            X509v3 Extended Key Usage: 
                E-mail Protection
            X509v3 Certificate Policies: 
                Policy: 2.23.140.1.5.4.3
            1.3.6.1.4.1.52266.1: 
                0.
    Signature Algorithm: ecdsa-with-SHA256
    Signature Value:
        30:46:02:21:00:92:2e:20:05:41:95:b7:20:54:9b:91:4c:dd:
        95:2e:6b:1c:05:5a:a6:87:d0:26:b5:e5:d8:2b:b7:bb:0c:1b:
        b4:02:21:00:e8:f2:41:83:94:1e:1b:22:bd:9b:2b:2b:1a:f6:
        19:49:fc:9b:48:87:fc:ef:f7:01:b5:29:47:73:55:89:52:4a
-----BEGIN CERTIFICATE-----
MIIBLzCB1aADAgECAgEDMAoGCCqGSM49BAMCMAAwIBcNMjQwMjI3MjAyMzQzWhgP
OTk5ODExMzAwMDAwMDBaMAAwWTATBgcqhkjOPQIBBggqhkjOPQMBBwNCAATNAYOD
eXCLGEshK5AhBkZnYxMhg3wT6Hvlub3ZTm3Eg60bdj+SvrXL9SXqEBuo3MFT9MHW
aMW82z95kIrFVijLoz4wPDATBgNVHSUEDDAKBggrBgEFBQcDBDAUBgNVHSAEDTAL
MAkGB2eBDAEFBAMwDwYJKwYBBAGDmCoBBAIwADAKBggqhkjOPQQDAgNJADBGAiEA
ki4gBUGVtyBUm5FM3ZUuaxwFWqaH0Ca15dgrt7sMG7QCIQDo8kGDlB4bIr2bKysa
9hlJ/JtIh/zv9wG1KUdzVYlSSg==
-----END CERTIFICATE-----

