Certificate:
    Data:
        Version: 3 (0x2)
        Serial Number: 3 (0x3)
        Signature Algorithm: ecdsa-with-SHA256
        Issuer:
        Validity
            Not Before: Sep  1 00:00:00 2023 GMT
            Not After : Nov 30 00:00:00 9998 GMT
        Subject: CN = johnsmith@example.com
        Subject Public Key Info:
            Public Key Algorithm: id-ecPublicKey
                Public-Key: (256 bit)
                pub:
                    04:20:15:8f:1c:cc:42:e2:21:d2:67:3e:33:3f:dd:
                    4c:c0:60:06:fc:71:36:4a:8c:aa:32:20:c4:3b:63:
                    2d:fe:aa:90:35:c6:92:5a:df:b8:ca:8b:c9:93:cf:
                    7e:1c:df:99:50:ba:7c:23:2a:15:06:80:ac:6b:9f:
                    14:21:93:8e:e9
                ASN1 OID: prime256v1
                NIST CURVE: P-256
        X509v3 extensions:
            X509v3 Certificate Policies:
                Policy: 2.23.140.1.5.4.1
            1.2.840.113583.1.1.9.2: critical
                test
    Signature Algorithm: ecdsa-with-SHA256
    Signature Value:
        30:45:02:21:00:82:27:50:f6:c0:c5:36:4c:73:ba:fc:53:71:
        db:db:57:fc:80:b4:6d:60:4e:21:e9:6d:e8:01:06:ea:bc:ab:
        26:02:20:2c:45:95:97:a5:e3:cc:89:88:cf:70:47:94:94:8e:
        6c:df:03:ac:4e:49:00:19:53:a0:f8:11:de:a5:e3:5b:a7
-----BEGIN CERTIFICATE-----
MIIBPzCB5qADAgECAgEDMAoGCCqGSM49BAMCMAAwIBcNMjMwOTAxMDAwMDAwWhgP
OTk5ODExMzAwMDAwMDBaMCAxHjAcBgNVBAMMFWpvaG5zbWl0aEBleGFtcGxlLmNv
bTBZMBMGByqGSM49AgEGCCqGSM49AwEHA0IABCAVjxzMQuIh0mc+Mz/dTMBgBvxx
NkqMqjIgxDtjLf6qkDXGklrfuMqLyZPPfhzfmVC6fCMqFQaArGufFCGTjumjLzAt
MBQGA1UdIAQNMAswCQYHZ4EMAQUEATAVBgoqhkiG9y8BAQkCAQH/BAR0ZXN0MAoG
CCqGSM49BAMCA0gAMEUCIQCCJ1D2wMU2THO6/FNx29tX/IC0bWBOIelt6AEG6ryr
JgIgLEWVl6XjzImIz3BHlJSObN8DrE5JABlToPgR3qXjW6c=
-----END CERTIFICATE-----