Certificate:
    Data:
        Version: 3 (0x2)
        Serial Number:
            32:7b:38:5f:a6:8e:6b:c6:38:e4:8a:5c
        Signature Algorithm: ecdsa-with-SHA256
        Issuer: CN = Lint CA, O = Lint, C = DE
        Validity
            Not Before: Sep  1 00:00:00 2023 GMT
            Not After : Sep  1 00:00:00 2024 GMT
        Subject: C = XX
        Subject Public Key Info:
            Public Key Algorithm: id-ecPublicKey
                Public-Key: (256 bit)
                pub:
                    04:1c:63:6a:71:bf:28:ef:8f:93:96:79:07:17:27:
                    eb:91:a5:36:43:6d:6d:81:bd:eb:cf:40:80:77:56:
                    df:71:ed:63:5d:65:71:45:de:68:58:e4:9d:e5:73:
                    9e:d1:86:76:1c:c5:fe:1b:c0:e3:fb:76:08:e9:0c:
                    61:10:e4:01:c3
                ASN1 OID: prime256v1
                NIST CURVE: P-256
        X509v3 extensions:
            X509v3 Certificate Policies: 
                Policy: 2.23.140.1.5.4.3
    Signature Algorithm: ecdsa-with-SHA256
    Signature Value:
        30:46:02:21:00:f9:03:9d:d2:f0:db:4f:e7:9c:0c:44:50:05:
        e9:1d:2d:2d:df:f6:3f:3f:ec:57:b5:cf:59:b7:47:36:92:95:
        30:02:21:00:8b:05:8f:63:fb:85:8c:bd:98:b4:b6:a8:72:35:
        8e:2e:a1:9e:db:67:a8:48:d5:c1:0c:98:2c:8a:97:49:de:98
-----BEGIN CERTIFICATE-----
MIIBTTCB86ADAgECAgwyezhfpo5rxjjkilwwCgYIKoZIzj0EAwIwLjEQMA4GA1UE
AwwHTGludCBDQTENMAsGA1UECgwETGludDELMAkGA1UEBhMCREUwHhcNMjMwOTAx
MDAwMDAwWhcNMjQwOTAxMDAwMDAwWjANMQswCQYDVQQGEwJYWDBZMBMGByqGSM49
AgEGCCqGSM49AwEHA0IABBxjanG/KO+Pk5Z5Bxcn65GlNkNtbYG9689AgHdW33Ht
Y11lcUXeaFjkneVzntGGdhzF/hvA4/t2COkMYRDkAcOjGDAWMBQGA1UdIAQNMAsw
CQYHZ4EMAQUEAzAKBggqhkjOPQQDAgNJADBGAiEA+QOd0vDbT+ecDERQBekdLS3f
9j8/7Fe1z1m3RzaSlTACIQCLBY9j+4WMvZi0tqhyNY4uoZ7bZ6hI1cEMmCyKl0ne
mA==
-----END CERTIFICATE-----
