Certificate:
    Data:
        Version: 3 (0x2)
        Serial Number: 3 (0x3)
        Signature Algorithm: ecdsa-with-SHA256
        Issuer: 
        Validity
            Not Before: Sep  1 00:00:00 2023 GMT
            Not After : Nov 30 00:00:00 9998 GMT
        Subject: C = GB, organizationIdentifier = NTRGB-12345678
        Subject Public Key Info:
            Public Key Algorithm: id-ecPublicKey
                Public-Key: (256 bit)
                pub:
                    04:f5:60:29:a4:49:91:2e:f8:98:b6:f2:77:ca:a1:
                    e8:ef:3f:61:38:dc:14:52:fe:fb:76:40:f3:48:11:
                    4f:62:5d:39:7b:1c:e4:64:e3:bc:8c:ef:67:c8:cd:
                    43:54:2e:6c:7d:78:94:20:80:a0:79:26:47:0b:93:
                    4e:c1:6b:06:35
                ASN1 OID: prime256v1
                NIST CURVE: P-256
        X509v3 extensions:
            X509v3 Certificate Policies: 
                Policy: 2.23.140.1.5.4.1
    Signature Algorithm: ecdsa-with-SHA256
    Signature Value:
        30:46:02:21:00:ac:c2:22:ab:e6:e8:2e:43:3e:44:49:3f:46:
        26:d3:a5:2d:7f:dd:9e:7c:09:54:5d:10:12:b7:e8:42:36:05:
        27:02:21:00:fc:37:86:54:2f:48:ac:84:4d:a5:32:ad:6b:f0:
        a4:1d:39:c5:dc:eb:43:a7:f8:c1:4e:c5:68:f8:d0:0e:61:fe
-----BEGIN CERTIFICATE-----
MIIBLzCB1aADAgECAgEDMAoGCCqGSM49BAMCMAAwIBcNMjMwOTAxMDAwMDAwWhgP
OTk5ODExMzAwMDAwMDBaMCYxCzAJBgNVBAYTAkdCMRcwFQYDVQRhEw5OVFJHQi0x
MjM0NTY3ODBZMBMGByqGSM49AgEGCCqGSM49AwEHA0IABPVgKaRJkS74mLbyd8qh
6O8/YTjcFFL++3ZA80gRT2JdOXsc5GTjvIzvZ8jNQ1QubH14lCCAoHkmRwuTTsFr
BjWjGDAWMBQGA1UdIAQNMAswCQYHZ4EMAQUEATAKBggqhkjOPQQDAgNJADBGAiEA
rMIiq+boLkM+REk/RibTpS1/3Z58CVRdEBK36EI2BScCIQD8N4ZUL0ishE2lMq1r
8KQdOcXc60On+MFOxWj40A5h/g==
-----END CERTIFICATE-----