Certificate:
    Data:
        Version: 3 (0x2)
        Serial Number:
            3e:53:04:9b:4a:27:a6:16:ef:51:c5:1e
        Signature Algorithm: sha256WithRSAEncryption
        Issuer: CN = Lint CA, O = Lint, C = DE
        Validity
            Not Before: Sep  1 00:00:00 2023 GMT
            Not After : Sep  1 00:00:00 2024 GMT
        Subject: CN = Certificate, O = Lint, C = DE
        Subject Public Key Info:
            Public Key Algorithm: rsaEncryption
                RSA Public-Key: (2048 bit)
                Modulus:
                    00:e0:da:fe:a1:cc:7c:df:74:81:8f:f3:b6:69:c0:
                    a0:bd:1f:6b:41:a8:a1:6c:37:fc:64:ab:57:05:7a:
                    c2:63:a1:91:95:cd:1a:60:bb:e4:93:dd:e9:73:06:
                    42:25:72:56:0a:e2:41:46:95:91:68:b4:f2:07:68:
                    43:59:3f:53:44:fe:10:e2:95:67:83:93:6f:94:24:
                    55:bc:ab:94:76:47:fb:24:95:b9:88:ac:d6:fa:23:
                    f0:e4:6e:42:c7:e5:ba:c4:27:2d:b0:85:46:f4:94:
                    14:1b:25:78:2e:39:8e:5b:0b:64:f3:67:ba:07:cb:
                    73:02:7d:17:92:90:12:25:db:b5:3c:49:bd:07:fe:
                    fa:cb:5a:08:27:04:2e:c7:6e:c8:2d:57:e0:b3:f8:
                    07:10:bd:5d:92:a7:59:5e:e7:62:cd:b3:91:01:f1:
                    60:85:da:65:ff:c3:12:78:7c:47:a7:26:ac:d5:fd:
                    82:46:d4:f6:a4:fc:9e:70:9c:56:eb:14:40:c2:8f:
                    0c:de:65:76:91:80:f1:01:a3:b8:c0:db:7a:07:50:
                    4c:c8:28:42:87:99:65:4d:a6:9e:0d:48:64:19:23:
                    40:b1:3e:fc:50:cb:37:bb:bf:4d:f2:9c:05:c2:ac:
                    43:7d:35:eb:c2:e3:76:b0:a9:0e:de:03:90:87:30:
                    5f:6b
                Exponent: 65537 (0x10001)
        X509v3 extensions:
            X509v3 Authority Key Identifier: 
                keyid:1E:67:B1:8A:37:E9:55:F4:37:3F:75:91:9B:75:0F:F4:2D:1A:38:8E

            X509v3 Subject Key Identifier: 
                B9:0E:5B:11:4A:F4:3E:8F:3D:89:51:4A:16:F4:B4:09:08:F1:38:EF
            X509v3 Extended Key Usage: 
                E-mail Protection
            X509v3 Subject Alternative Name: 
                email:test@example.com
            Authority Information Access: 
                OCSP - URI:ldap://ocsp.example.com/C=DE
                OCSP - URI:ldap://ocsp.example.com/O=Lint
                CA Issuers - URI:ldap://caissuers.example.com/C=DE
                CA Issuers - URI:ldap://caissuers.example.com/O=Lint

            X509v3 Certificate Policies: 
                Policy: 2.23.140.1.5.1.1

    Signature Algorithm: sha256WithRSAEncryption
         52:d2:e6:71:d7:d3:3b:15:d5:e3:50:f3:d9:e9:e8:49:de:fa:
         45:88:8b:69:d9:03:bd:b1:39:9b:3c:a3:bc:b1:be:05:47:61:
         f4:66:54:db:ec:7a:6f:31:35:6c:cb:9f:e3:6b:79:f0:81:43:
         83:1d:40:de:d1:14:12:4a:56:3a:a0:2b:36:16:cf:3d:ce:fa:
         39:33:fd:3a:dc:93:01:24:00:e9:57:4c:f6:bd:f5:8c:d7:32:
         51:5f:64:6e:1b:df:93:77:b9:2d:c4:02:17:80:58:40:a7:e3:
         ca:c6:72:22:dc:9d:13:f8:8a:c6:84:76:e2:6f:b8:e7:8d:ba:
         b1:d2:a0:8d:fa:dc:c5:17:17:e2:e2:c8:f9:4b:87:5f:cb:2f:
         56:b2:24:e3:07:2a:ec:88:6a:22:26:27:9d:d5:75:29:8c:4c:
         05:71:a8:5f:b3:21:8c:c4:c9:3c:f6:58:7e:50:aa:44:17:3a:
         2e:6e:e7:e3:8f:5d:d2:b3:83:a6:10:f8:3b:84:fd:25:aa:7c:
         04:bd:1a:03:5c:c5:bf:0a:da:8c:3e:0c:e2:5a:01:e9:cc:6f:
         8c:20:c0:64:fc:5c:9a:d6:ec:84:72:97:dd:80:df:7c:3d:ef:
         f3:08:1f:54:09:8c:6e:ac:ae:66:e3:e8:64:80:e3:b7:0e:df:
         65:b3:25:22
-----BEGIN CERTIFICATE-----
MIIEPTCCAyWgAwIBAgIMPlMEm0onphbvUcUeMA0GCSqGSIb3DQEBCwUAMC4xEDAO
BgNVBAMMB0xpbnQgQ0ExDTALBgNVBAoMBExpbnQxCzAJBgNVBAYTAkRFMB4XDTIz
MDkwMTAwMDAwMFoXDTI0MDkwMTAwMDAwMFowMjEUMBIGA1UEAwwLQ2VydGlmaWNh
dGUxDTALBgNVBAoMBExpbnQxCzAJBgNVBAYTAkRFMIIBIjANBgkqhkiG9w0BAQEF
AAOCAQ8AMIIBCgKCAQEA4Nr+ocx833SBj/O2acCgvR9rQaihbDf8ZKtXBXrCY6GR
lc0aYLvkk93pcwZCJXJWCuJBRpWRaLTyB2hDWT9TRP4Q4pVng5NvlCRVvKuUdkf7
JJW5iKzW+iPw5G5Cx+W6xCctsIVG9JQUGyV4LjmOWwtk82e6B8tzAn0XkpASJdu1
PEm9B/76y1oIJwQux27ILVfgs/gHEL1dkqdZXudizbORAfFghdpl/8MSeHxHpyas
1f2CRtT2pPyecJxW6xRAwo8M3mV2kYDxAaO4wNt6B1BMyChCh5llTaaeDUhkGSNA
sT78UMs3u79N8pwFwqxDfTXrwuN2sKkO3gOQhzBfawIDAQABo4IBVTCCAVEwHwYD
VR0jBBgwFoAUHmexijfpVfQ3P3WRm3UP9C0aOI4wHQYDVR0OBBYEFLkOWxFK9D6P
PYlRShb0tAkI8TjvMBMGA1UdJQQMMAoGCCsGAQUFBwMEMBsGA1UdEQQUMBKBEHRl
c3RAZXhhbXBsZS5jb20wgcYGCCsGAQUFBwEBBIG5MIG2MCgGCCsGAQUFBzABhhxs
ZGFwOi8vb2NzcC5leGFtcGxlLmNvbS9DPURFMCoGCCsGAQUFBzABhh5sZGFwOi8v
b2NzcC5leGFtcGxlLmNvbS9PPUxpbnQwLQYIKwYBBQUHMAKGIWxkYXA6Ly9jYWlz
c3VlcnMuZXhhbXBsZS5jb20vQz1ERTAvBggrBgEFBQcwAoYjbGRhcDovL2NhaXNz
dWVycy5leGFtcGxlLmNvbS9PPUxpbnQwFAYDVR0gBA0wCzAJBgdngQwBBQEBMA0G
CSqGSIb3DQEBCwUAA4IBAQBS0uZx19M7FdXjUPPZ6ehJ3vpFiItp2QO9sTmbPKO8
sb4FR2H0ZlTb7HpvMTVsy5/ja3nwgUODHUDe0RQSSlY6oCs2Fs89zvo5M/063JMB
JADpV0z2vfWM1zJRX2RuG9+Td7ktxAIXgFhAp+PKxnIi3J0T+IrGhHbib7jnjbqx
0qCN+tzFFxfi4sj5S4dfyy9WsiTjByrsiGoiJied1XUpjEwFcahfsyGMxMk89lh+
UKpEFzoubufjj13Ss4OmEPg7hP0lqnwEvRoDXMW/CtqMPgziWgHpzG+MIMBk/Fya
1uyEcpfdgN98Pe/zCB9UCYxurK5m4+hkgOO3Dt9lsyUi
-----END CERTIFICATE-----
