Certificate:
    Data:
        Version: 3 (0x2)
        Serial Number: 3 (0x3)
        Signature Algorithm: ecdsa-with-SHA256
        Issuer: 
        Validity
            Not Before: Dec 19 17:22:50 2023 GMT
            Not After : Nov 30 00:00:00 9998 GMT
        Subject: 
        Subject Public Key Info:
            Public Key Algorithm: id-ecPublicKey
                Public-Key: (256 bit)
                pub:
                    04:4c:6f:d1:2b:55:07:e8:4c:93:9f:89:29:eb:c5:
                    3f:e1:d5:61:14:43:39:5f:ac:f7:db:af:3c:68:37:
                    ca:b4:94:d9:b6:06:da:d8:39:4e:d3:58:19:29:60:
                    5a:32:f3:9e:20:df:2a:51:e8:c1:ca:1d:d0:be:c5:
                    77:06:b5:09:6c
                ASN1 OID: prime256v1
                NIST CURVE: P-256
        X509v3 extensions:
            X509v3 Extended Key Usage: 
                E-mail Protection
            X509v3 Certificate Policies: 
                Policy: 2.23.140.1.5.1.1
            X509v3 CRL Distribution Points: 
                Full Name:
                  URI:ldap://example.com
    Signature Algorithm: ecdsa-with-SHA256
    Signature Value:
        30:44:02:20:37:8f:bc:61:b8:09:d3:bb:6e:c0:b6:ae:2a:64:
        1e:8e:02:60:dc:28:4a:74:88:bd:fb:a9:6f:e2:a8:3d:a1:b4:
        02:20:4e:db:12:05:79:b3:09:17:9b:66:b3:a3:d6:6b:45:52:
        7f:df:9b:58:93:36:13:1c:73:fb:78:95:4e:7f:ee:56
-----BEGIN CERTIFICATE-----
MIIBQTCB6aADAgECAgEDMAoGCCqGSM49BAMCMAAwIBcNMjMxMjE5MTcyMjUwWhgP
OTk5ODExMzAwMDAwMDBaMAAwWTATBgcqhkjOPQIBBggqhkjOPQMBBwNCAARMb9Er
VQfoTJOfiSnrxT/h1WEUQzlfrPfbrzxoN8q0lNm2BtrYOU7TWBkpYFoy854g3ypR
6MHKHdC+xXcGtQlso1IwUDATBgNVHSUEDDAKBggrBgEFBQcDBDAUBgNVHSAEDTAL
MAkGB2eBDAEFAQEwIwYDVR0fBBwwGjAYoBagFIYSbGRhcDovL2V4YW1wbGUuY29t
MAoGCCqGSM49BAMCA0cAMEQCIDePvGG4CdO7bsC2ripkHo4CYNwoSnSIvfupb+Ko
PaG0AiBO2xIFebMJF5tms6PWa0VSf9+bWJM2Exxz+3iVTn/uVg==
-----END CERTIFICATE-----
