Certificate:
    Data:
        Version: 3 (0x2)
        Serial Number:
            02:1e:95:8a:e9:94:76:1f:52:6e:47:ac
        Signature Algorithm: sha256WithRSAEncryption
        Issuer: CN = Lint CA, O = Lint, C = DE
        Validity
            Not Before: Sep  1 00:00:00 2023 GMT
            Not After : Sep  1 00:00:00 2024 GMT
        Subject: CN = Certificate, O = Lint, C = DE
        Subject Public Key Info:
            Public Key Algorithm: rsaEncryption
                RSA Public-Key: (2048 bit)
                Modulus:
                    00:93:76:96:ab:54:d8:81:90:be:50:52:42:e6:59:
                    bc:dc:70:48:56:61:3f:f4:08:ba:9b:e2:d8:19:08:
                    50:b9:ec:ab:bb:45:fc:26:fb:03:a3:5b:03:3b:36:
                    72:bf:11:6f:47:50:df:73:2e:82:91:e7:36:08:4b:
                    b5:d6:d6:4e:e3:e5:0d:6e:bc:2a:81:e1:1c:44:43:
                    f9:47:09:c0:4f:98:a5:67:a0:da:47:46:8a:95:95:
                    cf:33:5f:b9:b5:bb:12:22:13:1c:0c:99:4a:dd:22:
                    e0:23:f8:71:eb:6d:ca:5c:b5:d0:c7:0e:9a:1f:81:
                    c7:0a:b0:94:91:2a:ee:ec:61:31:a8:5f:e3:0f:b6:
                    33:f3:60:59:dc:b2:4d:18:aa:02:47:8c:14:7f:c8:
                    a9:e4:03:d5:fe:e6:bd:8a:44:a3:79:71:49:44:e2:
                    fa:1a:b6:1c:0e:96:50:4d:d6:79:a0:55:02:e7:aa:
                    fd:9f:97:eb:13:05:38:f6:ad:20:65:93:d5:73:37:
                    97:e6:4a:48:38:6b:bf:2b:12:fa:4d:6d:1b:f4:d2:
                    f7:5d:62:d5:2d:17:00:43:6c:d5:50:e3:7c:7c:db:
                    2b:72:bb:4c:f1:a9:30:94:94:00:3b:b3:cc:a3:e8:
                    4b:dd:c8:30:60:a3:b7:6b:9e:53:77:28:a7:08:3e:
                    67:25
                Exponent: 65537 (0x10001)
        X509v3 extensions:
            X509v3 Authority Key Identifier: 
                keyid:AA:37:6A:D8:62:5F:C7:93:E9:AB:F9:99:E4:C5:B6:82:72:89:DC:05

            X509v3 Subject Key Identifier: 
                BC:21:D9:1F:E4:23:80:71:91:46:C9:BB:9B:D5:9E:8D:2B:97:45:43
            X509v3 Extended Key Usage: 
                E-mail Protection
            X509v3 Subject Alternative Name: 
                email:test@example.com
            Authority Information Access: 
                OCSP - URI:http://ocsp.example.com/ocsp
                OCSP - URI:ldap://ocsp.example.com/C=DE
                CA Issuers - URI:http://caissuers.example.com/caissuers
                CA Issuers - URI:ldap://caissuers.example.com/C=DE

            X509v3 Certificate Policies: 
                Policy: 2.23.140.1.5.1.1

    Signature Algorithm: sha256WithRSAEncryption
         9b:85:31:1b:f3:0b:58:35:12:14:67:17:41:e8:43:54:fe:0e:
         d3:38:bb:e6:28:a0:b0:39:1b:a2:25:3d:c1:29:ec:d7:a7:25:
         a8:57:29:b8:10:91:71:74:27:26:cd:a0:3d:30:c3:d7:20:53:
         e1:41:f8:81:21:64:1a:15:f4:87:e5:19:a3:25:8f:35:03:3b:
         3b:67:8d:3c:38:7b:60:07:3d:33:e4:ee:6d:86:a7:0a:01:ad:
         01:a7:d6:00:d1:22:29:a0:6e:2f:ef:1a:04:09:e6:79:31:43:
         4d:6a:ab:73:5e:01:cb:81:c4:0a:33:e5:fa:61:3f:e7:fd:81:
         ad:90:84:65:cb:7c:f9:38:bc:a9:fc:4d:4d:ea:66:0d:a1:c7:
         9e:5a:a8:3b:7f:e6:49:e1:3b:80:4e:08:9c:b4:8f:ad:7a:07:
         07:e1:50:48:ac:f2:f9:97:ac:91:6e:3d:8b:a0:09:86:7d:d5:
         31:3c:5f:3d:be:56:de:fa:ee:fc:1b:45:d7:21:b4:3c:f8:45:
         88:02:2b:80:0c:60:76:7d:9f:e5:5a:94:bd:e5:fc:3a:cc:d1:
         b0:ef:bd:35:7d:1d:7b:07:cb:09:bf:78:77:f7:2a:6d:3c:e2:
         c7:bd:fa:cc:a9:2f:fb:6a:55:67:99:4a:49:4c:0a:25:f8:62:
         df:44:83:5a
-----BEGIN CERTIFICATE-----
MIIEPjCCAyagAwIBAgIMAh6ViumUdh9SbkesMA0GCSqGSIb3DQEBCwUAMC4xEDAO
BgNVBAMMB0xpbnQgQ0ExDTALBgNVBAoMBExpbnQxCzAJBgNVBAYTAkRFMB4XDTIz
MDkwMTAwMDAwMFoXDTI0MDkwMTAwMDAwMFowMjEUMBIGA1UEAwwLQ2VydGlmaWNh
dGUxDTALBgNVBAoMBExpbnQxCzAJBgNVBAYTAkRFMIIBIjANBgkqhkiG9w0BAQEF
AAOCAQ8AMIIBCgKCAQEAk3aWq1TYgZC+UFJC5lm83HBIVmE/9Ai6m+LYGQhQueyr
u0X8JvsDo1sDOzZyvxFvR1Dfcy6Ckec2CEu11tZO4+UNbrwqgeEcREP5RwnAT5il
Z6DaR0aKlZXPM1+5tbsSIhMcDJlK3SLgI/hx623KXLXQxw6aH4HHCrCUkSru7GEx
qF/jD7Yz82BZ3LJNGKoCR4wUf8ip5APV/ua9ikSjeXFJROL6GrYcDpZQTdZ5oFUC
56r9n5frEwU49q0gZZPVczeX5kpIOGu/KxL6TW0b9NL3XWLVLRcAQ2zVUON8fNsr
crtM8akwlJQAO7PMo+hL3cgwYKO3a55TdyinCD5nJQIDAQABo4IBVjCCAVIwHwYD
VR0jBBgwFoAUqjdq2GJfx5Ppq/mZ5MW2gnKJ3AUwHQYDVR0OBBYEFLwh2R/kI4Bx
kUbJu5vVno0rl0VDMBMGA1UdJQQMMAoGCCsGAQUFBwMEMBsGA1UdEQQUMBKBEHRl
c3RAZXhhbXBsZS5jb20wgccGCCsGAQUFBwEBBIG6MIG3MCgGCCsGAQUFBzABhhxo
dHRwOi8vb2NzcC5leGFtcGxlLmNvbS9vY3NwMCgGCCsGAQUFBzABhhxsZGFwOi8v
b2NzcC5leGFtcGxlLmNvbS9DPURFMDIGCCsGAQUFBzAChiZodHRwOi8vY2Fpc3N1
ZXJzLmV4YW1wbGUuY29tL2NhaXNzdWVyczAtBggrBgEFBQcwAoYhbGRhcDovL2Nh
aXNzdWVycy5leGFtcGxlLmNvbS9DPURFMBQGA1UdIAQNMAswCQYHZ4EMAQUBATAN
BgkqhkiG9w0BAQsFAAOCAQEAm4UxG/MLWDUSFGcXQehDVP4O0zi75iigsDkboiU9
wSns16clqFcpuBCRcXQnJs2gPTDD1yBT4UH4gSFkGhX0h+UZoyWPNQM7O2eNPDh7
YAc9M+TubYanCgGtAafWANEiKaBuL+8aBAnmeTFDTWqrc14By4HECjPl+mE/5/2B
rZCEZct8+Ti8qfxNTepmDaHHnlqoO3/mSeE7gE4InLSPrXoHB+FQSKzy+ZeskW49
i6AJhn3VMTxfPb5W3vru/BtF1yG0PPhFiAIrgAxgdn2f5VqUveX8OszRsO+9NX0d
ewfLCb94d/cqbTzix736zKkv+2pVZ5lKSUwKJfhi30SDWg==
-----END CERTIFICATE-----
