Certificate:
    Data:
        Version: 3 (0x2)
        Serial Number: 3 (0x3)
        Signature Algorithm: ecdsa-with-SHA256
        Issuer: 
        Validity
            Not Before: Feb 13 19:15:27 2024 GMT
            Not After : Nov 30 00:00:00 9998 GMT
        Subject: 
        Subject Public Key Info:
            Public Key Algorithm: id-ecPublicKey
                Public-Key: (256 bit)
                pub:
                    04:df:e4:01:1a:7b:25:62:45:ce:af:1a:0c:f6:34:
                    35:ca:c6:25:a8:7a:b2:de:2e:13:6c:8e:82:96:57:
                    1e:7b:a4:ab:b4:42:4b:25:8a:ec:13:2b:77:67:96:
                    fe:b4:c5:32:c4:e3:8f:9f:17:fd:3c:a4:e1:fb:2f:
                    f4:f5:b7:fe:99
                ASN1 OID: prime256v1
                NIST CURVE: P-256
        X509v3 extensions:
            X509v3 Extended Key Usage: 
                E-mail Protection
            X509v3 Certificate Policies: 
                Policy: 2.23.140.1.5.1.1
            X509v3 CRL Distribution Points: 
                Full Name:
                  URI:ldap://example.com
                Full Name:
                  URI:http://example.com
    Signature Algorithm: ecdsa-with-SHA256
    Signature Value:
        30:45:02:21:00:e1:7e:f6:31:49:1b:5d:ca:70:cc:b4:a7:3a:
        50:57:21:1f:77:ee:d1:49:c1:06:51:1d:a3:ce:fd:30:47:a8:
        5d:02:20:51:b7:49:53:5f:4d:2e:87:d3:0d:c0:ea:51:64:0e:
        7c:46:e2:30:18:1a:ac:80:4a:2a:9f:2d:3b:0f:7f:a5:67
-----BEGIN CERTIFICATE-----
MIIBXTCCAQOgAwIBAgIBAzAKBggqhkjOPQQDAjAAMCAXDTI0MDIxMzE5MTUyN1oY
Dzk5OTgxMTMwMDAwMDAwWjAAMFkwEwYHKoZIzj0CAQYIKoZIzj0DAQcDQgAE3+QB
GnslYkXOrxoM9jQ1ysYlqHqy3i4TbI6Cllcee6SrtEJLJYrsEyt3Z5b+tMUyxOOP
nxf9PKTh+y/09bf+maNsMGowEwYDVR0lBAwwCgYIKwYBBQUHAwQwFAYDVR0gBA0w
CzAJBgdngQwBBQEBMD0GA1UdHwQ2MDQwGKAWoBSGEmxkYXA6Ly9leGFtcGxlLmNv
bTAYoBagFIYSaHR0cDovL2V4YW1wbGUuY29tMAoGCCqGSM49BAMCA0gAMEUCIQDh
fvYxSRtdynDMtKc6UFchH3fu0UnBBlEdo879MEeoXQIgUbdJU19NLofTDcDqUWQO
fEbiMBgarIBKKp8tOw9/pWc=
-----END CERTIFICATE-----
