Certificate:
    Data:
        Version: 3 (0x2)
        Serial Number: 3 (0x3)
        Signature Algorithm: ecdsa-with-SHA256
        Issuer: 
        Validity
            Not Before: May  2 00:00:00 2023 GMT
            Not After : Nov 30 00:00:00 9998 GMT
        Subject: CN = johnsmith@example.com
        Subject Public Key Info:
            Public Key Algorithm: id-ecPublicKey
                Public-Key: (256 bit)
                pub:
                    04:60:a6:a1:36:40:de:33:5a:09:73:86:a9:30:2c:
                    cb:43:aa:d7:77:f4:77:37:d7:bf:4c:f5:48:24:39:
                    1b:8f:fc:51:0a:77:81:3a:6e:34:c2:1c:ef:a8:03:
                    39:42:21:16:2e:1a:f7:ed:8d:0e:38:e0:9f:23:52:
                    04:3c:9e:9d:c4
                ASN1 OID: prime256v1
                NIST CURVE: P-256
        X509v3 extensions:
            X509v3 Certificate Policies: 
                Policy: 2.23.140.1.5.1.1

    Signature Algorithm: ecdsa-with-SHA256
         30:46:02:21:00:c8:88:94:49:ba:b0:73:0f:f0:c9:26:0c:5a:
         99:a0:36:b4:6b:e0:cf:c1:2f:49:9b:cb:bc:d7:ac:52:97:f0:
         ca:02:21:00:a5:14:41:7c:46:dc:dd:af:02:89:0e:3b:79:17:
         16:c0:b1:3c:4a:c2:e3:e8:e5:51:9e:e9:9b:a1:69:01:c5:a0
-----BEGIN CERTIFICATE-----
MIIBKTCBz6ADAgECAgEDMAoGCCqGSM49BAMCMAAwIBcNMjMwNTAyMDAwMDAwWhgP
OTk5ODExMzAwMDAwMDBaMCAxHjAcBgNVBAMMFWpvaG5zbWl0aEBleGFtcGxlLmNv
bTBZMBMGByqGSM49AgEGCCqGSM49AwEHA0IABGCmoTZA3jNaCXOGqTAsy0Oq13f0
dzfXv0z1SCQ5G4/8UQp3gTpuNMIc76gDOUIhFi4a9+2NDjjgnyNSBDyencSjGDAW
MBQGA1UdIAQNMAswCQYHZ4EMAQUBATAKBggqhkjOPQQDAgNJADBGAiEAyIiUSbqw
cw/wySYMWpmgNrRr4M/BL0mby7zXrFKX8MoCIQClFEF8RtzdrwKJDjt5FxbAsTxK
wuPo5VGe6ZuhaQHFoA==
-----END CERTIFICATE-----