Certificate:
    Data:
        Version: 3 (0x2)
        Serial Number: 3 (0x3)
        Signature Algorithm: ecdsa-with-SHA256
        Issuer:
        Validity
            Not Before: Sep  1 00:00:00 2023 GMT
            Not After : Nov 30 00:00:00 9998 GMT
        Subject: CN = johnsmith@example.com
        Subject Public Key Info:
            Public Key Algorithm: id-ecPublicKey
                Public-Key: (256 bit)
                pub:
                    04:04:24:34:bb:ef:b9:85:d0:eb:ba:6e:a8:3c:98:
                    48:45:b1:29:3e:99:42:f5:ce:0f:43:55:11:35:68:
                    d9:44:ee:5a:25:d9:24:e9:47:b1:bf:e5:12:92:6d:
                    cc:46:58:46:f7:3e:17:e7:d2:01:a8:ba:09:69:e2:
                    01:88:0e:d8:33
                ASN1 OID: prime256v1
                NIST CURVE: P-256
        X509v3 extensions:
            X509v3 Certificate Policies:
                Policy: 2.23.140.1.5.1.3
    Signature Algorithm: ecdsa-with-SHA256
    Signature Value:
        30:45:02:20:2b:20:74:33:3e:f4:2d:49:4b:ef:9a:47:1c:f6:
        45:59:d0:4d:47:5c:83:5c:f8:5f:34:1a:96:1f:27:1f:fd:d8:
        02:21:00:9d:40:17:4a:8d:ee:ad:fd:77:0b:52:cb:fb:99:40:
        fb:55:41:13:10:b8:58:be:ea:9b:42:78:21:55:6d:08:67
-----BEGIN CERTIFICATE-----
MIIBKDCBz6ADAgECAgEDMAoGCCqGSM49BAMCMAAwIBcNMjMwOTAxMDAwMDAwWhgP
OTk5ODExMzAwMDAwMDBaMCAxHjAcBgNVBAMMFWpvaG5zbWl0aEBleGFtcGxlLmNv
bTBZMBMGByqGSM49AgEGCCqGSM49AwEHA0IABAQkNLvvuYXQ67puqDyYSEWxKT6Z
QvXOD0NVETVo2UTuWiXZJOlHsb/lEpJtzEZYRvc+F+fSAai6CWniAYgO2DOjGDAW
MBQGA1UdIAQNMAswCQYHZ4EMAQUBAzAKBggqhkjOPQQDAgNIADBFAiArIHQzPvQt
SUvvmkcc9kVZ0E1HXINc+F80GpYfJx/92AIhAJ1AF0qN7q39dwtSy/uZQPtVQRMQ
uFi+6ptCeCFVbQhn
-----END CERTIFICATE-----