Certificate:
    Data:
        Version: 3 (0x2)
        Serial Number: 3 (0x3)
        Signature Algorithm: ecdsa-with-SHA256
        Issuer: 
        Validity
            Not Before: Sep  2 00:00:00 2023 GMT
            Not After : Nov 30 00:00:00 9998 GMT
        Subject: CN = johnsmith@example.com
        Subject Public Key Info:
            Public Key Algorithm: id-ecPublicKey
                Public-Key: (256 bit)
                pub:
                    04:40:42:9c:5b:49:e2:31:38:01:3d:07:42:a1:4c:
                    c8:43:2b:0a:cd:62:3d:5b:40:4a:e1:f6:ed:df:06:
                    a8:d3:cc:fd:bf:21:c1:4a:48:41:bb:3f:c1:66:a8:
                    12:b3:84:40:97:18:a3:b9:ce:3e:31:cb:d4:48:84:
                    81:12:52:93:df
                ASN1 OID: prime256v1
                NIST CURVE: P-256
        X509v3 extensions:
            X509v3 Certificate Policies: 
                Policy: 2.23.140.1.5.1.3

    Signature Algorithm: ecdsa-with-SHA256
         30:45:02:20:09:34:af:8d:f7:20:90:a3:2e:de:44:12:8c:92:
         c7:cf:02:73:b7:c3:e1:fb:fd:32:2a:19:65:7f:37:b8:f0:25:
         02:21:00:d0:50:43:27:a6:91:f0:52:7d:73:9d:ca:7c:6f:9d:
         7e:00:84:c9:3f:3f:2f:02:91:da:11:a1:6f:09:6f:a0:7a
-----BEGIN CERTIFICATE-----
MIIBKDCBz6ADAgECAgEDMAoGCCqGSM49BAMCMAAwIBcNMjMwOTAyMDAwMDAwWhgP
OTk5ODExMzAwMDAwMDBaMCAxHjAcBgNVBAMMFWpvaG5zbWl0aEBleGFtcGxlLmNv
bTBZMBMGByqGSM49AgEGCCqGSM49AwEHA0IABEBCnFtJ4jE4AT0HQqFMyEMrCs1i
PVtASuH27d8GqNPM/b8hwUpIQbs/wWaoErOEQJcYo7nOPjHL1EiEgRJSk9+jGDAW
MBQGA1UdIAQNMAswCQYHZ4EMAQUBAzAKBggqhkjOPQQDAgNIADBFAiAJNK+N9yCQ
oy7eRBKMksfPAnO3w+H7/TIqGWV/N7jwJQIhANBQQyemkfBSfXOdynxvnX4AhMk/
Py8CkdoRoW8Jb6B6
-----END CERTIFICATE-----