Certificate:
    Data:
        Version: 3 (0x2)
        Serial Number:
            38:1a:aa:d1:e2:03:8a:ac:3c:51:5b:d0
        Signature Algorithm: ecdsa-with-SHA256
        Issuer: CN = Lint CA, O = Lint, C = DE
        Validity
            Not Before: Sep  1 00:00:00 2023 GMT
            Not After : Sep  1 00:00:00 2024 GMT
        Subject: emailAddress = test@example.com
        Subject Public Key Info:
            Public Key Algorithm: id-ecPublicKey
                Public-Key: (256 bit)
                pub:
                    04:fe:aa:67:85:05:a3:b9:20:9e:84:95:37:73:a2:
                    e6:ff:15:ad:a8:15:63:fb:85:95:05:61:0b:54:34:
                    34:99:d9:ec:81:b4:87:3c:1f:3c:15:a5:be:4e:7d:
                    84:1e:a7:75:38:e2:ac:e3:fb:91:ad:12:e5:cc:0a:
                    0d:b1:3b:c0:49
                ASN1 OID: prime256v1
                NIST CURVE: P-256
        X509v3 extensions:
            X509v3 Certificate Policies: 
                Policy: 2.23.140.1.5.1.2
    Signature Algorithm: ecdsa-with-SHA256
    Signature Value:
        30:46:02:21:00:a5:5a:28:79:18:3e:0f:eb:17:66:b6:35:87:
        c0:84:3b:51:0b:5e:97:b6:2c:6b:3c:62:11:fd:a5:b8:5d:c3:
        48:02:21:00:d5:7d:8d:41:0b:47:11:72:2d:88:02:c6:f1:ca:
        02:e1:e0:87:cb:e6:7d:71:18:85:7d:b6:61:dc:e0:cb:43:17
-----BEGIN CERTIFICATE-----
MIIBYjCCAQegAwIBAgIMOBqq0eIDiqw8UVvQMAoGCCqGSM49BAMCMC4xEDAOBgNV
BAMMB0xpbnQgQ0ExDTALBgNVBAoMBExpbnQxCzAJBgNVBAYTAkRFMB4XDTIzMDkw
MTAwMDAwMFoXDTI0MDkwMTAwMDAwMFowITEfMB0GCSqGSIb3DQEJARYQdGVzdEBl
eGFtcGxlLmNvbTBZMBMGByqGSM49AgEGCCqGSM49AwEHA0IABP6qZ4UFo7kgnoSV
N3Oi5v8VragVY/uFlQVhC1Q0NJnZ7IG0hzwfPBWlvk59hB6ndTjirOP7ka0S5cwK
DbE7wEmjGDAWMBQGA1UdIAQNMAswCQYHZ4EMAQUBAjAKBggqhkjOPQQDAgNJADBG
AiEApVooeRg+D+sXZrY1h8CEO1ELXpe2LGs8YhH9pbhdw0gCIQDVfY1BC0cRci2I
AsbxygLh4IfL5n1xGIV9tmHc4MtDFw==
-----END CERTIFICATE-----
