Certificate:
    Data:
        Version: 3 (0x2)
        Serial Number: 3 (0x3)
        Signature Algorithm: ecdsa-with-SHA256
        Issuer: 
        Validity
            Not Before: Sep  2 00:00:00 2023 GMT
            Not After : Nov 30 00:00:00 9998 GMT
        Subject: CN = johnsmith@example.com
        Subject Public Key Info:
            Public Key Algorithm: id-ecPublicKey
                Public-Key: (256 bit)
                pub:
                    04:23:7b:69:18:e3:f9:a1:37:a7:15:52:3a:93:26:
                    4a:16:57:35:f9:2a:d5:63:ba:51:a5:84:27:71:db:
                    e8:87:cb:aa:bc:e1:37:39:0b:dc:6a:9f:c9:02:61:
                    a9:60:ae:e6:01:a4:c7:84:ee:65:f1:08:ba:fa:51:
                    35:bf:5c:2e:27
                ASN1 OID: prime256v1
                NIST CURVE: P-256
        X509v3 extensions:
            X509v3 Certificate Policies: 
                Policy: 2.23.140.1.5.1.2

    Signature Algorithm: ecdsa-with-SHA256
         30:45:02:21:00:df:00:d5:9c:b2:9c:af:09:35:3e:fb:09:18:
         98:05:1d:83:3b:7f:56:24:68:d3:0c:aa:11:ca:b2:1d:82:6a:
         93:02:20:6b:da:55:22:5d:84:59:c2:a0:c8:22:f6:3b:ef:34:
         ac:3a:67:6e:c6:b0:c2:29:db:4f:fe:68:36:c7:39:b1:02
-----BEGIN CERTIFICATE-----
MIIBKDCBz6ADAgECAgEDMAoGCCqGSM49BAMCMAAwIBcNMjMwOTAyMDAwMDAwWhgP
OTk5ODExMzAwMDAwMDBaMCAxHjAcBgNVBAMMFWpvaG5zbWl0aEBleGFtcGxlLmNv
bTBZMBMGByqGSM49AgEGCCqGSM49AwEHA0IABCN7aRjj+aE3pxVSOpMmShZXNfkq
1WO6UaWEJ3Hb6IfLqrzhNzkL3GqfyQJhqWCu5gGkx4TuZfEIuvpRNb9cLiejGDAW
MBQGA1UdIAQNMAswCQYHZ4EMAQUBAjAKBggqhkjOPQQDAgNIADBFAiEA3wDVnLKc
rwk1PvsJGJgFHYM7f1YkaNMMqhHKsh2CapMCIGvaVSJdhFnCoMgi9jvvNKw6Z27G
sMIp20/+aDbHObEC
-----END CERTIFICATE-----