Certificate:
    Data:
        Version: 3 (0x2)
        Serial Number:
            a6:a5:7b:23:9e:14:a9:f7:8d:9d:f6:05
        Signature Algorithm: ecdsa-with-SHA256
        Issuer: CN = Lint CA, O = Lint, C = DE
        Validity
            Not Before: Sep  1 00:00:00 2023 GMT
            Not After : Sep  1 00:00:00 2024 GMT
        Subject: O = Lint
        Subject Public Key Info:
            Public Key Algorithm: id-ecPublicKey
                Public-Key: (256 bit)
                pub:
                    04:91:55:f8:f3:89:f0:26:e5:95:10:3b:1e:3a:d1:
                    9e:1e:1e:39:e4:cb:b4:b6:14:b5:6b:ff:17:2b:33:
                    2f:5f:53:22:65:70:de:4f:e9:7b:87:f3:29:12:e7:
                    5c:db:95:d1:1e:89:c5:85:57:d1:56:f5:22:23:ed:
                    71:7c:1f:9e:2c
                ASN1 OID: prime256v1
                NIST CURVE: P-256
        X509v3 extensions:
            X509v3 Certificate Policies: 
                Policy: 2.23.140.1.5.1.2
    Signature Algorithm: ecdsa-with-SHA256
    Signature Value:
        30:44:02:20:0c:f5:04:2a:21:75:1d:18:1a:2e:23:7a:27:b7:
        2b:69:6c:a2:0b:98:76:84:f7:3f:c9:dd:1e:73:b9:c9:27:42:
        02:20:0c:1f:6a:d5:04:24:69:2a:91:4e:7b:05:89:23:d4:ba:
        45:a1:0c:63:dd:5d:44:5d:3a:d0:81:c9:dc:50:c9:6f
-----BEGIN CERTIFICATE-----
MIIBTjCB9qADAgECAg0ApqV7I54UqfeNnfYFMAoGCCqGSM49BAMCMC4xEDAOBgNV
BAMMB0xpbnQgQ0ExDTALBgNVBAoMBExpbnQxCzAJBgNVBAYTAkRFMB4XDTIzMDkw
MTAwMDAwMFoXDTI0MDkwMTAwMDAwMFowDzENMAsGA1UECgwETGludDBZMBMGByqG
SM49AgEGCCqGSM49AwEHA0IABJFV+POJ8CbllRA7HjrRnh4eOeTLtLYUtWv/Fysz
L19TImVw3k/pe4fzKRLnXNuV0R6JxYVX0Vb1IiPtcXwfniyjGDAWMBQGA1UdIAQN
MAswCQYHZ4EMAQUBAjAKBggqhkjOPQQDAgNHADBEAiAM9QQqIXUdGBouI3ontytp
bKILmHaE9z/J3R5zucknQgIgDB9q1QQkaSqRTnsFiSPUukWhDGPdXURdOtCBydxQ
yW8=
-----END CERTIFICATE-----
