Certificate:
    Data:
        Version: 3 (0x2)
        Serial Number: 3 (0x3)
        Signature Algorithm: ecdsa-with-SHA256
        Issuer: 
        Validity
            Not Before: Sep  2 00:00:00 2023 GMT
            Not After : Nov 30 00:00:00 9998 GMT
        Subject: CN = johnsmith@example.com, C = US
        Subject Public Key Info:
            Public Key Algorithm: id-ecPublicKey
                Public-Key: (256 bit)
                pub:
                    04:1d:18:18:38:d0:29:57:63:f6:1e:e6:be:c1:5e:
                    c6:45:65:5a:94:c4:68:6c:95:2e:47:7b:fd:d3:1b:
                    d8:6b:18:d1:82:88:71:46:3a:8f:c2:6f:55:a8:a1:
                    4c:1e:85:fd:76:f1:a7:69:49:2e:dd:51:19:fd:b7:
                    e4:6c:87:b4:0e
                ASN1 OID: prime256v1
                NIST CURVE: P-256
        X509v3 extensions:
            X509v3 Certificate Policies: 
                Policy: 2.23.140.1.5.1.1

    Signature Algorithm: ecdsa-with-SHA256
         30:45:02:20:7f:b7:d1:00:a3:3e:98:dc:fb:65:b9:af:e4:2b:
         11:9a:33:bf:a6:0c:15:6d:6b:44:f1:eb:49:1b:7b:56:a2:e4:
         02:21:00:d7:07:19:62:05:db:65:41:f4:58:36:e8:81:81:6d:
         fe:00:b4:83:37:ef:e7:ae:3c:85:cb:76:2e:fe:b7:47:6a
-----BEGIN CERTIFICATE-----
MIIBNTCB3KADAgECAgEDMAoGCCqGSM49BAMCMAAwIBcNMjMwOTAyMDAwMDAwWhgP
OTk5ODExMzAwMDAwMDBaMC0xHjAcBgNVBAMMFWpvaG5zbWl0aEBleGFtcGxlLmNv
bTELMAkGA1UEBhMCVVMwWTATBgcqhkjOPQIBBggqhkjOPQMBBwNCAAQdGBg40ClX
Y/Ye5r7BXsZFZVqUxGhslS5He/3TG9hrGNGCiHFGOo/Cb1WooUwehf128adpSS7d
URn9t+Rsh7QOoxgwFjAUBgNVHSAEDTALMAkGB2eBDAEFAQEwCgYIKoZIzj0EAwID
SAAwRQIgf7fRAKM+mNz7Zbmv5CsRmjO/pgwVbWtE8etJG3tWouQCIQDXBxliBdtl
QfRYNuiBgW3+ALSDN+/nrjyFy3Yu/rdHag==
-----END CERTIFICATE-----