Certificate:
    Data:
        Version: 3 (0x2)
        Serial Number: 3 (0x3)
        Signature Algorithm: ecdsa-with-SHA256
        Issuer: 
        Validity
            Not Before: Sep  2 00:00:00 2023 GMT
            Not After : Nov 30 00:00:00 9998 GMT
        Subject: CN = johnsmith@example.com
        Subject Public Key Info:
            Public Key Algorithm: id-ecPublicKey
                Public-Key: (256 bit)
                pub:
                    04:a1:ed:8b:dd:62:fc:cc:2d:f4:28:cd:8c:8d:5a:
                    1d:1f:6c:36:c3:03:81:b4:9f:6e:6d:2d:90:b1:7d:
                    fa:2f:eb:d6:3c:83:7c:9f:2c:5a:b4:37:3e:ae:56:
                    57:6b:db:df:6a:1c:db:73:e6:d4:25:b1:15:d6:47:
                    f2:71:de:51:d0
                ASN1 OID: prime256v1
                NIST CURVE: P-256
        X509v3 extensions:
            X509v3 Certificate Policies: 
                Policy: 2.23.140.1.5.1.1

    Signature Algorithm: ecdsa-with-SHA256
         30:45:02:20:41:fa:93:51:d2:80:69:a5:5e:4a:cb:85:6a:1e:
         47:eb:cb:9b:b3:7b:2b:94:a7:be:a4:b2:55:cc:4a:15:16:f7:
         02:21:00:81:0c:18:bd:55:7a:16:6a:0c:84:a9:3b:bf:29:e2:
         21:d0:fd:b6:9b:99:14:5b:0b:55:a8:43:b9:64:b6:8e:dc
-----BEGIN CERTIFICATE-----
MIIBKDCBz6ADAgECAgEDMAoGCCqGSM49BAMCMAAwIBcNMjMwOTAyMDAwMDAwWhgP
OTk5ODExMzAwMDAwMDBaMCAxHjAcBgNVBAMMFWpvaG5zbWl0aEBleGFtcGxlLmNv
bTBZMBMGByqGSM49AgEGCCqGSM49AwEHA0IABKHti91i/Mwt9CjNjI1aHR9sNsMD
gbSfbm0tkLF9+i/r1jyDfJ8sWrQ3Pq5WV2vb32oc23Pm1CWxFdZH8nHeUdCjGDAW
MBQGA1UdIAQNMAswCQYHZ4EMAQUBATAKBggqhkjOPQQDAgNIADBFAiBB+pNR0oBp
pV5Ky4VqHkfry5uzeyuUp76kslXMShUW9wIhAIEMGL1VehZqDISpO78p4iHQ/bab
mRRbC1WoQ7lkto7c
-----END CERTIFICATE-----