Certificate:
    Data:
        Version: 3 (0x2)
        Serial Number:
            43:51:cc:08:81:ab:03:9d:b6:ac:97:78
        Signature Algorithm: ecdsa-with-SHA256
        Issuer: CN = Lint CA, O = Lint, C = DE
        Validity
            Not Before: Sep  1 00:00:00 2023 GMT
            Not After : Sep  1 00:00:00 2024 GMT
        Subject: CN = test@example.com
        Subject Public Key Info:
            Public Key Algorithm: id-ecPublicKey
                Public-Key: (256 bit)
                pub:
                    04:3e:31:d8:80:52:92:9b:d1:48:ab:64:2a:e8:2f:
                    6f:bf:27:89:36:fd:7d:ef:74:8e:a6:4d:4f:48:53:
                    8e:14:40:74:87:de:9d:19:b4:b2:91:c2:bc:86:0f:
                    bd:2f:e5:d8:ab:60:39:d5:76:9e:86:68:38:d0:46:
                    a0:fd:7b:8d:49
                ASN1 OID: prime256v1
                NIST CURVE: P-256
        X509v3 extensions:
            X509v3 Certificate Policies: 
                Policy: 2.23.140.1.5.1.2
    Signature Algorithm: ecdsa-with-SHA256
    Signature Value:
        30:45:02:21:00:f5:cb:7c:51:09:0d:5b:79:05:74:52:3c:6d:
        d4:9b:57:a7:c9:75:fd:ea:c3:0f:21:cd:c3:1f:f4:c0:bb:da:
        bd:02:20:66:33:39:d8:0b:14:1b:fa:d8:72:d9:0b:1c:86:e5:
        56:a8:96:5f:3f:b9:1e:00:3e:04:b1:3d:5c:5d:50:6f:c0
-----BEGIN CERTIFICATE-----
MIIBWzCCAQGgAwIBAgIMQ1HMCIGrA522rJd4MAoGCCqGSM49BAMCMC4xEDAOBgNV
BAMMB0xpbnQgQ0ExDTALBgNVBAoMBExpbnQxCzAJBgNVBAYTAkRFMB4XDTIzMDkw
MTAwMDAwMFoXDTI0MDkwMTAwMDAwMFowGzEZMBcGA1UEAwwQdGVzdEBleGFtcGxl
LmNvbTBZMBMGByqGSM49AgEGCCqGSM49AwEHA0IABD4x2IBSkpvRSKtkKugvb78n
iTb9fe90jqZNT0hTjhRAdIfenRm0spHCvIYPvS/l2KtgOdV2noZoONBGoP17jUmj
GDAWMBQGA1UdIAQNMAswCQYHZ4EMAQUBAjAKBggqhkjOPQQDAgNIADBFAiEA9ct8
UQkNW3kFdFI8bdSbV6fJdf3qww8hzcMf9MC72r0CIGYzOdgLFBv62HLZCxyG5Vao
ll8/uR4APgSxPVxdUG/A
-----END CERTIFICATE-----
