-------------Leaf-------------
Certificate:
    Data:
        Version: 3 (0x2)
        Serial Number: 3 (0x3)
        Signature Algorithm: ecdsa-with-SHA256
        Issuer: 
        Validity
            Not Before: Feb 27 21:32:26 2024 GMT
            Not After : Nov 30 00:00:00 9998 GMT
        Subject: 
        Subject Public Key Info:
            Public Key Algorithm: id-ecPublicKey
                Public-Key: (256 bit)
                pub:
                    04:f6:9a:d1:8b:a9:66:fe:3b:dd:44:58:3b:30:3d:
                    a8:18:ab:05:c5:0a:f7:dd:7e:10:fd:82:16:2a:78:
                    22:d1:da:13:3e:f3:13:24:7a:53:5d:a5:a2:c1:fa:
                    04:d6:65:e5:ee:39:03:03:b6:0b:0a:35:54:a7:1b:
                    c4:17:74:a0:c4
                ASN1 OID: prime256v1
                NIST CURVE: P-256
        X509v3 extensions:
            X509v3 Extended Key Usage: 
                E-mail Protection
            X509v3 Certificate Policies: 
                Policy: 2.23.140.1.5.1.3
            1.3.6.1.4.1.52266.1: 
                0.
    Signature Algorithm: ecdsa-with-SHA256
    Signature Value:
        30:45:02:20:6e:d8:65:3b:9b:b9:08:77:e2:bc:2b:a6:24:1e:
        95:3c:60:61:21:68:35:3e:be:77:95:26:d8:cc:bd:24:f4:37:
        02:21:00:ed:f8:2e:11:8f:1f:5b:ba:15:5e:25:27:0a:53:dc:
        7f:f3:d6:33:6f:cd:64:45:ac:a6:37:ba:fa:4d:48:1b:05
-----BEGIN CERTIFICATE-----
MIIBLjCB1aADAgECAgEDMAoGCCqGSM49BAMCMAAwIBcNMjQwMjI3MjEzMjI2WhgP
OTk5ODExMzAwMDAwMDBaMAAwWTATBgcqhkjOPQIBBggqhkjOPQMBBwNCAAT2mtGL
qWb+O91EWDswPagYqwXFCvfdfhD9ghYqeCLR2hM+8xMkelNdpaLB+gTWZeXuOQMD
tgsKNVSnG8QXdKDEoz4wPDATBgNVHSUEDDAKBggrBgEFBQcDBDAUBgNVHSAEDTAL
MAkGB2eBDAEFAQMwDwYJKwYBBAGDmCoBBAIwADAKBggqhkjOPQQDAgNIADBFAiBu
2GU7m7kId+K8K6YkHpU8YGEhaDU+vneVJtjMvST0NwIhAO34LhGPH1u6FV4lJwpT
3H/z1jNvzWRFrKY3uvpNSBsF
-----END CERTIFICATE-----

