Certificate:
    Data:
        Version: 3 (0x2)
        Serial Number: 3 (0x3)
        Signature Algorithm: ecdsa-with-SHA256
        Issuer: 
        Validity
            Not Before: Feb 28 19:11:49 2024 GMT
            Not After : Nov 30 00:00:00 9998 GMT
        Subject: CN = user@example.com
        Subject Public Key Info:
            Public Key Algorithm: id-ecPublicKey
                Public-Key: (256 bit)
                pub:
                    04:c7:3e:09:79:8e:69:75:31:48:00:b8:60:1a:1f:
                    ab:ee:94:ce:23:cf:5b:e2:77:da:5f:0b:72:ad:e2:
                    2f:d8:e2:70:93:26:f5:c4:8f:e8:5e:bb:af:0b:49:
                    ee:b7:d9:a2:67:62:00:0b:eb:5f:e8:e8:63:21:83:
                    7a:3b:f8:e4:88
                ASN1 OID: prime256v1
                NIST CURVE: P-256
        X509v3 extensions:
            X509v3 Extended Key Usage: 
                E-mail Protection
            X509v3 Certificate Policies: 
                Policy: 2.23.140.1.5.1.3
    Signature Algorithm: ecdsa-with-SHA256
    Signature Value:
        30:44:02:20:17:bf:bb:d5:29:55:28:3f:27:00:8b:36:ae:3f:
        2e:9e:29:bb:2d:b3:a8:48:3e:93:ac:a4:c2:1d:86:6c:19:61:
        02:20:61:3d:f7:4e:a2:59:fa:87:7d:38:f4:bc:5d:d6:3e:aa:
        74:a4:8d:6f:6a:e2:ce:17:ab:82:cd:b3:51:ec:0f:48
-----BEGIN CERTIFICATE-----
MIIBNzCB36ADAgECAgEDMAoGCCqGSM49BAMCMAAwIBcNMjQwMjI4MTkxMTQ5WhgP
OTk5ODExMzAwMDAwMDBaMBsxGTAXBgNVBAMMEHVzZXJAZXhhbXBsZS5jb20wWTAT
BgcqhkjOPQIBBggqhkjOPQMBBwNCAATHPgl5jml1MUgAuGAaH6vulM4jz1vid9pf
C3Kt4i/Y4nCTJvXEj+heu68LSe632aJnYgAL61/o6GMhg3o7+OSIoy0wKzATBgNV
HSUEDDAKBggrBgEFBQcDBDAUBgNVHSAEDTALMAkGB2eBDAEFAQMwCgYIKoZIzj0E
AwIDRwAwRAIgF7+71SlVKD8nAIs2rj8unim7LbOoSD6TrKTCHYZsGWECIGE9906i
WfqHfTj0vF3WPqp0pI1vauLOF6uCzbNR7A9I
-----END CERTIFICATE-----

