Certificate:
    Data:
        Version: 3 (0x2)
        Serial Number: 3 (0x3)
        Signature Algorithm: ecdsa-with-SHA256
        Issuer: 
        Validity
            Not Before: Feb 28 19:12:13 2024 GMT
            Not After : Nov 30 00:00:00 9998 GMT
        Subject: CN = bad
        Subject Public Key Info:
            Public Key Algorithm: id-ecPublicKey
                Public-Key: (256 bit)
                pub:
                    04:17:de:84:f0:62:95:f7:ec:ef:c9:a5:69:e9:a2:
                    d8:35:f6:fd:3e:85:63:c0:d2:fe:20:00:c5:67:72:
                    02:be:a7:75:18:49:1b:6c:fb:16:db:48:9c:27:01:
                    98:a7:bd:50:5a:4c:f0:9f:45:d5:fa:77:9c:f5:78:
                    6e:f0:dc:c7:06
                ASN1 OID: prime256v1
                NIST CURVE: P-256
        X509v3 extensions:
            X509v3 Extended Key Usage: 
                E-mail Protection
            X509v3 Certificate Policies: 
                Policy: 2.23.140.1.5.1.3
    Signature Algorithm: ecdsa-with-SHA256
    Signature Value:
        30:44:02:20:41:c6:a1:86:82:cd:43:d4:0f:c7:c5:5b:62:08:
        f7:84:b1:d6:c2:82:93:16:91:84:1e:4a:13:e9:b6:ab:43:28:
        02:20:62:18:31:09:d1:25:da:49:0a:86:8f:7a:d9:94:98:c6:
        25:04:34:ab:c1:e6:7c:0c:8d:a8:4e:21:42:f9:9a:3c
-----BEGIN CERTIFICATE-----
MIIBKjCB0qADAgECAgEDMAoGCCqGSM49BAMCMAAwIBcNMjQwMjI4MTkxMjEzWhgP
OTk5ODExMzAwMDAwMDBaMA4xDDAKBgNVBAMTA2JhZDBZMBMGByqGSM49AgEGCCqG
SM49AwEHA0IABBfehPBilffs78mlaemi2DX2/T6FY8DS/iAAxWdyAr6ndRhJG2z7
FttInCcBmKe9UFpM8J9F1fp3nPV4bvDcxwajLTArMBMGA1UdJQQMMAoGCCsGAQUF
BwMEMBQGA1UdIAQNMAswCQYHZ4EMAQUBAzAKBggqhkjOPQQDAgNHADBEAiBBxqGG
gs1D1A/HxVtiCPeEsdbCgpMWkYQeShPptqtDKAIgYhgxCdEl2kkKho962ZSYxiUE
NKvB5nwMjahOIUL5mjw=
-----END CERTIFICATE-----

