Certificate:
    Data:
        Version: 3 (0x2)
        Serial Number: 3 (0x3)
        Signature Algorithm: ecdsa-with-SHA256
        Issuer: 
        Validity
            Not Before: Sep  2 00:00:00 2023 GMT
            Not After : Nov 30 00:00:00 9998 GMT
        Subject: 1.2.3.4.5.6.7.8.9.0 = any old rubbish
        Subject Public Key Info:
            Public Key Algorithm: id-ecPublicKey
                Public-Key: (256 bit)
                pub:
                    04:e7:21:34:a8:97:83:75:62:ff:6d:8f:dc:95:69:
                    24:08:76:19:c4:7a:83:f4:93:ba:10:05:dd:a8:e4:
                    c4:20:69:22:19:f2:96:ed:d9:9b:1a:cc:78:6b:bf:
                    ce:1b:21:7c:c2:6e:d1:40:dc:d9:66:a8:cc:24:f2:
                    6b:18:d9:59:2f
                ASN1 OID: prime256v1
                NIST CURVE: P-256
        X509v3 extensions:
            X509v3 Certificate Policies: 
                Policy: 2.23.140.1.5.1.2

    Signature Algorithm: ecdsa-with-SHA256
         30:45:02:20:38:f1:af:88:ec:b2:fc:81:9b:bb:73:a1:9c:4f:
         c9:79:e8:7f:ff:a7:c4:71:45:8f:9a:1d:67:54:54:57:8a:cb:
         02:21:00:9e:4e:c7:2f:0b:54:d8:6e:5f:43:1c:e8:79:c2:c1:
         7a:46:1b:ec:da:91:d9:42:03:b5:5a:64:e0:86:95:ed:c4
-----BEGIN CERTIFICATE-----
MIIBKDCBz6ADAgECAgEDMAoGCCqGSM49BAMCMAAwIBcNMjMwOTAyMDAwMDAwWhgP
OTk5ODExMzAwMDAwMDBaMCAxHjAcBgkqAwQFBgcICQATD2FueSBvbGQgcnViYmlz
aDBZMBMGByqGSM49AgEGCCqGSM49AwEHA0IABOchNKiXg3Vi/22P3JVpJAh2GcR6
g/STuhAF3ajkxCBpIhnylu3ZmxrMeGu/zhshfMJu0UDc2WaozCTyaxjZWS+jGDAW
MBQGA1UdIAQNMAswCQYHZ4EMAQUBAjAKBggqhkjOPQQDAgNIADBFAiA48a+I7LL8
gZu7c6GcT8l56H//p8RxRY+aHWdUVFeKywIhAJ5Oxy8LVNhuX0Mc6HnCwXpGG+za
kdlCA7VaZOCGle3E
-----END CERTIFICATE-----