Certificate:
    Data:
        Version: 3 (0x2)
        Serial Number: 3 (0x3)
        Signature Algorithm: ecdsa-with-SHA256
        Issuer: 
        Validity
            Not Before: Sep  2 00:00:00 2023 GMT
            Not After : Nov 30 00:00:00 9998 GMT
        Subject: CN = johnsmith@example.com
        Subject Public Key Info:
            Public Key Algorithm: id-ecPublicKey
                Public-Key: (256 bit)
                pub:
                    04:bb:04:4b:ac:30:58:56:1f:7e:a7:7b:a5:4e:28:
                    05:53:82:4d:43:3c:ee:64:ae:a9:9c:7a:5c:2b:ee:
                    ec:5c:72:76:2c:79:50:63:98:e8:f9:84:13:0a:87:
                    78:e2:7d:25:4b:fb:d0:35:df:55:da:5b:f7:5d:55:
                    96:87:c6:0e:5e
                ASN1 OID: prime256v1
                NIST CURVE: P-256
        X509v3 extensions:
            X509v3 Certificate Policies: 
                Policy: 2.23.140.1.5.1.1

    Signature Algorithm: ecdsa-with-SHA256
         30:45:02:20:35:9f:54:c6:63:b6:43:b5:17:ed:6f:86:08:eb:
         2e:0b:04:6f:4c:44:b7:ec:74:e1:7e:1c:01:67:51:2c:51:d4:
         02:21:00:ba:f8:6c:3d:d8:f5:64:e6:a2:a1:2e:bb:51:0a:51:
         8a:0c:23:d7:dc:01:70:76:4f:ea:52:d2:2b:25:79:89:71
-----BEGIN CERTIFICATE-----
MIIBKDCBz6ADAgECAgEDMAoGCCqGSM49BAMCMAAwIBcNMjMwOTAyMDAwMDAwWhgP
OTk5ODExMzAwMDAwMDBaMCAxHjAcBgNVBAMMFWpvaG5zbWl0aEBleGFtcGxlLmNv
bTBZMBMGByqGSM49AgEGCCqGSM49AwEHA0IABLsES6wwWFYffqd7pU4oBVOCTUM8
7mSuqZx6XCvu7Fxydix5UGOY6PmEEwqHeOJ9JUv70DXfVdpb911VlofGDl6jGDAW
MBQGA1UdIAQNMAswCQYHZ4EMAQUBATAKBggqhkjOPQQDAgNIADBFAiA1n1TGY7ZD
tRftb4YI6y4LBG9MRLfsdOF+HAFnUSxR1AIhALr4bD3Y9WTmoqEuu1EKUYoMI9fc
AXB2T+pS0isleYlx
-----END CERTIFICATE-----