Certificate:
    Data:
        Version: 3 (0x2)
        Serial Number:
            2b:7f:73:b8:cc:7e:e1:41:95:ff:03:20
        Signature Algorithm: ecdsa-with-SHA256
        Issuer: CN = Lint CA, O = Lint, C = DE
        Validity
            Not Before: Sep  1 00:00:00 2023 GMT
            Not After : Sep  1 00:00:00 2024 GMT
        Subject: serialNumber = serialNumber
        Subject Public Key Info:
            Public Key Algorithm: id-ecPublicKey
                Public-Key: (256 bit)
                pub:
                    04:a2:92:59:52:5b:aa:1a:bc:2c:d8:4b:cb:e7:6b:
                    6b:f2:44:37:f5:7c:32:23:f1:a6:77:42:b1:85:d5:
                    e4:4e:f6:e8:85:02:d7:ee:91:22:0a:3a:cf:de:12:
                    51:9d:b4:61:00:ec:9e:14:d1:61:ae:a7:61:17:1d:
                    fb:6f:e1:a0:13
                ASN1 OID: prime256v1
                NIST CURVE: P-256
        X509v3 extensions:
            X509v3 Certificate Policies: 
                Policy: 2.23.140.1.5.1.2
    Signature Algorithm: ecdsa-with-SHA256
    Signature Value:
        30:44:02:20:0d:7e:28:d8:4d:0f:a1:d7:24:58:6c:0a:a0:e0:
        83:db:e6:3f:f8:2c:bd:d5:3e:b0:46:cb:7c:0e:f2:81:64:79:
        02:20:4c:12:1e:13:06:a5:b7:b3:d1:ab:b1:bb:14:ad:c8:33:
        10:4d:25:f7:a3:f9:5a:58:96:95:70:22:23:aa:db:60
-----BEGIN CERTIFICATE-----
MIIBVTCB/aADAgECAgwrf3O4zH7hQZX/AyAwCgYIKoZIzj0EAwIwLjEQMA4GA1UE
AwwHTGludCBDQTENMAsGA1UECgwETGludDELMAkGA1UEBhMCREUwHhcNMjMwOTAx
MDAwMDAwWhcNMjQwOTAxMDAwMDAwWjAXMRUwEwYDVQQFEwxzZXJpYWxOdW1iZXIw
WTATBgcqhkjOPQIBBggqhkjOPQMBBwNCAASikllSW6oavCzYS8vna2vyRDf1fDIj
8aZ3QrGF1eRO9uiFAtfukSIKOs/eElGdtGEA7J4U0WGup2EXHftv4aAToxgwFjAU
BgNVHSAEDTALMAkGB2eBDAEFAQIwCgYIKoZIzj0EAwIDRwAwRAIgDX4o2E0Podck
WGwKoOCD2+Y/+Cy91T6wRst8DvKBZHkCIEwSHhMGpbez0auxuxStyDMQTSX3o/la
WJaVcCIjqttg
-----END CERTIFICATE-----
