Certificate:
    Data:
        Version: 3 (0x2)
        Serial Number: 3 (0x3)
        Signature Algorithm: ecdsa-with-SHA256
        Issuer:
        Validity
            Not Before: Sep  1 00:00:00 2023 GMT
            Not After : Nov 30 00:00:00 9998 GMT
        Subject: CN = johnsmith@example.com
        Subject Public Key Info:
            Public Key Algorithm: id-ecPublicKey
                Public-Key: (256 bit)
                pub:
                    04:bf:fe:7d:bd:d9:c5:7c:d2:16:d5:5b:d0:ac:a1:
                    61:25:90:f3:da:2b:a4:5f:ab:6b:a6:72:64:6e:37:
                    29:3f:be:4d:f0:91:e1:b5:9d:12:b9:24:26:40:4e:
                    b2:6b:57:d7:d7:f2:94:1e:e3:1b:1b:8f:8b:ed:84:
                    43:a4:84:13:f0
                ASN1 OID: prime256v1
                NIST CURVE: P-256
        X509v3 extensions:
            X509v3 Certificate Policies:
                Policy: 2.23.140.1.5.1.1
            1.2.840.113583.1.1.9.1:
                test
    Signature Algorithm: ecdsa-with-SHA256
    Signature Value:
        30:46:02:21:00:a5:ad:3b:a8:8a:d0:0e:3d:d0:79:b0:e0:c1:
        cf:20:02:67:9b:dd:5e:b6:7a:2b:a4:d9:c0:f1:c3:9c:b3:96:
        bc:02:21:00:9b:c6:ca:a6:7b:16:6f:97:3a:01:9d:c6:c5:dc:
        a2:ec:56:dd:2c:e8:a6:e8:9d:f3:a7:99:e7:b3:a7:ac:6a:e5
-----BEGIN CERTIFICATE-----
MIIBPTCB46ADAgECAgEDMAoGCCqGSM49BAMCMAAwIBcNMjMwOTAxMDAwMDAwWhgP
OTk5ODExMzAwMDAwMDBaMCAxHjAcBgNVBAMMFWpvaG5zbWl0aEBleGFtcGxlLmNv
bTBZMBMGByqGSM49AgEGCCqGSM49AwEHA0IABL/+fb3ZxXzSFtVb0KyhYSWQ89or
pF+ra6ZyZG43KT++TfCR4bWdErkkJkBOsmtX19fylB7jGxuPi+2EQ6SEE/CjLDAq
MBQGA1UdIAQNMAswCQYHZ4EMAQUBATASBgoqhkiG9y8BAQkBBAR0ZXN0MAoGCCqG
SM49BAMCA0kAMEYCIQClrTuoitAOPdB5sODBzyACZ5vdXrZ6K6TZwPHDnLOWvAIh
AJvGyqZ7Fm+XOgGdxsXcouxW3Szopuid86eZ57OnrGrl
-----END CERTIFICATE-----