Certificate:
    Data:
        Version: 3 (0x2)
        Serial Number:
            12:72:7f:36:d1:7d:fd:a5:b0:ef:c2:56
        Signature Algorithm: sha256WithRSAEncryption
        Issuer: CN = Lint CA, O = Lint, C = DE
        Validity
            Not Before: Sep  1 00:00:00 2023 GMT
            Not After : Sep  1 00:00:00 2024 GMT
        Subject: CN = Certificate, O = Lint, C = DE
        Subject Public Key Info:
            Public Key Algorithm: rsaEncryption
                RSA Public-Key: (2048 bit)
                Modulus:
                    00:b5:e2:6a:83:ec:f7:b5:f6:07:ae:41:84:4d:8c:
                    84:56:96:8a:9a:e3:f7:0d:d3:75:4e:a6:f9:08:e3:
                    76:88:07:01:bc:a5:21:3c:42:58:7a:bb:7f:ec:32:
                    64:41:cc:63:05:66:60:50:27:f3:b6:f6:7a:6b:a9:
                    9e:fe:7d:91:03:61:c2:28:04:41:28:97:19:3a:f6:
                    fb:63:58:50:6a:13:1a:20:26:66:b1:3a:40:6e:fe:
                    ca:54:c3:4f:32:81:cb:dc:dd:fe:75:5d:65:69:4f:
                    97:6d:86:26:4b:2d:a9:ff:e5:74:a2:08:e1:fd:b3:
                    71:f5:cd:f0:57:77:81:95:da:e8:cb:2a:e0:66:0c:
                    e7:c3:87:a9:e4:b5:45:3a:d2:d9:cf:6c:d2:b0:dc:
                    de:74:4d:aa:d1:af:4b:67:17:82:e6:be:fd:09:41:
                    7c:bf:1e:ab:08:4d:e6:bd:57:a7:a7:11:96:90:36:
                    4a:52:51:2c:a9:58:14:c5:7f:76:c4:30:64:16:7c:
                    bb:ca:b7:d3:e0:f1:e8:77:eb:67:c4:9a:2e:22:9a:
                    66:3f:eb:87:c2:33:f8:2f:07:8b:ee:c3:66:7c:eb:
                    64:68:40:30:8a:ae:67:4d:21:bd:ca:bf:a3:1f:9c:
                    b9:b7:d2:f1:d5:83:fd:4d:3d:e9:fd:30:04:a1:7a:
                    11:cf
                Exponent: 65537 (0x10001)
        X509v3 extensions:
            X509v3 Authority Key Identifier: 
                keyid:A4:9D:B9:7C:DF:CE:B5:81:51:9F:03:65:9F:73:7C:44:1A:08:3E:C5

            X509v3 Subject Key Identifier: 
                0A:FA:B2:7F:15:CC:C7:54:B3:9B:57:4F:7E:F6:7A:3A:EA:22:C1:2C
            X509v3 Extended Key Usage: 
                E-mail Protection
            X509v3 Subject Alternative Name: 
                email:test+1@example.com, email:test+2@example.com
            X509v3 Certificate Policies: 
                Policy: 2.23.140.1.5.1.3

    Signature Algorithm: sha256WithRSAEncryption
         99:72:83:a4:dd:70:c4:88:b0:ae:b4:d9:49:8b:66:dc:45:cc:
         3f:9b:a5:bd:da:b2:36:52:61:6c:8e:13:cb:4f:39:40:cb:d0:
         2b:d4:b8:c5:d2:60:69:9b:85:0f:5b:69:8e:13:49:9f:d9:4b:
         47:c6:35:d5:a0:e9:9b:e2:7c:9f:c9:d1:86:f1:23:83:52:c4:
         b0:8d:2f:7f:83:8e:5a:7b:a7:cf:c2:f1:ea:94:1b:34:b1:0b:
         ee:43:50:83:5f:89:e8:f8:e8:85:e0:94:e7:61:1b:bc:6e:64:
         40:30:6a:8c:4a:eb:2c:57:a7:c2:cd:ec:d7:2a:40:9a:9d:95:
         2a:38:e2:ed:e0:59:d9:75:92:74:7f:75:42:17:c7:bf:06:06:
         4a:a3:6d:d2:ee:66:e3:8d:3a:74:08:5a:1e:e2:9f:68:2a:3b:
         cc:76:b9:09:b8:2e:e4:48:44:2d:e9:7b:00:76:99:f6:65:38:
         be:c5:dd:4e:f4:b5:94:71:59:45:6e:0b:cf:51:cd:bf:88:2f:
         84:13:db:06:8b:7a:c6:de:d1:ba:c4:b9:a7:bf:c9:09:a5:7f:
         fa:80:cd:61:62:e2:ef:0c:e8:bf:f9:10:e2:64:dc:fa:95:ed:
         7b:21:15:88:b8:7a:b0:2e:5b:aa:db:20:0f:9a:da:eb:d3:90:
         d6:66:4c:25
-----BEGIN CERTIFICATE-----
MIIDiDCCAnCgAwIBAgIMEnJ/NtF9/aWw78JWMA0GCSqGSIb3DQEBCwUAMC4xEDAO
BgNVBAMMB0xpbnQgQ0ExDTALBgNVBAoMBExpbnQxCzAJBgNVBAYTAkRFMB4XDTIz
MDkwMTAwMDAwMFoXDTI0MDkwMTAwMDAwMFowMjEUMBIGA1UEAwwLQ2VydGlmaWNh
dGUxDTALBgNVBAoMBExpbnQxCzAJBgNVBAYTAkRFMIIBIjANBgkqhkiG9w0BAQEF
AAOCAQ8AMIIBCgKCAQEAteJqg+z3tfYHrkGETYyEVpaKmuP3DdN1Tqb5CON2iAcB
vKUhPEJYert/7DJkQcxjBWZgUCfztvZ6a6me/n2RA2HCKARBKJcZOvb7Y1hQahMa
ICZmsTpAbv7KVMNPMoHL3N3+dV1laU+XbYYmSy2p/+V0ogjh/bNx9c3wV3eBldro
yyrgZgznw4ep5LVFOtLZz2zSsNzedE2q0a9LZxeC5r79CUF8vx6rCE3mvVenpxGW
kDZKUlEsqVgUxX92xDBkFny7yrfT4PHod+tnxJouIppmP+uHwjP4LweL7sNmfOtk
aEAwiq5nTSG9yr+jH5y5t9Lx1YP9TT3p/TAEoXoRzwIDAQABo4GhMIGeMB8GA1Ud
IwQYMBaAFKSduXzfzrWBUZ8DZZ9zfEQaCD7FMB0GA1UdDgQWBBQK+rJ/FczHVLOb
V09+9no66iLBLDATBgNVHSUEDDAKBggrBgEFBQcDBDAxBgNVHREEKjAogRJ0ZXN0
KzFAZXhhbXBsZS5jb22BEnRlc3QrMkBleGFtcGxlLmNvbTAUBgNVHSAEDTALMAkG
B2eBDAEFAQMwDQYJKoZIhvcNAQELBQADggEBAJlyg6TdcMSIsK602UmLZtxFzD+b
pb3asjZSYWyOE8tPOUDL0CvUuMXSYGmbhQ9baY4TSZ/ZS0fGNdWg6ZvifJ/J0Ybx
I4NSxLCNL3+Djlp7p8/C8eqUGzSxC+5DUINfiej46IXglOdhG7xuZEAwaoxK6yxX
p8LN7NcqQJqdlSo44u3gWdl1knR/dUIXx78GBkqjbdLuZuONOnQIWh7in2gqO8x2
uQm4LuRIRC3pewB2mfZlOL7F3U70tZRxWUVuC89Rzb+IL4QT2waLesbe0brEuae/
yQmlf/qAzWFi4u8M6L/5EOJk3PqV7XshFYi4erAuW6rbIA+a2uvTkNZmTCU=
-----END CERTIFICATE-----
