Certificate:
    Data:
        Version: 3 (0x2)
        Serial Number: 3 (0x3)
        Signature Algorithm: ecdsa-with-SHA256
        Issuer: 
        Validity
            Not Before: Oct 15 17:52:28 2023 GMT
            Not After : Nov 30 00:00:00 9998 GMT
        Subject: 
        Subject Public Key Info:
            Public Key Algorithm: id-ecPublicKey
                Public-Key: (256 bit)
                pub:
                    04:cb:41:d2:58:66:06:29:c0:c8:bf:c9:20:76:7f:
                    49:a7:6d:2a:f1:f4:7f:36:4c:94:b4:91:ac:6d:76:
                    29:65:11:d0:34:0b:d5:d2:53:e0:dd:86:42:5b:ee:
                    37:ca:bb:a0:bc:be:73:7f:61:cb:45:af:8e:46:74:
                    ce:4b:9a:ff:a2
                ASN1 OID: prime256v1
                NIST CURVE: P-256
        X509v3 extensions:
            X509v3 Extended Key Usage: 
                E-mail Protection
            X509v3 Subject Alternative Name: 
                email:coolguy@coolplace.com, email:drumsolo@rockstar.org
    Signature Algorithm: ecdsa-with-SHA256
    Signature Value:
        30:46:02:21:00:90:32:cc:3f:a1:bf:31:e7:be:57:8f:a7:30:
        33:bc:ed:2f:92:9a:7a:69:50:bc:7f:e1:72:aa:b1:25:1a:2e:
        fe:02:21:00:c1:88:2d:90:b9:72:d4:03:12:c3:45:3a:b5:f3:
        45:72:23:9c:65:73:b4:5e:50:cd:f6:bc:4c:a7:ba:8e:6d:b8
-----BEGIN CERTIFICATE-----
MIIBQTCB56ADAgECAgEDMAoGCCqGSM49BAMCMAAwIBcNMjMxMDE1MTc1MjI4WhgP
OTk5ODExMzAwMDAwMDBaMAAwWTATBgcqhkjOPQIBBggqhkjOPQMBBwNCAATLQdJY
ZgYpwMi/ySB2f0mnbSrx9H82TJS0kaxtdillEdA0C9XSU+DdhkJb7jfKu6C8vnN/
YctFr45GdM5Lmv+io1AwTjATBgNVHSUEDDAKBggrBgEFBQcDBDA3BgNVHREEMDAu
gRVjb29sZ3V5QGNvb2xwbGFjZS5jb22BFWRydW1zb2xvQHJvY2tzdGFyLm9yZzAK
BggqhkjOPQQDAgNJADBGAiEAkDLMP6G/Mee+V4+nMDO87S+SmnppULx/4XKqsSUa
Lv4CIQDBiC2QuXLUAxLDRTq180VyI5xlc7ReUM32vEynuo5tuA==
-----END CERTIFICATE-----
