Certificate:
    Data:
        Version: 3 (0x2)
        Serial Number: 3 (0x3)
        Signature Algorithm: ecdsa-with-SHA256
        Issuer: 
        Validity
            Not Before: Oct 15 17:53:09 2023 GMT
            Not After : Nov 30 00:00:00 9998 GMT
        Subject: 
        Subject Public Key Info:
            Public Key Algorithm: id-ecPublicKey
                Public-Key: (256 bit)
                pub:
                    04:4f:e8:85:20:80:1b:21:66:01:b1:ff:0b:db:f6:
                    f9:51:6d:d7:66:f4:64:2b:67:b3:31:99:65:35:97:
                    9d:d1:69:29:b7:d3:15:65:84:8a:55:24:21:78:a5:
                    89:43:be:14:b6:9f:8e:8f:63:50:85:62:44:52:4c:
                    59:a1:0a:65:70
                ASN1 OID: prime256v1
                NIST CURVE: P-256
        X509v3 extensions:
            X509v3 Extended Key Usage: 
                E-mail Protection
    Signature Algorithm: ecdsa-with-SHA256
    Signature Value:
        30:45:02:20:77:4e:a8:1e:bc:68:c9:ff:83:7b:ac:dc:16:2b:
        cb:8f:38:1c:95:81:a5:db:55:93:fe:2a:ac:53:a7:f2:e2:4c:
        02:21:00:b0:9b:8b:b0:1f:a4:b6:3f:7e:8d:01:6e:0b:98:43:
        a1:95:aa:8f:79:31:1d:35:5a:ed:3c:a1:30:2c:c6:1a:b2
-----BEGIN CERTIFICATE-----
MIIBBzCBrqADAgECAgEDMAoGCCqGSM49BAMCMAAwIBcNMjMxMDE1MTc1MzA5WhgP
OTk5ODExMzAwMDAwMDBaMAAwWTATBgcqhkjOPQIBBggqhkjOPQMBBwNCAARP6IUg
gBshZgGx/wvb9vlRbddm9GQrZ7MxmWU1l53RaSm30xVlhIpVJCF4pYlDvhS2n46P
Y1CFYkRSTFmhCmVwoxcwFTATBgNVHSUEDDAKBggrBgEFBQcDBDAKBggqhkjOPQQD
AgNIADBFAiB3TqgevGjJ/4N7rNwWK8uPOByVgaXbVZP+KqxTp/LiTAIhALCbi7Af
pLY/fo0BbguYQ6GVqo95MR01Wu08oTAsxhqy
-----END CERTIFICATE-----
