Certificate:
    Data:
        Version: 3 (0x2)
        Serial Number:
            42:17:33:09:8d:0d:17:ce:1e:5c:97:77
        Signature Algorithm: ecdsa-with-SHA256
        Issuer: CN = Lint CA, O = Lint, C = DE
        Validity
            Not Before: Sep  1 00:00:00 2023 GMT
            Not After : Sep  1 00:00:00 2024 GMT
        Subject: CN = SMIME, O = Lint, C = DE
        Subject Public Key Info:
            Public Key Algorithm: id-ecPublicKey
                Public-Key: (256 bit)
                pub:
                    04:fc:9d:49:5c:28:e0:11:83:2e:f2:eb:91:54:31:
                    24:b6:78:82:5f:ee:42:29:8e:c8:c3:c1:00:1c:66:
                    d7:51:96:5d:28:a2:fd:1e:dc:a2:97:e5:e9:ce:53:
                    58:4b:fb:0a:46:df:42:ff:35:c8:8e:27:48:96:4e:
                    46:4e:32:68:20
                ASN1 OID: prime256v1
                NIST CURVE: P-256
        X509v3 extensions:
            X509v3 Certificate Policies: 
                Policy: 2.23.140.1.5.1.2

    Signature Algorithm: ecdsa-with-SHA256
         30:45:02:21:00:e7:47:dc:26:b3:2e:3b:fe:d7:af:a5:bc:63:
         94:ba:94:bd:38:7c:3c:ec:40:fa:38:39:29:ae:77:c0:3c:14:
         06:02:20:71:cf:42:af:f3:1b:b9:90:27:d2:bc:76:67:c0:00:
         dd:59:54:61:95:b8:66:5f:c3:4e:99:6c:a2:58:0f:b6:e2
-----BEGIN CERTIFICATE-----
MIIBbDCCARKgAwIBAgIMQhczCY0NF84eXJd3MAoGCCqGSM49BAMCMC4xEDAOBgNV
BAMMB0xpbnQgQ0ExDTALBgNVBAoMBExpbnQxCzAJBgNVBAYTAkRFMB4XDTIzMDkw
MTAwMDAwMFoXDTI0MDkwMTAwMDAwMFowLDEOMAwGA1UEAwwFU01JTUUxDTALBgNV
BAoMBExpbnQxCzAJBgNVBAYTAkRFMFkwEwYHKoZIzj0CAQYIKoZIzj0DAQcDQgAE
/J1JXCjgEYMu8uuRVDEktniCX+5CKY7Iw8EAHGbXUZZdKKL9Htyil+XpzlNYS/sK
Rt9C/zXIjidIlk5GTjJoIKMYMBYwFAYDVR0gBA0wCzAJBgdngQwBBQECMAoGCCqG
SM49BAMCA0gAMEUCIQDnR9wmsy47/tevpbxjlLqUvTh8POxA+jg5Ka53wDwUBgIg
cc9Cr/MbuZAn0rx2Z8AA3VlUYZW4Zl/DTplsolgPtuI=
-----END CERTIFICATE-----
