Certificate:
    Data:
        Version: 3 (0x2)
        Serial Number:
            89:20:fd:0d:4f:59:a1:79:ff:86:e5:26
        Signature Algorithm: ecdsa-with-SHA256
        Issuer: CN = Lint CA, O = Lint, C = DE
        Validity
            Not Before: Sep  1 00:00:00 2023 GMT
            Not After : Sep  1 00:00:00 2024 GMT
        Subject: emailAddress = zlint@example.com, O = Lint, C = DE
        Subject Public Key Info:
            Public Key Algorithm: id-ecPublicKey
                Public-Key: (256 bit)
                pub:
                    04:91:d8:6e:7f:71:94:58:a1:2d:2b:fd:0c:e2:51:
                    1a:69:a5:2b:43:46:3d:1e:0c:e4:21:d4:29:a6:c3:
                    9a:c5:07:df:9d:9a:81:05:04:92:43:45:4b:46:e3:
                    24:e5:ba:5e:a6:70:a1:8e:b1:f8:d6:f4:be:d1:46:
                    b5:91:af:50:61
                ASN1 OID: prime256v1
                NIST CURVE: P-256
        X509v3 extensions:
            X509v3 Certificate Policies: 
                Policy: 2.23.140.1.5.1.2

    Signature Algorithm: ecdsa-with-SHA256
         30:46:02:21:00:f3:c0:3b:a7:6e:c2:e9:a7:31:c5:8c:ef:7c:
         c5:3e:73:56:27:e4:af:dd:fe:5c:42:68:de:b8:e1:0a:b3:98:
         46:02:21:00:84:56:5e:50:93:17:17:8c:86:3c:93:56:8f:79:
         03:5e:53:01:f3:c9:4d:d2:4b:ea:6f:46:7b:ac:32:0d:c6:ad
-----BEGIN CERTIFICATE-----
MIIBgDCCASWgAwIBAgINAIkg/Q1PWaF5/4blJjAKBggqhkjOPQQDAjAuMRAwDgYD
VQQDDAdMaW50IENBMQ0wCwYDVQQKDARMaW50MQswCQYDVQQGEwJERTAeFw0yMzA5
MDEwMDAwMDBaFw0yNDA5MDEwMDAwMDBaMD4xIDAeBgkqhkiG9w0BCQEWEXpsaW50
QGV4YW1wbGUuY29tMQ0wCwYDVQQKDARMaW50MQswCQYDVQQGEwJERTBZMBMGByqG
SM49AgEGCCqGSM49AwEHA0IABJHYbn9xlFihLSv9DOJRGmmlK0NGPR4M5CHUKabD
msUH352agQUEkkNFS0bjJOW6XqZwoY6x+Nb0vtFGtZGvUGGjGDAWMBQGA1UdIAQN
MAswCQYHZ4EMAQUBAjAKBggqhkjOPQQDAgNJADBGAiEA88A7p27C6acxxYzvfMU+
c1Yn5K/d/lxCaN644QqzmEYCIQCEVl5QkxcXjIY8k1aPeQNeUwHzyU3SS+pvRnus
Mg3GrQ==
-----END CERTIFICATE-----
