Certificate:
    Data:
        Version: 3 (0x2)
        Serial Number: 3 (0x3)
        Signature Algorithm: ecdsa-with-SHA256
        Issuer: 
        Validity
            Not Before: Feb 27 20:24:36 2024 GMT
            Not After : Nov 30 00:00:00 9998 GMT
        Subject: 
        Subject Public Key Info:
            Public Key Algorithm: id-ecPublicKey
                Public-Key: (256 bit)
                pub:
                    04:99:e8:3b:1a:e3:b2:a5:f2:15:04:66:e3:a5:33:
                    c7:f5:e3:91:1b:fd:0d:9a:50:8b:71:21:e6:90:c6:
                    63:09:94:44:52:f7:6c:27:4e:48:11:13:cb:20:aa:
                    3b:b9:f9:8b:d4:8b:82:a7:a1:36:b3:84:8d:a2:f3:
                    59:fa:8e:24:77
                ASN1 OID: prime256v1
                NIST CURVE: P-256
        X509v3 extensions:
            X509v3 Extended Key Usage: 
                E-mail Protection
            X509v3 Certificate Policies: 
                Policy: 2.23.140.1.5.2.3
            1.3.6.1.4.1.52266.1: critical
                0.
    Signature Algorithm: ecdsa-with-SHA256
    Signature Value:
        30:46:02:21:00:ad:ff:32:f7:5d:60:46:16:5c:11:3c:52:c4:
        0c:6e:42:56:73:49:51:ac:19:30:ee:fe:a8:2a:50:92:3c:a3:
        92:02:21:00:99:b4:76:21:39:93:d4:b5:fd:fb:c6:ff:48:f4:
        56:e6:67:ed:84:aa:bb:18:63:83:0b:8f:73:67:b4:89:71:ec
-----BEGIN CERTIFICATE-----
MIIBMjCB2KADAgECAgEDMAoGCCqGSM49BAMCMAAwIBcNMjQwMjI3MjAyNDM2WhgP
OTk5ODExMzAwMDAwMDBaMAAwWTATBgcqhkjOPQIBBggqhkjOPQMBBwNCAASZ6Dsa
47Kl8hUEZuOlM8f145Eb/Q2aUItxIeaQxmMJlERS92wnTkgRE8sgqju5+YvUi4Kn
oTazhI2i81n6jiR3o0EwPzATBgNVHSUEDDAKBggrBgEFBQcDBDAUBgNVHSAEDTAL
MAkGB2eBDAEFAgMwEgYJKwYBBAGDmCoBAQH/BAIwADAKBggqhkjOPQQDAgNJADBG
AiEArf8y911gRhZcETxSxAxuQlZzSVGsGTDu/qgqUJI8o5ICIQCZtHYhOZPUtf37
xv9I9FbmZ+2EqrsYY4MLj3NntIlx7A==
-----END CERTIFICATE-----

