Certificate:
    Data:
        Version: 3 (0x2)
        Serial Number: 3 (0x3)
        Signature Algorithm: ecdsa-with-SHA256
        Issuer: 
        Validity
            Not Before: Sep  1 00:00:00 2023 GMT
            Not After : Nov 30 00:00:00 9998 GMT
        Subject: organizationIdentifier = NTRGB-12345678
        Subject Public Key Info:
            Public Key Algorithm: id-ecPublicKey
                Public-Key: (256 bit)
                pub:
                    04:5a:3e:14:73:c8:68:32:d7:c0:d8:dc:c5:3e:bd:
                    ca:ca:a9:4e:48:9b:8a:ec:6a:5a:9a:5c:c0:8a:af:
                    e9:21:c4:d9:5f:b6:a7:d9:62:75:a5:5f:60:81:3a:
                    90:cf:98:98:ae:25:8f:39:b5:4c:f9:ef:32:54:a7:
                    a4:06:eb:ef:d8
                ASN1 OID: prime256v1
                NIST CURVE: P-256
        X509v3 extensions:
            X509v3 Certificate Policies: 
                Policy: 2.23.140.1.5.2.1
    Signature Algorithm: ecdsa-with-SHA256
    Signature Value:
        30:45:02:20:59:47:29:1a:67:67:67:c5:6f:2e:af:50:f5:09:
        41:56:1c:76:b1:e8:85:1e:5e:84:ea:61:b4:d8:a0:87:f2:5c:
        02:21:00:bf:6f:ce:d8:0d:0c:cc:32:19:d9:cc:60:65:47:65:
        59:dd:87:99:3b:96:1d:76:b6:66:c3:10:e6:33:c8:2d:e3
-----BEGIN CERTIFICATE-----
MIIBITCByKADAgECAgEDMAoGCCqGSM49BAMCMAAwIBcNMjMwOTAxMDAwMDAwWhgP
OTk5ODExMzAwMDAwMDBaMBkxFzAVBgNVBGETDk5UUkdCLTEyMzQ1Njc4MFkwEwYH
KoZIzj0CAQYIKoZIzj0DAQcDQgAEWj4Uc8hoMtfA2NzFPr3KyqlOSJuK7GpamlzA
iq/pIcTZX7an2WJ1pV9ggTqQz5iYriWPObVM+e8yVKekBuvv2KMYMBYwFAYDVR0g
BA0wCzAJBgdngQwBBQIBMAoGCCqGSM49BAMCA0gAMEUCIFlHKRpnZ2fFby6vUPUJ
QVYcdrHohR5ehOphtNigh/JcAiEAv2/O2A0MzDIZ2cxgZUdlWd2HmTuWHXa2ZsMQ
5jPILeM=
-----END CERTIFICATE-----