Certificate:
    Data:
        Version: 3 (0x2)
        Serial Number: 3 (0x3)
        Signature Algorithm: ecdsa-with-SHA256
        Issuer:
        Validity
            Not Before: May  1 00:00:00 2023 GMT
            Not After : Nov 30 00:00:00 9998 GMT
        Subject: CN = johnsmith@example.com
        Subject Public Key Info:
            Public Key Algorithm: id-ecPublicKey
                Public-Key: (256 bit)
                pub:
                    04:15:24:74:ef:20:6d:3e:0e:17:26:ee:5e:9f:8b:
                    eb:a1:5e:ed:b3:78:50:ef:de:00:a5:05:fc:fb:8d:
                    b4:4a:e0:3e:f2:92:30:ff:53:08:6a:3d:7b:a7:01:
                    d9:2c:6b:66:d0:99:c4:2f:69:db:08:f5:6a:42:e6:
                    ad:41:8d:a8:77
                ASN1 OID: prime256v1
                NIST CURVE: P-256
        X509v3 extensions:
            X509v3 Certificate Policies:
                Policy: 2.23.140.1.5.2.1
            1.2.840.113583.1.1.9.1: critical
                test
    Signature Algorithm: ecdsa-with-SHA256
    Signature Value:
        30:45:02:21:00:c7:92:49:31:77:b1:10:23:4d:b2:68:80:c6:
        56:a7:15:9f:64:be:ba:e7:76:3d:b9:ef:3c:41:64:38:c9:4e:
        85:02:20:42:20:f9:c1:01:54:e9:8a:5c:6b:27:51:62:36:c4:
        49:37:ba:0b:fa:01:bc:ee:0c:b7:55:8b:c6:13:55:33:d6
-----BEGIN CERTIFICATE-----
MIIBPzCB5qADAgECAgEDMAoGCCqGSM49BAMCMAAwIBcNMjMwNTAxMDAwMDAwWhgP
OTk5ODExMzAwMDAwMDBaMCAxHjAcBgNVBAMMFWpvaG5zbWl0aEBleGFtcGxlLmNv
bTBZMBMGByqGSM49AgEGCCqGSM49AwEHA0IABBUkdO8gbT4OFybuXp+L66Fe7bN4
UO/eAKUF/PuNtErgPvKSMP9TCGo9e6cB2SxrZtCZxC9p2wj1akLmrUGNqHejLzAt
MBQGA1UdIAQNMAswCQYHZ4EMAQUCATAVBgoqhkiG9y8BAQkBAQH/BAR0ZXN0MAoG
CCqGSM49BAMCA0gAMEUCIQDHkkkxd7EQI02yaIDGVqcVn2S+uud2PbnvPEFkOMlO
hQIgQiD5wQFU6YpcaydRYjbESTe6C/oBvO4Mt1WLxhNVM9Y=
-----END CERTIFICATE-----