Certificate:
    Data:
        Version: 3 (0x2)
        Serial Number:
            8b:97:f5:9f:01:3b:28:c1:e5:df:58:0f
        Signature Algorithm: ecdsa-with-SHA256
        Issuer: CN = Lint CA, O = Lint, C = DE
        Validity
            Not Before: Sep  1 00:00:00 2023 GMT
            Not After : Sep  1 00:00:00 2024 GMT
        Subject: C = YY
        Subject Public Key Info:
            Public Key Algorithm: id-ecPublicKey
                Public-Key: (256 bit)
                pub:
                    04:84:c9:d5:f4:85:c9:91:36:10:49:0f:15:a3:27:
                    16:66:50:a6:94:43:b8:29:10:69:3a:95:65:b7:13:
                    c6:fa:62:10:ef:7a:d3:2e:fd:c6:e3:84:f6:d2:14:
                    87:ee:93:52:1d:a4:4a:9c:97:07:7d:c4:fd:bb:ec:
                    64:cb:9f:4e:ee
                ASN1 OID: prime256v1
                NIST CURVE: P-256
        X509v3 extensions:
            X509v3 Certificate Policies: 
                Policy: 2.23.140.1.5.2.2
    Signature Algorithm: ecdsa-with-SHA256
    Signature Value:
        30:44:02:20:2a:a7:46:27:c2:d8:f0:ee:f4:d8:40:69:f5:9d:
        b4:68:a9:0a:2e:72:52:32:e7:ae:0f:48:9f:66:df:82:0a:b5:
        02:20:6c:e8:ce:78:f3:fa:90:57:bd:59:db:df:bb:2e:5a:bd:
        94:1f:b4:51:94:02:43:db:2d:79:bc:7e:94:31:cb:05
-----BEGIN CERTIFICATE-----
MIIBTDCB9KADAgECAg0Ai5f1nwE7KMHl31gPMAoGCCqGSM49BAMCMC4xEDAOBgNV
BAMMB0xpbnQgQ0ExDTALBgNVBAoMBExpbnQxCzAJBgNVBAYTAkRFMB4XDTIzMDkw
MTAwMDAwMFoXDTI0MDkwMTAwMDAwMFowDTELMAkGA1UEBhMCWVkwWTATBgcqhkjO
PQIBBggqhkjOPQMBBwNCAASEydX0hcmRNhBJDxWjJxZmUKaUQ7gpEGk6lWW3E8b6
YhDvetMu/cbjhPbSFIfuk1IdpEqclwd9xP277GTLn07uoxgwFjAUBgNVHSAEDTAL
MAkGB2eBDAEFAgIwCgYIKoZIzj0EAwIDRwAwRAIgKqdGJ8LY8O702EBp9Z20aKkK
LnJSMueuD0ifZt+CCrUCIGzoznjz+pBXvVnb37suWr2UH7RRlAJD2y15vH6UMcsF
-----END CERTIFICATE-----
