Certificate:
    Data:
        Version: 3 (0x2)
        Serial Number: 3 (0x3)
        Signature Algorithm: ecdsa-with-SHA256
        Issuer: 
        Validity
            Not Before: Sep  2 00:00:00 2023 GMT
            Not After : Nov 30 00:00:00 9998 GMT
        Subject: CN = johnsmith@example.com
        Subject Public Key Info:
            Public Key Algorithm: id-ecPublicKey
                Public-Key: (256 bit)
                pub:
                    04:5c:03:67:b8:33:4d:10:4f:6e:50:17:75:21:ba:
                    0b:6d:11:fa:c2:92:7d:40:a1:fe:0b:f0:0e:e8:84:
                    20:90:2a:10:bf:10:8b:9c:7e:ec:01:1d:01:85:b6:
                    ff:3a:e3:3a:d6:67:2c:66:2a:c3:92:6f:d1:ec:eb:
                    83:12:ee:c9:4d
                ASN1 OID: prime256v1
                NIST CURVE: P-256
        X509v3 extensions:
            X509v3 Extended Key Usage: 
                E-mail Protection, TLS Web Server Authentication
            X509v3 Certificate Policies: 
                Policy: 2.23.140.1.5.2.2

    Signature Algorithm: ecdsa-with-SHA256
         30:45:02:21:00:e3:8d:ee:a5:8d:4f:27:4c:ec:c8:49:01:e8:
         b9:94:57:aa:cd:78:43:e5:fc:5a:5f:a1:63:0f:d5:34:a0:4f:
         95:02:20:67:36:85:e5:e7:d9:75:c6:3a:7a:37:8a:c2:79:63:
         51:0f:63:3c:aa:58:1e:62:ac:f1:5c:9e:15:32:c4:97:43
-----BEGIN CERTIFICATE-----
MIIBRzCB7qADAgECAgEDMAoGCCqGSM49BAMCMAAwIBcNMjMwOTAyMDAwMDAwWhgP
OTk5ODExMzAwMDAwMDBaMCAxHjAcBgNVBAMMFWpvaG5zbWl0aEBleGFtcGxlLmNv
bTBZMBMGByqGSM49AgEGCCqGSM49AwEHA0IABFwDZ7gzTRBPblAXdSG6C20R+sKS
fUCh/gvwDuiEIJAqEL8Qi5x+7AEdAYW2/zrjOtZnLGYqw5Jv0ezrgxLuyU2jNzA1
MB0GA1UdJQQWMBQGCCsGAQUFBwMEBggrBgEFBQcDATAUBgNVHSAEDTALMAkGB2eB
DAEFAgIwCgYIKoZIzj0EAwIDSAAwRQIhAOON7qWNTydM7MhJAei5lFeqzXhD5fxa
X6FjD9U0oE+VAiBnNoXl59l1xjp6N4rCeWNRD2M8qlgeYqzxXJ4VMsSXQw==
-----END CERTIFICATE-----