Certificate:
    Data:
        Version: 3 (0x2)
        Serial Number: 3 (0x3)
        Signature Algorithm: ecdsa-with-SHA256
        Issuer:
        Validity
            Not Before: Sep  1 00:00:00 2023 GMT
            Not After : Nov 30 00:00:00 9998 GMT
        Subject: CN = johnsmith@example.com
        Subject Public Key Info:
            Public Key Algorithm: id-ecPublicKey
                Public-Key: (256 bit)
                pub:
                    04:dc:db:9c:bd:ec:d9:f0:72:22:4d:72:97:ef:d5:
                    3f:77:94:83:23:f4:08:c0:bd:22:98:75:71:16:50:
                    d1:90:ca:40:72:dd:eb:62:8a:81:60:5d:87:c5:dc:
                    9a:0d:2a:21:5c:4a:fb:41:7c:71:95:73:54:17:04:
                    79:04:4f:17:e2
                ASN1 OID: prime256v1
                NIST CURVE: P-256
        X509v3 extensions:
            X509v3 Certificate Policies:
                Policy: 2.23.140.1.5.2.2
            1.2.840.113583.1.1.9.2:
                test
    Signature Algorithm: ecdsa-with-SHA256
    Signature Value:
        30:45:02:21:00:cb:b9:a9:32:fb:b1:5e:9d:70:81:b9:81:f8:
        76:bf:f0:2a:be:9b:5d:5b:93:88:c3:d3:6e:34:93:bd:7d:c7:
        c3:02:20:4d:f5:03:07:8f:d0:7f:da:88:ec:63:60:05:bc:30:
        a8:58:64:29:00:e5:6a:5e:3b:cd:05:34:64:84:b2:27:92
-----BEGIN CERTIFICATE-----
MIIBPDCB46ADAgECAgEDMAoGCCqGSM49BAMCMAAwIBcNMjMwOTAxMDAwMDAwWhgP
OTk5ODExMzAwMDAwMDBaMCAxHjAcBgNVBAMMFWpvaG5zbWl0aEBleGFtcGxlLmNv
bTBZMBMGByqGSM49AgEGCCqGSM49AwEHA0IABNzbnL3s2fByIk1yl+/VP3eUgyP0
CMC9Iph1cRZQ0ZDKQHLd62KKgWBdh8Xcmg0qIVxK+0F8cZVzVBcEeQRPF+KjLDAq
MBQGA1UdIAQNMAswCQYHZ4EMAQUCAjASBgoqhkiG9y8BAQkCBAR0ZXN0MAoGCCqG
SM49BAMCA0gAMEUCIQDLuaky+7FenXCBuYH4dr/wKr6bXVuTiMPTbjSTvX3HwwIg
TfUDB4/Qf9qI7GNgBbwwqFhkKQDlal47zQU0ZISyJ5I=
-----END CERTIFICATE-----