Certificate:
    Data:
        Version: 3 (0x2)
        Serial Number: 3 (0x3)
        Signature Algorithm: ecdsa-with-SHA256
        Issuer: 
        Validity
            Not Before: Sep  1 00:00:00 2023 GMT
            Not After : Nov 30 00:00:00 9998 GMT
        Subject: C = GB, organizationIdentifier = NGB-12345678
        Subject Public Key Info:
            Public Key Algorithm: id-ecPublicKey
                Public-Key: (256 bit)
                pub:
                    04:12:e7:c6:32:81:8f:3e:cb:5a:9b:45:25:53:a6:
                    04:0a:b9:87:2a:92:c6:1c:df:ee:bf:65:66:2a:84:
                    a0:1a:f3:42:7a:8f:13:35:e0:7c:51:73:8c:dc:b5:
                    51:62:7b:06:71:09:22:20:85:3f:28:02:70:5b:22:
                    53:9d:8a:69:10
                ASN1 OID: prime256v1
                NIST CURVE: P-256
        X509v3 extensions:
            X509v3 Certificate Policies: 
                Policy: 2.23.140.1.5.2.1
    Signature Algorithm: ecdsa-with-SHA256
    Signature Value:
        30:46:02:21:00:a4:b8:3c:57:91:01:1e:27:ed:77:e2:94:fb:
        4f:75:bb:5a:74:72:28:32:7f:bc:62:08:1f:61:32:91:29:83:
        4c:02:21:00:fe:ec:86:77:78:58:b5:fe:90:04:6a:9f:b8:ca:
        01:d3:82:4e:7b:64:90:f5:c3:7d:16:3e:60:30:7b:ab:83:90
-----BEGIN CERTIFICATE-----
MIIBLTCB06ADAgECAgEDMAoGCCqGSM49BAMCMAAwIBcNMjMwOTAxMDAwMDAwWhgP
OTk5ODExMzAwMDAwMDBaMCQxCzAJBgNVBAYTAkdCMRUwEwYDVQRhEwxOR0ItMTIz
NDU2NzgwWTATBgcqhkjOPQIBBggqhkjOPQMBBwNCAAQS58YygY8+y1qbRSVTpgQK
uYcqksYc3+6/ZWYqhKAa80J6jxM14HxRc4zctVFiewZxCSIghT8oAnBbIlOdimkQ
oxgwFjAUBgNVHSAEDTALMAkGB2eBDAEFAgEwCgYIKoZIzj0EAwIDSQAwRgIhAKS4
PFeRAR4n7XfilPtPdbtadHIoMn+8YggfYTKRKYNMAiEA/uyGd3hYtf6QBGqfuMoB
04JOe2SQ9cN9Fj5gMHurg5A=
-----END CERTIFICATE-----