Certificate:
    Data:
        Version: 3 (0x2)
        Serial Number: 3 (0x3)
        Signature Algorithm: ecdsa-with-SHA256
        Issuer: 
        Validity
            Not Before: Feb 27 21:24:08 2024 GMT
            Not After : Nov 30 00:00:00 9998 GMT
        Subject: 
        Subject Public Key Info:
            Public Key Algorithm: id-ecPublicKey
                Public-Key: (256 bit)
                pub:
                    04:65:5a:40:93:2d:68:a9:f2:bc:25:f1:d5:73:41:
                    7e:d1:8b:df:e3:ff:78:c6:35:18:e7:1a:01:18:19:
                    87:5f:7e:db:97:6b:73:bd:b2:52:5c:58:87:59:4e:
                    6a:2d:8d:4e:ea:7a:c9:84:7e:68:18:61:64:a0:c6:
                    35:7d:e0:e4:b8
                ASN1 OID: prime256v1
                NIST CURVE: P-256
        X509v3 extensions:
            X509v3 Extended Key Usage: 
                E-mail Protection
            X509v3 Certificate Policies: 
                Policy: 2.23.140.1.5.2.3
            1.3.6.1.4.1.52266.2: 
                0.
    Signature Algorithm: ecdsa-with-SHA256
    Signature Value:
        30:45:02:20:74:8e:47:17:c0:68:88:aa:48:2d:bb:e1:ea:5e:
        b1:4b:9e:34:52:3d:84:81:64:8d:7f:c0:c7:2c:34:36:a8:8b:
        02:21:00:fe:54:e1:63:17:25:a7:2f:b8:89:d1:19:d8:81:a2:
        bc:e6:d1:0b:7a:f7:e0:3b:8a:5e:d3:63:dd:d2:d0:91:8d
-----BEGIN CERTIFICATE-----
MIIBLjCB1aADAgECAgEDMAoGCCqGSM49BAMCMAAwIBcNMjQwMjI3MjEyNDA4WhgP
OTk5ODExMzAwMDAwMDBaMAAwWTATBgcqhkjOPQIBBggqhkjOPQMBBwNCAARlWkCT
LWip8rwl8dVzQX7Ri9/j/3jGNRjnGgEYGYdfftuXa3O9slJcWIdZTmotjU7qesmE
fmgYYWSgxjV94OS4oz4wPDATBgNVHSUEDDAKBggrBgEFBQcDBDAUBgNVHSAEDTAL
MAkGB2eBDAEFAgMwDwYJKwYBBAGDmCoCBAIwADAKBggqhkjOPQQDAgNIADBFAiB0
jkcXwGiIqkgtu+HqXrFLnjRSPYSBZI1/wMcsNDaoiwIhAP5U4WMXJacvuInRGdiB
orzm0Qt69+A7il7TY93S0JGN
-----END CERTIFICATE-----

