Certificate:
    Data:
        Version: 3 (0x2)
        Serial Number: 3 (0x3)
        Signature Algorithm: ecdsa-with-SHA256
        Issuer:
        Validity
            Not Before: Sep  1 00:00:00 2023 GMT
            Not After : Nov 30 00:00:00 9998 GMT
        Subject: CN = johnsmith@example.com
        Subject Public Key Info:
            Public Key Algorithm: id-ecPublicKey
                Public-Key: (256 bit)
                pub:
                    04:a4:5c:53:1f:fa:1c:2c:a0:a6:cf:95:24:c9:e3:
                    46:8c:ae:02:8a:33:4b:39:a5:d3:b6:23:b9:fe:b2:
                    77:6b:ba:54:3f:aa:d8:95:5e:a4:90:d9:53:86:2d:
                    3e:4e:1c:e0:86:1a:50:e5:cf:27:dd:c7:38:61:e7:
                    06:38:e5:38:0f
                ASN1 OID: prime256v1
                NIST CURVE: P-256
        X509v3 extensions:
            X509v3 Certificate Policies:
                Policy: 2.23.140.1.5.2.3
            1.2.840.113583.1.1.9.1: critical
                test
    Signature Algorithm: ecdsa-with-SHA256
    Signature Value:
        30:45:02:20:49:28:48:e5:2f:e6:7d:d2:1b:dd:8a:31:49:cd:
        88:1d:79:7a:9d:ae:34:90:56:a0:3c:2b:dd:9b:3d:3d:00:82:
        02:21:00:a4:3b:1b:3b:3d:71:4f:b7:d7:9e:48:5b:b9:e0:92:
        41:a9:f9:0b:65:18:52:ed:00:ef:ca:11:d5:95:5c:4a:d8
-----BEGIN CERTIFICATE-----
MIIBPzCB5qADAgECAgEDMAoGCCqGSM49BAMCMAAwIBcNMjMwOTAxMDAwMDAwWhgP
OTk5ODExMzAwMDAwMDBaMCAxHjAcBgNVBAMMFWpvaG5zbWl0aEBleGFtcGxlLmNv
bTBZMBMGByqGSM49AgEGCCqGSM49AwEHA0IABKRcUx/6HCygps+VJMnjRoyuAooz
Szml07Yjuf6yd2u6VD+q2JVepJDZU4YtPk4c4IYaUOXPJ93HOGHnBjjlOA+jLzAt
MBQGA1UdIAQNMAswCQYHZ4EMAQUCAzAVBgoqhkiG9y8BAQkBAQH/BAR0ZXN0MAoG
CCqGSM49BAMCA0gAMEUCIEkoSOUv5n3SG92KMUnNiB15ep2uNJBWoDwr3Zs9PQCC
AiEApDsbOz1xT7fXnkhbueCSQan5C2UYUu0A78oR1ZVcStg=
-----END CERTIFICATE-----