Certificate:
    Data:
        Version: 3 (0x2)
        Serial Number: 3 (0x3)
        Signature Algorithm: ecdsa-with-SHA256
        Issuer: 
        Validity
            Not Before: Sep  1 00:00:00 2023 GMT
            Not After : Nov 30 00:00:00 9998 GMT
        Subject: C = GB, organizationIdentifier = NTRFR-12345678
        Subject Public Key Info:
            Public Key Algorithm: id-ecPublicKey
                Public-Key: (256 bit)
                pub:
                    04:d9:56:b4:43:cf:87:9f:20:71:a6:79:02:a2:57:
                    c5:0a:d0:52:23:ac:c1:aa:d3:7e:f8:b5:f5:5b:8c:
                    da:f1:17:24:5f:ee:55:a0:46:3d:2b:e0:a2:8a:0d:
                    4f:4b:cb:9b:df:3e:de:0a:96:4d:fe:8a:aa:dc:24:
                    38:3a:79:41:2b
                ASN1 OID: prime256v1
                NIST CURVE: P-256
        X509v3 extensions:
            X509v3 Certificate Policies: 
                Policy: 2.23.140.1.5.2.1
    Signature Algorithm: ecdsa-with-SHA256
    Signature Value:
        30:44:02:20:5f:3c:88:87:67:7c:f8:e7:d1:c4:b3:6f:7a:e1:
        c4:f2:71:db:ae:3a:79:06:db:b0:2e:05:07:03:8d:b2:30:55:
        02:20:24:3b:f2:be:35:0e:a9:70:21:33:1f:95:f9:44:42:62:
        ea:35:77:63:fa:31:b4:04:e2:46:d9:55:a8:8d:24:cc
-----BEGIN CERTIFICATE-----
MIIBLTCB1aADAgECAgEDMAoGCCqGSM49BAMCMAAwIBcNMjMwOTAxMDAwMDAwWhgP
OTk5ODExMzAwMDAwMDBaMCYxCzAJBgNVBAYTAkdCMRcwFQYDVQRhEw5OVFJGUi0x
MjM0NTY3ODBZMBMGByqGSM49AgEGCCqGSM49AwEHA0IABNlWtEPPh58gcaZ5AqJX
xQrQUiOswarTfvi19VuM2vEXJF/uVaBGPSvgoooNT0vLm98+3gqWTf6KqtwkODp5
QSujGDAWMBQGA1UdIAQNMAswCQYHZ4EMAQUCATAKBggqhkjOPQQDAgNHADBEAiBf
PIiHZ3z459HEs2964cTycduuOnkG27AuBQcDjbIwVQIgJDvyvjUOqXAhMx+V+URC
Yuo1d2P6MbQE4kbZVaiNJMw=
-----END CERTIFICATE-----