Certificate:
    Data:
        Version: 3 (0x2)
        Serial Number: 3 (0x3)
        Signature Algorithm: ecdsa-with-SHA256
        Issuer: 
        Validity
            Not Before: Sep  2 00:00:00 2023 GMT
            Not After : Nov 30 00:00:00 9998 GMT
        Subject: 
        Subject Public Key Info:
            Public Key Algorithm: rsaEncryption
                RSA Public-Key: (2048 bit)
                Modulus:
                    00:d1:13:ce:56:9f:0b:43:da:07:e0:56:87:69:37:
                    31:51:d8:56:15:33:96:da:8e:67:c7:68:f6:68:a5:
                    75:d5:de:14:78:81:8e:84:a3:6c:1f:f9:58:44:ea:
                    27:cf:b1:d9:87:14:68:18:29:50:8b:75:2a:42:9c:
                    98:1d:ed:85:6f:14:fc:99:85:70:6f:72:c2:a1:e5:
                    75:83:90:dd:74:0c:ca:b9:49:a3:25:ae:49:ad:1f:
                    fc:6a:86:1b:cc:8a:e8:53:a6:e7:1f:14:36:48:3c:
                    f4:fa:d3:49:f8:2c:52:a4:bd:d0:78:3f:a8:8f:90:
                    00:3b:96:70:87:c4:ee:f9:32:b4:64:99:3c:76:83:
                    d8:a7:01:20:1d:7e:79:a7:ac:a5:e5:d6:3b:86:47:
                    e8:24:b3:be:fd:65:4c:8e:ef:d6:78:fd:78:9a:9d:
                    8a:6f:f4:49:6c:43:d4:92:9d:a3:00:61:9c:78:7d:
                    8d:07:c2:e4:42:79:21:d5:4c:e7:07:ac:2a:6d:1b:
                    7f:04:aa:b6:20:7c:61:b4:b3:d9:64:cd:ae:a4:96:
                    f5:0c:4f:79:ab:b1:bd:85:e8:f5:83:63:7c:7e:5f:
                    68:f7:6d:0d:af:90:6c:5f:53:d4:5c:14:e5:20:d9:
                    bb:4a:81:a2:80:b4:7d:45:32:f1:b5:65:29:37:e8:
                    43:cd
                Exponent: 65537 (0x10001)
        X509v3 extensions:
            X509v3 Key Usage: critical
                Certificate Sign
            X509v3 Certificate Policies: 
                Policy: 2.23.140.1.5.1.2

    Signature Algorithm: ecdsa-with-SHA256
         30:45:02:20:2c:48:d6:16:5b:fe:db:2c:a9:a9:b1:4b:3e:d6:
         79:8e:e4:ff:45:35:93:20:b8:fa:89:5f:0d:00:80:ba:e7:23:
         02:21:00:ac:cc:8f:9b:28:ee:d7:22:1e:e4:37:fc:b0:86:97:
         f0:53:ec:a2:da:86:9c:4b:33:af:de:9d:39:4b:d6:b0:0b
-----BEGIN CERTIFICATE-----
MIIB5DCCAYqgAwIBAgIBAzAKBggqhkjOPQQDAjAAMCAXDTIzMDkwMjAwMDAwMFoY
Dzk5OTgxMTMwMDAwMDAwWjAAMIIBIjANBgkqhkiG9w0BAQEFAAOCAQ8AMIIBCgKC
AQEA0RPOVp8LQ9oH4FaHaTcxUdhWFTOW2o5nx2j2aKV11d4UeIGOhKNsH/lYROon
z7HZhxRoGClQi3UqQpyYHe2FbxT8mYVwb3LCoeV1g5DddAzKuUmjJa5JrR/8aoYb
zIroU6bnHxQ2SDz0+tNJ+CxSpL3QeD+oj5AAO5Zwh8Tu+TK0ZJk8doPYpwEgHX55
p6yl5dY7hkfoJLO+/WVMju/WeP14mp2Kb/RJbEPUkp2jAGGceH2NB8LkQnkh1Uzn
B6wqbRt/BKq2IHxhtLPZZM2upJb1DE95q7G9hej1g2N8fl9o920Nr5BsX1PUXBTl
INm7SoGigLR9RTLxtWUpN+hDzQIDAQABoygwJjAOBgNVHQ8BAf8EBAMCAAQwFAYD
VR0gBA0wCzAJBgdngQwBBQECMAoGCCqGSM49BAMCA0gAMEUCICxI1hZb/tssqamx
Sz7WeY7k/0U1kyC4+olfDQCAuucjAiEArMyPmyju1yIe5Df8sIaX8FPsotqGnEsz
r96dOUvWsAs=
-----END CERTIFICATE-----