Certificate:
    Data:
        Version: 3 (0x2)
        Serial Number: 3 (0x3)
        Signature Algorithm: ecdsa-with-SHA256
        Issuer: 
        Validity
            Not Before: Sep  2 00:00:00 2023 GMT
            Not After : Nov 30 00:00:00 9998 GMT
        Subject: 
        Subject Public Key Info:
            Public Key Algorithm: rsaEncryption
                RSA Public-Key: (2048 bit)
                Modulus:
                    00:af:a0:45:57:c3:db:83:d8:3b:3a:2b:bf:21:2b:
                    c3:ba:ec:ef:15:66:56:57:63:ab:cf:da:21:db:db:
                    94:82:46:90:45:cc:57:a2:10:1c:21:bc:b9:b7:87:
                    4b:dc:d3:df:19:41:dd:8a:43:ac:95:41:02:40:95:
                    0c:8f:f3:d1:8e:3a:03:4f:67:d5:a2:95:11:76:2d:
                    19:5d:4a:c9:b4:99:73:c0:87:dd:c8:c1:ab:80:bf:
                    a5:5e:7a:a3:b7:68:a7:8e:94:54:57:8f:f9:2c:e8:
                    9b:fb:c8:68:7b:1b:59:66:96:13:fe:f0:09:ea:58:
                    0b:5f:7b:e7:6d:ea:02:b8:9e:32:dd:1d:80:6d:2a:
                    74:46:e0:cd:aa:b8:75:51:49:e6:a3:45:9e:18:8e:
                    fa:b0:f0:5a:59:d1:bf:ef:10:fd:17:ad:3b:c9:57:
                    58:3b:b3:d2:b8:8d:f2:9e:73:ee:93:70:78:40:ad:
                    20:98:3c:6e:62:7c:b2:f7:70:de:7f:15:d7:06:21:
                    01:fc:6c:14:3f:69:58:ea:bd:f8:71:a1:57:88:25:
                    e3:a4:a9:4b:52:3b:df:3d:8e:94:b1:6f:a2:84:e9:
                    e1:1d:9f:05:e5:9e:20:2d:95:22:a0:4f:ec:6c:b9:
                    ab:d5:ec:5e:8f:a3:c2:bf:af:1d:2b:5d:00:5e:66:
                    b7:37
                Exponent: 65537 (0x10001)
        X509v3 extensions:
            X509v3 Key Usage: critical
                Digital Signature, Certificate Sign
            X509v3 Certificate Policies: 
                Policy: 2.23.140.1.5.3.1

    Signature Algorithm: ecdsa-with-SHA256
         30:46:02:21:00:ec:b2:ef:8f:85:3b:c9:da:6c:28:43:22:8f:
         07:de:75:43:4e:c5:1e:d8:81:1f:50:36:07:9f:1b:b1:e4:00:
         5a:02:21:00:db:19:bf:1e:89:a0:f2:8a:ce:b7:b2:b5:c5:61:
         08:e0:2d:7e:1c:b3:59:a2:4b:65:3a:fa:6c:58:17:da:ef:61
-----BEGIN CERTIFICATE-----
MIIB5TCCAYqgAwIBAgIBAzAKBggqhkjOPQQDAjAAMCAXDTIzMDkwMjAwMDAwMFoY
Dzk5OTgxMTMwMDAwMDAwWjAAMIIBIjANBgkqhkiG9w0BAQEFAAOCAQ8AMIIBCgKC
AQEAr6BFV8Pbg9g7Oiu/ISvDuuzvFWZWV2Orz9oh29uUgkaQRcxXohAcIby5t4dL
3NPfGUHdikOslUECQJUMj/PRjjoDT2fVopURdi0ZXUrJtJlzwIfdyMGrgL+lXnqj
t2injpRUV4/5LOib+8hoextZZpYT/vAJ6lgLX3vnbeoCuJ4y3R2AbSp0RuDNqrh1
UUnmo0WeGI76sPBaWdG/7xD9F607yVdYO7PSuI3ynnPuk3B4QK0gmDxuYnyy93De
fxXXBiEB/GwUP2lY6r34caFXiCXjpKlLUjvfPY6UsW+ihOnhHZ8F5Z4gLZUioE/s
bLmr1exej6PCv68dK10AXma3NwIDAQABoygwJjAOBgNVHQ8BAf8EBAMCAIQwFAYD
VR0gBA0wCzAJBgdngQwBBQMBMAoGCCqGSM49BAMCA0kAMEYCIQDssu+PhTvJ2mwo
QyKPB951Q07FHtiBH1A2B58bseQAWgIhANsZvx6JoPKKzreytcVhCOAtfhyzWaJL
ZTr6bFgX2u9h
-----END CERTIFICATE-----