Certificate:
    Data:
        Version: 3 (0x2)
        Serial Number: 3 (0x3)
        Signature Algorithm: ecdsa-with-SHA256
        Issuer: 
        Validity
            Not Before: Sep  2 00:00:00 2023 GMT
            Not After : Nov 30 00:00:00 9998 GMT
        Subject: 
        Subject Public Key Info:
            Public Key Algorithm: rsaEncryption
                RSA Public-Key: (2048 bit)
                Modulus:
                    00:c9:1c:b7:96:a7:d9:8e:ec:ef:05:e6:c1:68:b8:
                    86:4e:a4:7f:02:ff:23:97:d6:12:bd:b2:21:6a:fc:
                    49:4e:5d:bb:eb:b5:e9:8a:ad:0b:d6:a6:e3:99:3a:
                    ed:09:16:c0:8e:15:10:e4:ff:83:4e:f7:56:f8:e1:
                    c8:d6:48:7b:06:ae:19:6d:ef:32:44:03:6d:da:c4:
                    80:05:4e:1a:24:a9:27:9f:cb:de:28:90:2f:0e:ab:
                    fb:bd:79:b6:c2:af:9b:38:31:e6:33:a8:dd:e4:25:
                    5c:47:02:b8:76:03:3d:7b:ae:f8:be:f7:3d:1f:48:
                    3e:f5:56:21:c6:a5:5e:16:d1:cd:e4:2e:f7:4d:9f:
                    57:6e:03:14:06:d1:5b:bb:56:8d:a0:9f:23:89:5c:
                    38:65:0a:f3:e5:d2:2e:43:64:6b:33:76:ff:4e:62:
                    32:f9:ad:d3:08:61:f7:1e:1f:ad:3d:fa:46:37:9f:
                    23:4d:9d:89:bf:e8:1d:d9:11:a7:af:f6:37:ea:48:
                    8d:eb:0a:43:9d:fc:fc:77:16:99:69:a4:fd:86:e0:
                    0c:87:9b:37:3e:50:e7:18:67:8f:5a:9f:0e:ef:90:
                    6b:6f:f9:db:e6:90:e8:d4:2b:a1:22:82:6d:6d:57:
                    2b:90:26:06:05:e5:0f:c1:dc:e2:53:a3:95:b4:69:
                    fc:a5
                Exponent: 65537 (0x10001)
        X509v3 extensions:
            X509v3 Key Usage: critical
                Key Encipherment, Certificate Sign
            X509v3 Certificate Policies: 
                Policy: 2.23.140.1.5.1.3

    Signature Algorithm: ecdsa-with-SHA256
         30:45:02:21:00:f4:2e:db:09:c9:2a:2d:fd:a6:2b:b1:7f:3b:
         99:73:9f:eb:da:7f:a6:49:f5:37:f6:e3:98:eb:fd:44:3f:fd:
         77:02:20:75:e5:9c:9c:4d:fc:18:4e:7a:bc:de:4f:1f:e0:a3:
         fe:4d:65:d2:22:9b:9c:db:cc:ae:6f:9e:a9:ea:dd:90:f6
-----BEGIN CERTIFICATE-----
MIIB5DCCAYqgAwIBAgIBAzAKBggqhkjOPQQDAjAAMCAXDTIzMDkwMjAwMDAwMFoY
Dzk5OTgxMTMwMDAwMDAwWjAAMIIBIjANBgkqhkiG9w0BAQEFAAOCAQ8AMIIBCgKC
AQEAyRy3lqfZjuzvBebBaLiGTqR/Av8jl9YSvbIhavxJTl2767Xpiq0L1qbjmTrt
CRbAjhUQ5P+DTvdW+OHI1kh7Bq4Zbe8yRANt2sSABU4aJKknn8veKJAvDqv7vXm2
wq+bODHmM6jd5CVcRwK4dgM9e674vvc9H0g+9VYhxqVeFtHN5C73TZ9XbgMUBtFb
u1aNoJ8jiVw4ZQrz5dIuQ2RrM3b/TmIy+a3TCGH3Hh+tPfpGN58jTZ2Jv+gd2RGn
r/Y36kiN6wpDnfz8dxaZaaT9huAMh5s3PlDnGGePWp8O75Brb/nb5pDo1CuhIoJt
bVcrkCYGBeUPwdziU6OVtGn8pQIDAQABoygwJjAOBgNVHQ8BAf8EBAMCACQwFAYD
VR0gBA0wCzAJBgdngQwBBQEDMAoGCCqGSM49BAMCA0gAMEUCIQD0LtsJySot/aYr
sX87mXOf69p/pkn1N/bjmOv9RD/9dwIgdeWcnE38GE56vN5PH+Cj/k1l0iKbnNvM
rm+eqerdkPY=
-----END CERTIFICATE-----
