Certificate:
    Data:
        Version: 3 (0x2)
        Serial Number: 3 (0x3)
        Signature Algorithm: ecdsa-with-SHA256
        Issuer: 
        Validity
            Not Before: Aug  2 00:00:00 2023 GMT
            Not After : Nov 30 00:00:00 9998 GMT
        Subject: 
        Subject Public Key Info:
            Public Key Algorithm: rsaEncryption
                RSA Public-Key: (2048 bit)
                Modulus:
                    00:db:49:17:e2:a7:3d:74:f2:91:7d:5d:13:ca:ea:
                    29:30:75:82:f5:f9:dd:38:97:60:d5:ca:5f:38:d2:
                    47:eb:b0:ad:aa:1f:c9:06:a2:d7:f9:38:fd:a0:e9:
                    35:73:ba:c8:60:3b:cd:83:46:6f:c8:b2:04:59:25:
                    ba:e3:ba:a5:7c:fb:dc:09:2f:8d:94:4d:a8:93:81:
                    16:34:0c:91:a3:bf:12:cc:c4:a5:d5:d5:95:e7:dc:
                    07:ba:6f:90:0f:77:6f:4f:f1:42:57:0e:ee:62:c1:
                    27:c4:1d:ca:53:f4:af:e6:b3:f1:7d:e1:11:f7:6b:
                    07:bb:75:49:1d:4f:f6:69:19:a5:0b:5d:9d:1f:7d:
                    cb:d7:a5:4b:82:e4:ce:93:46:74:f7:3a:4e:3d:cc:
                    ec:51:85:01:64:47:1b:38:8f:5b:97:da:2c:27:08:
                    2b:7f:70:98:eb:1a:5b:64:ed:77:43:0e:26:95:7e:
                    42:62:b8:ac:72:9a:86:5b:5a:8c:0c:33:f9:02:49:
                    b8:79:d3:7a:94:ee:13:c1:1c:87:83:00:2e:c1:92:
                    7e:3c:a8:99:9f:9f:06:8e:31:ae:32:2b:a8:e6:67:
                    8b:00:d2:52:48:c2:fd:3c:a0:5f:90:c9:f9:bf:4b:
                    1d:2b:22:0b:36:bb:bc:bd:c4:b9:56:ee:ad:fc:79:
                    33:ff
                Exponent: 65537 (0x10001)
        X509v3 extensions:
            X509v3 Key Usage: critical
                Digital Signature
            X509v3 Certificate Policies: 
                Policy: 2.23.140.1.5.1.3

    Signature Algorithm: ecdsa-with-SHA256
         30:44:02:20:6f:3f:78:8f:d0:1f:29:16:ca:85:43:ab:78:15:
         21:25:e3:9b:8d:af:f7:29:36:7b:1e:5f:70:71:8b:ac:1f:77:
         02:20:65:64:94:97:74:a7:fd:0d:84:1d:38:25:c4:d5:95:d5:
         c5:ec:dc:d1:89:c4:7e:41:d6:3d:7b:01:02:74:0e:7a
-----BEGIN CERTIFICATE-----
MIIB4zCCAYqgAwIBAgIBAzAKBggqhkjOPQQDAjAAMCAXDTIzMDgwMjAwMDAwMFoY
Dzk5OTgxMTMwMDAwMDAwWjAAMIIBIjANBgkqhkiG9w0BAQEFAAOCAQ8AMIIBCgKC
AQEA20kX4qc9dPKRfV0TyuopMHWC9fndOJdg1cpfONJH67Ctqh/JBqLX+Tj9oOk1
c7rIYDvNg0ZvyLIEWSW647qlfPvcCS+NlE2ok4EWNAyRo78SzMSl1dWV59wHum+Q
D3dvT/FCVw7uYsEnxB3KU/Sv5rPxfeER92sHu3VJHU/2aRmlC12dH33L16VLguTO
k0Z09zpOPczsUYUBZEcbOI9bl9osJwgrf3CY6xpbZO13Qw4mlX5CYriscpqGW1qM
DDP5Akm4edN6lO4TwRyHgwAuwZJ+PKiZn58GjjGuMiuo5meLANJSSML9PKBfkMn5
v0sdKyILNru8vcS5Vu6t/Hkz/wIDAQABoygwJjAOBgNVHQ8BAf8EBAMCAIAwFAYD
VR0gBA0wCzAJBgdngQwBBQEDMAoGCCqGSM49BAMCA0cAMEQCIG8/eI/QHykWyoVD
q3gVISXjm42v9yk2ex5fcHGLrB93AiBlZJSXdKf9DYQdOCXE1ZXVxezc0YnEfkHW
PXsBAnQOeg==
-----END CERTIFICATE-----