Certificate:
    Data:
        Version: 3 (0x2)
        Serial Number: 3 (0x3)
        Signature Algorithm: ecdsa-with-SHA256
        Issuer: 
        Validity
            Not Before: Sep  2 00:00:00 2023 GMT
            Not After : Nov 30 00:00:00 9998 GMT
        Subject: 
        Subject Public Key Info:
            Public Key Algorithm: rsaEncryption
                RSA Public-Key: (2048 bit)
                Modulus:
                    00:c9:22:44:ae:d2:bc:ae:2c:03:55:c3:c7:91:e2:
                    fb:5a:06:eb:26:ca:c2:b3:b5:d4:ad:15:08:1d:4e:
                    15:15:66:9f:12:f5:93:f2:29:0a:8d:a6:bb:74:23:
                    0c:99:c8:62:d7:9c:a5:e3:91:19:d3:26:a4:b2:db:
                    d9:0a:d2:91:03:01:cd:c9:b1:4f:5c:a0:3e:c2:a1:
                    03:28:e3:23:8e:3f:9d:72:20:73:4f:97:af:25:e5:
                    e6:c1:ed:31:6e:e7:b3:11:2a:71:d0:a6:da:ea:10:
                    56:82:83:b6:8c:a9:39:31:43:fd:bc:39:09:ca:21:
                    c9:43:57:28:06:49:f5:b4:b3:50:42:95:d5:9b:fd:
                    e6:f7:51:0d:77:7b:cd:d1:d9:8a:d6:c8:1e:b3:be:
                    0e:df:85:13:82:ed:29:c2:4d:01:92:22:f8:ff:ef:
                    f3:d8:10:45:50:c1:3e:10:63:2d:ad:78:cf:fb:4f:
                    df:08:0a:86:10:62:ff:8d:d0:77:78:e8:6a:1a:b4:
                    c1:5a:32:28:41:fe:b5:a2:92:df:12:54:25:fd:a9:
                    bd:84:fc:13:45:2e:fa:cb:50:88:52:74:a6:19:3c:
                    e2:64:0c:a1:40:15:b9:e6:18:47:16:1c:5d:62:f4:
                    f6:c9:7d:6b:47:fb:dc:17:1e:1e:0d:24:28:41:f8:
                    18:61
                Exponent: 65537 (0x10001)
        X509v3 extensions:
            X509v3 Key Usage: critical
                Key Encipherment, Data Encipherment
            X509v3 Certificate Policies: 
                Policy: 2.23.140.1.5.1.2

    Signature Algorithm: ecdsa-with-SHA256
         30:46:02:21:00:9c:47:22:9d:bd:0d:6c:ed:ed:96:96:2b:1e:
         8f:b2:02:7d:1b:0b:99:aa:b3:72:a7:8a:71:83:e8:a9:22:bb:
         dd:02:21:00:f5:d2:f0:30:04:0e:f9:41:d5:17:21:e1:41:ec:
         d6:57:62:c5:f5:fb:e1:88:9a:47:ea:6d:bd:5e:f2:a3:a4:6a
-----BEGIN CERTIFICATE-----
MIIB5TCCAYqgAwIBAgIBAzAKBggqhkjOPQQDAjAAMCAXDTIzMDkwMjAwMDAwMFoY
Dzk5OTgxMTMwMDAwMDAwWjAAMIIBIjANBgkqhkiG9w0BAQEFAAOCAQ8AMIIBCgKC
AQEAySJErtK8riwDVcPHkeL7WgbrJsrCs7XUrRUIHU4VFWafEvWT8ikKjaa7dCMM
mchi15yl45EZ0yakstvZCtKRAwHNybFPXKA+wqEDKOMjjj+dciBzT5evJeXmwe0x
buezESpx0Kba6hBWgoO2jKk5MUP9vDkJyiHJQ1coBkn1tLNQQpXVm/3m91ENd3vN
0dmK1sges74O34UTgu0pwk0BkiL4/+/z2BBFUME+EGMtrXjP+0/fCAqGEGL/jdB3
eOhqGrTBWjIoQf61opLfElQl/am9hPwTRS76y1CIUnSmGTziZAyhQBW55hhHFhxd
YvT2yX1rR/vcFx4eDSQoQfgYYQIDAQABoygwJjAOBgNVHQ8BAf8EBAMCADAwFAYD
VR0gBA0wCzAJBgdngQwBBQECMAoGCCqGSM49BAMCA0kAMEYCIQCcRyKdvQ1s7e2W
lisej7ICfRsLmaqzcqeKcYPoqSK73QIhAPXS8DAEDvlB1Rch4UHs1ldixfX74Yia
R+ptvV7yo6Rq
-----END CERTIFICATE-----