Certificate:
    Data:
        Version: 3 (0x2)
        Serial Number: 3 (0x3)
        Signature Algorithm: ecdsa-with-SHA256
        Issuer: 
        Validity
            Not Before: Sep  2 00:00:00 2023 GMT
            Not After : Nov 30 00:00:00 9998 GMT
        Subject: 
        Subject Public Key Info:
            Public Key Algorithm: rsaEncryption
                RSA Public-Key: (2048 bit)
                Modulus:
                    00:a8:2b:63:d1:76:68:8a:54:83:6f:89:e9:e8:c2:
                    f5:bd:78:c8:d6:d7:ca:a1:52:c1:93:5b:ff:29:5c:
                    54:d0:6c:30:48:62:f8:07:59:1f:38:c0:6b:84:5b:
                    75:8e:e7:55:6e:b1:d5:93:8b:e0:e8:44:33:74:85:
                    cb:60:89:32:92:1f:53:a7:64:31:f0:9f:a0:77:cd:
                    95:14:af:a8:a0:d8:93:96:05:9e:00:a3:f5:b7:0b:
                    c0:d0:ce:ef:60:78:32:6b:9a:ad:f9:69:50:cb:66:
                    7d:06:76:74:0a:ef:d1:7a:1a:40:28:eb:5c:a8:21:
                    81:90:66:dc:bd:cc:cb:63:4a:60:07:38:f5:83:da:
                    92:d6:02:e1:ef:a0:46:31:8d:3c:15:23:2e:54:34:
                    30:f7:d7:fb:37:d1:9c:43:a9:88:56:34:77:d4:8b:
                    d0:0e:a5:eb:8c:b2:8a:e2:20:47:9d:f7:92:f1:52:
                    f1:fe:18:26:5f:8a:48:44:e5:c0:16:6e:4f:c8:53:
                    94:16:7e:15:98:5d:26:33:b4:63:bd:f4:ed:21:d1:
                    50:e6:63:5c:06:99:3c:cc:7e:69:40:73:53:52:a5:
                    60:3e:67:1d:dd:8e:6a:da:48:98:8a:cc:a0:fa:05:
                    8b:18:b4:7d:b9:4a:df:52:55:95:78:cb:ab:61:62:
                    ca:4b
                Exponent: 65537 (0x10001)
        X509v3 extensions:
            X509v3 Key Usage: critical
                Key Encipherment
            X509v3 Certificate Policies: 
                Policy: 2.23.140.1.5.2.1

    Signature Algorithm: ecdsa-with-SHA256
         30:46:02:21:00:e1:10:bb:07:b5:9b:d9:e5:c1:b2:4d:a6:29:
         ec:5d:b9:2b:a2:5e:9f:9a:5b:a1:0d:d9:76:df:59:ff:b9:ef:
         f3:02:21:00:97:9c:7d:33:f7:d5:83:b0:24:d1:b3:c8:4d:cd:
         c6:84:d9:62:2a:f4:68:89:98:18:37:9e:4f:e7:3e:e7:bc:04
-----BEGIN CERTIFICATE-----
MIIB5TCCAYqgAwIBAgIBAzAKBggqhkjOPQQDAjAAMCAXDTIzMDkwMjAwMDAwMFoY
Dzk5OTgxMTMwMDAwMDAwWjAAMIIBIjANBgkqhkiG9w0BAQEFAAOCAQ8AMIIBCgKC
AQEAqCtj0XZoilSDb4np6ML1vXjI1tfKoVLBk1v/KVxU0GwwSGL4B1kfOMBrhFt1
judVbrHVk4vg6EQzdIXLYIkykh9Tp2Qx8J+gd82VFK+ooNiTlgWeAKP1twvA0M7v
YHgya5qt+WlQy2Z9BnZ0Cu/RehpAKOtcqCGBkGbcvczLY0pgBzj1g9qS1gLh76BG
MY08FSMuVDQw99f7N9GcQ6mIVjR31IvQDqXrjLKK4iBHnfeS8VLx/hgmX4pIROXA
Fm5PyFOUFn4VmF0mM7RjvfTtIdFQ5mNcBpk8zH5pQHNTUqVgPmcd3Y5q2kiYisyg
+gWLGLR9uUrfUlWVeMurYWLKSwIDAQABoygwJjAOBgNVHQ8BAf8EBAMCACAwFAYD
VR0gBA0wCzAJBgdngQwBBQIBMAoGCCqGSM49BAMCA0kAMEYCIQDhELsHtZvZ5cGy
TaYp7F25K6Jen5pboQ3Zdt9Z/7nv8wIhAJecfTP31YOwJNGzyE3NxoTZYir0aImY
GDeeT+c+57wE
-----END CERTIFICATE-----