Certificate:
    Data:
        Version: 3 (0x2)
        Serial Number: 3 (0x3)
        Signature Algorithm: ecdsa-with-SHA256
        Issuer: 
        Validity
            Not Before: Sep  2 00:00:00 2023 GMT
            Not After : Nov 30 00:00:00 9998 GMT
        Subject: 
        Subject Public Key Info:
            Public Key Algorithm: rsaEncryption
                RSA Public-Key: (2048 bit)
                Modulus:
                    00:e2:89:4c:9d:6b:19:06:70:1e:6e:3f:f1:83:cb:
                    00:8e:f1:ff:19:bc:e1:3f:d0:23:a3:0b:4c:aa:05:
                    2e:51:54:32:82:b3:d1:88:9a:d5:21:b2:96:92:20:
                    0d:51:c5:d4:43:fa:0a:4e:05:e3:90:64:0f:11:49:
                    82:ed:94:40:23:51:3a:34:04:59:9a:bf:49:36:bf:
                    bc:5c:b9:f8:0a:60:44:e9:13:67:6c:0a:1b:f5:d8:
                    6a:03:8a:1b:9a:20:d9:11:de:75:76:dd:a6:88:e3:
                    3a:d8:9b:af:ab:7f:ee:7a:5c:98:7a:06:e9:68:1f:
                    09:d1:f4:97:ea:91:19:9a:5b:5a:5d:52:04:d2:86:
                    67:f4:45:6a:31:a1:b1:6d:ab:99:62:55:f7:15:40:
                    a5:61:fa:27:e4:89:54:92:bb:e3:14:08:a4:e3:26:
                    99:62:29:58:44:78:cb:87:f6:4f:9a:14:1d:79:d3:
                    8d:a5:16:ef:1c:22:ea:a3:5a:1c:4f:de:9b:a8:c1:
                    70:5c:48:61:4e:d6:8f:f6:fe:cd:e9:b7:ab:b0:20:
                    ed:5b:7d:a1:76:de:9c:f6:6a:2c:3e:ca:dd:4f:dc:
                    10:9c:78:77:1d:68:98:4a:13:0e:f8:2c:0d:c8:fb:
                    24:24:4f:68:2c:a2:8f:62:57:06:7f:15:09:10:41:
                    d1:eb
                Exponent: 65537 (0x10001)
        X509v3 extensions:
            X509v3 Key Usage: critical
                Key Encipherment
            X509v3 Certificate Policies: 
                Policy: 2.23.140.1.5.1.3

    Signature Algorithm: ecdsa-with-SHA256
         30:46:02:21:00:c9:b1:2c:56:88:0c:cb:71:24:57:75:a8:52:
         8b:22:53:0a:67:3c:6e:11:02:7c:7c:de:f8:89:d3:b9:7f:8e:
         1a:02:21:00:ef:cf:ce:49:2c:e4:a5:54:b9:0f:23:c0:f1:4f:
         12:28:82:e4:2e:2a:ad:9d:e7:bc:f9:df:6b:dc:97:d1:6c:a8
-----BEGIN CERTIFICATE-----
MIIB5TCCAYqgAwIBAgIBAzAKBggqhkjOPQQDAjAAMCAXDTIzMDkwMjAwMDAwMFoY
Dzk5OTgxMTMwMDAwMDAwWjAAMIIBIjANBgkqhkiG9w0BAQEFAAOCAQ8AMIIBCgKC
AQEA4olMnWsZBnAebj/xg8sAjvH/GbzhP9AjowtMqgUuUVQygrPRiJrVIbKWkiAN
UcXUQ/oKTgXjkGQPEUmC7ZRAI1E6NARZmr9JNr+8XLn4CmBE6RNnbAob9dhqA4ob
miDZEd51dt2miOM62Juvq3/uelyYegbpaB8J0fSX6pEZmltaXVIE0oZn9EVqMaGx
bauZYlX3FUClYfon5IlUkrvjFAik4yaZYilYRHjLh/ZPmhQdedONpRbvHCLqo1oc
T96bqMFwXEhhTtaP9v7N6bersCDtW32hdt6c9mosPsrdT9wQnHh3HWiYShMO+CwN
yPskJE9oLKKPYlcGfxUJEEHR6wIDAQABoygwJjAOBgNVHQ8BAf8EBAMCACAwFAYD
VR0gBA0wCzAJBgdngQwBBQEDMAoGCCqGSM49BAMCA0kAMEYCIQDJsSxWiAzLcSRX
dahSiyJTCmc8bhECfHze+InTuX+OGgIhAO/Pzkks5KVUuQ8jwPFPEiiC5C4qrZ3n
vPnfa9yX0Wyo
-----END CERTIFICATE-----