Certificate:
    Data:
        Version: 3 (0x2)
        Serial Number: 3 (0x3)
        Signature Algorithm: ecdsa-with-SHA256
        Issuer: 
        Validity
            Not Before: Sep  2 00:00:00 2023 GMT
            Not After : Nov 30 00:00:00 9998 GMT
        Subject: 
        Subject Public Key Info:
            Public Key Algorithm: rsaEncryption
                RSA Public-Key: (2048 bit)
                Modulus:
                    00:9a:4d:a0:dc:96:72:37:99:54:08:c9:3b:c8:78:
                    5f:a6:ff:4a:95:e4:6c:28:24:76:20:65:69:b9:5e:
                    d9:5f:2a:89:f1:e9:18:3b:03:67:9c:bb:a8:21:15:
                    2b:1f:35:83:8c:1a:04:50:92:b2:21:0a:7d:74:13:
                    14:b3:aa:b4:ff:91:7e:34:0c:5d:b1:96:3b:e5:65:
                    5a:65:09:5e:55:95:08:e6:b0:be:7b:9b:f4:fe:16:
                    d7:e4:c0:0a:a5:f6:84:aa:09:41:57:1f:79:91:fc:
                    fd:a9:e3:80:87:c2:fc:5e:51:74:39:15:e7:ca:e5:
                    29:a0:3d:5e:98:26:e3:73:dc:0a:bb:f4:12:6f:4e:
                    f0:19:b6:82:40:c5:7f:4b:79:f6:d1:d7:44:f6:17:
                    f9:4d:01:36:b0:eb:6c:6b:96:74:18:cf:30:17:03:
                    81:68:80:9a:8a:d5:83:9e:57:b8:69:94:d2:d6:03:
                    93:38:67:51:eb:6e:bd:c5:17:05:b9:d7:0c:e3:6b:
                    0f:fe:41:02:fb:19:1b:fb:0d:5b:6d:ee:21:6e:4c:
                    1b:6d:51:c1:4b:b4:b2:66:dc:1a:67:4b:db:a4:ba:
                    6a:9c:ad:d9:db:ec:87:7a:c3:73:da:7c:a9:12:62:
                    5f:2d:64:59:b3:f7:9a:07:40:68:9a:95:b4:1a:fb:
                    79:03
                Exponent: 65537 (0x10001)
        X509v3 extensions:
            X509v3 Key Usage: critical
                Digital Signature, Non Repudiation
            X509v3 Certificate Policies: 
                Policy: 2.23.140.1.5.1.2

    Signature Algorithm: ecdsa-with-SHA256
         30:45:02:21:00:8d:16:49:a8:b0:84:66:e0:fd:59:4e:c5:c2:
         9f:51:c1:b8:53:ea:28:ed:e5:98:09:c1:67:ea:ec:90:90:05:
         b1:02:20:46:fb:f8:7b:e1:48:15:ec:c3:54:6d:3f:56:65:bb:
         e9:7a:50:0c:39:08:31:c9:9c:a3:f6:63:63:57:ec:a4:f8
-----BEGIN CERTIFICATE-----
MIIB5DCCAYqgAwIBAgIBAzAKBggqhkjOPQQDAjAAMCAXDTIzMDkwMjAwMDAwMFoY
Dzk5OTgxMTMwMDAwMDAwWjAAMIIBIjANBgkqhkiG9w0BAQEFAAOCAQ8AMIIBCgKC
AQEAmk2g3JZyN5lUCMk7yHhfpv9KleRsKCR2IGVpuV7ZXyqJ8ekYOwNnnLuoIRUr
HzWDjBoEUJKyIQp9dBMUs6q0/5F+NAxdsZY75WVaZQleVZUI5rC+e5v0/hbX5MAK
pfaEqglBVx95kfz9qeOAh8L8XlF0ORXnyuUpoD1emCbjc9wKu/QSb07wGbaCQMV/
S3n20ddE9hf5TQE2sOtsa5Z0GM8wFwOBaICaitWDnle4aZTS1gOTOGdR6269xRcF
udcM42sP/kEC+xkb+w1bbe4hbkwbbVHBS7SyZtwaZ0vbpLpqnK3Z2+yHesNz2nyp
EmJfLWRZs/eaB0BompW0Gvt5AwIDAQABoygwJjAOBgNVHQ8BAf8EBAMCAMAwFAYD
VR0gBA0wCzAJBgdngQwBBQECMAoGCCqGSM49BAMCA0gAMEUCIQCNFkmosIRm4P1Z
TsXCn1HBuFPqKO3lmAnBZ+rskJAFsQIgRvv4e+FIFezDVG0/VmW76XpQDDkIMcmc
o/ZjY1fspPg=
-----END CERTIFICATE-----