Certificate:
    Data:
        Version: 3 (0x2)
        Serial Number: 3 (0x3)
        Signature Algorithm: ecdsa-with-SHA256
        Issuer: 
        Validity
            Not Before: Sep  2 00:00:00 2023 GMT
            Not After : Nov 30 00:00:00 9998 GMT
        Subject: 
        Subject Public Key Info:
            Public Key Algorithm: rsaEncryption
                RSA Public-Key: (2048 bit)
                Modulus:
                    00:b6:6d:e4:2a:df:99:4b:71:b8:55:38:58:08:f7:
                    d0:cd:99:38:77:02:d3:51:0a:b7:28:4a:f7:5f:e6:
                    68:62:65:34:91:17:9e:06:d5:e9:a8:b7:a9:1b:84:
                    d3:70:cc:c4:78:73:16:63:8d:71:a0:58:21:c0:eb:
                    3a:8a:e0:5a:1b:aa:fb:16:a6:c7:c3:15:e9:7e:76:
                    b5:ba:6e:64:f7:df:9b:eb:51:b1:78:7e:f0:03:87:
                    7d:42:82:7b:40:5d:b9:78:70:80:a3:60:72:a4:20:
                    3e:b3:cf:a8:df:ed:75:10:1c:c3:2f:2a:67:84:ac:
                    5d:69:a9:17:45:9b:8a:e7:9d:0a:a5:fc:b9:50:29:
                    4f:25:a4:b4:cf:4d:c7:5e:6a:96:d1:e8:b7:47:52:
                    e2:26:f6:a0:7b:9c:5b:47:aa:dc:60:e5:86:ae:bd:
                    b9:9a:59:c4:e9:86:c1:fd:ae:94:a2:70:29:92:00:
                    fa:68:24:9c:ae:2a:a6:3e:79:f7:98:97:4f:63:dc:
                    3d:33:32:e5:f0:5b:ff:66:fe:06:a6:21:53:65:2f:
                    b2:9b:5c:f3:6e:10:65:87:71:40:46:48:19:2e:ee:
                    0f:06:09:4c:1c:88:50:47:93:07:c4:ef:a9:fd:38:
                    48:88:73:62:04:f0:30:0d:61:56:7d:62:e1:49:3d:
                    bb:1f
                Exponent: 65537 (0x10001)
        X509v3 extensions:
            X509v3 Key Usage: critical
                Digital Signature, Certificate Sign
            X509v3 Certificate Policies: 
                Policy: 2.23.140.1.5.1.3

    Signature Algorithm: ecdsa-with-SHA256
         30:46:02:21:00:87:a1:e8:d1:2b:15:df:85:c5:3e:be:0a:0f:
         1b:18:e6:e3:be:f0:d4:f5:b4:70:58:42:ec:84:4a:dd:a9:ed:
         b6:02:21:00:c5:7f:6a:42:68:e2:06:13:d1:ec:f8:e2:c7:3f:
         de:d9:3b:78:05:9d:2c:0f:22:9a:68:92:07:10:0b:0a:bb:ba
-----BEGIN CERTIFICATE-----
MIIB5TCCAYqgAwIBAgIBAzAKBggqhkjOPQQDAjAAMCAXDTIzMDkwMjAwMDAwMFoY
Dzk5OTgxMTMwMDAwMDAwWjAAMIIBIjANBgkqhkiG9w0BAQEFAAOCAQ8AMIIBCgKC
AQEAtm3kKt+ZS3G4VThYCPfQzZk4dwLTUQq3KEr3X+ZoYmU0kReeBtXpqLepG4TT
cMzEeHMWY41xoFghwOs6iuBaG6r7FqbHwxXpfna1um5k99+b61GxeH7wA4d9QoJ7
QF25eHCAo2BypCA+s8+o3+11EBzDLypnhKxdaakXRZuK550Kpfy5UClPJaS0z03H
XmqW0ei3R1LiJvage5xbR6rcYOWGrr25mlnE6YbB/a6UonApkgD6aCScriqmPnn3
mJdPY9w9MzLl8Fv/Zv4GpiFTZS+ym1zzbhBlh3FARkgZLu4PBglMHIhQR5MHxO+p
/ThIiHNiBPAwDWFWfWLhST27HwIDAQABoygwJjAOBgNVHQ8BAf8EBAMCAIQwFAYD
VR0gBA0wCzAJBgdngQwBBQEDMAoGCCqGSM49BAMCA0kAMEYCIQCHoejRKxXfhcU+
vgoPGxjm477w1PW0cFhC7IRK3anttgIhAMV/akJo4gYT0ez44sc/3tk7eAWdLA8i
mmiSBxALCru6
-----END CERTIFICATE-----