Certificate:
    Data:
        Version: 3 (0x2)
        Serial Number: 3 (0x3)
        Signature Algorithm: ecdsa-with-SHA256
        Issuer: 
        Validity
            Not Before: Sep  2 00:00:00 2023 GMT
            Not After : Nov 30 00:00:00 9998 GMT
        Subject: 
        Subject Public Key Info:
            Public Key Algorithm: rsaEncryption
                RSA Public-Key: (2048 bit)
                Modulus:
                    00:d3:53:24:0f:13:92:20:33:5d:40:77:fb:ac:2b:
                    8a:9d:78:60:8e:1a:e0:29:16:32:29:60:5c:01:15:
                    c6:83:0b:8d:77:d8:23:0b:b1:b5:2a:b0:71:cf:39:
                    d6:51:1f:54:25:30:88:f2:b5:7b:8c:f7:ba:08:a5:
                    fb:c3:bc:52:1a:f6:ae:1d:71:0b:2a:16:ff:81:56:
                    69:88:3c:2d:74:d8:e0:c1:74:ab:e9:b7:fc:ea:c4:
                    53:39:7b:3a:a5:d2:de:d9:8b:4e:0d:23:81:fb:c8:
                    aa:87:ff:5a:c0:98:e3:02:a5:fb:e8:19:28:0e:9a:
                    b2:3f:e7:e8:27:06:1b:34:94:9b:38:e9:96:73:20:
                    e5:f0:a9:2a:3b:4f:6e:f9:cc:40:18:a9:8c:f1:1d:
                    5c:92:16:45:e9:67:5e:41:f3:a4:81:f1:28:0f:ad:
                    40:a3:2d:b9:36:6c:d0:ff:37:7f:9e:a2:9b:25:6e:
                    37:7b:1e:b3:76:f9:4d:5a:bb:bf:65:f8:1b:31:93:
                    d0:04:a2:50:21:21:11:7c:54:9e:a6:bc:b8:47:e2:
                    60:ba:0f:fb:d7:5a:3b:2d:5a:37:11:a9:48:6f:88:
                    b2:b7:4a:e6:ea:db:27:cd:c6:0d:e1:17:42:58:f5:
                    2b:a0:43:7a:0a:6c:04:37:5b:58:ac:14:46:25:c0:
                    59:cf
                Exponent: 65537 (0x10001)
        X509v3 extensions:
            X509v3 Key Usage: critical
                Digital Signature, Key Encipherment, Certificate Sign
            X509v3 Certificate Policies: 
                Policy: 2.23.140.1.5.1.3

    Signature Algorithm: ecdsa-with-SHA256
         30:45:02:20:74:e1:1f:02:b9:c3:b7:96:1a:bd:3b:4e:f8:db:
         dd:a0:1a:ca:2f:73:cd:79:2c:c5:b6:20:75:4c:5a:f4:72:3a:
         02:21:00:dd:e6:cd:f0:b5:ad:26:78:eb:9f:1f:c9:d2:65:c6:
         27:c3:8d:c2:7a:67:b0:ec:cc:44:db:76:46:b0:b3:2d:d0
-----BEGIN CERTIFICATE-----
MIIB5DCCAYqgAwIBAgIBAzAKBggqhkjOPQQDAjAAMCAXDTIzMDkwMjAwMDAwMFoY
Dzk5OTgxMTMwMDAwMDAwWjAAMIIBIjANBgkqhkiG9w0BAQEFAAOCAQ8AMIIBCgKC
AQEA01MkDxOSIDNdQHf7rCuKnXhgjhrgKRYyKWBcARXGgwuNd9gjC7G1KrBxzznW
UR9UJTCI8rV7jPe6CKX7w7xSGvauHXELKhb/gVZpiDwtdNjgwXSr6bf86sRTOXs6
pdLe2YtODSOB+8iqh/9awJjjAqX76BkoDpqyP+foJwYbNJSbOOmWcyDl8KkqO09u
+cxAGKmM8R1ckhZF6WdeQfOkgfEoD61Aoy25NmzQ/zd/nqKbJW43ex6zdvlNWru/
ZfgbMZPQBKJQISERfFSepry4R+Jgug/711o7LVo3EalIb4iyt0rm6tsnzcYN4RdC
WPUroEN6CmwEN1tYrBRGJcBZzwIDAQABoygwJjAOBgNVHQ8BAf8EBAMCAKQwFAYD
VR0gBA0wCzAJBgdngQwBBQEDMAoGCCqGSM49BAMCA0gAMEUCIHThHwK5w7eWGr07
Tvjb3aAayi9zzXksxbYgdUxa9HI6AiEA3ebN8LWtJnjrnx/J0mXGJ8ONwnpnsOzM
RNt2RrCzLdA=
-----END CERTIFICATE-----