Certificate:
    Data:
        Version: 3 (0x2)
        Serial Number: 3 (0x3)
        Signature Algorithm: ecdsa-with-SHA256
        Issuer: 
        Validity
            Not Before: Sep  2 00:00:00 2023 GMT
            Not After : Nov 30 00:00:00 9998 GMT
        Subject: 
        Subject Public Key Info:
            Public Key Algorithm: rsaEncryption
                RSA Public-Key: (2048 bit)
                Modulus:
                    00:c3:50:d7:fd:6c:cf:ff:83:05:c2:8e:74:52:cc:
                    ec:1f:0a:2b:78:c1:00:e2:e6:bb:36:e9:f6:ee:13:
                    75:79:f0:3f:53:5b:e6:58:10:de:a2:0f:d0:40:d2:
                    48:ee:ac:59:47:71:4a:0b:c6:46:5a:f7:05:7b:a3:
                    fa:f0:a9:03:e7:70:df:49:61:9f:3a:77:2e:ad:fb:
                    ba:34:75:8a:07:22:50:56:ae:cb:dd:c1:b8:5f:dc:
                    f7:1d:d4:a5:d1:73:ac:6c:97:db:26:58:07:25:3f:
                    0f:7f:d2:81:61:d4:32:47:f1:3b:3c:eb:e7:26:63:
                    58:a9:15:80:09:09:09:64:89:24:5b:fd:a6:95:07:
                    89:31:a3:53:7a:75:0d:95:47:a2:37:2c:a3:b7:f1:
                    39:5b:5e:ab:14:99:09:f6:b1:09:04:43:c1:1f:ea:
                    f7:0f:e6:7a:13:25:26:11:26:23:ad:6c:e1:f7:63:
                    b8:dd:f0:7f:85:27:4e:36:80:31:6f:25:c2:d6:a8:
                    41:30:8f:ef:46:9d:36:47:05:50:16:f8:ce:21:59:
                    c5:93:de:b6:74:b0:c7:3b:39:1b:f3:04:14:82:cf:
                    86:56:36:ae:bd:95:bd:3b:e2:21:07:0d:4f:34:7d:
                    07:42:cc:76:d0:f7:b3:63:1a:e8:1b:e9:f7:0e:d5:
                    9b:1d
                Exponent: 65537 (0x10001)
        X509v3 extensions:
            X509v3 Key Usage: critical
                Certificate Sign
            X509v3 Certificate Policies: 
                Policy: 2.23.140.1.5.1.3

    Signature Algorithm: ecdsa-with-SHA256
         30:45:02:21:00:aa:c4:cc:1b:c2:b0:78:71:fd:76:8c:55:f8:
         85:b9:ef:47:ed:7a:7f:31:87:73:1b:9e:c4:c2:c6:6f:52:42:
         91:02:20:2b:e6:2b:48:e1:ef:a5:69:00:39:39:82:00:87:fe:
         1e:aa:15:dc:63:72:6c:73:68:38:26:7a:47:fd:c9:d3:ac
-----BEGIN CERTIFICATE-----
MIIB5DCCAYqgAwIBAgIBAzAKBggqhkjOPQQDAjAAMCAXDTIzMDkwMjAwMDAwMFoY
Dzk5OTgxMTMwMDAwMDAwWjAAMIIBIjANBgkqhkiG9w0BAQEFAAOCAQ8AMIIBCgKC
AQEAw1DX/WzP/4MFwo50UszsHworeMEA4ua7Nun27hN1efA/U1vmWBDeog/QQNJI
7qxZR3FKC8ZGWvcFe6P68KkD53DfSWGfOncurfu6NHWKByJQVq7L3cG4X9z3HdSl
0XOsbJfbJlgHJT8Pf9KBYdQyR/E7POvnJmNYqRWACQkJZIkkW/2mlQeJMaNTenUN
lUeiNyyjt/E5W16rFJkJ9rEJBEPBH+r3D+Z6EyUmESYjrWzh92O43fB/hSdONoAx
byXC1qhBMI/vRp02RwVQFvjOIVnFk962dLDHOzkb8wQUgs+GVjauvZW9O+IhBw1P
NH0HQsx20PezYxroG+n3DtWbHQIDAQABoygwJjAOBgNVHQ8BAf8EBAMCAAQwFAYD
VR0gBA0wCzAJBgdngQwBBQEDMAoGCCqGSM49BAMCA0gAMEUCIQCqxMwbwrB4cf12
jFX4hbnvR+16fzGHcxuexMLGb1JCkQIgK+YrSOHvpWkAOTmCAIf+HqoV3GNybHNo
OCZ6R/3J06w=
-----END CERTIFICATE-----