Certificate:
    Data:
        Version: 3 (0x2)
        Serial Number: 3 (0x3)
        Signature Algorithm: ecdsa-with-SHA256
        Issuer: 
        Validity
            Not Before: Sep  2 00:00:00 2023 GMT
            Not After : Nov 30 00:00:00 9998 GMT
        Subject: 
        Subject Public Key Info:
            Public Key Algorithm: rsaEncryption
                RSA Public-Key: (2048 bit)
                Modulus:
                    00:dc:c3:cf:83:4f:1e:1d:b7:4e:66:6e:15:82:99:
                    d2:7b:b4:0b:da:b2:0c:e6:c7:34:92:c7:74:6d:b4:
                    c9:52:34:1a:0e:0c:90:4f:7d:21:e4:c5:0a:d9:93:
                    1f:b1:2d:82:70:30:80:83:4a:e9:10:a0:ca:45:53:
                    a4:f9:cf:47:3a:88:e9:9b:49:c1:1b:8e:be:de:f7:
                    0a:4a:71:ae:e4:be:f4:dd:3b:8a:4f:58:99:59:01:
                    b8:f1:76:30:28:a0:9e:0b:13:7e:fc:0c:0e:86:9d:
                    12:05:ad:6d:5e:43:44:ed:0a:e2:54:e1:9b:b9:db:
                    06:76:fc:dc:35:de:2d:5f:0f:db:8b:fa:db:e0:a2:
                    bd:7f:a9:10:d5:18:8b:2d:ac:67:1c:63:72:8a:9c:
                    e8:aa:4f:e4:e8:79:96:ec:df:fc:60:f1:16:93:7f:
                    59:a2:0b:0a:8e:69:1e:73:44:20:56:9c:72:97:ed:
                    b5:56:60:4c:9d:09:de:f8:8a:35:9c:6b:de:db:86:
                    04:af:c8:39:33:85:0e:55:f9:ee:2b:6d:82:2e:1e:
                    21:3e:a6:21:4a:fd:6e:6e:28:be:2d:6d:3e:5e:f7:
                    fe:d5:b4:35:5d:19:eb:74:c8:d5:5b:39:5e:1b:e8:
                    b0:93:f7:8a:6c:91:26:a0:d0:a3:ad:ad:85:dd:39:
                    5d:9f
                Exponent: 65537 (0x10001)
        X509v3 extensions:
            X509v3 Key Usage: critical
                Digital Signature, Key Encipherment, Certificate Sign
            X509v3 Certificate Policies: 
                Policy: 2.23.140.1.5.1.1

    Signature Algorithm: ecdsa-with-SHA256
         30:44:02:20:50:f2:96:36:3a:7b:4d:46:eb:7a:cf:3c:6a:80:
         74:67:04:56:85:ee:08:0e:ba:cc:47:bc:49:65:27:5f:80:c2:
         02:20:2d:bf:56:45:e4:11:88:4e:6c:09:58:52:1d:7c:92:d7:
         2d:a8:28:b1:63:52:e4:3f:9c:e5:1e:c5:52:ed:96:ee
-----BEGIN CERTIFICATE-----
MIIB4zCCAYqgAwIBAgIBAzAKBggqhkjOPQQDAjAAMCAXDTIzMDkwMjAwMDAwMFoY
Dzk5OTgxMTMwMDAwMDAwWjAAMIIBIjANBgkqhkiG9w0BAQEFAAOCAQ8AMIIBCgKC
AQEA3MPPg08eHbdOZm4VgpnSe7QL2rIM5sc0ksd0bbTJUjQaDgyQT30h5MUK2ZMf
sS2CcDCAg0rpEKDKRVOk+c9HOojpm0nBG46+3vcKSnGu5L703TuKT1iZWQG48XYw
KKCeCxN+/AwOhp0SBa1tXkNE7QriVOGbudsGdvzcNd4tXw/bi/rb4KK9f6kQ1RiL
LaxnHGNyipzoqk/k6HmW7N/8YPEWk39ZogsKjmkec0QgVpxyl+21VmBMnQne+Io1
nGve24YEr8g5M4UOVfnuK22CLh4hPqYhSv1ubii+LW0+Xvf+1bQ1XRnrdMjVWzle
G+iwk/eKbJEmoNCjra2F3TldnwIDAQABoygwJjAOBgNVHQ8BAf8EBAMCAKQwFAYD
VR0gBA0wCzAJBgdngQwBBQEBMAoGCCqGSM49BAMCA0cAMEQCIFDyljY6e01G63rP
PGqAdGcEVoXuCA66zEe8SWUnX4DCAiAtv1ZF5BGITmwJWFIdfJLXLagosWNS5D+c
5R7FUu2W7g==
-----END CERTIFICATE-----