Certificate:
    Data:
        Version: 3 (0x2)
        Serial Number: 3 (0x3)
        Signature Algorithm: ecdsa-with-SHA256
        Issuer: 
        Validity
            Not Before: Sep  2 00:00:00 2023 GMT
            Not After : Nov 30 00:00:00 9998 GMT
        Subject: 
        Subject Public Key Info:
            Public Key Algorithm: rsaEncryption
                RSA Public-Key: (2048 bit)
                Modulus:
                    00:b8:07:83:0c:f2:91:6e:63:d7:e3:00:2d:6c:35:
                    2b:c6:f3:9b:d9:0e:24:ba:86:4d:f3:74:8b:bc:59:
                    72:03:13:26:f2:8a:ea:fb:ef:de:9e:25:9a:cc:a0:
                    86:cb:19:6b:c0:de:a4:38:29:6b:a4:13:f0:94:77:
                    c6:6d:72:05:84:eb:63:86:7f:c7:36:c6:c0:51:10:
                    ec:b7:68:68:8e:02:24:be:1b:da:89:a1:e5:e7:c5:
                    66:6d:31:77:56:19:21:5c:d7:10:b9:0a:52:6d:bf:
                    49:4f:e6:bb:5a:09:14:2f:14:8c:de:76:8e:71:57:
                    49:c1:93:cb:7d:79:b8:e6:cb:18:c3:3a:54:e3:16:
                    97:40:b8:90:b2:4f:5a:a8:00:42:0e:66:34:f7:53:
                    2b:02:aa:16:82:fc:65:01:08:2c:fd:26:ca:dc:25:
                    d5:8d:a0:e4:1c:36:94:a6:69:23:d6:de:5e:3a:06:
                    c1:df:05:4f:aa:b0:cd:60:e2:12:09:6c:3c:01:37:
                    d5:ef:9a:99:7e:70:7f:17:72:bf:71:85:31:0b:6c:
                    8c:e5:01:f4:89:10:4e:9e:ff:7e:6a:a4:55:2f:55:
                    b7:5c:ac:c9:9d:ab:e8:5a:6d:14:50:87:a5:94:98:
                    91:97:92:4e:6d:06:ff:32:0c:e6:1a:e8:d0:27:66:
                    a8:bb
                Exponent: 65537 (0x10001)
        X509v3 extensions:
            X509v3 Key Usage: critical
                Digital Signature, Non Repudiation
            X509v3 Certificate Policies: 
                Policy: 2.23.140.1.5.1.3

    Signature Algorithm: ecdsa-with-SHA256
         30:44:02:20:3f:43:91:e6:4c:fb:e8:81:8f:78:59:b4:dc:ff:
         b2:68:1e:10:37:0d:54:e6:9b:b0:b2:69:c7:4a:05:fe:2c:33:
         02:20:43:ee:ed:75:62:e6:ca:e5:17:c1:8f:46:82:e8:a3:2f:
         85:6a:ac:b9:9e:c5:61:23:1c:cb:59:d1:8e:48:da:f8
-----BEGIN CERTIFICATE-----
MIIB4zCCAYqgAwIBAgIBAzAKBggqhkjOPQQDAjAAMCAXDTIzMDkwMjAwMDAwMFoY
Dzk5OTgxMTMwMDAwMDAwWjAAMIIBIjANBgkqhkiG9w0BAQEFAAOCAQ8AMIIBCgKC
AQEAuAeDDPKRbmPX4wAtbDUrxvOb2Q4kuoZN83SLvFlyAxMm8orq++/eniWazKCG
yxlrwN6kOClrpBPwlHfGbXIFhOtjhn/HNsbAURDst2hojgIkvhvaiaHl58VmbTF3
VhkhXNcQuQpSbb9JT+a7WgkULxSM3naOcVdJwZPLfXm45ssYwzpU4xaXQLiQsk9a
qABCDmY091MrAqoWgvxlAQgs/SbK3CXVjaDkHDaUpmkj1t5eOgbB3wVPqrDNYOIS
CWw8ATfV75qZfnB/F3K/cYUxC2yM5QH0iRBOnv9+aqRVL1W3XKzJnavoWm0UUIel
lJiRl5JObQb/MgzmGujQJ2aouwIDAQABoygwJjAOBgNVHQ8BAf8EBAMCAMAwFAYD
VR0gBA0wCzAJBgdngQwBBQEDMAoGCCqGSM49BAMCA0cAMEQCID9DkeZM++iBj3hZ
tNz/smgeEDcNVOabsLJpx0oF/iwzAiBD7u11YubK5RfBj0aC6KMvhWqsuZ7FYSMc
y1nRjkja+A==
-----END CERTIFICATE-----