-------------Leaf-------------
Certificate:
    Data:
        Version: 3 (0x2)
        Serial Number: 3 (0x3)
        Signature Algorithm: ecdsa-with-SHA256
        Issuer: 
        Validity
            Not Before: Sep  2 00:00:00 2023 GMT
            Not After : Nov 30 00:00:00 9998 GMT
        Subject: 
        Subject Public Key Info:
            Public Key Algorithm: rsaEncryption
                RSA Public-Key: (2048 bit)
                Modulus:
                    00:af:30:a4:d5:84:42:74:29:1a:e9:f8:ff:1c:fd:
                    a0:37:89:50:8a:30:cd:4f:7a:ca:a1:4f:15:f0:c3:
                    8d:f1:91:b9:59:c5:7f:8b:bd:0a:a7:b3:51:b7:69:
                    da:47:f9:f7:c6:cc:19:99:86:4c:98:92:69:7d:63:
                    9c:2f:bc:7a:64:f5:6f:1b:67:23:a0:29:df:a6:75:
                    b1:4c:a5:ae:0e:a2:20:f1:4f:2a:71:08:13:83:36:
                    d9:ae:2f:a9:02:75:3e:82:c0:71:30:b7:88:f3:c7:
                    ca:c4:fe:85:98:d3:b1:32:37:a2:67:15:97:3e:ea:
                    59:40:11:97:c1:42:7a:11:af:9e:cb:29:2b:16:44:
                    bf:63:6e:b6:1a:5b:6b:79:50:47:a3:df:12:2f:99:
                    bd:34:e6:75:b8:82:b4:d5:bc:7c:07:9a:df:9f:07:
                    93:f0:57:72:e4:8d:7c:4c:36:81:6c:8f:33:57:5e:
                    60:90:13:23:5f:04:07:56:13:29:0a:eb:7c:4e:5d:
                    36:3c:46:a8:eb:ee:7e:85:ff:27:d9:9c:1b:86:44:
                    a6:e1:3d:4f:a9:9e:a9:58:6c:33:00:c6:04:31:d9:
                    cb:bd:91:88:b1:39:6d:e2:05:19:18:a9:9a:43:26:
                    8c:0a:27:a8:88:74:85:80:25:2a:af:bc:2c:2e:d0:
                    73:6f
                Exponent: 65537 (0x10001)
        X509v3 extensions:
            X509v3 Key Usage: critical
                Digital Signature
            X509v3 Certificate Policies: 
                Policy: 2.23.140.1.5.1.3

    Signature Algorithm: ecdsa-with-SHA256
         30:46:02:21:00:ec:31:80:3c:fd:9d:46:ff:e4:2e:7c:d7:02:
         fb:a7:65:37:56:d3:16:aa:02:55:c8:43:ae:45:03:7a:85:3a:
         a4:02:21:00:81:69:4b:33:3e:76:8d:a3:8a:f2:ae:a4:59:fe:
         a7:4c:1a:a3:a7:45:58:a6:25:bc:d6:53:49:00:e3:60:9c:3d
-----BEGIN CERTIFICATE-----
MIIB5TCCAYqgAwIBAgIBAzAKBggqhkjOPQQDAjAAMCAXDTIzMDkwMjAwMDAwMFoY
Dzk5OTgxMTMwMDAwMDAwWjAAMIIBIjANBgkqhkiG9w0BAQEFAAOCAQ8AMIIBCgKC
AQEArzCk1YRCdCka6fj/HP2gN4lQijDNT3rKoU8V8MON8ZG5WcV/i70Kp7NRt2na
R/n3xswZmYZMmJJpfWOcL7x6ZPVvG2cjoCnfpnWxTKWuDqIg8U8qcQgTgzbZri+p
AnU+gsBxMLeI88fKxP6FmNOxMjeiZxWXPupZQBGXwUJ6Ea+eyykrFkS/Y262Gltr
eVBHo98SL5m9NOZ1uIK01bx8B5rfnweT8Fdy5I18TDaBbI8zV15gkBMjXwQHVhMp
Cut8Tl02PEao6+5+hf8n2ZwbhkSm4T1PqZ6pWGwzAMYEMdnLvZGIsTlt4gUZGKma
QyaMCieoiHSFgCUqr7wsLtBzbwIDAQABoygwJjAOBgNVHQ8BAf8EBAMCAIAwFAYD
VR0gBA0wCzAJBgdngQwBBQEDMAoGCCqGSM49BAMCA0kAMEYCIQDsMYA8/Z1G/+Qu
fNcC+6dlN1bTFqoCVchDrkUDeoU6pAIhAIFpSzM+do2jivKupFn+p0wao6dFWKYl
vNZTSQDjYJw9
-----END CERTIFICATE-----