Certificate:
    Data:
        Version: 3 (0x2)
        Serial Number: 3 (0x3)
        Signature Algorithm: ecdsa-with-SHA256
        Issuer: 
        Validity
            Not Before: Sep  2 00:00:00 2023 GMT
            Not After : Nov 30 00:00:00 9998 GMT
        Subject: 
        Subject Public Key Info:
            Public Key Algorithm: rsaEncryption
                RSA Public-Key: (2048 bit)
                Modulus:
                    00:c7:fa:f2:92:71:49:4d:43:0a:ba:3b:e2:60:05:
                    40:59:b4:78:97:49:15:0d:f4:c8:ba:07:17:a0:99:
                    88:fd:b6:30:1c:73:a4:80:c5:43:da:96:69:66:a4:
                    3c:af:db:36:1f:85:db:f1:4c:a7:b1:3c:d8:b7:57:
                    cd:20:8d:b6:bf:90:cf:c6:89:fd:e1:e2:48:2e:7f:
                    be:81:87:75:48:77:cc:d1:ee:f8:d9:56:f8:f2:73:
                    c5:b3:a3:df:0f:b2:df:e9:97:39:dd:7e:34:32:b5:
                    63:db:0d:1b:aa:fc:72:6e:36:29:bb:da:9e:56:54:
                    bb:72:ff:c6:a4:b8:b5:32:d1:98:c3:8d:6c:06:85:
                    03:c9:71:40:fb:64:be:c2:93:f7:b7:2c:7b:37:e9:
                    40:20:3c:a0:7d:ba:ba:c4:ac:17:4e:f1:12:e4:1a:
                    f0:95:48:27:c3:b1:f3:51:35:f6:2d:40:50:83:8b:
                    fc:32:03:33:0d:4a:66:2d:65:d0:ef:95:bf:fe:75:
                    4d:13:b9:5e:2e:3d:ae:97:d1:39:73:23:f9:ba:48:
                    19:4f:49:3c:3b:81:48:f7:39:59:1b:c5:41:3c:e2:
                    cf:bf:0f:5e:a4:c9:5a:ee:37:27:67:26:12:46:4a:
                    2e:7f:09:ef:ad:ca:f5:d9:ea:3a:bc:5b:43:af:ec:
                    83:d3
                Exponent: 65537 (0x10001)
        X509v3 extensions:
            X509v3 Key Usage: critical
                Digital Signature, Non Repudiation, Key Encipherment, Data Encipherment
            X509v3 Certificate Policies: 
                Policy: 2.23.140.1.5.3.1

    Signature Algorithm: ecdsa-with-SHA256
         30:45:02:20:53:ad:0e:19:fa:8d:60:43:79:31:68:81:4a:fc:
         04:65:9c:dc:6e:3b:d1:50:df:59:ba:eb:f6:7d:a8:6f:23:fa:
         02:21:00:cb:46:68:e2:ba:d9:7c:90:65:03:cf:d5:da:46:55:
         cd:82:5e:1f:8d:6e:67:d4:89:02:b0:4d:1a:13:cc:7b:03
-----BEGIN CERTIFICATE-----
MIIB5DCCAYqgAwIBAgIBAzAKBggqhkjOPQQDAjAAMCAXDTIzMDkwMjAwMDAwMFoY
Dzk5OTgxMTMwMDAwMDAwWjAAMIIBIjANBgkqhkiG9w0BAQEFAAOCAQ8AMIIBCgKC
AQEAx/ryknFJTUMKujviYAVAWbR4l0kVDfTIugcXoJmI/bYwHHOkgMVD2pZpZqQ8
r9s2H4Xb8UynsTzYt1fNII22v5DPxon94eJILn++gYd1SHfM0e742Vb48nPFs6Pf
D7Lf6Zc53X40MrVj2w0bqvxybjYpu9qeVlS7cv/GpLi1MtGYw41sBoUDyXFA+2S+
wpP3tyx7N+lAIDygfbq6xKwXTvES5BrwlUgnw7HzUTX2LUBQg4v8MgMzDUpmLWXQ
75W//nVNE7leLj2ul9E5cyP5ukgZT0k8O4FI9zlZG8VBPOLPvw9epMla7jcnZyYS
Rkoufwnvrcr12eo6vFtDr+yD0wIDAQABoygwJjAOBgNVHQ8BAf8EBAMCAPAwFAYD
VR0gBA0wCzAJBgdngQwBBQMBMAoGCCqGSM49BAMCA0gAMEUCIFOtDhn6jWBDeTFo
gUr8BGWc3G470VDfWbrr9n2obyP6AiEAy0Zo4rrZfJBlA8/V2kZVzYJeH41uZ9SJ
ArBNGhPMewM=
-----END CERTIFICATE-----
