Certificate:
    Data:
        Version: 3 (0x2)
        Serial Number: 3 (0x3)
        Signature Algorithm: ecdsa-with-SHA256
        Issuer: 
        Validity
            Not Before: Aug  2 00:00:00 2023 GMT
            Not After : Nov 30 00:00:00 9998 GMT
        Subject: 
        Subject Public Key Info:
            Public Key Algorithm: rsaEncryption
                RSA Public-Key: (2048 bit)
                Modulus:
                    00:e0:9d:ef:99:d1:c5:1b:de:e8:04:24:ad:0e:21:
                    9b:38:82:a2:63:fc:45:ef:57:4b:58:e0:4e:dd:f1:
                    fe:5e:e9:fe:8a:05:63:a5:14:85:86:34:af:c4:95:
                    1c:1d:b2:5a:0b:09:e8:cb:ba:97:39:45:d6:47:6a:
                    d6:bb:8a:fd:7e:59:5f:53:3d:3c:b3:88:a3:43:ea:
                    ea:f5:4b:6f:6f:ad:dc:8c:e1:be:f8:4b:b4:41:e6:
                    46:f2:45:67:7c:4a:ca:61:cf:b2:c8:cf:f9:d2:50:
                    ce:be:e6:b1:ce:92:d3:14:e5:5d:77:a9:9f:4a:46:
                    35:27:ce:54:54:ae:2f:21:af:c9:64:a2:cf:e0:b8:
                    92:41:3c:40:cd:00:61:a7:91:0a:25:43:e9:c9:cb:
                    3e:33:a4:9a:6a:e4:f6:fe:68:a6:68:57:b6:e7:38:
                    17:42:b0:fc:f2:ac:4b:46:99:14:92:cb:ef:92:79:
                    9f:8b:f6:26:53:5b:bb:01:66:7b:f6:a2:ef:84:b1:
                    55:15:7c:0d:38:14:b5:60:63:9e:89:78:46:db:db:
                    63:2b:e9:41:3c:d1:fc:bd:2c:67:58:22:f3:41:8b:
                    f0:15:65:c5:91:73:2e:3a:a0:ed:10:ec:8f:1d:18:
                    a8:3d:57:5f:34:be:0c:f9:24:4f:40:da:34:a1:54:
                    13:cf
                Exponent: 65537 (0x10001)
        X509v3 extensions:
            X509v3 Key Usage: critical
                Key Encipherment, Data Encipherment
            X509v3 Certificate Policies: 
                Policy: 2.23.140.1.5.1.2

    Signature Algorithm: ecdsa-with-SHA256
         30:46:02:21:00:82:cd:ea:cd:c1:63:e5:c3:a4:c9:e0:b2:0d:
         3c:33:f4:9b:6b:a0:81:dc:b3:0c:0d:72:f5:25:67:27:51:10:
         50:02:21:00:9d:84:c7:d5:06:41:92:61:02:48:f8:3f:92:42:
         b8:07:a7:b0:a4:32:c7:63:96:59:65:8e:98:b0:7d:86:bd:80
-----BEGIN CERTIFICATE-----
MIIB5TCCAYqgAwIBAgIBAzAKBggqhkjOPQQDAjAAMCAXDTIzMDgwMjAwMDAwMFoY
Dzk5OTgxMTMwMDAwMDAwWjAAMIIBIjANBgkqhkiG9w0BAQEFAAOCAQ8AMIIBCgKC
AQEA4J3vmdHFG97oBCStDiGbOIKiY/xF71dLWOBO3fH+Xun+igVjpRSFhjSvxJUc
HbJaCwnoy7qXOUXWR2rWu4r9fllfUz08s4ijQ+rq9Utvb63cjOG++Eu0QeZG8kVn
fErKYc+yyM/50lDOvuaxzpLTFOVdd6mfSkY1J85UVK4vIa/JZKLP4LiSQTxAzQBh
p5EKJUPpycs+M6SaauT2/mimaFe25zgXQrD88qxLRpkUksvvknmfi/YmU1u7AWZ7
9qLvhLFVFXwNOBS1YGOeiXhG29tjK+lBPNH8vSxnWCLzQYvwFWXFkXMuOqDtEOyP
HRioPVdfNL4M+SRPQNo0oVQTzwIDAQABoygwJjAOBgNVHQ8BAf8EBAMCADAwFAYD
VR0gBA0wCzAJBgdngQwBBQECMAoGCCqGSM49BAMCA0kAMEYCIQCCzerNwWPlw6TJ
4LINPDP0m2uggdyzDA1y9SVnJ1EQUAIhAJ2Ex9UGQZJhAkj4P5JCuAensKQyx2OW
WWWOmLB9hr2A
-----END CERTIFICATE-----