Certificate:
    Data:
        Version: 3 (0x2)
        Serial Number: 3 (0x3)
        Signature Algorithm: ecdsa-with-SHA256
        Issuer: 
        Validity
            Not Before: Sep  2 00:00:00 2023 GMT
            Not After : Nov 30 00:00:00 9998 GMT
        Subject: 
        Subject Public Key Info:
            Public Key Algorithm: rsaEncryption
                RSA Public-Key: (2048 bit)
                Modulus:
                    00:b4:b0:1a:fd:58:b9:0b:d8:ef:00:aa:26:97:80:
                    1d:d1:22:23:83:fd:3b:c7:ab:df:11:9f:b6:02:a7:
                    16:3c:d4:f8:d8:5c:90:ee:60:0f:f7:03:4d:19:2a:
                    fe:ec:fe:f9:47:2e:06:69:15:a6:15:e9:ea:e4:bf:
                    3c:c1:5d:e1:96:53:1f:82:d1:b7:ea:b2:18:c5:16:
                    97:0a:ea:9b:f4:1e:bd:11:48:d8:05:8a:46:05:84:
                    97:2e:a6:6a:e5:3f:b9:a9:db:d3:b4:ee:c0:28:51:
                    93:09:8d:77:56:e5:f3:67:a2:db:17:14:50:a4:39:
                    9f:f1:9a:3a:56:e8:62:c3:14:fa:6d:96:ea:68:24:
                    a1:6c:a9:85:f7:d5:b7:cc:d6:9e:fa:3a:19:27:70:
                    a4:32:a2:dd:75:f6:e2:4c:6b:7a:7b:fa:33:79:ee:
                    42:cf:b8:1c:bc:f3:7b:19:92:e1:9e:37:de:b1:2b:
                    c3:f7:b7:d0:db:5e:45:b0:a0:4f:b2:69:81:79:2e:
                    50:55:c0:1c:46:96:f9:6b:7d:65:c5:c8:cf:90:e2:
                    a5:3c:1d:ef:55:8e:0f:dc:5e:31:b3:88:c9:c3:c3:
                    21:c6:16:12:ec:d1:08:2b:a1:65:21:9b:eb:a0:8e:
                    65:f3:70:00:1a:66:a9:f3:74:39:ba:56:9d:df:9b:
                    b5:35
                Exponent: 65537 (0x10001)
        X509v3 extensions:
            X509v3 Key Usage: critical
                Digital Signature
            X509v3 Certificate Policies: 
                Policy: 2.23.140.1.5.2.1

    Signature Algorithm: ecdsa-with-SHA256
         30:46:02:21:00:e5:37:ca:43:22:4a:96:c9:7c:77:fc:a2:83:
         26:a6:81:fd:5a:2a:b4:f2:3e:d9:73:04:c2:7b:05:26:55:d3:
         ee:02:21:00:a1:a0:d2:4d:74:b2:d6:7b:08:b1:b0:35:d8:12:
         4b:29:05:b0:19:b6:33:a5:a5:65:bd:1a:38:33:51:95:43:07
-----BEGIN CERTIFICATE-----
MIIB5TCCAYqgAwIBAgIBAzAKBggqhkjOPQQDAjAAMCAXDTIzMDkwMjAwMDAwMFoY
Dzk5OTgxMTMwMDAwMDAwWjAAMIIBIjANBgkqhkiG9w0BAQEFAAOCAQ8AMIIBCgKC
AQEAtLAa/Vi5C9jvAKoml4Ad0SIjg/07x6vfEZ+2AqcWPNT42FyQ7mAP9wNNGSr+
7P75Ry4GaRWmFenq5L88wV3hllMfgtG36rIYxRaXCuqb9B69EUjYBYpGBYSXLqZq
5T+5qdvTtO7AKFGTCY13VuXzZ6LbFxRQpDmf8Zo6VuhiwxT6bZbqaCShbKmF99W3
zNae+joZJ3CkMqLddfbiTGt6e/ozee5Cz7gcvPN7GZLhnjfesSvD97fQ215FsKBP
smmBeS5QVcAcRpb5a31lxcjPkOKlPB3vVY4P3F4xs4jJw8MhxhYS7NEIK6FlIZvr
oI5l83AAGmap83Q5ulad35u1NQIDAQABoygwJjAOBgNVHQ8BAf8EBAMCAIAwFAYD
VR0gBA0wCzAJBgdngQwBBQIBMAoGCCqGSM49BAMCA0kAMEYCIQDlN8pDIkqWyXx3
/KKDJqaB/VoqtPI+2XMEwnsFJlXT7gIhAKGg0k10stZ7CLGwNdgSSykFsBm2M6Wl
Zb0aODNRlUMH
-----END CERTIFICATE-----