Certificate:
    Data:
        Version: 3 (0x2)
        Serial Number: 3 (0x3)
        Signature Algorithm: ecdsa-with-SHA256
        Issuer: 
        Validity
            Not Before: Sep  2 00:00:00 2023 GMT
            Not After : Nov 30 00:00:00 9998 GMT
        Subject: 
        Subject Public Key Info:
            Public Key Algorithm: rsaEncryption
                RSA Public-Key: (2048 bit)
                Modulus:
                    00:bd:af:ac:89:ca:3a:fb:91:6a:57:f7:2e:de:55:
                    dd:7c:b1:13:64:d0:f6:26:05:59:64:f1:f8:29:0d:
                    dc:41:cd:12:8e:9f:79:b4:51:88:0b:b9:d8:d9:84:
                    f6:dc:42:c9:18:ed:90:fe:22:1f:2c:a2:2a:b3:a5:
                    3a:b4:c4:f7:73:36:7f:fd:fc:ae:40:36:9d:27:11:
                    0b:59:6c:ca:a4:d3:78:f9:c2:fa:97:dc:c3:41:f8:
                    91:f5:7d:9a:6f:63:7f:c2:29:8e:05:ac:93:ed:0f:
                    b4:02:26:0b:9c:f3:31:98:9e:c4:a3:04:94:af:de:
                    7f:1d:dc:22:fd:90:dd:0c:9b:5e:b4:04:e9:95:51:
                    af:99:e4:d0:21:5b:ce:c3:16:d3:d9:40:54:f7:a3:
                    9e:d2:10:03:3f:62:ab:84:26:98:73:af:fc:e0:68:
                    15:31:ee:f1:6f:41:25:42:ae:37:ef:91:fe:e1:7d:
                    55:de:76:79:13:9d:c2:73:06:3c:82:c7:3e:17:bb:
                    26:fa:74:70:f3:4d:b2:d5:cc:71:29:f1:81:b8:d1:
                    16:af:0f:aa:5a:d7:6a:3c:ce:bb:a6:31:d7:64:bf:
                    c9:11:5f:b8:aa:2f:ac:44:c7:a8:e1:c2:8d:5b:a7:
                    9d:a9:12:fc:58:da:1b:7f:11:19:e8:b8:07:ed:a3:
                    42:f7
                Exponent: 65537 (0x10001)
        X509v3 extensions:
            X509v3 Key Usage: critical
                ....
            X509v3 Certificate Policies: 
                Policy: 2.23.140.1.5.1.3

    Signature Algorithm: ecdsa-with-SHA256
         30:44:02:20:75:d4:9d:ab:37:38:c1:fd:56:ce:59:5a:ab:e9:
         32:cf:ae:c4:fe:4e:8f:0a:6b:3f:3b:59:bd:39:5f:b7:e4:e1:
         02:20:40:e6:33:ab:8c:74:06:4f:1f:0a:e1:f8:6a:2a:c2:8f:
         cd:88:16:1e:59:7b:f5:5d:05:a6:62:69:03:29:6b:4d
-----BEGIN CERTIFICATE-----
MIIB4zCCAYqgAwIBAgIBAzAKBggqhkjOPQQDAjAAMCAXDTIzMDkwMjAwMDAwMFoY
Dzk5OTgxMTMwMDAwMDAwWjAAMIIBIjANBgkqhkiG9w0BAQEFAAOCAQ8AMIIBCgKC
AQEAva+sico6+5FqV/cu3lXdfLETZND2JgVZZPH4KQ3cQc0Sjp95tFGIC7nY2YT2
3ELJGO2Q/iIfLKIqs6U6tMT3czZ//fyuQDadJxELWWzKpNN4+cL6l9zDQfiR9X2a
b2N/wimOBayT7Q+0AiYLnPMxmJ7EowSUr95/Hdwi/ZDdDJtetATplVGvmeTQIVvO
wxbT2UBU96Oe0hADP2KrhCaYc6/84GgVMe7xb0ElQq4375H+4X1V3nZ5E53CcwY8
gsc+F7sm+nRw802y1cxxKfGBuNEWrw+qWtdqPM67pjHXZL/JEV+4qi+sRMeo4cKN
W6edqRL8WNobfxEZ6LgH7aNC9wIDAQABoygwJjAOBgNVHQ8BAf8EBAMCAAAwFAYD
VR0gBA0wCzAJBgdngQwBBQEDMAoGCCqGSM49BAMCA0cAMEQCIHXUnas3OMH9Vs5Z
WqvpMs+uxP5OjwprPztZvTlft+ThAiBA5jOrjHQGTx8K4fhqKsKPzYgWHll79V0F
pmJpAylrTQ==
-----END CERTIFICATE-----