Certificate:
    Data:
        Version: 3 (0x2)
        Serial Number: 3 (0x3)
        Signature Algorithm: ecdsa-with-SHA256
        Issuer: 
        Validity
            Not Before: Sep  2 00:00:00 2023 GMT
            Not After : Nov 30 00:00:00 9998 GMT
        Subject: 
        Subject Public Key Info:
            Public Key Algorithm: rsaEncryption
                RSA Public-Key: (2048 bit)
                Modulus:
                    00:df:c6:cd:ba:60:f4:bc:b2:e9:da:5f:9a:a8:d3:
                    56:e7:e2:97:8d:95:c9:57:32:37:9f:30:06:09:55:
                    be:48:27:7c:95:71:7c:de:ea:b4:64:2a:42:3d:28:
                    99:e7:82:00:6c:04:25:a9:24:24:d4:d3:54:71:81:
                    5e:5c:02:48:4c:ea:3e:b1:71:b9:09:a6:66:25:52:
                    4a:44:4e:ba:90:bc:ad:39:03:cd:f8:c1:8e:6e:a7:
                    ae:cc:d9:b1:3d:6d:db:ce:b8:a1:c4:4f:0a:f3:ae:
                    a9:22:5e:d7:c7:7e:a2:58:32:d8:3c:84:17:ac:5f:
                    18:5e:e9:7c:17:5d:93:53:da:de:33:5a:65:66:1c:
                    01:74:6c:11:51:9e:ac:a6:df:36:4b:5a:16:15:3c:
                    94:93:1a:0f:c9:c4:d2:ae:06:96:cc:64:bb:cd:39:
                    6a:0c:ba:93:53:e0:06:44:a5:39:f7:d8:29:5b:e2:
                    0f:04:b9:32:c0:c4:b1:99:b7:72:4e:74:61:fa:65:
                    aa:95:6f:86:e9:7d:00:05:ec:f7:45:de:49:7f:98:
                    60:d6:5a:af:e3:2f:f8:b2:92:21:30:57:33:d5:48:
                    d0:b8:96:59:68:e1:f2:fd:3e:c8:fc:70:64:5b:34:
                    65:41:c9:47:e2:20:7f:d4:91:4c:5d:f3:d2:5d:6b:
                    ea:e3
                Exponent: 65537 (0x10001)
        X509v3 extensions:
            X509v3 Key Usage: critical
                Key Encipherment, Certificate Sign
            X509v3 Certificate Policies: 
                Policy: 2.23.140.1.5.1.2

    Signature Algorithm: ecdsa-with-SHA256
         30:43:02:20:4d:8d:e7:c7:6a:aa:99:13:f0:86:f4:4c:c9:8b:
         d8:42:ea:b8:04:8e:49:9f:c7:40:78:b9:e7:73:50:e9:ac:ee:
         02:1f:6e:9b:79:23:20:36:81:32:75:26:18:22:3d:e9:fe:ad:
         a7:80:3e:ed:14:b5:68:bf:36:95:01:b5:f2:54:47
-----BEGIN CERTIFICATE-----
MIIB4jCCAYqgAwIBAgIBAzAKBggqhkjOPQQDAjAAMCAXDTIzMDkwMjAwMDAwMFoY
Dzk5OTgxMTMwMDAwMDAwWjAAMIIBIjANBgkqhkiG9w0BAQEFAAOCAQ8AMIIBCgKC
AQEA38bNumD0vLLp2l+aqNNW5+KXjZXJVzI3nzAGCVW+SCd8lXF83uq0ZCpCPSiZ
54IAbAQlqSQk1NNUcYFeXAJITOo+sXG5CaZmJVJKRE66kLytOQPN+MGObqeuzNmx
PW3bzrihxE8K866pIl7Xx36iWDLYPIQXrF8YXul8F12TU9reM1plZhwBdGwRUZ6s
pt82S1oWFTyUkxoPycTSrgaWzGS7zTlqDLqTU+AGRKU599gpW+IPBLkywMSxmbdy
TnRh+mWqlW+G6X0ABez3Rd5Jf5hg1lqv4y/4spIhMFcz1UjQuJZZaOHy/T7I/HBk
WzRlQclH4iB/1JFMXfPSXWvq4wIDAQABoygwJjAOBgNVHQ8BAf8EBAMCACQwFAYD
VR0gBA0wCzAJBgdngQwBBQECMAoGCCqGSM49BAMCA0YAMEMCIE2N58dqqpkT8Ib0
TMmL2ELquASOSZ/HQHi553NQ6azuAh9um3kjIDaBMnUmGCI96f6tp4A+7RS1aL82
lQG18lRH
-----END CERTIFICATE-----