Certificate:
    Data:
        Version: 3 (0x2)
        Serial Number: 3 (0x3)
        Signature Algorithm: ecdsa-with-SHA256
        Issuer: 
        Validity
            Not Before: Sep  2 00:00:00 2023 GMT
            Not After : Nov 30 00:00:00 9998 GMT
        Subject: 
        Subject Public Key Info:
            Public Key Algorithm: rsaEncryption
                RSA Public-Key: (2048 bit)
                Modulus:
                    00:be:fc:90:ee:59:94:8b:0a:62:5b:1e:a6:2f:87:
                    6e:ad:dc:a3:64:eb:2f:ea:51:d4:00:3d:74:fb:c5:
                    d4:af:f1:61:a1:51:2a:b3:d2:df:f1:d1:6b:19:e6:
                    6b:f0:b1:42:5f:25:ec:83:f1:c1:61:1e:c2:05:c9:
                    b9:7c:93:fd:7c:3a:3f:0a:64:bb:3c:0d:cf:22:d8:
                    be:6e:42:50:9d:ec:2c:f3:ec:04:27:3a:6d:c2:91:
                    ec:80:66:3d:de:94:1b:05:73:aa:26:4c:95:d5:6b:
                    bc:fb:2a:2e:f1:51:21:3f:5f:96:7d:c7:4d:c9:5c:
                    4a:20:af:5e:85:59:35:5f:c8:99:5f:27:25:87:76:
                    06:7a:02:57:80:79:44:fd:c8:59:5b:e4:74:54:77:
                    67:2a:e4:9f:f3:91:c7:d0:77:96:9c:a6:8c:91:86:
                    15:f4:c4:9d:11:5e:b8:22:f3:e8:a5:e8:12:e7:8f:
                    b4:9b:22:55:80:85:33:7b:b4:84:a6:01:05:d7:4e:
                    22:b0:58:08:8c:47:96:c8:92:af:0d:9d:b0:5c:8c:
                    e2:21:57:10:df:06:f6:09:b8:c0:21:f4:c5:77:83:
                    c4:91:c0:8a:1f:b8:a8:a6:ee:49:c3:2a:5a:05:c9:
                    55:e1:f1:8e:34:63:bc:a1:02:35:89:66:7a:bf:af:
                    17:b3
                Exponent: 65537 (0x10001)
        X509v3 extensions:
            X509v3 Key Usage: critical
                Digital Signature, Non Repudiation, Key Encipherment
            X509v3 Certificate Policies: 
                Policy: 2.23.140.1.5.1.3

    Signature Algorithm: ecdsa-with-SHA256
         30:44:02:20:48:49:69:09:fd:23:b3:cc:36:59:bb:89:e9:b5:
         49:8b:cc:ec:b6:24:6d:a6:d3:9c:b7:f4:5c:bf:a2:e5:6d:f4:
         02:20:23:4e:40:9d:5b:92:63:9d:12:3e:54:3f:2e:83:da:18:
         49:62:38:da:25:43:60:8c:c1:c9:72:2a:0f:42:7a:eb
-----BEGIN CERTIFICATE-----
MIIB4zCCAYqgAwIBAgIBAzAKBggqhkjOPQQDAjAAMCAXDTIzMDkwMjAwMDAwMFoY
Dzk5OTgxMTMwMDAwMDAwWjAAMIIBIjANBgkqhkiG9w0BAQEFAAOCAQ8AMIIBCgKC
AQEAvvyQ7lmUiwpiWx6mL4durdyjZOsv6lHUAD10+8XUr/FhoVEqs9Lf8dFrGeZr
8LFCXyXsg/HBYR7CBcm5fJP9fDo/CmS7PA3PIti+bkJQnews8+wEJzptwpHsgGY9
3pQbBXOqJkyV1Wu8+you8VEhP1+WfcdNyVxKIK9ehVk1X8iZXyclh3YGegJXgHlE
/chZW+R0VHdnKuSf85HH0HeWnKaMkYYV9MSdEV64IvPopegS54+0myJVgIUze7SE
pgEF104isFgIjEeWyJKvDZ2wXIziIVcQ3wb2CbjAIfTFd4PEkcCKH7iopu5Jwypa
BclV4fGONGO8oQI1iWZ6v68XswIDAQABoygwJjAOBgNVHQ8BAf8EBAMCAOAwFAYD
VR0gBA0wCzAJBgdngQwBBQEDMAoGCCqGSM49BAMCA0cAMEQCIEhJaQn9I7PMNlm7
iem1SYvM7LYkbabTnLf0XL+i5W30AiAjTkCdW5JjnRI+VD8ug9oYSWI42iVDYIzB
yXIqD0J66w==
-----END CERTIFICATE-----