Certificate:
    Data:
        Version: 3 (0x2)
        Serial Number:
            d9:5e:b1:0b:f4:53:78:a3:2c:2b:e4:9b
        Signature Algorithm: sha256WithRSAEncryption
        Issuer: CN = Lint CA, O = Lint, C = DE
        Validity
            Not Before: Sep  1 00:00:00 2023 GMT
            Not After : Sep  1 00:00:00 2024 GMT
        Subject: CN = Certificate, O = Lint, C = DE
        Subject Public Key Info:
            Public Key Algorithm: rsaEncryption
                RSA Public-Key: (2048 bit)
                Modulus:
                    00:b4:ec:e8:16:c2:1b:e3:b3:e8:3d:f0:73:cb:cc:
                    a3:b1:3f:f8:55:15:39:1d:9b:a9:a2:bb:75:6e:1c:
                    14:67:2b:c7:ee:0b:a8:b2:39:43:07:9b:87:20:10:
                    f9:25:69:a9:7f:9b:6a:a7:29:02:50:0d:bd:6a:cf:
                    02:7c:4f:ee:5a:4b:64:8f:ec:7e:0e:f6:ed:43:19:
                    45:90:0b:24:bd:21:44:fb:c5:ac:53:45:a8:8f:06:
                    29:aa:30:a9:0d:39:96:3b:70:db:d0:ed:20:c4:76:
                    e9:82:84:db:da:6f:47:bc:8c:81:0d:a3:fc:44:de:
                    26:6d:a3:9a:77:02:d9:e3:3f:e7:d6:3b:48:78:ae:
                    ef:28:24:86:5c:ed:b8:c9:19:27:0a:74:c4:78:67:
                    8c:2d:03:52:93:3b:db:50:2c:9b:79:26:8a:28:c7:
                    7c:ce:51:61:0a:74:23:d1:9f:46:38:f0:92:05:8c:
                    bd:65:16:84:c5:b2:57:b1:18:da:2e:e9:9d:61:5b:
                    e8:e4:6b:1e:dc:83:34:29:b2:f6:dd:84:9b:34:9c:
                    89:25:c2:7d:6b:d9:e0:7f:e1:1b:01:2e:24:6c:10:
                    e9:5d:65:b6:dc:98:df:0d:9e:cc:3a:c5:1c:f0:a2:
                    1d:1d:87:6a:93:5d:20:9f:a8:99:50:d1:3d:c1:76:
                    ef:f7
                Exponent: 65537 (0x10001)
        X509v3 extensions:
            X509v3 Authority Key Identifier: 
                keyid:82:47:6E:7B:80:A2:D7:EF:09:C0:78:96:E6:FA:8F:CB:22:CE:2F:E1

            X509v3 Subject Key Identifier: 
                00:8D:17:3A:96:01:4F:C3:10:D7:34:B5:9A:3A:AB:FF:3B:EC:74:94
            X509v3 Extended Key Usage: 
                E-mail Protection
            X509v3 Subject Alternative Name: 
                email:test@example.com
            X509v3 Certificate Policies: 
                Policy: 2.23.140.1.5.1.3

    Signature Algorithm: sha256WithRSAEncryption
         70:f3:65:58:f4:3f:c8:77:b1:a1:8b:88:51:5a:0e:6a:65:e6:
         c0:c6:15:fa:8d:c3:74:cd:73:3b:02:a6:04:a7:d0:08:a4:44:
         ea:c4:23:89:05:be:9e:24:ca:d8:2c:6a:b7:7c:c3:54:d5:13:
         d2:78:f3:36:37:80:7c:21:48:d3:9e:a9:8c:e0:d8:81:5a:5f:
         93:d7:99:14:31:28:95:dc:26:0c:11:a8:b7:9b:a4:48:5b:12:
         c4:31:b6:75:ee:a8:5e:83:f8:2c:b5:dd:46:ee:86:b0:ac:64:
         e8:31:c0:c2:ac:bc:99:2d:1e:6a:e0:49:5a:cf:a7:22:9c:3b:
         52:9b:28:41:f3:32:d2:2d:72:de:41:5d:80:d6:d9:36:f1:6a:
         f9:21:a0:9a:17:31:e6:97:1a:56:d0:ad:55:e3:70:0f:58:bf:
         1a:15:8b:4f:78:32:28:44:cb:82:2d:c0:7b:70:11:92:5b:da:
         80:92:90:e6:ce:89:7a:b6:3d:c4:bb:20:a9:29:ff:dd:8d:9c:
         9f:02:7d:08:ff:51:55:6b:dd:54:eb:ca:18:97:70:5e:63:18:
         13:8d:7c:cb:9b:c3:77:05:48:a9:80:7d:f6:cf:8a:4f:97:5f:
         3e:90:18:85:53:05:da:07:8f:d0:34:f2:54:b0:51:33:2e:b4:
         3d:79:f5:d8
-----BEGIN CERTIFICATE-----
MIIDczCCAlugAwIBAgINANlesQv0U3ijLCvkmzANBgkqhkiG9w0BAQsFADAuMRAw
DgYDVQQDDAdMaW50IENBMQ0wCwYDVQQKDARMaW50MQswCQYDVQQGEwJERTAeFw0y
MzA5MDEwMDAwMDBaFw0yNDA5MDEwMDAwMDBaMDIxFDASBgNVBAMMC0NlcnRpZmlj
YXRlMQ0wCwYDVQQKDARMaW50MQswCQYDVQQGEwJERTCCASIwDQYJKoZIhvcNAQEB
BQADggEPADCCAQoCggEBALTs6BbCG+Oz6D3wc8vMo7E/+FUVOR2bqaK7dW4cFGcr
x+4LqLI5QwebhyAQ+SVpqX+baqcpAlANvWrPAnxP7lpLZI/sfg727UMZRZALJL0h
RPvFrFNFqI8GKaowqQ05ljtw29DtIMR26YKE29pvR7yMgQ2j/ETeJm2jmncC2eM/
59Y7SHiu7ygkhlztuMkZJwp0xHhnjC0DUpM721Asm3kmiijHfM5RYQp0I9GfRjjw
kgWMvWUWhMWyV7EY2i7pnWFb6ORrHtyDNCmy9t2EmzSciSXCfWvZ4H/hGwEuJGwQ
6V1lttyY3w2ezDrFHPCiHR2HapNdIJ+omVDRPcF27/cCAwEAAaOBizCBiDAfBgNV
HSMEGDAWgBSCR257gKLX7wnAeJbm+o/LIs4v4TAdBgNVHQ4EFgQUAI0XOpYBT8MQ
1zS1mjqr/zvsdJQwEwYDVR0lBAwwCgYIKwYBBQUHAwQwGwYDVR0RBBQwEoEQdGVz
dEBleGFtcGxlLmNvbTAUBgNVHSAEDTALMAkGB2eBDAEFAQMwDQYJKoZIhvcNAQEL
BQADggEBAHDzZVj0P8h3saGLiFFaDmpl5sDGFfqNw3TNczsCpgSn0AikROrEI4kF
vp4kytgsard8w1TVE9J48zY3gHwhSNOeqYzg2IFaX5PXmRQxKJXcJgwRqLebpEhb
EsQxtnXuqF6D+Cy13UbuhrCsZOgxwMKsvJktHmrgSVrPpyKcO1KbKEHzMtItct5B
XYDW2TbxavkhoJoXMeaXGlbQrVXjcA9YvxoVi094MihEy4ItwHtwEZJb2oCSkObO
iXq2PcS7IKkp/92NnJ8CfQj/UVVr3VTryhiXcF5jGBONfMubw3cFSKmAffbPik+X
Xz6QGIVTBdoHj9A08lSwUTMutD159dg=
-----END CERTIFICATE-----
