Certificate:
    Data:
        Version: 3 (0x2)
        Serial Number: 3 (0x3)
        Signature Algorithm: ecdsa-with-SHA256
        Issuer: 
        Validity
            Not Before: Sep 30 16:52:30 2023 GMT
            Not After : Nov 30 00:00:00 9998 GMT
        Subject: CN = Bartholomew Kuma
        Subject Public Key Info:
            Public Key Algorithm: id-ecPublicKey
                Public-Key: (256 bit)
                pub:
                    04:a2:02:fe:ab:17:45:2b:67:21:b9:57:42:17:1d:
                    bf:e7:11:aa:b0:a7:71:7b:87:b9:4b:79:54:09:9e:
                    e1:7b:3b:6b:ed:fb:3c:0f:86:4d:94:b3:69:1b:30:
                    98:15:69:8d:09:06:09:84:62:6c:02:c7:01:f5:75:
                    cb:c8:78:31:df
                ASN1 OID: prime256v1
                NIST CURVE: P-256
        X509v3 extensions:
            X509v3 Extended Key Usage: 
                E-mail Protection
            X509v3 Subject Alternative Name: 
                email:coolguy@coolplace.come
    Signature Algorithm: ecdsa-with-SHA256
    Signature Value:
        30:45:02:21:00:bd:fb:e1:0b:c1:26:2a:85:bf:95:6a:dc:37:
        9a:b9:67:95:ba:43:6d:d1:8d:4d:aa:53:54:70:72:30:f0:24:
        ca:02:20:2e:61:95:23:b8:39:a7:48:02:59:d9:a3:9b:36:c6:
        c8:95:06:4e:36:63:85:a0:19:88:23:ad:a9:d4:37:6d:44
-----BEGIN CERTIFICATE-----
MIIBRTCB7KADAgECAgEDMAoGCCqGSM49BAMCMAAwIBcNMjMwOTMwMTY1MjMwWhgP
OTk5ODExMzAwMDAwMDBaMBsxGTAXBgNVBAMTEEJhcnRob2xvbWV3IEt1bWEwWTAT
BgcqhkjOPQIBBggqhkjOPQMBBwNCAASiAv6rF0UrZyG5V0IXHb/nEaqwp3F7h7lL
eVQJnuF7O2vt+zwPhk2Us2kbMJgVaY0JBgmEYmwCxwH1dcvIeDHfozowODATBgNV
HSUEDDAKBggrBgEFBQcDBDAhBgNVHREEGjAYgRZjb29sZ3V5QGNvb2xwbGFjZS5j
b21lMAoGCCqGSM49BAMCA0gAMEUCIQC9++ELwSYqhb+Vatw3mrlnlbpDbdGNTapT
VHByMPAkygIgLmGVI7g5p0gCWdmjmzbGyJUGTjZjhaAZiCOtqdQ3bUQ=
-----END CERTIFICATE-----
