Certificate:
    Data:
        Version: 3 (0x2)
        Serial Number:
            a5:25:fe:a3:72:80:64:93:0e:84:f7:7f
        Signature Algorithm: sha256WithRSAEncryption
        Issuer: CN = Lint CA, O = Lint, C = DE
        Validity
            Not Before: Sep  1 00:00:00 2023 GMT
            Not After : Sep  1 00:00:00 2024 GMT
        Subject: CN = Certificate, O = Lint, C = DE
        Subject Public Key Info:
            Public Key Algorithm: rsaEncryption
                RSA Public-Key: (2048 bit)
                Modulus:
                    00:b9:3a:e1:f9:16:d6:e3:3e:72:90:6d:50:95:4b:
                    68:3e:5b:dc:29:48:b1:18:d7:9f:e9:70:89:55:de:
                    16:4a:35:02:71:7d:df:80:48:2b:e5:ba:47:0f:79:
                    b8:09:e2:2d:4a:de:6c:5f:dc:e7:c9:49:7f:46:49:
                    0e:fb:2e:49:53:3f:eb:67:04:f2:a1:1a:5b:e6:a6:
                    a2:ba:67:3a:1a:5e:93:c5:15:22:01:53:f8:12:99:
                    a8:13:2d:47:ae:c6:ff:4a:0e:62:24:da:91:76:eb:
                    f4:d6:af:97:3a:33:12:39:de:21:30:4f:7e:59:ba:
                    ca:42:b9:d8:84:ce:39:89:a7:2a:2e:3b:1e:e8:f0:
                    c0:e4:d7:5a:e8:82:d6:24:d2:ad:e3:cd:d0:57:88:
                    66:bb:e5:76:42:36:cf:e3:d1:3a:e8:11:35:f6:aa:
                    51:3c:70:53:a3:77:4c:bd:6d:f7:87:2a:b6:b8:50:
                    1b:4d:40:f5:c1:70:77:61:33:37:15:a5:b9:76:5e:
                    5c:1e:42:57:48:9f:ca:93:9c:63:56:37:41:b7:70:
                    da:c0:b0:01:88:2f:c4:07:60:e2:ca:64:5c:1f:d3:
                    21:2e:f8:93:91:20:39:17:1a:32:6f:8d:11:6c:ff:
                    60:88:cd:79:7d:93:08:2d:3b:c5:23:27:71:a7:05:
                    bd:73
                Exponent: 65537 (0x10001)
        X509v3 extensions:
            X509v3 Authority Key Identifier: 
                keyid:12:91:D7:AD:71:D6:1B:DC:F3:2C:5C:0C:FB:D3:92:17:F1:7A:E0:E3

            X509v3 Subject Key Identifier: 
                10:3B:95:E5:0D:9C:A9:C6:6C:18:54:BE:E5:84:84:CD:01:F9:ED:5A
            X509v3 Extended Key Usage: 
                E-mail Protection
            X509v3 Subject Alternative Name: critical
                email:test@example.com
            X509v3 Certificate Policies: 
                Policy: 2.23.140.1.5.1.3

    Signature Algorithm: sha256WithRSAEncryption
         91:2e:21:20:bf:02:06:78:43:d1:b6:d7:46:80:9a:0a:1e:50:
         98:df:63:33:78:34:1a:2f:43:e7:06:2d:a3:a0:2c:20:98:fe:
         dd:f7:51:63:d4:7f:0b:7a:0a:36:c8:a4:51:72:03:5c:b8:f9:
         ff:d9:8b:6e:c1:9e:cd:fe:6e:dd:06:c7:dd:b7:5c:17:1c:8e:
         db:2a:e4:40:37:fa:8a:c4:4c:14:59:50:bc:4c:32:11:0d:64:
         b1:7b:7f:6b:1b:90:bb:96:76:c1:41:88:06:d3:97:d2:c5:7b:
         e6:04:e7:db:b8:53:5e:aa:40:c4:02:92:42:12:34:9d:30:96:
         bb:c8:b3:29:07:03:d1:9a:10:91:98:56:2e:3c:c9:d8:40:f5:
         02:e0:27:03:1d:10:19:ff:21:3b:b3:32:a5:09:ae:1f:b7:31:
         6f:9e:0f:75:06:31:82:df:f4:94:06:07:d6:3f:e8:9c:e2:a6:
         bc:35:b7:76:b4:7e:b2:5b:b5:ef:a1:5d:1c:36:6b:ce:61:33:
         e6:e1:04:21:6e:d0:90:41:15:3f:4f:66:d1:84:2f:09:46:6a:
         76:dd:d8:0d:92:a3:51:1c:e5:c2:ac:e0:33:f1:10:94:0e:d4:
         79:5b:30:66:e2:db:dd:a5:78:47:33:76:73:38:d3:3e:8f:1d:
         2f:52:eb:b7
-----BEGIN CERTIFICATE-----
MIIDdjCCAl6gAwIBAgINAKUl/qNygGSTDoT3fzANBgkqhkiG9w0BAQsFADAuMRAw
DgYDVQQDDAdMaW50IENBMQ0wCwYDVQQKDARMaW50MQswCQYDVQQGEwJERTAeFw0y
MzA5MDEwMDAwMDBaFw0yNDA5MDEwMDAwMDBaMDIxFDASBgNVBAMMC0NlcnRpZmlj
YXRlMQ0wCwYDVQQKDARMaW50MQswCQYDVQQGEwJERTCCASIwDQYJKoZIhvcNAQEB
BQADggEPADCCAQoCggEBALk64fkW1uM+cpBtUJVLaD5b3ClIsRjXn+lwiVXeFko1
AnF934BIK+W6Rw95uAniLUrebF/c58lJf0ZJDvsuSVM/62cE8qEaW+amorpnOhpe
k8UVIgFT+BKZqBMtR67G/0oOYiTakXbr9NavlzozEjneITBPflm6ykK52ITOOYmn
Ki47HujwwOTXWuiC1iTSrePN0FeIZrvldkI2z+PROugRNfaqUTxwU6N3TL1t94cq
trhQG01A9cFwd2EzNxWluXZeXB5CV0ifypOcY1Y3Qbdw2sCwAYgvxAdg4spkXB/T
IS74k5EgORcaMm+NEWz/YIjNeX2TCC07xSMncacFvXMCAwEAAaOBjjCBizAfBgNV
HSMEGDAWgBQSkdetcdYb3PMsXAz705IX8Xrg4zAdBgNVHQ4EFgQUEDuV5Q2cqcZs
GFS+5YSEzQH57VowEwYDVR0lBAwwCgYIKwYBBQUHAwQwHgYDVR0RAQH/BBQwEoEQ
dGVzdEBleGFtcGxlLmNvbTAUBgNVHSAEDTALMAkGB2eBDAEFAQMwDQYJKoZIhvcN
AQELBQADggEBAJEuISC/AgZ4Q9G210aAmgoeUJjfYzN4NBovQ+cGLaOgLCCY/t33
UWPUfwt6CjbIpFFyA1y4+f/Zi27Bns3+bt0Gx923XBccjtsq5EA3+orETBRZULxM
MhENZLF7f2sbkLuWdsFBiAbTl9LFe+YE59u4U16qQMQCkkISNJ0wlrvIsykHA9Ga
EJGYVi48ydhA9QLgJwMdEBn/ITuzMqUJrh+3MW+eD3UGMYLf9JQGB9Y/6Jziprw1
t3a0frJbte+hXRw2a85hM+bhBCFu0JBBFT9PZtGELwlGanbd2A2So1Ec5cKs4DPx
EJQO1HlbMGbi292leEczdnM40z6PHS9S67c=
-----END CERTIFICATE-----
