Certificate:
    Data:
        Version: 3 (0x2)
        Serial Number: 3 (0x3)
        Signature Algorithm: ecdsa-with-SHA256
        Issuer: 
        Validity
            Not Before: Sep 30 16:12:15 2023 GMT
            Not After : Nov 30 00:00:00 9998 GMT
        Subject: 
        Subject Public Key Info:
            Public Key Algorithm: id-ecPublicKey
                Public-Key: (256 bit)
                pub:
                    04:83:07:4d:66:ba:e8:dd:7c:ed:7a:02:67:9d:80:
                    7d:a5:2c:a4:bc:6f:df:aa:9c:3a:f7:6b:50:ae:42:
                    36:5c:71:54:88:8e:79:f3:e3:d2:d0:72:26:c1:19:
                    9d:28:a9:4f:71:c9:65:ea:40:40:4f:f6:86:d5:fb:
                    77:d9:68:dc:21
                ASN1 OID: prime256v1
                NIST CURVE: P-256
        X509v3 extensions:
            X509v3 Extended Key Usage: 
                E-mail Protection
            X509v3 Subject Alternative Name: 
                email:coolguy@coolplace.come
    Signature Algorithm: ecdsa-with-SHA256
    Signature Value:
        30:46:02:21:00:c0:a2:c4:c3:f3:b4:27:39:b5:8b:85:c4:5a:
        60:67:27:d1:7c:b4:db:3b:7e:0d:9f:2c:81:0a:5f:f6:8a:e0:
        0a:02:21:00:ec:06:77:d2:09:41:74:e8:8c:9b:64:72:27:fc:
        e0:ab:62:fa:2b:bf:94:30:49:24:92:56:d9:e6:65:ba:86:6d
-----BEGIN CERTIFICATE-----
MIIBKzCB0aADAgECAgEDMAoGCCqGSM49BAMCMAAwIBcNMjMwOTMwMTYxMjE1WhgP
OTk5ODExMzAwMDAwMDBaMAAwWTATBgcqhkjOPQIBBggqhkjOPQMBBwNCAASDB01m
uujdfO16AmedgH2lLKS8b9+qnDr3a1CuQjZccVSIjnnz49LQcibBGZ0oqU9xyWXq
QEBP9obV+3fZaNwhozowODATBgNVHSUEDDAKBggrBgEFBQcDBDAhBgNVHREEGjAY
gRZjb29sZ3V5QGNvb2xwbGFjZS5jb21lMAoGCCqGSM49BAMCA0kAMEYCIQDAosTD
87QnObWLhcRaYGcn0Xy02zt+DZ8sgQpf9orgCgIhAOwGd9IJQXTojJtkcif84Kti
+iu/lDBJJJJW2eZluoZt
-----END CERTIFICATE-----
