Certificate:
    Data:
        Version: 3 (0x2)
        Serial Number: 3 (0x3)
        Signature Algorithm: ecdsa-with-SHA256
        Issuer: 
        Validity
            Not Before: Oct 15 17:49:19 2023 GMT
            Not After : Nov 30 00:00:00 9998 GMT
        Subject: 
        Subject Public Key Info:
            Public Key Algorithm: id-ecPublicKey
                Public-Key: (256 bit)
                pub:
                    04:ef:76:01:b8:fe:88:a0:d2:69:ea:ed:d0:16:0f:
                    b2:57:f3:b9:a5:8c:50:e2:f6:82:ff:fc:6b:b6:0a:
                    41:23:cb:dc:52:6f:26:1e:9b:c1:db:aa:26:9e:c0:
                    58:6d:bc:ea:d1:1b:b3:55:ec:dd:dc:93:ed:07:36:
                    06:44:f5:02:9c
                ASN1 OID: prime256v1
                NIST CURVE: P-256
        X509v3 extensions:
            X509v3 Extended Key Usage: 
                E-mail Protection
            X509v3 Subject Alternative Name: 
                email:coolguy@coolplace.com
    Signature Algorithm: ecdsa-with-SHA256
    Signature Value:
        30:45:02:20:58:18:e5:5b:31:e1:83:a6:5e:5c:76:40:fe:eb:
        a2:82:3a:2b:d9:e0:0f:09:f6:d2:b7:ae:5e:e4:a7:36:13:e5:
        02:21:00:f6:f8:43:f6:76:2d:18:af:33:91:20:71:78:f5:2a:
        9e:9b:08:66:98:c6:ef:bf:cb:06:b9:62:7e:c2:44:92:51
-----BEGIN CERTIFICATE-----
MIIBKTCB0KADAgECAgEDMAoGCCqGSM49BAMCMAAwIBcNMjMxMDE1MTc0OTE5WhgP
OTk5ODExMzAwMDAwMDBaMAAwWTATBgcqhkjOPQIBBggqhkjOPQMBBwNCAATvdgG4
/oig0mnq7dAWD7JX87mljFDi9oL//Gu2CkEjy9xSbyYem8HbqiaewFhtvOrRG7NV
7N3ck+0HNgZE9QKcozkwNzATBgNVHSUEDDAKBggrBgEFBQcDBDAgBgNVHREEGTAX
gRVjb29sZ3V5QGNvb2xwbGFjZS5jb20wCgYIKoZIzj0EAwIDSAAwRQIgWBjlWzHh
g6ZeXHZA/uuigjor2eAPCfbSt65e5Kc2E+UCIQD2+EP2di0YrzORIHF49Sqemwhm
mMbvv8sGuWJ+wkSSUQ==
-----END CERTIFICATE-----
