Certificate:
    Data:
        Version: 3 (0x2)
        Serial Number:
            19:14:ea:50:6f:85:07:8b:bb:51:70:f2
        Signature Algorithm: sha256WithRSAEncryption
        Issuer: CN = Lint CA, O = Lint, C = DE
        Validity
            Not Before: Sep  1 00:00:00 2023 GMT
            Not After : Sep  1 00:00:00 2024 GMT
        Subject: CN = Certificate, O = Lint, C = DE
        Subject Public Key Info:
            Public Key Algorithm: rsaEncryption
                RSA Public-Key: (2048 bit)
                Modulus:
                    00:e8:af:4a:48:de:1a:d1:5b:4f:d9:ed:65:9a:2b:
                    84:8f:a9:11:4f:23:40:60:ae:8a:27:a9:a9:90:de:
                    9e:ba:87:34:c1:5a:ed:aa:06:35:17:17:16:98:d5:
                    07:bc:fc:94:8f:f4:fa:f3:64:df:fd:5a:b9:6e:cd:
                    35:06:c7:44:25:30:9d:7f:e0:c5:1a:03:67:f1:8a:
                    c6:3d:89:23:b5:c6:c2:2f:fb:fe:b4:9d:84:e5:94:
                    c0:42:c5:02:23:66:93:a7:1a:e6:27:b7:86:24:d3:
                    16:a0:7e:e3:98:83:df:29:51:13:d0:4e:26:56:41:
                    00:8f:d3:85:f9:56:f9:68:9e:ba:d7:1e:c1:c4:a1:
                    b8:0d:bc:c7:8a:4d:45:ba:91:43:ee:96:81:fb:35:
                    33:81:54:20:94:cb:23:93:96:5b:7f:4b:5d:a6:fc:
                    b8:75:d0:6c:e6:5a:dd:dd:64:3f:22:22:68:a4:e2:
                    3c:e2:f7:f4:aa:48:d8:9b:cc:0a:e5:fd:fe:3b:7c:
                    8e:c9:90:9b:1a:72:24:7d:ec:b0:c3:1a:89:fc:fc:
                    40:a0:cf:a5:9a:af:40:8e:d2:67:e1:cc:1a:66:ef:
                    3b:cf:b9:61:b4:37:23:74:a4:3b:30:0d:3a:fd:01:
                    0f:ff:9a:8b:f9:ed:95:2b:ad:9e:eb:da:bb:74:0b:
                    27:e7
                Exponent: 65537 (0x10001)
        X509v3 extensions:
            X509v3 Authority Key Identifier: 
                keyid:A4:9D:B9:7C:DF:CE:B5:81:51:9F:03:65:9F:73:7C:44:1A:08:3E:C5

            X509v3 Subject Key Identifier: 
                08:6C:A3:FD:53:3B:38:3E:E7:96:15:8D:D3:7F:E9:6F:4F:D9:54:75
            X509v3 Extended Key Usage: 
                E-mail Protection
            X509v3 Subject Alternative Name: critical
                email:test@example.com
            X509v3 Certificate Policies: 
                Policy: 2.23.140.1.5.1.3

    Signature Algorithm: sha256WithRSAEncryption
         4f:ab:10:4a:19:94:a8:74:16:40:fc:26:bd:30:f8:37:2b:77:
         47:24:6b:06:c9:4a:2f:e7:d5:b0:cb:c9:2d:e4:59:e5:72:95:
         d8:6b:d5:0d:10:ae:97:61:b6:bd:fa:d9:f0:d8:13:67:d7:14:
         6a:c8:06:56:3d:00:87:4f:b4:59:97:f3:7b:02:17:c3:65:bd:
         7b:9c:38:32:9b:5e:25:0f:71:c1:7b:96:b8:1e:d9:ce:3e:64:
         2a:ba:e8:66:d8:6a:40:32:2b:96:ab:24:d9:34:11:a4:7c:70:
         d0:02:29:74:4f:cd:83:bb:3e:74:67:8f:08:fe:32:fa:19:d4:
         58:ff:cb:be:0f:6e:0d:87:62:f8:03:d2:a4:25:c8:b2:3f:3f:
         bc:a0:dc:22:df:69:6e:0b:29:cc:e7:bf:4b:15:df:8b:56:47:
         cb:48:b6:ee:7f:71:b5:da:8f:74:3f:e2:9c:42:ef:08:df:1d:
         75:3f:f3:f4:56:fa:40:cb:71:a9:e7:51:9f:37:e8:33:12:f5:
         dd:d0:66:fe:a4:c8:6b:c7:28:7b:ec:a0:84:57:fd:26:9d:31:
         f7:97:6f:82:a5:28:72:ff:c3:37:22:32:27:35:da:51:20:0d:
         4d:2c:6d:7e:e5:78:b3:2e:fc:27:4d:2c:14:9d:90:5c:7b:78:
         53:ae:e6:f4
-----BEGIN CERTIFICATE-----
MIIDdTCCAl2gAwIBAgIMGRTqUG+FB4u7UXDyMA0GCSqGSIb3DQEBCwUAMC4xEDAO
BgNVBAMMB0xpbnQgQ0ExDTALBgNVBAoMBExpbnQxCzAJBgNVBAYTAkRFMB4XDTIz
MDkwMTAwMDAwMFoXDTI0MDkwMTAwMDAwMFowMjEUMBIGA1UEAwwLQ2VydGlmaWNh
dGUxDTALBgNVBAoMBExpbnQxCzAJBgNVBAYTAkRFMIIBIjANBgkqhkiG9w0BAQEF
AAOCAQ8AMIIBCgKCAQEA6K9KSN4a0VtP2e1lmiuEj6kRTyNAYK6KJ6mpkN6euoc0
wVrtqgY1FxcWmNUHvPyUj/T682Tf/Vq5bs01BsdEJTCdf+DFGgNn8YrGPYkjtcbC
L/v+tJ2E5ZTAQsUCI2aTpxrmJ7eGJNMWoH7jmIPfKVET0E4mVkEAj9OF+Vb5aJ66
1x7BxKG4DbzHik1FupFD7paB+zUzgVQglMsjk5Zbf0tdpvy4ddBs5lrd3WQ/IiJo
pOI84vf0qkjYm8wK5f3+O3yOyZCbGnIkfeywwxqJ/PxAoM+lmq9AjtJn4cwaZu87
z7lhtDcjdKQ7MA06/QEP/5qL+e2VK62e69q7dAsn5wIDAQABo4GOMIGLMB8GA1Ud
IwQYMBaAFKSduXzfzrWBUZ8DZZ9zfEQaCD7FMB0GA1UdDgQWBBQIbKP9Uzs4PueW
FY3Tf+lvT9lUdTATBgNVHSUEDDAKBggrBgEFBQcDBDAeBgNVHREBAf8EFDASgRB0
ZXN0QGV4YW1wbGUuY29tMBQGA1UdIAQNMAswCQYHZ4EMAQUBAzANBgkqhkiG9w0B
AQsFAAOCAQEAT6sQShmUqHQWQPwmvTD4Nyt3RyRrBslKL+fVsMvJLeRZ5XKV2GvV
DRCul2G2vfrZ8NgTZ9cUasgGVj0Ah0+0WZfzewIXw2W9e5w4MpteJQ9xwXuWuB7Z
zj5kKrroZthqQDIrlqsk2TQRpHxw0AIpdE/Ng7s+dGePCP4y+hnUWP/Lvg9uDYdi
+APSpCXIsj8/vKDcIt9pbgspzOe/SxXfi1ZHy0i27n9xtdqPdD/inELvCN8ddT/z
9Fb6QMtxqedRnzfoMxL13dBm/qTIa8coe+yghFf9Jp0x95dvgqUocv/DNyIyJzXa
USANTSxtfuV4sy78J00sFJ2QXHt4U67m9A==
-----END CERTIFICATE-----
