Certificate:
    Data:
        Version: 3 (0x2)
        Serial Number:
            83:01:3a:8b:8c:d2:db:dc:22:17:66:3f:07:a0:a1:9d
        Signature Algorithm: sha256WithRSAEncryption
        Issuer: C=XX, O=Some CA, CN=Fake CA for zlint testing
        Validity
            Not Before: Jun 21 16:29:57 2025 GMT
            Not After : Jun 21 16:29:57 2026 GMT
        Subject: C=XX, ST=Some State or Province, L=Somewhere, O=Some Company Ltd., serialNumber=1234567890, businessCategory=Non-Commercial Entity
        Subject Public Key Info:
            Public Key Algorithm: rsaEncryption
                Public-Key: (2048 bit)
                Modulus:
                    00:bb:50:5c:67:1d:21:01:f7:50:ef:e3:83:bc:c9:
                    9e:8a:9c:63:4e:a8:a9:76:90:8f:b3:fc:a9:e0:a0:
                    fa:7f:bd:b1:56:34:c6:87:0f:75:88:12:e8:8e:d3:
                    60:eb:ed:c9:c8:8a:09:94:b3:bf:8f:17:75:a4:95:
                    7a:84:f0:ae:1c:fa:36:f5:0c:12:38:9e:01:ea:5b:
                    74:ef:30:39:f9:19:15:a3:8a:1f:1b:71:f7:63:c3:
                    58:e8:24:f4:e7:62:5d:26:02:69:24:60:bb:35:17:
                    b3:d0:cf:79:34:ae:91:ba:c8:e1:95:9e:44:60:c7:
                    bc:28:e2:50:bc:ce:e7:76:3d:24:be:2c:04:36:99:
                    20:06:5d:62:2e:03:53:5f:d6:5d:9d:fc:8f:f2:e1:
                    a6:7d:48:cd:cc:56:29:95:92:60:77:d7:26:24:d1:
                    c8:4e:ac:2e:84:bc:25:29:2f:18:3d:6b:59:b3:64:
                    e6:0a:a5:88:50:d8:e8:f4:c3:ce:b4:8a:9b:7c:5e:
                    d7:4e:42:ce:5a:62:87:1a:18:22:bf:35:02:1a:cb:
                    da:01:e6:47:dd:ec:c8:6c:bf:a8:96:f1:26:8d:0a:
                    33:30:1f:18:64:cd:06:6a:a8:95:fd:82:94:21:39:
                    8c:ff:33:f1:cc:c9:9f:7e:bf:4e:c3:ad:79:ff:68:
                    7c:4f
                Exponent: 65537 (0x10001)
        X509v3 extensions:
            X509v3 Key Usage: critical
                Digital Signature, Key Encipherment
            X509v3 Extended Key Usage: 
                TLS Web Client Authentication, TLS Web Server Authentication
            X509v3 Subject Key Identifier: 
                65:AE:59:CA:2A:4B:EF:AF:0A:ED:A5:AA:55:7C:EA:6A:C7:CD:38:3E
            X509v3 Authority Key Identifier: 
                E8:B6:F6:76:4B:D0:3B:E5:46:A5:F9:54:D4:7E:07:B3:DE:0D:60:3E
            Authority Information Access: 
                OCSP - URI:http://ca.someca-inc.com/ocsp
                CA Issuers - URI:http://ca.someca-inc.local/root
            X509v3 Subject Alternative Name: 
                DNS:example.org
            X509v3 Certificate Policies: 
                Policy: 2.23.140.1.1
            X509v3 CRL Distribution Points: 
                Full Name:
                  URI:http://ca.someca-inc.com/crl
    Signature Algorithm: sha256WithRSAEncryption
    Signature Value:
        84:0a:2f:07:5e:51:9a:83:d5:7c:20:5e:4c:66:16:23:41:35:
        cf:6f:f6:a9:ca:e2:8a:46:f0:4a:1a:85:c7:b7:69:db:20:ba:
        8f:07:11:1e:fd:73:5a:f5:7e:3a:3a:2d:c4:c5:0f:53:f4:f2:
        7f:d8:ce:b5:05:3f:2e:d5:e0:09:11:ad:5c:34:cc:1c:1d:fd:
        a7:cd:77:b1:34:d8:e6:c6:f5:bb:d9:df:33:6e:2d:93:b0:53:
        59:9f:78:1e:0a:b7:df:db:7c:53:5f:ba:fe:2b:8b:62:ac:99:
        98:9a:88:86:48:fa:88:53:bb:ab:95:95:72:b8:e8:37:fe:d1:
        f5:f3:e1:7e:ca:ca:38:ee:31:94:fe:dd:e0:fc:20:96:90:ab:
        b0:ac:f7:59:0f:ad:53:1b:55:3a:fb:ae:8c:1f:b1:2c:80:e0:
        e6:8f:79:02:68:99:50:65:50:88:25:f7:ef:7c:11:45:30:0c:
        c5:f4:69:a2:69:18:b0:35:55:05:fe:79:ac:f3:ba:67:71:75:
        62:0e:81:05:32:74:9f:63:53:18:83:8f:86:b2:33:4a:2d:8e:
        d8:46:24:f8:26:7e:b7:3f:aa:e9:10:70:39:65:6d:42:3e:f0:
        aa:56:18:cc:42:1b:a2:a0:b7:19:1d:31:65:10:35:9f:5c:ca:
        84:78:cb:1f
-----BEGIN CERTIFICATE-----
MIIEmjCCA4KgAwIBAgIRAIMBOouM0tvcIhdmPwegoZ0wDQYJKoZIhvcNAQELBQAw
QzELMAkGA1UEBhMCWFgxEDAOBgNVBAoTB1NvbWUgQ0ExIjAgBgNVBAMTGUZha2Ug
Q0EgZm9yIHpsaW50IHRlc3RpbmcwHhcNMjUwNjIxMTYyOTU3WhcNMjYwNjIxMTYy
OTU3WjCBkzELMAkGA1UEBhMCWFgxHzAdBgNVBAgTFlNvbWUgU3RhdGUgb3IgUHJv
dmluY2UxEjAQBgNVBAcTCVNvbWV3aGVyZTEaMBgGA1UEChMRU29tZSBDb21wYW55
IEx0ZC4xEzARBgNVBAUTCjEyMzQ1Njc4OTAxHjAcBgNVBA8TFU5vbi1Db21tZXJj
aWFsIEVudGl0eTCCASIwDQYJKoZIhvcNAQEBBQADggEPADCCAQoCggEBALtQXGcd
IQH3UO/jg7zJnoqcY06oqXaQj7P8qeCg+n+9sVY0xocPdYgS6I7TYOvtyciKCZSz
v48XdaSVeoTwrhz6NvUMEjieAepbdO8wOfkZFaOKHxtx92PDWOgk9OdiXSYCaSRg
uzUXs9DPeTSukbrI4ZWeRGDHvCjiULzO53Y9JL4sBDaZIAZdYi4DU1/WXZ38j/Lh
pn1IzcxWKZWSYHfXJiTRyE6sLoS8JSkvGD1rWbNk5gqliFDY6PTDzrSKm3xe105C
zlpihxoYIr81AhrL2gHmR93syGy/qJbxJo0KMzAfGGTNBmqolf2ClCE5jP8z8czJ
n36/TsOtef9ofE8CAwEAAaOCATYwggEyMA4GA1UdDwEB/wQEAwIFoDAdBgNVHSUE
FjAUBggrBgEFBQcDAgYIKwYBBQUHAwEwHQYDVR0OBBYEFGWuWcoqS++vCu2lqlV8
6mrHzTg+MB8GA1UdIwQYMBaAFOi29nZL0DvlRqX5VNR+B7PeDWA+MGYGCCsGAQUF
BwEBBFowWDApBggrBgEFBQcwAYYdaHR0cDovL2NhLnNvbWVjYS1pbmMuY29tL29j
c3AwKwYIKwYBBQUHMAKGH2h0dHA6Ly9jYS5zb21lY2EtaW5jLmxvY2FsL3Jvb3Qw
FgYDVR0RBA8wDYILZXhhbXBsZS5vcmcwEgYDVR0gBAswCTAHBgVngQwBATAtBgNV
HR8EJjAkMCKgIKAehhxodHRwOi8vY2Euc29tZWNhLWluYy5jb20vY3JsMA0GCSqG
SIb3DQEBCwUAA4IBAQCECi8HXlGag9V8IF5MZhYjQTXPb/apyuKKRvBKGoXHt2nb
ILqPBxEe/XNa9X46Oi3ExQ9T9PJ/2M61BT8u1eAJEa1cNMwcHf2nzXexNNjmxvW7
2d8zbi2TsFNZn3geCrff23xTX7r+K4tirJmYmoiGSPqIU7urlZVyuOg3/tH18+F+
yso47jGU/t3g/CCWkKuwrPdZD61TG1U6+66MH7EsgODmj3kCaJlQZVCIJffvfBFF
MAzF9GmiaRiwNVUF/nms87pncXViDoEFMnSfY1MYg4+GsjNKLY7YRiT4Jn63P6rp
EHA5ZW1CPvCqVhjMQhuioLcZHTFlEDWfXMqEeMsf
-----END CERTIFICATE-----
