Certificate:
    Data:
        Version: 3 (0x2)
        Serial Number:
            4b:6c:fc:7c:aa:b0:cc:f5:ad:01:d5:97:59:71:9d:32
        Signature Algorithm: sha256WithRSAEncryption
        Issuer: C=XX, O=Some CA, CN=Fake CA for Zlint testing
        Validity
            Not Before: Dec 16 09:26:51 2025 GMT
            Not After : Dec 16 09:26:51 2026 GMT
        Subject: C=US, L=Nowhere, O=Some Company Ltd., CN=Leon Mandrake
        Subject Public Key Info:
            Public Key Algorithm: rsaEncryption
                Public-Key: (2048 bit)
                Modulus:
                    00:db:2c:7f:1f:30:6a:84:d1:c5:4e:e4:28:fc:08:
                    fb:ad:66:02:31:31:35:cd:5f:0f:ca:76:69:60:a9:
                    6e:27:3d:7c:17:73:c8:53:52:c9:6f:24:b5:65:82:
                    82:1e:f1:31:35:1b:20:04:74:3c:b2:12:a7:13:69:
                    a0:fa:16:63:25:f2:c7:24:8d:c3:be:17:1b:d1:81:
                    85:14:04:a0:8e:10:e6:cc:b2:0f:c9:d3:07:53:02:
                    a3:be:65:3a:93:fd:8f:b8:09:c2:93:8f:ac:e4:66:
                    aa:8d:2a:b6:14:1e:4b:2e:b1:dd:77:24:5a:3e:59:
                    5a:db:ae:50:ad:8b:f3:7f:96:45:33:f4:ec:f2:92:
                    0e:05:15:80:65:12:f8:ff:95:e2:79:50:5a:4e:f0:
                    d8:25:59:93:5c:a4:5a:76:52:56:5e:65:e8:b6:33:
                    53:33:3c:b2:78:9a:21:2b:5c:a4:22:54:8b:85:8b:
                    86:77:22:05:18:64:fa:6f:35:98:65:06:52:d5:ee:
                    6a:06:9c:91:9a:81:0a:ec:c7:38:7c:80:d1:7b:aa:
                    e0:61:72:26:80:cc:12:03:3b:ed:16:67:de:69:34:
                    b4:9b:83:d6:4b:de:74:ad:14:ae:c2:71:08:20:d6:
                    a7:81:55:c4:9d:86:1e:93:fe:81:17:a9:50:f7:ed:
                    65:27
                Exponent: 65537 (0x10001)
        X509v3 extensions:
            X509v3 Key Usage: critical
                Digital Signature, Key Encipherment
            X509v3 Extended Key Usage: 
                TLS Web Client Authentication, E-mail Protection
            X509v3 Subject Key Identifier: 
                8D:64:78:09:C2:CB:8F:65:0E:9A:C9:E4:B1:C6:6A:19:D1:95:B5:C1
            X509v3 Authority Key Identifier: 
                E8:B6:F6:76:4B:D0:3B:E5:46:A5:F9:54:D4:7E:07:B3:DE:0D:60:3E
            Authority Information Access: 
                OCSP - URI:http://ca.someca-inc.com/ocsp
                CA Issuers - URI:http://ca.someca-inc.com/root
            X509v3 Subject Alternative Name: 
                email:Leon.Mandrake@example.com
            X509v3 CRL Distribution Points: 
                Full Name:
                  URI:http://ca.someca-inc.com/crl

    Signature Algorithm: sha256WithRSAEncryption
    Signature Value:
        69:03:1f:00:a3:0a:87:07:d9:e1:60:35:c9:fe:75:fb:47:4c:
        ef:1c:92:8d:83:b6:f8:36:34:7b:fe:e4:52:0e:bc:f7:5b:6a:
        0f:3f:4c:fb:2f:a9:9d:e4:75:e9:cb:fb:e4:74:aa:8e:05:49:
        f8:86:a5:1e:3f:36:7e:ae:dd:d4:03:cf:cf:ef:cf:10:8c:32:
        a5:db:9b:6b:f6:5f:05:6b:e4:ac:7f:7e:b4:3c:f8:87:fb:99:
        95:88:89:34:33:57:9c:41:97:9c:a0:8c:5b:c1:39:3f:10:38:
        f7:7d:45:48:8a:fc:7c:b1:e0:c8:21:30:de:3f:19:cc:d5:c8:
        17:02:0d:b9:68:6b:75:ae:ec:40:65:08:9d:de:24:8b:6b:c4:
        5c:01:fe:79:6d:0f:5c:c6:37:33:cf:05:b4:6f:4a:cc:9f:74:
        13:1b:c7:28:65:fa:27:19:c8:b3:b4:8c:b6:31:6f:ff:1d:e9:
        7f:a4:2b:25:eb:ff:fb:41:d2:2b:62:d4:2c:0f:53:69:be:97:
        ba:73:7b:94:05:bb:cd:ae:a4:48:86:52:44:95:5d:f0:b4:35:
        a4:92:34:d2:3a:56:89:41:cf:49:6e:d9:d8:1f:4e:5d:84:79:
        88:83:37:35:ab:3b:47:10:68:81:3f:86:ad:1a:d2:86:83:e6:
        a9:1e:1d:1a:65:78:c1:a7:e3:fb:13:99:b1:5b:c2:95:43:a9:
        4f:4f:46:c5:fd:9b:69:ca:be:01:61:2c:65:cc:33:65:11:45:
        1c:c2:1c:67:59:e6:89:8b:09:47:ea:ec:ab:ad:6e:d6:e3:83:
        fa:7a:1d:c0:80:07:4c:b3:0e:e1:07:b7:fd:20:46:77:e6:a5:
        d1:29:ad:24:aa:78:71:65:f9:06:6a:0d:47:c0:20:32:4e:a3:
        a7:d5:7c:bf:1a:4f:9a:b3:c8:ea:1d:12:6f:a2:60:1a:e5:5f:
        cd:d2:92:d2:11:5e:6a:e7:ad:17:fb:cd:cd:27:9c:50:de:65:
        ca:4e:4d:90:45:77:54:b1:5e:d3:2e:b9:76:43:87:36:e1:a5:
        bc:de:20:3e:83:0f:ff:08:fa:c0:ce:30:41:7d:51:81:b6:e8:
        fc:eb:69:c6:20:cc:31:97:db:75:2b:7a:c3:41:4a:39:f5:2a:
        d0:bc:eb:c4:39:89:ea:f5:7d:75:13:d9:10:24:0f:a6:eb:67:
        91:71:e9:ad:4a:40:5c:27:96:10:34:6d:c1:29:65:6f:ef:97:
        8b:fd:56:7f:d2:6f:b1:10:a6:35:f6:54:80:b8:cc:ce:39:71:
        83:70:99:28:56:84:59:3b:a3:de:db:66:33:c1:6d:d8:a0:5b:
        db:3a:f3:24:c7:57:64:05
-----BEGIN CERTIFICATE-----
MIIFUDCCAzigAwIBAgIQS2z8fKqwzPWtAdWXWXGdMjANBgkqhkiG9w0BAQsFADBD
MQswCQYDVQQGEwJYWDEQMA4GA1UEChMHU29tZSBDQTEiMCAGA1UEAxMZRmFrZSBD
QSBmb3IgWmxpbnQgdGVzdGluZzAeFw0yNTEyMTYwOTI2NTFaFw0yNjEyMTYwOTI2
NTFaMFMxCzAJBgNVBAYTAlVTMRAwDgYDVQQHEwdOb3doZXJlMRowGAYDVQQKExFT
b21lIENvbXBhbnkgTHRkLjEWMBQGA1UEAxMNTGVvbiBNYW5kcmFrZTCCASIwDQYJ
KoZIhvcNAQEBBQADggEPADCCAQoCggEBANssfx8waoTRxU7kKPwI+61mAjExNc1f
D8p2aWCpbic9fBdzyFNSyW8ktWWCgh7xMTUbIAR0PLISpxNpoPoWYyXyxySNw74X
G9GBhRQEoI4Q5syyD8nTB1MCo75lOpP9j7gJwpOPrORmqo0qthQeSy6x3XckWj5Z
WtuuUK2L83+WRTP07PKSDgUVgGUS+P+V4nlQWk7w2CVZk1ykWnZSVl5l6LYzUzM8
sniaIStcpCJUi4WLhnciBRhk+m81mGUGUtXuagackZqBCuzHOHyA0Xuq4GFyJoDM
EgM77RZn3mk0tJuD1kvedK0UrsJxCCDWp4FVxJ2GHpP+gRepUPftZScCAwEAAaOC
AS4wggEqMA4GA1UdDwEB/wQEAwIFoDAdBgNVHSUEFjAUBggrBgEFBQcDAgYIKwYB
BQUHAwQwHQYDVR0OBBYEFI1keAnCy49lDprJ5LHGahnRlbXBMB8GA1UdIwQYMBaA
FOi29nZL0DvlRqX5VNR+B7PeDWA+MGQGCCsGAQUFBwEBBFgwVjApBggrBgEFBQcw
AYYdaHR0cDovL2NhLnNvbWVjYS1pbmMuY29tL29jc3AwKQYIKwYBBQUHMAKGHWh0
dHA6Ly9jYS5zb21lY2EtaW5jLmNvbS9yb290MCQGA1UdEQQdMBuBGUxlb24uTWFu
ZHJha2VAZXhhbXBsZS5jb20wLQYDVR0fBCYwJDAioCCgHoYcaHR0cDovL2NhLnNv
bWVjYS1pbmMuY29tL2NybDANBgkqhkiG9w0BAQsFAAOCAgEAaQMfAKMKhwfZ4WA1
yf51+0dM7xySjYO2+DY0e/7kUg6891tqDz9M+y+pneR16cv75HSqjgVJ+IalHj82
fq7d1APPz+/PEIwypduba/ZfBWvkrH9+tDz4h/uZlYiJNDNXnEGXnKCMW8E5PxA4
931FSIr8fLHgyCEw3j8ZzNXIFwINuWhrda7sQGUInd4ki2vEXAH+eW0PXMY3M88F
tG9KzJ90ExvHKGX6JxnIs7SMtjFv/x3pf6QrJev/+0HSK2LULA9Tab6XunN7lAW7
za6kSIZSRJVd8LQ1pJI00jpWiUHPSW7Z2B9OXYR5iIM3Nas7RxBogT+GrRrShoPm
qR4dGmV4wafj+xOZsVvClUOpT09Gxf2bacq+AWEsZcwzZRFFHMIcZ1nmiYsJR+rs
q61u1uOD+nodwIAHTLMO4Qe3/SBGd+al0SmtJKp4cWX5BmoNR8AgMk6jp9V8vxpP
mrPI6h0Sb6JgGuVfzdKS0hFeauetF/vNzSecUN5lyk5NkEV3VLFe0y65dkOHNuGl
vN4gPoMP/wj6wM4wQX1Rgbbo/OtpxiDMMZfbdSt6w0FKOfUq0LzrxDmJ6vV9dRPZ
ECQPputnkXHprUpAXCeWEDRtwSllb++Xi/1Wf9JvsRCmNfZUgLjMzjlxg3CZKFaE
WTuj3ttmM8Ft2KBb2zrzJMdXZAU=
-----END CERTIFICATE-----
