Certificate:
    Data:
        Version: 3 (0x2)
        Serial Number:
            9f:60:94:5a:99:5e:74:7d:61:5a:10:6e:02:ea:65:21
        Signature Algorithm: sha256WithRSAEncryption
        Issuer: C = XX, O = Some CA, CN = Fake CA for Zlint testing
        Validity
            Not Before: Sep  3 08:07:15 2025 GMT
            Not After : Sep  3 08:07:15 2026 GMT
        Subject: CN = Guenter.Grass@example.com
        Subject Public Key Info:
            Public Key Algorithm: rsaEncryption
                RSA Public-Key: (2048 bit)
                Modulus:
                    00:a0:3d:94:ef:72:05:d2:e8:a7:29:28:f4:ef:fc:
                    4f:e8:ed:8b:ba:c6:2f:81:cc:9a:84:97:d3:d8:9f:
                    bb:2b:c5:32:5f:ab:a6:c5:90:71:ec:0f:fd:5c:6d:
                    12:1b:df:ec:65:a7:ff:a1:ae:27:03:81:b8:d0:b1:
                    9c:d3:76:e4:af:b6:8b:54:ce:b4:2f:36:e6:4a:e1:
                    5e:a4:15:d2:74:a7:63:27:60:09:19:ae:30:dd:2c:
                    af:40:c8:b8:26:f2:6c:39:ab:57:bf:d7:57:07:c4:
                    e0:d1:dc:97:f0:3e:a5:41:16:65:b2:6d:dd:b9:f9:
                    73:4b:4e:6c:e2:79:5b:fe:c3:ed:71:ab:9a:fc:95:
                    74:56:39:ea:fb:c0:8e:45:1b:03:14:5d:b9:63:be:
                    fc:96:fd:43:58:d6:fd:57:1b:e5:79:e9:a5:26:b9:
                    74:b5:4a:4f:dc:ef:89:59:f4:08:50:bf:0c:c1:ab:
                    e2:30:d3:af:84:8f:04:e4:20:52:8d:18:ee:9a:11:
                    e2:5f:fc:29:7d:69:44:cc:66:da:16:be:5d:fc:d4:
                    f9:df:8c:e5:e8:e8:34:92:99:25:d4:a3:1f:07:af:
                    98:5f:0c:cc:2b:b8:18:ac:64:eb:80:ed:82:24:68:
                    87:a0:74:e6:fc:87:d9:e6:63:83:b8:fd:33:e5:19:
                    1a:7d
                Exponent: 65537 (0x10001)
        X509v3 extensions:
            X509v3 Key Usage: critical
                Digital Signature, Key Encipherment
            X509v3 Extended Key Usage: 
                TLS Web Client Authentication, E-mail Protection
            X509v3 Subject Key Identifier: 
                B6:CD:CC:F9:C7:95:42:F6:7D:06:76:AD:60:0C:F1:AF:DC:BF:8A:79
            X509v3 Authority Key Identifier: 
                keyid:E8:B6:F6:76:4B:D0:3B:E5:46:A5:F9:54:D4:7E:07:B3:DE:0D:60:3E

            Authority Information Access: 
                OCSP - URI:http://ca.someca-inc.com/ocsp
                CA Issuers - URI:http://ca.someca-inc.com/root

            X509v3 Subject Alternative Name: 
                email:Guenter.Grass@example.com
            X509v3 Certificate Policies: 
                Policy: 2.23.140.1.5.1.3

            X509v3 CRL Distribution Points: 

                Full Name:
                  URI:http://ca.someca-inc.com/crl

    Signature Algorithm: sha256WithRSAEncryption
         5c:a1:a4:a9:aa:3e:2f:24:e4:01:44:b1:a0:2b:50:2c:9c:4d:
         f6:d1:9b:cf:63:47:17:37:19:db:b2:2b:57:ba:3e:58:79:fb:
         1a:4a:65:08:1a:5a:38:a1:6b:19:7d:61:aa:90:c4:9b:32:bd:
         cb:1d:76:87:ee:36:c4:f5:21:89:3a:d5:ff:a1:fa:41:bb:e4:
         95:99:b3:95:24:ea:53:c4:29:ae:06:a5:f5:bd:49:43:57:76:
         9b:eb:db:d5:c5:f8:f0:49:31:aa:f1:8d:64:10:02:84:cb:6f:
         63:1e:ed:3d:54:b4:a1:c8:9d:7b:c5:38:c9:a5:90:d6:2b:f2:
         16:74:27:bd:8c:1a:3b:d4:d5:d3:82:de:f5:67:b1:95:cc:0a:
         28:ef:2e:3d:d3:f3:3e:d2:f0:0d:f2:38:0c:8a:a8:40:c9:c9:
         77:a8:09:b9:62:de:25:8d:b0:59:7f:39:ed:c6:cd:7b:8b:f4:
         2a:5c:4e:78:2e:53:27:60:d4:02:49:4f:48:d1:e5:83:55:d0:
         58:bd:e9:99:95:ee:37:d7:ee:c2:68:80:8a:fc:39:83:49:b5:
         e4:69:b7:40:75:2e:ad:f6:d7:f1:c1:7c:18:bb:17:99:33:5b:
         db:f1:4b:6f:35:52:dc:c5:ac:89:90:cd:c8:40:9e:cd:45:13:
         b5:26:81:bd:8f:f3:80:41:73:00:b3:b9:19:f1:31:0c:6b:81:
         78:e6:ec:eb:ec:b2:d2:40:51:cd:e6:b6:0a:59:78:6f:e8:bf:
         38:f5:eb:f0:20:6f:ca:cf:74:d7:d5:4a:a5:31:ca:e5:3e:ea:
         b2:b5:4b:4e:28:f8:f1:6f:63:49:e2:fc:9d:f3:5d:48:91:ad:
         92:76:7d:03:16:be:e9:56:d1:c5:50:d4:d7:4c:28:6d:7b:b9:
         88:d7:20:d3:04:14:2c:55:50:4f:80:56:21:3a:f9:56:52:cb:
         e7:05:02:cf:3c:fe:43:c2:b4:50:ae:c1:95:f7:a7:44:db:12:
         0b:7d:36:5b:ac:ad:b3:0d:fe:92:f3:69:e4:db:c4:17:15:f4:
         d8:b8:6a:11:f7:24:d2:08:ed:a4:55:f5:23:64:cf:c4:9a:c1:
         c1:e1:88:68:c2:2d:f4:a6:cd:35:98:72:94:f2:74:08:d4:6f:
         f0:c0:ef:27:d2:1c:0c:8f:91:46:c4:36:30:3b:5e:b8:6f:e6:
         aa:7d:62:5d:fd:03:5d:c4:e6:38:6e:84:ea:5b:5c:ba:8d:58:
         76:11:f6:28:70:d5:1f:b5:2f:86:a1:bd:c0:4d:92:58:83:5d:
         94:71:d6:38:b3:87:ed:56:41:ee:04:b4:15:15:c7:74:29:b0:
         51:23:ba:f9:3a:53:30:19
-----BEGIN CERTIFICATE-----
MIIFODCCAyCgAwIBAgIRAJ9glFqZXnR9YVoQbgLqZSEwDQYJKoZIhvcNAQELBQAw
QzELMAkGA1UEBhMCWFgxEDAOBgNVBAoTB1NvbWUgQ0ExIjAgBgNVBAMTGUZha2Ug
Q0EgZm9yIFpsaW50IHRlc3RpbmcwHhcNMjUwOTAzMDgwNzE1WhcNMjYwOTAzMDgw
NzE1WjAkMSIwIAYDVQQDDBlHdWVudGVyLkdyYXNzQGV4YW1wbGUuY29tMIIBIjAN
BgkqhkiG9w0BAQEFAAOCAQ8AMIIBCgKCAQEAoD2U73IF0uinKSj07/xP6O2LusYv
gcyahJfT2J+7K8UyX6umxZBx7A/9XG0SG9/sZaf/oa4nA4G40LGc03bkr7aLVM60
LzbmSuFepBXSdKdjJ2AJGa4w3SyvQMi4JvJsOatXv9dXB8Tg0dyX8D6lQRZlsm3d
uflzS05s4nlb/sPtcaua/JV0Vjnq+8CORRsDFF25Y778lv1DWNb9VxvleemlJrl0
tUpP3O+JWfQIUL8MwaviMNOvhI8E5CBSjRjumhHiX/wpfWlEzGbaFr5d/NT534zl
6Og0kpkl1KMfB6+YXwzMK7gYrGTrgO2CJGiHoHTm/IfZ5mODuP0z5RkafQIDAQAB
o4IBRDCCAUAwDgYDVR0PAQH/BAQDAgWgMB0GA1UdJQQWMBQGCCsGAQUFBwMCBggr
BgEFBQcDBDAdBgNVHQ4EFgQUts3M+ceVQvZ9BnatYAzxr9y/inkwHwYDVR0jBBgw
FoAU6Lb2dkvQO+VGpflU1H4Hs94NYD4wZAYIKwYBBQUHAQEEWDBWMCkGCCsGAQUF
BzABhh1odHRwOi8vY2Euc29tZWNhLWluYy5jb20vb2NzcDApBggrBgEFBQcwAoYd
aHR0cDovL2NhLnNvbWVjYS1pbmMuY29tL3Jvb3QwJAYDVR0RBB0wG4EZR3VlbnRl
ci5HcmFzc0BleGFtcGxlLmNvbTAUBgNVHSAEDTALMAkGB2eBDAEFAQMwLQYDVR0f
BCYwJDAioCCgHoYcaHR0cDovL2NhLnNvbWVjYS1pbmMuY29tL2NybDANBgkqhkiG
9w0BAQsFAAOCAgEAXKGkqao+LyTkAUSxoCtQLJxN9tGbz2NHFzcZ27IrV7o+WHn7
GkplCBpaOKFrGX1hqpDEmzK9yx12h+42xPUhiTrV/6H6QbvklZmzlSTqU8Qprgal
9b1JQ1d2m+vb1cX48EkxqvGNZBAChMtvYx7tPVS0ocide8U4yaWQ1ivyFnQnvYwa
O9TV04Le9WexlcwKKO8uPdPzPtLwDfI4DIqoQMnJd6gJuWLeJY2wWX857cbNe4v0
KlxOeC5TJ2DUAklPSNHlg1XQWL3pmZXuN9fuwmiAivw5g0m15Gm3QHUurfbX8cF8
GLsXmTNb2/FLbzVS3MWsiZDNyECezUUTtSaBvY/zgEFzALO5GfExDGuBeObs6+yy
0kBRzea2Cll4b+i/OPXr8CBvys9019VKpTHK5T7qsrVLTij48W9jSeL8nfNdSJGt
knZ9Axa+6VbRxVDU10wobXu5iNcg0wQULFVQT4BWITr5VlLL5wUCzzz+Q8K0UK7B
lfenRNsSC302W6ytsw3+kvNp5NvEFxX02LhqEfck0gjtpFX1I2TPxJrBweGIaMIt
9KbNNZhylPJ0CNRv8MDvJ9IcDI+RRsQ2MDteuG/mqn1iXf0DXcTmOG6E6ltcuo1Y
dhH2KHDVH7UvhqG9wE2SWINdlHHWOLOH7VZB7gS0FRXHdCmwUSO6+TpTMBk=
-----END CERTIFICATE-----
