Certificate:
    Data:
        Version: 3 (0x2)
        Serial Number:
            2f:fd:32:bc:1f:42:65:48:b3:34:c5:db:e1:d1:84:6c
        Signature Algorithm: sha256WithRSAEncryption
        Issuer: C=XX, O=Some CA, CN=Fake CA for Zlint testing
        Validity
            Not Before: Jul 28 15:36:33 2025 GMT
            Not After : Jul 28 15:36:33 2026 GMT
        Subject: CN=Guenter.Grass@example.com
        Subject Public Key Info:
            Public Key Algorithm: rsaEncryption
                Public-Key: (2048 bit)
                Modulus:
                    00:d9:e6:43:d2:28:ce:e7:7a:d3:b1:75:c9:58:e5:
                    70:d1:71:37:1b:4f:15:21:bb:bf:c5:21:0e:52:67:
                    0a:af:7f:8e:f8:0f:ae:00:64:b6:44:d0:67:d2:a0:
                    ec:b2:42:c2:34:5f:d3:f6:37:9f:11:73:6c:36:83:
                    7f:f7:b9:4d:b0:3c:b2:4c:47:df:10:31:64:cb:bf:
                    ee:56:d1:5b:6b:b4:fe:99:54:4d:88:62:e6:8d:89:
                    17:5c:9d:da:7e:12:9b:ed:6d:ae:51:09:33:23:dd:
                    58:66:30:28:d7:23:1a:c3:23:d3:4d:13:02:00:96:
                    38:f7:56:fd:eb:d8:6e:1e:a7:73:1c:91:e7:94:57:
                    0c:34:51:1a:33:af:12:bd:4a:86:93:2b:34:94:bb:
                    cc:4b:b0:4c:95:e9:b2:84:76:07:cb:51:72:d5:f6:
                    50:e0:ef:a6:11:54:aa:68:29:00:fb:95:50:52:93:
                    47:b1:d5:f2:25:3b:26:79:45:48:54:9d:61:ef:1d:
                    3e:51:d7:e9:fa:30:63:3f:f3:5b:a2:70:9d:ee:67:
                    89:23:53:89:ec:29:1c:16:2a:f9:b7:a4:a1:91:54:
                    67:81:3c:86:ca:2f:30:c1:6f:05:55:01:92:2e:07:
                    dd:b4:f6:e2:e1:68:9a:fa:94:39:ec:2c:03:9f:57:
                    f7:f9
                Exponent: 65537 (0x10001)
        X509v3 extensions:
            X509v3 Key Usage: critical
                Digital Signature, Key Encipherment
            X509v3 Extended Key Usage: 
                TLS Web Client Authentication, E-mail Protection
            X509v3 Subject Key Identifier: 
                8C:AD:F3:2A:37:15:FF:7B:A8:CD:5B:B6:D5:6F:74:D8:0A:18:2C:97
            X509v3 Authority Key Identifier: 
                E8:B6:F6:76:4B:D0:3B:E5:46:A5:F9:54:D4:7E:07:B3:DE:0D:60:3E
            Authority Information Access: 
                OCSP - URI:http://ca.someca-inc.com/ocsp
                CA Issuers - URI:http://ca.someca-inc.com/root
            X509v3 Subject Alternative Name: 
                email:Guenter.Grass@example.com
            X509v3 Certificate Policies: 
                Policy: 2.23.140.1.5.1.3
            X509v3 CRL Distribution Points: 
                Full Name:
                  URI:http://ca.someca-inc.com/crl
    Signature Algorithm: sha256WithRSAEncryption
    Signature Value:
        72:4e:61:b4:20:c9:a8:8b:28:48:ee:31:f3:20:22:7d:bf:54:
        a6:66:82:35:78:11:3a:60:67:c6:da:f6:b9:42:53:5e:44:a3:
        0b:ac:ea:dd:0e:b8:85:c9:8d:f7:df:99:98:44:47:8e:f2:19:
        2d:cf:61:ed:6b:f2:00:c0:24:9b:5e:55:0f:b1:64:48:72:0f:
        47:93:ea:48:51:8e:dd:51:7c:9e:03:06:8a:8a:1b:ed:17:ec:
        ef:df:cb:89:41:be:5a:c4:21:7c:db:d0:ec:e8:1a:1c:91:b5:
        a3:07:99:6f:49:8b:17:de:54:45:dc:ad:ed:bf:67:c2:9e:fa:
        3b:cf:c1:04:92:7f:f6:b6:9f:5c:b7:f1:09:d3:00:a1:d8:b2:
        6e:33:79:1d:ee:c2:1f:c0:c5:8e:b3:05:69:45:7a:04:d5:0e:
        12:1f:94:bd:cc:40:ea:63:81:bb:41:a7:73:6f:3d:cc:cc:bd:
        e3:65:14:6c:94:23:11:da:04:7c:55:4a:5e:ca:5e:92:49:6e:
        6b:80:a7:d4:36:b3:b9:81:d3:fc:41:83:23:2b:70:29:76:19:
        07:f0:fd:a0:c1:de:f9:4d:aa:d6:c6:aa:94:51:88:16:1e:19:
        92:03:ff:4d:5e:8f:11:c3:cb:07:82:fe:f9:80:2b:b9:38:65:
        55:b8:4f:5e:41:8a:d0:a8:b9:f0:1e:60:ae:b1:18:bd:73:a6:
        67:3e:81:35:81:d4:a2:a9:5e:5a:4a:a4:91:2d:5d:ae:bf:d1:
        47:e1:8c:49:9d:19:0b:c2:fe:46:dd:8f:9a:84:f1:8f:1c:c0:
        09:b2:48:0e:bd:c4:72:9f:81:6e:42:34:a2:8d:f5:c2:27:6c:
        81:6b:7d:d7:a2:c8:af:c8:c1:32:13:64:61:27:06:6f:58:08:
        65:02:b7:3d:71:b3:86:9b:25:0a:ed:fe:3d:2f:a2:bb:d3:39:
        38:9f:d6:5c:63:47:1d:a3:73:2b:9d:bc:55:dd:52:b2:92:01:
        5c:98:6d:2f:4b:a8:62:01:59:4f:54:ce:11:f8:dd:08:82:af:
        bb:9c:37:19:a6:7f:bc:0c:9b:a5:81:5e:33:b1:f4:99:f6:95:
        7d:89:ff:b7:6c:b4:3b:10:f0:d9:82:cd:c5:40:d5:37:13:8f:
        92:8e:06:94:2b:82:4b:9d:ec:7b:89:61:62:5d:a1:9a:89:e8:
        85:4b:00:8f:b8:ce:8f:01:a8:83:6b:ec:2d:06:a2:bf:fe:5a:
        c1:73:25:93:9c:b6:97:af:36:09:f6:16:72:d3:6a:33:b3:9f:
        b6:86:24:e9:3a:40:75:01:49:ea:ed:4e:a5:82:10:21:51:78:
        2e:5e:41:69:75:1c:7b:67
-----BEGIN CERTIFICATE-----
MIIFNzCCAx+gAwIBAgIQL/0yvB9CZUizNMXb4dGEbDANBgkqhkiG9w0BAQsFADBD
MQswCQYDVQQGEwJYWDEQMA4GA1UEChMHU29tZSBDQTEiMCAGA1UEAxMZRmFrZSBD
QSBmb3IgWmxpbnQgdGVzdGluZzAeFw0yNTA3MjgxNTM2MzNaFw0yNjA3MjgxNTM2
MzNaMCQxIjAgBgNVBAMMGUd1ZW50ZXIuR3Jhc3NAZXhhbXBsZS5jb20wggEiMA0G
CSqGSIb3DQEBAQUAA4IBDwAwggEKAoIBAQDZ5kPSKM7netOxdclY5XDRcTcbTxUh
u7/FIQ5SZwqvf474D64AZLZE0GfSoOyyQsI0X9P2N58Rc2w2g3/3uU2wPLJMR98Q
MWTLv+5W0VtrtP6ZVE2IYuaNiRdcndp+Epvtba5RCTMj3VhmMCjXIxrDI9NNEwIA
ljj3Vv3r2G4ep3MckeeUVww0URozrxK9SoaTKzSUu8xLsEyV6bKEdgfLUXLV9lDg
76YRVKpoKQD7lVBSk0ex1fIlOyZ5RUhUnWHvHT5R1+n6MGM/81uicJ3uZ4kjU4ns
KRwWKvm3pKGRVGeBPIbKLzDBbwVVAZIuB9209uLhaJr6lDnsLAOfV/f5AgMBAAGj
ggFEMIIBQDAOBgNVHQ8BAf8EBAMCBaAwHQYDVR0lBBYwFAYIKwYBBQUHAwIGCCsG
AQUFBwMEMB0GA1UdDgQWBBSMrfMqNxX/e6jNW7bVb3TYChgslzAfBgNVHSMEGDAW
gBTotvZ2S9A75Ual+VTUfgez3g1gPjBkBggrBgEFBQcBAQRYMFYwKQYIKwYBBQUH
MAGGHWh0dHA6Ly9jYS5zb21lY2EtaW5jLmNvbS9vY3NwMCkGCCsGAQUFBzAChh1o
dHRwOi8vY2Euc29tZWNhLWluYy5jb20vcm9vdDAkBgNVHREEHTAbgRlHdWVudGVy
LkdyYXNzQGV4YW1wbGUuY29tMBQGA1UdIAQNMAswCQYHZ4EMAQUBAzAtBgNVHR8E
JjAkMCKgIKAehhxodHRwOi8vY2Euc29tZWNhLWluYy5jb20vY3JsMA0GCSqGSIb3
DQEBCwUAA4ICAQByTmG0IMmoiyhI7jHzICJ9v1SmZoI1eBE6YGfG2va5QlNeRKML
rOrdDriFyY3335mYREeO8hktz2Hta/IAwCSbXlUPsWRIcg9Hk+pIUY7dUXyeAwaK
ihvtF+zv38uJQb5axCF829Ds6BockbWjB5lvSYsX3lRF3K3tv2fCnvo7z8EEkn/2
tp9ct/EJ0wCh2LJuM3kd7sIfwMWOswVpRXoE1Q4SH5S9zEDqY4G7Qadzbz3MzL3j
ZRRslCMR2gR8VUpeyl6SSW5rgKfUNrO5gdP8QYMjK3ApdhkH8P2gwd75TarWxqqU
UYgWHhmSA/9NXo8Rw8sHgv75gCu5OGVVuE9eQYrQqLnwHmCusRi9c6ZnPoE1gdSi
qV5aSqSRLV2uv9FH4YxJnRkLwv5G3Y+ahPGPHMAJskgOvcRyn4FuQjSijfXCJ2yB
a33XosivyMEyE2RhJwZvWAhlArc9cbOGmyUK7f49L6K70zk4n9ZcY0cdo3MrnbxV
3VKykgFcmG0vS6hiAVlPVM4R+N0Igq+7nDcZpn+8DJulgV4zsfSZ9pV9if+3bLQ7
EPDZgs3FQNU3E4+SjgaUK4JLnex7iWFiXaGaieiFSwCPuM6PAaiDa+wtBqK//lrB
cyWTnLaXrzYJ9hZy02ozs5+2hiTpOkB1AUnq7U6lghAhUXguXkFpdRx7Zw==
-----END CERTIFICATE-----
