Certificate:
    Data:
        Version: 3 (0x2)
        Serial Number:
            dc:e9:7a:d2:96:11:b9:b1:e0:8a:83:14:a1:d8:ed:fc
        Signature Algorithm: sha256WithRSAEncryption
        Issuer: C = XX, O = Some CA, CN = Fake CA for Zlint testing
        Validity
            Not Before: Sep  3 08:11:33 2025 GMT
            Not After : Sep  3 08:11:33 2026 GMT
        Subject: CN = Guenter.Grass@example.com
        Subject Public Key Info:
            Public Key Algorithm: id-ecPublicKey
                Public-Key: (224 bit)
                pub:
                    04:54:46:9f:e5:67:33:ec:63:82:2c:e9:34:6f:a2:
                    86:33:68:5f:f0:24:48:c1:b6:5f:64:2c:10:31:f4:
                    02:e1:e4:f4:6e:24:92:09:cc:db:0d:b6:49:25:7b:
                    99:72:54:f4:f2:cd:27:4c:69:40:54:28
                ASN1 OID: secp224r1
                NIST CURVE: P-224
        X509v3 extensions:
            X509v3 Key Usage: critical
                Digital Signature
            X509v3 Extended Key Usage: 
                TLS Web Client Authentication, E-mail Protection
            X509v3 Subject Key Identifier: 
                DE:8A:84:7B:FF:8C:34:3D:69:B8:53:A2:15:E6:EE:77:5E:F2:EF:96
            X509v3 Authority Key Identifier: 
                keyid:E8:B6:F6:76:4B:D0:3B:E5:46:A5:F9:54:D4:7E:07:B3:DE:0D:60:3E

            Authority Information Access: 
                OCSP - URI:http://ca.someca-inc.com/ocsp
                CA Issuers - URI:http://ca.someca-inc.com/root

            X509v3 Subject Alternative Name: 
                email:Guenter.Grass@example.com
            X509v3 Certificate Policies: 
                Policy: 2.23.140.1.5.1.3

            X509v3 CRL Distribution Points: 

                Full Name:
                  URI:http://ca.someca-inc.com/crl

    Signature Algorithm: sha256WithRSAEncryption
         12:39:59:3e:0c:0e:78:90:00:b3:7f:0f:66:3d:b8:7d:81:35:
         24:be:13:38:0a:29:48:a9:2f:35:ae:14:28:60:5c:1c:9f:9a:
         1a:e8:f2:1f:7e:50:bc:e1:26:d6:16:ef:30:2d:17:1a:cf:8e:
         28:e7:0a:d5:fa:9a:22:2f:3a:19:f0:2c:fe:f4:5d:1f:ed:29:
         57:4a:97:c9:b1:14:77:a0:2c:fd:62:fb:94:fb:f7:68:0f:3e:
         17:9a:30:1b:b9:97:ad:ac:65:8c:ce:0d:cc:5c:80:56:db:b2:
         4c:81:d7:76:39:01:ab:2e:37:46:77:f9:77:74:04:e7:32:df:
         14:9b:18:20:72:0d:80:ac:89:cb:6d:c7:c1:eb:1a:b0:41:0a:
         f5:81:43:1a:a7:a5:98:0e:e5:6f:e7:1f:dd:a9:4e:e6:40:9f:
         3a:59:f6:ae:05:32:23:fe:b2:1c:f9:33:9d:ce:7f:85:2d:f1:
         a6:2b:38:72:63:93:5e:62:f8:21:57:b7:03:40:2f:ba:b4:cf:
         e9:c2:df:1d:58:26:1e:a5:45:93:b0:60:33:84:44:be:3d:fd:
         00:1c:57:4a:1c:05:31:32:c9:c6:79:d5:82:26:44:10:24:32:
         57:38:76:05:91:55:d5:a7:8f:53:e1:c5:de:e8:6a:89:2d:c0:
         a5:db:24:5c:df:e7:dc:1a:25:48:f5:80:08:0f:45:aa:92:62:
         a5:83:df:53:48:05:28:aa:6a:57:3a:4f:56:82:78:46:f6:67:
         9b:18:d0:00:f6:b0:15:85:0a:08:6d:e3:df:41:b0:56:8c:e0:
         79:c6:af:bc:09:a1:7a:a9:34:d6:59:3f:ac:c6:05:1b:8a:c7:
         69:f4:8e:98:83:3e:7b:d8:56:63:69:5c:b8:51:68:f5:3f:cc:
         0c:ea:a4:23:06:3d:e9:82:ea:09:85:26:d6:29:b7:85:94:78:
         16:e0:99:70:8a:68:fb:e1:93:e8:d8:a4:83:67:5b:4f:a6:18:
         5e:44:19:c5:f6:08:61:e7:8c:c1:bc:fc:4c:c7:b8:23:3c:83:
         c4:2b:25:a3:f6:d9:d9:89:e6:7d:8e:b1:40:ee:6c:bf:95:d3:
         33:f0:16:f9:d8:76:45:a9:6f:39:63:9b:a0:48:c9:8f:21:e3:
         38:78:5f:a3:76:44:34:59:0b:bb:48:97:ff:4b:57:d2:fb:93:
         d0:9b:d2:a7:45:37:6c:56:fa:3b:6a:a1:bc:ca:04:db:75:8b:
         7c:c0:27:23:45:f7:98:34:6d:cd:fa:3e:f0:89:8f:ec:97:5b:
         4d:86:3f:d2:f2:b5:7b:69:e3:68:b2:24:8b:63:7b:fe:cc:04:
         c0:b6:2b:62:42:5e:cf:c2
-----BEGIN CERTIFICATE-----
MIIEYjCCAkqgAwIBAgIRANzpetKWEbmx4IqDFKHY7fwwDQYJKoZIhvcNAQELBQAw
QzELMAkGA1UEBhMCWFgxEDAOBgNVBAoTB1NvbWUgQ0ExIjAgBgNVBAMTGUZha2Ug
Q0EgZm9yIFpsaW50IHRlc3RpbmcwHhcNMjUwOTAzMDgxMTMzWhcNMjYwOTAzMDgx
MTMzWjAkMSIwIAYDVQQDDBlHdWVudGVyLkdyYXNzQGV4YW1wbGUuY29tME4wEAYH
KoZIzj0CAQYFK4EEACEDOgAEVEaf5Wcz7GOCLOk0b6KGM2hf8CRIwbZfZCwQMfQC
4eT0biSSCczbDbZJJXuZclT08s0nTGlAVCijggFEMIIBQDAOBgNVHQ8BAf8EBAMC
B4AwHQYDVR0lBBYwFAYIKwYBBQUHAwIGCCsGAQUFBwMEMB0GA1UdDgQWBBTeioR7
/4w0PWm4U6IV5u53XvLvljAfBgNVHSMEGDAWgBTotvZ2S9A75Ual+VTUfgez3g1g
PjBkBggrBgEFBQcBAQRYMFYwKQYIKwYBBQUHMAGGHWh0dHA6Ly9jYS5zb21lY2Et
aW5jLmNvbS9vY3NwMCkGCCsGAQUFBzAChh1odHRwOi8vY2Euc29tZWNhLWluYy5j
b20vcm9vdDAkBgNVHREEHTAbgRlHdWVudGVyLkdyYXNzQGV4YW1wbGUuY29tMBQG
A1UdIAQNMAswCQYHZ4EMAQUBAzAtBgNVHR8EJjAkMCKgIKAehhxodHRwOi8vY2Eu
c29tZWNhLWluYy5jb20vY3JsMA0GCSqGSIb3DQEBCwUAA4ICAQASOVk+DA54kACz
fw9mPbh9gTUkvhM4CilIqS81rhQoYFwcn5oa6PIfflC84SbWFu8wLRcaz44o5wrV
+poiLzoZ8Cz+9F0f7SlXSpfJsRR3oCz9YvuU+/doDz4XmjAbuZetrGWMzg3MXIBW
27JMgdd2OQGrLjdGd/l3dATnMt8Umxggcg2ArInLbcfB6xqwQQr1gUMap6WYDuVv
5x/dqU7mQJ86WfauBTIj/rIc+TOdzn+FLfGmKzhyY5NeYvghV7cDQC+6tM/pwt8d
WCYepUWTsGAzhES+Pf0AHFdKHAUxMsnGedWCJkQQJDJXOHYFkVXVp49T4cXe6GqJ
LcCl2yRc3+fcGiVI9YAID0WqkmKlg99TSAUoqmpXOk9WgnhG9mebGNAA9rAVhQoI
bePfQbBWjOB5xq+8CaF6qTTWWT+sxgUbisdp9I6Ygz572FZjaVy4UWj1P8wM6qQj
Bj3pguoJhSbWKbeFlHgW4Jlwimj74ZPo2KSDZ1tPphheRBnF9ghh54zBvPxMx7gj
PIPEKyWj9tnZieZ9jrFA7my/ldMz8Bb52HZFqW85Y5ugSMmPIeM4eF+jdkQ0WQu7
SJf/S1fS+5PQm9KnRTdsVvo7aqG8ygTbdYt8wCcjRfeYNG3N+j7wiY/sl1tNhj/S
8rV7aeNosiSLY3v+zATAtitiQl7Pwg==
-----END CERTIFICATE-----
