Certificate:
    Data:
        Version: 3 (0x2)
        Serial Number:
            ea:cd:5e:f6:1a:f0:2d:31:52:b4:47:ac:c8:89:79:7d
        Signature Algorithm: sha256WithRSAEncryption
        Issuer: CN = Fake CA for Zlint testing
        Validity
            Not Before: Sep  3 08:28:20 2025 GMT
            Not After : Sep  3 08:28:20 2026 GMT
        Subject: CN = Leon.Mandrake@example.com
        Subject Public Key Info:
            Public Key Algorithm: 2.16.840.1.101.3.4.4.3
            Unable to load Public Key
128853596901824:error:0609E09C:digital envelope routines:pkey_set_type:unsupported algorithm:../crypto/evp/p_lib.c:210:
128853596901824:error:0B09406F:x509 certificate routines:x509_pubkey_decode:unsupported algorithm:../crypto/x509/x_pubkey.c:113:
        X509v3 extensions:
            X509v3 Key Usage: critical
                Digital Signature
            X509v3 Extended Key Usage: 
                E-mail Protection
            X509v3 Certificate Policies: 
                Policy: 2.23.140.1.5.1.3

            X509v3 Authority Key Identifier: 
                keyid:E8:B6:F6:76:4B:D0:3B:E5:46:A5:F9:54:D4:7E:07:B3:DE:0D:60:3E

            X509v3 Subject Alternative Name: 
                email:Leon.Mandrake@example.com
            X509v3 CRL Distribution Points: 

                Full Name:
                  URI:http://ca.someca-inc.com/crl

    Signature Algorithm: sha256WithRSAEncryption
         3a:9e:ab:d0:ba:a4:4a:5f:3e:6c:18:1e:34:13:76:e7:1c:50:
         06:ca:e7:5f:b9:db:e7:9a:9f:b8:f6:b7:4b:5e:2b:16:69:ab:
         70:93:8e:c8:09:5b:89:93:52:df:8f:9e:e2:d7:45:b4:b6:29:
         46:21:d5:ab:69:20:62:29:0b:30:d5:d2:ca:1d:7b:0f:1b:d3:
         c6:9b:91:4a:67:fc:cc:d4:1a:8b:97:a9:c2:2e:a1:bd:2c:cb:
         06:79:43:f5:7f:cd:2c:aa:2d:14:7d:e0:7b:7f:2a:18:26:70:
         cd:f2:a4:1d:ea:7b:e2:bb:d9:e5:96:d4:d9:7f:1f:c8:94:fd:
         60:0b:e1:8b:01:28:36:d4:c5:7d:48:29:2c:39:f7:46:6d:c3:
         f2:61:bb:63:bd:ed:7e:7a:2c:26:41:89:94:e0:1e:6e:e6:3a:
         fe:6e:2f:8c:ce:49:d3:9f:48:99:0c:a8:bd:f4:cf:c8:b6:79:
         55:37:b1:07:d1:48:5a:d1:17:ce:34:50:0a:8c:0b:e2:7d:dd:
         fd:7b:bb:f5:13:14:9b:4d:1b:7f:d3:88:b7:67:86:b0:f0:59:
         c2:2d:a3:ff:5f:ce:05:4a:4c:da:b9:f3:99:ca:b8:ff:54:8d:
         d5:4d:7b:e7:4f:fe:f0:d3:ac:d2:75:cd:84:ac:bf:41:19:54:
         b6:04:b9:19:a7:32:41:ac:54:80:13:2b:ce:c0:c3:c5:cd:40:
         ed:9d:f9:6e:74:53:86:d6:0d:6c:37:88:c4:a6:ed:7f:91:5c:
         c0:f1:bc:a1:7e:84:a6:22:85:49:f5:60:4a:96:cd:77:07:11:
         dd:dd:52:05:9c:08:89:14:de:3c:21:cb:27:fd:be:c2:dc:5d:
         34:f0:69:41:f9:ad:b3:89:31:45:c1:2b:10:95:fb:22:12:60:
         aa:95:f8:3e:70:69:3b:25:d6:f0:4c:2d:d9:5f:7c:4b:cc:0f:
         65:1e:5a:22:a7:07:06:ae:4a:97:ea:1a:73:04:3c:94:fd:5b:
         de:c4:bf:e8:14:f2:fd:6c:4b:f2:3b:3c:ab:9d:e7:a4:91:07:
         29:10:19:2d:eb:e4:ae:7e:57:db:29:e8:13:02:dd:7c:d7:3e:
         7b:b5:e1:b9:23:89:89:e5:87:49:86:9c:bf:b6:02:20:a1:54:
         3f:34:d1:90:e4:06:f5:6c:2f:7a:e0:1e:d3:01:89:2c:f9:0f:
         51:f7:aa:e1:31:4c:6f:60:bd:30:65:da:1e:f6:38:d6:78:8f:
         15:02:b7:9d:d7:46:bf:8b:cd:f4:e3:62:f1:1c:35:b1:9a:10:
         36:9e:5d:4b:92:1c:e1:46:04:ac:2a:a4:35:92:5e:f2:51:61:
         f4:2a:15:1e:d3:c2:79:be
-----BEGIN CERTIFICATE-----
MIIJmDCCB4CgAwIBAgIRAOrNXvYa8C0xUrRHrMiJeX0wDQYJKoZIhvcNAQELBQAw
JDEiMCAGA1UEAxMZRmFrZSBDQSBmb3IgWmxpbnQgdGVzdGluZzAeFw0yNTA5MDMw
ODI4MjBaFw0yNjA5MDMwODI4MjBaMCQxIjAgBgNVBAMMGUxlb24uTWFuZHJha2VA
ZXhhbXBsZS5jb20wggYyMAsGCWCGSAFlAwQEAwOCBiEAaHJqJUIhWhZB0tBeOtY3
1MNNWLChXaZTfcV4G1fHmWIbRhjGoKyVZoU/bctCrYA+JnKSNjEAsMg8TDMTJfHP
K9Om3pebcdCH9pN0OTqiXiWAjVykxqVhmpApppuuunK+bftiLWld0CfA25qwQddR
2bGbpmkoHjWJDup3/EEW2LNJ5NuvcBE19HVqY1As00SvkAtk/Kp83BE+JDGOYgN6
2EVlRtiMypF8C2Ee7FsEFFB6rkuzJaNwW1tS78gBQ0WWUBYBteojbscBtKzBQvxN
97w+wddnObSzrlTJ6TCJVnVzdRoqBms+zxBVfawrMVEL2dqZcEYoMJeyMVuFUNVZ
3aEG6ON8luxnEGUPHyM0XcfCoUUh5FVGLBWv5ZQQOzkxq+ZcIoAEolmfjJvF4co/
YyXJUIhquXS2u+lmwTN0JGifCUG9plXE2US9MfxOzaQ8n2yC9OVu8wEodAuvXlhK
N1R9ZOzG5phRNYW7SSoOsJkeYtadZNeiTcZmM4QpluOYcLrKUJp2V1NcBDZqGEYu
abNsr7sl3gtnzsaTEGqrx6AA4WQ53OBP6LRQfHsSHyyIJ9l9IQZ73uScabxXKkJp
yISkfRa6QIJGbEZHZfhk2sAzOIct/UIOgZxQETqRImK0zzU+TPbCDnZ2xHcjnQEM
8+mOELSFOeJPaUiYr3cdSkk8n/w2n/B4OuMRDoJPIRV0aUMN+ySo/2VJIOB+uBYy
iSKytpUzhcxAZrBS+bJRpcg24MTGMZc/vpytOst2aAgbK2kEPagqHNEBK2Rm8RYj
RVtA0LyvxeWo0Ax57fpuYGxPnXSoyPp9x2SyLLwgyWmJn9vJM9GO7TLEOvkQX8mi
AJy26ySMUluBnbM5/jl8ESIcPsVDTBJKF/d1+XgDntsz/LfBq5aKnTuzdXDASVUb
1pyrWtRK3HxlGta2JzQHdYOU6WaEz5SijXSx0kVqDdQyq3gRhkGvGnZepea/74i5
+gvDstnB+pKiY3qMoVS373Fbclwr8cY6mbqgzBFvK9pUi7LBXimNxxgyslkSPRZn
U5xqdxYlE9q7mSuBPbZRApw6AbMNTPaEZUUHSTXEjoClRsZOfIPF8VPOjMGlsaO+
U1qraIFFjomRcrNaq5USvildm9ZhKmmmZutAL5yXQUGztnRdk6vODVtb+zcBzTEz
P0yOEThKrBaLQrHPkWGbNjIN+zGO6MUzzQOaeFQwsnoPKYQ8aHdCasiPnwFpFui6
MMo2QUqqUKxV06lp2wp51Aeu7csROMulBhZ0iUqcbbJAnutg0rChV7xJsIJxPdR1
5lVHRyMfo0osDWqHpESETETJSSsUQRu52kCvB/rCNzkuY0EYOUGxeMNo9hixsnjB
07YJU7KRmTMjKzGXFVBjrpgiE/quAQZ5S2Ayh5MqLVKMk/t0nvzB90dSBKWbhDop
5zR2eKQYWEgBcYCqHBKjbWNnBoMNrHEzDFtZa+qJgZGth/M0a6wlCsmtPuke4Lpt
s5mOnEmAMXg2h5UzY/JYtuxv6BujG3tZXoGp+cxctaceYgqTe3O0t0RProC8JmQt
bhGDiRZPm4qW8CRDaZGxcOFkQtycbMO7acduiOF9L/mDDRN4MRKXIfVyH5KUTQa6
0Lmtwct11urC5awKu1SgCHZSwiY/prxR0WFj4Niu5Lkthxkgs1FzJYhBaJpoTvQf
vGSnuHoEJ7dD8ZJQAmw1NHO/8BxdL0Og2tssormr7hqT/LI40ukj0eBJG4yudilV
5+eAyVU1rFRuAat2qypX90IWSCx2BqRME3e+fUotfDkZBDKNfHF6X/WeQju0ZPw6
vnA5kwJB5gNLFFyDBEekgmpx9dRhWqeF3jigG5yihYk5p4dIARi/X/q6u2MjfDUl
RMlhvAsYvIs2AXDOsDBlCHJNFodaiwh7RuKBALjEeUt2cbi8V1tCsLGZPUFIyjQk
pmwmy7iIYFSbqACVrEcLthWEWLlfi2aVwgCKJEp714I0hPEbBOCotbaTFFkJh2t3
MfuR2cQxFHu5jXOhVYEEWIEXo2Cuo3ZFm3tkWsCnoInK06xtEcJCMC8SbRzNc+zj
g55/fDtd1hnxlz2YmF7BSh2jgbQwgbEwDgYDVR0PAQH/BAQDAgeAMBMGA1UdJQQM
MAoGCCsGAQUFBwMEMBQGA1UdIAQNMAswCQYHZ4EMAQUBAzAfBgNVHSMEGDAWgBTo
tvZ2S9A75Ual+VTUfgez3g1gPjAkBgNVHREEHTAbgRlMZW9uLk1hbmRyYWtlQGV4
YW1wbGUuY29tMC0GA1UdHwQmMCQwIqAgoB6GHGh0dHA6Ly9jYS5zb21lY2EtaW5j
LmNvbS9jcmwwDQYJKoZIhvcNAQELBQADggIBADqeq9C6pEpfPmwYHjQTduccUAbK
51+52+ean7j2t0teKxZpq3CTjsgJW4mTUt+PnuLXRbS2KUYh1atpIGIpCzDV0sod
ew8b08abkUpn/MzUGouXqcIuob0sywZ5Q/V/zSyqLRR94Ht/KhgmcM3ypB3qe+K7
2eWW1Nl/H8iU/WAL4YsBKDbUxX1IKSw590Ztw/Jhu2O97X56LCZBiZTgHm7mOv5u
L4zOSdOfSJkMqL30z8i2eVU3sQfRSFrRF840UAqMC+J93f17u/UTFJtNG3/TiLdn
hrDwWcIto/9fzgVKTNq585nKuP9UjdVNe+dP/vDTrNJ1zYSsv0EZVLYEuRmnMkGs
VIATK87Aw8XNQO2d+W50U4bWDWw3iMSm7X+RXMDxvKF+hKYihUn1YEqWzXcHEd3d
UgWcCIkU3jwhyyf9vsLcXTTwaUH5rbOJMUXBKxCV+yISYKqV+D5waTsl1vBMLdlf
fEvMD2UeWiKnBwauSpfqGnMEPJT9W97Ev+gU8v1sS/I7PKud56SRBykQGS3r5K5+
V9sp6BMC3XzXPnu14bkjiYnlh0mGnL+2AiChVD800ZDkBvVsL3rgHtMBiSz5D1H3
quExTG9gvTBl2h72ONZ4jxUCt53XRr+LzfTjYvEcNbGaEDaeXUuSHOFGBKwqpDWS
XvJRYfQqFR7Twnm+
-----END CERTIFICATE-----
