Certificate:
    Data:
        Version: 3 (0x2)
        Serial Number:
            59:7d:6b:35:83:f6:d8:34:f3:34:c8:d7:0a:de:41:5a
        Signature Algorithm: sha256WithRSAEncryption
        Issuer: CN=Fake CA for Zlint testing
        Validity
            Not Before: Sep  1 00:00:00 2025 GMT
            Not After : Sep  1 00:00:00 2026 GMT
        Subject: CN=Leon.Mandrake@example.com
        Subject Public Key Info:
            Public Key Algorithm: 2.16.840.1.101.3.4.4.1
            Unable to load Public Key
0064E9E03B7F0000:error:03000072:digital envelope routines:X509_PUBKEY_get0:decode error:crypto/x509/x_pubkey.c:464:
0064E9E03B7F0000:error:03000072:digital envelope routines:X509_PUBKEY_get0:decode error:crypto/x509/x_pubkey.c:464:
        X509v3 extensions:
            X509v3 Key Usage: critical
                Digital Signature
            X509v3 Extended Key Usage: 
                E-mail Protection
            X509v3 Certificate Policies: 
                Policy: 2.23.140.1.5.1.3
            X509v3 Authority Key Identifier: 
                E8:B6:F6:76:4B:D0:3B:E5:46:A5:F9:54:D4:7E:07:B3:DE:0D:60:3E
            X509v3 Subject Alternative Name: 
                email:Leon.Mandrake@example.com
            X509v3 CRL Distribution Points: 
                Full Name:
                  URI:http://ca.someca-inc.com/crl
    Signature Algorithm: sha256WithRSAEncryption
    Signature Value:
        65:b6:a3:87:39:99:24:04:7f:9e:30:09:80:05:fd:20:c5:44:
        52:87:f5:57:79:ed:00:89:d0:bc:e7:9c:63:0c:81:1d:5e:40:
        f5:12:cc:7c:83:05:60:39:28:3d:98:56:e4:c0:4f:88:61:52:
        d7:4a:de:26:37:d2:8c:d7:ff:9d:26:a0:ca:79:a2:2d:17:c9:
        c6:5e:dd:67:7c:86:2b:8a:66:f1:b8:66:65:82:45:9c:05:3c:
        ad:a0:9c:c3:d7:60:bc:7a:a2:1e:91:04:68:5c:8a:ed:ab:47:
        b3:66:08:27:b4:c6:e5:0d:2d:0a:b4:eb:45:48:aa:b9:ab:21:
        21:53:bc:72:74:b0:5d:57:ba:4f:f8:b4:6d:e3:31:12:40:a8:
        4a:0c:5d:bf:1d:c3:2d:c5:28:4d:6d:e3:d9:45:9d:10:8e:d3:
        00:e4:65:db:09:13:97:7a:b9:3d:6f:b6:96:88:24:bd:50:35:
        3b:8b:25:ef:dd:0f:19:8a:82:49:f3:2c:aa:80:c4:94:80:66:
        f4:bd:7f:05:a8:55:e0:be:61:dc:23:33:7b:8d:a4:a2:11:34:
        3e:a3:60:c7:d9:69:f2:eb:a9:3a:19:84:b4:a7:ed:ee:e6:96:
        0d:f5:d2:b7:79:1d:42:d6:15:d1:44:05:ce:13:7f:8b:71:1e:
        17:91:e7:59:08:34:34:eb:9c:2a:24:57:a8:ee:2c:f4:1e:77:
        21:7e:ca:54:f7:88:45:76:9b:1b:05:cf:80:55:04:44:2e:87:
        be:74:bb:28:e4:6c:99:27:95:04:15:78:aa:24:78:67:d4:3c:
        4a:81:45:36:c4:53:78:53:0a:a6:73:f7:52:5c:7a:db:91:32:
        32:d3:2f:fc:3e:d9:11:02:85:f8:e3:ca:b6:86:aa:e0:37:91:
        00:bf:a2:25:64:b4:7d:1d:2d:42:89:4d:59:29:c6:d6:05:de:
        56:7c:c2:42:3a:9e:c0:8e:13:0d:67:a7:c5:70:a0:9d:ea:3e:
        88:2a:52:f7:b9:3f:e1:6f:db:5e:be:01:09:30:25:fd:0d:b2:
        74:e1:fa:b9:6b:22:d0:ea:d1:f7:73:81:c5:3c:f3:57:c0:e9:
        56:0e:c5:0f:c0:08:35:e7:56:8c:02:8f:e4:54:53:5a:1b:91:
        6e:a9:8c:66:7b:ee:7d:d2:ad:57:a8:55:1b:88:0e:3b:51:35:
        53:c1:3c:4b:9a:4e:be:19:cb:c6:c7:36:2b:e2:3b:68:42:e6:
        3f:f9:fc:ef:db:31:cd:ed:90:65:21:0a:bf:5e:f0:7c:a9:22:
        0d:fa:bb:5c:c5:c0:ae:90:4d:e6:cc:c8:ce:b8:01:aa:90:a3:
        ed:63:49:4f:16:85:4a:c8
-----BEGIN CERTIFICATE-----
MIIGlzCCBH+gAwIBAgIQWX1rNYP22DTzNMjXCt5BWjANBgkqhkiG9w0BAQsFADAk
MSIwIAYDVQQDExlGYWtlIENBIGZvciBabGludCB0ZXN0aW5nMB4XDTI1MDkwMTAw
MDAwMFoXDTI2MDkwMTAwMDAwMFowJDEiMCAGA1UEAwwZTGVvbi5NYW5kcmFrZUBl
eGFtcGxlLmNvbTCCAzIwCwYJYIZIAWUDBAQBA4IDIQC9eny3lhsuooMbS5D8FKvg
ka1i01/YiZXQK6IgSYVf879nxyTPLAaC0TZ2dhLFhzeXgl6hWZvH6V+upYGh1pNl
xM+vUofM5w/m6HHs+U90+Hk9uF6cNkdHq3xMV5nj988gkT4ngsID2W7AAkU+zIUC
4kO45obZ+ZA/VzeneYjdVZedWnlrSLgQkaSwFnUfqlP+OGIwswLuNkD5CCQaIbBC
FAYxoYKy8AebishUmyPjN5HxGYcIyaw9qzj0dGpSiSvBeZRtKlLmxVnMKxJBJXsw
qX0MapuKFwtmaFLF0W8MS6L32VsspqAXxmWzV5jjw0e7oEnHlHKKCL0ndo/Agsv5
dckJ9C45mVGw0ArnwWYdK3/Bk7nfG0FlKpmHeB65UM2fEY+pygCG0UcDinRGFidB
JR7KmjJZswQmBqkO6DV6o3LXqQKoqKzbSkZ2J6nYZGIZMSxY0DBTsrJCpCG3WqCA
5UVbkWSMbIFTkblDpaK0GqiPQ8zCyGb+gzzn1iN8RSVCtQoair8n2Q0vhq2ch1SU
eCrEVL1dQY/JI6btaxxBaI+AiAb0WUOZRwBHHKDM+JOGIzlbVAs9uVW28QJnVz5r
2FtMyjODymdU7MMiYTp72ZhvG1OJurdySsM/A5d2ZxOutmBkuaurnLuklRanOR36
V7HLYYnIgw7oSc1xrBIFJyW3fISKqVSYAEeVooWFKluFKgAQKoEl95ZB8U8F87R4
IrickqNo04RvWaHeCmZcI4i6dTXdpZuLScXscTe+BjoBqwO888W4UQJMM8FB+Yep
40sqqqBnlqwdcVWfmaG3VACbJsVZhZL0jHQbc08E+cCeSCd8wRpCsclnuwloYxVW
lRHiGEYcgWBL6w+2AnG20io5Rj9AiKpgTBvqyTLUoTgsusOZm3rKhbMvqc/2rLqQ
+UOEqk8EYs/h0JCnqGuwxYLEyarTFa+Mq3Ax4wfLLLDU+Drl5M5YmcIsFrqvWoNQ
WTWhhGWehLbr0pXsxV3Q6VzwGXmPC6p7ObDkGn4HoxVmtcBiDtH3j1gAJWvxKwML
9oT21y0opeAq7NQmVSlWKaOBtDCBsTAOBgNVHQ8BAf8EBAMCB4AwEwYDVR0lBAww
CgYIKwYBBQUHAwQwFAYDVR0gBA0wCzAJBgdngQwBBQEDMB8GA1UdIwQYMBaAFOi2
9nZL0DvlRqX5VNR+B7PeDWA+MCQGA1UdEQQdMBuBGUxlb24uTWFuZHJha2VAZXhh
bXBsZS5jb20wLQYDVR0fBCYwJDAioCCgHoYcaHR0cDovL2NhLnNvbWVjYS1pbmMu
Y29tL2NybDANBgkqhkiG9w0BAQsFAAOCAgEAZbajhzmZJAR/njAJgAX9IMVEUof1
V3ntAInQvOecYwyBHV5A9RLMfIMFYDkoPZhW5MBPiGFS10reJjfSjNf/nSagynmi
LRfJxl7dZ3yGK4pm8bhmZYJFnAU8raCcw9dgvHqiHpEEaFyK7atHs2YIJ7TG5Q0t
CrTrRUiquashIVO8cnSwXVe6T/i0beMxEkCoSgxdvx3DLcUoTW3j2UWdEI7TAORl
2wkTl3q5PW+2logkvVA1O4sl790PGYqCSfMsqoDElIBm9L1/BahV4L5h3CMze42k
ohE0PqNgx9lp8uupOhmEtKft7uaWDfXSt3kdQtYV0UQFzhN/i3EeF5HnWQg0NOuc
KiRXqO4s9B53IX7KVPeIRXabGwXPgFUERC6HvnS7KORsmSeVBBV4qiR4Z9Q8SoFF
NsRTeFMKpnP3Ulx625EyMtMv/D7ZEQKF+OPKtoaq4DeRAL+iJWS0fR0tQolNWSnG
1gXeVnzCQjqewI4TDWenxXCgneo+iCpS97k/4W/bXr4BCTAl/Q2ydOH6uWsi0OrR
93OBxTzzV8DpVg7FD8AINedWjAKP5FRTWhuRbqmMZnvufdKtV6hVG4gOO1E1U8E8
S5pOvhnLxsc2K+I7aELmP/n879sxze2QZSEKv17wfKkiDfq7XMXArpBN5szIzrgB
qpCj7WNJTxaFSsg=
-----END CERTIFICATE-----
