Certificate:
    Data:
        Version: 3 (0x2)
        Serial Number:
            05:f4:bf:73:35:4c:a9:d5:a7:f5:f1:e5:ad:56:5d:9f
        Signature Algorithm: sha256WithRSAEncryption
        Issuer: CN=Fake CA for Zlint testing
        Validity
            Not Before: Jul 22 05:40:30 2025 GMT
            Not After : Jul 22 05:40:30 2026 GMT
        Subject: CN=Leon.Mandrake@example.com
        Subject Public Key Info:
            Public Key Algorithm: 2.16.840.1.101.3.4.3.17
            Unable to load Public Key
00B4B8603A7F0000:error:03000072:digital envelope routines:X509_PUBKEY_get0:decode error:crypto/x509/x_pubkey.c:464:
00B4B8603A7F0000:error:03000072:digital envelope routines:X509_PUBKEY_get0:decode error:crypto/x509/x_pubkey.c:464:
        X509v3 extensions:
            X509v3 Key Usage: critical
                Digital Signature
            X509v3 Extended Key Usage: 
                E-mail Protection
            X509v3 Certificate Policies: 
                Policy: 2.23.140.1.5.1.3
            X509v3 Authority Key Identifier: 
                E8:B6:F6:76:4B:D0:3B:E5:46:A5:F9:54:D4:7E:07:B3:DE:0D:60:3E
            X509v3 Subject Alternative Name: 
                email:Leon.Mandrake@example.com
            X509v3 CRL Distribution Points: 
                Full Name:
                  URI:http://ca.someca-inc.com/crl
    Signature Algorithm: sha256WithRSAEncryption
    Signature Value:
        47:c2:b6:a3:3e:2a:de:35:48:a8:49:e3:66:6f:df:40:b1:b3:
        10:53:c6:57:53:5a:d0:20:2f:77:81:75:95:a7:cd:e0:88:9a:
        bd:fa:3b:13:b8:e8:39:5c:cc:ee:da:ac:56:78:ba:2d:7f:e3:
        5f:7b:10:98:63:c6:97:bd:f6:58:98:06:9c:ba:87:73:8b:86:
        cb:81:29:3b:cc:66:a7:ea:43:37:96:60:4d:ae:cd:06:d0:6f:
        c4:b1:ca:b9:84:cc:24:a4:e0:2a:14:9a:57:d1:81:ff:52:a0:
        94:9f:12:ac:13:e4:d1:de:2e:a3:33:b6:1b:06:c6:d5:1b:81:
        37:8b:89:ea:eb:82:a0:e3:f3:e0:fe:cf:3e:b9:09:46:d4:d0:
        0d:cb:c3:b4:27:1c:66:c0:3f:b3:c5:63:19:fd:82:f4:d4:d7:
        a4:df:ee:ed:1f:2e:96:97:d3:a2:bf:bf:c9:ba:10:5e:f4:bb:
        0d:3d:f7:42:50:38:12:e1:3b:68:aa:39:98:44:c7:94:0f:5b:
        be:43:ee:af:30:7e:d8:1a:d7:98:25:7d:54:6e:94:2b:47:ff:
        4a:dd:0a:cc:fa:20:43:f6:09:61:a1:cf:0c:6f:5c:72:6f:08:
        83:b7:25:4f:8b:ac:1f:59:9f:2d:ad:a6:b5:68:6d:b7:c6:4a:
        a9:52:23:d6:9d:55:d2:db:b8:56:47:5f:1a:86:37:e2:2e:9a:
        4a:be:9f:4b:37:c8:ba:a3:f9:32:44:1f:5b:ab:b8:c8:34:08:
        c1:09:02:f3:46:10:37:3e:b5:9a:23:15:73:73:71:8e:46:bb:
        4f:61:8b:a8:70:74:27:83:32:68:8f:49:c2:e5:fa:26:dc:39:
        38:7b:82:87:22:b1:17:14:e1:65:98:5d:90:8c:a1:04:48:0e:
        0d:8a:c3:a1:84:52:69:11:26:23:05:5b:0e:ca:95:da:7d:d5:
        ff:ba:42:a5:42:a0:3b:65:c7:73:f9:21:53:5a:30:7f:3d:79:
        83:1b:13:e6:d4:4a:b1:c7:5f:22:95:6d:cf:16:da:ae:98:cb:
        83:3c:74:f4:3c:75:e0:30:7b:4e:81:b1:e1:54:26:5b:55:2c:
        5a:9f:63:fa:37:f7:e3:1d:9a:ff:2d:a8:e8:68:42:b4:53:a7:
        5c:ee:8a:08:30:67:69:12:d1:f8:1e:72:ee:4e:79:e2:2e:25:
        4d:a5:ba:f1:f5:44:f8:bb:01:b1:ad:2c:1d:ac:1b:86:c7:fd:
        8c:cc:7a:b7:09:ee:c1:68:96:6c:e2:1a:ac:55:13:49:98:bb:
        06:be:87:29:32:80:13:ce:c2:62:89:13:04:78:9b:e9:96:23:
        ed:48:ae:8c:13:f9:89:71
-----BEGIN CERTIFICATE-----
MIIIlzCCBn+gAwIBAgIQBfS/czVMqdWn9fHlrVZdnzANBgkqhkiG9w0BAQsFADAk
MSIwIAYDVQQDExlGYWtlIENBIGZvciBabGludCB0ZXN0aW5nMB4XDTI1MDcyMjA1
NDAzMFoXDTI2MDcyMjA1NDAzMFowJDEiMCAGA1UEAwwZTGVvbi5NYW5kcmFrZUBl
eGFtcGxlLmNvbTCCBTIwCwYJYIZIAWUDBAMRA4IFIQADxgAHqt3WJlHtz4a4f+zo
vFqe/dm2/ekvUF+oZgwMczNzfiw0k9JIfvvi1EMPjCKZUHqffcbS8fUbo7TsVsg0
IZ+ygwsoI74pR0j563Lrk19NadczWRht1VHwp+d5+iF1hRoAOaeDePEwQ9RpGQrL
WYZa2SpwF2xuPXrFM5SNZHQSzn/v8QD5rsFpZeY+X/ep+hyeO1bCwkYbfCRIEAsF
mLRRfUNAJ0VRz5VKMDui9me5zzrjOfaIPs0f9eIwKvORq6cs1d4DL8Cgx2I4ihG3
ebE1f727R7RY159u7C1IiNUaaxtILLHGE9m9+reg0MHJWId0IXak60fGHVgQgA5P
+KcojdGBWp7zimuGSXmSFOvKlC8T4csxcaSqHEsv0rcNo3GDX5X71ZSsFD8Xn5Io
qHFjvp1htJm6AhlbFucS/Tl7z7+tA5UCCnxHy14iz26RwoPVtYvv6vBgpILPjaLi
Vx/fr4SMYCcUj8mVUCLu4JxbGms0PdhxqUUtyDf5rRRNq/zMbFwW5i0OvFU5ZHKa
NfNq9metphQrw5EGbdfqHVEQHdD7RYkyH/tQZUjjYjTI4DkvqSvf324OHwy4AdZX
Qxa+UbIKK/4/xC2YTmz0I/Utng6W7+GV25r41Q5Gtmuz1IdJkuSA0vZREeoyRpTq
7Pnng9qLy7CNgIaPSXsNTtxHiPVeFiRVtndMHSODN5WercIDwvD4QUyqSXv1yczh
USnv9FJe61JpD6ZyjVJkgWThfkRgfO0aFY0UmxQCVGSsOh0ayi03o6+2BAC3a+0j
dye1Y/aG6y8PIeMumz6nzKoGEylB4CZHGsxqAbdaAjQomPSsutC+yarkux6hLEd9
wSHQMhhVaRUjzIHk6nIF9Edji4j891OmgWlFiGEAGteg6Jx5WKrGUSldIYuVuFGw
2XGBHRXMNf6l/QvweTrjz/I1QwxJjIaG5ojiIXMA+rOCczYpTwterQiAdTjB9n8B
ahzStiKZDIkpYMZsSB2lrGr6sh8nbKL5A/Wkfev6hTD531h8vJqEperNIbEqocJK
tC9WHlRMeEp+IcQvvROVXCMRw9GC68WXXhpED1rNwpeP8mW5iH+iyDz0WRN7pu/l
5co8QxV4Ys4Ks9PHh0ylm2s08LonfNtbaLEhzA6aPLArn4dQQX3c1l5PCKKXP9fs
wcaLz1k/aEWzzl0HDDybZ3Lafa0a7tG+OEIqPEVKea0Ke8PFSDsToSHtRL19xzXk
hGgwVk151LSGmitJBQA5MlZk2CRea4BVUCbZrFupi1wLLTWaY372hq6nDFxfQdm6
N82T1u0cnM5f1Hl7IcN8BCq7H63Trpjb5wNDwobx5nz6p3s72dUvWS2PkV7Y3aI2
GL0qy509SmqxtQH8cTgIdqpJMT0E2XupdDGvU1E5e3WvdTenhvGsbxRZq9roHdz6
Qxsn3ryJpGfcmKl0ffcdNuKB4zEQDl7MO9QoS7EfTCtIsb4IZ9qQA+vrg18LyVcd
jDgZr2cR3F2VNwtkeX4heq0n+wPg27Nw0D+r8zcTnw4ZKGaFU+tWai2nuzYBWc0W
C6BZ7zH32Y2+hSS3mKtk0YsEllRGuOdH7k4Ctlo4nCz/r+rDZROrDU3uoUE6V3O3
MBNmY8t1VJ6DIKRfj2YLZZidfc4PFVOtglqYDLdJ2v6xdFyw0WrRLjpGqVHGoXzo
Gfv1JDzx6X2B3yAmbYlTxi04/1TG9mG2DgKdBHWmi16HS2Rk2TDbQa3y9TXEd7HN
o4G0MIGxMA4GA1UdDwEB/wQEAwIHgDATBgNVHSUEDDAKBggrBgEFBQcDBDAUBgNV
HSAEDTALMAkGB2eBDAEFAQMwHwYDVR0jBBgwFoAU6Lb2dkvQO+VGpflU1H4Hs94N
YD4wJAYDVR0RBB0wG4EZTGVvbi5NYW5kcmFrZUBleGFtcGxlLmNvbTAtBgNVHR8E
JjAkMCKgIKAehhxodHRwOi8vY2Euc29tZWNhLWluYy5jb20vY3JsMA0GCSqGSIb3
DQEBCwUAA4ICAQBHwrajPireNUioSeNmb99AsbMQU8ZXU1rQIC93gXWVp83giJq9
+jsTuOg5XMzu2qxWeLotf+NfexCYY8aXvfZYmAacuodzi4bLgSk7zGan6kM3lmBN
rs0G0G/Escq5hMwkpOAqFJpX0YH/UqCUnxKsE+TR3i6jM7YbBsbVG4E3i4nq64Kg
4/Pg/s8+uQlG1NANy8O0JxxmwD+zxWMZ/YL01Nek3+7tHy6Wl9Oiv7/JuhBe9LsN
PfdCUDgS4TtoqjmYRMeUD1u+Q+6vMH7YGteYJX1UbpQrR/9K3QrM+iBD9glhoc8M
b1xybwiDtyVPi6wfWZ8traa1aG23xkqpUiPWnVXS27hWR18ahjfiLppKvp9LN8i6
o/kyRB9bq7jINAjBCQLzRhA3PrWaIxVzc3GORrtPYYuocHQngzJoj0nC5fom3Dk4
e4KHIrEXFOFlmF2QjKEESA4NisOhhFJpESYjBVsOypXafdX/ukKlQqA7Zcdz+SFT
WjB/PXmDGxPm1Eqxx18ilW3PFtqumMuDPHT0PHXgMHtOgbHhVCZbVSxan2P6N/fj
HZr/LajoaEK0U6dc7ooIMGdpEtH4HnLuTnniLiVNpbrx9UT4uwGxrSwdrBuGx/2M
zHq3Ce7BaJZs4hqsVRNJmLsGvocpMoATzsJiiRMEeJvpliPtSK6ME/mJcQ==
-----END CERTIFICATE-----
