Certificate:
    Data:
        Version: 3 (0x2)
        Serial Number:
            c2:1d:d4:8d:ed:9b:6a:e9:35:c4:37:4a:22:97:59:8a
        Signature Algorithm: sha256WithRSAEncryption
        Issuer: CN = Fake CA for Zlint testing
        Validity
            Not Before: May 15 00:00:00 2025 GMT
            Not After : May 15 00:00:00 2026 GMT
        Subject: CN = Leon.Mandrake@example.com
        Subject Public Key Info:
            Public Key Algorithm: 2.16.840.1.101.3.4.3.17
            Unable to load Public Key
127317153239488:error:0609E09C:digital envelope routines:pkey_set_type:unsupported algorithm:../crypto/evp/p_lib.c:210:
127317153239488:error:0B09406F:x509 certificate routines:x509_pubkey_decode:unsupported algorithm:../crypto/x509/x_pubkey.c:113:
        X509v3 extensions:
            X509v3 Key Usage: critical
                Digital Signature
            X509v3 Extended Key Usage: 
                E-mail Protection
            X509v3 Certificate Policies: 
                Policy: 2.23.140.1.5.1.3

            X509v3 Authority Key Identifier: 
                keyid:E8:B6:F6:76:4B:D0:3B:E5:46:A5:F9:54:D4:7E:07:B3:DE:0D:60:3E

            X509v3 Subject Alternative Name: 
                email:Leon.Mandrake@example.com
            X509v3 CRL Distribution Points: 

                Full Name:
                  URI:http://ca.someca-inc.com/crl

    Signature Algorithm: sha256WithRSAEncryption
         58:71:89:fa:cd:b9:f5:ab:6f:64:42:7f:54:fd:06:e6:83:ef:
         97:f4:01:8d:fb:c7:e5:99:8e:60:5c:e4:42:67:c8:e0:d8:16:
         50:51:b5:fa:81:9c:2a:cd:8a:cf:2b:31:e7:40:d7:93:ff:b1:
         51:82:e7:c2:2d:be:67:fb:01:72:33:b5:13:bf:57:eb:be:07:
         6e:8b:ff:8e:e8:36:c3:c3:5c:1a:38:27:86:fa:66:7a:d5:40:
         58:95:25:bd:2a:8d:17:ce:ec:e3:fd:d0:95:40:cd:6e:1f:74:
         0d:df:ae:fa:68:ec:7e:c6:c6:57:05:3d:3a:2b:62:d6:cf:fe:
         8d:4f:d1:2a:7e:3e:06:37:62:c1:02:d1:5b:67:14:0e:93:a3:
         4f:f1:77:d8:66:31:4b:52:2c:c2:7d:4a:4d:7b:ee:71:0e:4a:
         b9:fb:67:7a:9e:17:47:06:5f:65:a2:2c:3b:82:5f:09:50:7f:
         ea:23:7d:ea:ad:65:65:f6:e0:bc:ba:cf:a5:85:f3:70:60:23:
         85:db:1d:b5:0a:d6:d6:88:0f:67:41:ee:21:45:e5:54:a6:14:
         95:9a:86:ed:9f:0c:b8:97:86:ac:57:0d:c8:89:c8:1f:f8:e7:
         ab:4b:7f:78:e1:c7:1b:08:28:f6:44:d4:5f:1b:83:27:6f:46:
         70:4f:c7:d6:60:34:04:93:f0:41:65:16:c5:61:e0:8f:6a:cf:
         84:6a:f5:53:e2:36:b4:3a:50:34:81:e2:bb:99:84:58:af:4c:
         bc:23:19:6b:ef:17:d5:c9:5b:32:9a:10:3d:fe:03:9b:f0:82:
         5d:7e:d6:b2:44:8f:cc:6c:66:a4:b0:68:90:5e:69:6d:49:23:
         42:a1:ba:dc:96:ea:da:5f:da:bc:9e:4d:94:43:88:61:83:52:
         7a:4f:bb:69:c3:4d:ae:99:cb:ee:bf:1a:b8:45:2c:46:7a:22:
         90:cb:05:14:ed:a3:e5:b6:d8:d5:b2:21:df:2b:e0:33:00:f9:
         e3:6a:dd:8b:5c:41:9c:df:e1:72:06:43:10:85:5b:ec:f8:5d:
         4a:d7:6f:ee:c1:a8:0c:77:94:0b:29:f0:eb:bf:14:d9:fb:db:
         ed:19:79:cc:b7:74:0d:f9:25:11:0c:4e:d3:3d:12:05:86:b9:
         ac:f2:56:5e:d8:92:d4:67:26:86:44:93:44:14:ac:56:99:62:
         74:1e:40:6b:e0:d5:b3:15:6c:23:a5:14:ab:fe:e9:b8:93:a5:
         42:6a:6a:f3:1f:76:6b:75:aa:7e:ec:75:23:1c:6a:8c:71:d9:
         60:e9:f8:cc:70:c0:76:d3:12:56:ce:47:78:c0:53:bd:d5:ea:
         d3:de:dd:2b:dc:fc:cf:be
-----BEGIN CERTIFICATE-----
MIIImDCCBoCgAwIBAgIRAMId1I3tm2rpNcQ3SiKXWYowDQYJKoZIhvcNAQELBQAw
JDEiMCAGA1UEAxMZRmFrZSBDQSBmb3IgWmxpbnQgdGVzdGluZzAeFw0yNTA1MTUw
MDAwMDBaFw0yNjA1MTUwMDAwMDBaMCQxIjAgBgNVBAMMGUxlb24uTWFuZHJha2VA
ZXhhbXBsZS5jb20wggUyMAsGCWCGSAFlAwQDEQOCBSEAgA+QK5kqh0aNVDopkriB
955Uzdges0Lh69WEFA90d8p0F4Ywarwwdm/wqaAj9f3YnOcwxfRaRq9MwXE3+7Zg
1GSxr1l3xNiIpa0pgqUskvGZUDJIVll0pke43xeMv5XB4Jb80sRpJGcl0QNbPa5b
rJQMxStFzyVF8AXh5ShyX5DNaOxtoDsF3+X7sGZOgiob4E278P4GKfDrC767p2TI
Rc1oFkeN/fXSwfZYOlWftJ7bjXKaWjDBO9qAyO+3lxLqxkgamey//gowzQ9BRdZz
SaVX9fMdR/pKM9gekuJKXBc6RLKOVOHdR3HEY8siRIn1lDOtrtyuLN3964jguD3S
J/TSL906NyTy33U+ZpuF4aagA/lLBHm53RBirE1PsoCXIEINqjH2dJwyySxYEDX+
tKE4OLVQILq6lb+ZawgEkwWyQ+QGIOWOTLB2JvAeD1ormwt+wuf4RFZLhO1aCK+B
bxpTmcM92zEmEnvigWCRUYLt7R6yrDA66Z5cx/PwfiPVYqsm64tvWhBja7ZZBZSn
OlZWznw4njUa+ud4fr8RxJc30t250lS+W9vnYCW9KcIAhR0wugBWcDNnbTTAouUl
sQ8zp2SoOxLaIroti3a4IRFzcJi5vK5TyxeEN58T844T62S8TZsydiplxFyZjFd1
YIJoli8G0uN3fmbtlGf4x8K7+K6Nxor8CjbjlrdYERypzGBs4Ys9fU3zs8MDRXr1
sLFL9MRvyNkKQxzgtj4xZqrF58D3/5mHrWgrATjtDzKE7Npx91lK7liHMO3HUYBn
k5fQq1ljJ+6sVP9N/e78MLfDLcFp555q/N3qe7lUBoWZVa8MlQk3BirDfLW2qoU5
FBY8mPk0LuL+tQyqmiMOdtLOBrx6hIfdj7HTSfOh39P75B1svsUm4w6ZkpJ2LZF6
Fy6E3mqUoif9suOK4Xq+cONIQ0rQhV9xMY1uRQSxLvs3fby7WpYK3+zFskre9eMJ
nvHVuxZFQX3lKsO1e/ixLBIhuBtSxiyOe8fdeGHXpD3Ls81mwHUDSBMOvn5LTD4p
TpjVaR8Q1+9iVcMv0Um2ud/lSZ+54nG6zasoTGF5Csf3sUiJge/uPfm6MfNETkmk
b6OfydFzYjYQi39c6z4H2IUWmE6eSvy9qk5Gfko+3evgYLkTLvqAStlNqWs0jA1K
YH1QhJQ7hbVPM9su3YF491SzE1KwNCmwDv14ei/ntz2JHdy0jOoNaHtYF3L7WzWh
gwhN673vA6hqW2GO1ILYGBl3IT1xDh4SeBeg9LqOHPx90TFeTQmEjJMP7D1qdmLc
jKpdbYQ2XPf7Ic/Me/BWg8WaASlYavN6Zi12+7AaVpLrVsfRCzfIdSl0pBwtTCw7
j2Zp3e6kfULU46Td4bVGLq9yjnBdOKi1thmGjvpGumA892MW7EO/I9Gt47OCCnRq
SNCkEgFLNmJLffP+2pD7TdgmJbCVl5tUpoSUvzH5iXjQUPbABoWCjIcstTKvVOHC
DYb5F7XoXNWWuSqhTmsHxio0lX8dOuS03n9QDp2LOPlvrIoWwKiilwpFQEgUlbjD
HVgIVq2UD+WcsQiY1zMa2HQab5Z2THQ/ToGXKraB0yvki8sh5Lr54KYzNFGkNSdV
AeJREsJl5ZOHBRoexphi3H4ws1OdQywZoL95BWzBqXzgRXAduZVqITJvrx0uIg9Q
jqJdh5isODB2InnV4yjwmAV5A/QJotTR5tZ0/4ofe4CRktZi4WiWZjthF438Spgq
CaOBtDCBsTAOBgNVHQ8BAf8EBAMCB4AwEwYDVR0lBAwwCgYIKwYBBQUHAwQwFAYD
VR0gBA0wCzAJBgdngQwBBQEDMB8GA1UdIwQYMBaAFOi29nZL0DvlRqX5VNR+B7Pe
DWA+MCQGA1UdEQQdMBuBGUxlb24uTWFuZHJha2VAZXhhbXBsZS5jb20wLQYDVR0f
BCYwJDAioCCgHoYcaHR0cDovL2NhLnNvbWVjYS1pbmMuY29tL2NybDANBgkqhkiG
9w0BAQsFAAOCAgEAWHGJ+s259atvZEJ/VP0G5oPvl/QBjfvH5ZmOYFzkQmfI4NgW
UFG1+oGcKs2Kzysx50DXk/+xUYLnwi2+Z/sBcjO1E79X674Hbov/jug2w8NcGjgn
hvpmetVAWJUlvSqNF87s4/3QlUDNbh90Dd+u+mjsfsbGVwU9Oiti1s/+jU/RKn4+
BjdiwQLRW2cUDpOjT/F32GYxS1Iswn1KTXvucQ5Kuftnep4XRwZfZaIsO4JfCVB/
6iN96q1lZfbgvLrPpYXzcGAjhdsdtQrW1ogPZ0HuIUXlVKYUlZqG7Z8MuJeGrFcN
yInIH/jnq0t/eOHHGwgo9kTUXxuDJ29GcE/H1mA0BJPwQWUWxWHgj2rPhGr1U+I2
tDpQNIHiu5mEWK9MvCMZa+8X1clbMpoQPf4Dm/CCXX7WskSPzGxmpLBokF5pbUkj
QqG63Jbq2l/avJ5NlEOIYYNSek+7acNNrpnL7r8auEUsRnoikMsFFO2j5bbY1bIh
3yvgMwD542rdi1xBnN/hcgZDEIVb7PhdStdv7sGoDHeUCynw678U2fvb7Rl5zLd0
DfklEQxO0z0SBYa5rPJWXtiS1GcmhkSTRBSsVplidB5Aa+DVsxVsI6UUq/7puJOl
Qmpq8x92a3Wqfux1IxxqjHHZYOn4zHDAdtMSVs5HeMBTvdXq097dK9z8z74=
-----END CERTIFICATE-----
