Certificate:
    Data:
        Version: 3 (0x2)
        Serial Number:
            8c:86:63:20:08:b7:5b:f1:d9:08:30:32:12:4a:a8:4b
        Signature Algorithm: sha256WithRSAEncryption
        Issuer: C=XX, O=Some CA, CN=Fake Root CA for zlint testing
        Validity
            Not Before: Dec 16 09:23:13 2025 GMT
            Not After : Dec 15 09:23:13 2030 GMT
        Subject: C=XX, ST=Some State, L=Some Locality, O=Some CA, CN=Fake CA for zlint testing
        Subject Public Key Info:
            Public Key Algorithm: rsaEncryption
                Public-Key: (4096 bit)
                Modulus:
                    00:c7:28:0b:a1:ae:8f:38:ae:37:03:af:89:40:a6:
                    cc:2a:b0:f2:60:d3:40:6d:1b:92:fa:55:b8:5b:09:
                    95:7b:60:72:2f:a3:f5:ef:82:16:95:43:c2:b2:90:
                    c9:32:b8:d2:47:b3:ad:ed:00:10:f5:c0:51:9e:61:
                    4c:4d:53:6c:a6:cd:0c:ad:f2:51:96:17:83:c4:bf:
                    a7:71:9b:a6:e0:29:b9:7a:27:06:1a:d9:34:f3:db:
                    6b:64:7b:e5:62:aa:aa:97:00:01:73:9a:5e:76:4a:
                    90:14:a9:1a:05:78:c5:d9:7e:d0:ef:bb:54:8b:0a:
                    29:5a:fa:b2:f4:48:22:82:c4:7f:2b:b6:68:c2:0e:
                    49:1d:03:fc:9d:8a:ab:63:64:cf:0b:dd:51:ea:7b:
                    92:7f:63:2b:34:df:cd:14:a8:7c:4b:6b:57:f9:56:
                    0a:c3:7b:56:26:c4:dc:7c:55:f0:18:db:b6:2b:01:
                    0b:f0:ad:96:7d:12:b5:29:80:85:45:63:35:14:be:
                    b0:89:8f:3e:ba:a9:d9:8a:76:a0:fd:a6:91:69:c1:
                    15:da:3d:cd:e2:2b:9d:b4:9d:8c:c6:c4:d9:83:aa:
                    b0:69:a2:cc:08:ec:8c:15:8b:20:5f:0b:72:09:e8:
                    38:0e:17:e7:c8:23:5d:60:1e:19:55:9a:d5:9b:74:
                    76:bc:35:e3:bf:19:dc:87:aa:a8:09:60:e1:6c:85:
                    f2:34:21:80:22:50:d9:eb:66:2f:8f:96:06:80:65:
                    f2:9e:0b:4a:5c:74:26:a6:a7:c2:5c:70:10:d4:fc:
                    0b:2f:8f:eb:38:4c:6a:92:13:b6:ab:ed:8c:0b:03:
                    2e:2d:a4:6b:45:d4:a9:86:be:27:a6:47:95:fb:d1:
                    18:83:81:6f:a0:c9:0a:69:85:f5:3d:34:9d:6b:71:
                    b8:a4:20:d3:10:b6:5a:93:33:13:03:5c:12:38:54:
                    bc:fa:d6:cf:39:57:fd:e7:ef:01:dc:7b:c8:13:4d:
                    92:0f:78:16:da:5a:e4:d6:ae:71:cc:b8:21:b9:82:
                    dd:bc:b3:dc:65:4d:58:2c:6f:68:a6:f1:b4:0d:e1:
                    3b:7b:84:cb:4e:6e:55:1d:86:9a:04:79:8a:1f:dd:
                    31:96:ff:61:1b:34:98:23:3c:c9:4b:23:e3:0c:46:
                    85:22:54:d5:b4:3c:fa:cc:bc:14:42:b4:ec:e6:29:
                    c9:6f:56:d1:4d:de:57:0d:6d:a6:65:a6:0f:6b:fd:
                    91:98:cd:92:74:25:e5:30:db:54:b4:6b:f5:6d:94:
                    0c:c5:58:c1:68:c2:64:59:fc:45:40:90:38:21:57:
                    7e:63:41:81:54:04:4b:99:10:d5:03:d0:7c:c5:2f:
                    45:c8:19
                Exponent: 65537 (0x10001)
        X509v3 extensions:
            X509v3 Key Usage: critical
                Certificate Sign, CRL Sign
            X509v3 Extended Key Usage: 
                TLS Web Client Authentication, E-mail Protection
            X509v3 Basic Constraints: critical
                CA:TRUE
            X509v3 Subject Key Identifier: 
                6B:36:A3:81:F7:89:1F:68:B7:27:7E:03:B9:6B:B3:3F:2F:17:19:71
            X509v3 Authority Key Identifier: 
                E8:B6:F6:76:4B:D0:3B:E5:46:A5:F9:54:D4:7E:07:B3:DE:0D:60:3E
            Authority Information Access: 
                OCSP - URI:http://ca.someca-inc.com/ocsp
                CA Issuers - URI:http://ca.someca-inc.com/root
            X509v3 CRL Distribution Points: 
                Full Name:
                  URI:http://ca.someca-inc.com/crl

    Signature Algorithm: sha256WithRSAEncryption
    Signature Value:
        a1:f0:8b:4c:f4:62:6e:4c:1f:33:d4:fb:73:58:46:8f:6e:eb:
        01:d9:52:fb:e7:c0:47:6e:b1:6e:4b:c5:e8:1f:7f:bd:d2:19:
        c2:e3:ec:50:a1:04:36:28:4e:76:43:f2:df:6c:6f:d3:e4:48:
        5a:64:b1:9c:d1:58:a7:ef:93:e3:15:b9:68:61:03:69:41:72:
        32:25:a2:16:77:98:8b:11:7e:c8:5f:9a:a6:99:b2:5c:41:fb:
        db:12:f6:49:e8:ca:b5:00:fa:d0:92:db:f0:42:10:e0:a3:1a:
        c5:91:4a:0b:a9:59:75:64:5b:fa:21:0b:0e:90:78:75:24:5a:
        07:6c:3c:0a:3f:97:82:c5:91:79:63:b2:75:8f:e5:ac:24:ea:
        d0:5d:d3:2b:e1:70:6a:e4:ea:e8:08:cd:1b:74:98:12:4d:cd:
        a0:de:f3:84:df:f7:5a:5d:f5:62:b6:61:ad:36:f9:49:ab:4a:
        3e:4c:40:b2:6f:17:b9:02:21:f6:93:48:d6:6e:c8:a7:b6:e1:
        45:2e:08:d9:5e:6f:32:a9:ca:c4:3f:e5:bc:07:a7:e6:5a:aa:
        db:a7:ec:3a:1b:bd:98:8a:f7:36:a2:d3:8c:b9:a1:f9:5a:3d:
        af:9f:eb:dd:28:06:57:3d:42:60:10:15:40:8f:a5:72:63:ac:
        ed:7e:d7:fe:c4:ae:97:23:cf:81:91:df:05:23:80:62:33:63:
        91:61:ce:4e:26:aa:68:19:b2:80:75:ce:bb:eb:69:06:f9:b0:
        63:17:86:cf:9b:20:47:fe:b7:b8:a4:f0:bc:f8:98:5d:15:55:
        61:a4:ea:db:b9:02:a7:0f:af:46:76:32:58:23:0b:ac:30:77:
        41:d6:b7:e5:a6:11:eb:57:e6:c3:05:c5:4c:47:39:78:0e:82:
        1f:f2:fe:6e:d2:a5:3b:20:c6:a0:b2:18:6b:2e:27:3b:70:67:
        94:a6:df:9f:2a:bc:9c:5c:29:85:41:bf:86:24:bd:2f:73:94:
        27:bc:ee:87:c8:b2:d4:aa:fb:ad:bc:b3:3d:c6:71:8e:38:0b:
        82:ac:a8:6f:c8:ea:e6:9a:98:6c:61:2b:ac:5f:32:29:9d:d4:
        37:25:11:0e:8d:40:59:f8:4d:1b:28:e9:cd:81:20:8d:e1:21:
        6a:41:58:b7:c0:02:b5:d4:89:f3:4a:6c:96:5a:5f:06:f1:a5:
        48:32:16:e3:e9:74:ce:45:90:61:51:1a:17:5e:24:3c:99:eb:
        41:c2:08:60:88:26:30:cd:4b:1b:87:a9:e7:e9:d3:dd:fe:43:
        49:81:7f:04:ce:15:bc:73:6e:2b:db:90:e7:c6:15:fe:59:98:
        37:5a:84:de:e7:4a:3a:e1
-----BEGIN CERTIFICATE-----
MIIGXjCCBEagAwIBAgIRAIyGYyAIt1vx2QgwMhJKqEswDQYJKoZIhvcNAQELBQAw
SDELMAkGA1UEBhMCWFgxEDAOBgNVBAoTB1NvbWUgQ0ExJzAlBgNVBAMTHkZha2Ug
Um9vdCBDQSBmb3IgemxpbnQgdGVzdGluZzAeFw0yNTEyMTYwOTIzMTNaFw0zMDEy
MTUwOTIzMTNaMHAxCzAJBgNVBAYTAlhYMRMwEQYDVQQIEwpTb21lIFN0YXRlMRYw
FAYDVQQHEw1Tb21lIExvY2FsaXR5MRAwDgYDVQQKEwdTb21lIENBMSIwIAYDVQQD
ExlGYWtlIENBIGZvciB6bGludCB0ZXN0aW5nMIICIjANBgkqhkiG9w0BAQEFAAOC
Ag8AMIICCgKCAgEAxygLoa6POK43A6+JQKbMKrDyYNNAbRuS+lW4WwmVe2ByL6P1
74IWlUPCspDJMrjSR7Ot7QAQ9cBRnmFMTVNsps0MrfJRlheDxL+ncZum4Cm5eicG
Gtk089trZHvlYqqqlwABc5pedkqQFKkaBXjF2X7Q77tUiwopWvqy9EgigsR/K7Zo
wg5JHQP8nYqrY2TPC91R6nuSf2MrNN/NFKh8S2tX+VYKw3tWJsTcfFXwGNu2KwEL
8K2WfRK1KYCFRWM1FL6wiY8+uqnZinag/aaRacEV2j3N4iudtJ2MxsTZg6qwaaLM
COyMFYsgXwtyCeg4DhfnyCNdYB4ZVZrVm3R2vDXjvxnch6qoCWDhbIXyNCGAIlDZ
62Yvj5YGgGXyngtKXHQmpqfCXHAQ1PwLL4/rOExqkhO2q+2MCwMuLaRrRdSphr4n
pkeV+9EYg4FvoMkKaYX1PTSda3G4pCDTELZakzMTA1wSOFS8+tbPOVf95+8B3HvI
E02SD3gW2lrk1q5xzLghuYLdvLPcZU1YLG9opvG0DeE7e4TLTm5VHYaaBHmKH90x
lv9hGzSYIzzJSyPjDEaFIlTVtDz6zLwUQrTs5inJb1bRTd5XDW2mZaYPa/2RmM2S
dCXlMNtUtGv1bZQMxVjBaMJkWfxFQJA4IVd+Y0GBVARLmRDVA9B8xS9FyBkCAwEA
AaOCARkwggEVMA4GA1UdDwEB/wQEAwIBBjAdBgNVHSUEFjAUBggrBgEFBQcDAgYI
KwYBBQUHAwQwDwYDVR0TAQH/BAUwAwEB/zAdBgNVHQ4EFgQUazajgfeJH2i3J34D
uWuzPy8XGXEwHwYDVR0jBBgwFoAU6Lb2dkvQO+VGpflU1H4Hs94NYD4wZAYIKwYB
BQUHAQEEWDBWMCkGCCsGAQUFBzABhh1odHRwOi8vY2Euc29tZWNhLWluYy5jb20v
b2NzcDApBggrBgEFBQcwAoYdaHR0cDovL2NhLnNvbWVjYS1pbmMuY29tL3Jvb3Qw
LQYDVR0fBCYwJDAioCCgHoYcaHR0cDovL2NhLnNvbWVjYS1pbmMuY29tL2NybDAN
BgkqhkiG9w0BAQsFAAOCAgEAofCLTPRibkwfM9T7c1hGj27rAdlS++fAR26xbkvF
6B9/vdIZwuPsUKEENihOdkPy32xv0+RIWmSxnNFYp++T4xW5aGEDaUFyMiWiFneY
ixF+yF+appmyXEH72xL2SejKtQD60JLb8EIQ4KMaxZFKC6lZdWRb+iELDpB4dSRa
B2w8Cj+XgsWReWOydY/lrCTq0F3TK+FwauTq6AjNG3SYEk3NoN7zhN/3Wl31YrZh
rTb5SatKPkxAsm8XuQIh9pNI1m7Ip7bhRS4I2V5vMqnKxD/lvAen5lqq26fsOhu9
mIr3NqLTjLmh+Vo9r5/r3SgGVz1CYBAVQI+lcmOs7X7X/sSulyPPgZHfBSOAYjNj
kWHOTiaqaBmygHXOu+tpBvmwYxeGz5sgR/63uKTwvPiYXRVVYaTq27kCpw+vRnYy
WCMLrDB3Qda35aYR61fmwwXFTEc5eA6CH/L+btKlOyDGoLIYay4nO3BnlKbfnyq8
nFwphUG/hiS9L3OUJ7zuh8iy1Kr7rbyzPcZxjjgLgqyob8jq5pqYbGErrF8yKZ3U
NyURDo1AWfhNGyjpzYEgjeEhakFYt8ACtdSJ80psllpfBvGlSDIW4+l0zkWQYVEa
F14kPJnrQcIIYIgmMM1LG4ep5+nT3f5DSYF/BM4VvHNuK9uQ58YV/lmYN1qE3udK
OuE=
-----END CERTIFICATE-----
