Certificate:
    Data:
        Version: 3 (0x2)
        Serial Number:
            e0:1f:15:70:63:32:27:92:2d:be:e9:67:fc:18:3f:d4
        Signature Algorithm: sha256WithRSAEncryption
        Issuer: C=XX, O=Some CA, CN=Fake CA for Zlint testing
        Validity
            Not Before: Jul 19 00:00:00 2025 GMT
            Not After : Jul 19 00:00:00 2026 GMT
        Subject: C=BR, ST=Bahia, L=Juazeiro, CN=João Gilberto, GN=João, SN=Gilberto
        Subject Public Key Info:
            Public Key Algorithm: rsaEncryption
                Public-Key: (2048 bit)
                Modulus:
                    00:f3:a9:65:ab:b5:ab:ff:e2:39:41:88:dd:b0:99:
                    0b:6f:e5:43:b9:ab:44:bd:99:67:d1:aa:4c:e9:03:
                    32:67:ea:5b:de:54:b5:7d:ef:6a:49:22:83:20:31:
                    90:20:29:53:c1:a6:a6:f5:f7:ef:09:65:7c:1d:1b:
                    19:63:17:8b:65:28:81:c7:69:f9:fc:2e:1c:84:29:
                    15:02:25:88:fc:43:1d:93:e6:b2:15:fd:cf:c7:ec:
                    81:b2:d8:46:65:53:cd:a3:6b:e2:88:53:af:15:0b:
                    cf:b7:ad:f5:1b:e3:d5:0d:6e:1c:28:f1:7e:7f:d8:
                    c7:41:79:24:0d:7b:67:64:22:16:fc:c8:52:4c:0b:
                    79:5b:af:81:b0:64:d5:61:89:69:70:80:e6:fd:3f:
                    0c:7f:9d:2e:d2:45:c8:7a:26:8e:ab:50:a7:4b:0c:
                    e1:f7:fb:8f:69:9e:34:81:c3:2f:ca:80:e1:b9:e9:
                    65:56:b5:ed:ae:73:19:c3:e9:4e:41:ce:51:61:eb:
                    04:57:37:32:86:13:9e:1b:df:7f:99:5a:17:d8:e2:
                    43:56:e2:0c:bf:35:e9:b2:cd:91:8e:75:dd:9e:63:
                    95:79:8c:44:05:89:f9:1d:76:f4:2e:15:83:30:e2:
                    33:fb:27:ed:21:b2:a0:d2:3f:d5:e2:db:12:cb:c4:
                    be:61
                Exponent: 65537 (0x10001)
        X509v3 extensions:
            X509v3 Key Usage: critical
                Digital Signature, Key Encipherment
            X509v3 Extended Key Usage: 
                TLS Web Client Authentication, E-mail Protection
            X509v3 Subject Key Identifier: 
                2B:97:2C:19:33:1F:B1:FE:07:D2:76:B2:3C:7F:0E:E3:50:4A:5B:FB
            X509v3 Authority Key Identifier: 
                E8:B6:F6:76:4B:D0:3B:E5:46:A5:F9:54:D4:7E:07:B3:DE:0D:60:3E
            Authority Information Access: 
                OCSP - URI:http://ca.someca-inc.com/ocsp
                CA Issuers - URI:http://ca.someca-inc.com/root
            X509v3 Subject Alternative Name: 
                email:joao.gilberto@example.org
            X509v3 Certificate Policies: 
                Policy: 2.23.140.1.5.4.2
            X509v3 CRL Distribution Points: 
                Full Name:
                  URI:http://ca.someca-inc.com/crl

    Signature Algorithm: sha256WithRSAEncryption
    Signature Value:
        ba:06:94:22:10:a7:80:c4:53:37:2c:15:fd:e6:05:fd:be:6f:
        24:e3:0a:fe:52:60:01:10:5d:6c:61:fa:bd:17:dd:4c:0c:be:
        b5:6d:1f:fc:42:1b:f9:7b:ae:4e:f5:a9:2e:c8:9a:86:8f:42:
        fa:32:fa:1a:90:47:98:2a:40:33:a4:a0:fe:83:6d:98:af:58:
        e5:ab:72:c3:4f:b2:15:00:99:bc:fe:e2:b0:2f:d8:df:13:09:
        f3:61:12:c4:83:09:6e:e2:fa:25:42:92:51:0e:b2:cc:b0:fc:
        01:d9:6a:2a:18:cb:0c:6a:86:7a:29:e1:65:6f:50:76:9d:d8:
        52:e7:dc:bd:9e:a9:15:23:e9:bf:87:bf:cf:be:8d:8f:ca:a5:
        09:88:c6:90:f7:a6:23:4d:93:51:ad:63:49:b6:bf:30:75:83:
        5c:9f:2f:ea:fa:cb:f8:d8:59:70:12:d8:ce:4b:98:6f:f9:34:
        4c:9a:8b:aa:78:bf:05:00:3b:7c:e4:66:10:c3:f8:da:8f:04:
        00:42:88:99:96:a1:61:ee:15:8a:cf:a3:c0:de:42:0f:ad:ae:
        4f:47:e8:c8:5e:b3:2a:a2:0b:ac:69:a5:51:14:ac:73:b7:18:
        2a:b5:2b:07:67:45:87:c1:cb:2b:bf:01:4e:f8:f9:c9:96:68:
        c9:91:86:4f:06:20:84:55:83:cb:8b:da:6a:8e:a3:33:e4:bb:
        28:81:9c:33:30:ea:97:ff:0a:85:03:07:ec:81:eb:62:e9:27:
        ef:56:7d:67:ae:c9:f1:d9:b9:87:59:06:b8:2e:d0:29:70:e9:
        a5:87:46:da:a0:9d:51:a8:f2:65:a2:11:0d:6a:d4:b6:5f:0e:
        cf:ff:97:3b:40:b5:7d:e9:a8:5c:c9:83:ac:cb:5c:13:bc:08:
        de:e1:69:19:ff:c3:06:72:ba:f1:90:4c:e7:f8:46:5f:a8:6f:
        8c:a7:8c:12:c9:2f:b9:ba:76:7a:72:88:83:00:60:e1:74:08:
        ae:8c:b0:99:8d:27:a4:63:81:04:bf:41:99:89:f4:fb:4f:71:
        ed:30:68:fd:71:34:89:35:bb:b1:8c:45:98:8a:26:d7:a0:89:
        5a:7c:2f:14:c6:04:f1:b3:d4:ff:86:13:03:b1:11:9c:bc:30:
        c1:68:60:eb:5b:97:88:99:56:7b:4b:2d:96:75:03:cf:cb:6a:
        d3:73:eb:31:a4:27:44:ce:68:b4:0c:1c:ed:cc:bc:9c:bf:f1:
        c6:b2:f3:14:cf:10:5e:3d:7b:de:38:71:d1:ed:a3:c2:d1:26:
        0e:3e:8b:07:80:35:3f:85:e1:62:74:ea:10:16:3c:60:4d:61:
        4e:68:8a:e1:ce:0b:c1:1e
-----BEGIN CERTIFICATE-----
MIIFgDCCA2igAwIBAgIRAOAfFXBjMieSLb7pZ/wYP9QwDQYJKoZIhvcNAQELBQAw
QzELMAkGA1UEBhMCWFgxEDAOBgNVBAoTB1NvbWUgQ0ExIjAgBgNVBAMTGUZha2Ug
Q0EgZm9yIFpsaW50IHRlc3RpbmcwHhcNMjUwNzE5MDAwMDAwWhcNMjYwNzE5MDAw
MDAwWjBsMQswCQYDVQQGEwJCUjEOMAwGA1UECBMFQmFoaWExETAPBgNVBAcTCEp1
YXplaXJvMRcwFQYDVQQDDA5Kb8OjbyBHaWxiZXJ0bzEOMAwGA1UEKgwFSm/Do28x
ETAPBgNVBAQTCEdpbGJlcnRvMIIBIjANBgkqhkiG9w0BAQEFAAOCAQ8AMIIBCgKC
AQEA86llq7Wr/+I5QYjdsJkLb+VDuatEvZln0apM6QMyZ+pb3lS1fe9qSSKDIDGQ
IClTwaam9ffvCWV8HRsZYxeLZSiBx2n5/C4chCkVAiWI/EMdk+ayFf3Px+yBsthG
ZVPNo2viiFOvFQvPt631G+PVDW4cKPF+f9jHQXkkDXtnZCIW/MhSTAt5W6+BsGTV
YYlpcIDm/T8Mf50u0kXIeiaOq1CnSwzh9/uPaZ40gcMvyoDhuellVrXtrnMZw+lO
Qc5RYesEVzcyhhOeG99/mVoX2OJDVuIMvzXpss2RjnXdnmOVeYxEBYn5HXb0LhWD
MOIz+yftIbKg0j/V4tsSy8S+YQIDAQABo4IBRDCCAUAwDgYDVR0PAQH/BAQDAgWg
MB0GA1UdJQQWMBQGCCsGAQUFBwMCBggrBgEFBQcDBDAdBgNVHQ4EFgQUK5csGTMf
sf4H0nayPH8O41BKW/swHwYDVR0jBBgwFoAU6Lb2dkvQO+VGpflU1H4Hs94NYD4w
ZAYIKwYBBQUHAQEEWDBWMCkGCCsGAQUFBzABhh1odHRwOi8vY2Euc29tZWNhLWlu
Yy5jb20vb2NzcDApBggrBgEFBQcwAoYdaHR0cDovL2NhLnNvbWVjYS1pbmMuY29t
L3Jvb3QwJAYDVR0RBB0wG4EZam9hby5naWxiZXJ0b0BleGFtcGxlLm9yZzAUBgNV
HSAEDTALMAkGB2eBDAEFBAIwLQYDVR0fBCYwJDAioCCgHoYcaHR0cDovL2NhLnNv
bWVjYS1pbmMuY29tL2NybDANBgkqhkiG9w0BAQsFAAOCAgEAugaUIhCngMRTNywV
/eYF/b5vJOMK/lJgARBdbGH6vRfdTAy+tW0f/EIb+XuuTvWpLsiaho9C+jL6GpBH
mCpAM6Sg/oNtmK9Y5atyw0+yFQCZvP7isC/Y3xMJ82ESxIMJbuL6JUKSUQ6yzLD8
AdlqKhjLDGqGeinhZW9Qdp3YUufcvZ6pFSPpv4e/z76Nj8qlCYjGkPemI02TUa1j
Sba/MHWDXJ8v6vrL+NhZcBLYzkuYb/k0TJqLqni/BQA7fORmEMP42o8EAEKImZah
Ye4Vis+jwN5CD62uT0foyF6zKqILrGmlURSsc7cYKrUrB2dFh8HLK78BTvj5yZZo
yZGGTwYghFWDy4vaao6jM+S7KIGcMzDql/8KhQMH7IHrYukn71Z9Z67J8dm5h1kG
uC7QKXDppYdG2qCdUajyZaIRDWrUtl8Oz/+XO0C1femoXMmDrMtcE7wI3uFpGf/D
BnK68ZBM5/hGX6hvjKeMEskvubp2enKIgwBg4XQIroywmY0npGOBBL9BmYn0+09x
7TBo/XE0iTW7sYxFmIom16CJWnwvFMYE8bPU/4YTA7ERnLwwwWhg61uXiJlWe0st
lnUDz8tq03PrMaQnRM5otAwc7cy8nL/xxrLzFM8QXj173jhx0e2jwtEmDj6LB4A1
P4XhYnTqEBY8YE1hTmiK4c4LwR4=
-----END CERTIFICATE-----
