Certificate:
    Data:
        Version: 3 (0x2)
        Serial Number:
            c0:c6:5d:1e:20:0d:4e:e4:29:ec:e5:30:e1:2b:2e:2f
        Signature Algorithm: sha256WithRSAEncryption
        Issuer: CN=Fake CA for Zlint testing
        Validity
            Not Before: Jul 22 06:13:50 2025 GMT
            Not After : Jul 22 06:13:50 2026 GMT
        Subject: CN=Leon.Mandrake@example.com
        Subject Public Key Info:
            Public Key Algorithm: 2.16.840.1.101.3.4.3.18
            Unable to load Public Key
00745422AE7F0000:error:03000072:digital envelope routines:X509_PUBKEY_get0:decode error:crypto/x509/x_pubkey.c:464:
00745422AE7F0000:error:03000072:digital envelope routines:X509_PUBKEY_get0:decode error:crypto/x509/x_pubkey.c:464:
        X509v3 extensions:
            X509v3 Key Usage: critical
                Digital Signature
            X509v3 Extended Key Usage: 
                E-mail Protection
            X509v3 Certificate Policies: 
                Policy: 2.23.140.1.5.1.3
            X509v3 Authority Key Identifier: 
                E8:B6:F6:76:4B:D0:3B:E5:46:A5:F9:54:D4:7E:07:B3:DE:0D:60:3E
            X509v3 Subject Alternative Name: 
                email:Leon.Mandrake@example.com
            X509v3 CRL Distribution Points: 
                Full Name:
                  URI:http://ca.someca-inc.com/crl
    Signature Algorithm: sha256WithRSAEncryption
    Signature Value:
        a9:0c:10:5f:75:1c:db:8e:e7:9a:26:f6:6e:a9:d2:a8:7c:3f:
        69:a5:8e:10:b9:9a:51:c4:8f:68:59:fb:c3:57:c7:cd:9b:db:
        e1:89:07:30:7f:77:32:bf:a1:3f:6a:2f:20:87:28:99:24:74:
        7c:08:62:89:36:f4:0a:91:0b:e6:a0:c7:44:38:6d:54:f0:82:
        14:10:c1:3c:b3:97:b4:2a:3c:01:dd:20:b7:83:47:02:73:48:
        c1:4b:2a:91:0c:57:13:82:51:2c:83:87:ed:14:63:17:00:04:
        20:b0:45:d3:3e:af:88:26:f6:33:39:ba:d0:21:60:70:22:d0:
        cb:38:73:cc:32:19:54:15:ab:31:3b:a8:9a:b6:1b:12:a2:d4:
        24:7b:e3:70:ab:cb:a9:8c:1b:d8:2e:8e:e0:03:18:cb:4e:aa:
        3c:e8:3a:e3:14:77:16:98:b3:4e:74:22:ad:a4:c4:d9:9b:a7:
        4b:09:0f:57:4c:83:3e:9e:5e:5d:6b:4c:f0:b1:70:69:98:ac:
        79:76:a0:43:6c:93:4a:d6:f6:12:1d:18:5d:91:8e:ad:93:f8:
        5a:0f:7a:68:83:a2:0d:9b:23:c4:c0:d6:16:67:4a:60:4e:1e:
        93:51:42:ed:c4:98:b7:b1:9f:48:38:bb:23:72:2e:7a:23:d9:
        9a:3f:e2:4d:07:1c:b2:48:99:49:9c:c3:5a:8a:d7:3f:f0:4c:
        5a:2c:a1:32:7a:92:e7:b5:2b:37:10:66:0e:c0:3e:28:2a:72:
        d8:fc:64:6e:36:e5:43:fc:b1:71:08:46:4c:84:d1:a2:c5:83:
        5b:fa:73:e9:47:5e:d3:1a:b0:6e:d2:29:a8:1d:be:6c:1c:19:
        65:db:0a:6a:4c:7f:d3:83:13:7f:3f:c7:b9:c6:6e:34:d4:ba:
        02:e5:32:f7:d9:48:fb:a7:c8:65:2f:3e:43:13:16:18:c8:f4:
        96:8b:56:f0:6a:3f:86:24:da:8f:10:cf:42:4a:e1:ee:0c:05:
        7d:f6:61:41:32:78:54:e6:26:a1:28:d2:17:72:72:c9:15:c1:
        90:e2:ca:6c:9e:0f:22:2b:e5:80:ae:fa:4f:3b:38:f6:2a:a4:
        6e:d9:89:dc:5d:cd:29:4e:7e:ba:30:e7:b1:bb:65:98:fc:38:
        9e:d2:61:f3:29:d2:36:47:8b:e2:de:08:06:39:c2:06:49:b8:
        93:99:d0:e0:87:78:e5:13:e2:f4:7d:6f:1e:dc:6c:fb:06:e6:
        ae:a1:ef:d4:2c:4f:ab:0c:cb:02:d3:51:84:73:a7:79:eb:19:
        e6:fb:fb:25:64:b9:87:56:69:b6:cb:83:c7:d2:d0:af:48:ca:
        88:76:91:72:22:f3:6f:f3
-----BEGIN CERTIFICATE-----
MIILGDCCCQCgAwIBAgIRAMDGXR4gDU7kKezlMOErLi8wDQYJKoZIhvcNAQELBQAw
JDEiMCAGA1UEAxMZRmFrZSBDQSBmb3IgWmxpbnQgdGVzdGluZzAeFw0yNTA3MjIw
NjEzNTBaFw0yNjA3MjIwNjEzNTBaMCQxIjAgBgNVBAMMGUxlb24uTWFuZHJha2VA
ZXhhbXBsZS5jb20wggeyMAsGCWCGSAFlAwQDEgOCB6EAQ3OJ1DTwQamb9QJtycs5
QO7ywgHzBzXEodK2oy0O90xRlkL/GxmhQztYMAqQVzbutp+cI/JMk3bM6rcf5Zh0
nFmO7Mp6a73s5gRFU67UCKma3GktpTa4f9owPdoeGLRvhWrTi1GL2NhJ6qyRVViO
EhQDzQ+/UnHvbcwYwlGWxOmHFnVbawCeopEUQmzEizyh/hTRMuemcZ2P1cG+b9I8
DhFwK3VbqgC4F38ZvCMafrbv7PaKEmKCv1p3tLmHq5WsJDe9B3/o65Ul0/H9aU1G
fRGmsrOc3GAeG3PJ1niQ/uuGKdbs4wKu77X058/2JdB52JuMYOwrPav/qsHLJM6a
TP3JTiRGSVRwMKz9xiXfV6NnNZE5tF5hL5LmEYnxH/gX7Xox30fiXw5fBTDygZI6
oJvuvCjiWdpaK3zPbYdZs4ikXdZ5of2TqogFz1Pk2MGsFNWyXlMkrEUNuBj5eHrW
d2iBZHRkrITfm3U5LNPEIGN/QoXh31L1LpTaL7mDTg5Hbz9V9I9YqwSTEVjcqOPF
9BoRN7O8A+itk5M+adRlUZj9/20ogb0jXktvHXhoBx6OGTNZEVeJ4wCaRUmknBOb
bTrGdNSCC4InNMYgdQtm/BKetj6WVdO5MzkRWtciTFil6XcgRrb0skJywbzyMwzA
xgYFQjBoIvjb0nUayxbxR9zXzwqw6OAMSEszq7/n6fN5zwtEJc3g3kDiEhyQxJNl
nB+2f8U+saYy6hSmYEDAK1nWXxhicJ8txMZSZjPuX/q9GR4vDt2eLYNRoPfhr99p
C4hAmG3qWrco2CRVirtX/ebqAYhSTQWZRyH+V8YWF4DCiM1ba+hARzBA39aDJA5Y
h6hjh3j+fFBQBREei3wxrUMItFC3ELRnHW8DHYk+dfi3IOk2CtvhN8LCxCuKIT55
wlY9D+ChB3ADGWv8fWdngvJsyPAjqwU0EAOXk3axvrhoX7X/0dGEt6XBK8lU1s7R
9L8HOwuFHHJWIOpG0rJl5xiaJdtwnq2b/Htp4pRf6peJD2r3IoLyr2IQwkE5FTwd
aRY5P26v+D/VZ+v3qfjz5DqOpQoeqYNK+DJk9UF8AMm9pViOUfspi69KL7iIy4fR
vl+apOaPT/H1l1mwuu6AkNySptajmg+BBPCTt/80yMHDEYtamu8IJ16z6KB8dfB1
0Hw2zNzALyN+36/Bcm5Z7Qo6aKuV5o4TWAcuJeMRZywFymvp3DOeu6hxlH7EESPW
GFuIU4lIvmTWx+fw7HP0PqLSaCIZ6anZqGYL3JqRQJ3dbJUC8J11xHwz5ciLJXeK
3nXyBfYOWxK1ZVhCuBBnw9+r5CIJbO6sLKOHnLq/PketMDslKtwaSwrbqJd1kMDi
AWA/xnrG6W7Flvl4DnMQQ5iJCL4AQbQcQc7WMNmT+kSYugXsKvCIaC/kR0jZz+M7
UE1bFkARMc0za01uNzCH9JGLeN/Owaxyh8QrlTTLEhzdRfTZfI8vYBH/LcEwTXjj
LYIdeLMaFu+kVctDfZgCS+6hA5IC/wU7St8nmKUlonWYMENiy71ds95ZRjB5i+F6
TAVHZl3LnEk6MrcPhkTYd5+UM44ObRBYTG+meYNvTPP4TG5QZ7m7TgoIIsWSkM0g
bwaAm4U1Swz9JeZT28ZsR/qN1z3vg0pn+1uuo2jag8/LddwL2TMoa7SFljiQfv+4
fYQbYIspJaTwNitAp/DmijOB09rGivELYVUruI20mYLyfqCnavRaLX+FIOEhsyXy
uOetT0WKrb0pIHkZp3s99CeonuW940trXsmD2jiX+WuWycGo+iWMaedRx5RIszV4
Xe0WmaAzuJ3Q9maZsoRaNWfchiSev9ufmLmdfOyllo5Z9Z2Md87u2QtonPnm2yPG
VMRWHEd5YE2SaQ+cIv2GHD4o+y7UP633WrqxCrEm2aPytMgCnVyaC4qxbFR+OHeA
yQhySnGLOdiYwHjSlYNTkFmBpdm1oKnQlsdfN2OVEyvtIFumoydRhqHwP30HwYlm
dr97GQoZJrBKwNhfzrbD2O3RBQ2RWXo0h2PZNg+2V2xca2DUAjext6ZlCCgLB45I
CgUox15FwYFGEIjNOzgY0/H3QhUyhdOyMPAoveEJZbDv1DY534ybnBpwD/rXEThb
UXvYcmCe8/hrRRdefJWgYHBP9Y66lBrpFUPucDzJriytQMAddtPwGIhRI5LXakOI
OCbPt4LLIl2zPdEdqwR9BpA0DBPruGhq39j56RafC4eHP65H+5on8vuLTf9bMo+q
axe9K4dN3SNvIIq38q0Ac8EfaRuzJEr10uFYmMx6irOFnPX148PJ28IsQJOl1DBG
kY+XbZiQ78uuk+cE24rbD2yqOQPzpc/tgQY/YIWglHdWA/8MXujxAH2JL6s+hcOC
RhUwx+qUjXteqgYqaOM0HTy00CvOtnZSIT/51pLF4/khmtE3+tvePuVcQ8Dl1tnL
E0oAhc19UxpukMBToDXXZAw9kHhgFDEPgW3WRG6EH6/RBD/30qk4CdhBGJ8ORVk6
DfoHy94iWA36T+w60qHPg184fXmyHT63bl/9MGpExKId7YfBKCFi0FkB4HUTHpA6
ta8eQdUjp2NNA3Ad5mVevzajgbQwgbEwDgYDVR0PAQH/BAQDAgeAMBMGA1UdJQQM
MAoGCCsGAQUFBwMEMBQGA1UdIAQNMAswCQYHZ4EMAQUBAzAfBgNVHSMEGDAWgBTo
tvZ2S9A75Ual+VTUfgez3g1gPjAkBgNVHREEHTAbgRlMZW9uLk1hbmRyYWtlQGV4
YW1wbGUuY29tMC0GA1UdHwQmMCQwIqAgoB6GHGh0dHA6Ly9jYS5zb21lY2EtaW5j
LmNvbS9jcmwwDQYJKoZIhvcNAQELBQADggIBAKkMEF91HNuO55om9m6p0qh8P2ml
jhC5mlHEj2hZ+8NXx82b2+GJBzB/dzK/oT9qLyCHKJkkdHwIYok29AqRC+agx0Q4
bVTwghQQwTyzl7QqPAHdILeDRwJzSMFLKpEMVxOCUSyDh+0UYxcABCCwRdM+r4gm
9jM5utAhYHAi0Ms4c8wyGVQVqzE7qJq2GxKi1CR743Cry6mMG9gujuADGMtOqjzo
OuMUdxaYs050Iq2kxNmbp0sJD1dMgz6eXl1rTPCxcGmYrHl2oENsk0rW9hIdGF2R
jq2T+FoPemiDog2bI8TA1hZnSmBOHpNRQu3EmLexn0g4uyNyLnoj2Zo/4k0HHLJI
mUmcw1qK1z/wTFosoTJ6kue1KzcQZg7APigqctj8ZG425UP8sXEIRkyE0aLFg1v6
c+lHXtMasG7SKagdvmwcGWXbCmpMf9ODE38/x7nGbjTUugLlMvfZSPunyGUvPkMT
FhjI9JaLVvBqP4Yk2o8Qz0JK4e4MBX32YUEyeFTmJqEo0hdycskVwZDiymyeDyIr
5YCu+k87OPYqpG7ZidxdzSlOfrow57G7ZZj8OJ7SYfMp0jZHi+LeCAY5wgZJuJOZ
0OCHeOUT4vR9bx7cbPsG5q6h79QsT6sMywLTUYRzp3nrGeb7+yVkuYdWabbLg8fS
0K9Iyoh2kXIi82/z
-----END CERTIFICATE-----
