Certificate:
    Data:
        Version: 3 (0x2)
        Serial Number:
            5a:5e:90:ca:55:2e:92:a5:09:21:f3:bf:9d:e6:9d:66
        Signature Algorithm: sha256WithRSAEncryption
        Issuer: CN = Fake CA for Zlint testing
        Validity
            Not Before: Sep  3 08:26:52 2025 GMT
            Not After : Sep  3 08:26:52 2026 GMT
        Subject: CN = Leon.Mandrake@example.com
        Subject Public Key Info:
            Public Key Algorithm: 2.16.840.1.101.3.4.3.18
            Unable to load Public Key
129943989260736:error:0609E09C:digital envelope routines:pkey_set_type:unsupported algorithm:../crypto/evp/p_lib.c:210:
129943989260736:error:0B09406F:x509 certificate routines:x509_pubkey_decode:unsupported algorithm:../crypto/x509/x_pubkey.c:113:
        X509v3 extensions:
            X509v3 Key Usage: critical
                Digital Signature
            X509v3 Extended Key Usage: 
                E-mail Protection
            X509v3 Certificate Policies: 
                Policy: 2.23.140.1.5.1.3

            X509v3 Authority Key Identifier: 
                keyid:E8:B6:F6:76:4B:D0:3B:E5:46:A5:F9:54:D4:7E:07:B3:DE:0D:60:3E

            X509v3 Subject Alternative Name: 
                email:Leon.Mandrake@example.com
            X509v3 CRL Distribution Points: 

                Full Name:
                  URI:http://ca.someca-inc.com/crl

    Signature Algorithm: sha256WithRSAEncryption
         35:f5:03:a3:f9:c1:e3:45:41:a1:a0:d0:d9:b0:e9:41:8e:2a:
         cd:da:61:dc:9d:20:cf:1e:80:5a:11:fc:7d:d0:cd:19:0d:38:
         01:e1:d1:38:87:e3:10:87:6c:3a:95:49:51:34:1d:68:93:3c:
         6c:f8:c2:bb:2e:4b:49:5c:96:a7:11:3e:09:dc:79:10:9e:e4:
         7a:29:82:d3:b2:65:c3:1b:ea:9f:17:d2:d9:de:a9:9a:ed:1d:
         84:13:04:0d:f9:29:46:33:1e:2b:79:c2:95:73:6b:89:f4:43:
         d7:c1:cf:86:a6:f7:61:ed:17:92:ae:62:77:7a:b7:05:00:5f:
         f0:1f:ad:2e:47:21:24:51:4a:0b:b3:97:93:f9:41:6b:47:00:
         43:ad:fc:75:63:d6:6b:5b:34:9f:66:52:bb:19:11:3a:46:ab:
         b7:3d:8e:6b:4e:ed:2d:a1:68:23:71:08:76:2f:0d:2f:60:33:
         97:0d:32:b1:8e:33:86:94:68:f6:17:74:8e:83:d6:6c:58:57:
         25:b7:97:4a:32:b6:69:ec:ec:77:3c:e7:19:af:db:95:00:99:
         88:00:f1:fa:57:a7:67:41:3a:28:6b:88:1e:d7:62:02:05:cd:
         65:69:c9:6b:56:9c:2e:1f:a6:47:92:69:fe:e9:f9:1c:13:bf:
         d4:65:a1:b2:f9:f9:dd:f2:22:d6:86:08:85:4f:26:5b:45:09:
         1c:e2:f4:b5:2d:1b:dc:13:9a:5f:f5:6a:60:a3:68:3e:13:25:
         c4:ba:5b:96:bc:c2:81:a2:40:10:de:0c:67:6b:8c:58:c5:e3:
         4f:8c:f3:18:83:92:bc:81:83:84:95:a6:05:27:e2:18:4f:7c:
         b0:44:33:a9:4f:70:a4:7b:11:4f:db:8e:0d:45:a8:95:37:97:
         36:87:7a:f9:6b:6f:55:4b:c4:6b:14:bf:12:1e:34:d4:8c:92:
         98:ff:2c:a6:57:fd:a0:3d:a9:a1:32:b9:e3:e6:f0:10:0e:63:
         8a:f5:bd:5e:60:be:b0:f7:f1:39:3c:e0:ab:c0:7e:46:a4:3d:
         df:24:0b:48:b9:0f:5b:4b:d8:39:b8:2d:a5:17:51:c0:b9:22:
         3d:6c:a7:f2:14:f4:50:e6:43:76:9b:1a:48:a2:61:da:22:91:
         78:e3:eb:a5:7a:6c:ba:04:ab:44:96:2d:24:73:da:43:10:f8:
         7f:41:a2:e0:97:14:bf:35:18:2f:fe:51:ee:6a:d0:a2:63:41:
         0c:4c:82:51:f8:75:4f:c2:6e:41:c6:57:b8:27:a8:3c:be:b6:
         a2:0e:32:56:38:96:a5:b3:fa:a3:b4:b2:b9:e7:67:a6:3a:ba:
         0d:f9:65:03:e7:f7:f7:b0
-----BEGIN CERTIFICATE-----
MIILFzCCCP+gAwIBAgIQWl6QylUukqUJIfO/neadZjANBgkqhkiG9w0BAQsFADAk
MSIwIAYDVQQDExlGYWtlIENBIGZvciBabGludCB0ZXN0aW5nMB4XDTI1MDkwMzA4
MjY1MloXDTI2MDkwMzA4MjY1MlowJDEiMCAGA1UEAwwZTGVvbi5NYW5kcmFrZUBl
eGFtcGxlLmNvbTCCB7IwCwYJYIZIAWUDBAMSA4IHoQAt2mhAvR56NhV8gD8YsLen
BeTO+UWFqw+vcsiUzLdYofm5SEkmTwHWJ8Vek2OKQLGv7WoJn9n2F1ez1N6TBnAC
TMV2MMfytDaBmqb689EMRUpYmRm7y5jl3H7C8n8gHmm+whfN4tmMeuc/U7gfnoV6
hw3d+4glu2dT7MT0ofCUlPHB5tQmf1M9OplgXrACpX30avWtmfGY9LCvgWSDFRgB
CfUw7OLxlSJckGvUC2+QsC+GAtWVgWOKZf0jAtQswHy+LpHsIXONsiCwb4fNvTjp
xA3gT0cEabRd84uZLoRZFQnO0My+H0mmeqFd/DqPdB715WQS+Ey9/RY0LA1WSAW2
CuSSSBi3yQkHeXBvVz3Sc30JadfWJK1iVx2EkjeT3MVyR7F3ETHm0NBh+pjL0pWp
WHZesPX5978ckS68pyAlZxzZifPnv1dAXgD+v9qY+K9YKwDcQ/h5RxR+Qp6TJw4W
lr+z8q6RH3E8BOmoLP9bCu6+QA/yP35Griise8dlcYj5sjPaab5f7ZQy+9sTBSpt
Caf/rwZXY+bXNHYa76906/0JCAVya1S4F2J1THdtKUavSUegGnxY1YZ71Cxs6oHg
yYU8ucAv1y9bSzai8Dvj5Te7W7Dj5YHjhSPwRhGriWrgFq7eO9pgnEaOl4IWcCIu
R3hQoJ94I20OBd4DHomvKJG65wiRt2dNE4nckGmNmKPcy0Ri4wlGD9ea/UAKzvrT
dirR4czpm6TtDGjybAIrTEslPa5HrHFGcYzSdccji3B56yukFtWD71FRJrIruxXT
w4XlXNq+ZJrPXCVOi6LOZ1BTMGBRitwFbIwLBIjc1kglrDOIcfBtlVRRVSf+4MuI
6rgafCepEBKUG37VQGtfZ1oH2xJlQhEPuFS4oqMfgh7qADZRv0Vus6uUsjLDJ3ZO
tOqYu0B/XgGQZx3CdVtWHz6WafOya5UglHgVVsVf2cXV0ta8lciRTVqs1wyTT7mx
Cu7VwBkaShfTjygnNjEuG6XoUc2TUdN1Vt6HjjAPnVUfIpvwGx3hIZEAsDVkl2w6
i4Jiq5nrVzNbIy/iTo8056xp6TaPiqaVn/oC+ByKd2e/4QHrOV3sloPb03VOEF5G
0vWsAzefuVs1fUCvS48V0jT8uNa5XgRSa8da1cq55UvUsGmZFovb1znMA1Bu7C77
IJicvUfu2dr9oxRaHxW8ctwhfDfkatxJQqXIr28Ij31BdRM13OXKDNGVgZQJoGZ0
6kZRjtd74ImiyXVFnpe6ZlaCDuZWbT5e/5ETjJrCAe+9xuPi9imkrEhLSsziPjsF
VAtrl8hvdE9VE0eVt3d1hVOuLKsAcV7k/n17DU3RiVXyj4TG2V50ZLGOwD9kORgB
zml7QM9aI8ZA9jUpl5h5pNz2CNtWW3/yHquWo3WmCQ5VjYzVYPhlQ1ehWeZDylXn
63Y98h52lPfqy0jciFrTD1MDdFRz3UYC7QaLAuLyaLv2m3theKrWpVQ853qCAezt
4tB0OwnyWi8GBs88x8nd8Z8k34qumEdaVL9HAiw31zrnmYwK3qpNdA8G9ZiA2HIC
FtwCbL9mdAgGJZO52QEdxf408PqQLkIvUm7kBTsD8QKM9eDtAAS9sDbJ+PnjmY3f
/fj7V4tkixgSzbn08IGgQ5kKGXWY8NmlRPv3S9cv6bq71pVWQK7EprqIoWVJqsvX
PFnJBBvyhFsClfzTt4chlmu3buo4di2KUQRkK1DbGaF3kZPqVGs3heyF4qCCoFaA
byJoVhfBOmciDZTdWvHR0GgEv1oxHTcVbUppDIFI0adl5kD4/zNYRCXp/bnWsx41
AGOvv1mGPgNLiuxsl9/5B2GHpqbjkmIYrdQpDgw/sJu8tGADQQzhro2/YbvpYghK
MoGjcOx8XX1zEuHoCRg1rybJgSKPnVfVH9O/3L2ugbOuRKDKkMnksPqTc/pj6QIl
i2APcJJsVgOIPI2iIA/aZ7TPC/2kh+ggK/5F/9u0Msbq8LHw2zqbT6kRRLDLxKy8
xZwqXqeVVfatzJThJqX3fDtQ2gNCT2vUgcCpHBfKFM2RE/qyT0nBlZ0jGu8+fiBr
jmUwU5uBeYa5NAo3pd6ga3nVuNZrK61EVgP8NW19wHuNMNyyqM4/+PZqEMO7MiZs
lIK2Ry7bi3VsKXHS82e5G1NakNmQiRxLYYebOZVzg4fNhG1bS4EFU1Zp6i9qz2IL
cnbW/a/+VAImas2OpD17O++BzvX6tUWIxBOWxHw7dV4vxJNjnZ6lpOlI026YKyYO
8oBu1LbsVIboIM1xHa/mp23k3G4L/C8G8QVxuG4W5PTYBnwKPNfHp2ALBUPJ1FMp
yREdc0286xcH3hZDD/KctAuKQDegw1cEteVZ7Zqms7Q5yuxIH3InnrbNQUBtyiMq
yNkf9vdgh+DJO9sk0M6E1Y0Vqx52/hEfz4rdsuygHUjpJVUHNlHNHgwd7aGildVr
3NqBsHZ2VVW7YhrG8nzfcOHmOWrTgI2dwFXsWi0hIeqFajE79m7FPlpXCPc8qPPX
Vz/iMVItGWWz64HQ9vi3NU+KjELHa4ZMqMk8KPtkpq6vKw569AGQYl3Qx7Zs9tZi
8hRW91Y/nkJyU3lU66tONaOBtDCBsTAOBgNVHQ8BAf8EBAMCB4AwEwYDVR0lBAww
CgYIKwYBBQUHAwQwFAYDVR0gBA0wCzAJBgdngQwBBQEDMB8GA1UdIwQYMBaAFOi2
9nZL0DvlRqX5VNR+B7PeDWA+MCQGA1UdEQQdMBuBGUxlb24uTWFuZHJha2VAZXhh
bXBsZS5jb20wLQYDVR0fBCYwJDAioCCgHoYcaHR0cDovL2NhLnNvbWVjYS1pbmMu
Y29tL2NybDANBgkqhkiG9w0BAQsFAAOCAgEANfUDo/nB40VBoaDQ2bDpQY4qzdph
3J0gzx6AWhH8fdDNGQ04AeHROIfjEIdsOpVJUTQdaJM8bPjCuy5LSVyWpxE+Cdx5
EJ7keimC07JlwxvqnxfS2d6pmu0dhBMEDfkpRjMeK3nClXNrifRD18HPhqb3Ye0X
kq5id3q3BQBf8B+tLkchJFFKC7OXk/lBa0cAQ638dWPWa1s0n2ZSuxkROkartz2O
a07tLaFoI3EIdi8NL2Azlw0ysY4zhpRo9hd0joPWbFhXJbeXSjK2aezsdzznGa/b
lQCZiADx+lenZ0E6KGuIHtdiAgXNZWnJa1acLh+mR5Jp/un5HBO/1GWhsvn53fIi
1oYIhU8mW0UJHOL0tS0b3BOaX/VqYKNoPhMlxLpblrzCgaJAEN4MZ2uMWMXjT4zz
GIOSvIGDhJWmBSfiGE98sEQzqU9wpHsRT9uODUWolTeXNod6+WtvVUvEaxS/Eh40
1IySmP8splf9oD2poTK54+bwEA5jivW9XmC+sPfxOTzgq8B+RqQ93yQLSLkPW0vY
ObgtpRdRwLkiPWyn8hT0UOZDdpsaSKJh2iKReOPrpXpsugSrRJYtJHPaQxD4f0Gi
4JcUvzUYL/5R7mrQomNBDEyCUfh1T8JuQcZXuCeoPL62og4yVjiWpbP6o7Syuedn
pjq6DfllA+f397A=
-----END CERTIFICATE-----
