Certificate:
    Data:
        Version: 3 (0x2)
        Serial Number:
            2c:c1:5b:63:a5:4d:2f:ce:3b:38:7f:fb:3b:74:83:8a
        Signature Algorithm: sha256WithRSAEncryption
        Issuer: CN=Fake CA for Zlint testing
        Validity
            Not Before: Jul 22 06:17:07 2025 GMT
            Not After : Jul 22 06:17:07 2026 GMT
        Subject: CN=Leon.Mandrake@example.com
        Subject Public Key Info:
            Public Key Algorithm: 2.16.840.1.101.3.4.3.19
            Unable to load Public Key
0054AC0DBD7F0000:error:03000072:digital envelope routines:X509_PUBKEY_get0:decode error:crypto/x509/x_pubkey.c:464:
0054AC0DBD7F0000:error:03000072:digital envelope routines:X509_PUBKEY_get0:decode error:crypto/x509/x_pubkey.c:464:
        X509v3 extensions:
            X509v3 Key Usage: critical
                Digital Signature
            X509v3 Extended Key Usage: 
                E-mail Protection
            X509v3 Certificate Policies: 
                Policy: 2.23.140.1.5.1.3
            X509v3 Authority Key Identifier: 
                E8:B6:F6:76:4B:D0:3B:E5:46:A5:F9:54:D4:7E:07:B3:DE:0D:60:3E
            X509v3 Subject Alternative Name: 
                email:Leon.Mandrake@example.com
            X509v3 CRL Distribution Points: 
                Full Name:
                  URI:http://ca.someca-inc.com/crl
    Signature Algorithm: sha256WithRSAEncryption
    Signature Value:
        11:66:c3:52:1f:39:69:79:bc:da:00:d6:61:29:95:05:7f:85:
        ec:96:cc:9c:d3:f9:1b:d4:a5:7e:92:95:9c:c9:58:3c:59:dc:
        15:27:87:b5:a5:d8:8b:8d:ae:43:6f:cf:a5:7f:f1:28:07:93:
        f4:c9:c3:d5:3e:13:58:73:4f:30:dd:3d:fc:94:d4:31:d0:b3:
        c7:e3:46:cd:33:18:4f:33:1f:de:97:b0:b4:a1:37:dd:ea:e6:
        ee:0c:c8:c9:e2:a0:dd:3d:4b:5c:01:f0:fa:55:da:10:6f:ae:
        de:aa:42:48:35:c1:04:c9:d3:99:a8:4c:a1:d9:d9:1d:98:21:
        ba:37:2c:a1:9e:48:9a:cb:f3:b3:2f:ee:eb:98:ab:5e:0d:a1:
        f7:ef:14:ec:df:1c:e7:5e:d5:05:d4:c4:a2:ba:7f:90:98:14:
        00:f9:1a:60:b7:e7:c9:e2:b0:77:89:65:77:8d:7f:0d:66:ad:
        0b:21:66:ce:23:45:16:86:73:ed:06:4f:26:fa:67:4e:ab:bb:
        68:b9:f7:f4:b8:56:e9:2f:b0:31:3f:8a:ba:9c:72:63:a3:ea:
        26:25:6b:90:8b:d7:5c:9b:65:aa:ff:4e:40:7a:5d:29:ff:38:
        d6:ec:b7:3e:77:51:7c:4c:d4:10:91:bd:fc:ec:e1:a3:73:bd:
        dd:0a:bc:cb:50:ec:26:c6:f4:8d:86:59:51:22:05:f4:83:9e:
        ee:d0:b9:a9:64:0f:d8:2b:b7:9a:d9:2e:82:71:93:6d:c4:47:
        2d:95:58:d9:57:2b:09:bc:5d:10:91:ba:10:7b:71:58:72:e4:
        5e:1b:29:06:0e:9d:e8:75:b9:f4:2f:b8:9a:36:b2:65:40:e4:
        7a:eb:c1:c2:cc:96:c3:90:7a:0e:34:2e:57:37:43:a6:d4:ee:
        de:5e:4c:87:dd:9f:87:ca:27:9c:d9:4f:04:2e:17:37:67:5f:
        38:82:01:ef:6e:92:49:ad:f8:c5:17:74:01:fd:3c:3c:cf:c2:
        98:ad:9b:a9:ce:99:ff:58:40:8b:18:63:cd:f2:bd:62:5b:06:
        39:42:ea:52:c1:25:cb:b6:cc:68:b1:f0:2e:ff:f3:df:a4:a8:
        84:ce:40:41:30:e9:e1:e0:07:5f:04:f9:ac:1e:71:28:56:8b:
        77:bd:4e:c3:1d:ce:6c:d3:1c:55:85:b8:41:47:ef:62:f1:8b:
        ed:c3:87:32:2e:95:93:a4:4c:7f:fd:08:07:fc:72:37:ef:dd:
        1e:4d:db:9c:20:4a:68:6f:6d:61:d9:c9:e1:7d:75:7a:c2:5b:
        f4:31:e5:63:42:e3:2d:f9:5d:5e:72:0d:bd:af:d4:dc:ef:ec:
        d3:22:33:2f:f6:6f:49:0a
-----BEGIN CERTIFICATE-----
MIINlzCCC3+gAwIBAgIQLMFbY6VNL847OH/7O3SDijANBgkqhkiG9w0BAQsFADAk
MSIwIAYDVQQDExlGYWtlIENBIGZvciBabGludCB0ZXN0aW5nMB4XDTI1MDcyMjA2
MTcwN1oXDTI2MDcyMjA2MTcwN1owJDEiMCAGA1UEAwwZTGVvbi5NYW5kcmFrZUBl
eGFtcGxlLmNvbTCCCjIwCwYJYIZIAWUDBAMTA4IKIQDwqVWtCOdHdpRNLNZwGMFH
q5vfXqs5FRyrz87LZ75ONkcV1xliXpP4pXjY+RgfYUVbRbF/BrBFqYtcofMoXhvy
o8KFrqKjDou1kurDktbBnQG2bbB3++Ecq5CX/yWTwpYLuVoIMhCw2dnzsJUNgP8h
y3nTinUZPdJxfGpd9BF6I/TtOutNQLamiO+DCZGEQVhfS3XE3IaykUzvsscTfY10
Bkf+S5wt/zFzBkkrcTKC7lXK3SySxsXqzfitkOkq9Omghhqnbn/g96eTupP3loSO
2s88V5Nh63G2lW8rmG51nLNyB0dLzRwBOZoCpArD+QRjMX+FmDLWbc0Le2a1Vx4g
VRGkuRZfJgVEeSK2Irm2GCPn93wiTJB9I4tLdiOiKEYiS478cCX78QhcBXNpwgwt
8stg+jGv2dM7yEk8QRlBLUiQGb96aLPtdFORcUGzUNIkjx61HDuYSnqfwJo6QrSs
yldHdLFmqrODZW5PSc/vS7YC+jW4ARahIuX6zp3V0Y5tGNk6DPiraxry4XAPyM0W
w1NJgt9BgVpw2CN4U80MhPrj9o+O1lA4d7KuMjlWnnOupWfAbgcA3+0KDHtZWlPJ
0mf738VKWd3E6Aat5pKUqcXwtPqhjG6k6wOfjm0KDf94mjtf2MA3m3PVaO5n6D4h
7q81fAWc+DQGt81nSooMqOz5gY9CsKJSrjbvPF0hiimVR3R8930Klw5ClRrHhVRf
4Z1PPDMCFiHI6IpJoCrUB2jV2zFfw0AYYe7aMBH2f8yeyTDt/yJ/yQZ9wcMbD2a6
QJpU5xIWu2oSrISvlGmjG1DSrKtYzLfWWMVXNisYdVz8+Jgf29VtY3Gfm8wjCa5m
/iI8WdU1HvPG4nO5Dcw4qetcTAMBwjn+9H0xB+Rpsjwa2TSZxlqDo0Oc3FZBccD0
IzqM+WDFuY9vWGoy4zG2IjpcHxSTPRhp8vLNL+x4DB8SXCq4J/bmK16VWwsLVq/i
jLwFrXxpItfIxOwwblaeZkOTOhJrdBqYVL8IiIv3EqPh8VWd3NbbLlbDiwt4Qq01
9Z8O7ZUvDnQrG4S3o2wQCU/P/0w3RTYr6/8KwncexGpiJBqYsgT5c6AI2NYjOsX0
6qWtlvIOuEkAuBS432VlwQWGKCK5LQ9yZ0cCmIH6pnCyw+oy//vGJNLgQ2W4KNrQ
gMXRrlUUgbs9fJhGpJxAzSaFzM7fH3Y/0RLkfM2rmaQx1M9AjQAFQRNoB638uQoU
jHHXkOfuw/3o0r3gdvLSBwA3Knug6+ZWCy/ZPPk9rvCz/N6vWQMbDo2OudEO69bG
ePtQgd5BkhxnPvvSv18qMmr26irdAKHcUtU6wStMEcXKYHfTS+YJVQbIeZ6SkJHD
YdMgLUTieiWxl41VD+fgX3dtHRISChUWQncUd0iI7SS0dR22FOpg2cMPe+i3xcsk
1mlFR+r4vgwy0JZiNCjhvFnlolgZvFrBV5tgYP6DlDGnKXm0WMSdJxsbxUjM+Sgb
qj5ZJNs/grLrHAxAW96THmTORtFUZJusifOvAE7l1Wvp9KNF+Yl+7PpTySSLmGhf
SL2QI1+ErHnqdGNNuV+iRml9gbVElOBFMXbSC98aTafdGOW+p3oGOHUrSw6NQt0M
y/RpSvkTtZ9iSPEA8+3F2Jcy1YdnPrLMxvpvTM4457XadaqJx04vl5CTAccoNc7+
d62WUhPT/2/Ik71wFS+I+yrXq94/aofFPfftmrtnW/4xQcLkY4IWabiA2/DhpNdt
R77rJzFCnPzU+D5ipk/jPQ9UZlKydLJv2iegxQj/uKKyQL7LR6gukL8/P/DpWg2u
gsBISH5w2LbZ28qjW9BbLWq2FmKfs4LCOnTkirMYfaqeaCl3AEs39QVuVZemTX85
hf+iHqDZf5K7WOiY5lVnnBb1K9QhifNt+8ZezebvdbfH4N5HMMw22lFb/A8XEmXf
ymp4KQESjsbofoCZh9TQAM9xrTjCWWH6g+eQJlFfZ4hLuU0S9pSPrOKQbAxJAzOE
bv5Llzj0pqyJL61VLq8zZnvh6NeMmYg6f86PzbMrnjDwvR2qSDeQwAwTgj9fd2Xk
db6CiTptc6f0+MqangnCQE3F9SLikiNTpKgc5tBMe0ncAwcG829WMS7zX8N9GhgH
oGHtbb9iNV2dfPChO9z1vhGKh6fhdz3pK1IPw018nwfaHitR9iGME70ixZR1S4vM
vUc6ta5RxVOniugqpIV/SP6+olUJRXgyR/HYL6jJHMLXGeKF7xHxH6AQ89ijKuCR
tIcOKJRxGVE+ZL90oGb7uqJSteyxPxtadgtcnl25cKD2LFX6fHxvsZyZh22nWt5K
YlEnu1ICyxrUPvbWkXelvJoRrp6gtnrmVMBl6wtfAcZMYMR2FpQOUnPPyqBoiZ9K
nMwAoOYprnBTzKlOpwkya5wnU7Hzf8V/fDTAweUXfTGljiS2R8O7jNkQ9PIGRZ7I
Z6u3IKqfPKyorWDzBXbMelu/zHNs4e4NGbfHL9ORbtKDDP65HliimDZ5YiqfxDu7
O9F5XJdk0NEOBkU0DR24Uv2VbQ3hbKs/VwLxyv3X7mLz8ztLUAOz1UJ3TELJOLaQ
FdjRuETcEk1xZ93hTEbBhEeTOBMw4mDprxTJb5JBJRe2ZU4ARPOATV/dfovuPLIH
i6+v6Wlu0VsbRYy0lyMfT5fRVZiW+lWvNShrdq2mRW5mgjmcsznTVg0s0Qfqf2R+
cW28+TuryN4wvq5r8H6AFn4PVRUMaYeKdJiZyWgT4h37kVtn9tqKQufq9xG2KQaq
eq4y+gYI5Z4Qgr9KVtItnVJ+w5x+Bcm3mGGDale6ZDlFj8fOsjpL4/3Ol4+4C4GZ
YmGgVyHyMcg+q9FIfd45N0YtL3MQdiR0iuMrQbrKRHdJpc+aH34PRLbix6FqJfZS
lxoP4UV/x8E0DebY9G4y8qL/kIf8D299boIlitXifZB2OEpX+UbxUkSL6aILkiCy
3iVsAnI8ummm5tfyJsddpqzbvprkBB4jPJvSj+b4LbM/bhHWgFEeYxLkxdmBPpLO
shpmgoeqmBpKleMXgNnKkhf4C3XQyNxJsHnnGTxjCWwF4Ldc7BVJNHcDaPvPe9Yr
+GGGVBn8naQdwvubotbt4HFz0Os/l1/w81MrI1kXpLrQQHkKwJo2lKWQbtL0MYSn
eZ1T5ERk/Y6Rzj7vsKJ0gFI01PaHYWUpknhZBNATByf1au8EwBTVcSerJfHlN+yj
qK4J6mJ5LXNlFTJQKAgvQHFU37lO4HRVN5dC+0kT6eM0weUrgsS+Zsg0/3i4o43K
R7UpmBn89pXEKRVjve+282hd62ZXiucPUDx8eNKsqrsutPbDbOJTWu2tYLLkWFG1
PUprUwwpv61ZbfJV0LGloTT0DwvEbzSQeBlgfIZrTQlaCC9KogHCCBAslJMnTIWs
p10wlbr0DREGi0/7Fk9im6PhVpeTbbM5YefE+G/JdZ6jgbQwgbEwDgYDVR0PAQH/
BAQDAgeAMBMGA1UdJQQMMAoGCCsGAQUFBwMEMBQGA1UdIAQNMAswCQYHZ4EMAQUB
AzAfBgNVHSMEGDAWgBTotvZ2S9A75Ual+VTUfgez3g1gPjAkBgNVHREEHTAbgRlM
ZW9uLk1hbmRyYWtlQGV4YW1wbGUuY29tMC0GA1UdHwQmMCQwIqAgoB6GHGh0dHA6
Ly9jYS5zb21lY2EtaW5jLmNvbS9jcmwwDQYJKoZIhvcNAQELBQADggIBABFmw1If
OWl5vNoA1mEplQV/heyWzJzT+RvUpX6SlZzJWDxZ3BUnh7Wl2IuNrkNvz6V/8SgH
k/TJw9U+E1hzTzDdPfyU1DHQs8fjRs0zGE8zH96XsLShN93q5u4MyMnioN09S1wB
8PpV2hBvrt6qQkg1wQTJ05moTKHZ2R2YIbo3LKGeSJrL87Mv7uuYq14NoffvFOzf
HOde1QXUxKK6f5CYFAD5GmC358nisHeJZXeNfw1mrQshZs4jRRaGc+0GTyb6Z06r
u2i59/S4VukvsDE/irqccmOj6iYla5CL11ybZar/TkB6XSn/ONbstz53UXxM1BCR
vfzs4aNzvd0KvMtQ7CbG9I2GWVEiBfSDnu7QualkD9grt5rZLoJxk23ERy2VWNlX
Kwm8XRCRuhB7cVhy5F4bKQYOneh1ufQvuJo2smVA5HrrwcLMlsOQeg40Llc3Q6bU
7t5eTIfdn4fKJ5zZTwQuFzdnXziCAe9ukkmt+MUXdAH9PDzPwpitm6nOmf9YQIsY
Y83yvWJbBjlC6lLBJcu2zGix8C7/89+kqITOQEEw6eHgB18E+awecShWi3e9TsMd
zmzTHFWFuEFH72Lxi+3DhzIulZOkTH/9CAf8cjfv3R5N25wgSmhvbWHZyeF9dXrC
W/Qx5WNC4y35XV5yDb2v1Nzv7NMiMy/2b0kK
-----END CERTIFICATE-----
