Certificate:
    Data:
        Version: 3 (0x2)
        Serial Number:
            6e:5e:58:a4:48:c2:62:77:13:7e:2f:c4:72:9d:08:69
        Signature Algorithm: sha256WithRSAEncryption
        Issuer: C=XX, O=Some CA, CN=Fake CA for Zlint testing
        Validity
            Not Before: Jan 12 10:13:44 2026 GMT
            Not After : Jan 12 10:13:44 2027 GMT
        Subject: C=ES, L=Algún lugar, O=Alguna Compañía, CN=Alguna Compañía, organizationIdentifier=ABCES-1234567890
        Subject Public Key Info:
            Public Key Algorithm: rsaEncryption
                Public-Key: (2048 bit)
                Modulus:
                    00:b2:b0:84:f2:c8:27:b9:76:4b:3d:53:8e:74:77:
                    f3:80:b4:9b:e5:11:a8:ae:0d:67:c3:03:db:d8:c1:
                    23:fc:ff:3b:a9:9c:d1:e3:22:9d:49:65:4c:b6:c0:
                    03:96:55:23:0d:35:89:5a:e7:3d:c1:12:8e:da:d5:
                    b3:e9:cb:7a:45:2d:f3:53:76:56:fb:df:5a:cc:42:
                    9e:10:30:b0:0c:f7:aa:98:57:65:ce:74:b0:09:5a:
                    17:7c:7a:e0:05:af:0a:93:46:67:fd:b9:d0:a1:4c:
                    2a:94:d5:8b:09:34:ec:84:1c:f1:8f:03:d5:16:7e:
                    de:4f:20:f5:00:5a:d2:5f:bb:f4:2d:1e:86:ab:9a:
                    f4:80:50:cb:72:6e:28:30:fb:e9:f0:58:46:7d:fd:
                    fe:46:0f:1b:82:8f:03:cc:b8:7d:0a:b4:5a:47:1e:
                    94:92:08:8d:38:9e:b6:e8:e3:f2:6e:ac:38:e4:75:
                    f6:e3:ba:6f:91:3d:ec:e2:c1:4e:8a:b9:d9:6c:2e:
                    01:dc:1e:bd:be:d7:9c:30:42:f1:11:cb:2a:fc:d4:
                    16:40:ee:73:52:b9:c1:f4:0a:3d:94:48:9d:ca:8f:
                    6d:9f:50:b6:4f:df:f7:d0:cf:bc:5c:fe:65:b0:c5:
                    a7:b0:e2:4a:72:b5:07:80:8b:82:27:31:d1:ff:48:
                    60:05
                Exponent: 65537 (0x10001)
        X509v3 extensions:
            X509v3 Key Usage: critical
                Digital Signature, Key Encipherment
            X509v3 Extended Key Usage: 
                TLS Web Client Authentication, E-mail Protection
            X509v3 Subject Key Identifier: 
                42:F1:31:79:5F:B0:6A:35:CE:BB:65:78:4D:72:C0:DE:40:A1:EF:45
            X509v3 Authority Key Identifier: 
                E8:B6:F6:76:4B:D0:3B:E5:46:A5:F9:54:D4:7E:07:B3:DE:0D:60:3E
            Authority Information Access: 
                OCSP - URI:http://ca.someca-inc.com/ocsp
                CA Issuers - URI:http://ca.someca-inc.com/root
            X509v3 Subject Alternative Name: 
                email:Leon.Mandrake@example.com
            X509v3 Certificate Policies: 
                Policy: 2.23.140.1.5.2.3
                Policy: 2.23.140.1.5.4.2
            X509v3 CRL Distribution Points: 
                Full Name:
                  URI:http://ca.someca-inc.com/crl

    Signature Algorithm: sha256WithRSAEncryption
    Signature Value:
        8c:c1:21:4f:d4:12:c4:ef:4f:3f:5a:dc:06:41:c6:6f:4a:4b:
        fd:47:70:ed:d8:a0:89:de:3a:96:1f:e3:90:09:53:c2:94:b3:
        cc:7a:10:0d:f2:2e:9f:f0:0f:6e:f7:38:8c:2b:21:dd:6d:5d:
        73:2b:56:5c:33:84:df:c4:35:df:dd:f4:94:1e:76:0b:09:85:
        00:61:bd:ab:2d:7c:e6:8e:56:8d:7d:2f:59:db:a1:3d:98:63:
        88:d9:41:a4:57:f6:e2:7f:38:c3:ae:c9:da:73:ab:2c:07:09:
        46:7a:32:6b:b8:99:20:1f:30:5a:2f:f3:6a:11:6c:67:41:11:
        fd:2c:01:2a:68:35:0d:d2:df:ed:1f:07:9b:63:eb:e2:26:14:
        36:e4:c9:7e:1d:b1:0b:a4:b0:bf:09:6b:a1:a8:61:40:a9:0a:
        d1:26:f2:50:53:43:bb:65:ec:e3:72:6e:85:ab:2b:64:43:f4:
        96:fa:ad:10:a4:f9:29:b9:c5:81:17:b7:8b:01:70:69:d9:a3:
        24:0c:7f:89:9c:e7:2f:37:4c:4e:8c:b9:ec:db:91:76:2b:95:
        01:8f:5d:ed:c3:70:6f:2a:05:63:3c:21:50:d6:50:09:3c:98:
        05:c6:53:31:d7:85:e2:e9:28:dc:ed:01:e2:42:a7:aa:80:0a:
        78:55:cb:8a:56:b6:d6:3a:7b:e9:e0:e2:6a:fd:65:84:7d:e6:
        95:43:34:0b:81:6e:6f:b7:1e:23:c5:64:26:1e:ef:ec:18:d9:
        1c:34:69:fe:6d:85:f7:e8:be:0d:14:b9:e3:93:7a:fb:f2:63:
        84:68:6e:75:31:9f:71:85:d4:a9:f6:85:99:38:fe:8e:e1:22:
        69:0a:bf:dc:dc:00:4a:7c:a4:a9:84:a7:de:35:4d:73:f1:e7:
        96:0c:0c:56:ec:f8:11:5f:a5:c9:3d:16:39:b0:b8:f8:3a:8f:
        03:d0:f8:36:96:2e:9e:76:c8:c2:7d:85:19:d1:54:fa:52:63:
        92:f6:3d:a2:60:17:99:9e:f5:b6:c6:07:ec:ca:c5:87:e7:05:
        b2:1b:b4:b2:75:1c:e2:dc:bd:6c:55:8f:52:a6:ce:33:23:58:
        e2:f6:57:86:81:e9:27:52:08:c7:4c:4b:f4:cc:63:93:2d:8a:
        e6:3e:59:a2:6d:23:79:04:ac:f0:20:f3:b6:4d:c6:e7:f3:76:
        a4:a8:77:a7:9c:84:fe:17:01:4d:94:cd:08:be:01:68:af:22:
        d3:a7:5f:8c:49:62:1c:de:3a:f4:66:c6:29:b5:05:5c:ee:2d:
        67:2a:14:94:10:d5:bb:58:77:e0:cc:6d:dd:b0:ad:8b:f0:e1:
        05:fc:f4:f7:43:e7:bf:95
-----BEGIN CERTIFICATE-----
MIIFlTCCA32gAwIBAgIQbl5YpEjCYncTfi/Ecp0IaTANBgkqhkiG9w0BAQsFADBD
MQswCQYDVQQGEwJYWDEQMA4GA1UEChMHU29tZSBDQTEiMCAGA1UEAxMZRmFrZSBD
QSBmb3IgWmxpbnQgdGVzdGluZzAeFw0yNjAxMTIxMDEzNDRaFw0yNzAxMTIxMDEz
NDRaMHcxCzAJBgNVBAYTAkVTMRUwEwYDVQQHDAxBbGfDum4gbHVnYXIxGjAYBgNV
BAoMEUFsZ3VuYSBDb21wYcOxw61hMRowGAYDVQQDDBFBbGd1bmEgQ29tcGHDscOt
YTEZMBcGA1UEYRMQQUJDRVMtMTIzNDU2Nzg5MDCCASIwDQYJKoZIhvcNAQEBBQAD
ggEPADCCAQoCggEBALKwhPLIJ7l2Sz1TjnR384C0m+URqK4NZ8MD29jBI/z/O6mc
0eMinUllTLbAA5ZVIw01iVrnPcESjtrVs+nLekUt81N2VvvfWsxCnhAwsAz3qphX
Zc50sAlaF3x64AWvCpNGZ/250KFMKpTViwk07IQc8Y8D1RZ+3k8g9QBa0l+79C0e
hqua9IBQy3JuKDD76fBYRn39/kYPG4KPA8y4fQq0WkcelJIIjTietujj8m6sOOR1
9uO6b5E97OLBToq52WwuAdwevb7XnDBC8RHLKvzUFkDuc1K5wfQKPZRIncqPbZ9Q
tk/f99DPvFz+ZbDFp7DiSnK1B4CLgicx0f9IYAUCAwEAAaOCAU8wggFLMA4GA1Ud
DwEB/wQEAwIFoDAdBgNVHSUEFjAUBggrBgEFBQcDAgYIKwYBBQUHAwQwHQYDVR0O
BBYEFELxMXlfsGo1zrtleE1ywN5Aoe9FMB8GA1UdIwQYMBaAFOi29nZL0DvlRqX5
VNR+B7PeDWA+MGQGCCsGAQUFBwEBBFgwVjApBggrBgEFBQcwAYYdaHR0cDovL2Nh
LnNvbWVjYS1pbmMuY29tL29jc3AwKQYIKwYBBQUHMAKGHWh0dHA6Ly9jYS5zb21l
Y2EtaW5jLmNvbS9yb290MCQGA1UdEQQdMBuBGUxlb24uTWFuZHJha2VAZXhhbXBs
ZS5jb20wHwYDVR0gBBgwFjAJBgdngQwBBQIDMAkGB2eBDAEFBAIwLQYDVR0fBCYw
JDAioCCgHoYcaHR0cDovL2NhLnNvbWVjYS1pbmMuY29tL2NybDANBgkqhkiG9w0B
AQsFAAOCAgEAjMEhT9QSxO9PP1rcBkHGb0pL/Udw7digid46lh/jkAlTwpSzzHoQ
DfIun/APbvc4jCsh3W1dcytWXDOE38Q13930lB52CwmFAGG9qy185o5WjX0vWduh
PZhjiNlBpFf24n84w67J2nOrLAcJRnoya7iZIB8wWi/zahFsZ0ER/SwBKmg1DdLf
7R8Hm2Pr4iYUNuTJfh2xC6SwvwlroahhQKkK0SbyUFNDu2Xs43JuhasrZEP0lvqt
EKT5KbnFgRe3iwFwadmjJAx/iZznLzdMToy57NuRdiuVAY9d7cNwbyoFYzwhUNZQ
CTyYBcZTMdeF4uko3O0B4kKnqoAKeFXLila21jp76eDiav1lhH3mlUM0C4Fub7ce
I8VkJh7v7BjZHDRp/m2F9+i+DRS545N6+/JjhGhudTGfcYXUqfaFmTj+juEiaQq/
3NwASnykqYSn3jVNc/HnlgwMVuz4EV+lyT0WObC4+DqPA9D4NpYunnbIwn2FGdFU
+lJjkvY9omAXmZ71tsYH7MrFh+cFshu0snUc4ty9bFWPUqbOMyNY4vZXhoHpJ1II
x0xL9Mxjky2K5j5Zom0jeQSs8CDztk3G5/N2pKh3p5yE/hcBTZTNCL4BaK8i06df
jEliHN469GbGKbUFXO4tZyoUlBDVu1h34Mxt3bCti/DhBfz090Pnv5U=
-----END CERTIFICATE-----
