Certificate:
    Data:
        Version: 3 (0x2)
        Serial Number:
            e2:cc:e5:0f:56:4a:16:e7:4a:34:4d:ff:22:99:33:fd
        Signature Algorithm: sha256WithRSAEncryption
        Issuer: CN = Fake CA for Zlint testing
        Validity
            Not Before: Sep  3 08:28:00 2025 GMT
            Not After : Sep  3 08:28:00 2026 GMT
        Subject: CN = Leon.Mandrake@example.com
        Subject Public Key Info:
            Public Key Algorithm: 2.16.840.1.101.3.4.4.2
            Unable to load Public Key
130601327129024:error:0609E09C:digital envelope routines:pkey_set_type:unsupported algorithm:../crypto/evp/p_lib.c:210:
130601327129024:error:0B09406F:x509 certificate routines:x509_pubkey_decode:unsupported algorithm:../crypto/x509/x_pubkey.c:113:
        X509v3 extensions:
            X509v3 Key Usage: critical
                Digital Signature
            X509v3 Extended Key Usage: 
                E-mail Protection
            X509v3 Certificate Policies: 
                Policy: 2.23.140.1.5.1.3

            X509v3 Authority Key Identifier: 
                keyid:E8:B6:F6:76:4B:D0:3B:E5:46:A5:F9:54:D4:7E:07:B3:DE:0D:60:3E

            X509v3 Subject Alternative Name: 
                email:Leon.Mandrake@example.com
            X509v3 CRL Distribution Points: 

                Full Name:
                  URI:http://ca.someca-inc.com/crl

    Signature Algorithm: sha256WithRSAEncryption
         60:69:7c:96:ce:47:78:47:ad:f3:b0:b7:9e:73:0b:3b:11:d8:
         fc:06:5d:59:31:13:76:12:de:b3:05:69:2a:57:dc:e1:9f:71:
         eb:32:1a:72:c5:ce:91:93:ed:50:d4:e7:19:15:99:66:ea:4d:
         2b:14:07:ca:a1:90:d1:c2:e7:8b:c9:f5:25:3e:75:82:98:05:
         60:db:b5:f7:7a:45:17:29:94:d3:a6:01:ed:7d:cd:f8:1c:51:
         97:82:f5:cc:fe:52:bf:85:4a:fc:0b:ec:a7:2e:30:b0:eb:fe:
         f4:98:30:c0:41:47:5b:b3:fa:72:f2:db:43:40:d6:19:a2:e1:
         f3:b0:9d:91:61:99:66:ea:4e:3a:fb:b4:1b:38:8c:2f:ee:f5:
         36:d1:71:0a:bb:b0:92:6c:a8:45:ec:34:b3:9d:98:1d:eb:3f:
         1c:d0:3b:86:3d:85:5f:9b:76:5d:4d:13:07:2e:b5:36:9d:f0:
         28:c8:a1:21:57:09:5b:e2:dc:af:80:fb:05:9c:e2:69:39:6d:
         b6:1a:67:55:b5:9a:1b:11:09:eb:de:5c:63:07:4a:1b:b5:32:
         e7:dd:22:fb:1a:25:5d:69:93:c0:a1:8a:eb:81:f7:3a:86:08:
         9b:e0:a8:19:03:b1:df:7b:37:bc:e8:35:43:ae:01:f4:07:95:
         52:48:58:31:9f:80:bd:d6:ca:a5:a4:75:9f:ac:72:0b:42:7e:
         2b:22:93:24:43:27:31:06:69:b2:26:11:a7:2d:91:be:cf:0e:
         fb:17:71:17:73:87:79:2c:f2:e8:ca:f7:f2:95:82:f5:38:30:
         d6:5d:8f:9a:23:17:f8:31:01:c7:c6:fd:e0:22:bf:56:97:9a:
         46:6c:32:62:6b:eb:90:9d:45:69:4f:9c:9d:c1:aa:4b:d5:35:
         51:6d:07:e3:54:12:22:97:6c:92:77:8a:a6:52:81:9d:f2:9d:
         87:92:47:e9:f4:45:77:9d:7a:92:58:31:9e:80:5a:08:96:9c:
         22:26:55:bc:02:77:48:54:6d:e1:29:05:f5:a8:ea:9b:55:46:
         e9:6f:a3:4e:b2:5f:e6:f9:41:5f:e0:65:a7:1f:09:a5:cc:05:
         71:89:af:cd:2f:dc:27:a4:a6:3e:05:69:99:52:10:ea:4f:1a:
         14:d8:21:3a:a9:f0:34:ba:f3:5c:57:3b:33:f3:17:58:51:20:
         e6:74:72:bc:5c:24:b3:79:94:39:8a:07:70:39:58:2d:9e:d3:
         de:bf:85:c8:38:41:d8:9c:49:39:bd:25:7f:cc:5f:eb:ce:8f:
         4a:e2:b1:ac:da:dd:9d:91:f7:88:34:8a:10:11:93:51:12:b3:
         fd:7c:6e:e7:a3:50:0b:cf
-----BEGIN CERTIFICATE-----
MIIIGDCCBgCgAwIBAgIRAOLM5Q9WShbnSjRN/yKZM/0wDQYJKoZIhvcNAQELBQAw
JDEiMCAGA1UEAxMZRmFrZSBDQSBmb3IgWmxpbnQgdGVzdGluZzAeFw0yNTA5MDMw
ODI4MDBaFw0yNjA5MDMwODI4MDBaMCQxIjAgBgNVBAMMGUxlb24uTWFuZHJha2VA
ZXhhbXBsZS5jb20wggSyMAsGCWCGSAFlAwQEAgOCBKEATOOWvtBhLTpmfsxHgIFV
yIZF2yYoJnMYKQGOhTofMlVjESSbiEdJFBQukjqOHwTOGuYR3GUcWCxvqDx9ltNP
SYq80IyzYEISm6y2K7CcdYRqNqulCxO/gjIXBVtxcGsiHZtHNnw9tWlRIIuvqQHK
eVNB+amRz8PN8CJizLys2lMRREew8GNEUloXU8vGVKuLo8UOvgoE+NatmgEehCqI
rPmwn0yc1CWw0oRp9se7dkqoArM6SwwnOUc5/qaI7gmQH9CPz+oyPJaaOpyq1ucj
y2KQnEQwPAZqeYElp2NNxnmSSEAWRCElS7dPUOYh1PMN85UI6YEFvAdvs5GCj9rJ
NjQxHLnCVCUf1pwuB1IGioWyzZVYHcoa2sk8pQITzSplyeoIXxtJlbQGv5Ow8ecW
0PRPvrAhnnVOKcKsKFh9j+nDwJtkPmMKQea0AKF65TgfqmJKrNC1oDPL5/HDqPYv
dCiWSRo7KvtyUAqkgIeZCSwFZYzGywPCsGFlSoA/wdIe1qcHxGvM3RCzsUxxS2aV
uKZV61OMYeUh+pJNQDsmsVgFnaOxoRloqoZMJymczzwN5SoH3tG7zaxFU1YMjNyG
jsx3c1xQgMlMajNemRm6E3ylR9QqdbATdFVykARYpFicm2dB0rGEA3eVx6wKYFZs
70s/eYEjwAINkBEOQfM9bKUMbjxaMUpiIfM5E4hI4vaIr6lgxDt1bxKpMiShhHVU
MOYv/4kq7tV1fQh/o5ZGpmkpK+Elh0sbuvm0+qYGdbckD2C/o6SO04KUkzIh7bSx
RfygxZUkjrhVCBrKXbEDrjQrqpYUFHi5RjYibxM2v/UH6jZjeQXCN0ev/9ioSImb
i9gMJfYSH+wVeqtieFrKiHlBmEZkOyWzRAUsU4RhoGJl1Uuo+WQCqwOLl9Rb+YdZ
RcuR/+MMoKqnPHUw7rsF4lW2tCwuUohKzwOTtXEos6Vto7ZcPUgOzioCp+esH3ws
MFUgVLZlqRWTdXJInNggNzcKOsw0WSESg6yaplaSO3aPPEY4pAwAglpeYUKRzITO
p8kiflGC9wVYCek/Llucc4IRDLtCkYNuiWh0YXpIr5xi/2dCNpdQtusZRmfH3oGY
GiyoHCCN8leKs3BPyiAReOwguhHD7eyHD7gK1gObneKk4vAKxnSi/SsfTkaCOZrK
AkymQ/xuvzdQxABZ0mZa+Lgi0vyRAjYFJaJ2G4akcHa9fGVlBrOZdxKRH3Ov3BPD
bPGjKWMpbGOkWNptngsJvCd+n0YlNBMwtUNXeDqHiBEMrfFP8eMVZNRKg1MtpDAS
6hZARCIPPSobscK/gqW0uSaw+4Y8EoksTnVcUKGQLWPKWPMAo8yRczVT+5ND6PfF
cjKq4IUdu3in97eY9kip8bxpcwWaOTu8CIDGkHJ398FRaQHMVzE99uM6aTKljaha
bGGWe2JUYuQII7Bs/qGPB8xbnyFy8hUqNoglbwin6OOPOqayxFUCoZq1JCJ+fMyX
cCpE+UABFxetMml+C9pe+AqNtlTJ16F0FuoAXKwnWpWUxeYA9W8IzFj8cy7zbGLd
OHCkMUDw3nOyEbcFJGhsEoqjgbQwgbEwDgYDVR0PAQH/BAQDAgeAMBMGA1UdJQQM
MAoGCCsGAQUFBwMEMBQGA1UdIAQNMAswCQYHZ4EMAQUBAzAfBgNVHSMEGDAWgBTo
tvZ2S9A75Ual+VTUfgez3g1gPjAkBgNVHREEHTAbgRlMZW9uLk1hbmRyYWtlQGV4
YW1wbGUuY29tMC0GA1UdHwQmMCQwIqAgoB6GHGh0dHA6Ly9jYS5zb21lY2EtaW5j
LmNvbS9jcmwwDQYJKoZIhvcNAQELBQADggIBAGBpfJbOR3hHrfOwt55zCzsR2PwG
XVkxE3YS3rMFaSpX3OGfcesyGnLFzpGT7VDU5xkVmWbqTSsUB8qhkNHC54vJ9SU+
dYKYBWDbtfd6RRcplNOmAe19zfgcUZeC9cz+Ur+FSvwL7KcuMLDr/vSYMMBBR1uz
+nLy20NA1hmi4fOwnZFhmWbqTjr7tBs4jC/u9TbRcQq7sJJsqEXsNLOdmB3rPxzQ
O4Y9hV+bdl1NEwcutTad8CjIoSFXCVvi3K+A+wWc4mk5bbYaZ1W1mhsRCeveXGMH
Shu1MufdIvsaJV1pk8ChiuuB9zqGCJvgqBkDsd97N7zoNUOuAfQHlVJIWDGfgL3W
yqWkdZ+scgtCfisikyRDJzEGabImEactkb7PDvsXcRdzh3ks8ujK9/KVgvU4MNZd
j5ojF/gxAcfG/eAiv1aXmkZsMmJr65CdRWlPnJ3BqkvVNVFtB+NUEiKXbJJ3iqZS
gZ3ynYeSR+n0RXedepJYMZ6AWgiWnCImVbwCd0hUbeEpBfWo6ptVRulvo06yX+b5
QV/gZacfCaXMBXGJr80v3Cekpj4FaZlSEOpPGhTYITqp8DS681xXOzPzF1hRIOZ0
crxcJLN5lDmKB3A5WC2e096/hcg4QdicSTm9JX/MX+vOj0risaza3Z2R94g0ihAR
k1ESs/18buejUAvP
-----END CERTIFICATE-----
