Certificate:
    Data:
        Version: 3 (0x2)
        Serial Number:
            67:f3:ca:7f:3e:90:05:16:0c:0f:af:1c:c5:e9:90:c5
        Signature Algorithm: sha256WithRSAEncryption
        Issuer: CN = Fake CA for Zlint testing
        Validity
            Not Before: Sep  3 08:27:41 2025 GMT
            Not After : Sep  3 08:27:41 2026 GMT
        Subject: CN = Leon.Mandrake@example.com
        Subject Public Key Info:
            Public Key Algorithm: 2.16.840.1.101.3.4.4.1
            Unable to load Public Key
128569392136640:error:0609E09C:digital envelope routines:pkey_set_type:unsupported algorithm:../crypto/evp/p_lib.c:210:
128569392136640:error:0B09406F:x509 certificate routines:x509_pubkey_decode:unsupported algorithm:../crypto/x509/x_pubkey.c:113:
        X509v3 extensions:
            X509v3 Key Usage: critical
                Digital Signature
            X509v3 Extended Key Usage: 
                E-mail Protection
            X509v3 Certificate Policies: 
                Policy: 2.23.140.1.5.1.3

            X509v3 Authority Key Identifier: 
                keyid:E8:B6:F6:76:4B:D0:3B:E5:46:A5:F9:54:D4:7E:07:B3:DE:0D:60:3E

            X509v3 Subject Alternative Name: 
                email:Leon.Mandrake@example.com
            X509v3 CRL Distribution Points: 

                Full Name:
                  URI:http://ca.someca-inc.com/crl

    Signature Algorithm: sha256WithRSAEncryption
         29:f8:9c:12:9e:e5:66:89:08:c6:e3:1b:45:8a:d6:e1:5d:33:
         3b:2f:10:24:ca:84:2f:c5:4a:e8:4a:d8:e2:ac:33:8e:a7:3e:
         93:49:b8:52:78:e3:a7:86:ed:5b:82:cb:6c:7a:dd:f5:3f:1d:
         87:33:02:84:1e:1d:94:df:a5:d5:aa:35:fb:56:28:a3:b0:c2:
         2e:a2:9e:44:ac:22:8d:24:3b:47:c3:b3:c7:f5:03:48:33:49:
         c5:e7:5d:e7:ab:20:23:a5:d7:81:41:2d:05:01:6d:a0:9b:e3:
         a3:f3:88:e3:ab:97:ed:55:a3:46:3f:05:7e:c0:b9:44:ad:5a:
         21:b8:b3:ce:c3:39:bb:6a:22:0b:10:28:56:e0:04:ac:1d:42:
         29:7b:71:ea:cd:36:a0:e1:b6:8c:61:1b:50:84:59:49:ad:de:
         ee:92:ba:91:37:08:65:95:18:ad:60:4f:06:0a:2e:ab:8a:e8:
         c5:6e:22:bd:4a:5f:ab:6c:eb:cb:32:61:2c:e1:0d:c0:ca:0c:
         df:97:91:67:8d:57:be:f0:38:a0:ec:94:8d:7a:af:8a:ec:5d:
         14:8f:45:8e:1d:f9:bb:76:a4:2d:b3:8f:7c:1f:c5:21:1e:02:
         ac:5e:a5:4d:00:86:91:b7:fa:18:6e:e9:5b:c0:16:d9:c0:2f:
         f2:ea:5d:a2:21:95:a2:0f:e7:d7:9e:9a:8c:47:2f:5d:ff:f5:
         fb:28:71:4d:9e:a5:57:1c:fa:bc:3f:7f:35:e7:a4:e2:61:90:
         6d:14:6f:00:9a:d0:42:69:f6:e6:26:d4:0f:cf:f7:7b:7c:6d:
         06:65:b1:cf:33:21:3d:c5:d5:d9:cd:e6:a7:9f:52:f1:39:df:
         5c:54:6d:92:35:41:d0:8e:42:72:71:1e:c7:3b:8d:13:96:5e:
         bf:a8:6c:f9:79:b9:4c:ff:ad:0c:14:13:e9:75:10:8b:ee:bc:
         fa:a8:aa:8f:0c:02:93:b5:f3:c4:80:6f:b8:d2:56:67:8e:98:
         35:da:93:37:52:af:d3:a2:bd:0b:24:60:1f:ef:29:b3:f7:0a:
         02:dd:ca:d9:2f:69:4a:a5:44:07:1e:91:68:69:3d:52:34:f6:
         f9:79:f7:b0:ff:8b:89:58:84:44:1c:1c:33:a3:fe:43:97:ba:
         71:05:a1:b6:a5:44:77:96:e3:cd:4c:28:0d:a5:fa:84:c0:56:
         79:8e:2d:74:a8:ae:e0:e1:3b:b4:b9:ee:96:3f:06:1e:05:58:
         4d:58:9c:28:25:8c:7b:47:e6:a7:f4:52:5d:d9:ae:5a:cd:27:
         f3:dc:ad:50:13:d1:44:53:4c:51:df:d3:f6:e5:58:37:2c:d3:
         c8:63:52:b3:f1:f4:e5:6f
-----BEGIN CERTIFICATE-----
MIIGlzCCBH+gAwIBAgIQZ/PKfz6QBRYMD68cxemQxTANBgkqhkiG9w0BAQsFADAk
MSIwIAYDVQQDExlGYWtlIENBIGZvciBabGludCB0ZXN0aW5nMB4XDTI1MDkwMzA4
Mjc0MVoXDTI2MDkwMzA4Mjc0MVowJDEiMCAGA1UEAwwZTGVvbi5NYW5kcmFrZUBl
eGFtcGxlLmNvbTCCAzIwCwYJYIZIAWUDBAQBA4IDIQA6XIlqkpLD800ZFVjNNxyy
hEAM4cSiKVOeqB0r6g28VMfRVHNEV4QTUaOtp6msZjZdIcke+neYcsi+U3PxuzHR
YZ4VhQhwySIy8Jb2Kh1iR0yg4qvwoRLfCYLvJjzxhlzq4pRYVLuybCv0ijMBYRqZ
qzHn4rnl1KV/dh2N476U+XSCjDDtt1ceV7eI8rwLyX7YMWq+HJ1G7DgTKXV6KJ9J
bEhEqTTK0LTY1jDyxmrDFlooCL77sVwHoDW4YyOZuF46IjIg2EGdS8qfGRy6g4dg
2oieSHvTQ6POlmCCahf+wkfrssS/aoW2ShkKCGbxsrG8wRSq821RGqniiqd/uAX7
/HidOIKyoCVk4ycHMwuHU35ikqGqEU7x52Ajp7CNVRc8aLVykJC/PFVXI5BMRaJ4
d8staim42BOk4CuBAU8h1TtbuH7pqT6ZbB+Utqaia6LjWS3p8UzOFxRmtGTK7F4j
4SsOCxcwYQxYKpcWYU78Brqn8ainIbdNCX7KoVMvUGVWiXyRph2upajspU2J6U35
C3xu4iCGMhDei0AfmG5XSTf4yR5gJ00moSfKcjylGx7X4Sk368jig8kJImZb9rPu
5UxGAM8vjEqjlnX4SwiuxQgS+2UjqT/FQwrw064ACkmjKFMO4ITWbESKY0I+GmlB
2DtAMZ6YVblVsZRYoT1/ek1iyEL1WMgDdwkNgZ4NkAffJ1wtJmDLbC1NNb1VIIRG
uxanW1C1aZg4+SfL58VC8U5ZKTb+ei1MUqGzmSn+8w5XhZ2dQQySS8ekyKJpcQ7Q
mjrh4gmNDFGfHDt6UUBFNaTvBm8gmyC4DHk+bL7qIGkD6J67VsXvJ2twfLN5Rw3g
thD2QLEOlXzrlVb0dCCUCqQgC8XDQa05WqWSAhRBOHJvcZ1pssltWXs2kce5yJZx
lYIKSmkvcMY/uhs+BHLAo2YZIE1+U79sQA3hg1dJCaGjKr5oS1sR5QpxgWTjdhf5
Cg1wd8+ol4ztk7PZ22l0WWiq46YcO0RcxKPF4rmxSqGnWbMkLxjf8yMEG7CoVC6N
Xa7SpFn5VPSNhunvN8xZ7KOBtDCBsTAOBgNVHQ8BAf8EBAMCB4AwEwYDVR0lBAww
CgYIKwYBBQUHAwQwFAYDVR0gBA0wCzAJBgdngQwBBQEDMB8GA1UdIwQYMBaAFOi2
9nZL0DvlRqX5VNR+B7PeDWA+MCQGA1UdEQQdMBuBGUxlb24uTWFuZHJha2VAZXhh
bXBsZS5jb20wLQYDVR0fBCYwJDAioCCgHoYcaHR0cDovL2NhLnNvbWVjYS1pbmMu
Y29tL2NybDANBgkqhkiG9w0BAQsFAAOCAgEAKficEp7lZokIxuMbRYrW4V0zOy8Q
JMqEL8VK6ErY4qwzjqc+k0m4Unjjp4btW4LLbHrd9T8dhzMChB4dlN+l1ao1+1Yo
o7DCLqKeRKwijSQ7R8Ozx/UDSDNJxedd56sgI6XXgUEtBQFtoJvjo/OI46uX7VWj
Rj8FfsC5RK1aIbizzsM5u2oiCxAoVuAErB1CKXtx6s02oOG2jGEbUIRZSa3e7pK6
kTcIZZUYrWBPBgouq4roxW4ivUpfq2zryzJhLOENwMoM35eRZ41XvvA4oOyUjXqv
iuxdFI9Fjh35u3akLbOPfB/FIR4CrF6lTQCGkbf6GG7pW8AW2cAv8updoiGVog/n
156ajEcvXf/1+yhxTZ6lVxz6vD9/Neek4mGQbRRvAJrQQmn25ibUD8/3e3xtBmWx
zzMhPcXV2c3mp59S8TnfXFRtkjVB0I5CcnEexzuNE5Zev6hs+Xm5TP+tDBQT6XUQ
i+68+qiqjwwCk7XzxIBvuNJWZ46YNdqTN1Kv06K9CyRgH+8ps/cKAt3K2S9pSqVE
Bx6RaGk9UjT2+Xn3sP+LiViERBwcM6P+Q5e6cQWhtqVEd5bjzUwoDaX6hMBWeY4t
dKiu4OE7tLnulj8GHgVYTVicKCWMe0fmp/RSXdmuWs0n89ytUBPRRFNMUd/T9uVY
NyzTyGNSs/H05W8=
-----END CERTIFICATE-----
