Certificate:
    Data:
        Version: 3 (0x2)
        Serial Number:
            3d:00:2f:54:d4:fa:e2:7e:da:55:dd:29:3c:d4:21:00
        Signature Algorithm: sha256WithRSAEncryption
        Issuer: C=XX, O=Some CA, CN=Fake CA for Zlint testing
        Validity
            Not Before: May 25 06:07:00 2023 GMT
            Not After : May 24 06:07:00 2024 GMT
        Subject: CN=Guenter.Grass@example.com
        Subject Public Key Info:
            Public Key Algorithm: rsaEncryption
                Public-Key: (2048 bit)
                Modulus:
                    00:bc:1c:46:09:2c:99:f5:5d:6e:d0:7e:c6:89:c1:
                    f7:bb:96:ff:a6:73:f5:5b:3c:63:e8:11:c4:96:cb:
                    37:06:21:4f:19:5b:78:88:d2:75:b3:ec:77:39:48:
                    e1:b1:12:5a:ab:9e:c7:e4:80:bf:aa:27:e6:1a:5f:
                    6f:0e:9a:d9:ed:e0:1a:27:27:03:05:a9:57:7c:e6:
                    81:2e:db:c0:65:db:f6:93:94:13:ac:a6:0a:6f:fe:
                    70:05:4f:28:87:86:5b:7d:9a:3c:22:20:f3:17:c4:
                    87:ce:c6:68:5a:25:a6:b6:6d:98:d0:25:bf:0a:82:
                    39:b2:12:ca:c2:39:08:a2:44:f1:b2:be:15:4f:8d:
                    dc:92:7a:9d:59:b1:50:e4:2a:69:35:4b:b4:ea:a9:
                    bb:2c:31:8d:3d:21:18:e0:07:91:45:60:c4:b5:0c:
                    ba:7a:8e:98:a5:65:79:4b:d5:3c:13:b2:9c:c5:aa:
                    9b:83:78:75:f4:bf:81:4f:7a:1a:e1:44:97:ec:dd:
                    b6:2d:b6:a1:67:8a:b1:bf:54:b3:b4:e8:78:b5:24:
                    b9:d7:6b:bb:a2:92:3e:27:12:b1:97:50:36:4b:f1:
                    60:53:ba:5c:73:4b:98:46:5e:8c:2e:19:42:36:4f:
                    7e:45:69:8a:91:45:13:04:d2:70:5b:51:56:08:8e:
                    eb:8d
                Exponent: 65537 (0x10001)
        X509v3 extensions:
            X509v3 Key Usage: critical
                Digital Signature, Key Encipherment
            X509v3 Extended Key Usage: 
                TLS Web Client Authentication, E-mail Protection
            X509v3 Subject Key Identifier: 
                D2:2D:BD:C9:87:38:45:DE:0E:07:43:68:CC:89:06:C3:3D:6C:CD:31
            X509v3 Authority Key Identifier: 
                E8:B6:F6:76:4B:D0:3B:E5:46:A5:F9:54:D4:7E:07:B3:DE:0D:60:3E
            Authority Information Access: 
                OCSP - URI:http://ca.someca-inc.com/ocsp
                CA Issuers - URI:http://ca.someca-inc.com/root
            X509v3 Subject Alternative Name: 
                email:Guenter.Grass@example.com
            X509v3 Certificate Policies: 
                Policy: 2.23.140.1.5.1.1
            X509v3 CRL Distribution Points: 
                Full Name:
                  URI:http://ca.someca-inc.com/crl
    Signature Algorithm: sha256WithRSAEncryption
    Signature Value:
        0c:f2:33:33:8e:b1:e1:75:9a:b7:29:ce:9f:1a:b3:5c:e8:c7:
        03:89:98:ba:fa:a9:47:29:31:fc:e8:53:60:21:14:08:ab:25:
        d0:a1:ff:b8:5f:4a:7c:b2:c2:0a:c2:ff:68:0e:5e:3b:6c:70:
        fe:a9:c9:ec:cc:43:9b:d9:bd:e9:8f:fe:85:b4:f0:aa:c5:c3:
        fb:70:b4:c3:bb:5b:fd:40:b5:6e:97:02:67:64:29:e8:63:c2:
        e1:8e:d0:a7:f2:0c:ae:70:3f:59:b9:fc:a3:34:88:fa:f6:4d:
        96:fd:c0:3e:f6:d7:73:58:1d:b3:37:e0:8c:b4:10:e3:26:64:
        65:42:d0:89:2b:ca:07:68:e5:3c:85:99:85:92:a6:ae:01:2c:
        fc:f9:b8:5b:d7:a4:33:05:ba:dd:2d:87:9e:66:b6:2c:a2:0d:
        6e:34:16:ee:d0:75:c4:72:66:35:c5:62:68:10:02:18:24:91:
        43:33:e3:17:54:1a:6c:ac:83:18:46:c6:09:48:f4:ea:93:0f:
        6f:f6:37:50:e0:18:cc:84:f0:04:dc:3f:96:42:f5:9b:80:58:
        63:fa:92:68:fb:d1:19:7f:c1:72:04:1e:1b:3a:88:24:7a:f4:
        a0:e6:48:6f:6e:2e:90:1c:f9:5f:8e:0f:6f:76:01:59:55:1b:
        8d:9e:cc:40:23:19:51:64:9b:17:ef:1b:88:c8:44:a9:94:c4:
        8c:f0:13:30:fb:94:e1:b6:31:d4:1b:7b:fa:e9:f7:f6:46:0b:
        3f:64:c2:4c:20:68:65:3a:de:36:58:95:18:ae:48:c0:64:2f:
        7f:bf:2f:8d:ba:de:0a:99:08:be:e2:41:fc:43:dd:73:b1:2f:
        4e:e7:4d:21:60:6d:83:19:9b:ee:56:eb:78:27:0e:2b:82:9f:
        a2:9b:8e:1c:5c:3d:6d:a4:7c:17:ac:8c:21:80:76:de:f2:b6:
        ff:b2:22:a7:2a:36:34:89:6f:04:35:89:b1:66:8c:34:74:38:
        15:9b:a0:4a:18:42:8f:71:4e:05:63:67:e1:af:27:50:96:95:
        f2:69:8b:4c:54:a4:0d:0e:53:a2:2a:11:6c:fc:00:ad:ea:96:
        3b:26:33:eb:37:97:20:83:71:b7:46:38:d4:0e:c5:25:3f:6f:
        98:31:c5:4c:9d:43:45:2c:30:96:23:cc:6f:70:74:35:fe:e3:
        6c:4a:31:21:dd:6b:4d:75:2b:b5:6d:4b:c6:42:4b:01:fc:44:
        42:d4:24:6b:c8:a0:7c:83:2d:39:06:9c:3d:21:d8:cf:cb:e0:
        ea:67:08:06:fb:3a:b5:92:1f:88:7e:53:ed:35:f1:6d:50:54:
        e9:d3:1a:ab:ec:44:9e:ea
-----BEGIN CERTIFICATE-----
MIIFNzCCAx+gAwIBAgIQPQAvVNT64n7aVd0pPNQhADANBgkqhkiG9w0BAQsFADBD
MQswCQYDVQQGEwJYWDEQMA4GA1UEChMHU29tZSBDQTEiMCAGA1UEAxMZRmFrZSBD
QSBmb3IgWmxpbnQgdGVzdGluZzAeFw0yMzA1MjUwNjA3MDBaFw0yNDA1MjQwNjA3
MDBaMCQxIjAgBgNVBAMMGUd1ZW50ZXIuR3Jhc3NAZXhhbXBsZS5jb20wggEiMA0G
CSqGSIb3DQEBAQUAA4IBDwAwggEKAoIBAQC8HEYJLJn1XW7QfsaJwfe7lv+mc/Vb
PGPoEcSWyzcGIU8ZW3iI0nWz7Hc5SOGxElqrnsfkgL+qJ+YaX28Omtnt4BonJwMF
qVd85oEu28Bl2/aTlBOspgpv/nAFTyiHhlt9mjwiIPMXxIfOxmhaJaa2bZjQJb8K
gjmyEsrCOQiiRPGyvhVPjdySep1ZsVDkKmk1S7TqqbssMY09IRjgB5FFYMS1DLp6
jpilZXlL1TwTspzFqpuDeHX0v4FPehrhRJfs3bYttqFnirG/VLO06Hi1JLnXa7ui
kj4nErGXUDZL8WBTulxzS5hGXowuGUI2T35FaYqRRRME0nBbUVYIjuuNAgMBAAGj
ggFEMIIBQDAOBgNVHQ8BAf8EBAMCBaAwHQYDVR0lBBYwFAYIKwYBBQUHAwIGCCsG
AQUFBwMEMB0GA1UdDgQWBBTSLb3JhzhF3g4HQ2jMiQbDPWzNMTAfBgNVHSMEGDAW
gBTotvZ2S9A75Ual+VTUfgez3g1gPjBkBggrBgEFBQcBAQRYMFYwKQYIKwYBBQUH
MAGGHWh0dHA6Ly9jYS5zb21lY2EtaW5jLmNvbS9vY3NwMCkGCCsGAQUFBzAChh1o
dHRwOi8vY2Euc29tZWNhLWluYy5jb20vcm9vdDAkBgNVHREEHTAbgRlHdWVudGVy
LkdyYXNzQGV4YW1wbGUuY29tMBQGA1UdIAQNMAswCQYHZ4EMAQUBATAtBgNVHR8E
JjAkMCKgIKAehhxodHRwOi8vY2Euc29tZWNhLWluYy5jb20vY3JsMA0GCSqGSIb3
DQEBCwUAA4ICAQAM8jMzjrHhdZq3Kc6fGrNc6McDiZi6+qlHKTH86FNgIRQIqyXQ
of+4X0p8ssIKwv9oDl47bHD+qcnszEOb2b3pj/6FtPCqxcP7cLTDu1v9QLVulwJn
ZCnoY8LhjtCn8gyucD9ZufyjNIj69k2W/cA+9tdzWB2zN+CMtBDjJmRlQtCJK8oH
aOU8hZmFkqauASz8+bhb16QzBbrdLYeeZrYsog1uNBbu0HXEcmY1xWJoEAIYJJFD
M+MXVBpsrIMYRsYJSPTqkw9v9jdQ4BjMhPAE3D+WQvWbgFhj+pJo+9EZf8FyBB4b
OogkevSg5khvbi6QHPlfjg9vdgFZVRuNnsxAIxlRZJsX7xuIyESplMSM8BMw+5Th
tjHUG3v66ff2Rgs/ZMJMIGhlOt42WJUYrkjAZC9/vy+Nut4KmQi+4kH8Q91zsS9O
500hYG2DGZvuVut4Jw4rgp+im44cXD1tpHwXrIwhgHbe8rb/siKnKjY0iW8ENYmx
Zow0dDgVm6BKGEKPcU4FY2fhrydQlpXyaYtMVKQNDlOiKhFs/ACt6pY7JjPrN5cg
g3G3RjjUDsUlP2+YMcVMnUNFLDCWI8xvcHQ1/uNsSjEh3WtNdSu1bUvGQksB/ERC
1CRryKB8gy05Bpw9IdjPy+DqZwgG+zq1kh+IflPtNfFtUFTp0xqr7ESe6g==
-----END CERTIFICATE-----
