Certificate:
    Data:
        Version: 3 (0x2)
        Serial Number:
            f2:f8:eb:33:d3:f3:63:90:dc:51:17:62:6f:96:73:32
        Signature Algorithm: sha256WithRSAEncryption
        Issuer: C=XX, O=Some CA, CN=Fake CA for Zlint testing
        Validity
            Not Before: Jul 29 06:33:34 2025 GMT
            Not After : Jul 29 06:33:34 2026 GMT
        Subject: CN=Guenter.Grass@example.com
        Subject Public Key Info:
            Public Key Algorithm: ED25519
                ED25519 Public-Key:
                pub:
                    4e:57:88:79:e5:62:1a:3b:1f:b9:63:05:9f:81:49:
                    23:7d:cd:a0:e1:44:4d:b4:e4:17:71:47:67:a8:92:
                    c1:49
        X509v3 extensions:
            X509v3 Key Usage: critical
                Digital Signature
            X509v3 Extended Key Usage: 
                TLS Web Client Authentication, E-mail Protection
            X509v3 Subject Key Identifier: 
                DE:8A:84:7B:FF:8C:34:3D:69:B8:53:A2:15:E6:EE:77:5E:F2:EF:96
            X509v3 Authority Key Identifier: 
                E8:B6:F6:76:4B:D0:3B:E5:46:A5:F9:54:D4:7E:07:B3:DE:0D:60:3E
            Authority Information Access: 
                OCSP - URI:http://ca.someca-inc.com/ocsp
                CA Issuers - URI:http://ca.someca-inc.com/root
            X509v3 Subject Alternative Name: 
                email:Guenter.Grass@example.com
            X509v3 Certificate Policies: 
                Policy: 2.23.140.1.5.1.3
            X509v3 CRL Distribution Points: 
                Full Name:
                  URI:http://ca.someca-inc.com/crl
    Signature Algorithm: sha256WithRSAEncryption
    Signature Value:
        27:2f:69:91:d7:49:99:35:ba:0a:c0:c9:2c:c7:21:5d:bc:1b:
        e8:6d:9a:5c:15:57:de:fd:95:d3:8f:80:46:7d:50:8b:a5:c0:
        8a:fc:56:68:d2:13:12:5b:d8:d5:1a:42:8f:a8:8e:ef:5a:95:
        35:57:d0:5a:02:2b:f7:0a:40:31:c2:a4:31:50:af:8a:69:6f:
        39:d8:f3:a2:2b:68:6a:a6:18:61:5e:b3:61:c2:ab:bf:28:b6:
        07:69:5b:8c:61:cf:28:90:cd:06:58:6b:dc:6b:ff:e8:1d:93:
        21:b0:df:7c:6d:ed:6b:77:f1:11:2a:f2:24:70:27:7d:39:23:
        96:25:ca:aa:61:d5:c2:71:d1:8b:f5:6a:a9:e6:d9:fa:40:c6:
        84:e1:b4:34:f5:11:85:ee:47:40:4f:4e:9b:7c:57:9c:e9:13:
        7b:c2:3a:9e:78:ea:03:e7:60:92:76:f2:5c:23:c8:cf:2a:c5:
        1a:48:fc:85:98:ad:46:ac:7a:35:93:57:f5:7c:9f:8c:01:9c:
        10:7d:04:57:af:30:29:c7:01:59:3f:94:f7:47:0a:cb:d3:02:
        73:45:41:c1:27:87:af:21:65:c0:9c:84:97:c0:ac:25:e6:5b:
        18:dd:a8:dd:bf:51:be:a1:6d:26:51:e6:64:3e:ec:90:2a:ed:
        85:0f:2b:fb:be:7b:f4:3d:f5:0e:b6:ed:d7:c4:16:38:5e:cd:
        09:ee:74:57:7f:c7:81:75:ec:d8:34:3b:8f:9d:2e:b8:21:e4:
        0d:2d:cb:b3:bc:ec:d7:24:96:a6:a4:1b:35:f7:59:2a:b1:d4:
        2d:a7:9d:a6:92:a0:07:4e:9b:11:73:ea:3c:7a:7d:9e:90:bc:
        b3:27:94:a2:90:06:da:10:c4:d7:2f:df:1b:2f:2c:93:6f:ff:
        c4:1d:ef:8a:82:9b:78:c6:63:d4:f0:bf:54:b5:f6:51:be:c2:
        ac:3a:39:80:8a:89:d6:d7:69:dd:7f:b6:0a:fd:94:62:af:9d:
        22:49:55:68:0f:36:e1:5e:a2:2a:a7:ca:08:1d:de:e3:8b:33:
        74:80:17:9d:72:ef:99:fd:a2:2c:f0:00:98:52:8e:ff:b1:d0:
        df:46:6d:2e:c4:37:ba:fa:44:93:0b:a0:2a:23:93:4c:29:45:
        c3:50:18:f6:c7:42:a8:fa:36:7a:3f:3a:eb:9e:29:11:ea:8f:
        75:dd:ed:5b:a7:36:56:63:df:6d:18:2a:5a:56:7d:e0:82:31:
        0c:ac:87:46:7a:46:83:74:c9:6e:e6:c8:31:9d:63:ba:da:49:
        ae:0b:7c:e1:e7:09:ab:a9:b6:3f:6b:a9:4b:7c:78:08:b2:10:
        29:62:65:c5:2b:9e:bc:8a
-----BEGIN CERTIFICATE-----
MIIEPjCCAiagAwIBAgIRAPL46zPT82OQ3FEXYm+WczIwDQYJKoZIhvcNAQELBQAw
QzELMAkGA1UEBhMCWFgxEDAOBgNVBAoTB1NvbWUgQ0ExIjAgBgNVBAMTGUZha2Ug
Q0EgZm9yIFpsaW50IHRlc3RpbmcwHhcNMjUwNzI5MDYzMzM0WhcNMjYwNzI5MDYz
MzM0WjAkMSIwIAYDVQQDDBlHdWVudGVyLkdyYXNzQGV4YW1wbGUuY29tMCowBQYD
K2VwAyEATleIeeViGjsfuWMFn4FJI33NoOFETbTkF3FHZ6iSwUmjggFEMIIBQDAO
BgNVHQ8BAf8EBAMCB4AwHQYDVR0lBBYwFAYIKwYBBQUHAwIGCCsGAQUFBwMEMB0G
A1UdDgQWBBTeioR7/4w0PWm4U6IV5u53XvLvljAfBgNVHSMEGDAWgBTotvZ2S9A7
5Ual+VTUfgez3g1gPjBkBggrBgEFBQcBAQRYMFYwKQYIKwYBBQUHMAGGHWh0dHA6
Ly9jYS5zb21lY2EtaW5jLmNvbS9vY3NwMCkGCCsGAQUFBzAChh1odHRwOi8vY2Eu
c29tZWNhLWluYy5jb20vcm9vdDAkBgNVHREEHTAbgRlHdWVudGVyLkdyYXNzQGV4
YW1wbGUuY29tMBQGA1UdIAQNMAswCQYHZ4EMAQUBAzAtBgNVHR8EJjAkMCKgIKAe
hhxodHRwOi8vY2Euc29tZWNhLWluYy5jb20vY3JsMA0GCSqGSIb3DQEBCwUAA4IC
AQAnL2mR10mZNboKwMksxyFdvBvobZpcFVfe/ZXTj4BGfVCLpcCK/FZo0hMSW9jV
GkKPqI7vWpU1V9BaAiv3CkAxwqQxUK+KaW852POiK2hqphhhXrNhwqu/KLYHaVuM
Yc8okM0GWGvca//oHZMhsN98be1rd/ERKvIkcCd9OSOWJcqqYdXCcdGL9Wqp5tn6
QMaE4bQ09RGF7kdAT06bfFec6RN7wjqeeOoD52CSdvJcI8jPKsUaSPyFmK1GrHo1
k1f1fJ+MAZwQfQRXrzApxwFZP5T3RwrL0wJzRUHBJ4evIWXAnISXwKwl5lsY3ajd
v1G+oW0mUeZkPuyQKu2FDyv7vnv0PfUOtu3XxBY4Xs0J7nRXf8eBdezYNDuPnS64
IeQNLcuzvOzXJJampBs191kqsdQtp52mkqAHTpsRc+o8en2ekLyzJ5SikAbaEMTX
L98bLyyTb//EHe+Kgpt4xmPU8L9UtfZRvsKsOjmAionW12ndf7YK/ZRir50iSVVo
DzbhXqIqp8oIHd7jizN0gBedcu+Z/aIs8ACYUo7/sdDfRm0uxDe6+kSTC6AqI5NM
KUXDUBj2x0Ko+jZ6PzrrnikR6o913e1bpzZWY99tGCpaVn3ggjEMrIdGekaDdMlu
5sgxnWO62kmuC3zh5wmrqbY/a6lLfHgIshApYmXFK568ig==
-----END CERTIFICATE-----
