Certificate:
    Data:
        Version: 3 (0x2)
        Serial Number:
            25:14:e4:78:87:9a:8c:46:52:5a:9c:95:43:9f:30:a5
        Signature Algorithm: sha256WithRSAEncryption
        Issuer: CN=Fake CA for Zlint testing
        Validity
            Not Before: Sep  1 00:00:00 2025 GMT
            Not After : Sep  1 00:00:00 2026 GMT
        Subject: CN=Leon.Mandrake@example.com
        Subject Public Key Info:
            Public Key Algorithm: 2.16.840.1.101.3.4.3.18
            Unable to load Public Key
00D4D1B3777F0000:error:03000072:digital envelope routines:X509_PUBKEY_get0:decode error:crypto/x509/x_pubkey.c:464:
00D4D1B3777F0000:error:03000072:digital envelope routines:X509_PUBKEY_get0:decode error:crypto/x509/x_pubkey.c:464:
        X509v3 extensions:
            X509v3 Key Usage: critical
                Digital Signature
            X509v3 Extended Key Usage: 
                E-mail Protection
            X509v3 Certificate Policies: 
                Policy: 2.23.140.1.5.1.3
            X509v3 Authority Key Identifier: 
                E8:B6:F6:76:4B:D0:3B:E5:46:A5:F9:54:D4:7E:07:B3:DE:0D:60:3E
            X509v3 Subject Alternative Name: 
                email:Leon.Mandrake@example.com
            X509v3 CRL Distribution Points: 
                Full Name:
                  URI:http://ca.someca-inc.com/crl
    Signature Algorithm: sha256WithRSAEncryption
    Signature Value:
        88:a6:4a:f5:70:df:f6:e7:3f:1d:a5:49:e0:32:30:00:f4:46:
        7c:af:b7:f2:e5:c7:bd:37:88:20:c3:d3:42:5a:a1:3e:0b:63:
        5a:06:92:98:d0:f1:1f:5e:17:0b:97:13:36:a2:ba:d4:d5:52:
        11:78:54:79:e6:62:11:01:d2:08:0f:7e:06:12:8f:f2:47:bd:
        c5:51:4c:0e:2b:70:8b:b8:62:70:82:dc:58:17:2e:14:21:8a:
        2d:b2:4f:fe:d7:65:c7:7f:82:7a:6f:f7:af:cd:e4:df:09:b3:
        e8:7e:63:c9:fb:1b:f9:95:e3:c0:62:f2:20:0f:0c:91:a3:ec:
        58:67:31:b4:ea:db:fb:57:a1:68:9d:55:70:26:c1:62:30:27:
        62:d7:57:40:87:74:05:45:61:c8:1a:93:ca:c0:b6:6e:10:2a:
        8b:fa:90:9e:62:f4:a2:91:c6:1e:ea:46:5d:c4:a9:03:51:6f:
        3d:8f:a8:88:81:d9:1d:60:1c:42:a4:9f:f6:bd:2a:a0:df:96:
        7a:46:c1:84:b7:6e:52:d1:18:be:1d:0b:4b:1d:26:51:a2:e4:
        a1:5e:20:36:4b:62:34:4e:52:ae:ad:7c:a1:1f:3e:fd:d4:84:
        f6:f9:43:2c:a1:3e:5e:f0:a2:60:72:6f:3e:c3:e2:63:62:1f:
        05:22:e9:01:fa:8e:d3:48:79:74:23:fb:bb:76:57:b3:b3:d6:
        43:ef:0e:05:9c:96:5b:d3:51:a4:0d:b0:e1:85:14:3a:30:cc:
        de:f7:fd:61:54:2f:0b:f8:0b:2c:cd:b0:d1:7f:fc:db:02:89:
        12:de:94:ba:96:d1:7b:5f:dd:fd:9a:5d:92:2f:94:8c:ab:2d:
        eb:1a:2a:0b:a6:8b:f0:67:33:1d:ec:17:38:80:04:f7:81:0b:
        e1:8d:3a:16:3c:28:05:67:e5:c8:23:2c:fa:d6:b3:e0:34:41:
        ef:36:3e:86:0f:38:a6:e4:61:77:1e:76:3d:24:f3:af:8b:47:
        04:20:e0:ce:73:21:30:7f:16:45:84:d3:69:01:e8:1f:f9:d6:
        bb:24:2a:bf:fc:b8:9a:88:97:0a:ce:06:4b:23:6f:4e:40:93:
        e8:ff:d1:f6:cf:8b:88:63:08:8a:b2:64:cd:92:57:35:8b:7e:
        c7:7b:93:4f:73:72:1d:a7:7b:b0:ed:ad:f9:9a:92:31:33:13:
        2a:43:23:cc:b3:0f:fa:68:52:c4:29:a3:5b:d3:5b:e0:58:b4:
        34:e9:6c:ab:9a:70:e2:22:97:09:3d:4a:fa:76:10:ea:9e:e9:
        9e:1c:c2:d6:c8:f1:ba:98:dc:61:b6:1e:a3:9e:62:e4:e9:a7:
        57:d4:5c:b8:92:74:43:55
-----BEGIN CERTIFICATE-----
MIILFzCCCP+gAwIBAgIQJRTkeIeajEZSWpyVQ58wpTANBgkqhkiG9w0BAQsFADAk
MSIwIAYDVQQDExlGYWtlIENBIGZvciBabGludCB0ZXN0aW5nMB4XDTI1MDkwMTAw
MDAwMFoXDTI2MDkwMTAwMDAwMFowJDEiMCAGA1UEAwwZTGVvbi5NYW5kcmFrZUBl
eGFtcGxlLmNvbTCCB7IwCwYJYIZIAWUDBAMSA4IHoQAPnVuxhGVMoilEH1Ons32j
1Q0BAZKRS7MrhcqpmV2ejHat2PjQXpzOTvf4Nes+urPuD2bZZlxFqsE7ttGf8TS+
eURmnQ4b9pi+ahtjk4XBCKzBNYBg5eEdakak5T3v78ogKXSl6DogyN94p2eiR9oy
g4cEV5o2ujejjV1rXcsjO3IB/YLXmz1kwg3V8lWGm8Xz8xy1qgIjS4ae5MR9UArk
izFZF2XT6L4C43lojrzQQOZQMZC1sQurmOVU9ojqO8CpjZ0ZPpM6a81kxWIQzXOE
Jhbo2XJcwIgfzeRaBJYWe7RyYl9m/B2JrV84kzT3GcN8koFlHXswSUWQKmPY+vxr
F0plTX0nHZVlWAX2hIA+nI6Qwg9RCr57OM3EKA8NEKvODwOQuSSoWeam3OdHUoNX
psQ0fcXxrIAGPYMBQDg7X9rpI9FUZwVZbtvnsWM5NHRP69GsWYwL0dPITlHUCRWB
FfCb5XvoSPvCnAe2wsp3uOPK8j0BxbhbqJNOqWEGMWn6fLN+O1vLan1fCAa248B+
EHZ1NZLFFnif8+q3tAvZpCszMB8+h/d6em95BOfezVwb45H7fuL7b9BOCMqS4T7v
0UJH2qqfyaNCMnF8UR2yKpl0SJymZiuLw1kWZX+PGI+6WZEBsvgQmJ1FPqCSdE+1
MaxSunB61R/DVDpEsNvbsy6hEJoibhX+gedtxPVSGCsy73OO7UTuq8lkHzQCDkz5
ZZsIQnQ5QRLf2skHnJwiZyYjYcjbPnC1czpNRdnugEaRNZMgEkT1S44U7Umytz4M
BVlyMo6JOhjtA7ZE8tDsx7cqQhdZA4tJgCn1dm/nRWc3qJt5V5e80lWy/g43rVr4
Gt6AfXZnPGMPiuuuZ5FlrFf51PaYFBQ27HC2SEDGZ9BGswXTaZhVLOyIRANbRhYb
LeSF5FD9eSEhdF1UAMCqGBCvnYcQwong64SaTL4rLGepNJ8zUHxTZhTySQE7DL/9
DpvH/9CO4GRy6U1msmFpSIEcTkEq9tCEZxC1V9B5G2YeZyJPt6gCtP3sCkLOHmQD
PmOOPgeaUAQFmeIsy3JgZvSaSyeplql1fxtSEVSwUvbTeT2AeJdx91JbhpGlKiiI
GySjdea8g0E7Ri5Bl05v6hMypHhgwf9aJNpmKulnWhML4Z90sg1EYWvPBsQufKOA
ZoVXnmahbXkgEvwSsejYN1PWxAuPu/nRJW5n37J/IdSXJtiB3qczS6epMD9SUpWc
U6gQf9f86z+zvf9cExlluGb+CKW9JEkOicMyRPHla5vFMUV+0HMg3xoG9FSgBUcV
+oCIS9tKCXtxZHztCSP+xKB5z1v7z5yC8rkjvT/8rUS8zu/qicSjXgCqAL7ZmYvA
BGdPTdgOvLuX2lFheyqVo/aWAYCy1S7gkfPEpQqWl320vBHJ62pgL3bPQusHobWL
1R4w0orvet7ZUxFOM8Sondwi+r+9g4wujTIhl0PqqTJdZO4sE2C78gAMhx/EQbPJ
TNb4SBd/QQ28akRGGxLwLnN9H0t+0gRSpag4HDXsmK2pesgV2LbXIvOd2rOcO9Lr
hw3Gb2XsrNTCHZeDJ9D4k/zYdI6eY651ECrIAWoWce7Zeyt84dSRiNU0ssXxFn+N
vLN6zclsWtlpnQLPWPgRjB+aXXopE+qKZEKu29QVoPSCkJnMrXwHdzMwPmnIEDWS
4pCcWFyp5MysLXtr0lKsQr6d/U+mMgsOAUH4nm1B3hgQpyMktYNa0jwjM+hKmMxn
DyqnQQq5O86qz956+cpXYR/Pkfmnaf+AQAbZS6KMHwZpRNIZe7Lnkvi7z+rbVZkp
Hcm+cUyPFjyVz6YAJ6898jy8cBjkbpEUANBCP427Luv1glj07t01fg4JYq4XhvfI
AXQoXuKr1SutQ554qF68a7onbFUa3L58gAV3ar5WqySXxV6w1KE17JwtAHWcRLqV
JGZyahjOd4iyZWeJS3IoRZOsee7S75iiV5PhAPSwAtkG2djsc6REyvylp5pGGoLx
vS3xOCKnELbrEDFgYBTQV23tc7p1qXCZEuPd7e5OZIwY0TfIdWgqoUZGqvbUC2rb
e0DBVmMgSY4+32Sj7uCdc7y4+M0ibzbBs5Ps3ZoT1FP4VdtB8pK4K+hChSv7s/4H
CEaAILVM0he+NJ/SteAxe/nWApzXm6wcK+QRc8cGUDLF6/xs+Os87BBmA7Mjkfme
JNvdQmwc1NiDd/BQwdsMqT0RUOlr/vvIMmbp05kMoCcuw9VOWIgZTgOvVTouqYPD
Z1BdJuLS0ESyi2u3hryYr8q5IjZcQojIlv9epgICwgq7qqEqLGie2uHAheesU9K5
BNkc+MLmdEE74yj/5naaG+d2Yp80uEUsygwRozgNX8i9WWryQfqiIy5TQJOtwXfI
CAp0FpE169Rpp6PF6QTVfXUlgzpOL0hWb7o7ttwyrOR1wOSlwVEAqQ96yM2AnmR1
m+UZTnVd7wciQODykknkwJmxaLDSghdUsaQTB8oo2Acbe2XCtdjC0jVSGdlzaRt2
gIMLTFC2LJuKfO1fm2gV/WS7rPyXFqp6QnSygB29FCzWdVJIFp8Pg0qd0Lqn1byj
6i33A2ERamvFfxERDOnk/KOBtDCBsTAOBgNVHQ8BAf8EBAMCB4AwEwYDVR0lBAww
CgYIKwYBBQUHAwQwFAYDVR0gBA0wCzAJBgdngQwBBQEDMB8GA1UdIwQYMBaAFOi2
9nZL0DvlRqX5VNR+B7PeDWA+MCQGA1UdEQQdMBuBGUxlb24uTWFuZHJha2VAZXhh
bXBsZS5jb20wLQYDVR0fBCYwJDAioCCgHoYcaHR0cDovL2NhLnNvbWVjYS1pbmMu
Y29tL2NybDANBgkqhkiG9w0BAQsFAAOCAgEAiKZK9XDf9uc/HaVJ4DIwAPRGfK+3
8uXHvTeIIMPTQlqhPgtjWgaSmNDxH14XC5cTNqK61NVSEXhUeeZiEQHSCA9+BhKP
8ke9xVFMDitwi7hicILcWBcuFCGKLbJP/tdlx3+Cem/3r83k3wmz6H5jyfsb+ZXj
wGLyIA8MkaPsWGcxtOrb+1ehaJ1VcCbBYjAnYtdXQId0BUVhyBqTysC2bhAqi/qQ
nmL0opHGHupGXcSpA1FvPY+oiIHZHWAcQqSf9r0qoN+WekbBhLduUtEYvh0LSx0m
UaLkoV4gNktiNE5Srq18oR8+/dSE9vlDLKE+XvCiYHJvPsPiY2IfBSLpAfqO00h5
dCP7u3ZXs7PWQ+8OBZyWW9NRpA2w4YUUOjDM3vf9YVQvC/gLLM2w0X/82wKJEt6U
upbRe1/d/Zpdki+UjKst6xoqC6aL8GczHewXOIAE94EL4Y06FjwoBWflyCMs+taz
4DRB7zY+hg84puRhdx52PSTzr4tHBCDgznMhMH8WRYTTaQHoH/nWuyQqv/y4moiX
Cs4GSyNvTkCT6P/R9s+LiGMIirJkzZJXNYt+x3uTT3NyHad7sO2t+ZqSMTMTKkMj
zLMP+mhSxCmjW9Nb4Fi0NOlsq5pw4iKXCT1K+nYQ6p7pnhzC1sjxupjcYbYeo55i
5OmnV9RcuJJ0Q1U=
-----END CERTIFICATE-----
