Certificate:
    Data:
        Version: 3 (0x2)
        Serial Number:
            12:b6:18:79:fe:67:ba:9c:d6:7f:d1:74:3a:4a:66:07
        Signature Algorithm: sha256WithRSAEncryption
        Issuer: CN=Fake CA for Zlint testing
        Validity
            Not Before: Sep  1 00:00:00 2025 GMT
            Not After : Sep  1 00:00:00 2026 GMT
        Subject: CN=Leon.Mandrake@example.com
        Subject Public Key Info:
            Public Key Algorithm: 2.16.840.1.101.3.4.3.17
            Unable to load Public Key
00D41CF4657F0000:error:03000072:digital envelope routines:X509_PUBKEY_get0:decode error:crypto/x509/x_pubkey.c:464:
00D41CF4657F0000:error:03000072:digital envelope routines:X509_PUBKEY_get0:decode error:crypto/x509/x_pubkey.c:464:
        X509v3 extensions:
            X509v3 Key Usage: critical
                Digital Signature
            X509v3 Extended Key Usage: 
                E-mail Protection
            X509v3 Certificate Policies: 
                Policy: 2.23.140.1.5.1.3
            X509v3 Authority Key Identifier: 
                E8:B6:F6:76:4B:D0:3B:E5:46:A5:F9:54:D4:7E:07:B3:DE:0D:60:3E
            X509v3 Subject Alternative Name: 
                email:Leon.Mandrake@example.com
            X509v3 CRL Distribution Points: 
                Full Name:
                  URI:http://ca.someca-inc.com/crl
    Signature Algorithm: sha256WithRSAEncryption
    Signature Value:
        70:25:cc:0e:ea:32:8a:53:62:53:3a:19:11:e3:86:30:c2:69:
        bc:ab:31:27:d3:db:a1:f1:9a:ff:6e:bd:04:2d:75:7b:a3:19:
        16:1c:13:d2:c0:db:b5:4f:c3:c1:6a:4d:5d:46:16:23:31:40:
        e7:b3:25:01:4a:70:22:b9:37:1c:21:d3:28:d5:61:9d:9e:de:
        be:8b:09:dd:02:21:a9:0e:64:f5:cc:46:30:fd:98:0b:1b:28:
        27:be:60:68:1d:52:9a:99:5c:1c:07:df:c6:65:ac:45:44:6e:
        bd:62:67:57:a8:75:24:2d:4d:60:e1:35:5f:56:fd:03:69:3c:
        75:01:aa:14:8f:6d:cf:08:4c:d0:44:6e:f1:55:3d:91:4b:87:
        9f:f9:97:c5:47:52:40:0b:71:f3:39:27:e7:de:20:da:84:e3:
        a2:0e:42:a7:61:2c:ee:3e:6c:4d:00:8e:30:2a:d6:d8:98:61:
        62:db:0e:ae:f7:b9:6a:1e:21:48:51:db:ea:32:f0:ca:f3:45:
        6a:c0:aa:3d:d3:75:40:d2:6b:d1:8a:bd:e0:eb:93:c6:e9:80:
        0d:c6:9a:1c:c9:9a:5b:66:5e:05:fc:d6:95:5d:77:3b:1b:d6:
        d0:a7:b5:fa:0d:c3:62:31:38:a4:a3:35:be:38:d1:49:80:94:
        73:18:47:06:1f:f8:33:50:74:0f:90:b9:11:03:58:5b:68:87:
        07:cc:33:37:b8:92:62:ff:1e:44:3b:48:ea:fc:7e:ad:cb:0d:
        45:c4:c5:5c:4e:ae:55:70:dd:ea:a7:30:fa:1a:b8:19:32:be:
        16:41:18:51:19:db:37:16:70:d1:e4:06:25:bb:a0:22:e0:db:
        b5:ed:0e:9f:77:44:89:8e:dc:75:f9:2d:f9:99:27:88:23:42:
        a2:b9:08:f1:a5:60:21:83:71:d6:4a:ab:4a:51:ae:0b:18:45:
        7d:1e:f7:86:43:56:2a:2a:29:cd:11:c9:51:22:a9:c7:06:c4:
        d2:bd:50:51:81:65:d4:70:e0:e2:d4:ff:1f:86:b1:51:77:ef:
        07:05:d1:6b:51:3d:54:4e:29:d2:52:69:a0:03:8f:68:c3:04:
        7e:2e:c6:89:99:a8:c3:1a:89:67:d7:0e:9d:b0:ad:73:f9:60:
        c0:ba:35:93:db:d8:9e:c9:29:09:fb:ed:80:35:93:4d:96:17:
        21:1f:d9:3f:ee:4e:5d:37:84:0a:03:ee:3b:31:b4:a4:bc:a5:
        e8:20:a6:b3:b8:9e:25:74:b3:07:b0:ae:55:ce:45:44:e3:b5:
        19:75:5c:dc:c6:41:07:97:7c:48:7e:b6:b9:4c:c1:23:4e:d3:
        12:30:56:1d:7b:84:81:6a
-----BEGIN CERTIFICATE-----
MIIIlzCCBn+gAwIBAgIQErYYef5nupzWf9F0OkpmBzANBgkqhkiG9w0BAQsFADAk
MSIwIAYDVQQDExlGYWtlIENBIGZvciBabGludCB0ZXN0aW5nMB4XDTI1MDkwMTAw
MDAwMFoXDTI2MDkwMTAwMDAwMFowJDEiMCAGA1UEAwwZTGVvbi5NYW5kcmFrZUBl
eGFtcGxlLmNvbTCCBTIwCwYJYIZIAWUDBAMRA4IFIQCncZdhvvypT4BULRWyYEAY
ErfRMvDRYlEzZtdf3ANXTPkbcJPhxELkAsg8mbzo/WDBfc57i3Maq25HFO3B87J2
g516n+0EB0zZ+8PhFBIgOF1SK0s82azkGI7Y8Qwoy7/HGf+2zYvEH0/Uy94qIspA
C6naeNVDWgy/YC+hlpYWuYa5Y3ssR6EKZAan86i0j3Q7+Rs4iF0/43jcPT2q0MQ0
Kyl15s4UHxaEhfqL50Vf3F7ubS9ej6sPNqZOg6pmtAT1qkGC6bNfL5N8HmpawcYo
cskW8TLkT4PkV0BjZZKpjddSBOJbR0WzrTYsW5IBosQzfxE2ox+yocrKbITiNiFF
MLYEhat0XVa794WbbKF21dAhu+be8mxVNAoc7uQwxGoaWQc/17MDOH6tkrSzk9qv
P+wj2yVb9SSj7pEotrnDkCzjZEgLVdfRqpg4ydHpotD9ayocJ55Kk7uIAhLDxTvH
mkaQ3GnaTnsZEHN5teU2yVx6BWAIMp/HitRVuZ2nSFMYSvYgKoOj0lOeCVrM9iLF
erfXewXMCogx/ecvOCBnvfr5gN3+gCfu/SOaqGwJO5m7EZJMVy3KN/0FUq46lqRw
G5Bp83KaTvKKyR0ryy2Zmwrn9YWYVA1esqRyja7ItEzcV0nvF95YlUeZF+AlqnTI
acJk56je5izWl+bJvZyDWvpHFDDTkGmj2kwoVZCQuGWlarwh3tKRpXZvQF9tDsYP
BCxUrWv6hSBh4fPcP/GcerJdVKUrbBt7Bj1eoCKUEraFPzFYAKs6Vym0ZiEMf6c4
Azb3CLb99IFFBaGngEQaXmKizh9ff/4Rz85wlbdL765tag3/wEgBovZm4IXpjj11
5oTr3fRZrco7QleBX4nHjvnqPigWBGVDzKF6RTbNB81SG5WPDb7JgEiT5sfOvMzz
/GVwZK/nh1ZrCne35lS5gQtGfIhX2oZolHqif2YcjkYI6HS/hc1zo5VNlfxoy1TZ
TYn4qpB3QQ2c5N1zLWG5vFOx19YFdPPxa45sBhD1V0ldn7+zyv2u4FiYVLSGpPkP
Qz4uJ2IUu9w+0rQiCQPGyDcLf4xDaSDc0ky0VgSBVM02V3HnBN7CVDHqCMC5N6hj
n4ADupThWMo7Wu8872vet3AK8ARIk1p8N8DaXVeouLg8e6nLfdDg18dGGTPVWtSU
ZADTAuU2+0xBfqXb4GM85B/CecDfPg/Dz2RRssfnmOeufOkQsZzgMRUKjQ20nDpK
WNpA7Klw7CpdDxxkW6iMNt6Mz2N9MnM6Ad/O9RE7FTWvWLUci2/WWoghCw5Z55H9
NalDIN2MsQM32R10XMY5qPNu370Wi+5MDarH2g2V4g8D7nLYdSdPufaukoFt5BJ8
8Txnr21Zx/ZHHJAwSgKxCpvt4Dd1KIL8oKyIDYtjYgLjO35B1eGjC323+kLdaoRX
1j4tlkUMonODzE3Pfyp+qQW8hv5Nc1pM5iNIutIMk79KDSc6A4AnOKpXgp4lJG3D
Ea+wLvvX6ddhaWawyZV0KzM6yTCNluxsgCQp5UjiQcijmxmZ6cSxTtnQVG9eOOsz
hkTyDlZswVe3d5Hh8iM68qFmmxi1hHHLdG9b1OaeXlIp7qM6xsfW3KnIzg65rJiU
/r9j050bjQ7bevCo01zK1gA5SvPZd+HAOuHps6wIjwp2+mh9hqRtuykPVPpwdrMb
YkPtih2470B8z1hmj979yw4ilCPrnKBzL07LW2VbT0NizHBDm6MLQjviP/jrA/Gf
o4G0MIGxMA4GA1UdDwEB/wQEAwIHgDATBgNVHSUEDDAKBggrBgEFBQcDBDAUBgNV
HSAEDTALMAkGB2eBDAEFAQMwHwYDVR0jBBgwFoAU6Lb2dkvQO+VGpflU1H4Hs94N
YD4wJAYDVR0RBB0wG4EZTGVvbi5NYW5kcmFrZUBleGFtcGxlLmNvbTAtBgNVHR8E
JjAkMCKgIKAehhxodHRwOi8vY2Euc29tZWNhLWluYy5jb20vY3JsMA0GCSqGSIb3
DQEBCwUAA4ICAQBwJcwO6jKKU2JTOhkR44Ywwmm8qzEn09uh8Zr/br0ELXV7oxkW
HBPSwNu1T8PBak1dRhYjMUDnsyUBSnAiuTccIdMo1WGdnt6+iwndAiGpDmT1zEYw
/ZgLGygnvmBoHVKamVwcB9/GZaxFRG69YmdXqHUkLU1g4TVfVv0DaTx1AaoUj23P
CEzQRG7xVT2RS4ef+ZfFR1JAC3HzOSfn3iDahOOiDkKnYSzuPmxNAI4wKtbYmGFi
2w6u97lqHiFIUdvqMvDK80VqwKo903VA0mvRir3g65PG6YANxpocyZpbZl4F/NaV
XXc7G9bQp7X6DcNiMTikozW+ONFJgJRzGEcGH/gzUHQPkLkRA1hbaIcHzDM3uJJi
/x5EO0jq/H6tyw1FxMVcTq5VcN3qpzD6GrgZMr4WQRhRGds3FnDR5AYlu6Ai4Nu1
7Q6fd0SJjtx1+S35mSeII0KiuQjxpWAhg3HWSqtKUa4LGEV9HveGQ1YqKinNEclR
IqnHBsTSvVBRgWXUcODi1P8fhrFRd+8HBdFrUT1UTinSUmmgA49owwR+LsaJmajD
Goln1w6dsK1z+WDAujWT29ieySkJ++2ANZNNlhchH9k/7k5dN4QKA+47MbSkvKXo
IKazuJ4ldLMHsK5VzkVE47UZdVzcxkEHl3xIfra5TMEjTtMSMFYde4SBag==
-----END CERTIFICATE-----
