Certificate:
    Data:
        Version: 3 (0x2)
        Serial Number:
            82:a4:94:b5:64:f6:55:c0:0e:ba:1a:a1:ea:85:c9:b6
        Signature Algorithm: sha256WithRSAEncryption
        Issuer: CN=Fake CA for Zlint testing
        Validity
            Not Before: Sep  1 00:00:00 2025 GMT
            Not After : Sep  1 00:00:00 2026 GMT
        Subject: CN=Leon.Mandrake@example.com
        Subject Public Key Info:
            Public Key Algorithm: 2.16.840.1.101.3.4.4.2
            Unable to load Public Key
0074681D527F0000:error:03000072:digital envelope routines:X509_PUBKEY_get0:decode error:crypto/x509/x_pubkey.c:464:
0074681D527F0000:error:03000072:digital envelope routines:X509_PUBKEY_get0:decode error:crypto/x509/x_pubkey.c:464:
        X509v3 extensions:
            X509v3 Key Usage: critical
                Digital Signature
            X509v3 Extended Key Usage: 
                E-mail Protection
            X509v3 Certificate Policies: 
                Policy: 2.23.140.1.5.1.3
            X509v3 Authority Key Identifier: 
                E8:B6:F6:76:4B:D0:3B:E5:46:A5:F9:54:D4:7E:07:B3:DE:0D:60:3E
            X509v3 Subject Alternative Name: 
                email:Leon.Mandrake@example.com
            X509v3 CRL Distribution Points: 
                Full Name:
                  URI:http://ca.someca-inc.com/crl
    Signature Algorithm: sha256WithRSAEncryption
    Signature Value:
        8e:55:12:d5:ce:4c:c2:37:ba:df:96:c5:39:da:87:f8:fa:01:
        d9:20:03:d7:74:76:9b:6f:44:71:d9:36:2e:1c:f5:10:cc:44:
        6a:04:e4:52:a5:27:4c:0c:e7:d0:ec:2a:0b:ae:30:8c:96:61:
        91:7d:bf:b8:9a:cf:38:77:0e:63:b1:43:79:a5:87:68:7d:e9:
        5e:6e:a2:5f:08:e8:75:59:46:64:63:e3:59:d1:5e:fd:b4:c9:
        c0:74:d7:31:d4:6c:aa:fc:c5:c7:41:83:e8:8e:20:43:b0:d3:
        e6:5c:91:06:2d:5a:60:c0:99:c4:bc:c5:dc:1c:36:f1:d5:29:
        17:10:9b:43:13:92:fa:79:8f:66:bf:1d:d2:87:35:1b:71:8f:
        41:b5:75:ef:1e:da:a5:35:97:0d:63:71:fd:e9:a2:27:07:bb:
        62:b4:5b:26:37:f4:7b:26:28:83:0b:91:05:23:fb:6c:62:86:
        3f:6d:23:d8:8c:55:fe:fe:26:c6:26:f2:09:1f:2d:9c:de:9a:
        b8:da:69:a6:87:54:db:8c:8b:ea:db:4d:35:67:39:e7:60:14:
        d7:22:c1:fc:aa:b9:cc:b0:47:8b:0b:e1:04:9d:9b:58:0b:e2:
        58:6a:4b:56:5b:9c:e5:75:37:5d:91:b3:d8:dd:fe:19:04:34:
        1c:86:b9:af:a7:13:51:d5:de:a9:6e:ce:e1:73:54:90:d0:d8:
        0e:30:28:cc:9e:48:0b:8c:af:29:a1:41:70:c1:07:3e:93:05:
        94:cc:f5:b1:85:ac:35:7a:05:5b:7f:ef:f8:fe:a7:8e:5f:68:
        c5:fd:be:17:23:21:37:9a:b1:e4:1b:cd:8c:46:86:fb:ed:16:
        6f:62:41:46:db:fa:7d:38:90:14:95:f8:32:1d:f6:32:d5:8b:
        38:42:3a:cc:f4:73:6f:69:91:d4:1c:57:4a:d9:7c:4c:17:5f:
        2b:53:18:8e:36:b2:da:ab:ec:20:50:19:38:0b:c6:af:3f:1c:
        40:25:0f:ee:97:5a:d1:0d:2d:fc:1a:b1:54:3e:be:b4:78:4c:
        38:6f:e7:eb:ba:57:ad:8f:2e:a6:6f:fc:14:81:87:bc:0e:36:
        a0:b1:90:d0:ae:45:df:66:fd:ca:d7:a2:35:13:45:4a:2a:47:
        88:ed:10:86:ce:b8:f8:4f:74:c2:60:f4:d6:a5:f3:ea:41:63:
        38:dd:b7:da:28:bb:4f:ac:2d:a1:81:3a:5d:78:b7:c2:45:bd:
        32:f8:ef:d8:d1:bd:08:4f:01:c7:c5:9c:84:8c:7c:2c:c0:ef:
        4b:02:d8:d6:8f:25:19:d3:96:11:9d:18:4e:e7:84:d2:bc:76:
        02:10:65:38:e7:d1:7d:97
-----BEGIN CERTIFICATE-----
MIIIGDCCBgCgAwIBAgIRAIKklLVk9lXADroaoeqFybYwDQYJKoZIhvcNAQELBQAw
JDEiMCAGA1UEAxMZRmFrZSBDQSBmb3IgWmxpbnQgdGVzdGluZzAeFw0yNTA5MDEw
MDAwMDBaFw0yNjA5MDEwMDAwMDBaMCQxIjAgBgNVBAMMGUxlb24uTWFuZHJha2VA
ZXhhbXBsZS5jb20wggSyMAsGCWCGSAFlAwQEAgOCBKEAfhNIZkecTdsCOTYirhAU
UvopIiNR2BgQbRo6guk1rEVTquIigdmkAdYS16B4YVlL6ESWYLjFTblgDkeQOoNG
ofxQMcAtfQSoabNQBnO0/DRNshQ8rVplj6KzOODNXXA34toFyJuZdUcC7JUHUPw8
0/tnsqe2hwtPtPl0XPmovhoMYoNjKprFMaBBz8KCTAZsnfIGSlQX40G5WfgZn4ub
mXVWp9yAxQVrRvlbtzx0bPgXvmlRfYyK7SyGPjESpCk+8+p8rXqnc5yp+bh4iidw
OySFRgLGSdaCBPSWZXyfSRTIDGQZPFEzLRVKWhOYtTAGt4E31pRQYDBfyIaG11w6
G7RP0HeKbZFnE7cRalcOH1NG91suzShSkDFLBscalAmwrLRJOxW40LI3FdCzDaZN
iphYjyY7peurGbdrXRdxBLrNePWs4/aPDNia+NpickS1vzut2zVMwRRa6grA4bUI
THyUF+s7+pQCpIjFkopn11IFNEFkfdRMD7K5XrGj6dY2NIgV0ic51HBtntRHWiqr
PfNeI4Rjs4d0Z4SbwXdavmcKihWp4AxoNlNejXwYXvYVXFRWLyoWLcySKeZ66tss
laNelMcYvhe1q+t0OUQIk6VS4SpJhHsPMxpUzBxd+uAG1lZ52LJxMLJwVwqkPNzO
CzdDHCeeBIUQnfB87bJcmkuz5ZVq/lkuYZAxussh4hhXpccDfHguIsoFwXmuhWim
rHYZr7Jx28dCepC3JeMotdgJkrcigEcVWuArHTHKx/Cei/sNZKOhLFKecwOGDpQf
uGvMKZUARgc2CflMCLqXPbln6jXE0+qyJfpzwRtU9Lg0NxF0HUGSvZjKfVIQ+XWg
5QwabPloJFZxWEGiVKmeeYZaw2eMebQX7cYxFIlOvaibb7h9jGC6iLG2VmQ34FJu
uFG1baSI1mbLxypH5kFSqeAATmdTftQU/yJUWyIFzERX2TdUyVUJjiUCJQoGYtet
sRmtNfkgh2AKStpF/aTHw4OssUp4LHt468tdRrCim0Be5Lp1SPt4mgmDpKGRW+Gx
BkdPUwJjChBxqKJdzxkPU7E196kMMSkHi0GKkWQJGjm6+UsdOfiHHHMxohQp2EKJ
a3iDUHG84wI7XYY2gpEE6Ju2OOqQ4YOVTpsfwoqOwMoT0DKTJ5DDFFu/HeRiflrM
xcxLeARcajMIL+G4xVNXSrgVDbutm8lNbQIFbZV3uAdNGbl1JTGiKDt416ZoURoA
QFcVQ2w0rpWzpwJf/HBK40KElaVZHJE5EPdRArBZJ5RvJ9QdRMNCH+u2oxVUGYRO
g+Go9ldi3LGGi6yqYfoYR4WF5MZeWAovB/Io5ifA6LpygqnKigJtN2GE0zrHZsB8
ffY60mZAedxu1duWoaW/MUkBi7TGdVSHmXda+sOoAFdzRkjCTywtfGe4hsywfCJx
o1eeWwKYl3ui6oUGn2J0QAPI5sqSQ3HFDCEBYEdMoiw2SdartAUICsYxYxVksRB4
kJlFhWqx09CLV2FY35aEdJoDR/mTTFxAIBFzbUSWzjEdoiGU5JjUFbDdKBjzf3nn
BHxwjHyjmlgSpvmXQnKdk2+jgbQwgbEwDgYDVR0PAQH/BAQDAgeAMBMGA1UdJQQM
MAoGCCsGAQUFBwMEMBQGA1UdIAQNMAswCQYHZ4EMAQUBAzAfBgNVHSMEGDAWgBTo
tvZ2S9A75Ual+VTUfgez3g1gPjAkBgNVHREEHTAbgRlMZW9uLk1hbmRyYWtlQGV4
YW1wbGUuY29tMC0GA1UdHwQmMCQwIqAgoB6GHGh0dHA6Ly9jYS5zb21lY2EtaW5j
LmNvbS9jcmwwDQYJKoZIhvcNAQELBQADggIBAI5VEtXOTMI3ut+WxTnah/j6Adkg
A9d0dptvRHHZNi4c9RDMRGoE5FKlJ0wM59DsKguuMIyWYZF9v7iazzh3DmOxQ3ml
h2h96V5uol8I6HVZRmRj41nRXv20ycB01zHUbKr8xcdBg+iOIEOw0+ZckQYtWmDA
mcS8xdwcNvHVKRcQm0MTkvp5j2a/HdKHNRtxj0G1de8e2qU1lw1jcf3poicHu2K0
WyY39HsmKIMLkQUj+2xihj9tI9iMVf7+JsYm8gkfLZzemrjaaaaHVNuMi+rbTTVn
OedgFNciwfyqucywR4sL4QSdm1gL4lhqS1ZbnOV1N12Rs9jd/hkENByGua+nE1HV
3qluzuFzVJDQ2A4wKMyeSAuMrymhQXDBBz6TBZTM9bGFrDV6BVt/7/j+p45faMX9
vhcjITeaseQbzYxGhvvtFm9iQUbb+n04kBSV+DId9jLVizhCOsz0c29pkdQcV0rZ
fEwXXytTGI42stqr7CBQGTgLxq8/HEAlD+6XWtENLfwasVQ+vrR4TDhv5+u6V62P
LqZv/BSBh7wONqCxkNCuRd9m/crXojUTRUoqR4jtEIbOuPhPdMJg9Nal8+pBYzjd
t9oou0+sLaGBOl14t8JFvTL479jRvQhPAcfFnISMfCzA70sC2NaPJRnTlhGdGE7n
hNK8dgIQZTjn0X2X
-----END CERTIFICATE-----
