Certificate:
    Data:
        Version: 3 (0x2)
        Serial Number:
            7f:10:82:4d:dc:40:ba:89:ff:87:95:81:f7:c8:2a:9a
        Signature Algorithm: sha256WithRSAEncryption
        Issuer: C = XX, O = Some CA, CN = Fake CA for Zlint testing
        Validity
            Not Before: Sep  3 08:12:45 2025 GMT
            Not After : Sep  3 08:12:45 2026 GMT
        Subject: CN = Guenter.Grass@example.com
        Subject Public Key Info:
            Public Key Algorithm: id-ecPublicKey
                Public-Key: (256 bit)
                pub:
                    04:b4:f9:e3:89:2e:fb:08:a8:1a:44:8a:20:67:7e:
                    14:3e:f0:72:80:ec:35:35:4f:db:56:b8:16:e1:17:
                    57:e5:c7:53:5f:c2:e6:8f:08:0d:09:9c:c6:59:22:
                    94:84:8e:a4:d2:47:92:2e:40:fb:fd:d9:23:89:27:
                    cf:54:f3:25:31
                ASN1 OID: prime256v1
                NIST CURVE: P-256
        X509v3 extensions:
            X509v3 Key Usage: critical
                Digital Signature
            X509v3 Extended Key Usage: 
                TLS Web Client Authentication, E-mail Protection
            X509v3 Subject Key Identifier: 
                DE:8A:84:7B:FF:8C:34:3D:69:B8:53:A2:15:E6:EE:77:5E:F2:EF:96
            X509v3 Authority Key Identifier: 
                keyid:E8:B6:F6:76:4B:D0:3B:E5:46:A5:F9:54:D4:7E:07:B3:DE:0D:60:3E

            Authority Information Access: 
                OCSP - URI:http://ca.someca-inc.com/ocsp
                CA Issuers - URI:http://ca.someca-inc.com/root

            X509v3 Subject Alternative Name: 
                email:Guenter.Grass@example.com
            X509v3 Certificate Policies: 
                Policy: 2.23.140.1.5.1.3

            X509v3 CRL Distribution Points: 

                Full Name:
                  URI:http://ca.someca-inc.com/crl

    Signature Algorithm: sha256WithRSAEncryption
         ae:65:dd:f3:81:0f:21:65:35:3b:5d:48:a2:3e:94:23:96:66:
         cb:41:d1:55:bd:3a:c1:66:36:c8:bb:05:1e:0e:4a:b9:d5:69:
         4b:78:6c:73:0c:2b:1a:98:a1:10:8f:3b:11:61:9a:d3:98:f0:
         ec:5e:4b:8e:0a:90:85:74:5c:3b:de:11:bd:4f:04:f2:31:51:
         53:23:7d:fa:41:03:09:37:13:88:c2:8a:59:ce:45:3e:84:28:
         57:24:cf:02:e6:c4:d3:d2:b1:70:82:9b:d2:76:12:8e:fe:6f:
         97:0b:f8:62:74:d2:fd:3c:61:1a:47:9f:52:59:ad:f2:37:50:
         4b:6c:71:1f:14:c5:e0:b4:25:65:22:d4:dc:a7:5b:29:6e:bf:
         d0:85:19:40:ed:7b:21:d1:2c:c1:e3:e8:3e:67:57:67:00:59:
         c7:23:21:09:3c:c8:3b:4f:0c:85:ac:8c:4c:32:69:d6:3d:2a:
         7e:f8:7a:1f:6d:c5:25:2c:db:a1:6b:1b:e8:6f:cf:f8:fa:c6:
         2b:52:9c:70:f4:44:13:2a:16:d8:3f:c7:fc:fc:8d:5f:93:78:
         87:27:be:6c:71:94:3c:7f:37:d1:66:f0:f1:37:f0:3f:97:7f:
         cd:00:2f:63:f5:99:87:12:6b:4a:e6:20:51:bf:2f:5a:5c:c8:
         46:b2:07:bc:d2:db:a7:91:e6:d4:4f:20:16:4c:21:fb:81:54:
         87:9a:6f:c4:79:01:ce:8b:e5:42:6c:75:c9:02:94:c0:94:9a:
         8d:44:86:76:39:43:48:fd:1e:79:14:93:15:36:3e:74:b9:40:
         55:a5:e0:db:97:c6:ad:05:43:53:1a:69:4c:d0:59:6e:39:07:
         e5:b1:3c:47:2f:a7:69:37:36:a2:8b:74:b5:9b:51:d7:aa:28:
         fa:e2:d4:0b:15:cc:ef:5f:d0:7d:e1:9f:fe:3b:8a:5b:08:92:
         eb:2f:60:1a:10:50:ab:12:1b:9b:35:93:48:70:08:b2:78:36:
         7a:69:bb:2e:f5:8a:e1:cc:f3:0a:dc:f2:cf:87:1a:e5:f7:ad:
         9e:a8:64:cc:f1:12:13:d0:3f:8a:45:0f:fe:af:78:9b:05:79:
         08:a9:bf:24:73:12:75:7b:ad:27:25:fc:bd:de:b7:7e:36:83:
         a9:2a:5c:3a:f9:3b:27:00:6e:bd:af:6a:b6:b6:e2:1f:54:de:
         bc:5e:d7:40:4a:b2:85:ea:4b:1e:34:99:bc:e0:d3:fb:46:7e:
         b6:a8:13:be:a3:e2:a9:b3:f1:6b:64:6e:e9:0b:93:d5:93:00:
         7c:f8:18:64:38:f4:fd:6d:f8:9d:4b:34:3d:ce:75:62:01:4c:
         65:e2:4e:51:ce:a4:2c:d6
-----BEGIN CERTIFICATE-----
MIIEbDCCAlSgAwIBAgIQfxCCTdxAuon/h5WB98gqmjANBgkqhkiG9w0BAQsFADBD
MQswCQYDVQQGEwJYWDEQMA4GA1UEChMHU29tZSBDQTEiMCAGA1UEAxMZRmFrZSBD
QSBmb3IgWmxpbnQgdGVzdGluZzAeFw0yNTA5MDMwODEyNDVaFw0yNjA5MDMwODEy
NDVaMCQxIjAgBgNVBAMMGUd1ZW50ZXIuR3Jhc3NAZXhhbXBsZS5jb20wWTATBgcq
hkjOPQIBBggqhkjOPQMBBwNCAAS0+eOJLvsIqBpEiiBnfhQ+8HKA7DU1T9tWuBbh
F1flx1NfwuaPCA0JnMZZIpSEjqTSR5IuQPv92SOJJ89U8yUxo4IBRDCCAUAwDgYD
VR0PAQH/BAQDAgeAMB0GA1UdJQQWMBQGCCsGAQUFBwMCBggrBgEFBQcDBDAdBgNV
HQ4EFgQU3oqEe/+MND1puFOiFebud17y75YwHwYDVR0jBBgwFoAU6Lb2dkvQO+VG
pflU1H4Hs94NYD4wZAYIKwYBBQUHAQEEWDBWMCkGCCsGAQUFBzABhh1odHRwOi8v
Y2Euc29tZWNhLWluYy5jb20vb2NzcDApBggrBgEFBQcwAoYdaHR0cDovL2NhLnNv
bWVjYS1pbmMuY29tL3Jvb3QwJAYDVR0RBB0wG4EZR3VlbnRlci5HcmFzc0BleGFt
cGxlLmNvbTAUBgNVHSAEDTALMAkGB2eBDAEFAQMwLQYDVR0fBCYwJDAioCCgHoYc
aHR0cDovL2NhLnNvbWVjYS1pbmMuY29tL2NybDANBgkqhkiG9w0BAQsFAAOCAgEA
rmXd84EPIWU1O11Ioj6UI5Zmy0HRVb06wWY2yLsFHg5KudVpS3hscwwrGpihEI87
EWGa05jw7F5LjgqQhXRcO94RvU8E8jFRUyN9+kEDCTcTiMKKWc5FPoQoVyTPAubE
09KxcIKb0nYSjv5vlwv4YnTS/TxhGkefUlmt8jdQS2xxHxTF4LQlZSLU3KdbKW6/
0IUZQO17IdEswePoPmdXZwBZxyMhCTzIO08MhayMTDJp1j0qfvh6H23FJSzboWsb
6G/P+PrGK1KccPREEyoW2D/H/PyNX5N4hye+bHGUPH830Wbw8TfwP5d/zQAvY/WZ
hxJrSuYgUb8vWlzIRrIHvNLbp5Hm1E8gFkwh+4FUh5pvxHkBzovlQmx1yQKUwJSa
jUSGdjlDSP0eeRSTFTY+dLlAVaXg25fGrQVDUxppTNBZbjkH5bE8Ry+naTc2oot0
tZtR16oo+uLUCxXM71/QfeGf/juKWwiS6y9gGhBQqxIbmzWTSHAIsng2emm7LvWK
4czzCtzyz4ca5fetnqhkzPESE9A/ikUP/q94mwV5CKm/JHMSdXutJyX8vd63fjaD
qSpcOvk7JwBuva9qtrbiH1TevF7XQEqyhepLHjSZvODT+0Z+tqgTvqPiqbPxa2Ru
6QuT1ZMAfPgYZDj0/W34nUs0Pc51YgFMZeJOUc6kLNY=
-----END CERTIFICATE-----
