Certificate:
    Data:
        Version: 3 (0x2)
        Serial Number:
            dd:20:4d:fd:cc:b5:8e:6c:66:06:bc:d2:55:a0:34:7e
        Signature Algorithm: sha256WithRSAEncryption
        Issuer: C=XX, O=Some CA, CN=Fake CA for Zlint testing
        Validity
            Not Before: Jul 29 05:42:41 2025 GMT
            Not After : Jul 29 05:42:41 2026 GMT
        Subject: CN=Guenter.Grass@example.com
        Subject Public Key Info:
            Public Key Algorithm: id-ecPublicKey
                Public-Key: (384 bit)
                pub:
                    04:cd:6e:d2:52:31:45:0c:67:4e:b2:d7:3f:97:25:
                    95:3b:08:ee:4e:ed:44:62:3e:ce:e3:f1:62:2b:9f:
                    f9:c9:19:8f:f8:a1:ae:ce:4f:42:c2:ec:7a:ff:3d:
                    5b:e5:8b:56:5d:6e:b3:04:cf:bd:31:ba:55:56:8e:
                    03:4d:13:6b:4e:68:85:5c:57:01:04:05:39:70:e8:
                    66:eb:fa:9e:b8:0e:05:8d:8a:37:44:86:58:9f:13:
                    1a:84:94:53:80:be:01
                ASN1 OID: secp384r1
                NIST CURVE: P-384
        X509v3 extensions:
            X509v3 Key Usage: critical
                Digital Signature
            X509v3 Extended Key Usage: 
                TLS Web Client Authentication, E-mail Protection
            X509v3 Subject Key Identifier: 
                DE:8A:84:7B:FF:8C:34:3D:69:B8:53:A2:15:E6:EE:77:5E:F2:EF:96
            X509v3 Authority Key Identifier: 
                E8:B6:F6:76:4B:D0:3B:E5:46:A5:F9:54:D4:7E:07:B3:DE:0D:60:3E
            Authority Information Access: 
                OCSP - URI:http://ca.someca-inc.com/ocsp
                CA Issuers - URI:http://ca.someca-inc.com/root
            X509v3 Subject Alternative Name: 
                email:Guenter.Grass@example.com
            X509v3 Certificate Policies: 
                Policy: 2.23.140.1.5.1.3
            X509v3 CRL Distribution Points: 
                Full Name:
                  URI:http://ca.someca-inc.com/crl
    Signature Algorithm: sha256WithRSAEncryption
    Signature Value:
        27:8e:69:bd:f8:d3:40:c2:ff:5a:de:63:a1:f9:46:40:59:28:
        9b:de:b3:29:f1:50:39:fb:04:85:2e:74:49:a9:d5:cf:ec:1c:
        6a:e3:98:9f:e4:21:30:08:03:3c:48:bf:d4:ab:7d:bd:d8:50:
        08:6f:fd:3a:cb:22:57:0f:4b:12:96:7a:25:98:9c:c3:05:ad:
        1f:c0:b3:7f:09:41:0f:10:78:9a:ff:59:ef:50:3a:64:d0:6f:
        b9:36:8c:ae:12:81:b4:ca:1a:7c:43:10:b8:3b:52:df:04:1a:
        91:ee:04:77:68:ad:b1:37:34:f3:c2:c6:a2:8f:03:7d:d2:91:
        42:c2:7f:4f:9a:d6:20:19:d3:21:b7:38:90:9a:fc:d4:ba:54:
        ce:31:07:7b:47:3e:b1:49:c2:65:32:6f:0c:3a:62:a1:02:18:
        28:65:92:5d:f7:ec:9b:a8:6d:ae:c6:4d:c7:23:17:b3:7e:47:
        6b:39:b8:9d:5a:07:33:a2:05:0e:b9:ed:c1:8f:01:b7:85:d5:
        e8:d7:de:7d:36:c6:11:67:4d:f9:bc:9d:d2:d3:31:3e:c5:65:
        84:9c:98:20:48:c6:f0:82:66:06:c7:4c:e7:e8:3b:90:fe:10:
        1f:c4:24:f4:e9:31:9c:2b:51:43:cc:02:90:36:44:6c:77:43:
        c0:0b:64:3e:8c:f6:21:d7:91:8e:ac:c2:f0:db:6a:d4:c0:24:
        09:33:3c:44:54:c9:a4:cf:99:c4:7d:02:73:dd:a6:d6:66:8f:
        57:36:0f:6d:1f:f1:8a:b6:72:96:34:7f:0d:a3:ca:93:fd:fe:
        19:8b:bf:ba:5b:79:e5:10:49:13:71:81:91:99:cc:41:f6:6b:
        92:65:f1:4a:f1:7c:ee:d7:a7:9a:2b:11:cd:0d:ba:1c:a9:73:
        30:4d:ef:15:16:23:ec:e1:b2:0a:3a:de:f9:83:14:34:be:28:
        b7:94:4f:6d:a4:05:c8:7c:d3:f2:ec:93:08:04:c8:9e:db:e8:
        4f:61:3b:88:0b:7c:82:fe:25:7a:f7:21:c7:8a:74:8c:05:7a:
        ee:a6:a6:7a:3b:6f:c8:5b:9c:88:1b:3e:46:a3:ea:74:55:f5:
        dd:8d:e2:3d:98:7f:58:aa:c1:ae:73:b1:c9:35:81:55:bf:77:
        cc:bf:32:6b:32:d6:0c:0b:c8:66:50:7a:8a:49:12:46:14:96:
        79:d2:c3:51:97:df:c7:4b:6d:4a:37:ed:05:53:1c:9d:63:f4:
        73:25:e8:13:bf:7d:7a:b4:cd:89:86:8f:7a:8a:4a:2e:66:51:
        a0:90:0f:79:1c:a1:27:67:03:e5:f3:27:d3:ae:1e:37:00:9a:
        c5:8d:cb:23:0b:c2:36:fc
-----BEGIN CERTIFICATE-----
MIIEijCCAnKgAwIBAgIRAN0gTf3MtY5sZga80lWgNH4wDQYJKoZIhvcNAQELBQAw
QzELMAkGA1UEBhMCWFgxEDAOBgNVBAoTB1NvbWUgQ0ExIjAgBgNVBAMTGUZha2Ug
Q0EgZm9yIFpsaW50IHRlc3RpbmcwHhcNMjUwNzI5MDU0MjQxWhcNMjYwNzI5MDU0
MjQxWjAkMSIwIAYDVQQDDBlHdWVudGVyLkdyYXNzQGV4YW1wbGUuY29tMHYwEAYH
KoZIzj0CAQYFK4EEACIDYgAEzW7SUjFFDGdOstc/lyWVOwjuTu1EYj7O4/FiK5/5
yRmP+KGuzk9Cwux6/z1b5YtWXW6zBM+9MbpVVo4DTRNrTmiFXFcBBAU5cOhm6/qe
uA4FjYo3RIZYnxMahJRTgL4Bo4IBRDCCAUAwDgYDVR0PAQH/BAQDAgeAMB0GA1Ud
JQQWMBQGCCsGAQUFBwMCBggrBgEFBQcDBDAdBgNVHQ4EFgQU3oqEe/+MND1puFOi
Febud17y75YwHwYDVR0jBBgwFoAU6Lb2dkvQO+VGpflU1H4Hs94NYD4wZAYIKwYB
BQUHAQEEWDBWMCkGCCsGAQUFBzABhh1odHRwOi8vY2Euc29tZWNhLWluYy5jb20v
b2NzcDApBggrBgEFBQcwAoYdaHR0cDovL2NhLnNvbWVjYS1pbmMuY29tL3Jvb3Qw
JAYDVR0RBB0wG4EZR3VlbnRlci5HcmFzc0BleGFtcGxlLmNvbTAUBgNVHSAEDTAL
MAkGB2eBDAEFAQMwLQYDVR0fBCYwJDAioCCgHoYcaHR0cDovL2NhLnNvbWVjYS1p
bmMuY29tL2NybDANBgkqhkiG9w0BAQsFAAOCAgEAJ45pvfjTQML/Wt5joflGQFko
m96zKfFQOfsEhS50SanVz+wcauOYn+QhMAgDPEi/1Kt9vdhQCG/9OssiVw9LEpZ6
JZicwwWtH8CzfwlBDxB4mv9Z71A6ZNBvuTaMrhKBtMoafEMQuDtS3wQake4Ed2it
sTc088LGoo8DfdKRQsJ/T5rWIBnTIbc4kJr81LpUzjEHe0c+sUnCZTJvDDpioQIY
KGWSXffsm6htrsZNxyMXs35Hazm4nVoHM6IFDrntwY8Bt4XV6NfefTbGEWdN+byd
0tMxPsVlhJyYIEjG8IJmBsdM5+g7kP4QH8Qk9OkxnCtRQ8wCkDZEbHdDwAtkPoz2
IdeRjqzC8Ntq1MAkCTM8RFTJpM+ZxH0Cc92m1maPVzYPbR/xirZyljR/DaPKk/3+
GYu/ult55RBJE3GBkZnMQfZrkmXxSvF87tenmisRzQ26HKlzME3vFRYj7OGyCjre
+YMUNL4ot5RPbaQFyHzT8uyTCATIntvoT2E7iAt8gv4levchx4p0jAV67qamejtv
yFuciBs+RqPqdFX13Y3iPZh/WKrBrnOxyTWBVb93zL8yazLWDAvIZlB6ikkSRhSW
edLDUZffx0ttSjftBVMcnWP0cyXoE799erTNiYaPeopKLmZRoJAPeRyhJ2cD5fMn
064eNwCaxY3LIwvCNvw=
-----END CERTIFICATE-----
