Certificate:
    Data:
        Version: 3 (0x2)
        Serial Number:
            f6:11:f9:bf:40:ed:30:e4:6e:8e:06:2e:3a:39:b3:6f
        Signature Algorithm: sha256WithRSAEncryption
        Issuer: CN=Fake CA for Zlint testing
        Validity
            Not Before: Sep  1 00:00:00 2025 GMT
            Not After : Sep  1 00:00:00 2026 GMT
        Subject: CN=Leon.Mandrake@example.com
        Subject Public Key Info:
            Public Key Algorithm: 2.16.840.1.101.3.4.3.19
            Unable to load Public Key
00944A19947F0000:error:03000072:digital envelope routines:X509_PUBKEY_get0:decode error:crypto/x509/x_pubkey.c:464:
00944A19947F0000:error:03000072:digital envelope routines:X509_PUBKEY_get0:decode error:crypto/x509/x_pubkey.c:464:
        X509v3 extensions:
            X509v3 Key Usage: critical
                Digital Signature
            X509v3 Extended Key Usage: 
                E-mail Protection
            X509v3 Certificate Policies: 
                Policy: 2.23.140.1.5.1.3
            X509v3 Authority Key Identifier: 
                E8:B6:F6:76:4B:D0:3B:E5:46:A5:F9:54:D4:7E:07:B3:DE:0D:60:3E
            X509v3 Subject Alternative Name: 
                email:Leon.Mandrake@example.com
            X509v3 CRL Distribution Points: 
                Full Name:
                  URI:http://ca.someca-inc.com/crl
    Signature Algorithm: sha256WithRSAEncryption
    Signature Value:
        39:9a:8c:99:a8:32:a8:26:f6:8b:80:89:ba:ba:bf:e4:4e:ee:
        97:ca:13:18:51:2a:3e:ab:00:60:a8:da:1d:df:e2:39:0f:c9:
        94:eb:71:fb:59:7b:6d:89:04:a7:e5:0d:b8:91:10:61:28:3f:
        56:84:47:55:00:0b:2c:f9:ad:a6:b2:df:6b:85:b9:88:9e:b5:
        a3:ff:71:66:22:86:03:f3:e2:86:b3:6c:bb:83:8d:7f:f3:09:
        55:21:b3:3a:d9:7d:7e:24:45:81:b7:33:30:85:01:c9:5d:20:
        4b:72:2a:8c:6a:dd:0c:6f:9e:86:67:68:ee:e4:4e:be:73:f5:
        fc:71:f6:5f:e0:cf:ae:7f:4a:26:57:85:36:2a:b5:8c:49:01:
        c8:5f:25:bc:f5:c0:ca:73:23:7e:db:1f:db:c8:11:1b:5d:04:
        95:63:f0:e7:60:0a:e5:9d:cd:13:d0:46:95:e0:10:10:43:31:
        04:bd:b3:ac:99:eb:c0:1b:c7:3a:1f:19:f7:7c:e8:63:c8:08:
        fa:2c:66:99:8c:fd:57:45:bd:e3:a1:99:ed:44:5b:e8:c6:02:
        cd:49:e3:bd:f4:89:0a:45:cd:8a:da:3c:a2:e1:de:81:c0:d9:
        a0:33:7e:0b:55:93:43:06:70:43:2a:79:37:86:ea:85:4f:1d:
        4c:e9:90:80:c9:ff:d6:bf:42:9a:c2:9e:d3:db:44:4b:a2:9f:
        f3:ff:94:4f:48:6d:00:dc:12:a7:09:1d:0b:de:dd:03:fd:27:
        b9:97:c5:1c:61:10:c3:09:50:fe:59:ba:0d:21:32:6f:af:d8:
        81:51:59:24:31:93:33:eb:f7:f5:33:ca:e7:b7:b4:f0:4c:b3:
        b1:af:89:aa:db:e0:48:82:a1:f9:21:ff:5b:ee:f5:20:0b:1b:
        48:30:ad:e6:9c:5e:cc:91:05:12:3a:87:e4:66:f3:f3:4a:82:
        b4:59:df:d1:6c:90:4b:15:24:f3:d6:8a:26:7a:f8:50:a0:6d:
        84:3f:40:dd:44:11:15:3b:32:32:32:fa:6a:e2:dd:e7:99:16:
        37:90:3e:c8:1c:11:e9:ee:ba:33:0b:92:5c:e8:79:a9:fd:a7:
        c4:33:04:be:bd:b9:90:9e:ca:8d:96:fc:78:52:c0:3f:b9:83:
        58:12:83:00:c3:5c:f1:6b:21:b3:c2:6b:6e:ae:40:92:d9:99:
        ce:b5:7a:51:60:d0:7d:c0:7a:fb:51:20:e3:ac:33:46:82:b3:
        04:f6:a1:e3:19:8e:00:21:2f:28:0f:00:ce:73:c5:8a:5f:fe:
        c1:6a:27:eb:a7:82:3f:a8:79:ac:2d:fc:44:d5:61:da:c5:5d:
        a9:4d:f3:19:6f:34:c9:8e
-----BEGIN CERTIFICATE-----
MIINmDCCC4CgAwIBAgIRAPYR+b9A7TDkbo4GLjo5s28wDQYJKoZIhvcNAQELBQAw
JDEiMCAGA1UEAxMZRmFrZSBDQSBmb3IgWmxpbnQgdGVzdGluZzAeFw0yNTA5MDEw
MDAwMDBaFw0yNjA5MDEwMDAwMDBaMCQxIjAgBgNVBAMMGUxlb24uTWFuZHJha2VA
ZXhhbXBsZS5jb20wggoyMAsGCWCGSAFlAwQDEwOCCiEA+hXTN6WwaQJNnW2RRwVK
PtP2y1Afv8zpkVyP5L0nxJe+qUB7aW1MGxKhxthSkjYiTei5WjmGHz3pSFIqYCW8
3pgrC2RPEELMkZ0S/slN8jqY4e1OLVO9mZWBMMQvUcHFkkI/y2+J4qKfLesFkreB
7Tj5MoPpKZ884e+41+PqI5ZMfpQIzitL/81bDFRn0/nNyTByX1S2J2abnheai9fc
3NQjsuhafDKyXtcgjQqKIbtC580r9RbyBwmClW19i3i2zn4BxanxyCmLN5nBP1UY
yRJpvBha3Zv/JWPPOdOTLJ2Fd8O+QOz15cYEQRPtyo1yceLGW4+s0rXX34F0kMhJ
NI7L5La7rH0TxPwuPsAbGzsOY7LV6LVJ762bwnB/4pGe3mkmNi4Os6XALVkpXM4o
1ESDiy/7Y4EG07VZyWJJrgwSyx+M32WP6kHWts0U3HP9X0CFs0I5R6IAIBlQIV0b
7oFZ2EB6OY81NZdLQ//a5e2tw631MLxg4pWeBfCeDAWMPe45cA+nmOwuS3ms1WxO
4+gL5hKyXtjJJ17D2ioel6Kjl0qO/8wm120+QKI9R6YwgyxF4JeCOmMGA66IffQa
UvGVlUMq7Mhtciux/tehK440ORUA8xnGWJVjoJ9BA9UMDQfDjr1PoWvpkV88siel
7UKmhIgt51D+RLJ0RHiHi/AtX8ra1G89fxZ+1i5CnvwrtSmsOYRpx/YaZw7N4/uc
zid2G3ftifK24JW9mcOAmLBY5QALMfdsealrYSafCJqQHaixE3W1V1kcuFBDUDoL
GRciLpg4aaBJMu/pwq5YB1znpmw1zsRi05g1LGO91z81ymyXj+8oT1Qcz+gCIBBQ
0BRlwATi7mdgia6Q9bysyFaP2hfPhP2eHDS31cPYvwBMrT6EUTUyh9uX+MUo3LeZ
F2lNzb60mKyJdU8Namh50MtprVAhAVH/SvxvJ7MRUfbYRV67/IrQbkM1GN44w6QS
JYhlwgTMaJSbPwYGh2N5MlsNkG4WpDgjBT6TIKr8YOkQptQFqi1t6JrkqrP7ncHk
Lz6OH9NCcDyu4bBrEk6FasfAFYFjbOAz93F8zfI3hDBNUUcTYUvVyjrb1ZhUbS8/
tTmKX/ULY/eLiMDtRHsF5qCRT3InA0F7h/pzHHxBCHOwBv7b0UdEMa9ca21GNH6Y
iMkzYjlujzoo2iT6YG+lM22+Q65/2uxRPxTwB5l1T6rh/8DYqIXpvff2fIib8UTN
xwxA2VsYftEB4tJ+XGbTqID1sP0c6tA4hKzeKazfad1c8hxhFJ7boLFE17BqJN8s
EOOf4lXK0rzLJbYvQ+CCt7x8oahAMhsllyHt8d1zue3yvDs3SYJYYTuYSaX1kmZ3
2GQtst27JX4etW4wVe25sGodu4BT9z7jXqwTnJ5+g5dAPahA397tuvEpG53JZSD7
xwR7/kTYKdMTpiQxI1BjnOQM1hZEXT+YAkzpHjZPQFMm2yc2Qx0IqJnXOrFCjdVU
pIYVQX3H8NAFFlqRCiUvkk91sz8zH3BtD0zwWhg2YKSZQPZGZH/7nlvmoirBXwK8
YtpCZCyNyG3t4f/rLPAYiurVkmg9sO5hGGV/+Bu7xW3B5Dcd3ywRUO7VY4ScIjOG
7PQpOjaeQfN+Nr3fz1bSte20Hv4gXFcThuJSSyQBnxa+44ML562ZvOwhCu9pSeBF
5uatJPJZqbtst6HnLmJsDmj1za7dX+uHZOgakFUiAg8xivdwoo26ykbqDlzrRi69
o9Vo3ApC9Kb+qIl+IrZ3GV/7DUiPNrwNHIlJhzQVV9bCRLlfn8DCU/eeGsWCmxI+
OIrpgJJ8IVpgbIt7iPsgthlkIqmYDJUoWGPksq1ovaVNw+UfDBKe51muI+j+NRoc
/HI/XeiaQuNmHdD15oTvgkpAvpfrYurer31YFAi16fl3YA5kyqSlaWxNAjZlj5mR
O/F2Bml49+JzlkfwMZ0hvu0QZeG9GenpkaL/NFzTsx4vB4TODb2q25zFXroBYl1l
ckWqFgjOfTA/nQw3a/JNT0Wepyei+yOmcZ78cCfGXOkhI9tpC/mAfelQL+PyVxJq
NV+S5lud+VnxLYKv45HdmKHlGVx7lQFuyl11GEX8FxUE0ACPg4k4sY9rLf+KTAbv
TcxL4ynHdanb1obuaj6yFKpwuHNtOz32i1xgq01xDS1V8YwpkbP8U9CJMYBa3FOQ
FjAi+bt/gvRYR5Oy1MMDWs77CbCO7FLYH1WOfuSgdM6DiSU36v0WFsv5NKzNdpKo
pj+GvtriAxqw88+GV7lnWAayph7fps0RUsMQj3vbIZNVSB4uBhbVRARRkhur0X/Y
GXnCBaWT+tGTTWpBpqDyFuupSWMjH97p9l5x/Bxlv2peZfhNBirHnw8crp0IsrQP
L7HtVCWT06ku8FRuJqx1/6lLxDn2pNq5iqEbneecgBdmFj8QTUZhtUdqSdygZ/if
HIe5TIJCoeardg0dFOs0e/tMkHJRYyPRJkBXCqR+LFV3CYtOvWAZ2imZG/J4zi2v
cjYQS+Jry2OTZqFynikyA44z1tnz9AcsiZdb64BENH3qSlWbsGCqrYPQSdExv3WD
Chm/c8+j2Qcq3VmMq4lR9a5iSyRmwyQ1nejNgCRJimqUh1drfuc6CJTCZqG3+O1v
DOHIpOlS4UF8yJRYwPFm/hWAQjnU490OUt+KeVOCkieah+ngSx0QNiIzQiCpMpPN
kYCM0e0TOWKolFNxD4GTlIfp4IT0Ge0hMdm1b+2gaH9UAJ9buFlgJr8qxMoX3nsa
8ucOjdgiHK/+HKzVgySNCq4VazV14VpDCMnAWUjoBjASF5H7yWxPVOrQPbYlVyDX
kKeQqmLzJuMIJGOd1ykr36poZrmaObWy7pT+B74DizwFw63bwKkJclZdUvf3tq+2
ipHA7SE5cg4hK+XhjyV7rt/LWO9TeC3TFGLYtb1yXUwJ/VNf3b9TJwPuYMYnJxtq
D+mYvJVFHsU2ekYagOjvzofI76Uot6gFNRTDW85Ciw6Iqat4wVpUQuHtD+ob5R2G
HnoLnoD2XwcVx0fiW60tZIllRb+8uARkZL0oEgNkAvxQRL1cIjLA/imnpao7b+83
fFHJEuZtwia+5KkGbESVhPLnT3jFbSEb7GHl6WughFsaT1mlMmlB83BE/FjN3KGj
dPeE6k9oDH6EmKVtVhQgt64ORKfp0JLIFjkv1wk81AApnZSbKjIrSnHXjgFphZmd
uLTdZuZU7PbeaiF2Tvdzxgx/eFCw2kETtFrTB9dLHa9Edw+EoI4QezQ1KnxSIjID
k0RRb1paT7lY4R9MO8AbeLSlA+paksEJiAnxYSqgIcUHKYtXAR788cEIKnMNwNz/
oFpQDdPoT2PFVTKKkUbfi22gT3TjFr1YffKvUwFyb2wWJGmmIjBA0vS+RNBj4ezK
tOCVAXL8soufoGaKYAMWw6NqUh+1nOVJG6GucKodJdwno4G0MIGxMA4GA1UdDwEB
/wQEAwIHgDATBgNVHSUEDDAKBggrBgEFBQcDBDAUBgNVHSAEDTALMAkGB2eBDAEF
AQMwHwYDVR0jBBgwFoAU6Lb2dkvQO+VGpflU1H4Hs94NYD4wJAYDVR0RBB0wG4EZ
TGVvbi5NYW5kcmFrZUBleGFtcGxlLmNvbTAtBgNVHR8EJjAkMCKgIKAehhxodHRw
Oi8vY2Euc29tZWNhLWluYy5jb20vY3JsMA0GCSqGSIb3DQEBCwUAA4ICAQA5moyZ
qDKoJvaLgIm6ur/kTu6XyhMYUSo+qwBgqNod3+I5D8mU63H7WXttiQSn5Q24kRBh
KD9WhEdVAAss+a2mst9rhbmInrWj/3FmIoYD8+KGs2y7g41/8wlVIbM62X1+JEWB
tzMwhQHJXSBLciqMat0Mb56GZ2ju5E6+c/X8cfZf4M+uf0omV4U2KrWMSQHIXyW8
9cDKcyN+2x/byBEbXQSVY/DnYArlnc0T0EaV4BAQQzEEvbOsmevAG8c6Hxn3fOhj
yAj6LGaZjP1XRb3joZntRFvoxgLNSeO99IkKRc2K2jyi4d6BwNmgM34LVZNDBnBD
Knk3huqFTx1M6ZCAyf/Wv0Kawp7T20RLop/z/5RPSG0A3BKnCR0L3t0D/Se5l8Uc
YRDDCVD+WboNITJvr9iBUVkkMZMz6/f1M8rnt7TwTLOxr4mq2+BIgqH5If9b7vUg
CxtIMK3mnF7MkQUSOofkZvPzSoK0Wd/RbJBLFSTz1oomevhQoG2EP0DdRBEVOzIy
Mvpq4t3nmRY3kD7IHBHp7rozC5Jc6Hmp/afEMwS+vbmQnsqNlvx4UsA/uYNYEoMA
w1zxayGzwmturkCS2ZnOtXpRYNB9wHr7USDjrDNGgrME9qHjGY4AIS8oDwDOc8WK
X/7Baifrp4I/qHmsLfxE1WHaxV2pTfMZbzTJjg==
-----END CERTIFICATE-----
