Certificate:
    Data:
        Version: 3 (0x2)
        Serial Number:
            dd:a6:56:09:63:de:6c:68:a7:ba:ed:f7:30:5a:df:b4
        Signature Algorithm: sha256WithRSAEncryption
        Issuer: C=XX, O=Some CA, CN=Fake CA for Zlint testing
        Validity
            Not Before: Jul 29 05:38:53 2025 GMT
            Not After : Jul 29 05:38:53 2026 GMT
        Subject: CN=Guenter.Grass@example.com
        Subject Public Key Info:
            Public Key Algorithm: id-ecPublicKey
                Public-Key: (224 bit)
                pub:
                    04:ab:0a:d4:80:9f:ea:44:dd:6e:6f:4d:ad:08:02:
                    7b:24:63:56:8e:4f:1f:23:32:45:8d:2d:b2:ba:f4:
                    1c:6f:1f:c3:66:1a:d9:8c:1f:af:83:d0:df:c7:d1:
                    00:bd:6c:b8:f3:4c:ea:aa:70:13:49:0a
                ASN1 OID: secp224r1
                NIST CURVE: P-224
        X509v3 extensions:
            X509v3 Key Usage: critical
                Digital Signature
            X509v3 Extended Key Usage: 
                TLS Web Client Authentication, E-mail Protection
            X509v3 Subject Key Identifier: 
                DE:8A:84:7B:FF:8C:34:3D:69:B8:53:A2:15:E6:EE:77:5E:F2:EF:96
            X509v3 Authority Key Identifier: 
                E8:B6:F6:76:4B:D0:3B:E5:46:A5:F9:54:D4:7E:07:B3:DE:0D:60:3E
            Authority Information Access: 
                OCSP - URI:http://ca.someca-inc.com/ocsp
                CA Issuers - URI:http://ca.someca-inc.com/root
            X509v3 Subject Alternative Name: 
                email:Guenter.Grass@example.com
            X509v3 Certificate Policies: 
                Policy: 2.23.140.1.5.1.3
            X509v3 CRL Distribution Points: 
                Full Name:
                  URI:http://ca.someca-inc.com/crl
    Signature Algorithm: sha256WithRSAEncryption
    Signature Value:
        c7:24:94:0c:28:dc:90:f1:9f:3d:61:58:8a:09:28:81:40:98:
        77:96:34:1d:ad:1f:ee:b2:bd:3f:60:ce:69:fe:82:61:66:3e:
        2b:1a:80:fd:db:5f:85:48:f2:9b:46:fd:53:09:6f:21:a1:41:
        41:97:7c:48:1e:0b:b3:53:02:72:dc:0d:7d:8b:d8:16:1e:b1:
        d0:9f:12:99:0c:c8:9e:09:3e:86:73:7b:38:6f:2c:03:8f:6d:
        46:63:af:69:dc:71:de:a6:a4:7c:32:ac:9d:7b:bf:1f:12:a6:
        19:ad:e7:89:72:64:99:87:ba:31:70:0b:0a:97:7c:8c:b2:22:
        81:02:d3:4b:f3:e5:9e:12:fe:1c:1b:71:5d:4b:10:ca:1c:b2:
        07:46:0d:87:c7:bc:09:74:35:de:ba:59:15:22:40:7e:7f:dc:
        f5:f0:88:b3:df:94:75:a7:b1:9c:ee:74:95:96:20:3c:c3:27:
        52:1d:6f:75:c1:fc:7e:57:28:95:4f:5a:94:94:a7:44:1e:70:
        56:88:51:df:1f:c9:76:ae:9e:ec:a0:c3:ec:ff:2c:5d:be:81:
        91:c7:de:54:06:ea:cd:d2:51:76:2d:c4:0f:6e:3a:fd:e1:17:
        92:fe:74:29:ee:b7:dc:b0:61:f1:3a:7b:7a:aa:ab:eb:25:ec:
        c0:2f:3d:81:62:7a:71:b8:34:3f:01:4e:24:13:7d:1e:d3:3e:
        e3:d8:f4:9d:23:49:ca:24:52:d4:7c:09:5c:b4:dc:a9:00:e0:
        11:4d:4d:1c:e0:39:63:97:c4:a3:61:8c:52:82:1e:18:29:10:
        75:47:9d:31:cb:5e:b7:7f:e6:42:c2:0c:ab:58:02:72:a8:5e:
        1c:87:e7:b1:7a:65:c0:6e:68:d0:99:b7:2c:09:69:5d:f2:fd:
        ea:bb:42:9c:c4:3f:21:b2:ee:98:b9:53:9c:38:6f:d6:02:8f:
        6a:51:44:76:dc:e2:ec:58:5d:17:46:37:48:39:b3:2f:7e:2c:
        60:ea:02:45:b8:ed:dd:dc:44:0e:27:93:e9:b9:8a:10:4d:a5:
        7a:cf:95:e9:24:c1:4f:79:ad:4c:90:f3:26:e6:0c:21:37:b1:
        98:fa:23:ec:fa:4b:f3:67:2c:0c:d9:8e:72:31:52:b4:d3:7a:
        b9:e3:f4:83:7a:16:01:f6:07:40:9e:ae:78:d9:39:34:1b:f9:
        48:a5:6b:49:49:d5:77:1b:00:7d:09:d1:e5:65:63:d6:92:5a:
        62:8a:05:b1:a6:7e:40:ce:78:2f:78:ea:e4:62:9c:ce:18:db:
        07:12:43:0d:cb:93:53:b9:87:fd:ae:7a:43:82:a5:b1:01:ba:
        43:40:36:c2:7b:0a:ee:97
-----BEGIN CERTIFICATE-----
MIIEYjCCAkqgAwIBAgIRAN2mVglj3mxop7rt9zBa37QwDQYJKoZIhvcNAQELBQAw
QzELMAkGA1UEBhMCWFgxEDAOBgNVBAoTB1NvbWUgQ0ExIjAgBgNVBAMTGUZha2Ug
Q0EgZm9yIFpsaW50IHRlc3RpbmcwHhcNMjUwNzI5MDUzODUzWhcNMjYwNzI5MDUz
ODUzWjAkMSIwIAYDVQQDDBlHdWVudGVyLkdyYXNzQGV4YW1wbGUuY29tME4wEAYH
KoZIzj0CAQYFK4EEACEDOgAEqwrUgJ/qRN1ub02tCAJ7JGNWjk8fIzJFjS2yuvQc
bx/DZhrZjB+vg9Dfx9EAvWy480zqqnATSQqjggFEMIIBQDAOBgNVHQ8BAf8EBAMC
B4AwHQYDVR0lBBYwFAYIKwYBBQUHAwIGCCsGAQUFBwMEMB0GA1UdDgQWBBTeioR7
/4w0PWm4U6IV5u53XvLvljAfBgNVHSMEGDAWgBTotvZ2S9A75Ual+VTUfgez3g1g
PjBkBggrBgEFBQcBAQRYMFYwKQYIKwYBBQUHMAGGHWh0dHA6Ly9jYS5zb21lY2Et
aW5jLmNvbS9vY3NwMCkGCCsGAQUFBzAChh1odHRwOi8vY2Euc29tZWNhLWluYy5j
b20vcm9vdDAkBgNVHREEHTAbgRlHdWVudGVyLkdyYXNzQGV4YW1wbGUuY29tMBQG
A1UdIAQNMAswCQYHZ4EMAQUBAzAtBgNVHR8EJjAkMCKgIKAehhxodHRwOi8vY2Eu
c29tZWNhLWluYy5jb20vY3JsMA0GCSqGSIb3DQEBCwUAA4ICAQDHJJQMKNyQ8Z89
YViKCSiBQJh3ljQdrR/usr0/YM5p/oJhZj4rGoD921+FSPKbRv1TCW8hoUFBl3xI
HguzUwJy3A19i9gWHrHQnxKZDMieCT6Gc3s4bywDj21GY69p3HHepqR8Mqyde78f
EqYZreeJcmSZh7oxcAsKl3yMsiKBAtNL8+WeEv4cG3FdSxDKHLIHRg2Hx7wJdDXe
ulkVIkB+f9z18Iiz35R1p7Gc7nSVliA8wydSHW91wfx+VyiVT1qUlKdEHnBWiFHf
H8l2rp7soMPs/yxdvoGRx95UBurN0lF2LcQPbjr94ReS/nQp7rfcsGHxOnt6qqvr
JezALz2BYnpxuDQ/AU4kE30e0z7j2PSdI0nKJFLUfAlctNypAOARTU0c4Dljl8Sj
YYxSgh4YKRB1R50xy163f+ZCwgyrWAJyqF4ch+exemXAbmjQmbcsCWld8v3qu0Kc
xD8hsu6YuVOcOG/WAo9qUUR23OLsWF0XRjdIObMvfixg6gJFuO3d3EQOJ5PpuYoQ
TaV6z5XpJMFPea1MkPMm5gwhN7GY+iPs+kvzZywM2Y5yMVK003q54/SDehYB9gdA
nq542Tk0G/lIpWtJSdV3GwB9CdHlZWPWklpiigWxpn5AzngveOrkYpzOGNsHEkMN
y5NTuYf9rnpDgqWxAbpDQDbCewrulw==
-----END CERTIFICATE-----
