Certificate:
    Data:
        Version: 3 (0x2)
        Serial Number:
            db:50:81:70:62:cd:dd:59:84:cf:ea:26:ab:1d:6e:b4
        Signature Algorithm: sha256WithRSAEncryption
        Issuer: CN=Fake CA for Zlint testing
        Validity
            Not Before: Jul 22 08:11:15 2025 GMT
            Not After : Jul 22 08:11:15 2026 GMT
        Subject: CN=Leon.Mandrake@example.com
        Subject Public Key Info:
            Public Key Algorithm: 2.16.840.1.101.3.4.4.3
            Unable to load Public Key
00E449041E7F0000:error:03000072:digital envelope routines:X509_PUBKEY_get0:decode error:crypto/x509/x_pubkey.c:464:
00E449041E7F0000:error:03000072:digital envelope routines:X509_PUBKEY_get0:decode error:crypto/x509/x_pubkey.c:464:
        X509v3 extensions:
            X509v3 Key Usage: critical
                Digital Signature
            X509v3 Extended Key Usage: 
                E-mail Protection
            X509v3 Certificate Policies: 
                Policy: 2.23.140.1.5.1.3
            X509v3 Authority Key Identifier: 
                E8:B6:F6:76:4B:D0:3B:E5:46:A5:F9:54:D4:7E:07:B3:DE:0D:60:3E
            X509v3 Subject Alternative Name: 
                email:Leon.Mandrake@example.com
            X509v3 CRL Distribution Points: 
                Full Name:
                  URI:http://ca.someca-inc.com/crl
    Signature Algorithm: sha256WithRSAEncryption
    Signature Value:
        57:40:51:f1:c7:9d:47:40:cf:ea:3f:de:93:d0:bb:96:af:56:
        eb:9c:dc:69:b5:da:ba:8c:a1:d6:96:73:7d:be:85:b8:7e:0d:
        fd:3b:fd:1a:eb:ab:b1:9e:2f:22:94:ea:9d:89:89:e0:a6:75:
        cb:a6:18:f6:fa:3e:05:77:96:8a:d0:40:61:44:3d:a0:46:c9:
        ad:20:cb:58:04:10:55:63:55:a1:93:8b:bb:a1:83:0a:64:6b:
        c3:c5:3a:96:27:5b:b0:49:dc:92:b3:4a:9b:44:db:6f:65:15:
        b7:7c:17:d0:24:2c:19:ba:ca:42:43:97:35:ad:08:46:40:5d:
        ea:f2:ab:24:55:d1:93:9d:cd:17:08:a8:ae:91:6a:27:ca:b0:
        99:0a:a2:d6:74:79:4b:47:ee:0e:08:40:80:69:7e:e6:7a:0f:
        7e:a5:66:8f:c5:f3:11:b2:ae:db:bb:ec:b7:89:3e:d0:5f:f8:
        d7:52:52:76:51:40:ec:a9:3c:62:3f:a3:02:52:b7:95:4d:ae:
        69:12:01:bb:e4:fa:ce:01:be:98:41:20:a1:59:7e:93:1d:72:
        96:cc:0e:ac:66:bb:c3:c5:d3:0e:a6:d7:99:a1:32:5c:a7:6e:
        e6:b0:b9:d2:da:ce:4c:ef:6d:0a:f6:6c:26:77:40:29:fe:1f:
        8f:fa:01:45:80:0a:9d:c8:15:58:68:f3:a3:14:52:45:58:93:
        0b:6e:3a:7e:88:12:d2:03:2e:73:99:ed:00:ed:3d:e9:95:4e:
        90:be:c4:35:b9:a0:e0:1f:1b:8c:23:f0:8f:9c:bf:ab:a1:dc:
        1d:d5:eb:f1:4e:01:e1:84:e3:9c:79:35:ea:b6:3d:ec:37:05:
        45:74:92:16:f1:9a:99:e5:da:4d:17:f3:2e:d2:4c:bf:86:61:
        ec:82:f4:4e:98:c1:57:02:0c:3a:39:ce:4e:d5:9d:23:18:ac:
        fc:8a:ed:9e:4b:5f:10:aa:f0:ab:3e:cc:bf:4e:a0:0b:42:2f:
        d0:04:97:f0:d8:48:50:6b:18:ae:10:2e:9c:ad:0f:22:ce:85:
        c3:42:3c:a3:3c:81:5e:28:4e:a3:7e:b9:80:f1:74:92:cf:f0:
        76:31:bb:85:fb:5f:46:81:59:e9:18:93:4f:03:8a:f7:b6:16:
        0d:59:5d:a9:37:ad:da:89:96:30:e2:ba:c1:21:2f:48:a0:93:
        31:6c:8b:19:72:9c:9e:c9:34:8e:41:83:9a:03:31:a4:a3:2b:
        71:c5:ec:f4:32:1e:67:c5:09:e3:c1:97:bf:7d:1d:d4:b7:17:
        0c:02:60:bb:88:e6:8b:2c:d4:17:31:46:88:bd:ea:1e:87:b3:
        b2:8a:ed:7c:46:18:29:fc
-----BEGIN CERTIFICATE-----
MIIJmDCCB4CgAwIBAgIRANtQgXBizd1ZhM/qJqsdbrQwDQYJKoZIhvcNAQELBQAw
JDEiMCAGA1UEAxMZRmFrZSBDQSBmb3IgWmxpbnQgdGVzdGluZzAeFw0yNTA3MjIw
ODExMTVaFw0yNjA3MjIwODExMTVaMCQxIjAgBgNVBAMMGUxlb24uTWFuZHJha2VA
ZXhhbXBsZS5jb20wggYyMAsGCWCGSAFlAwQEAwOCBiEAzCBUG/ui3csWhvNS1hoM
mPiB4ppAiUespqfIavRfopMsHvp3nCIjauMuiiqAC/gOcgkoc6lWI6t3MbOMroCg
Yzs/ufdgp1MgNCAYyHFKUvLLYmhr5eJs6UB2k4QvX/cEYuYIFFR/0iGsGFs/eFB+
OyyMnTdM2dBJp5E+YYyYAaBMwTqqsyBarWqtY/gO/EccwcuKzdwIYxcJdjJD6FrH
c3Vcpolk1fksZtpQKkSbKLOOIOWZoxkS5QrFUhlnlwhiDJytlcWwTVkUSeDI0YlL
nytTcdWmOemeVYUYfJnKXUq2L7EhTxFZMeF4cYGIsHcy+dUIs4UQ7Vc1HDC7b2JX
9xta/pRIj4OZShSEH9ebxPvL3VCQZHfNzvY6oExO1YssmImd9sBJ7tq6iackxCy9
ugCFKfRe5+NuY1M6MlAChoVlRJC8ceYZD7XNeli/4+szcwB4GQBP7WSCY/e5gKwZ
fiW3fEs2xodzHrpdgfnBpIIzIncjLKZHllvBlucBEAWC3DyTHABtvWlkj9tVY9xL
KFtxINihCWuZCpU9xhCr92AhbOoLMbchaBR8B4GG6gGMuIRnqZFjXfp0S6Ql7Nyg
lfog5YsqCkkIBnRW66RcvEeT/EgcoWU5CSw+v/UwzfRABYU/UTVvC6SRDEljBPEY
+okHkNklL8tY/WNmZOnN/CwMqQEJC/q3U2ez2sNJldZzjuBrVGtItkRVPhgEbhlA
MQoWGIliEVA88NKaKTWvkCKbfoEhdlunsosVSUtjgis83RauvdlQUEOZA+Uib8Q5
QnZ7ZdFUaxYpH+Ibq0ZHbfQH50pL9qWHEIER/4ELXueetUCgLcgj0EkO5/WvuAxL
93YLDwwYjzWIzwGeNSRSZ2mwkAVfrNsDFdi3+1QFVbBUiRkL1BIRCTCiitvIcytc
tbFLiyu6SvOcjftvQ3YzApq9EraoEydZJowA/PaVDVs50pC5EHlHQ4KDRLWG4DVd
Q9KNKEU74piDAjQ3S+Fk2HDFN8WTYPEMsbwG8DUw3msPoGeNhsd27Ot6ZmbGsKK7
EdvPVSZAhOAqkNxSfsFzlJSmqZIQaFkTbfLDYlAT0PKAdxIEhuzP8UHC8oRJ/UE7
l3kK6BuGCRsyXyiXgziwAWytZYBV/CrC92xvKRJU7vd6FVZSqXSec+OSb2VhZFd7
E9l3DvWtzcJqHBVjiYiePiBqooZASgtP74DLX8dQS8SxYRMDMOAXb0NI3kcSmJXK
aXIwHYmNMNinpJByj2kZuldKGrPISiqN8MYo/2em4LrOj6rJ/FhO1KpAz+wcKIaQ
LrRifGVsxdI1o4kY1Qa92sGVqapsQrJuypEndEowXYYojysltzVDp7ur1Esvensh
8agxsYte6hWU28bPPnye5xJzDIGCgoQ7E0MADthud0yO/VA/GnyP2RkBchU/DVCr
BPyHkjim/0B6msMOJMWyBCKxBqswsrBklZQbEFx8ZxTBa9Cp+hRCh4ced3hrXqpJ
6zQ8t4auRdGXOQd7ulLNP5IFzoG1FbNT6NYCNIAj6KyzrgQjFhgilWkl3hYa6Cg2
xlPJ8/U3fkwvKnuX+gAADXyZo7k94qQYzNHLVolGXlO2wwtd0XFDS/NeYneBxNiP
DBt8sDBO1Zg6WSRNdRhafzw/MIBUiCqsp7aDx5meLxmLIxhZTmhy4OmeqgE8oEuu
42kQUYRfGjQdhmR8eNcs6GK7WFoLxru5k3BiW4uw4FmZIZKt8LYUfcPL0mywBgtC
gFsyoANJ+fJqOwbAFbonswEH50RTFHEkyFGC5VkYj0ycQBGZihNLUcrAAEiYU2RK
BOcF/tRQrxBTX0BWTHNQSIKBJYeXG1sSNOKqK4dJBhp9OwM7ZggQHrkQYsZjo+Ax
rMp60JI6A3Qe+gtXEXReaFQIzjedqepfoXkhwLILfUE8g0OJQqdusllG6mZynWa/
7RoacjJYgXI6wSSkOcpOtTOFX3YYkup1hMdfIGAjp+VcWMOxOvuoqbIn6pta3/Cd
7AtDhuWstYYzh5k2hWGBaBWTwglIvpMXRHVquBaEu9kH0mZje3xNQBIBZx+GO4M5
X6Xy8OOk3gb9DKBq5blBy6GjgbQwgbEwDgYDVR0PAQH/BAQDAgeAMBMGA1UdJQQM
MAoGCCsGAQUFBwMEMBQGA1UdIAQNMAswCQYHZ4EMAQUBAzAfBgNVHSMEGDAWgBTo
tvZ2S9A75Ual+VTUfgez3g1gPjAkBgNVHREEHTAbgRlMZW9uLk1hbmRyYWtlQGV4
YW1wbGUuY29tMC0GA1UdHwQmMCQwIqAgoB6GHGh0dHA6Ly9jYS5zb21lY2EtaW5j
LmNvbS9jcmwwDQYJKoZIhvcNAQELBQADggIBAFdAUfHHnUdAz+o/3pPQu5avVuuc
3Gm12rqModaWc32+hbh+Df07/Rrrq7GeLyKU6p2JieCmdcumGPb6PgV3lorQQGFE
PaBGya0gy1gEEFVjVaGTi7uhgwpka8PFOpYnW7BJ3JKzSptE229lFbd8F9AkLBm6
ykJDlzWtCEZAXeryqyRV0ZOdzRcIqK6RaifKsJkKotZ0eUtH7g4IQIBpfuZ6D36l
Zo/F8xGyrtu77LeJPtBf+NdSUnZRQOypPGI/owJSt5VNrmkSAbvk+s4BvphBIKFZ
fpMdcpbMDqxmu8PF0w6m15mhMlynbuawudLazkzvbQr2bCZ3QCn+H4/6AUWACp3I
FVho86MUUkVYkwtuOn6IEtIDLnOZ7QDtPemVTpC+xDW5oOAfG4wj8I+cv6uh3B3V
6/FOAeGE45x5Neq2Pew3BUV0khbxmpnl2k0X8y7STL+GYeyC9E6YwVcCDDo5zk7V
nSMYrPyK7Z5LXxCq8Ks+zL9OoAtCL9AEl/DYSFBrGK4QLpytDyLOhcNCPKM8gV4o
TqN+uYDxdJLP8HYxu4X7X0aBWekYk08Dive2Fg1ZXak3rdqJljDiusEhL0igkzFs
ixlynJ7JNI5Bg5oDMaSjK3HF7PQyHmfFCePBl799HdS3FwwCYLuI5oss1BcxRoi9
6h6Hs7KK7XxGGCn8
-----END CERTIFICATE-----
