Certificate:
    Data:
        Version: 3 (0x2)
        Serial Number:
            8c:12:65:f8:7e:46:57:4b:3a:5e:b9:64:25:a0:66:1d
        Signature Algorithm: sha256WithRSAEncryption
        Issuer: CN = Fake CA for Zlint testing
        Validity
            Not Before: Sep  3 08:27:19 2025 GMT
            Not After : Sep  3 08:27:19 2026 GMT
        Subject: CN = Leon.Mandrake@example.com
        Subject Public Key Info:
            Public Key Algorithm: 2.16.840.1.101.3.4.3.19
            Unable to load Public Key
127766974366144:error:0609E09C:digital envelope routines:pkey_set_type:unsupported algorithm:../crypto/evp/p_lib.c:210:
127766974366144:error:0B09406F:x509 certificate routines:x509_pubkey_decode:unsupported algorithm:../crypto/x509/x_pubkey.c:113:
        X509v3 extensions:
            X509v3 Key Usage: critical
                Digital Signature
            X509v3 Extended Key Usage: 
                E-mail Protection
            X509v3 Certificate Policies: 
                Policy: 2.23.140.1.5.1.3

            X509v3 Authority Key Identifier: 
                keyid:E8:B6:F6:76:4B:D0:3B:E5:46:A5:F9:54:D4:7E:07:B3:DE:0D:60:3E

            X509v3 Subject Alternative Name: 
                email:Leon.Mandrake@example.com
            X509v3 CRL Distribution Points: 

                Full Name:
                  URI:http://ca.someca-inc.com/crl

    Signature Algorithm: sha256WithRSAEncryption
         2c:fa:b3:38:43:15:12:58:fb:b5:e1:f4:36:73:e3:f1:29:df:
         4f:6a:46:4a:ea:e0:2d:a9:da:3b:fd:80:85:89:c0:fb:8c:bd:
         21:1b:d0:c5:7e:50:0e:c2:28:19:7e:b3:d0:50:99:a6:de:2d:
         25:27:59:3c:2b:b0:3c:68:6e:8b:2b:36:ab:bb:97:de:fd:d0:
         d5:79:99:59:71:35:e7:f9:27:03:81:60:19:31:7c:8c:3c:05:
         a1:bf:ce:d6:d7:63:be:a3:ef:ce:6d:77:d8:91:1a:88:19:ba:
         cb:83:73:c8:97:a6:ab:d4:4f:b1:05:90:fa:78:20:05:d7:68:
         d9:ac:56:07:23:6b:e4:c6:56:0c:0b:4e:21:9f:2c:74:48:0a:
         ba:b8:6e:05:7f:74:c2:70:e0:f8:3a:cb:bc:d3:a0:46:f8:76:
         63:b0:14:54:3c:d9:2e:e4:5e:e1:82:92:b8:7c:77:8c:e9:01:
         2f:54:15:9a:19:bc:de:0b:54:3b:86:b3:70:5e:33:4f:d6:ee:
         49:0b:3d:6b:60:44:4d:24:75:88:2a:68:2a:ba:a8:7f:4c:64:
         90:c3:fa:aa:1b:fc:40:df:fc:ae:04:23:36:63:e1:09:13:a0:
         4e:a5:38:82:9f:56:1d:7c:f0:7f:71:50:0b:d5:2d:49:ec:dd:
         8b:9c:7d:5c:96:43:8b:62:4e:05:d8:42:ce:ac:cd:8a:d0:31:
         98:66:be:8e:aa:e1:80:97:b7:24:ed:3e:8a:94:f7:80:55:fb:
         1d:d6:99:2d:7e:aa:2f:1d:00:0a:3b:9a:9d:ef:d6:9b:81:75:
         6e:ee:df:33:3c:17:fe:aa:83:93:bf:3a:43:65:bf:2f:1d:93:
         71:10:5c:5e:53:0c:54:33:b3:bb:b9:12:0c:f1:2e:37:9d:8d:
         95:31:8c:5a:8c:73:a9:06:9e:92:91:8b:2b:c6:0a:e8:55:e8:
         29:42:a8:75:ab:8f:47:ee:e7:64:01:3c:9d:1b:39:42:c6:19:
         20:fd:8f:a8:00:24:3f:e8:9a:98:77:96:87:62:bb:f0:ff:8c:
         2d:15:2b:24:93:1f:74:03:62:41:3d:21:b1:a4:4f:17:b5:1f:
         16:7b:90:0a:7b:50:d2:a6:06:6d:47:b9:63:30:fd:fe:06:fd:
         19:8b:04:e3:de:83:b6:8a:c8:79:7f:39:1a:6f:93:eb:62:fc:
         62:ed:3e:c8:bc:5e:78:cb:10:cf:88:70:6e:72:fe:8f:4b:89:
         90:3c:f8:ba:74:c5:d2:f3:8d:3a:83:d7:11:78:d7:65:4d:8d:
         a1:81:6f:fb:a5:fe:f0:53:eb:2a:bc:3b:ab:fa:02:2e:a5:3c:
         b7:62:61:da:ab:a0:b5:d7
-----BEGIN CERTIFICATE-----
MIINmDCCC4CgAwIBAgIRAIwSZfh+RldLOl65ZCWgZh0wDQYJKoZIhvcNAQELBQAw
JDEiMCAGA1UEAxMZRmFrZSBDQSBmb3IgWmxpbnQgdGVzdGluZzAeFw0yNTA5MDMw
ODI3MTlaFw0yNjA5MDMwODI3MTlaMCQxIjAgBgNVBAMMGUxlb24uTWFuZHJha2VA
ZXhhbXBsZS5jb20wggoyMAsGCWCGSAFlAwQDEwOCCiEAjpHNGhLbBG0ZoGo0ARNz
qYvR6TyL6woo7H6FEs0BlPML0fU/7+j71vqM0cwEWmtvfvCqOR2JqWzwM7w6Hw+H
kTkNwVOUFoknhKU4lY44CgUGPk1B9YfnDaGqCCCQ5Imx0P90AkzcVlJEIzc3uvyV
pfzJIMJBAWQ1axzxdz7Pi+ySoVqPRLDqXkGCnMu9z0C1V8cYntgGaC8h30rqA6JQ
oNmPBfTpZLcsOzq3WBctUEApNdXbHESqY6i9FK8SEd806z0gkHULzwyRP4NkZbMX
O7q4pTl2gJc2stN3ZJYrrRD5BKvsfMRwSi/Mt38ljpKjWVvK1FYB2rv2P1rjwX10
Q7iqPsEQqOkZlDCmzxeC40sjChXOfeAe8YN5GoYbFaOauPfmkKTmrXRylOoYvD38
cYLdK7rXNZ6OEyKOUl2dMl/3+VUFqIudxsxzTTwqqftixbyTPt97ynX80Pmx2HUH
MYZyfm2bYO0Eh9KPAC4lVziU70cdX/mrNgJ/Xx8UrzvGEHr6D6L6QRf93qk0FQp2
LYbrOLbX/AumbC4nrDgSMZnICfGIa9RXuNdVxhtNqLqNXz5Mks2h2e5vPNL4ucNG
9PGpdU/ZI78BWs2P+4IcPnC+ncuDM8InW6tKA9bsoXv/vlMTxGYk2jLMom0TQUKb
qDw0Hq4w4ST4exQPCGT6l+UgwRzevZRGPvHYiDE3t0LFIQ/jFzBPrxLfg4JMJbqi
rEhX2bu3yUXlxYudzu/EVW/Q5vE0UCPo0og1I7sNxAbipN3FE7zQ7oZXz17aeeqa
5SkLCeW13GVLn9LPBN2OqM0lD2+SH5qsYyuUe4uXOzPkRHQ0wF6+SpJt892+dcx9
e2CpXZguODb12bjL57ZyqFx2GENjTCql6ba7ZkERoHNkHqRHZ5kISmrkcl13CuCD
zoRh5N9tg6f1zQi4TELfa/EQRTi5NcMY8CviRwV9fCe6mTxSCZbQpmEnHvWa3U0Q
5sJTntfM0EheLTZz5HaruNAi7YP9LzqhHZ1amfLHsREzfmKFm8ll2RLz5u4z8j/g
VYx6qdnfwX3gJftNGHdFYEhPATjLp6t8ADvVtcoyo4jsvRJ/iBYW9tyOw85DcEij
9iB87UFxsAOCVFWe2Ywt8EJWwnaAkjA5RlApnZk/z0cAgJlyYlptMEAlaCkpQCCc
bGEdMRKo/F4IMz4p4JgWFaEWMlBjom2uwpEmvryCqc4FBHEEgba1I5E8hRqhViHs
4RfeTzno7cuDl5S69g/D/ZPGxu9zI02t0IDUmGslyOOnnlCsdHmXpEZrmhJBSgGI
9D+cljkRbSHHd4xXsYwEGiVwOEbQgMTs4UBKn2BIQK5yOvz0mESKfKs33Won2xvC
Lig7G0KhCdGOaHbfZZb1fRObp819jMLWHSFgfULyzeyQDMMnbQ92rE/lQTlMQWkr
Ps8w0SIe1RvNKKif1z4vH4DEse4dUvEdfKqsHxuKO2sUdqexIZp55dPyRI7A+63o
GBMWjfBx3GXJG8JtJLd1j+B8NU20kL8DyHRP6zaMJDJJPEseGnz7FN69QG6YhQYf
LLCckgv69iSGkLBfcE9okS+chCdx4O4zd/OWsBxAtjPFv3hyq9JxmDosb6TqHDuj
6WrvUUuLNjc8av1cQG3euPF00ScCgXRjTQ9Y+iVsVvZZFIY2JtF03PQLrZp18Vmx
MuHRCib3u9spxRbcEjklrs89GzsgofdODQgGWElTQJobMYnH76inVC4EQIuRKkAl
KkagteL83TZROFBYJjqQbbcG3KUeX6/LV7DQuiror/yuVnEPgzqhW1rGsg/4tijt
XQGtUefitHVUTRGYQJwt+SETwGKS8HIS0BQ1ryNL8jxeUGH4U4Nayva4aIJGRA6d
zoKsMT2gVgmhpr35Kdit37dp7fYs1dEi35VUyGGZB2njoVIpuReE3bPy+jQWrz1C
V/4jA3oWAu8Gp25GaUgsfRA5+NiZPo9SBcs9jtga+fHx+n0iMrMPsGPEx2+Cs1QU
p06LzOrUKhgY4Ncm82BuS+VSMTDscDHgVdamfbJUEBpX5WpZ9lGDD8s7Sr5/jCHz
CB2udh6t0bE8ZDYTZReM0LpzPRPKG8Z4VIF6hvMeiXFB1GUHNboN0tTZGDe3OitZ
F5Cv9hfSW7m+4WA0YsnuCvu3T29wd/RJ7nqwYBVKYlBHeI2tuHvGhzun2jNRy32M
QvxHpxgN8QBLQda5Cmcpm8nB/ab2t/CSvBYGkMPO9mLJRxjEOUZGh0nlCRhfkSIq
PcYucWvBCGWGfxUJ0O+qBX1aBlJ/DwDSCQ3SuW60S1xneWOvnLUNDrW3jQJg9cRz
zEliA22I0UTfv5PZ74jwj05rxmEkmyapzcC/YMQRlB4XX6Tux72Ev7F3HJPG+rO7
eiOnCGUK5lOojoyr7YKpUMoid/+DaQwLbimGLrUD5tAvGlTBRH7p/Pw6OUMILStM
iphANRnFgyTwobFB/PvcqvvoHyMExxEjYPzMtVj0qo+JaDMvvH1Mr730q17zF0Bx
XMILUht5Cz2JWAJojlIUFBL7PDlC7k9O7SZKJaFDUuP38Av5UKTdWCt/3CaE/Ku7
omLO8mWjojDIMVBLPmZ6uP2i3nKvTw7ubIVp9pOGTnBPXdICvTV8whIW1EQhbUgB
DyXic7gr+rqvTX9pcMDEImMddb8KvbWhiSLQpl5VBjzg4j3MNnjbw/sYbJwREuYY
BoUGlVd/5rKyMOMIA0EVC/7QQhbh9GKB49odCNQc/9WGAKIMzEn/x4s4Z44mChN3
mCN6gQkvE4FgG7bxNAAH3dQjcJTEHYv3nXW1XasbqzFxe943OAeEkXO7Zj1t0rNC
jq4aRzQOTrhMN3DIXyIKO/N2SJgA9XOteHYSHcHqmv6VBHscoClJktn99Xg/1BNU
N67QUe+B7WJdTp5XTSmGJoGTEedGfTeaceartPCaA0KZGhNvwVA/cd1FCcuhOAxI
zOp5b9pHYQHl2Pg/tTXK/6vOPQUEy9aoTPAzKOVtbYe0Av/u2osKAcUvpJZz89MV
VImVNAK8dk5zAaNT6P4F0C4mrqdcwKiqpoDiS9DSgAtB9nujTcEmtoa0dfES4s6S
tyTjHQcIAWr0AJ2D4lpioRkksHC7qEyLZj7nLg15K4MMDuWCfsaZvuHC8r/eMx9L
CMnzSb/5Z3yWNXpInPTCLxhY1UEhqjRfS6GU2xBYkELszfq+EzD5mVCCzuFJNt00
OLpeesywH7w3H1w0kB7QUzYOY8uhwsRDJJk4k0VFPNbR/wIAgqJUdiV3SOLpxpVQ
4jzABmTVDJT7iUqY6Dsp6rEhYGSYNr2gpyZvKZyZDo7Qu0jgqlT3sSpp4wPjFoTS
3cRYIj77dh7z/BkJAlGoD1Qg4EE2rBx9OtVOn0dg4AomCOAENWFMgC9lWyV90uQg
IGh3paTIqNvBEttgu2lyyHEifiLKrBFSr9NwmHRX77jdo4G0MIGxMA4GA1UdDwEB
/wQEAwIHgDATBgNVHSUEDDAKBggrBgEFBQcDBDAUBgNVHSAEDTALMAkGB2eBDAEF
AQMwHwYDVR0jBBgwFoAU6Lb2dkvQO+VGpflU1H4Hs94NYD4wJAYDVR0RBB0wG4EZ
TGVvbi5NYW5kcmFrZUBleGFtcGxlLmNvbTAtBgNVHR8EJjAkMCKgIKAehhxodHRw
Oi8vY2Euc29tZWNhLWluYy5jb20vY3JsMA0GCSqGSIb3DQEBCwUAA4ICAQAs+rM4
QxUSWPu14fQ2c+PxKd9PakZK6uAtqdo7/YCFicD7jL0hG9DFflAOwigZfrPQUJmm
3i0lJ1k8K7A8aG6LKzaru5fe/dDVeZlZcTXn+ScDgWAZMXyMPAWhv87W12O+o+/O
bXfYkRqIGbrLg3PIl6ar1E+xBZD6eCAF12jZrFYHI2vkxlYMC04hnyx0SAq6uG4F
f3TCcOD4Osu806BG+HZjsBRUPNku5F7hgpK4fHeM6QEvVBWaGbzeC1Q7hrNwXjNP
1u5JCz1rYERNJHWIKmgquqh/TGSQw/qqG/xA3/yuBCM2Y+EJE6BOpTiCn1YdfPB/
cVAL1S1J7N2LnH1clkOLYk4F2ELOrM2K0DGYZr6OquGAl7ck7T6KlPeAVfsd1pkt
fqovHQAKO5qd79abgXVu7t8zPBf+qoOTvzpDZb8vHZNxEFxeUwxUM7O7uRIM8S43
nY2VMYxajHOpBp6SkYsrxgroVegpQqh1q49H7udkATydGzlCxhkg/Y+oACQ/6JqY
d5aHYrvw/4wtFSskkx90A2JBPSGxpE8XtR8We5AKe1DSpgZtR7ljMP3+Bv0ZiwTj
3oO2ish5fzkab5PrYvxi7T7IvF54yxDPiHBucv6PS4mQPPi6dMXS8406g9cReNdl
TY2hgW/7pf7wU+sqvDur+gIupTy3YmHaq6C11w==
-----END CERTIFICATE-----
