Certificate:
    Data:
        Version: 3 (0x2)
        Serial Number:
            19:d7:b0:b7:22:2d:45:ef:c9:bf:8c:f1:7b:23:26:d0
        Signature Algorithm: sha256WithRSAEncryption
        Issuer: CN=Fake CA for Zlint testing
        Validity
            Not Before: Sep  1 00:00:00 2025 GMT
            Not After : Sep  1 00:00:00 2026 GMT
        Subject: CN=Leon.Mandrake@example.com
        Subject Public Key Info:
            Public Key Algorithm: 2.16.840.1.101.3.4.4.3
            Unable to load Public Key
00646A340F7F0000:error:03000072:digital envelope routines:X509_PUBKEY_get0:decode error:crypto/x509/x_pubkey.c:464:
00646A340F7F0000:error:03000072:digital envelope routines:X509_PUBKEY_get0:decode error:crypto/x509/x_pubkey.c:464:
        X509v3 extensions:
            X509v3 Key Usage: critical
                Digital Signature
            X509v3 Extended Key Usage: 
                E-mail Protection
            X509v3 Certificate Policies: 
                Policy: 2.23.140.1.5.1.3
            X509v3 Authority Key Identifier: 
                E8:B6:F6:76:4B:D0:3B:E5:46:A5:F9:54:D4:7E:07:B3:DE:0D:60:3E
            X509v3 Subject Alternative Name: 
                email:Leon.Mandrake@example.com
            X509v3 CRL Distribution Points: 
                Full Name:
                  URI:http://ca.someca-inc.com/crl
    Signature Algorithm: sha256WithRSAEncryption
    Signature Value:
        3b:46:a2:b3:fc:e3:d7:51:62:3f:fb:cb:e1:ec:23:66:fe:5b:
        b2:56:95:d3:1a:a7:8b:a3:8a:86:e2:69:77:92:c5:31:03:a6:
        ac:13:30:5d:4b:45:64:f0:26:b5:79:71:7b:7e:d4:1e:ff:cf:
        aa:a3:65:f8:d4:c1:5f:86:47:7c:25:89:c7:ee:d3:69:c5:22:
        34:02:e8:b5:7c:21:8f:6e:75:e0:2d:06:07:a4:17:8d:59:e2:
        11:d5:b5:cc:5f:3f:4a:90:b0:54:50:c8:1a:f3:c2:3e:24:0f:
        58:25:cd:ea:3c:c0:0d:da:26:c3:70:12:27:a8:8b:93:39:a3:
        e2:4c:86:69:4c:ac:f5:de:e6:e9:f8:52:69:ff:82:22:2a:35:
        00:9f:b1:e7:e6:0c:3f:f5:4b:f9:d6:e8:4a:ae:be:93:04:81:
        2d:91:ae:0c:c2:ff:e5:e6:d4:4a:9e:88:1f:b9:6e:3b:8e:d5:
        8d:27:6b:3a:f1:7c:22:a4:4f:08:e9:42:a7:1d:b6:4d:0b:c2:
        a4:87:4d:b3:38:fc:b6:63:bc:36:5b:94:4f:ac:e8:7f:cc:16:
        4d:5a:01:ae:e3:a4:82:b7:4d:88:4c:58:00:02:bd:bb:d5:10:
        3a:18:47:62:b4:16:4a:6b:00:3a:bd:a3:6b:5f:d4:1e:6f:d4:
        a6:8d:29:9d:ea:5e:a9:71:01:8c:4e:e1:80:5d:a0:49:dc:81:
        82:84:b0:a5:94:85:a9:64:94:0a:3d:17:95:39:1f:09:0d:c4:
        a7:99:7b:e6:25:16:c5:30:10:3a:a4:da:ae:82:4d:87:7c:02:
        80:f1:f0:c4:67:47:5f:b7:8c:8e:62:24:62:75:e3:22:50:1f:
        ff:80:41:24:34:5c:62:fc:05:ae:04:e0:cb:e1:a9:be:c0:61:
        9e:fe:d2:f7:94:98:db:0f:be:ef:3b:e3:35:0f:3d:a2:bf:83:
        da:9c:02:30:af:44:63:7f:9f:51:26:b4:95:05:3e:92:1e:bd:
        38:03:58:17:87:16:ff:96:be:71:7b:e2:1d:de:b9:95:35:b6:
        6e:ee:bd:8a:65:b5:d0:94:2f:5e:7e:9e:f6:2b:d8:38:81:f9:
        08:03:7f:a5:31:ee:3c:eb:c1:b6:e4:b3:71:a7:cc:28:e5:8f:
        66:2d:a2:a9:4d:73:01:4e:ce:7f:9f:cc:b2:16:df:e6:0f:0f:
        6a:fe:52:13:ec:15:9c:ae:0e:71:55:96:64:13:25:42:79:0b:
        84:77:f9:35:5a:67:ff:50:a1:6d:ca:38:2f:4f:3f:96:93:35:
        ad:2b:cb:fb:a1:e4:43:ee:66:2f:49:0d:53:d8:a1:b0:21:07:
        ad:6c:11:85:10:e7:5c:76
-----BEGIN CERTIFICATE-----
MIIJlzCCB3+gAwIBAgIQGdewtyItRe/Jv4zxeyMm0DANBgkqhkiG9w0BAQsFADAk
MSIwIAYDVQQDExlGYWtlIENBIGZvciBabGludCB0ZXN0aW5nMB4XDTI1MDkwMTAw
MDAwMFoXDTI2MDkwMTAwMDAwMFowJDEiMCAGA1UEAwwZTGVvbi5NYW5kcmFrZUBl
eGFtcGxlLmNvbTCCBjIwCwYJYIZIAWUDBAQDA4IGIQA+tb4t51fMtUNn5gECEgzf
9hIZcTlLIIWegKiL1x6a4bIJI4wuyiT30a5plDac5L4le3TjFxIvU88E7ERaW67j
4wUFiQBl+Ln84RG3nJkwMHUGkJaCh7i8tZm2lQr214oNV8oleRrSq4ScOoZoEVWz
ej2mJ0EoI2fy424oxqFC04wCcr8X87VlU5vKS0O51MMWOxwCCqVuo8TgUL9SIUs+
l2Hkysabp8WctDrN6LiCfEK2VSWFZ8VP4QCw0WIIIww5IBQ1vI8wEhOIm6QtISpW
Bz+6c1YSXJgT2xXrIhRemVlZ+au6e5B9wbZDEBC0zAPwAIpk4qfd81wfxy6dKhB3
RI/WUhbjKzNwZIeiBsNzd2iP+6DGrJ7zmWk2WwYZSarNCs0XVDm0vFf5TJtMEAmX
sKzE+6NFGA8Fa3X2icogum1tqYz/+D8peFE0IVY7jKS9eH51ZwBzgJJF9AkVu7yH
x1q3Z2M58gFCl0i9JjGTy3Vfq3odc5sYqkgfUoop4xUdGWE0yq0YB4PvGbz3y2/D
WlYP8zEtVAct5ADEKmAz6E172DVGmHpGNVsdWYYtSGIYLGttHDaX6IMNdmLg5yXv
CMYKKagxWyPTw4FbSigZ03m62ZlCUqLiYJmoBEj/LHgz6UDSIbd14SIksnpxsFHu
CqAEUqGOl0s2gH0tOJbt3EpKhwqB8kdEcGI7yi5TpXr1ABHPh8Za235ihDWcuynE
kicuxo7v7FuYBgd41p1o5C5zIrTPdmSESWrUEm9dckvGUaALK5n1Y5nIwCxSQiUp
wzXNNxmNVRFZmqU2SnAzaWdJZG/8rKRp4HQEamHR3KYjOwG1kZN28S9vdI3UJrvP
12SAOEXh8WZaqjAx9nn5oijOF5i1rE+spCWrySnJ5UzdCIw7ZU+y6aehMD2uhzjB
xYIqgMlszFTXrEh9tb9fSc+m408Hw0iB0xypeBTidx+8K1fgIMvG1Kj9two4NcHq
onHxzMt0pMmpNWzo9D2NEjsOYzSDsXFLwo/x9ajf6K51cjxKoruyY5n0Ca6HOW3E
50upcKh7DKXo96BZvLAB6MPF5pU/YsOOkZ/WiRMjtGxkcYFIZAbJ0amJJjVkM1cK
zHcjJHTFdbZo3BjJEl5/yM7hAapqwSefa5SBwG1kpZTeBBeiwmlz6AjjMQ9Xqn9B
gpbKYS4T8JVOMhyDCM5VY4JV1lLvOHsVrCyguG3wocMXclHGOLgZcc0NgmDVBato
pWvXdIfxJC2ApiOV5E0qpr9XVQMxOmXVslxc5kNfJGLiVJ/jeQx3K0PBeb3ElkE7
xILcE8MTyj+jrEkCqkEok8pMk3fyglnpE10DkGkmI0TzpUfLaixRoHo/lRSSWQ0B
+mP/1IibjAL7uKdYgZw5Srdh1kFUS5sZFYgf8Y7VcG8JCclmuc3N91rDsYdYgiPN
i6MrKomyUrj3vLQJvB0M0U4d9yJT0mlHFi3V4UEsBqk1qg3MoM3T1Fav0l7qQT0N
pGf/EQQ090ZVs1jXgq+AxAI/xJy3G6zjWcYEU3XDElo6wVIcZihfISb1sIhvOcfE
2CzGAJIpfBShwcqYWJ7ua1YsQllY3A/ZoICek2L3gU1HIsrWWUfJYqHzsRc684L9
MXMlNV7efCjMaxJpp0Cf40KLZgE300lKdzsaWI8L86QTiMdaqGYF9k7/cCdJdV2l
IQTjNyaek8e4ybbIQVm7t4NbWbvbS4t61LqK7B8UCmGGKYJHAotJTIKMR3R/SXI6
oCD5EydCunNsdI1gFYi4Qw5eYTy1nLuE4XyZq7dWQZRysX5KqmnDGMxt53oMhou0
N08ZAA8C6QDOk2MchWtuIXdW4w+jmZFuJL0cMV3NWhApOhGx4bJK+CPPOJmpKgz3
GMMWliFCJk/0dYI+qpb5yxbD5adlAsmv+Mv6Rq0Tc5WJ5w4fkgriJjhORJEIicuS
y1qNqSHpQ4jApa4HYDMhlYV3l7ZZoDwwVX/Ep2mfTEoEGQegiJIY6Era4YCtSanj
BxgdcU+swyLap2p/Bx6VXHE7sRRk8rUickqpE7tItwE4ZYMnYh/EovCxq3ycqYLn
kH+i1FHBnHHpHyhCK0Npm6OBtDCBsTAOBgNVHQ8BAf8EBAMCB4AwEwYDVR0lBAww
CgYIKwYBBQUHAwQwFAYDVR0gBA0wCzAJBgdngQwBBQEDMB8GA1UdIwQYMBaAFOi2
9nZL0DvlRqX5VNR+B7PeDWA+MCQGA1UdEQQdMBuBGUxlb24uTWFuZHJha2VAZXhh
bXBsZS5jb20wLQYDVR0fBCYwJDAioCCgHoYcaHR0cDovL2NhLnNvbWVjYS1pbmMu
Y29tL2NybDANBgkqhkiG9w0BAQsFAAOCAgEAO0ais/zj11FiP/vL4ewjZv5bslaV
0xqni6OKhuJpd5LFMQOmrBMwXUtFZPAmtXlxe37UHv/PqqNl+NTBX4ZHfCWJx+7T
acUiNALotXwhj2514C0GB6QXjVniEdW1zF8/SpCwVFDIGvPCPiQPWCXN6jzADdom
w3ASJ6iLkzmj4kyGaUys9d7m6fhSaf+CIio1AJ+x5+YMP/VL+dboSq6+kwSBLZGu
DML/5ebUSp6IH7luO47VjSdrOvF8IqRPCOlCpx22TQvCpIdNszj8tmO8NluUT6zo
f8wWTVoBruOkgrdNiExYAAK9u9UQOhhHYrQWSmsAOr2ja1/UHm/Upo0pnepeqXEB
jE7hgF2gSdyBgoSwpZSFqWSUCj0XlTkfCQ3Ep5l75iUWxTAQOqTaroJNh3wCgPHw
xGdHX7eMjmIkYnXjIlAf/4BBJDRcYvwFrgTgy+GpvsBhnv7S95SY2w++7zvjNQ89
or+D2pwCMK9EY3+fUSa0lQU+kh69OANYF4cW/5a+cXviHd65lTW2bu69imW10JQv
Xn6e9ivYOIH5CAN/pTHuPOvBtuSzcafMKOWPZi2iqU1zAU7Of5/Mshbf5g8Pav5S
E+wVnK4OcVWWZBMlQnkLhHf5NVpn/1Chbco4L08/lpM1rSvL+6HkQ+5mL0kNU9ih
sCEHrWwRhRDnXHY=
-----END CERTIFICATE-----
