Certificate:
    Data:
        Version: 3 (0x2)
        Serial Number:
            aa:43:13:31:b0:df:e0:b9:00:a7:ed:98:79:cf:dc:f1
        Signature Algorithm: sha256WithRSAEncryption
        Issuer: CN=Fake CA for Zlint testing
        Validity
            Not Before: Jul 22 08:10:18 2025 GMT
            Not After : Jul 22 08:10:18 2026 GMT
        Subject: CN=Leon.Mandrake@example.com
        Subject Public Key Info:
            Public Key Algorithm: 2.16.840.1.101.3.4.4.2
            Unable to load Public Key
00A4DDC4397F0000:error:03000072:digital envelope routines:X509_PUBKEY_get0:decode error:crypto/x509/x_pubkey.c:464:
00A4DDC4397F0000:error:03000072:digital envelope routines:X509_PUBKEY_get0:decode error:crypto/x509/x_pubkey.c:464:
        X509v3 extensions:
            X509v3 Key Usage: critical
                Digital Signature
            X509v3 Extended Key Usage: 
                E-mail Protection
            X509v3 Certificate Policies: 
                Policy: 2.23.140.1.5.1.3
            X509v3 Authority Key Identifier: 
                E8:B6:F6:76:4B:D0:3B:E5:46:A5:F9:54:D4:7E:07:B3:DE:0D:60:3E
            X509v3 Subject Alternative Name: 
                email:Leon.Mandrake@example.com
            X509v3 CRL Distribution Points: 
                Full Name:
                  URI:http://ca.someca-inc.com/crl
    Signature Algorithm: sha256WithRSAEncryption
    Signature Value:
        7c:47:90:01:3c:05:31:ad:8e:ad:1f:b4:b2:08:e9:9a:39:fa:
        9d:a1:6c:1e:0e:08:84:31:1a:b2:6f:91:45:77:cc:8b:0e:6b:
        00:54:3b:c3:a2:d1:12:4a:9f:6b:24:a3:e1:83:16:e7:c5:63:
        4d:63:77:32:5b:c1:0c:8d:f5:b6:98:0b:e3:5e:bb:bc:ef:cf:
        47:5f:12:e7:bb:d2:a9:45:a6:16:fb:63:61:31:b2:88:a7:db:
        92:75:c1:91:34:ef:c6:6b:5c:29:84:9a:06:0c:b4:b6:f5:1b:
        85:3f:f7:f0:e0:64:44:f8:50:94:89:73:df:61:6a:7a:74:9c:
        1e:07:b5:79:c6:d9:97:57:af:0a:d1:8c:06:e1:8d:56:be:6e:
        99:3e:18:fc:04:1e:69:9f:b2:3a:ab:27:5c:cd:f2:7e:55:51:
        32:4a:84:04:d4:f5:fb:23:13:0c:f2:1c:84:b3:76:92:45:46:
        85:1d:df:49:6e:df:97:72:10:83:aa:8f:49:d4:d5:5d:7a:2b:
        9e:96:15:d5:03:93:d4:41:9d:7a:87:24:07:23:db:c4:f2:2b:
        9b:51:95:ba:61:59:82:39:b3:d5:b8:6e:2b:1d:27:95:8e:cf:
        65:df:cf:c5:cf:87:77:ac:0c:b7:f6:de:51:0e:9c:b6:22:5d:
        6e:90:26:3c:de:9e:8f:74:ee:35:6d:1e:2d:06:72:44:87:8c:
        72:b0:4f:bd:2d:9c:42:d8:30:56:51:57:cb:a0:94:16:d3:c1:
        42:b0:dc:ff:60:d1:9e:b2:51:eb:8e:96:02:30:9e:3c:86:60:
        de:c9:bf:32:12:a5:05:1a:a5:dd:f1:9e:11:b2:1a:05:3f:82:
        00:c2:94:bd:6c:db:e7:e2:df:7a:5e:c4:e7:87:a0:f1:7e:f4:
        74:be:c0:24:7c:8f:a7:59:e9:a9:14:0c:19:7d:de:d3:e8:cd:
        d4:7a:11:f3:06:04:9d:ac:6b:aa:8d:68:89:41:ae:24:2c:a0:
        fc:2d:5e:8f:7d:00:1b:4b:a5:94:b3:d7:de:37:14:28:ac:ad:
        17:3a:a4:98:2f:79:15:b6:e9:a0:18:28:a7:94:97:d4:c9:3b:
        4f:d2:17:be:6e:f5:33:ee:f2:04:de:bc:81:99:e1:cb:3f:6a:
        0b:da:c3:66:ba:44:52:f1:1d:d7:2d:de:08:cb:db:da:ee:dd:
        c1:94:32:2a:3d:35:eb:f0:56:13:e5:11:33:ce:73:c3:2b:31:
        ae:a4:f3:c5:d0:99:0d:02:bc:e8:a1:44:52:d5:8d:ca:e7:b4:
        e0:9f:0d:39:ef:af:8e:40:4e:0b:f3:4b:59:35:a1:b2:16:91:
        ba:d9:27:a3:59:e3:34:bc
-----BEGIN CERTIFICATE-----
MIIIGDCCBgCgAwIBAgIRAKpDEzGw3+C5AKftmHnP3PEwDQYJKoZIhvcNAQELBQAw
JDEiMCAGA1UEAxMZRmFrZSBDQSBmb3IgWmxpbnQgdGVzdGluZzAeFw0yNTA3MjIw
ODEwMThaFw0yNjA3MjIwODEwMThaMCQxIjAgBgNVBAMMGUxlb24uTWFuZHJha2VA
ZXhhbXBsZS5jb20wggSyMAsGCWCGSAFlAwQEAgOCBKEAvrNVu4i20uct5neruDKZ
lDU3RyuEkDmpeOocfNI02FK6/9KDu3YJnJIWQ4VAzywg3KF4qQMjOeMqcXLENHSW
YXVqMpBsRbppABacwqekSdF5F2NyDLPApLUuQqexYUgzcGVCxZczZyQB/7NtaJoT
7mEWqMxcCruNi+gEeBJUKRFmI9ELhhiCI3LEwBc9ArYJI+zCU4FNoxS1g6ySTyQK
/XW1fvKqz3p+C2YvldMgE2dSHFsG8OlNsfpZ7CBQbUamFWR6ICbO93ZWKGuJYKGu
mrZLuQlfhfdz31KknnAa04Fvu7pZGyO3pcG3YTG7Hwe73XsApCTOt6l0qRS9I/w3
rPhSMXZ7q/XK7nkwjrwOoxI6Y1iSd4RGqzOv9LFZlyKe93FE+Ti2ezOSQeSmrEQF
4HyV5muNGDYz1piWlmSt5hJVQDkjHCk848JTo0dRniYxrTZIoczPW+UFU0B2n4ex
9xaFaawEeTgX73XB1+VWjEuSbogtjca0gKwWwNq93VnHJ/A0oRwmAL0zoqSCTTMY
uFQF/BPFR7Gtu2ASTySjXRE9lzpBO9UjorhPRaKogxVbVqC+ANHDIauDzugOc4ly
l1VXzMUvZaB6FaIIrAx8/Zu/fomVnoGSKuUWLshDsryuwJFt1DQSNQotsKu/Rjg0
lYkhiBCFf3hVXQEEV1l+UoJhlTUP6RiEafloSkzE+gc+mvIwJLmDROqP2vFCVDNG
m4AzxDg4GyqEHhh+vDLM4quPxFps+gUP4aiPbLMs+Epe3MRkYLE40jekJOfARUxg
tzGwV4tjbDOco+xxB1aegaFK4tHOnIxE+zOacixpCEWivro+wsTEp4xt99NaQ9I5
V7KGNzhKmrNz7Bunx1NXFfJFgOgynkwASlK16AzP/PrBpHaSVTu5sgA96gsZvsSu
GKmYoPZOGDcI4EZKRelD1Woc0gwulMAgylGkZQNonQGlWUbBtvyGurwwtuobqFMM
utxfJkN0ySK9CgWeqkVxSMltKdxklUaYldMotBoGWUsM12hDETkFXGon6ee8W5NP
bfjN2gsTjWujfIhN/vUjVVF2BhszwdXK1xUETblOSJODvGNnXDFjeDggKdk3ZyrJ
09Q0tVJcK+CB1Pt8CdID4sssvXqtgeTPwoYAZZbMCmKzAYlB4aoyaZGhRHkSrVlE
Npl+h+uUKpOgP3vBMiIFdvrHjqV1giRV0Fi6ECcuB5AvYJVfMDGoADhVrxubaIRC
wuxIMBbMqZzEs5u/s9eIVENwfzRyAXc1xFtz0otvxwB7WmR/qLhA+eQqe/c9/6SY
CNSjEAaeMjBP/FdcMcgKmRGvlPYAOGowHjwU8cS5OoQCdVo16ggwNJpjLLLIEiVX
Y/KOl3zHn8IS5mmdbACssIhHghSmWuXGd/xyndAvc+SdEZeMveefYrhFxxelVoQz
PnsRLvyewFQJRmiESWINiChuLWYZUaBFEPovZbNJCDVK9AEGNjKfPscJP3UacUvI
ZOrFhpSYTuSlCTsGX2WeI0SmpFdC8REBKsi+Z3qlAnbO7dVVxndtOLWOUidx3qTf
OFCtgFhvdtG5rtyU62MPW06jgbQwgbEwDgYDVR0PAQH/BAQDAgeAMBMGA1UdJQQM
MAoGCCsGAQUFBwMEMBQGA1UdIAQNMAswCQYHZ4EMAQUBAzAfBgNVHSMEGDAWgBTo
tvZ2S9A75Ual+VTUfgez3g1gPjAkBgNVHREEHTAbgRlMZW9uLk1hbmRyYWtlQGV4
YW1wbGUuY29tMC0GA1UdHwQmMCQwIqAgoB6GHGh0dHA6Ly9jYS5zb21lY2EtaW5j
LmNvbS9jcmwwDQYJKoZIhvcNAQELBQADggIBAHxHkAE8BTGtjq0ftLII6Zo5+p2h
bB4OCIQxGrJvkUV3zIsOawBUO8Oi0RJKn2sko+GDFufFY01jdzJbwQyN9baYC+Ne
u7zvz0dfEue70qlFphb7Y2Exsoin25J1wZE078ZrXCmEmgYMtLb1G4U/9/DgZET4
UJSJc99hanp0nB4HtXnG2ZdXrwrRjAbhjVa+bpk+GPwEHmmfsjqrJ1zN8n5VUTJK
hATU9fsjEwzyHISzdpJFRoUd30lu35dyEIOqj0nU1V16K56WFdUDk9RBnXqHJAcj
28TyK5tRlbphWYI5s9W4bisdJ5WOz2Xfz8XPh3esDLf23lEOnLYiXW6QJjzeno90
7jVtHi0GckSHjHKwT70tnELYMFZRV8uglBbTwUKw3P9g0Z6yUeuOlgIwnjyGYN7J
vzISpQUapd3xnhGyGgU/ggDClL1s2+fi33pexOeHoPF+9HS+wCR8j6dZ6akUDBl9
3tPozdR6EfMGBJ2sa6qNaIlBriQsoPwtXo99ABtLpZSz1943FCisrRc6pJgveRW2
6aAYKKeUl9TJO0/SF75u9TPu8gTevIGZ4cs/agvaw2a6RFLxHdct3gjL29ru3cGU
Mio9NevwVhPlETPOc8MrMa6k88XQmQ0CvOihRFLVjcrntOCfDTnvr45ATgvzS1k1
obIWkbrZJ6NZ4zS8
-----END CERTIFICATE-----
