Certificate:
    Data:
        Version: 3 (0x2)
        Serial Number:
            88:47:57:8b:e8:0b:70:89:e0:cd:8d:17:95:ea:47:67:25:32:12
        Signature Algorithm: sha256WithRSAEncryption
        Issuer: C = XX, O = Some CA, CN = Fake CA for Zlint testing
        Validity
            Not Before: Sep  3 08:37:04 2025 GMT
            Not After : Sep  3 08:37:04 2026 GMT
        Subject: emailAddress = Guenter.Grass@example.com
        Subject Public Key Info:
            Public Key Algorithm: GOST R 34.10-2012 with 256 bit modulus
            Unable to load Public Key
130888897749440:error:0609E09C:digital envelope routines:pkey_set_type:unsupported algorithm:../crypto/evp/p_lib.c:210:
130888897749440:error:0B09406F:x509 certificate routines:x509_pubkey_decode:unsupported algorithm:../crypto/x509/x_pubkey.c:113:
        X509v3 extensions:
            X509v3 Key Usage: critical
                Digital Signature
            X509v3 Extended Key Usage: 
                E-mail Protection
            X509v3 Authority Key Identifier: 
                keyid:A6:40:A5:0A:D5:69:15:EE:C3:04:72:96:3B:F2:55:6F:44:9C:DC:9D

            X509v3 Subject Alternative Name: 
                email:Guenter.Grass@example.com
            Authority Information Access: 
                OCSP - URI:http://ca.someca-inc.com/ocsp

            X509v3 CRL Distribution Points: 

                Full Name:
                  URI:http://ca.someca-inc.com/crl

            X509v3 Certificate Policies: 
                Policy: 2.23.140.1.5.1.3

            X509v3 Subject Key Identifier: 
                44:EA:00:3B:BD:F9:C3:9C:0B:84:AD:B4:A6:17:1C:90:41:65:17:46
    Signature Algorithm: sha256WithRSAEncryption
         49:e6:f6:54:7c:c0:b2:30:17:ef:2f:56:60:f3:db:21:01:24:
         cb:6d:62:71:87:f8:36:bb:3e:ca:38:4a:d1:90:af:29:a8:bd:
         29:29:30:e6:c3:57:71:61:19:4a:cb:85:62:ba:84:31:48:d6:
         64:e7:0c:8d:50:b1:43:c6:34:a3:ab:99:c1:b8:1d:62:a3:f9:
         17:6d:69:a9:5b:68:2f:a7:59:f3:27:1a:10:30:5c:22:91:57:
         47:d6:0e:c6:c9:9a:17:bf:8d:f7:07:81:1d:13:67:3f:42:2a:
         29:4f:b6:8b:fa:05:99:9b:ca:02:8b:a0:4e:ca:4c:85:7e:6b:
         cc:2a:f7:e3:9b:f5:7f:42:6e:ce:23:25:36:23:cd:84:d6:86:
         c0:db:10:ac:12:28:1b:fa:ab:25:5a:a8:9d:d0:13:ed:5c:90:
         09:13:77:a3:e5:88:03:48:18:74:2a:83:32:73:89:64:b6:b1:
         19:ef:c1:5b:4a:63:98:1c:a6:95:a2:5b:36:56:e0:58:8a:c9:
         0a:a9:41:4f:b1:6b:cc:e3:92:10:60:b4:bf:6c:06:87:44:25:
         a3:e6:22:82:2c:6d:76:35:d4:c5:aa:65:79:f3:9b:ea:ba:1a:
         bf:b3:39:43:77:d1:50:5c:f9:fa:a6:2e:bf:75:26:71:e9:74:
         64:20:d2:5e:db:29:1a:e0:7a:c5:f8:1c:c1:21:e0:22:74:f9:
         15:3c:5b:2a:af:54:2a:a9:2c:31:8c:48:12:96:d2:57:03:c3:
         05:c0:24:f5:e9:3f:4f:03:52:a0:08:05:37:52:b8:c4:fd:e1:
         ab:24:15:af:78:9e:e6:0c:34:d8:24:14:ab:11:d3:06:ba:f0:
         b8:42:ab:33:34:16:b8:40:40:58:c2:a5:d3:69:a0:3a:65:0b:
         00:75:18:5c:e6:a1:f9:70:ae:73:f4:6b:35:24:0a:df:e1:1d:
         d5:e6:bb:08:31:a8:e6:61:e2:fb:b5:de:8c:a4:bb:7e:04:e1:
         f9:4b:6a:ab:01:22:b9:92:49:94:01:12:07:af:df:8f:e4:bb:
         8a:9a:b8:44:13:38:8d:f0:de:6e:b1:37:a9:87:fa:77:7c:b8:
         66:73:3b:c7:b3:d1:ad:78:4d:43:42:60:84:4a:73:f6:ff:a1:
         72:7a:93:44:34:30:ab:e9:4f:c1:a4:f6:06:c2:64:7f:87:d5:
         a3:9c:7b:54:6a:37:96:73:28:1a:7b:39:62:9c:14:ed:a8:a1:
         64:de:4f:de:82:11:27:40:83:d2:7a:84:76:8f:a1:12:4c:52:
         e5:8e:b5:51:2a:02:4c:c6:2e:a9:74:90:c3:ac:00:56:17:0f:
         f4:83:6d:d6:1c:87:41:c9
-----BEGIN CERTIFICATE-----
MIIETjCCAjagAwIBAgIUAIhHV4voC3CJ4M2NF5XqR2clMhIwDQYJKoZIhvcNAQEL
BQAwQzELMAkGA1UEBhMCWFgxEDAOBgNVBAoMB1NvbWUgQ0ExIjAgBgNVBAMMGUZh
a2UgQ0EgZm9yIFpsaW50IHRlc3RpbmcwHhcNMjUwOTAzMDgzNzA0WhcNMjYwOTAz
MDgzNzA0WjAqMSgwJgYJKoZIhvcNAQkBFhlHdWVudGVyLkdyYXNzQGV4YW1wbGUu
Y29tMGYwHwYIKoUDBwEBAQEwEwYHKoUDAgIjAQYIKoUDBwEBAgIDQwAEQL4KN/gR
nmTwQ5T37dmlfHoQLfwSIXNmoVKA/wEydBd6vbQdZoBkoMzZ55Yt69sc2Bsn+kTu
e7qqUp9wndnGFdyjggEPMIIBCzAOBgNVHQ8BAf8EBAMCB4AwEwYDVR0lBAwwCgYI
KwYBBQUHAwQwHwYDVR0jBBgwFoAUpkClCtVpFe7DBHKWO/JVb0Sc3J0wJAYDVR0R
BB0wG4EZR3VlbnRlci5HcmFzc0BleGFtcGxlLmNvbTA5BggrBgEFBQcBAQQtMCsw
KQYIKwYBBQUHMAGGHWh0dHA6Ly9jYS5zb21lY2EtaW5jLmNvbS9vY3NwMC0GA1Ud
HwQmMCQwIqAgoB6GHGh0dHA6Ly9jYS5zb21lY2EtaW5jLmNvbS9jcmwwFAYDVR0g
BA0wCzAJBgdngQwBBQEDMB0GA1UdDgQWBBRE6gA7vfnDnAuErbSmFxyQQWUXRjAN
BgkqhkiG9w0BAQsFAAOCAgEASeb2VHzAsjAX7y9WYPPbIQEky21icYf4Nrs+yjhK
0ZCvKai9KSkw5sNXcWEZSsuFYrqEMUjWZOcMjVCxQ8Y0o6uZwbgdYqP5F21pqVto
L6dZ8ycaEDBcIpFXR9YOxsmaF7+N9weBHRNnP0IqKU+2i/oFmZvKAougTspMhX5r
zCr345v1f0JuziMlNiPNhNaGwNsQrBIoG/qrJVqondAT7VyQCRN3o+WIA0gYdCqD
MnOJZLaxGe/BW0pjmBymlaJbNlbgWIrJCqlBT7FrzOOSEGC0v2wGh0Qlo+Yigixt
djXUxaplefOb6roav7M5Q3fRUFz5+qYuv3Umcel0ZCDSXtspGuB6xfgcwSHgInT5
FTxbKq9UKqksMYxIEpbSVwPDBcAk9ek/TwNSoAgFN1K4xP3hqyQVr3ie5gw02CQU
qxHTBrrwuEKrMzQWuEBAWMKl02mgOmULAHUYXOah+XCuc/RrNSQK3+Ed1ea7CDGo
5mHi+7XejKS7fgTh+UtqqwEiuZJJlAESB6/fj+S7ipq4RBM4jfDebrE3qYf6d3y4
ZnM7x7PRrXhNQ0JghEpz9v+hcnqTRDQwq+lPwaT2BsJkf4fVo5x7VGo3lnMoGns5
YpwU7aihZN5P3oIRJ0CD0nqEdo+hEkxS5Y61USoCTMYuqXSQw6wAVhcP9INt1hyH
Qck=
-----END CERTIFICATE-----
