Certificate:
    Data:
        Version: 3 (0x2)
        Serial Number:
            e4:fc:68:be:ed:6b:e8:3d:67:cc:d3:8d:46:9b:0e:bf
        Signature Algorithm: sha256WithRSAEncryption
        Issuer: C=XX, O=Some CA, CN=Fake CA for Zlint testing
        Validity
            Not Before: Jul 29 04:49:17 2025 GMT
            Not After : Jul 29 04:49:17 2026 GMT
        Subject: CN=Guenter.Grass@example.com
        Subject Public Key Info:
            Public Key Algorithm: id-ecPublicKey
                Public-Key: (256 bit)
                pub:
                    04:71:da:4a:1d:2d:43:7a:0c:4d:7d:d5:3e:dc:c5:
                    85:bb:ad:3d:94:3d:cd:93:87:41:e8:c3:c0:91:12:
                    d6:f2:e2:f6:3f:17:dc:76:28:aa:06:c5:4a:46:3f:
                    1d:57:01:07:53:44:4a:f8:03:50:49:1f:cb:84:f9:
                    f6:e0:3f:83:85
                ASN1 OID: prime256v1
                NIST CURVE: P-256
        X509v3 extensions:
            X509v3 Key Usage: critical
                Digital Signature
            X509v3 Extended Key Usage: 
                TLS Web Client Authentication, E-mail Protection
            X509v3 Subject Key Identifier: 
                DE:8A:84:7B:FF:8C:34:3D:69:B8:53:A2:15:E6:EE:77:5E:F2:EF:96
            X509v3 Authority Key Identifier: 
                E8:B6:F6:76:4B:D0:3B:E5:46:A5:F9:54:D4:7E:07:B3:DE:0D:60:3E
            Authority Information Access: 
                OCSP - URI:http://ca.someca-inc.com/ocsp
                CA Issuers - URI:http://ca.someca-inc.com/root
            X509v3 Subject Alternative Name: 
                email:Guenter.Grass@example.com
            X509v3 Certificate Policies: 
                Policy: 2.23.140.1.5.1.3
            X509v3 CRL Distribution Points: 
                Full Name:
                  URI:http://ca.someca-inc.com/crl
    Signature Algorithm: sha256WithRSAEncryption
    Signature Value:
        0a:35:5a:02:90:ae:51:01:ea:0f:40:08:b2:ed:3a:eb:04:4e:
        10:e4:92:a9:09:43:ea:99:1d:f6:9b:8b:19:10:13:85:af:e9:
        f3:4b:4e:6f:be:9e:3f:4f:fd:54:84:80:5a:f3:e2:15:ef:f6:
        4d:da:fd:b2:6b:5a:8a:0e:55:17:f6:df:67:c8:6d:04:dd:ef:
        af:79:3c:3a:c5:4f:b7:18:2c:5f:28:5a:69:49:6d:f9:05:fa:
        d1:df:5f:43:3a:b8:28:ff:26:a9:59:9f:55:1a:fd:c5:b6:9f:
        ce:8e:80:df:a8:c8:11:ab:a7:14:3c:15:7d:92:a2:4d:8f:77:
        a2:ae:a2:67:1e:ac:7d:28:30:b5:03:6a:7a:1a:0b:de:77:e1:
        1b:9e:bf:99:04:2a:06:f3:4e:9a:1e:4e:10:54:fb:ce:77:c4:
        3f:d3:3c:4e:dc:e8:14:c7:0d:67:d9:cd:65:94:02:35:aa:a5:
        07:cd:ba:9a:27:de:b2:76:7c:71:e7:a0:49:11:8a:19:55:e0:
        47:de:4e:38:f4:51:2b:63:4c:41:f0:00:53:03:bc:91:20:c9:
        87:c2:e8:27:6f:2d:25:94:e8:cf:ae:60:37:9a:2c:1f:b2:22:
        c6:39:d8:2b:1d:c1:d0:b5:b9:b4:79:28:27:90:c8:06:7f:0d:
        38:89:fb:5d:ac:f6:dc:84:f6:fe:e3:fb:b3:24:fd:d5:0b:6f:
        15:ca:7b:20:6f:ce:54:63:a8:3f:9d:81:1f:36:7e:c9:2a:c5:
        77:dd:d0:7e:8c:81:b8:67:fb:2f:cb:e9:cd:04:5b:c6:c6:c6:
        77:44:dd:19:d8:db:c7:89:ad:a0:28:54:16:5c:6f:30:8e:62:
        e8:36:75:60:d0:44:80:03:e6:c5:fa:ed:fd:bd:ee:33:82:f5:
        11:c0:30:04:5f:63:fc:74:cd:c0:07:9f:b7:98:33:2d:3c:98:
        af:13:75:4f:91:8c:bb:94:27:6f:7e:fc:12:26:d1:d7:19:3e:
        97:93:36:69:10:9c:80:d8:b6:5e:77:02:a0:f1:9e:87:5a:b1:
        8d:76:7f:d9:0b:96:55:65:19:95:18:c4:15:07:9f:f1:d7:4f:
        c1:f1:55:08:e0:4e:1c:e4:93:e0:e7:bd:11:18:ce:fe:45:7f:
        28:74:59:71:9e:b7:70:3b:cd:0b:e6:98:eb:cd:3e:fd:ab:3b:
        b5:97:1a:a9:ff:0f:ac:8e:b7:83:61:78:e0:56:be:c8:7f:5e:
        ff:eb:b2:d2:c2:91:59:af:61:6f:ef:ac:6a:0f:86:a9:b0:b2:
        24:4f:9b:f3:8c:32:b0:11:a1:fc:65:e8:33:04:37:57:d8:d8:
        1f:9e:18:42:23:28:eb:27
-----BEGIN CERTIFICATE-----
MIIEbTCCAlWgAwIBAgIRAOT8aL7ta+g9Z8zTjUabDr8wDQYJKoZIhvcNAQELBQAw
QzELMAkGA1UEBhMCWFgxEDAOBgNVBAoTB1NvbWUgQ0ExIjAgBgNVBAMTGUZha2Ug
Q0EgZm9yIFpsaW50IHRlc3RpbmcwHhcNMjUwNzI5MDQ0OTE3WhcNMjYwNzI5MDQ0
OTE3WjAkMSIwIAYDVQQDDBlHdWVudGVyLkdyYXNzQGV4YW1wbGUuY29tMFkwEwYH
KoZIzj0CAQYIKoZIzj0DAQcDQgAEcdpKHS1DegxNfdU+3MWFu609lD3Nk4dB6MPA
kRLW8uL2PxfcdiiqBsVKRj8dVwEHU0RK+ANQSR/LhPn24D+DhaOCAUQwggFAMA4G
A1UdDwEB/wQEAwIHgDAdBgNVHSUEFjAUBggrBgEFBQcDAgYIKwYBBQUHAwQwHQYD
VR0OBBYEFN6KhHv/jDQ9abhTohXm7nde8u+WMB8GA1UdIwQYMBaAFOi29nZL0Dvl
RqX5VNR+B7PeDWA+MGQGCCsGAQUFBwEBBFgwVjApBggrBgEFBQcwAYYdaHR0cDov
L2NhLnNvbWVjYS1pbmMuY29tL29jc3AwKQYIKwYBBQUHMAKGHWh0dHA6Ly9jYS5z
b21lY2EtaW5jLmNvbS9yb290MCQGA1UdEQQdMBuBGUd1ZW50ZXIuR3Jhc3NAZXhh
bXBsZS5jb20wFAYDVR0gBA0wCzAJBgdngQwBBQEDMC0GA1UdHwQmMCQwIqAgoB6G
HGh0dHA6Ly9jYS5zb21lY2EtaW5jLmNvbS9jcmwwDQYJKoZIhvcNAQELBQADggIB
AAo1WgKQrlEB6g9ACLLtOusEThDkkqkJQ+qZHfabixkQE4Wv6fNLTm++nj9P/VSE
gFrz4hXv9k3a/bJrWooOVRf232fIbQTd7695PDrFT7cYLF8oWmlJbfkF+tHfX0M6
uCj/JqlZn1Ua/cW2n86OgN+oyBGrpxQ8FX2Sok2Pd6KuomcerH0oMLUDanoaC953
4Ruev5kEKgbzTpoeThBU+853xD/TPE7c6BTHDWfZzWWUAjWqpQfNupon3rJ2fHHn
oEkRihlV4EfeTjj0UStjTEHwAFMDvJEgyYfC6CdvLSWU6M+uYDeaLB+yIsY52Csd
wdC1ubR5KCeQyAZ/DTiJ+12s9tyE9v7j+7Mk/dULbxXKeyBvzlRjqD+dgR82fskq
xXfd0H6Mgbhn+y/L6c0EW8bGxndE3RnY28eJraAoVBZcbzCOYug2dWDQRIAD5sX6
7f297jOC9RHAMARfY/x0zcAHn7eYMy08mK8TdU+RjLuUJ29+/BIm0dcZPpeTNmkQ
nIDYtl53AqDxnodasY12f9kLllVlGZUYxBUHn/HXT8HxVQjgThzkk+DnvREYzv5F
fyh0WXGet3A7zQvmmOvNPv2rO7WXGqn/D6yOt4NheOBWvsh/Xv/rstLCkVmvYW/v
rGoPhqmwsiRPm/OMMrARofxl6DMEN1fY2B+eGEIjKOsn
-----END CERTIFICATE-----
