Certificate:
    Data:
        Version: 3 (0x2)
        Serial Number:
            e0:11:99:ac:58:67:85:df:e0:5a:6f:e1:c8:d3:58:42
        Signature Algorithm: sha256WithRSAEncryption
        Issuer: C = XX, O = Some CA, CN = Fake CA for Zlint testing
        Validity
            Not Before: Sep  3 08:13:49 2025 GMT
            Not After : Sep  3 08:13:49 2026 GMT
        Subject: CN = Guenter.Grass@example.com
        Subject Public Key Info:
            Public Key Algorithm: id-ecPublicKey
                Public-Key: (521 bit)
                pub:
                    04:00:14:5e:22:c5:06:c9:70:b1:ce:11:92:6f:60:
                    9f:0f:6c:8d:ab:98:e7:96:2e:48:7d:d4:99:f2:d4:
                    aa:7d:42:6d:2e:94:3c:f6:49:19:0f:b7:4f:e9:61:
                    4f:a3:94:83:70:dd:58:93:43:ed:0e:9e:af:34:8e:
                    c4:a0:e0:f1:ad:70:4c:00:4a:0b:5c:f9:c3:c9:2b:
                    8f:ce:d4:3a:cb:4c:32:cd:44:1b:5f:0d:ab:8d:c0:
                    43:0a:0f:a4:45:17:2f:68:4a:0c:fb:1f:af:f1:eb:
                    17:4b:2c:a1:4f:08:f9:b7:53:46:47:56:74:38:e4:
                    fd:74:88:69:2b:9e:cc:bb:38:b6:ea:1e:2c
                ASN1 OID: secp521r1
                NIST CURVE: P-521
        X509v3 extensions:
            X509v3 Key Usage: critical
                Digital Signature
            X509v3 Extended Key Usage: 
                TLS Web Client Authentication, E-mail Protection
            X509v3 Subject Key Identifier: 
                DE:8A:84:7B:FF:8C:34:3D:69:B8:53:A2:15:E6:EE:77:5E:F2:EF:96
            X509v3 Authority Key Identifier: 
                keyid:E8:B6:F6:76:4B:D0:3B:E5:46:A5:F9:54:D4:7E:07:B3:DE:0D:60:3E

            Authority Information Access: 
                OCSP - URI:http://ca.someca-inc.com/ocsp
                CA Issuers - URI:http://ca.someca-inc.com/root

            X509v3 Subject Alternative Name: 
                email:Guenter.Grass@example.com
            X509v3 Certificate Policies: 
                Policy: 2.23.140.1.5.1.3

            X509v3 CRL Distribution Points: 

                Full Name:
                  URI:http://ca.someca-inc.com/crl

    Signature Algorithm: sha256WithRSAEncryption
         80:71:12:c8:b2:43:ca:80:14:84:f2:98:67:37:b5:b5:48:e6:
         57:aa:a1:7c:2f:86:87:41:71:1a:58:fe:ec:3a:09:4c:6c:9b:
         b1:df:74:fe:10:50:64:ce:1d:fd:57:8c:27:2e:3f:34:e6:0a:
         1b:f0:75:7a:b4:a5:0e:b4:73:49:03:1f:ea:93:ba:7b:a1:c7:
         df:92:f0:c1:a2:1b:3e:58:ab:a3:27:fe:48:35:20:3c:0d:66:
         36:f6:e7:f0:ae:08:1a:e6:ab:07:81:bf:a0:31:a0:5c:d7:ef:
         4e:9c:33:3a:db:89:f0:e1:ba:b6:f9:1e:76:46:47:b7:26:ea:
         46:3d:a8:3e:4d:ca:e2:ae:2c:1d:b8:84:66:66:8b:86:ad:95:
         79:9c:26:54:33:13:88:7d:10:1b:18:d8:47:56:e3:f7:1c:b5:
         77:50:de:5b:05:a3:07:f2:d3:0e:a5:18:ce:a9:9a:c4:ef:ad:
         a3:33:62:80:ed:c7:dc:ec:7a:a9:94:e3:95:26:b6:e1:82:a4:
         d9:74:68:e8:e7:f7:7c:6c:b5:a8:72:cc:61:b5:4c:f3:93:5e:
         4f:cd:b3:fe:ef:8f:8d:a4:16:96:c4:ad:76:57:18:eb:c7:ed:
         bd:9f:46:ee:86:d0:16:a8:75:0c:bf:d5:8a:b2:0a:19:07:de:
         10:69:23:94:00:84:e3:81:6d:0b:b9:3a:8e:be:ee:02:06:03:
         be:a7:f2:3b:af:91:ce:91:5e:79:46:70:b1:b6:bb:65:47:49:
         4f:d8:da:28:42:62:bc:96:13:5e:a0:5b:57:12:4a:78:12:aa:
         c1:ca:e7:b5:ca:29:cc:38:32:61:f5:60:d4:b4:2a:18:07:33:
         d1:ba:fe:5b:fc:23:9d:d6:50:92:0d:cf:c4:81:28:c1:4d:74:
         86:6d:99:0a:30:b5:14:79:8b:6c:d1:93:cc:ed:2d:08:71:03:
         bf:52:81:46:c6:cc:3b:40:aa:b6:03:c8:df:1e:81:db:cb:5b:
         cc:dc:4c:45:a2:2b:57:45:3c:bc:66:ce:04:51:d6:ea:eb:ac:
         c7:79:24:ac:99:a5:da:68:69:f5:d8:24:26:c9:0e:91:da:54:
         14:af:42:20:d0:90:a1:50:98:eb:f5:3a:5c:49:0f:47:c5:a9:
         d2:07:1e:c3:47:b2:4e:1d:ef:9c:75:b6:be:b1:a6:80:b1:a8:
         0e:85:67:d9:6e:16:e0:4a:53:00:1e:fe:ba:8f:f4:78:9b:b4:
         fd:45:4f:d1:0a:b5:1d:37:c0:78:de:ba:b0:eb:62:80:8e:a9:
         22:57:d6:14:e3:8a:72:4b:01:69:9c:9e:6d:6e:54:d8:ed:d1:
         fc:77:20:fc:6b:2d:37:11
-----BEGIN CERTIFICATE-----
MIIEsDCCApigAwIBAgIRAOARmaxYZ4Xf4Fpv4cjTWEIwDQYJKoZIhvcNAQELBQAw
QzELMAkGA1UEBhMCWFgxEDAOBgNVBAoTB1NvbWUgQ0ExIjAgBgNVBAMTGUZha2Ug
Q0EgZm9yIFpsaW50IHRlc3RpbmcwHhcNMjUwOTAzMDgxMzQ5WhcNMjYwOTAzMDgx
MzQ5WjAkMSIwIAYDVQQDDBlHdWVudGVyLkdyYXNzQGV4YW1wbGUuY29tMIGbMBAG
ByqGSM49AgEGBSuBBAAjA4GGAAQAFF4ixQbJcLHOEZJvYJ8PbI2rmOeWLkh91Jny
1Kp9Qm0ulDz2SRkPt0/pYU+jlINw3ViTQ+0Onq80jsSg4PGtcEwASgtc+cPJK4/O
1DrLTDLNRBtfDauNwEMKD6RFFy9oSgz7H6/x6xdLLKFPCPm3U0ZHVnQ45P10iGkr
nsy7OLbqHiyjggFEMIIBQDAOBgNVHQ8BAf8EBAMCB4AwHQYDVR0lBBYwFAYIKwYB
BQUHAwIGCCsGAQUFBwMEMB0GA1UdDgQWBBTeioR7/4w0PWm4U6IV5u53XvLvljAf
BgNVHSMEGDAWgBTotvZ2S9A75Ual+VTUfgez3g1gPjBkBggrBgEFBQcBAQRYMFYw
KQYIKwYBBQUHMAGGHWh0dHA6Ly9jYS5zb21lY2EtaW5jLmNvbS9vY3NwMCkGCCsG
AQUFBzAChh1odHRwOi8vY2Euc29tZWNhLWluYy5jb20vcm9vdDAkBgNVHREEHTAb
gRlHdWVudGVyLkdyYXNzQGV4YW1wbGUuY29tMBQGA1UdIAQNMAswCQYHZ4EMAQUB
AzAtBgNVHR8EJjAkMCKgIKAehhxodHRwOi8vY2Euc29tZWNhLWluYy5jb20vY3Js
MA0GCSqGSIb3DQEBCwUAA4ICAQCAcRLIskPKgBSE8phnN7W1SOZXqqF8L4aHQXEa
WP7sOglMbJux33T+EFBkzh39V4wnLj805gob8HV6tKUOtHNJAx/qk7p7ocffkvDB
ohs+WKujJ/5INSA8DWY29ufwrgga5qsHgb+gMaBc1+9OnDM624nw4bq2+R52Rke3
JupGPag+TcririwduIRmZouGrZV5nCZUMxOIfRAbGNhHVuP3HLV3UN5bBaMH8tMO
pRjOqZrE762jM2KA7cfc7HqplOOVJrbhgqTZdGjo5/d8bLWocsxhtUzzk15PzbP+
74+NpBaWxK12Vxjrx+29n0buhtAWqHUMv9WKsgoZB94QaSOUAITjgW0LuTqOvu4C
BgO+p/I7r5HOkV55RnCxtrtlR0lP2NooQmK8lhNeoFtXEkp4EqrByue1yinMODJh
9WDUtCoYBzPRuv5b/COd1lCSDc/EgSjBTXSGbZkKMLUUeYts0ZPM7S0IcQO/UoFG
xsw7QKq2A8jfHoHby1vM3ExFoitXRTy8Zs4EUdbq66zHeSSsmaXaaGn12CQmyQ6R
2lQUr0Ig0JChUJjr9TpcSQ9HxanSBx7DR7JOHe+cdba+saaAsagOhWfZbhbgSlMA
Hv66j/R4m7T9RU/RCrUdN8B43rqw62KAjqkiV9YU44pySwFpnJ5tblTY7dH8dyD8
ay03EQ==
-----END CERTIFICATE-----
