Certificate:
    Data:
        Version: 3 (0x2)
        Serial Number:
            6c:bb:2f:2f:fc:61:a9:2a:03:51:65:73:e8:35:bb:78
        Signature Algorithm: sha256WithRSAEncryption
        Issuer: C=XX, O=Some CA, CN=Fake CA for Zlint testing
        Validity
            Not Before: Jun 15 00:00:00 2023 GMT
            Not After : Jun 14 00:00:00 2024 GMT
        Subject: C=US, L=Nowhere, O=Some Company Ltd., CN=Leon Mandrake
        Subject Public Key Info:
            Public Key Algorithm: rsaEncryption
                Public-Key: (2048 bit)
                Modulus:
                    00:a4:8b:14:2f:08:e0:a8:e8:78:eb:12:2e:62:58:
                    84:6e:86:9d:78:c4:af:ec:43:67:85:d6:15:95:3b:
                    ee:6d:8a:2c:f6:55:b0:19:7f:80:69:ee:2d:4a:b3:
                    82:e2:89:c7:fe:35:a3:fe:2b:85:86:ce:03:9a:4d:
                    10:15:de:10:b4:51:26:1c:04:a1:1e:44:48:a7:94:
                    47:ae:82:68:9b:e7:4c:8f:fd:12:2a:8d:94:73:f1:
                    24:42:4e:f0:07:7c:d4:16:50:cc:dd:0a:51:bd:09:
                    e3:b1:11:7a:1f:cc:14:3a:c9:8b:3d:48:25:7a:6e:
                    5f:00:dd:22:67:c1:30:20:dd:91:11:43:17:74:1c:
                    86:98:58:57:ad:88:40:b8:4e:74:f5:e6:98:d1:af:
                    42:d1:c4:41:df:dd:6b:fe:50:82:0a:81:19:53:74:
                    fa:45:59:fc:fe:a6:6f:69:69:21:38:e9:6a:2b:04:
                    96:b7:ab:60:98:a0:bb:42:b3:af:bd:4b:6a:6d:e5:
                    95:d7:f3:88:73:bd:09:ae:e8:a9:43:e4:27:40:79:
                    1f:17:ab:9c:8f:54:57:1f:3b:29:37:1c:fd:7a:e7:
                    73:7b:1a:6e:0d:d9:0b:41:b3:ff:ad:de:e4:3e:d5:
                    9c:f9:02:d9:9e:bb:c7:4d:30:8c:54:ee:d5:77:00:
                    94:43
                Exponent: 65537 (0x10001)
        X509v3 extensions:
            X509v3 Key Usage: critical
                Digital Signature, Key Encipherment
            X509v3 Extended Key Usage: 
                TLS Web Client Authentication, E-mail Protection
            X509v3 Subject Key Identifier: 
                FC:5C:16:F2:65:F6:4B:1E:58:1F:B5:01:B0:1F:FD:08:C2:1E:66:C5
            X509v3 Authority Key Identifier: 
                E8:B6:F6:76:4B:D0:3B:E5:46:A5:F9:54:D4:7E:07:B3:DE:0D:60:3E
            Authority Information Access: 
                OCSP - URI:http://ca.someca-inc.com/ocsp
                CA Issuers - URI:http://ca.someca-inc.com/root
            X509v3 Subject Alternative Name: 
                email:Leon.Mandrake@example.com
            X509v3 CRL Distribution Points: 
                Full Name:
                  URI:http://ca.someca-inc.com/crl

    Signature Algorithm: sha256WithRSAEncryption
    Signature Value:
        52:13:a0:c1:79:76:ca:f8:f7:d9:c9:99:38:c4:cb:cd:14:5d:
        5b:30:6d:55:24:ce:71:ae:e0:41:e9:7d:6a:54:b0:96:f2:39:
        f5:5f:0f:c8:52:d6:b4:d3:4b:ad:2c:7a:e8:9f:fc:f4:91:92:
        23:25:c6:d5:2d:73:50:e6:ab:fb:27:9e:bb:52:a0:85:2d:29:
        3e:db:49:ef:ef:1f:90:b2:3e:92:49:5b:ac:a3:5f:2b:38:26:
        44:ae:b4:b0:65:7a:7b:95:fc:20:48:09:f2:4c:d1:6b:17:ee:
        79:88:a5:e0:1a:2e:ce:52:79:4b:65:d6:70:e4:28:c6:23:34:
        16:43:ec:4a:91:ae:e8:2e:53:58:56:15:38:f2:59:9d:75:78:
        da:e9:cd:78:31:f4:c1:69:3c:c3:b3:79:a0:72:40:e1:19:e9:
        ce:1e:28:f0:0a:30:18:8a:04:26:bd:7b:af:d9:4c:ed:14:ed:
        49:97:b9:e4:9e:2f:a9:1f:23:76:3e:44:c7:22:42:54:c8:d1:
        2d:a3:07:2f:c4:11:ed:0c:03:36:73:fb:ea:6c:25:22:88:67:
        c6:59:82:c4:b0:9c:96:7a:d8:22:73:69:b3:e0:38:4e:bc:9d:
        e7:a4:ff:af:f5:0a:fd:94:1d:f1:f8:0e:72:29:23:7d:98:e4:
        a6:7d:64:2a:dc:9d:a7:0a:11:f1:29:f4:72:ce:15:74:bb:e6:
        16:df:9e:59:97:f1:67:5e:e1:a6:a1:c6:ca:95:1a:d5:94:ff:
        19:ad:ac:fa:95:f5:7c:ae:cd:97:b7:f2:15:f6:91:6d:4d:eb:
        f7:e7:e8:da:3f:c3:a9:16:dd:e2:51:9a:d2:b0:32:74:f6:6c:
        43:60:5d:de:21:87:62:30:7a:fe:cd:3f:b5:31:f7:64:be:fc:
        c3:e5:73:b9:c9:57:d7:04:68:a4:5b:56:af:00:0a:ce:47:dc:
        d9:f5:f1:d0:fd:46:21:06:14:70:9b:5a:3a:d6:45:93:11:3c:
        14:9c:87:f9:0e:96:36:35:ca:db:cf:b9:53:cf:f8:c0:70:a4:
        e1:28:1a:0c:75:89:f5:9b:cb:87:96:ad:00:e7:a0:44:8b:db:
        1e:da:31:4f:59:73:96:b7:5b:55:91:9e:fd:46:de:f5:25:5e:
        63:de:d4:0e:fb:1d:37:fc:65:45:d3:5c:0a:de:10:e4:ba:ea:
        74:3d:32:5f:11:4f:75:e5:17:76:4b:f8:ed:8a:a8:36:e7:e9:
        c1:0b:00:9e:18:9c:e0:4d:6f:90:88:6e:b5:e8:15:e9:12:1b:
        b0:5c:23:c4:44:99:b5:81:b7:da:aa:c5:34:3a:d6:78:94:f3:
        00:1d:ca:46:93:ff:66:0d
-----BEGIN CERTIFICATE-----
MIIFUDCCAzigAwIBAgIQbLsvL/xhqSoDUWVz6DW7eDANBgkqhkiG9w0BAQsFADBD
MQswCQYDVQQGEwJYWDEQMA4GA1UEChMHU29tZSBDQTEiMCAGA1UEAxMZRmFrZSBD
QSBmb3IgWmxpbnQgdGVzdGluZzAeFw0yMzA2MTUwMDAwMDBaFw0yNDA2MTQwMDAw
MDBaMFMxCzAJBgNVBAYTAlVTMRAwDgYDVQQHEwdOb3doZXJlMRowGAYDVQQKExFT
b21lIENvbXBhbnkgTHRkLjEWMBQGA1UEAxMNTGVvbiBNYW5kcmFrZTCCASIwDQYJ
KoZIhvcNAQEBBQADggEPADCCAQoCggEBAKSLFC8I4KjoeOsSLmJYhG6GnXjEr+xD
Z4XWFZU77m2KLPZVsBl/gGnuLUqzguKJx/41o/4rhYbOA5pNEBXeELRRJhwEoR5E
SKeUR66CaJvnTI/9EiqNlHPxJEJO8Ad81BZQzN0KUb0J47EReh/MFDrJiz1IJXpu
XwDdImfBMCDdkRFDF3QchphYV62IQLhOdPXmmNGvQtHEQd/da/5QggqBGVN0+kVZ
/P6mb2lpITjpaisElrerYJigu0Kzr71Lam3lldfziHO9Ca7oqUPkJ0B5HxernI9U
Vx87KTcc/Xrnc3sabg3ZC0Gz/63e5D7VnPkC2Z67x00wjFTu1XcAlEMCAwEAAaOC
AS4wggEqMA4GA1UdDwEB/wQEAwIFoDAdBgNVHSUEFjAUBggrBgEFBQcDAgYIKwYB
BQUHAwQwHQYDVR0OBBYEFPxcFvJl9kseWB+1AbAf/QjCHmbFMB8GA1UdIwQYMBaA
FOi29nZL0DvlRqX5VNR+B7PeDWA+MGQGCCsGAQUFBwEBBFgwVjApBggrBgEFBQcw
AYYdaHR0cDovL2NhLnNvbWVjYS1pbmMuY29tL29jc3AwKQYIKwYBBQUHMAKGHWh0
dHA6Ly9jYS5zb21lY2EtaW5jLmNvbS9yb290MCQGA1UdEQQdMBuBGUxlb24uTWFu
ZHJha2VAZXhhbXBsZS5jb20wLQYDVR0fBCYwJDAioCCgHoYcaHR0cDovL2NhLnNv
bWVjYS1pbmMuY29tL2NybDANBgkqhkiG9w0BAQsFAAOCAgEAUhOgwXl2yvj32cmZ
OMTLzRRdWzBtVSTOca7gQel9alSwlvI59V8PyFLWtNNLrSx66J/89JGSIyXG1S1z
UOar+yeeu1KghS0pPttJ7+8fkLI+kklbrKNfKzgmRK60sGV6e5X8IEgJ8kzRaxfu
eYil4BouzlJ5S2XWcOQoxiM0FkPsSpGu6C5TWFYVOPJZnXV42unNeDH0wWk8w7N5
oHJA4Rnpzh4o8AowGIoEJr17r9lM7RTtSZe55J4vqR8jdj5ExyJCVMjRLaMHL8QR
7QwDNnP76mwlIohnxlmCxLCclnrYInNps+A4Tryd56T/r/UK/ZQd8fgOcikjfZjk
pn1kKtydpwoR8Sn0cs4VdLvmFt+eWZfxZ17hpqHGypUa1ZT/Ga2s+pX1fK7Nl7fy
FfaRbU3r9+fo2j/DqRbd4lGa0rAydPZsQ2Bd3iGHYjB6/s0/tTH3ZL78w+VzuclX
1wRopFtWrwAKzkfc2fXx0P1GIQYUcJtaOtZFkxE8FJyH+Q6WNjXK28+5U8/4wHCk
4SgaDHWJ9ZvLh5atAOegRIvbHtoxT1lzlrdbVZGe/Ube9SVeY97UDvsdN/xlRdNc
Ct4Q5LrqdD0yXxFPdeUXdkv47YqoNufpwQsAnhic4E1vkIhutegV6RIbsFwjxESZ
tYG32qrFNDrWeJTzAB3KRpP/Zg0=
-----END CERTIFICATE-----
