Certificate:
    Data:
        Version: 3 (0x2)
        Serial Number:
            27:c8:a8:20:3d:66:01:a2:2d:a7:c5:a9:14:e7:63:67
        Signature Algorithm: sha256WithRSAEncryption
        Issuer: CN = Fake CA for Zlint testing
        Validity
            Not Before: Sep  3 08:26:17 2025 GMT
            Not After : Sep  3 08:26:17 2026 GMT
        Subject: CN = Leon.Mandrake@example.com
        Subject Public Key Info:
            Public Key Algorithm: 2.16.840.1.101.3.4.3.17
            Unable to load Public Key
132145561121216:error:0609E09C:digital envelope routines:pkey_set_type:unsupported algorithm:../crypto/evp/p_lib.c:210:
132145561121216:error:0B09406F:x509 certificate routines:x509_pubkey_decode:unsupported algorithm:../crypto/x509/x_pubkey.c:113:
        X509v3 extensions:
            X509v3 Key Usage: critical
                Digital Signature
            X509v3 Extended Key Usage: 
                E-mail Protection
            X509v3 Certificate Policies: 
                Policy: 2.23.140.1.5.1.3

            X509v3 Authority Key Identifier: 
                keyid:E8:B6:F6:76:4B:D0:3B:E5:46:A5:F9:54:D4:7E:07:B3:DE:0D:60:3E

            X509v3 Subject Alternative Name: 
                email:Leon.Mandrake@example.com
            X509v3 CRL Distribution Points: 

                Full Name:
                  URI:http://ca.someca-inc.com/crl

    Signature Algorithm: sha256WithRSAEncryption
         da:28:b3:68:8c:5d:28:fa:04:b7:15:93:a0:17:2c:8a:ea:83:
         80:f0:08:37:cd:30:d5:7b:e9:4c:70:10:8e:67:af:7a:05:0f:
         4e:c8:ea:b3:24:54:49:40:80:87:d1:74:4b:92:e5:49:04:4e:
         22:65:c3:37:ec:d9:54:1a:20:7d:a2:5f:ba:26:fe:d5:a4:fb:
         97:d4:51:26:17:5f:e6:c2:35:89:91:20:00:50:8c:08:6a:da:
         de:ad:d1:b8:f5:ae:12:2a:36:6e:85:3c:bc:ba:d2:04:47:d5:
         3f:a9:cf:f3:c2:6a:71:19:0c:f8:13:5f:a3:58:8c:68:af:d8:
         f7:82:d4:76:1f:47:c2:d4:41:8a:ed:b3:1e:30:ea:68:86:52:
         1f:e7:64:84:2d:23:2c:10:31:e6:70:1e:e2:90:97:7f:9c:41:
         50:87:00:35:fb:71:dd:fa:54:e4:54:a1:18:ee:be:62:31:25:
         31:07:a0:f7:ec:91:6a:ee:ee:c1:b1:22:7b:5a:3e:e7:73:3a:
         3b:18:c0:0d:9e:30:b2:22:af:cc:11:a9:f3:48:07:8d:16:90:
         a1:02:79:b9:e1:c0:8a:b1:7e:ac:76:b6:34:90:0d:c4:95:2d:
         14:e2:ac:e6:a2:03:a6:35:00:e3:3c:23:fd:ca:6e:68:5e:a6:
         9a:7b:fe:4a:c4:74:ad:03:28:3e:4c:b9:06:e8:12:b6:c0:8d:
         20:59:c7:2a:9a:d1:5a:e3:a7:5b:5c:ec:54:3a:4a:58:49:8b:
         81:c5:4b:aa:8c:32:45:d0:af:a0:ca:d5:dc:40:97:59:3c:71:
         29:f4:a2:d4:fd:12:3d:f8:3b:84:61:5b:41:a4:eb:16:30:58:
         17:de:fd:48:e9:60:5c:42:7d:a3:7e:3a:cc:e3:b4:b4:76:67:
         94:13:ea:24:6a:ab:12:02:46:5f:80:dc:3f:73:12:c6:0a:59:
         d0:85:63:dc:00:7b:06:40:f7:0d:5e:32:17:af:2d:e9:1a:02:
         6d:b0:c7:9a:6e:fb:9f:bd:42:7e:f9:e4:65:81:05:67:fd:d5:
         a7:d2:a7:a4:f3:ff:2f:7c:38:97:29:1f:4e:ef:d1:f7:cc:4a:
         81:f9:3e:6e:2a:ac:11:ac:08:f3:4f:cd:db:73:14:ce:3f:85:
         57:ce:4e:b8:03:13:3a:bd:fe:2f:d5:46:34:c5:96:43:7a:05:
         88:1c:d4:a4:9a:95:18:ea:12:bf:27:e2:02:45:d2:58:c7:95:
         44:45:38:b6:18:62:af:09:06:50:d3:9c:dc:b0:ec:0a:f8:6b:
         41:0b:27:47:3f:ef:cc:94:0c:09:dc:fb:7f:fe:1b:3a:8e:e1:
         c9:86:6f:e9:06:75:57:39
-----BEGIN CERTIFICATE-----
MIIIlzCCBn+gAwIBAgIQJ8ioID1mAaItp8WpFOdjZzANBgkqhkiG9w0BAQsFADAk
MSIwIAYDVQQDExlGYWtlIENBIGZvciBabGludCB0ZXN0aW5nMB4XDTI1MDkwMzA4
MjYxN1oXDTI2MDkwMzA4MjYxN1owJDEiMCAGA1UEAwwZTGVvbi5NYW5kcmFrZUBl
eGFtcGxlLmNvbTCCBTIwCwYJYIZIAWUDBAMRA4IFIQAIBXxgoTb4oIBueKQ73xlA
FrlaBICujwMcyWK4GpK6UoerwblyVhITLxbKl0PbljU26FxlDKxBt+B8mqSCBfBT
OMYjg+a3Zj5pqNzHnTAA5NPoe/Th2KaDTIzPrNWdADcS8yFJk7ymq4qaEoQUY2X/
bCTbBRVUPqe2jjUVbAkEBXef6YyTDYD0kT8fZ0M2f0J2smRad4HJskUoxMVQVrT4
VMVQXpaa6gwmVas6vtR6ZznrVGgIiB8gRMgOM1sxbL2nvWMfiXYtpcxIOcrKckKK
1tBeouwFiZq0VmyKqcimpatslSyxMm+3HYAI0fyBBumkXOQ2TQqZsV3ozenZBHi9
ZFHvZj0bU5I75KKrHqjo21dNPAC/vGPbh7QOKycrRqAmVuQg9L2yXaJjLDx+I9ik
I41xfU7oBIRmCgJ+jxm8bT55TPr5NL3tIc1rf6Tf/FScbJr6ehlgWA3QU6LTd29T
ZGH+17mUs+vkbO4hHooBL7QiLDeVcJ4CUIbjfpPr7tJXLkhDvvwKgNFNfEXvCuQs
XEsHfybpLg2CyB1wqY1Fp47SkHXu9f/iOMcJ9FhgdiW61lPMnneqsTKjr/nv58M6
52xnssQCpxjYrOjhPnhbAW+SobMT9eg1IfPhU96xvaXyaLLqprNqx6D+aFB8Tf8l
5vbAbyOJKZ2MsvUWMOyo58wtkPkh1Ep+lEqssWFRjC5f44MXKiIHLXttOv7r4dPI
BGOW4+V5R9zb60CEcL/u0Pjb7EXQ3lKScG/pXy8nTiK30/hdqBUmS/igVvtO83hS
TTpdw5pr+30vwPKaTh0ybEsPioaKYCbA/czHbz23luhKAtHaFsCyKfVkq0N4BDJV
PAxskiA+YVsE/zpqanCajgbUP8hdNcjYkTiwjoGm+VALeERdn/rzNGm4JOFbtnxd
Nxlyj9fpOltbLDfq6nnF1Ht52pk/Aw5Pj2sBFC9F/HQzv/2Ox7z/Kdzv+TG/LFxK
0w6eP1IRYWMTJ6EGgBJaLox3EjENZLpyN9RdNFKiitcIcfDhA25/tHNiOEaOlnbF
XkJSurJ/DCjLrJGz5VYEtee6RYWCmRLEOGyNqwm2vpbnLb37KgbuHJqAowwy98Mn
JCP5FbaXWkCVnBzCTAYWCPUWaHdfC4N4SFlrzycbz+WtUf+zC05rc+AHFKGwUkx5
X7sNon5nkWaN92GUDfOhp1LU8qlTPC3dpvVh04L76r9z55VCwKNs35ZASj/p5C03
juSkutyhqN0CNBt9RW9PUPd1ujyaixLHbhSH08w+MtguVubgh2NKy2OaGrGcRoGN
LoPvwoYbITxvzfcuTZIVNdKxG6VYYrX9xnbMgUy9jKYhHl1Y/QcWAzNmC+N2ACFA
IDO+45J6cl0IEAIPKBeiCMW8QwJ7lIO4FiWDb+jKogYfwqS02yYajda0jxM4rj7O
qiWoqwdI2IHMEPAk/cHc1n3FOo1expqQyMMANOdvUyaM1vTh8ZlPSWXSsJMZYcFM
556uffvx1hp3cs6MCjNT8BR4XZSJB+56QRxTgjzH8M6FUQ5jDjSgGygb3u3m4jFm
GrMZ8z7gc7JvmaaRnuFZRjqn47RQHOMVGlyuWmkmM+pnk7BEk1GuWQBLT4P1+P1c
tYLdQtAnhHTV6yPwOxubFxmcL/ovFjNUJ4luF4MbR6VEpSM1aYqFTAJEu/6iuqth
MAHg43qHekBeqiTrkGk6Hr6b6nmmrwYPzbsxqBkpGCl52Vekl4l6pjYL0FNY3om3
o4G0MIGxMA4GA1UdDwEB/wQEAwIHgDATBgNVHSUEDDAKBggrBgEFBQcDBDAUBgNV
HSAEDTALMAkGB2eBDAEFAQMwHwYDVR0jBBgwFoAU6Lb2dkvQO+VGpflU1H4Hs94N
YD4wJAYDVR0RBB0wG4EZTGVvbi5NYW5kcmFrZUBleGFtcGxlLmNvbTAtBgNVHR8E
JjAkMCKgIKAehhxodHRwOi8vY2Euc29tZWNhLWluYy5jb20vY3JsMA0GCSqGSIb3
DQEBCwUAA4ICAQDaKLNojF0o+gS3FZOgFyyK6oOA8Ag3zTDVe+lMcBCOZ696BQ9O
yOqzJFRJQICH0XRLkuVJBE4iZcM37NlUGiB9ol+6Jv7VpPuX1FEmF1/mwjWJkSAA
UIwIatrerdG49a4SKjZuhTy8utIER9U/qc/zwmpxGQz4E1+jWIxor9j3gtR2H0fC
1EGK7bMeMOpohlIf52SELSMsEDHmcB7ikJd/nEFQhwA1+3Hd+lTkVKEY7r5iMSUx
B6D37JFq7u7BsSJ7Wj7nczo7GMANnjCyIq/MEanzSAeNFpChAnm54cCKsX6sdrY0
kA3ElS0U4qzmogOmNQDjPCP9ym5oXqaae/5KxHStAyg+TLkG6BK2wI0gWccqmtFa
46dbXOxUOkpYSYuBxUuqjDJF0K+gytXcQJdZPHEp9KLU/RI9+DuEYVtBpOsWMFgX
3v1I6WBcQn2jfjrM47S0dmeUE+okaqsSAkZfgNw/cxLGClnQhWPcAHsGQPcNXjIX
ry3pGgJtsMeabvufvUJ++eRlgQVn/dWn0qek8/8vfDiXKR9O79H3zEqB+T5uKqwR
rAjzT83bcxTOP4VXzk64AxM6vf4v1UY0xZZDegWIHNSkmpUY6hK/J+ICRdJYx5VE
RTi2GGKvCQZQ05zcsOwK+GtBCydHP+/MlAwJ3Pt//hs6juHJhm/pBnVXOQ==
-----END CERTIFICATE-----
