Certificate:
    Data:
        Version: 3 (0x2)
        Serial Number:
            37:4f:f6:22:e1:20:7c:8b:39:7e:e7:67:62:21:5a:23
        Signature Algorithm: sha256WithRSAEncryption
        Issuer: C = XX, O = Some CA, CN = Fake CA for Zlint testing
        Validity
            Not Before: Sep  3 08:15:04 2025 GMT
            Not After : Sep  3 08:15:04 2026 GMT
        Subject: CN = Guenter.Grass@example.com
        Subject Public Key Info:
            Public Key Algorithm: ED25519
                ED25519 Public-Key:
                pub:
                    3f:c3:78:db:d3:04:f8:70:33:13:ba:26:ed:5b:0a:
                    27:76:2f:6a:20:da:b6:4e:fa:d2:c5:f9:ae:2f:6b:
                    28:1f
        X509v3 extensions:
            X509v3 Key Usage: critical
                Digital Signature
            X509v3 Extended Key Usage: 
                TLS Web Client Authentication, E-mail Protection
            X509v3 Subject Key Identifier: 
                DE:8A:84:7B:FF:8C:34:3D:69:B8:53:A2:15:E6:EE:77:5E:F2:EF:96
            X509v3 Authority Key Identifier: 
                keyid:E8:B6:F6:76:4B:D0:3B:E5:46:A5:F9:54:D4:7E:07:B3:DE:0D:60:3E

            Authority Information Access: 
                OCSP - URI:http://ca.someca-inc.com/ocsp
                CA Issuers - URI:http://ca.someca-inc.com/root

            X509v3 Subject Alternative Name: 
                email:Guenter.Grass@example.com
            X509v3 Certificate Policies: 
                Policy: 2.23.140.1.5.1.3

            X509v3 CRL Distribution Points: 

                Full Name:
                  URI:http://ca.someca-inc.com/crl

    Signature Algorithm: sha256WithRSAEncryption
         51:e8:d3:a5:9f:5f:44:fe:92:a1:da:d1:f1:30:c6:77:1c:eb:
         30:23:b8:ff:c6:5a:ad:5b:8d:94:1d:50:09:a8:5b:62:14:30:
         38:7b:c4:2a:31:13:21:bf:74:39:c4:1b:7f:b5:b7:48:fe:28:
         0e:90:4e:3c:33:68:16:39:fb:f9:7f:d7:08:82:d8:b7:e0:ff:
         10:b1:7f:08:04:f2:ef:8a:1f:87:d9:02:a7:18:a4:ac:b4:66:
         ac:26:e9:52:40:0a:92:68:dd:f3:19:aa:66:5d:49:93:fa:1e:
         51:2c:e9:43:c8:ff:fe:7d:10:8a:d9:0c:9c:87:26:0f:21:2a:
         93:22:c8:c0:2b:3f:49:03:5c:b7:51:e2:90:53:6e:36:96:6b:
         be:40:c4:15:8b:88:bb:72:36:03:46:72:88:26:44:f5:b4:85:
         da:03:09:9f:8f:17:5c:41:b3:81:9d:95:e7:51:9f:20:2e:5c:
         38:ba:96:a1:88:40:ed:d4:0b:18:c3:9c:df:48:24:7f:3d:c8:
         fd:93:91:1d:f3:fc:c1:cc:a6:39:e2:75:29:f9:b4:33:5f:0f:
         18:e7:93:36:e0:6b:b3:4d:f7:87:d7:3e:fe:98:ff:15:ec:92:
         d4:ee:f3:32:5f:8c:f3:fc:09:b2:5f:01:49:a9:fc:53:8e:e8:
         ff:16:34:ce:76:fa:51:aa:30:51:05:59:ff:a0:5f:e5:55:59:
         65:dc:68:f2:0f:6a:63:f8:e1:22:52:e3:f2:5a:e8:a7:a9:19:
         5d:69:74:b3:be:a0:4e:02:32:51:69:47:f1:23:e5:a1:16:59:
         11:f6:06:1c:5f:1f:10:06:f5:4e:d1:37:e8:55:87:1d:53:92:
         ce:0f:a7:6e:3d:ea:a2:df:b8:eb:aa:3c:67:01:4b:8c:1b:41:
         47:88:bd:ab:59:88:3c:38:73:ad:ef:5d:a6:99:41:4f:b2:b7:
         50:39:2d:e2:f2:cc:b6:3c:81:47:ee:66:e7:ca:b3:79:95:c9:
         97:1d:7b:bc:42:18:ed:69:61:96:af:c3:b1:57:04:5b:52:54:
         5b:0c:7a:f9:6a:1f:cf:78:d2:ec:be:2a:28:9e:38:3e:2d:8c:
         62:63:68:95:a9:47:3b:11:4f:77:04:93:c0:66:1a:18:e2:90:
         aa:d5:d8:c2:6c:ec:fd:14:ce:81:e7:1b:a1:a8:23:66:95:25:
         79:49:f0:34:b3:4d:73:88:11:11:55:f9:82:b2:44:7e:fb:83:
         d9:82:7b:4f:72:15:a5:2e:c6:dd:52:f5:cf:6e:74:4a:5e:4e:
         bd:77:6f:a9:c9:6d:f5:8e:1c:b1:91:1a:34:ff:af:b4:14:aa:
         8f:9b:d1:99:20:e8:91:b6
-----BEGIN CERTIFICATE-----
MIIEPTCCAiWgAwIBAgIQN0/2IuEgfIs5fudnYiFaIzANBgkqhkiG9w0BAQsFADBD
MQswCQYDVQQGEwJYWDEQMA4GA1UEChMHU29tZSBDQTEiMCAGA1UEAxMZRmFrZSBD
QSBmb3IgWmxpbnQgdGVzdGluZzAeFw0yNTA5MDMwODE1MDRaFw0yNjA5MDMwODE1
MDRaMCQxIjAgBgNVBAMMGUd1ZW50ZXIuR3Jhc3NAZXhhbXBsZS5jb20wKjAFBgMr
ZXADIQA/w3jb0wT4cDMTuibtWwondi9qINq2TvrSxfmuL2soH6OCAUQwggFAMA4G
A1UdDwEB/wQEAwIHgDAdBgNVHSUEFjAUBggrBgEFBQcDAgYIKwYBBQUHAwQwHQYD
VR0OBBYEFN6KhHv/jDQ9abhTohXm7nde8u+WMB8GA1UdIwQYMBaAFOi29nZL0Dvl
RqX5VNR+B7PeDWA+MGQGCCsGAQUFBwEBBFgwVjApBggrBgEFBQcwAYYdaHR0cDov
L2NhLnNvbWVjYS1pbmMuY29tL29jc3AwKQYIKwYBBQUHMAKGHWh0dHA6Ly9jYS5z
b21lY2EtaW5jLmNvbS9yb290MCQGA1UdEQQdMBuBGUd1ZW50ZXIuR3Jhc3NAZXhh
bXBsZS5jb20wFAYDVR0gBA0wCzAJBgdngQwBBQEDMC0GA1UdHwQmMCQwIqAgoB6G
HGh0dHA6Ly9jYS5zb21lY2EtaW5jLmNvbS9jcmwwDQYJKoZIhvcNAQELBQADggIB
AFHo06WfX0T+kqHa0fEwxncc6zAjuP/GWq1bjZQdUAmoW2IUMDh7xCoxEyG/dDnE
G3+1t0j+KA6QTjwzaBY5+/l/1wiC2Lfg/xCxfwgE8u+KH4fZAqcYpKy0Zqwm6VJA
CpJo3fMZqmZdSZP6HlEs6UPI//59EIrZDJyHJg8hKpMiyMArP0kDXLdR4pBTbjaW
a75AxBWLiLtyNgNGcogmRPW0hdoDCZ+PF1xBs4GdledRnyAuXDi6lqGIQO3UCxjD
nN9IJH89yP2TkR3z/MHMpjnidSn5tDNfDxjnkzbga7NN94fXPv6Y/xXsktTu8zJf
jPP8CbJfAUmp/FOO6P8WNM52+lGqMFEFWf+gX+VVWWXcaPIPamP44SJS4/Ja6Kep
GV1pdLO+oE4CMlFpR/Ej5aEWWRH2BhxfHxAG9U7RN+hVhx1Tks4Pp2496qLfuOuq
PGcBS4wbQUeIvatZiDw4c63vXaaZQU+yt1A5LeLyzLY8gUfuZufKs3mVyZcde7xC
GO1pYZavw7FXBFtSVFsMevlqH8940uy+KiieOD4tjGJjaJWpRzsRT3cEk8BmGhji
kKrV2MJs7P0UzoHnG6GoI2aVJXlJ8DSzTXOIERFV+YKyRH77g9mCe09yFaUuxt1S
9c9udEpeTr13b6nJbfWOHLGRGjT/r7QUqo+b0Zkg6JG2
-----END CERTIFICATE-----
