Certificate:
    Data:
        Version: 3 (0x2)
        Serial Number:
            88:47:57:8b:e8:0b:70:89:e0:cd:8d:17:95:ea:47:67:25:32:11
        Signature Algorithm: sha256WithRSAEncryption
        Issuer: C=XX, O=Some CA, CN=Fake CA for Zlint testing
        Validity
            Not Before: Jul 29 07:42:36 2025 GMT
            Not After : Jul 29 07:42:36 2026 GMT
        Subject: emailAddress=Guenter.Grass@example.com
        Subject Public Key Info:
            Public Key Algorithm: GOST R 34.10-2012 with 256 bit modulus
            Unable to load Public Key
00345EABBF7F0000:error:03000072:digital envelope routines:X509_PUBKEY_get0:decode error:crypto/x509/x_pubkey.c:464:
00345EABBF7F0000:error:03000072:digital envelope routines:X509_PUBKEY_get0:decode error:crypto/x509/x_pubkey.c:464:
        X509v3 extensions:
            X509v3 Key Usage: critical
                Digital Signature
            X509v3 Extended Key Usage: 
                E-mail Protection
            X509v3 Authority Key Identifier: 
                A6:40:A5:0A:D5:69:15:EE:C3:04:72:96:3B:F2:55:6F:44:9C:DC:9D
            X509v3 Subject Alternative Name: 
                email:Guenter.Grass@example.com
            Authority Information Access: 
                OCSP - URI:http://ca.someca-inc.com/ocsp
            X509v3 CRL Distribution Points: 
                Full Name:
                  URI:http://ca.someca-inc.com/crl
            X509v3 Certificate Policies: 
                Policy: 2.23.140.1.5.1.3
            X509v3 Subject Key Identifier: 
                44:EA:00:3B:BD:F9:C3:9C:0B:84:AD:B4:A6:17:1C:90:41:65:17:46
    Signature Algorithm: sha256WithRSAEncryption
    Signature Value:
        ba:3e:e1:f2:66:2a:38:8c:28:7b:ec:32:77:81:44:38:a4:f1:
        3f:94:f7:73:8f:74:6a:4c:cd:f4:2a:5d:02:91:2f:2b:95:51:
        90:9f:cf:8b:e8:aa:06:68:e2:0c:62:32:04:37:7e:35:85:79:
        bd:c6:49:de:e1:91:6c:82:e0:59:ab:72:8d:1e:0c:0b:17:d0:
        66:ef:6a:95:f0:46:26:83:79:19:2b:f7:0c:5c:1b:d4:aa:26:
        5a:1f:d3:f0:ae:14:c5:85:bf:38:4d:b6:84:25:b7:57:61:17:
        72:1b:f9:c5:c5:bd:26:66:7f:11:1e:9d:ca:ec:68:b4:b7:db:
        55:66:32:da:61:35:c6:ac:87:9a:78:da:e6:c7:11:13:07:c1:
        6e:9b:47:e1:06:79:fc:bd:11:6c:27:e7:3a:16:f5:2f:90:df:
        fe:35:15:8a:61:03:b5:e1:32:58:11:fa:90:c0:f2:11:56:97:
        32:cc:cf:6e:84:76:71:6e:52:66:2f:ac:05:73:c0:35:9e:09:
        62:16:96:11:41:fb:b5:3c:8b:11:9e:43:16:18:a1:4f:73:6e:
        f6:c1:21:00:ab:b0:d9:58:77:b7:b7:73:01:8f:2a:ee:dd:49:
        78:c2:5d:00:5d:82:17:66:c4:ba:bd:33:87:ec:d7:2f:13:8b:
        64:e5:0c:54:f0:38:35:60:bb:c2:6e:30:d9:42:9c:b8:00:bd:
        ed:78:16:49:1d:6e:b5:1e:77:4a:90:52:12:94:6e:7c:5c:ba:
        aa:5a:4c:4c:32:24:a8:96:c9:dc:e0:84:4d:ae:96:f2:b7:e8:
        9c:19:87:64:5b:ef:2e:43:ab:ce:dc:e3:a3:5c:ef:0c:37:79:
        77:5f:65:42:bf:78:28:0b:b3:62:5f:fe:c5:4d:10:7e:56:f7:
        97:1b:75:53:63:0c:da:08:5e:24:d3:d5:3d:c3:ec:cf:0e:43:
        71:46:b2:32:28:ef:0b:ad:2c:fd:f7:47:79:5c:95:b7:9c:0e:
        ea:22:4a:6d:f3:f9:74:86:87:9a:e3:b6:74:76:30:d9:fc:e0:
        1f:e0:94:94:c3:f5:8d:a8:d4:6e:42:6b:98:f6:81:fb:dd:61:
        59:18:e5:ae:04:b6:c9:93:05:d9:99:6a:dc:dc:38:f1:33:30:
        3f:92:40:5c:5d:77:e1:ef:67:7a:a8:61:6b:b5:d2:f1:bb:a4:
        84:6f:9a:ec:c9:05:6b:f5:c1:24:7c:70:cb:3d:a1:6d:7b:7c:
        ef:57:ab:4e:14:b1:00:57:90:d2:1c:6f:1a:80:bb:7b:59:a6:
        ba:8b:e3:07:56:e0:5c:46:fe:4b:65:8f:b6:6e:2a:9e:e8:7c:
        9d:17:2a:30:0b:96:47:20
-----BEGIN CERTIFICATE-----
MIIETjCCAjagAwIBAgIUAIhHV4voC3CJ4M2NF5XqR2clMhEwDQYJKoZIhvcNAQEL
BQAwQzELMAkGA1UEBhMCWFgxEDAOBgNVBAoMB1NvbWUgQ0ExIjAgBgNVBAMMGUZh
a2UgQ0EgZm9yIFpsaW50IHRlc3RpbmcwHhcNMjUwNzI5MDc0MjM2WhcNMjYwNzI5
MDc0MjM2WjAqMSgwJgYJKoZIhvcNAQkBFhlHdWVudGVyLkdyYXNzQGV4YW1wbGUu
Y29tMGYwHwYIKoUDBwEBAQEwEwYHKoUDAgIjAQYIKoUDBwEBAgIDQwAEQL4KN/gR
nmTwQ5T37dmlfHoQLfwSIXNmoVKA/wEydBd6vbQdZoBkoMzZ55Yt69sc2Bsn+kTu
e7qqUp9wndnGFdyjggEPMIIBCzAOBgNVHQ8BAf8EBAMCB4AwEwYDVR0lBAwwCgYI
KwYBBQUHAwQwHwYDVR0jBBgwFoAUpkClCtVpFe7DBHKWO/JVb0Sc3J0wJAYDVR0R
BB0wG4EZR3VlbnRlci5HcmFzc0BleGFtcGxlLmNvbTA5BggrBgEFBQcBAQQtMCsw
KQYIKwYBBQUHMAGGHWh0dHA6Ly9jYS5zb21lY2EtaW5jLmNvbS9vY3NwMC0GA1Ud
HwQmMCQwIqAgoB6GHGh0dHA6Ly9jYS5zb21lY2EtaW5jLmNvbS9jcmwwFAYDVR0g
BA0wCzAJBgdngQwBBQEDMB0GA1UdDgQWBBRE6gA7vfnDnAuErbSmFxyQQWUXRjAN
BgkqhkiG9w0BAQsFAAOCAgEAuj7h8mYqOIwoe+wyd4FEOKTxP5T3c490akzN9Cpd
ApEvK5VRkJ/Pi+iqBmjiDGIyBDd+NYV5vcZJ3uGRbILgWatyjR4MCxfQZu9qlfBG
JoN5GSv3DFwb1KomWh/T8K4UxYW/OE22hCW3V2EXchv5xcW9JmZ/ER6dyuxotLfb
VWYy2mE1xqyHmnja5scREwfBbptH4QZ5/L0RbCfnOhb1L5Df/jUVimEDteEyWBH6
kMDyEVaXMszPboR2cW5SZi+sBXPANZ4JYhaWEUH7tTyLEZ5DFhihT3Nu9sEhAKuw
2Vh3t7dzAY8q7t1JeMJdAF2CF2bEur0zh+zXLxOLZOUMVPA4NWC7wm4w2UKcuAC9
7XgWSR1utR53SpBSEpRufFy6qlpMTDIkqJbJ3OCETa6W8rfonBmHZFvvLkOrztzj
o1zvDDd5d19lQr94KAuzYl/+xU0Qflb3lxt1U2MM2gheJNPVPcPszw5DcUayMijv
C60s/fdHeVyVt5wO6iJKbfP5dIaHmuO2dHYw2fzgH+CUlMP1jajUbkJrmPaB+91h
WRjlrgS2yZMF2Zlq3Nw48TMwP5JAXF134e9neqhha7XS8bukhG+a7MkFa/XBJHxw
yz2hbXt871erThSxAFeQ0hxvGoC7e1mmuovjB1bgXEb+S2WPtm4qnuh8nRcqMAuW
RyA=
-----END CERTIFICATE-----
