Certificate:
    Data:
        Version: 3 (0x2)
        Serial Number:
            08:f7:d9:2b:fd:56:3d:f4:23:15:f6:cd:db:a7:2e:08
        Signature Algorithm: sha256WithRSAEncryption
        Issuer: C=XX, O=Some CA, CN=Fake CA for Zlint testing
        Validity
            Not Before: Jul 29 05:45:06 2025 GMT
            Not After : Jul 29 05:45:06 2026 GMT
        Subject: CN=Guenter.Grass@example.com
        Subject Public Key Info:
            Public Key Algorithm: id-ecPublicKey
                Public-Key: (521 bit)
                pub:
                    04:00:31:9f:20:59:8b:ad:1e:49:24:74:f2:d8:5e:
                    ec:46:34:6f:bb:ec:c7:f6:9c:f4:e3:47:14:f7:4d:
                    6c:e7:86:86:71:c7:48:37:74:d0:ab:68:1b:12:71:
                    3d:b1:a7:bb:34:d1:c4:88:ce:08:f4:d4:4b:8f:9b:
                    b1:47:67:0e:e9:1e:50:01:f2:24:1b:ca:d8:52:6e:
                    7c:56:44:9b:46:fe:4d:7a:1b:9c:e4:56:62:82:e9:
                    8a:7a:81:54:16:20:e6:9c:83:a1:be:e5:eb:c5:81:
                    7b:4c:ee:96:f6:4b:38:af:d9:bd:8e:1a:ef:f4:44:
                    36:62:f6:9e:0a:41:d9:3a:74:6b:c0:ac:a8
                ASN1 OID: secp521r1
                NIST CURVE: P-521
        X509v3 extensions:
            X509v3 Key Usage: critical
                Digital Signature
            X509v3 Extended Key Usage: 
                TLS Web Client Authentication, E-mail Protection
            X509v3 Subject Key Identifier: 
                DE:8A:84:7B:FF:8C:34:3D:69:B8:53:A2:15:E6:EE:77:5E:F2:EF:96
            X509v3 Authority Key Identifier: 
                E8:B6:F6:76:4B:D0:3B:E5:46:A5:F9:54:D4:7E:07:B3:DE:0D:60:3E
            Authority Information Access: 
                OCSP - URI:http://ca.someca-inc.com/ocsp
                CA Issuers - URI:http://ca.someca-inc.com/root
            X509v3 Subject Alternative Name: 
                email:Guenter.Grass@example.com
            X509v3 Certificate Policies: 
                Policy: 2.23.140.1.5.1.3
            X509v3 CRL Distribution Points: 
                Full Name:
                  URI:http://ca.someca-inc.com/crl
    Signature Algorithm: sha256WithRSAEncryption
    Signature Value:
        94:73:03:2b:03:2d:e7:db:a9:53:12:8a:d0:9e:88:37:5c:85:
        ba:84:e9:63:0d:b3:2d:e1:36:46:4d:99:d7:8e:d2:c2:d6:a4:
        6d:f4:e8:6b:b2:71:5b:27:58:96:7a:58:00:2d:01:2b:8d:e2:
        51:e2:86:96:cb:ca:f1:d4:ad:26:23:0f:8c:6e:ca:af:65:8a:
        f8:f9:5d:12:06:ed:63:7a:d9:b9:53:3c:db:e8:0c:d4:0a:41:
        1e:13:74:64:ee:44:56:fa:c1:0c:bd:52:0c:9e:6a:4f:a2:c3:
        64:24:43:e9:ff:96:ba:0e:6a:a5:53:70:45:ae:e7:f2:59:24:
        7b:aa:cd:73:1b:cb:bd:d7:a7:84:aa:c8:43:b9:76:88:16:8c:
        03:52:48:bf:4f:44:94:e8:ae:b9:38:6d:ee:05:1f:92:2a:67:
        fb:e6:e3:1f:0a:40:39:41:3a:14:aa:94:fe:26:5a:a1:af:18:
        25:4c:5a:80:03:d2:f3:02:fd:b3:84:6c:a9:85:26:93:e8:6f:
        9a:e2:5b:44:6a:f7:f2:7f:b2:20:f6:66:37:95:50:fc:9a:63:
        b6:a9:3d:2b:6c:c5:e8:f2:6f:2a:bb:46:0e:28:40:77:50:e1:
        e3:51:0c:9d:f5:27:3b:b4:8e:80:fe:6d:50:ad:ca:02:bf:0d:
        92:a6:9e:55:fd:be:33:a3:dd:3c:59:e8:53:ef:c2:d8:7c:38:
        c4:0d:e3:80:9f:da:7f:41:07:64:a4:3a:01:ba:f0:a2:8a:d8:
        d2:01:2e:9d:32:2d:7e:6f:6d:c4:43:7e:15:ab:fa:4b:b9:82:
        7f:04:de:7e:04:ea:39:4f:8d:95:01:f3:d3:bd:6c:12:14:6c:
        71:81:c2:f7:77:be:e3:41:39:bd:26:2c:9b:d1:29:89:dc:17:
        29:93:99:a7:26:2a:6b:6c:31:f2:36:20:79:fc:25:11:72:af:
        4b:5a:2c:90:2f:40:ff:69:6b:79:90:9e:87:47:cb:9c:27:92:
        41:d3:e9:ce:0a:38:64:b5:9a:22:23:71:43:92:a6:12:89:97:
        1a:85:6d:41:62:81:02:f4:b9:75:c8:d4:23:1b:18:c5:92:26:
        0d:81:d3:78:32:f4:a4:68:f2:9e:00:8c:5e:b7:68:d6:6a:7e:
        d2:ca:42:d0:ad:f1:5b:25:29:00:dd:35:1c:8c:c4:af:90:50:
        26:7b:4b:4d:ff:38:ff:ad:e8:74:9a:fd:f5:70:e8:20:26:82:
        82:24:b9:76:7f:26:13:9f:ca:ef:19:03:23:0e:69:3b:62:95:
        f9:e3:8a:0a:76:28:39:06:64:04:e7:dd:1d:6d:e9:b6:96:4d:
        35:cc:35:8e:fb:b1:04:6e
-----BEGIN CERTIFICATE-----
MIIErzCCApegAwIBAgIQCPfZK/1WPfQjFfbN26cuCDANBgkqhkiG9w0BAQsFADBD
MQswCQYDVQQGEwJYWDEQMA4GA1UEChMHU29tZSBDQTEiMCAGA1UEAxMZRmFrZSBD
QSBmb3IgWmxpbnQgdGVzdGluZzAeFw0yNTA3MjkwNTQ1MDZaFw0yNjA3MjkwNTQ1
MDZaMCQxIjAgBgNVBAMMGUd1ZW50ZXIuR3Jhc3NAZXhhbXBsZS5jb20wgZswEAYH
KoZIzj0CAQYFK4EEACMDgYYABAAxnyBZi60eSSR08the7EY0b7vsx/ac9ONHFPdN
bOeGhnHHSDd00KtoGxJxPbGnuzTRxIjOCPTUS4+bsUdnDukeUAHyJBvK2FJufFZE
m0b+TXobnORWYoLpinqBVBYg5pyDob7l68WBe0zulvZLOK/ZvY4a7/RENmL2ngpB
2Tp0a8CsqKOCAUQwggFAMA4GA1UdDwEB/wQEAwIHgDAdBgNVHSUEFjAUBggrBgEF
BQcDAgYIKwYBBQUHAwQwHQYDVR0OBBYEFN6KhHv/jDQ9abhTohXm7nde8u+WMB8G
A1UdIwQYMBaAFOi29nZL0DvlRqX5VNR+B7PeDWA+MGQGCCsGAQUFBwEBBFgwVjAp
BggrBgEFBQcwAYYdaHR0cDovL2NhLnNvbWVjYS1pbmMuY29tL29jc3AwKQYIKwYB
BQUHMAKGHWh0dHA6Ly9jYS5zb21lY2EtaW5jLmNvbS9yb290MCQGA1UdEQQdMBuB
GUd1ZW50ZXIuR3Jhc3NAZXhhbXBsZS5jb20wFAYDVR0gBA0wCzAJBgdngQwBBQED
MC0GA1UdHwQmMCQwIqAgoB6GHGh0dHA6Ly9jYS5zb21lY2EtaW5jLmNvbS9jcmww
DQYJKoZIhvcNAQELBQADggIBAJRzAysDLefbqVMSitCeiDdchbqE6WMNsy3hNkZN
mdeO0sLWpG306GuycVsnWJZ6WAAtASuN4lHihpbLyvHUrSYjD4xuyq9livj5XRIG
7WN62blTPNvoDNQKQR4TdGTuRFb6wQy9Ugyeak+iw2QkQ+n/lroOaqVTcEWu5/JZ
JHuqzXMby73Xp4SqyEO5dogWjANSSL9PRJTorrk4be4FH5IqZ/vm4x8KQDlBOhSq
lP4mWqGvGCVMWoAD0vMC/bOEbKmFJpPob5riW0Rq9/J/siD2ZjeVUPyaY7apPSts
xejybyq7Rg4oQHdQ4eNRDJ31Jzu0joD+bVCtygK/DZKmnlX9vjOj3TxZ6FPvwth8
OMQN44Cf2n9BB2SkOgG68KKK2NIBLp0yLX5vbcRDfhWr+ku5gn8E3n4E6jlPjZUB
89O9bBIUbHGBwvd3vuNBOb0mLJvRKYncFymTmacmKmtsMfI2IHn8JRFyr0taLJAv
QP9pa3mQnodHy5wnkkHT6c4KOGS1miIjcUOSphKJlxqFbUFigQL0uXXI1CMbGMWS
Jg2B03gy9KRo8p4AjF63aNZqftLKQtCt8VslKQDdNRyMxK+QUCZ7S03/OP+t6HSa
/fVw6CAmgoIkuXZ/JhOfyu8ZAyMOaTtilfnjigp2KDkGZATn3R1t6baWTTXMNY77
sQRu
-----END CERTIFICATE-----
