Certificate:
    Data:
        Version: 3 (0x2)
        Serial Number:
            8f:81:f2:ff:02:52:bf:05:c2:5a:90:cb:5e:e3:27:c4
        Signature Algorithm: sha256WithRSAEncryption
        Issuer: CN=Fake CA for Zlint testing
        Validity
            Not Before: Jul 22 06:46:11 2025 GMT
            Not After : Jul 22 06:46:11 2026 GMT
        Subject: CN=Leon.Mandrake@example.com
        Subject Public Key Info:
            Public Key Algorithm: 2.16.840.1.101.3.4.4.1
            Unable to load Public Key
005455515E7F0000:error:03000072:digital envelope routines:X509_PUBKEY_get0:decode error:crypto/x509/x_pubkey.c:464:
005455515E7F0000:error:03000072:digital envelope routines:X509_PUBKEY_get0:decode error:crypto/x509/x_pubkey.c:464:
        X509v3 extensions:
            X509v3 Key Usage: critical
                Digital Signature
            X509v3 Extended Key Usage: 
                E-mail Protection
            X509v3 Certificate Policies: 
                Policy: 2.23.140.1.5.1.3
            X509v3 Authority Key Identifier: 
                E8:B6:F6:76:4B:D0:3B:E5:46:A5:F9:54:D4:7E:07:B3:DE:0D:60:3E
            X509v3 Subject Alternative Name: 
                email:Leon.Mandrake@example.com
            X509v3 CRL Distribution Points: 
                Full Name:
                  URI:http://ca.someca-inc.com/crl
    Signature Algorithm: sha256WithRSAEncryption
    Signature Value:
        38:fd:42:c7:f9:29:cc:96:1e:3f:18:c1:53:e6:47:db:d1:87:
        f3:e8:9e:2c:69:ad:9e:23:06:6e:a3:f4:ed:bc:db:3f:fe:3e:
        54:b4:48:67:6e:1b:1b:f9:67:f4:c2:f6:c8:b2:7c:22:98:43:
        f0:f1:8c:7d:8d:00:06:f9:6f:a3:39:00:1a:4c:8f:b4:ab:ac:
        0b:cc:c9:22:66:21:34:e8:01:1d:77:f8:69:f5:42:93:95:da:
        7d:0a:75:00:86:e6:c0:00:72:d5:1b:33:ca:bd:e5:53:1f:70:
        d1:47:b5:4c:6d:02:a1:ab:c2:aa:a7:19:4e:d4:b1:42:49:b8:
        2f:85:43:fc:3d:23:9e:71:1a:d4:44:eb:dd:58:55:24:8a:d1:
        21:34:ad:f2:7d:50:47:82:fc:50:8e:33:27:cc:5b:ad:da:6f:
        16:c0:44:33:80:8a:62:72:3c:4d:51:53:40:f7:f8:f1:43:54:
        0c:89:5c:5d:9b:7d:de:e3:be:2f:90:e0:e9:b5:c4:e2:ec:a6:
        18:72:df:58:bc:ae:58:36:3c:29:22:d6:63:87:fd:2f:ff:41:
        25:5b:34:ff:e0:5d:33:b9:25:75:f2:f4:da:40:71:a2:4d:3a:
        04:65:24:7c:24:91:43:5e:c7:3b:99:74:a4:d8:d3:dc:60:98:
        35:ef:74:ea:b4:ad:2c:2d:dd:3e:c1:e6:51:be:ea:31:4b:68:
        75:3c:6e:d8:d1:de:5c:ea:bf:4b:f0:df:e4:8c:07:7b:84:ff:
        38:14:2f:d9:6a:27:59:d4:dc:f5:20:30:cf:d7:29:88:38:2a:
        45:dd:79:c8:d2:7f:cc:dd:f7:e0:b1:23:e1:bf:38:9a:26:ff:
        68:36:89:dc:36:f1:c1:07:23:d4:3e:e1:d0:30:9d:57:a6:82:
        e2:3d:21:af:b1:45:72:59:b7:cc:d6:b4:2e:b6:99:28:e2:b5:
        e6:58:b2:8e:84:d8:54:e1:97:45:22:9b:10:79:2a:f7:4b:25:
        3c:1b:05:d8:79:b6:f4:97:5f:53:f5:cc:8b:1f:5d:6e:25:28:
        86:06:10:e2:93:b5:4c:5e:48:b5:40:97:00:3d:6d:f4:4a:cc:
        95:2e:26:12:fb:ca:54:9e:0b:69:86:36:86:d5:05:e9:ad:db:
        cc:b0:bf:88:c4:4c:01:c7:62:a3:c6:b8:7c:47:b5:ad:ed:cf:
        9a:e2:6b:70:c9:a7:f0:5f:75:05:00:ba:f3:13:b6:2f:72:a7:
        6c:f4:e0:bf:f3:92:b6:dd:09:56:b0:d2:95:cb:d8:34:76:f6:
        e3:05:1e:6a:b9:51:ad:58:ae:7b:52:fb:fd:72:f2:02:fe:2e:
        80:24:f3:7c:4f:f4:39:20
-----BEGIN CERTIFICATE-----
MIIGmDCCBICgAwIBAgIRAI+B8v8CUr8FwlqQy17jJ8QwDQYJKoZIhvcNAQELBQAw
JDEiMCAGA1UEAxMZRmFrZSBDQSBmb3IgWmxpbnQgdGVzdGluZzAeFw0yNTA3MjIw
NjQ2MTFaFw0yNjA3MjIwNjQ2MTFaMCQxIjAgBgNVBAMMGUxlb24uTWFuZHJha2VA
ZXhhbXBsZS5jb20wggMyMAsGCWCGSAFlAwQEAQOCAyEAh9Iq5vA6nXHImJCtGTx8
PzCJkrGWWQIlWYa8XlcbWpOOh2V6vwU+2iFBvWopNopBObx05KK87gopgds7cqOS
uRQaqTKp1jxpRlXPyvsmc7soSqjBC1LCEWeFzBGyPSluSJWJPsHPM6POwyAgFilr
1oedtSkDWKIFPml2D5o2xdQnjvUo4Sg/3kiwhBBR9xOisOMYq0E/OOsz6CpDfKw6
awFNhOtxGEMfecE1NMCO34g+EfIglGmjqiQo4kcmaLiQ1BaN4uVCFDmNKkI7a8nK
/OErTQihN4AvIIOBTWa2Q6fNozVM/7hYFytXONoUN7tUDrFI18M5tpJWH4mlksws
ifyJpVCLvSBxDJIYWSts2OI1eVlMqNAOO/s4kySD0wNUnEIhKOB4CSUXrdurrMSZ
87tWfAmtwDrOGKnNLssn5UoAd9ZTf4EEDqEbl0eRrnGUZkUqrAyYUaUAZsSTdQyo
aIASJZOtWvkZ1cY8FKmckOxgYfQDjduKSqJWyKyPxLQxtimV8rZhlBbLNtKau9vE
8SVSpwaBK7YGm2IfnsFP2owqqkhVugWPJTkSZJOTKSDBC2AloOzPwlWpRxiz1lWW
wzRfnsVZuKuKzJSoGyaNOfA2weuaJgKkTTXJDvwTxkwRcCYCW0JTh9BWVcIBO0eu
8sSs3EtjTWIoNewOh8cjF+gKJkdqbNNtMBdtEPIWfGCvodEDFYECSlNZx2Q44COk
ZLRDSjyJZlMHVsghEkJO6rA0I+y5LQw/dQNOv1BuvVtXULuG+GnHRTI5tfV03Dsj
0mdG0ziMu2RsMmGBDIc4f3VzbsqQeVdt/zjNyaFgxMVOLuGmsnCNimcnYtd0KJS4
pFcTY7AFBqKvmxc3MugwwGurztFq86wsjfcP7+inwGK+nRCqwPzH+PpHarbMlKsb
unKGG5hyKNkDcdt/vlYWageYvDeb08kVcvs6U/bPDqIX5Xu64DUZc8t9q+e659Qr
iDF+m1l5ZBAqbyVNm9RPaTA2VJHGk7kqmEmh+3S595uwgFWUVf6kovq6L4WArbtQ
S31943k2caxSPR3oWgGpJ3qjgbQwgbEwDgYDVR0PAQH/BAQDAgeAMBMGA1UdJQQM
MAoGCCsGAQUFBwMEMBQGA1UdIAQNMAswCQYHZ4EMAQUBAzAfBgNVHSMEGDAWgBTo
tvZ2S9A75Ual+VTUfgez3g1gPjAkBgNVHREEHTAbgRlMZW9uLk1hbmRyYWtlQGV4
YW1wbGUuY29tMC0GA1UdHwQmMCQwIqAgoB6GHGh0dHA6Ly9jYS5zb21lY2EtaW5j
LmNvbS9jcmwwDQYJKoZIhvcNAQELBQADggIBADj9Qsf5KcyWHj8YwVPmR9vRh/Po
nixprZ4jBm6j9O282z/+PlS0SGduGxv5Z/TC9siyfCKYQ/DxjH2NAAb5b6M5ABpM
j7SrrAvMySJmITToAR13+Gn1QpOV2n0KdQCG5sAActUbM8q95VMfcNFHtUxtAqGr
wqqnGU7UsUJJuC+FQ/w9I55xGtRE691YVSSK0SE0rfJ9UEeC/FCOMyfMW63abxbA
RDOAimJyPE1RU0D3+PFDVAyJXF2bfd7jvi+Q4Om1xOLsphhy31i8rlg2PCki1mOH
/S//QSVbNP/gXTO5JXXy9NpAcaJNOgRlJHwkkUNexzuZdKTY09xgmDXvdOq0rSwt
3T7B5lG+6jFLaHU8btjR3lzqv0vw3+SMB3uE/zgUL9lqJ1nU3PUgMM/XKYg4KkXd
ecjSf8zd9+CxI+G/OJom/2g2idw28cEHI9Q+4dAwnVemguI9Ia+xRXJZt8zWtC62
mSjiteZYso6E2FThl0UimxB5KvdLJTwbBdh5tvSXX1P1zIsfXW4lKIYGEOKTtUxe
SLVAlwA9bfRKzJUuJhL7ylSeC2mGNobVBemt28ywv4jETAHHYqPGuHxHta3tz5ri
a3DJp/BfdQUAuvMTti9yp2z04L/zkrbdCVaw0pXL2DR29uMFHmq5Ua1YrntS+/1y
8gL+LoAk83xP9Dkg
-----END CERTIFICATE-----
