Certificate:
    Data:
        Version: 3 (0x2)
        Serial Number:
            86:b9:bd:08:ac:47:49:31:96:c2:75:a7:c3:9a:b6:f2
        Signature Algorithm: sha256WithRSAEncryption
        Issuer: C = XX, O = Some CA, CN = Fake CA for Zlint testing
        Validity
            Not Before: Sep  3 08:13:20 2025 GMT
            Not After : Sep  3 08:13:20 2026 GMT
        Subject: CN = Guenter.Grass@example.com
        Subject Public Key Info:
            Public Key Algorithm: id-ecPublicKey
                Public-Key: (384 bit)
                pub:
                    04:cc:4f:49:34:aa:7a:70:40:8c:4d:83:6e:20:5c:
                    ad:3b:70:61:c6:38:bc:08:a6:20:63:ab:cc:f5:d5:
                    5f:7f:07:91:cf:37:12:f0:7e:fd:38:04:79:9a:70:
                    54:5b:12:6e:f1:83:04:9f:1b:3d:e6:76:25:d4:c3:
                    d7:04:df:04:9b:d9:07:dc:cc:64:41:1e:29:dc:ae:
                    ae:4e:2d:42:65:45:d8:ae:33:1e:99:c4:4f:c4:9c:
                    9a:5b:2d:2a:7c:d2:bf
                ASN1 OID: secp384r1
                NIST CURVE: P-384
        X509v3 extensions:
            X509v3 Key Usage: critical
                Digital Signature
            X509v3 Extended Key Usage: 
                TLS Web Client Authentication, E-mail Protection
            X509v3 Subject Key Identifier: 
                DE:8A:84:7B:FF:8C:34:3D:69:B8:53:A2:15:E6:EE:77:5E:F2:EF:96
            X509v3 Authority Key Identifier: 
                keyid:E8:B6:F6:76:4B:D0:3B:E5:46:A5:F9:54:D4:7E:07:B3:DE:0D:60:3E

            Authority Information Access: 
                OCSP - URI:http://ca.someca-inc.com/ocsp
                CA Issuers - URI:http://ca.someca-inc.com/root

            X509v3 Subject Alternative Name: 
                email:Guenter.Grass@example.com
            X509v3 Certificate Policies: 
                Policy: 2.23.140.1.5.1.3

            X509v3 CRL Distribution Points: 

                Full Name:
                  URI:http://ca.someca-inc.com/crl

    Signature Algorithm: sha256WithRSAEncryption
         5c:95:a8:d4:c7:9d:82:aa:2a:20:b0:2b:e4:17:b8:98:fd:b9:
         e2:d2:b1:0c:04:03:06:71:52:b1:27:04:1c:13:2e:e4:15:7e:
         4b:0c:d6:47:05:8a:87:20:f6:c5:df:f9:9a:2b:57:61:c4:9f:
         8e:9e:09:8f:9e:21:10:cb:94:71:90:16:33:4b:ad:d6:4a:0e:
         c7:54:8b:09:86:02:03:18:de:19:ce:66:c3:ac:6f:64:2a:53:
         ff:f1:f7:59:e6:ab:0b:75:3c:d9:05:50:b4:80:a7:26:dd:44:
         8d:57:58:b4:4f:1b:e4:42:21:53:ff:23:d5:f5:5e:a1:f7:4d:
         3e:5e:2c:25:b2:42:84:14:39:d8:f3:da:d3:37:90:1c:b7:7e:
         a0:5a:18:41:63:56:2b:2b:45:1c:f1:3a:0a:93:cd:4e:46:36:
         11:70:aa:79:be:42:c7:eb:c4:f9:08:e1:c0:e2:69:74:cd:c0:
         44:f8:42:4d:5d:df:99:b4:53:92:80:71:3d:6d:e5:4f:59:68:
         91:c4:26:80:4c:f8:c9:98:15:0f:b3:7f:86:9f:8a:0f:26:d4:
         b2:7b:80:91:11:65:15:75:2f:24:1e:4e:bf:2f:05:d4:af:3b:
         89:fc:e1:c9:39:0e:44:fd:9e:26:08:fb:da:cc:8c:e1:23:90:
         26:55:9c:97:aa:65:d6:c2:0e:81:f2:9e:33:60:9b:14:ec:a0:
         01:f4:91:47:ab:c6:11:f4:25:6b:a2:cb:16:38:50:fa:6b:71:
         28:08:43:87:45:fe:75:6f:ff:fa:65:4a:d8:02:37:a7:56:51:
         e6:21:6f:e3:97:4e:0a:6a:67:4f:82:a8:cd:eb:09:0e:e6:84:
         a6:da:22:f8:4d:27:73:b9:92:0b:d5:a4:03:51:f1:e6:10:0c:
         5f:84:21:d2:73:ab:09:c1:23:1c:83:f5:2c:a1:e2:00:6a:45:
         26:86:b1:bd:92:6e:6d:b3:09:f6:5e:81:6c:85:8d:78:0a:c2:
         78:4f:33:10:50:01:a9:0d:f3:6e:4b:29:a2:7c:1d:28:1d:88:
         51:ce:7c:3c:09:f5:6e:5f:f8:5d:7c:9d:79:65:fb:f5:bf:3e:
         f7:b2:33:e9:c3:ad:e8:3f:e3:ce:45:fc:b0:97:4b:52:47:37:
         cb:89:75:9e:3f:23:18:1b:20:8c:4e:89:31:8e:89:ef:19:11:
         1f:8d:b7:e4:c1:07:6b:cd:07:7e:96:9d:13:75:89:95:60:66:
         17:a3:38:c7:58:ef:44:96:ad:3d:b3:20:ea:c2:e7:b4:6e:ab:
         41:92:d7:e8:0e:2f:05:c2:2a:03:1b:e4:f3:80:28:3e:40:3d:
         65:03:d8:20:b0:8d:c9:b3
-----BEGIN CERTIFICATE-----
MIIEijCCAnKgAwIBAgIRAIa5vQisR0kxlsJ1p8OatvIwDQYJKoZIhvcNAQELBQAw
QzELMAkGA1UEBhMCWFgxEDAOBgNVBAoTB1NvbWUgQ0ExIjAgBgNVBAMTGUZha2Ug
Q0EgZm9yIFpsaW50IHRlc3RpbmcwHhcNMjUwOTAzMDgxMzIwWhcNMjYwOTAzMDgx
MzIwWjAkMSIwIAYDVQQDDBlHdWVudGVyLkdyYXNzQGV4YW1wbGUuY29tMHYwEAYH
KoZIzj0CAQYFK4EEACIDYgAEzE9JNKp6cECMTYNuIFytO3Bhxji8CKYgY6vM9dVf
fweRzzcS8H79OAR5mnBUWxJu8YMEnxs95nYl1MPXBN8Em9kH3MxkQR4p3K6uTi1C
ZUXYrjMemcRPxJyaWy0qfNK/o4IBRDCCAUAwDgYDVR0PAQH/BAQDAgeAMB0GA1Ud
JQQWMBQGCCsGAQUFBwMCBggrBgEFBQcDBDAdBgNVHQ4EFgQU3oqEe/+MND1puFOi
Febud17y75YwHwYDVR0jBBgwFoAU6Lb2dkvQO+VGpflU1H4Hs94NYD4wZAYIKwYB
BQUHAQEEWDBWMCkGCCsGAQUFBzABhh1odHRwOi8vY2Euc29tZWNhLWluYy5jb20v
b2NzcDApBggrBgEFBQcwAoYdaHR0cDovL2NhLnNvbWVjYS1pbmMuY29tL3Jvb3Qw
JAYDVR0RBB0wG4EZR3VlbnRlci5HcmFzc0BleGFtcGxlLmNvbTAUBgNVHSAEDTAL
MAkGB2eBDAEFAQMwLQYDVR0fBCYwJDAioCCgHoYcaHR0cDovL2NhLnNvbWVjYS1p
bmMuY29tL2NybDANBgkqhkiG9w0BAQsFAAOCAgEAXJWo1MedgqoqILAr5Be4mP25
4tKxDAQDBnFSsScEHBMu5BV+SwzWRwWKhyD2xd/5mitXYcSfjp4Jj54hEMuUcZAW
M0ut1koOx1SLCYYCAxjeGc5mw6xvZCpT//H3WearC3U82QVQtICnJt1EjVdYtE8b
5EIhU/8j1fVeofdNPl4sJbJChBQ52PPa0zeQHLd+oFoYQWNWKytFHPE6CpPNTkY2
EXCqeb5Cx+vE+QjhwOJpdM3ARPhCTV3fmbRTkoBxPW3lT1lokcQmgEz4yZgVD7N/
hp+KDybUsnuAkRFlFXUvJB5Ovy8F1K87ifzhyTkORP2eJgj72syM4SOQJlWcl6pl
1sIOgfKeM2CbFOygAfSRR6vGEfQla6LLFjhQ+mtxKAhDh0X+dW//+mVK2AI3p1ZR
5iFv45dOCmpnT4KozesJDuaEptoi+E0nc7mSC9WkA1Hx5hAMX4Qh0nOrCcEjHIP1
LKHiAGpFJoaxvZJubbMJ9l6BbIWNeArCeE8zEFABqQ3zbksponwdKB2IUc58PAn1
bl/4XXydeWX79b8+97Iz6cOt6D/jzkX8sJdLUkc3y4l1nj8jGBsgjE6JMY6J7xkR
H4235MEHa80HfpadE3WJlWBmF6M4x1jvRJatPbMg6sLntG6rQZLX6A4vBcIqAxvk
84AoPkA9ZQPYILCNybM=
-----END CERTIFICATE-----
