Certificate:
    Data:
        Version: 3 (0x2)
        Serial Number: 3 (0x3)
        Signature Algorithm: ecdsa-with-SHA256
        Issuer: 
        Validity
            Not Before: Feb 27 20:27:18 2024 GMT
            Not After : Nov 30 00:00:00 9998 GMT
        Subject: 
        Subject Public Key Info:
            Public Key Algorithm: id-ecPublicKey
                Public-Key: (256 bit)
                pub:
                    04:70:4c:86:07:80:17:0b:2c:db:4d:32:0b:fa:5b:
                    2b:7a:90:09:60:f5:d9:10:f9:1f:c7:a9:1d:b2:84:
                    91:0c:88:ac:de:c2:85:a3:39:2b:89:70:6d:44:16:
                    49:ae:46:92:82:c6:d8:05:7d:3c:16:80:9b:fb:11:
                    41:df:03:ee:05
                ASN1 OID: prime256v1
                NIST CURVE: P-256
        X509v3 extensions:
            X509v3 Extended Key Usage: 
                E-mail Protection
            X509v3 Certificate Policies: 
                Policy: 2.23.140.1.5.3.3
            1.3.6.1.4.1.52266.1: critical
                0.
    Signature Algorithm: ecdsa-with-SHA256
    Signature Value:
        30:45:02:21:00:a8:1d:cf:1e:5e:8d:ea:40:f2:30:0b:4b:b9:
        11:42:75:de:30:00:7b:31:ba:0f:df:64:83:72:0f:2e:94:a7:
        84:02:20:4d:95:81:58:2a:2b:ab:86:3a:ae:37:25:10:79:56:
        7c:07:01:34:06:5f:4c:f9:cc:40:1d:31:e4:94:48:34:db
-----BEGIN CERTIFICATE-----
MIIBMTCB2KADAgECAgEDMAoGCCqGSM49BAMCMAAwIBcNMjQwMjI3MjAyNzE4WhgP
OTk5ODExMzAwMDAwMDBaMAAwWTATBgcqhkjOPQIBBggqhkjOPQMBBwNCAARwTIYH
gBcLLNtNMgv6Wyt6kAlg9dkQ+R/HqR2yhJEMiKzewoWjOSuJcG1EFkmuRpKCxtgF
fTwWgJv7EUHfA+4Fo0EwPzATBgNVHSUEDDAKBggrBgEFBQcDBDAUBgNVHSAEDTAL
MAkGB2eBDAEFAwMwEgYJKwYBBAGDmCoBAQH/BAIwADAKBggqhkjOPQQDAgNIADBF
AiEAqB3PHl6N6kDyMAtLuRFCdd4wAHsxug/fZINyDy6Up4QCIE2VgVgqK6uGOq43
JRB5VnwHATQGX0z5zEAdMeSUSDTb
-----END CERTIFICATE-----

