Certificate:
    Data:
        Version: 3 (0x2)
        Serial Number: 3 (0x3)
        Signature Algorithm: ecdsa-with-SHA256
        Issuer:
        Validity
            Not Before: Sep  1 00:00:00 2023 GMT
            Not After : Nov 30 00:00:00 9998 GMT
        Subject: CN = johnsmith@example.com
        Subject Public Key Info:
            Public Key Algorithm: id-ecPublicKey
                Public-Key: (256 bit)
                pub:
                    04:0c:b0:72:70:86:e4:9f:8d:4c:95:8d:dd:51:88:
                    16:69:d1:3d:90:d2:b6:46:fa:b7:ba:85:68:73:35:
                    90:5a:00:68:67:c4:3e:8c:ea:8e:e7:ab:6d:25:3b:
                    4e:69:8a:85:ef:a9:bf:7c:f5:00:b7:e3:0a:f3:cf:
                    4b:b1:58:4a:17
                ASN1 OID: prime256v1
                NIST CURVE: P-256
        X509v3 extensions:
            X509v3 Certificate Policies:
                Policy: 2.23.140.1.5.3.2
            1.2.840.113583.1.1.9.1: critical
                test
    Signature Algorithm: ecdsa-with-SHA256
    Signature Value:
        30:45:02:20:73:ac:80:6b:37:9e:fc:33:6d:55:38:75:c6:11:
        fb:eb:08:b6:5f:8b:5c:cd:27:af:7b:ac:b2:a8:4d:5b:80:cf:
        02:21:00:cc:81:9e:70:8f:3e:99:01:a8:4c:43:82:ff:e9:57:
        c6:ba:a8:f2:10:ff:fc:f3:a9:96:17:9a:d6:76:c2:51:9f
-----BEGIN CERTIFICATE-----
MIIBPzCB5qADAgECAgEDMAoGCCqGSM49BAMCMAAwIBcNMjMwOTAxMDAwMDAwWhgP
OTk5ODExMzAwMDAwMDBaMCAxHjAcBgNVBAMMFWpvaG5zbWl0aEBleGFtcGxlLmNv
bTBZMBMGByqGSM49AgEGCCqGSM49AwEHA0IABAywcnCG5J+NTJWN3VGIFmnRPZDS
tkb6t7qFaHM1kFoAaGfEPozqjuerbSU7TmmKhe+pv3z1ALfjCvPPS7FYShejLzAt
MBQGA1UdIAQNMAswCQYHZ4EMAQUDAjAVBgoqhkiG9y8BAQkBAQH/BAR0ZXN0MAoG
CCqGSM49BAMCA0gAMEUCIHOsgGs3nvwzbVU4dcYR++sItl+LXM0nr3ussqhNW4DP
AiEAzIGecI8+mQGoTEOC/+lXxrqo8hD//POplhea1nbCUZ8=
-----END CERTIFICATE-----