Certificate:
    Data:
        Version: 3 (0x2)
        Serial Number: 3 (0x3)
        Signature Algorithm: ecdsa-with-SHA256
        Issuer: 
        Validity
            Not Before: Feb 27 21:27:01 2024 GMT
            Not After : Nov 30 00:00:00 9998 GMT
        Subject: 
        Subject Public Key Info:
            Public Key Algorithm: id-ecPublicKey
                Public-Key: (256 bit)
                pub:
                    04:38:a5:8d:f4:41:c4:74:b6:f5:81:80:f9:1c:76:
                    07:c0:34:44:2f:f1:4c:35:b1:87:d2:c7:50:ca:8d:
                    df:b9:be:6b:2a:1c:bd:60:f7:1a:5f:2e:df:92:db:
                    ac:5d:11:74:f0:53:bc:dc:d6:2a:b7:27:f1:4b:1f:
                    93:5b:9d:fb:6d
                ASN1 OID: prime256v1
                NIST CURVE: P-256
        X509v3 extensions:
            X509v3 Extended Key Usage: 
                E-mail Protection
            X509v3 Certificate Policies: 
                Policy: 2.23.140.1.5.3.3
            1.3.6.1.4.1.52266.2: critical
                0.
    Signature Algorithm: ecdsa-with-SHA256
    Signature Value:
        30:46:02:21:00:89:6f:04:3d:64:d6:98:8f:3e:5d:3c:99:2c:
        67:34:0f:4d:a8:77:d9:41:93:08:d9:72:a7:ed:f1:e5:3d:b9:
        5f:02:21:00:fb:a3:41:a5:94:c6:84:88:9f:8f:ff:cc:52:a6:
        a1:ba:cf:a3:87:50:58:5c:63:ff:2c:46:42:98:fc:eb:05:09
-----BEGIN CERTIFICATE-----
MIIBMjCB2KADAgECAgEDMAoGCCqGSM49BAMCMAAwIBcNMjQwMjI3MjEyNzAxWhgP
OTk5ODExMzAwMDAwMDBaMAAwWTATBgcqhkjOPQIBBggqhkjOPQMBBwNCAAQ4pY30
QcR0tvWBgPkcdgfANEQv8Uw1sYfSx1DKjd+5vmsqHL1g9xpfLt+S26xdEXTwU7zc
1iq3J/FLH5Nbnftto0EwPzATBgNVHSUEDDAKBggrBgEFBQcDBDAUBgNVHSAEDTAL
MAkGB2eBDAEFAwMwEgYJKwYBBAGDmCoCAQH/BAIwADAKBggqhkjOPQQDAgNJADBG
AiEAiW8EPWTWmI8+XTyZLGc0D02od9lBkwjZcqft8eU9uV8CIQD7o0GllMaEiJ+P
/8xSpqG6z6OHUFhcY/8sRkKY/OsFCQ==
-----END CERTIFICATE-----

