Certificate:
    Data:
        Version: 3 (0x2)
        Serial Number: 3 (0x3)
        Signature Algorithm: ecdsa-with-SHA256
        Issuer: 
        Validity
            Not Before: Sep  1 00:00:00 2023 GMT
            Not After : Nov 30 00:00:00 9998 GMT
        Subject: C = GB, organizationIdentifier = NTRGB-12345678
        Subject Public Key Info:
            Public Key Algorithm: id-ecPublicKey
                Public-Key: (256 bit)
                pub:
                    04:98:64:49:e9:e0:f4:66:fc:9e:88:ab:6e:f9:b9:
                    d7:a8:c9:1b:19:84:94:89:f7:d2:72:d1:e3:36:24:
                    10:49:f9:40:79:6d:8e:89:32:50:38:34:e9:38:cb:
                    34:81:20:d1:68:07:d6:e7:2a:60:6b:7d:a2:66:c7:
                    61:d3:60:8c:90
                ASN1 OID: prime256v1
                NIST CURVE: P-256
        X509v3 extensions:
            X509v3 Certificate Policies: 
                Policy: 2.23.140.1.5.3.1
    Signature Algorithm: ecdsa-with-SHA256
    Signature Value:
        30:45:02:20:36:2f:69:05:54:7e:06:b9:6f:96:be:c6:75:2f:
        10:5d:4f:ab:2f:bb:b3:11:ce:15:21:c7:61:12:ac:84:2b:67:
        02:21:00:93:b9:ec:57:e2:1f:33:cf:5f:54:b6:63:d3:a5:b1:
        83:56:a5:17:c1:49:90:2c:cf:0c:62:13:02:86:f8:29:e7
-----BEGIN CERTIFICATE-----
MIIBLjCB1aADAgECAgEDMAoGCCqGSM49BAMCMAAwIBcNMjMwOTAxMDAwMDAwWhgP
OTk5ODExMzAwMDAwMDBaMCYxCzAJBgNVBAYTAkdCMRcwFQYDVQRhEw5OVFJHQi0x
MjM0NTY3ODBZMBMGByqGSM49AgEGCCqGSM49AwEHA0IABJhkSeng9Gb8noirbvm5
16jJGxmElIn30nLR4zYkEEn5QHltjokyUDg06TjLNIEg0WgH1ucqYGt9ombHYdNg
jJCjGDAWMBQGA1UdIAQNMAswCQYHZ4EMAQUDATAKBggqhkjOPQQDAgNIADBFAiA2
L2kFVH4GuW+WvsZ1LxBdT6svu7MRzhUhx2ESrIQrZwIhAJO57FfiHzPPX1S2Y9Ol
sYNWpRfBSZAszwxiEwKG+Cnn
-----END CERTIFICATE-----