Certificate:
    Data:
        Version: 3 (0x2)
        Serial Number: 3 (0x3)
        Signature Algorithm: ecdsa-with-SHA256
        Issuer:
        Validity
            Not Before: Sep  1 00:00:00 2023 GMT
            Not After : Nov 30 00:00:00 9998 GMT
        Subject: CN = johnsmith@example.com
        Subject Public Key Info:
            Public Key Algorithm: id-ecPublicKey
                Public-Key: (256 bit)
                pub:
                    04:e5:ed:14:f0:be:84:91:61:29:cc:fe:6d:a6:3b:
                    87:ce:90:eb:94:8a:cc:31:26:2f:28:92:f0:63:3a:
                    e2:c6:3f:05:cf:f4:d8:20:7f:68:7a:4c:d3:68:2c:
                    a1:b7:a9:97:ea:09:a2:82:ff:1c:02:27:29:37:b7:
                    46:1c:27:d6:6f
                ASN1 OID: prime256v1
                NIST CURVE: P-256
        X509v3 extensions:
            X509v3 Certificate Policies:
                Policy: 2.23.140.1.5.3.3
            1.2.840.113583.1.1.9.2: critical
                test
    Signature Algorithm: ecdsa-with-SHA256
    Signature Value:
        30:45:02:20:15:fc:d8:31:bd:91:77:f4:91:89:d0:de:f4:31:
        97:01:45:0f:d8:21:3c:b1:94:6c:48:19:e0:3c:c0:7c:a2:d2:
        02:21:00:f8:d9:c1:32:f5:fa:a2:22:44:28:e4:d8:e0:46:ff:
        fd:37:70:ae:1a:10:1b:03:4b:78:df:64:67:ac:f6:c1:5c
-----BEGIN CERTIFICATE-----
MIIBPzCB5qADAgECAgEDMAoGCCqGSM49BAMCMAAwIBcNMjMwOTAxMDAwMDAwWhgP
OTk5ODExMzAwMDAwMDBaMCAxHjAcBgNVBAMMFWpvaG5zbWl0aEBleGFtcGxlLmNv
bTBZMBMGByqGSM49AgEGCCqGSM49AwEHA0IABOXtFPC+hJFhKcz+baY7h86Q65SK
zDEmLyiS8GM64sY/Bc/02CB/aHpM02gsobepl+oJooL/HAInKTe3Rhwn1m+jLzAt
MBQGA1UdIAQNMAswCQYHZ4EMAQUDAzAVBgoqhkiG9y8BAQkCAQH/BAR0ZXN0MAoG
CCqGSM49BAMCA0gAMEUCIBX82DG9kXf0kYnQ3vQxlwFFD9ghPLGUbEgZ4DzAfKLS
AiEA+NnBMvX6oiJEKOTY4Eb//TdwrhoQGwNLeN9kZ6z2wVw=
-----END CERTIFICATE-----