Certificate:
    Data:
        Version: 3 (0x2)
        Serial Number: 3 (0x3)
        Signature Algorithm: ecdsa-with-SHA256
        Issuer: 
        Validity
            Not Before: Dec 13 22:18:21 2023 GMT
            Not After : Nov 30 00:00:00 9998 GMT
        Subject: 
        Subject Public Key Info:
            Public Key Algorithm: id-ecPublicKey
                Public-Key: (256 bit)
                pub:
                    04:c8:dc:df:60:b9:e2:c3:90:c7:c6:03:32:04:e1:
                    4a:de:08:08:24:4c:0c:97:ed:3a:31:0f:7b:ed:47:
                    a0:a9:af:df:04:9d:eb:7c:df:64:87:ab:2d:f2:60:
                    42:2d:65:3e:18:4d:cb:12:2e:fb:74:ef:7f:3b:ae:
                    0a:e3:f3:56:d3
                ASN1 OID: prime256v1
                NIST CURVE: P-256
        X509v3 extensions:
            X509v3 Extended Key Usage: 
                E-mail Protection
            X509v3 Certificate Policies: 
                Policy: 2.23.140.1.5.1.3
            X509v3 CRL Distribution Points: 
                Full Name:
                  URI:http://example.com
    Signature Algorithm: ecdsa-with-SHA256
    Signature Value:
        30:45:02:20:0c:0b:81:2d:9c:12:c2:86:59:1a:cd:1f:46:3c:
        b4:22:a0:91:0c:33:3f:ad:f4:4d:a7:64:34:d8:37:ab:53:eb:
        02:21:00:c7:d4:f1:98:29:55:db:fe:3e:21:1e:0e:db:58:57:
        c1:04:20:2f:d8:6f:53:74:05:ce:ec:f0:c4:63:0e:4d:09
-----BEGIN CERTIFICATE-----
MIIBQjCB6aADAgECAgEDMAoGCCqGSM49BAMCMAAwIBcNMjMxMjEzMjIxODIxWhgP
OTk5ODExMzAwMDAwMDBaMAAwWTATBgcqhkjOPQIBBggqhkjOPQMBBwNCAATI3N9g
ueLDkMfGAzIE4UreCAgkTAyX7ToxD3vtR6Cpr98Enet832SHqy3yYEItZT4YTcsS
Lvt07387rgrj81bTo1IwUDATBgNVHSUEDDAKBggrBgEFBQcDBDAUBgNVHSAEDTAL
MAkGB2eBDAEFAQMwIwYDVR0fBBwwGjAYoBagFIYSaHR0cDovL2V4YW1wbGUuY29t
MAoGCCqGSM49BAMCA0gAMEUCIAwLgS2cEsKGWRrNH0Y8tCKgkQwzP630TadkNNg3
q1PrAiEAx9TxmClV2/4+IR4O21hXwQQgL9hvU3QFzuzwxGMOTQk=
-----END CERTIFICATE-----
