Certificate:
    Data:
        Version: 3 (0x2)
        Serial Number: 3 (0x3)
        Signature Algorithm: ecdsa-with-SHA256
        Issuer: 
        Validity
            Not Before: Dec 13 22:06:27 2023 GMT
            Not After : Nov 30 00:00:00 9998 GMT
        Subject: 
        Subject Public Key Info:
            Public Key Algorithm: id-ecPublicKey
                Public-Key: (256 bit)
                pub:
                    04:55:ab:f1:eb:ba:b6:de:14:c5:9f:02:33:86:2d:
                    85:61:4a:b1:21:cf:3f:7e:95:37:fc:98:8d:21:a5:
                    a5:26:df:51:f4:97:9d:ec:b5:d0:c4:2b:41:66:52:
                    e0:a6:c4:a6:3f:0a:f3:fd:90:6a:2e:0a:b9:33:27:
                    c2:56:df:ae:19
                ASN1 OID: prime256v1
                NIST CURVE: P-256
        X509v3 extensions:
            X509v3 Extended Key Usage: 
                E-mail Protection
            X509v3 Certificate Policies: 
                Policy: 2.23.140.1.5.1.3
            X509v3 CRL Distribution Points: 
                Full Name:
                  URI:ldap://example.com
    Signature Algorithm: ecdsa-with-SHA256
    Signature Value:
        30:45:02:20:05:60:ca:c3:8c:12:a6:58:6f:d3:7f:e9:82:cc:
        38:ec:1e:dc:51:88:a1:45:f2:37:64:47:d4:96:1f:9c:1e:ef:
        02:21:00:93:d1:b3:6a:b5:32:69:e0:14:be:8f:70:d9:1c:54:
        7d:1a:cd:7f:5a:a5:d2:30:ad:a2:9c:fa:37:66:8a:31:61
-----BEGIN CERTIFICATE-----
MIIBQjCB6aADAgECAgEDMAoGCCqGSM49BAMCMAAwIBcNMjMxMjEzMjIwNjI3WhgP
OTk5ODExMzAwMDAwMDBaMAAwWTATBgcqhkjOPQIBBggqhkjOPQMBBwNCAARVq/Hr
urbeFMWfAjOGLYVhSrEhzz9+lTf8mI0hpaUm31H0l53stdDEK0FmUuCmxKY/CvP9
kGouCrkzJ8JW364Zo1IwUDATBgNVHSUEDDAKBggrBgEFBQcDBDAUBgNVHSAEDTAL
MAkGB2eBDAEFAQMwIwYDVR0fBBwwGjAYoBagFIYSbGRhcDovL2V4YW1wbGUuY29t
MAoGCCqGSM49BAMCA0gAMEUCIAVgysOMEqZYb9N/6YLMOOwe3FGIoUXyN2RH1JYf
nB7vAiEAk9GzarUyaeAUvo9w2RxUfRrNf1ql0jCtopz6N2aKMWE=
-----END CERTIFICATE-----
