Certificate:
    Data:
        Version: 3 (0x2)
        Serial Number: 3 (0x3)
        Signature Algorithm: ecdsa-with-SHA256
        Issuer: 
        Validity
            Not Before: Feb 28 22:55:50 2024 GMT
            Not After : Nov 30 00:00:00 9998 GMT
        Subject: C = ZZ
        Subject Public Key Info:
            Public Key Algorithm: id-ecPublicKey
                Public-Key: (256 bit)
                pub:
                    04:29:28:3a:a6:4e:3f:5c:33:ad:7e:fe:04:60:b8:
                    e8:26:9f:49:b6:32:22:29:61:6f:6d:5f:d6:30:d7:
                    68:5e:9d:ea:ad:6c:2d:09:b5:43:ad:93:27:2b:4d:
                    29:d2:02:29:57:e0:44:a1:7a:05:e4:9d:a4:20:de:
                    72:18:ae:87:54
                ASN1 OID: prime256v1
                NIST CURVE: P-256
        X509v3 extensions:
            X509v3 Extended Key Usage: 
                E-mail Protection
            X509v3 Certificate Policies: 
                Policy: 2.23.140.1.5.1.3
    Signature Algorithm: ecdsa-with-SHA256
    Signature Value:
        30:44:02:20:3b:61:1d:fe:f7:49:9d:e2:8a:b7:96:39:47:91:
        d8:c3:b8:f5:28:d4:6e:65:73:bf:04:a5:8a:30:7c:89:d8:d3:
        02:20:4e:f6:22:b9:e7:ee:c2:ef:0a:e9:5c:03:22:c9:b5:e7:
        46:8d:f8:f1:cf:f0:a6:0b:1a:12:35:fe:d2:c5:42:97
-----BEGIN CERTIFICATE-----
MIIBKTCB0aADAgECAgEDMAoGCCqGSM49BAMCMAAwIBcNMjQwMjI4MjI1NTUwWhgP
OTk5ODExMzAwMDAwMDBaMA0xCzAJBgNVBAYTAlpaMFkwEwYHKoZIzj0CAQYIKoZI
zj0DAQcDQgAEKSg6pk4/XDOtfv4EYLjoJp9JtjIiKWFvbV/WMNdoXp3qrWwtCbVD
rZMnK00p0gIpV+BEoXoF5J2kIN5yGK6HVKMtMCswEwYDVR0lBAwwCgYIKwYBBQUH
AwQwFAYDVR0gBA0wCzAJBgdngQwBBQEDMAoGCCqGSM49BAMCA0cAMEQCIDthHf73
SZ3iireWOUeR2MO49SjUbmVzvwSlijB8idjTAiBO9iK55+7C7wrpXAMiybXnRo34
8c/wpgsaEjX+0sVClw==
-----END CERTIFICATE-----

