Certificate:
    Data:
        Version: 3 (0x2)
        Serial Number: 3 (0x3)
        Signature Algorithm: ecdsa-with-SHA256
        Issuer: 
        Validity
            Not Before: Feb 28 22:56:13 2024 GMT
            Not After : Nov 30 00:00:00 9998 GMT
        Subject: C = US
        Subject Public Key Info:
            Public Key Algorithm: id-ecPublicKey
                Public-Key: (256 bit)
                pub:
                    04:f1:df:0e:55:30:da:76:fa:00:c8:d6:ef:08:0b:
                    56:85:67:71:87:8b:c2:08:cb:57:fe:1c:87:b5:ef:
                    aa:56:07:c5:4f:1a:f3:69:ff:4a:3c:70:65:92:49:
                    78:1d:e0:65:2b:c3:08:6e:23:d6:8d:7a:bd:d2:1a:
                    78:0c:fe:bf:a9
                ASN1 OID: prime256v1
                NIST CURVE: P-256
        X509v3 extensions:
            X509v3 Extended Key Usage: 
                E-mail Protection
            X509v3 Certificate Policies: 
                Policy: 2.23.140.1.5.1.3
    Signature Algorithm: ecdsa-with-SHA256
    Signature Value:
        30:46:02:21:00:d1:18:a6:4c:fc:25:c1:28:13:0f:c8:99:2b:
        ec:4b:49:dd:19:c3:e8:d3:4a:4f:97:d8:80:eb:9c:05:75:f6:
        d4:02:21:00:dc:bd:d5:e1:d7:dd:f9:b1:2b:80:75:84:60:82:
        45:27:eb:0f:5f:4c:83:8c:a9:42:8f:3e:63:4b:a7:1b:70:d9
-----BEGIN CERTIFICATE-----
MIIBKzCB0aADAgECAgEDMAoGCCqGSM49BAMCMAAwIBcNMjQwMjI4MjI1NjEzWhgP
OTk5ODExMzAwMDAwMDBaMA0xCzAJBgNVBAYTAlVTMFkwEwYHKoZIzj0CAQYIKoZI
zj0DAQcDQgAE8d8OVTDadvoAyNbvCAtWhWdxh4vCCMtX/hyHte+qVgfFTxrzaf9K
PHBlkkl4HeBlK8MIbiPWjXq90hp4DP6/qaMtMCswEwYDVR0lBAwwCgYIKwYBBQUH
AwQwFAYDVR0gBA0wCzAJBgdngQwBBQEDMAoGCCqGSM49BAMCA0kAMEYCIQDRGKZM
/CXBKBMPyJkr7EtJ3RnD6NNKT5fYgOucBXX21AIhANy91eHX3fmxK4B1hGCCRSfr
D19Mg4ypQo8+Y0unG3DZ
-----END CERTIFICATE-----

