Certificate:
    Data:
        Version: 3 (0x2)
        Serial Number: 3 (0x3)
        Signature Algorithm: ecdsa-with-SHA256
        Issuer: 
        Validity
            Not Before: Sep 30 15:03:33 2023 GMT
            Not After : Nov 30 00:00:00 9998 GMT
        Subject: 
        Subject Public Key Info:
            Public Key Algorithm: id-ecPublicKey
                Public-Key: (256 bit)
                pub:
                    04:d7:a2:5e:9e:d9:54:7d:94:f9:0f:57:4f:af:c3:
                    75:e4:bf:9a:57:0d:c1:ab:f2:d7:98:eb:24:a2:98:
                    49:aa:60:90:41:55:96:60:8c:e5:ba:ac:6b:bd:20:
                    e1:00:c8:5d:26:60:9a:37:29:7b:a0:2c:61:09:24:
                    53:7a:71:14:dd
                ASN1 OID: prime256v1
                NIST CURVE: P-256
        X509v3 extensions:
            X509v3 Extended Key Usage: 
                E-mail Protection
            X509v3 Certificate Policies: 
                Policy: 2.23.140.1.5.1.2
            X509v3 CRL Distribution Points: 
                Full Name:
                  URI:atleastone.com
    Signature Algorithm: ecdsa-with-SHA256
         30:45:02:21:00:8f:ff:de:4a:1b:56:89:31:8c:c5:bc:e5:8e:
         1a:95:c3:e4:bc:36:df:df:16:c4:71:74:28:c0:d0:72:44:b3:
         68:02:20:76:b4:f4:26:ac:07:7a:bc:a9:3a:c9:bb:e4:cf:f0:
         dd:fc:85:58:35:b4:1c:ed:e3:ec:b2:9d:54:7f:47:44:cd
-----BEGIN CERTIFICATE-----
MIIBPjCB5aADAgECAgEDMAoGCCqGSM49BAMCMAAwIBcNMjMwOTMwMTUwMzMzWhgP
OTk5ODExMzAwMDAwMDBaMAAwWTATBgcqhkjOPQIBBggqhkjOPQMBBwNCAATXol6e
2VR9lPkPV0+vw3Xkv5pXDcGr8teY6ySimEmqYJBBVZZgjOW6rGu9IOEAyF0mYJo3
KXugLGEJJFN6cRTdo04wTDATBgNVHSUEDDAKBggrBgEFBQcDBDAUBgNVHSAEDTAL
MAkGB2eBDAEFAQIwHwYDVR0fBBgwFjAUoBKgEIYOYXRsZWFzdG9uZS5jb20wCgYI
KoZIzj0EAwIDSAAwRQIhAI//3kobVokxjMW85Y4alcPkvDbf3xbEcXQowNByRLNo
AiB2tPQmrAd6vKk6ybvkz/Dd/IVYNbQc7ePssp1Uf0dEzQ==
-----END CERTIFICATE-----