Certificate:
    Data:
        Version: 3 (0x2)
        Serial Number: 3 (0x3)
        Signature Algorithm: ecdsa-with-SHA256
        Issuer: 
        Validity
            Not Before: Sep 30 15:03:33 2023 GMT
            Not After : Nov 30 00:00:00 9998 GMT
        Subject: 
        Subject Public Key Info:
            Public Key Algorithm: id-ecPublicKey
                Public-Key: (256 bit)
                pub:
                    04:77:fb:36:f7:93:14:be:12:85:91:d5:e5:ac:69:
                    d8:3e:53:62:67:69:31:da:d8:cb:b1:31:26:4a:c3:
                    50:75:fa:8c:3b:a4:3c:28:f3:a9:b7:2f:6d:bb:92:
                    9b:17:11:b0:f3:40:5f:07:d6:57:f6:ae:0a:42:1b:
                    a9:02:9e:d7:7c
                ASN1 OID: prime256v1
                NIST CURVE: P-256
        X509v3 extensions:
            X509v3 Extended Key Usage: 
                E-mail Protection
            X509v3 CRL Distribution Points: 
                Full Name:
                  URI:atleastone.com
    Signature Algorithm: ecdsa-with-SHA256
    Signature Value:
        30:45:02:21:00:aa:1a:66:ac:5b:22:a9:e3:2d:b8:33:54:49:
        fa:28:22:24:b1:11:49:44:46:6e:7d:55:13:fb:25:56:96:e1:
        e1:02:20:60:b3:d6:eb:ff:34:2a:e7:0a:aa:0b:4b:4b:b3:32:
        ba:96:7a:44:f5:f8:07:ff:86:86:89:ae:65:f0:6d:1b:00
-----BEGIN CERTIFICATE-----
MIIBKDCBz6ADAgECAgEDMAoGCCqGSM49BAMCMAAwIBcNMjMwOTMwMTUwMzMzWhgP
OTk5ODExMzAwMDAwMDBaMAAwWTATBgcqhkjOPQIBBggqhkjOPQMBBwNCAAR3+zb3
kxS+EoWR1eWsadg+U2JnaTHa2MuxMSZKw1B1+ow7pDwo86m3L227kpsXEbDzQF8H
1lf2rgpCG6kCntd8ozgwNjATBgNVHSUEDDAKBggrBgEFBQcDBDAfBgNVHR8EGDAW
MBSgEqAQhg5hdGxlYXN0b25lLmNvbTAKBggqhkjOPQQDAgNIADBFAiEAqhpmrFsi
qeMtuDNUSfooIiSxEUlERm59VRP7JVaW4eECIGCz1uv/NCrnCqoLS0uzMrqWekT1
+Af/hoaJrmXwbRsA
-----END CERTIFICATE-----
