Certificate:
    Data:
        Version: 3 (0x2)
        Serial Number: 3 (0x3)
        Signature Algorithm: ecdsa-with-SHA256
        Issuer: 
        Validity
            Not Before: Sep 30 15:02:57 2023 GMT
            Not After : Nov 30 00:00:00 9998 GMT
        Subject: 
        Subject Public Key Info:
            Public Key Algorithm: id-ecPublicKey
                Public-Key: (256 bit)
                pub:
                    04:b0:ea:1e:f1:18:fe:47:2c:63:90:84:55:31:84:
                    a9:7d:05:a9:53:01:21:6f:cf:c4:b3:08:33:d2:4c:
                    0a:e0:39:40:d2:c8:05:e0:7a:a2:cf:14:04:9e:75:
                    c9:8a:41:b1:ce:6f:ea:6e:f2:5f:f7:0c:58:39:d5:
                    b3:b6:83:fc:79
                ASN1 OID: prime256v1
                NIST CURVE: P-256
        X509v3 extensions:
            X509v3 Extended Key Usage: 
                E-mail Protection
    Signature Algorithm: ecdsa-with-SHA256
    Signature Value:
        30:45:02:21:00:9f:89:3b:b4:a6:ca:2f:d3:24:cf:5c:0f:d2:
        b4:0c:a5:23:e2:77:ae:dc:4e:60:f9:fb:a5:d7:17:b6:eb:d7:
        be:02:20:60:21:54:e0:ef:0c:eb:d7:7d:c0:f6:28:29:86:d2:
        be:b1:3e:c7:a6:f5:23:84:37:18:68:af:cd:6d:fe:4d:b0
-----BEGIN CERTIFICATE-----
MIIBBzCBrqADAgECAgEDMAoGCCqGSM49BAMCMAAwIBcNMjMwOTMwMTUwMjU3WhgP
OTk5ODExMzAwMDAwMDBaMAAwWTATBgcqhkjOPQIBBggqhkjOPQMBBwNCAASw6h7x
GP5HLGOQhFUxhKl9BalTASFvz8SzCDPSTArgOUDSyAXgeqLPFASedcmKQbHOb+pu
8l/3DFg51bO2g/x5oxcwFTATBgNVHSUEDDAKBggrBgEFBQcDBDAKBggqhkjOPQQD
AgNIADBFAiEAn4k7tKbKL9Mkz1wP0rQMpSPid67cTmD5+6XXF7br174CIGAhVODv
DOvXfcD2KCmG0r6xPsem9SOENxhor81t/k2w
-----END CERTIFICATE-----
