Certificate:
    Data:
        Version: 3 (0x2)
        Serial Number: 3 (0x3)
        Signature Algorithm: ecdsa-with-SHA256
        Issuer: 
        Validity
            Not Before: Sep 30 15:02:57 2023 GMT
            Not After : Nov 30 00:00:00 9998 GMT
        Subject: 
        Subject Public Key Info:
            Public Key Algorithm: id-ecPublicKey
                Public-Key: (256 bit)
                pub:
                    04:59:8d:60:f6:dc:04:98:92:65:d8:4d:e9:45:da:
                    1e:97:70:09:5a:af:cf:c7:e5:86:18:cd:32:8b:35:
                    c7:23:5c:b8:76:c7:65:f8:20:f1:fc:ab:3b:28:22:
                    a3:a9:9b:68:dc:7a:58:74:3b:f4:0b:b9:60:57:3f:
                    46:21:e3:b8:11
                ASN1 OID: prime256v1
                NIST CURVE: P-256
        X509v3 extensions:
            X509v3 Extended Key Usage: 
                E-mail Protection
            X509v3 Certificate Policies: 
                Policy: 2.23.140.1.5.4.1
    Signature Algorithm: ecdsa-with-SHA256
         30:45:02:21:00:97:6e:8c:24:9c:5f:89:f4:92:29:d8:4d:eb:
         c1:1b:bd:a6:31:d3:32:58:da:34:4b:fa:d3:f7:b2:c3:49:93:
         a2:02:20:51:49:d7:29:8b:1d:28:2e:24:58:fb:e5:34:a1:5c:
         c0:05:d8:8e:f3:ce:43:4e:3b:0a:b0:7c:ce:57:f7:42:1f
-----BEGIN CERTIFICATE-----
MIIBHTCBxKADAgECAgEDMAoGCCqGSM49BAMCMAAwIBcNMjMwOTMwMTUwMjU3WhgP
OTk5ODExMzAwMDAwMDBaMAAwWTATBgcqhkjOPQIBBggqhkjOPQMBBwNCAARZjWD2
3ASYkmXYTelF2h6XcAlar8/H5YYYzTKLNccjXLh2x2X4IPH8qzsoIqOpm2jcelh0
O/QLuWBXP0Yh47gRoy0wKzATBgNVHSUEDDAKBggrBgEFBQcDBDAUBgNVHSAEDTAL
MAkGB2eBDAEFBAEwCgYIKoZIzj0EAwIDSAAwRQIhAJdujCScX4n0kinYTevBG72m
MdMyWNo0S/rT97LDSZOiAiBRSdcpix0oLiRY++U0oVzABdiO885DTjsKsHzOV/dC
Hw==
-----END CERTIFICATE-----