Certificate:
    Data:
        Version: 3 (0x2)
        Serial Number:
            11:58:a9:ab:65:63:46:e7:02:8f:b3:eb
        Signature Algorithm: ecdsa-with-SHA256
        Issuer: CN = Lint CA, O = Lint, C = DE
        Validity
            Not Before: Sep  1 00:00:00 2023 GMT
            Not After : Sep  1 00:00:00 2024 GMT
        Subject: emailAddress = zlint@example.com second@example.com, O = Lint, C = DE
        Subject Public Key Info:
            Public Key Algorithm: id-ecPublicKey
                Public-Key: (256 bit)
                pub:
                    04:91:ee:42:50:c4:da:48:da:63:04:bd:e0:30:54:
                    3e:65:b7:c8:17:1a:c1:38:4d:f4:a6:91:3b:03:0c:
                    d2:36:cf:f1:72:d9:b3:4c:d4:39:9e:a4:d0:b5:27:
                    d2:50:74:9f:80:b2:ac:d2:fa:af:ed:bd:de:8b:3e:
                    52:d7:08:77:a2
                ASN1 OID: prime256v1
                NIST CURVE: P-256
        X509v3 extensions:
            X509v3 Certificate Policies: 
                Policy: 2.23.140.1.5.1.2

    Signature Algorithm: ecdsa-with-SHA256
         30:46:02:21:00:98:5f:ff:ba:1f:32:88:63:1f:cd:6d:f9:fb:
         81:82:48:c1:d9:2d:fb:84:5b:6e:6d:74:87:7f:61:ca:a3:a5:
         a7:02:21:00:c8:f2:5b:c7:96:1c:3c:67:b5:4d:eb:27:4d:71:
         fa:86:6b:c0:c4:a8:fd:d1:8e:dc:3b:17:f9:1f:ca:3c:ff:f3
-----BEGIN CERTIFICATE-----
MIIBkjCCATegAwIBAgIMEVipq2VjRucCj7PrMAoGCCqGSM49BAMCMC4xEDAOBgNV
BAMMB0xpbnQgQ0ExDTALBgNVBAoMBExpbnQxCzAJBgNVBAYTAkRFMB4XDTIzMDkw
MTAwMDAwMFoXDTI0MDkwMTAwMDAwMFowUTEzMDEGCSqGSIb3DQEJARYkemxpbnRA
ZXhhbXBsZS5jb20gc2Vjb25kQGV4YW1wbGUuY29tMQ0wCwYDVQQKDARMaW50MQsw
CQYDVQQGEwJERTBZMBMGByqGSM49AgEGCCqGSM49AwEHA0IABJHuQlDE2kjaYwS9
4DBUPmW3yBcawThN9KaROwMM0jbP8XLZs0zUOZ6k0LUn0lB0n4CyrNL6r+293os+
UtcId6KjGDAWMBQGA1UdIAQNMAswCQYHZ4EMAQUBAjAKBggqhkjOPQQDAgNJADBG
AiEAmF//uh8yiGMfzW35+4GCSMHZLfuEW25tdId/YcqjpacCIQDI8lvHlhw8Z7VN
6ydNcfqGa8DEqP3Rjtw7F/kfyjz/8w==
-----END CERTIFICATE-----
