Certificate:
    Data:
        Version: 3 (0x2)
        Serial Number: 3 (0x3)
        Signature Algorithm: ecdsa-with-SHA256
        Issuer: 
        Validity
            Not Before: Sep  2 00:00:00 2023 GMT
            Not After : Nov 30 00:00:00 9998 GMT
        Subject: C = US, organizationIdentifier = INTXG-123456
        Subject Public Key Info:
            Public Key Algorithm: id-ecPublicKey
                Public-Key: (256 bit)
                pub:
                    04:d4:1a:f1:ff:48:7a:88:b3:d0:ce:f5:b0:2d:9d:
                    05:dc:c8:cc:5b:1f:58:2c:e0:ab:96:69:72:cc:24:
                    61:a1:2a:c0:97:9a:b0:cb:65:ea:21:c9:e2:12:76:
                    8e:64:ca:f0:1a:87:1b:aa:b9:02:55:7a:f5:a3:88:
                    13:35:be:3f:23
                ASN1 OID: prime256v1
                NIST CURVE: P-256
        X509v3 extensions:
            X509v3 Extended Key Usage: 
                E-mail Protection
            X509v3 Certificate Policies: 
                Policy: 2.23.140.1.5.1.2

    Signature Algorithm: ecdsa-with-SHA256
         30:45:02:20:74:c1:24:d1:11:81:5d:90:ac:4f:e2:04:ce:a5:
         fd:1d:ca:d2:05:e4:e6:3e:5d:5f:02:aa:2a:52:9e:df:d8:69:
         02:21:00:dd:07:38:33:87:1b:2e:e8:bd:16:0a:d7:35:fe:62:
         38:97:f4:3a:ab:0e:2d:a2:c8:97:0b:f7:7b:b5:03:89:d9
-----BEGIN CERTIFICATE-----
MIIBQTCB6KADAgECAgEDMAoGCCqGSM49BAMCMAAwIBcNMjMwOTAyMDAwMDAwWhgP
OTk5ODExMzAwMDAwMDBaMCQxCzAJBgNVBAYTAlVTMRUwEwYDVQRhEwxJTlRYRy0x
MjM0NTYwWTATBgcqhkjOPQIBBggqhkjOPQMBBwNCAATUGvH/SHqIs9DO9bAtnQXc
yMxbH1gs4KuWaXLMJGGhKsCXmrDLZeohyeISdo5kyvAahxuquQJVevWjiBM1vj8j
oy0wKzATBgNVHSUEDDAKBggrBgEFBQcDBDAUBgNVHSAEDTALMAkGB2eBDAEFAQIw
CgYIKoZIzj0EAwIDSAAwRQIgdMEk0RGBXZCsT+IEzqX9HcrSBeTmPl1fAqoqUp7f
2GkCIQDdBzgzhxsu6L0WCtc1/mI4l/Q6qw4tosiXC/d7tQOJ2Q==
-----END CERTIFICATE-----