Certificate:
    Data:
        Version: 3 (0x2)
        Serial Number:
            91:f7:f7:95:0f:74:d3:bd:42:a3:57:87
        Signature Algorithm: sha256WithRSAEncryption
        Issuer: CN = Lint CA, O = Lint, C = DE
        Validity
            Not Before: Sep  1 00:00:00 2023 GMT
            Not After : Sep  1 00:00:00 2024 GMT
        Subject: CN = Certificate, O = Lint, C = DE
        Subject Public Key Info:
            Public Key Algorithm: rsaEncryption
                RSA Public-Key: (2048 bit)
                Modulus:
                    00:a1:ec:5b:29:6c:5f:39:4c:03:18:35:ae:fe:ab:
                    5b:a6:d5:1d:8d:ad:fb:fc:20:4c:67:b0:2d:63:ae:
                    5d:50:cc:59:5d:98:f4:d7:c8:af:7e:3e:7e:31:09:
                    dc:8c:67:46:ce:65:c7:f9:bb:8d:23:2b:95:6e:db:
                    6f:e7:51:08:90:e0:d5:31:2c:b4:64:24:1c:a6:fd:
                    39:47:12:bc:0e:7a:4a:2c:ee:09:5a:ee:82:78:62:
                    ad:5b:45:db:31:c4:81:56:f0:12:ba:60:9f:29:e5:
                    2b:04:74:13:81:82:bd:55:06:ec:fa:09:9c:6c:bd:
                    d0:9f:9b:2b:f1:b0:6e:4b:66:a3:de:98:73:11:ee:
                    fc:56:10:4d:0f:c5:0c:1d:d5:12:4a:8c:56:7c:19:
                    e5:d0:3a:fc:d2:f4:f4:de:2d:a5:eb:66:27:b4:75:
                    0f:18:7c:33:a7:86:a8:c0:94:dc:af:a3:25:85:7f:
                    9a:58:91:86:87:31:8a:20:ba:35:82:d1:8a:69:d4:
                    82:69:35:62:0c:a9:c1:43:e0:5d:73:c9:a6:f2:b5:
                    09:fa:79:0f:4c:63:8e:6f:ee:bf:0d:93:a3:45:f8:
                    ef:5e:97:3d:6e:89:64:30:e9:05:2b:fe:82:98:bc:
                    fc:ac:f7:89:a2:70:86:ef:dc:19:ea:8b:8e:a1:de:
                    b2:93
                Exponent: 65537 (0x10001)
        X509v3 extensions:
            X509v3 Extended Key Usage: 
                E-mail Protection
            X509v3 Subject Alternative Name: 
                email:test@example.com
            X509v3 Certificate Policies: 
                Policy: 2.23.140.1.5.1.3

    Signature Algorithm: sha256WithRSAEncryption
         6d:a4:2e:ff:0d:bb:f5:94:98:80:fd:6b:06:70:f4:44:94:d2:
         b1:0c:cd:08:e4:95:8e:11:0a:68:22:17:5b:02:8d:d7:79:ee:
         00:7d:0b:05:26:ae:59:2f:24:a5:2d:db:79:7c:74:53:b2:7f:
         19:e6:fa:3e:52:bf:4d:07:aa:0e:42:28:4a:ba:27:df:47:7a:
         83:ce:4b:de:b0:15:d7:b9:e4:a0:df:e6:3b:9c:82:89:27:59:
         1c:4e:98:4b:51:b3:de:98:1c:dc:f0:6a:a9:86:7d:80:b8:1a:
         0b:eb:75:61:05:8b:9e:87:b7:bc:2c:45:d4:8f:bc:81:33:c4:
         e3:57:4d:ff:76:5c:84:35:2e:15:b2:42:d8:a7:59:50:19:05:
         72:63:f5:2a:7e:f9:dc:c0:7a:b3:62:88:74:2f:58:eb:4c:cd:
         a5:a9:4f:f5:15:72:fc:37:d4:04:49:81:f5:96:92:af:37:69:
         32:7c:d9:e6:58:61:d9:bf:a7:87:05:a1:50:84:d8:ab:ee:b9:
         f7:6a:db:19:bb:51:f1:b4:d0:f8:20:91:48:82:41:a9:84:cd:
         7e:72:b5:c0:4d:8f:68:3e:3e:57:2f:44:f4:a9:34:35:fd:74:
         84:d5:3f:b2:b5:c0:69:17:fd:58:87:1e:72:38:21:ad:a7:cf:
         98:8f:7f:d1
-----BEGIN CERTIFICATE-----
MIIDMTCCAhmgAwIBAgINAJH395UPdNO9QqNXhzANBgkqhkiG9w0BAQsFADAuMRAw
DgYDVQQDDAdMaW50IENBMQ0wCwYDVQQKDARMaW50MQswCQYDVQQGEwJERTAeFw0y
MzA5MDEwMDAwMDBaFw0yNDA5MDEwMDAwMDBaMDIxFDASBgNVBAMMC0NlcnRpZmlj
YXRlMQ0wCwYDVQQKDARMaW50MQswCQYDVQQGEwJERTCCASIwDQYJKoZIhvcNAQEB
BQADggEPADCCAQoCggEBAKHsWylsXzlMAxg1rv6rW6bVHY2t+/wgTGewLWOuXVDM
WV2Y9NfIr34+fjEJ3IxnRs5lx/m7jSMrlW7bb+dRCJDg1TEstGQkHKb9OUcSvA56
SizuCVrugnhirVtF2zHEgVbwErpgnynlKwR0E4GCvVUG7PoJnGy90J+bK/Gwbktm
o96YcxHu/FYQTQ/FDB3VEkqMVnwZ5dA6/NL09N4tpetmJ7R1Dxh8M6eGqMCU3K+j
JYV/mliRhocxiiC6NYLRimnUgmk1YgypwUPgXXPJpvK1Cfp5D0xjjm/uvw2To0X4
716XPW6JZDDpBSv+gpi8/Kz3iaJwhu/cGeqLjqHespMCAwEAAaNKMEgwEwYDVR0l
BAwwCgYIKwYBBQUHAwQwGwYDVR0RBBQwEoEQdGVzdEBleGFtcGxlLmNvbTAUBgNV
HSAEDTALMAkGB2eBDAEFAQMwDQYJKoZIhvcNAQELBQADggEBAG2kLv8Nu/WUmID9
awZw9ESU0rEMzQjklY4RCmgiF1sCjdd57gB9CwUmrlkvJKUt23l8dFOyfxnm+j5S
v00Hqg5CKEq6J99HeoPOS96wFde55KDf5jucgoknWRxOmEtRs96YHNzwaqmGfYC4
GgvrdWEFi56Ht7wsRdSPvIEzxONXTf92XIQ1LhWyQtinWVAZBXJj9Sp++dzAerNi
iHQvWOtMzaWpT/UVcvw31ARJgfWWkq83aTJ82eZYYdm/p4cFoVCE2Kvuufdq2xm7
UfG00PggkUiCQamEzX5ytcBNj2g+PlcvRPSpNDX9dITVP7K1wGkX/ViHHnI4Ia2n
z5iPf9E=
-----END CERTIFICATE-----
