Certificate:
    Data:
        Version: 3 (0x2)
        Serial Number: 3 (0x3)
        Signature Algorithm: ecdsa-with-SHA256
        Issuer: 
        Validity
            Not Before: Sep 30 15:41:50 2023 GMT
            Not After : Nov 30 00:00:00 9998 GMT
        Subject: 
        Subject Public Key Info:
            Public Key Algorithm: id-ecPublicKey
                Public-Key: (256 bit)
                pub:
                    04:b0:71:a1:e2:60:7f:f2:54:b0:73:7b:ad:34:19:
                    81:36:30:9c:2b:24:92:75:9f:d3:2b:f9:7e:13:2f:
                    cf:6b:34:0e:cd:fd:16:39:8b:92:e8:de:e1:fa:81:
                    cc:cd:09:86:6b:93:1f:7c:05:0b:ca:dd:60:9f:85:
                    8f:ac:b7:cd:e4
                ASN1 OID: prime256v1
                NIST CURVE: P-256
        X509v3 extensions:
            X509v3 Extended Key Usage: 
                E-mail Protection
            X509v3 Certificate Policies: 
                Policy: 2.23.140.1.5.4.1
    Signature Algorithm: ecdsa-with-SHA256
         30:45:02:20:19:d9:4d:3d:b9:03:93:7d:ad:59:cc:d7:92:2c:
         01:a2:c6:be:71:7f:90:a4:0b:97:ad:84:f2:50:3f:ce:0b:20:
         02:21:00:d0:9a:e5:79:0d:e4:3c:2d:db:ab:31:dc:b2:13:55:
         dc:2b:41:6e:db:94:23:26:a7:28:63:f9:08:20:e4:35:6b
-----BEGIN CERTIFICATE-----
MIIBHTCBxKADAgECAgEDMAoGCCqGSM49BAMCMAAwIBcNMjMwOTMwMTU0MTUwWhgP
OTk5ODExMzAwMDAwMDBaMAAwWTATBgcqhkjOPQIBBggqhkjOPQMBBwNCAASwcaHi
YH/yVLBze600GYE2MJwrJJJ1n9Mr+X4TL89rNA7N/RY5i5Lo3uH6gczNCYZrkx98
BQvK3WCfhY+st83koy0wKzATBgNVHSUEDDAKBggrBgEFBQcDBDAUBgNVHSAEDTAL
MAkGB2eBDAEFBAEwCgYIKoZIzj0EAwIDSAAwRQIgGdlNPbkDk32tWczXkiwBosa+
cX+QpAuXrYTyUD/OCyACIQDQmuV5DeQ8LdurMdyyE1XcK0Fu25QjJqcoY/kIIOQ1
aw==
-----END CERTIFICATE-----