Certificate:
    Data:
        Version: 3 (0x2)
        Serial Number: 3 (0x3)
        Signature Algorithm: ecdsa-with-SHA256
        Issuer: 
        Validity
            Not Before: Sep  2 00:00:00 2023 GMT
            Not After : Nov 30 00:00:00 9998 GMT
        Subject: C = US, organizationIdentifier = GOVUS-123456 + organizationIdentifier = INTXG-123456
        Subject Public Key Info:
            Public Key Algorithm: id-ecPublicKey
                Public-Key: (256 bit)
                pub:
                    04:b6:9c:51:00:de:27:43:20:55:3c:96:2a:05:fd:
                    99:42:ad:e5:46:ab:a1:0d:e3:fb:26:d1:58:9f:16:
                    86:b6:62:93:6c:b5:a4:84:0d:29:e8:88:d2:17:81:
                    a9:f9:50:a3:0c:a7:4f:df:45:26:1b:cf:d9:20:b2:
                    fb:b4:90:40:41
                ASN1 OID: prime256v1
                NIST CURVE: P-256
        X509v3 extensions:
            X509v3 Extended Key Usage: 
                E-mail Protection
            X509v3 Certificate Policies: 
                Policy: 2.23.140.1.5.2.2

    Signature Algorithm: ecdsa-with-SHA256
         30:45:02:21:00:d5:2b:31:f1:2a:3f:7f:63:21:44:00:78:a2:
         84:fc:d2:61:7f:a3:55:ef:82:fd:6c:43:42:f5:6d:3e:42:bf:
         da:02:20:58:92:a4:b3:2c:54:f6:d8:49:00:0c:8c:9b:21:13:
         e2:c5:8f:ed:f2:d0:18:09:80:e5:a3:8b:66:57:e5:57:8a
-----BEGIN CERTIFICATE-----
MIIBVjCB/aADAgECAgEDMAoGCCqGSM49BAMCMAAwIBcNMjMwOTAyMDAwMDAwWhgP
OTk5ODExMzAwMDAwMDBaMDkxCzAJBgNVBAYTAlVTMSowEwYDVQRhEwxHT1ZVUy0x
MjM0NTYwEwYDVQRhEwxJTlRYRy0xMjM0NTYwWTATBgcqhkjOPQIBBggqhkjOPQMB
BwNCAAS2nFEA3idDIFU8lioF/ZlCreVGq6EN4/sm0VifFoa2YpNstaSEDSnoiNIX
gan5UKMMp0/fRSYbz9kgsvu0kEBBoy0wKzATBgNVHSUEDDAKBggrBgEFBQcDBDAU
BgNVHSAEDTALMAkGB2eBDAEFAgIwCgYIKoZIzj0EAwIDSAAwRQIhANUrMfEqP39j
IUQAeKKE/NJhf6NV74L9bENC9W0+Qr/aAiBYkqSzLFT22EkADIybIRPixY/t8tAY
CYDlo4tmV+VXig==
-----END CERTIFICATE-----