Certificate:
    Data:
        Version: 3 (0x2)
        Serial Number: 3 (0x3)
        Signature Algorithm: ecdsa-with-SHA256
        Issuer: 
        Validity
            Not Before: Sep 30 15:41:50 2023 GMT
            Not After : Nov 30 00:00:00 9998 GMT
        Subject: 
        Subject Public Key Info:
            Public Key Algorithm: id-ecPublicKey
                Public-Key: (256 bit)
                pub:
                    04:8b:93:b2:84:b1:56:f4:cc:df:55:3f:f4:07:2b:
                    d1:5a:bc:52:10:41:aa:91:88:aa:25:ac:02:da:3e:
                    0c:0e:af:3b:65:49:d5:22:f9:a5:80:f1:83:c6:bc:
                    bb:8e:cf:d1:a6:b5:92:5d:85:6f:91:5e:31:1a:af:
                    69:04:62:31:86
                ASN1 OID: prime256v1
                NIST CURVE: P-256
        X509v3 extensions:
            X509v3 Extended Key Usage: 
                E-mail Protection
    Signature Algorithm: ecdsa-with-SHA256
    Signature Value:
        30:45:02:20:0f:4a:43:42:ff:8b:5a:b3:30:f0:c6:b2:63:1c:
        92:39:4d:17:5d:b0:15:70:e9:15:2e:9a:3f:a1:d6:12:c2:79:
        02:21:00:a6:91:19:20:11:17:8d:f1:65:e0:f1:33:89:38:42:
        24:a5:41:e5:33:6b:53:21:7f:1f:49:49:0f:57:d8:0a:f2
-----BEGIN CERTIFICATE-----
MIIBBzCBrqADAgECAgEDMAoGCCqGSM49BAMCMAAwIBcNMjMwOTMwMTU0MTUwWhgP
OTk5ODExMzAwMDAwMDBaMAAwWTATBgcqhkjOPQIBBggqhkjOPQMBBwNCAASLk7KE
sVb0zN9VP/QHK9FavFIQQaqRiKolrALaPgwOrztlSdUi+aWA8YPGvLuOz9GmtZJd
hW+RXjEar2kEYjGGoxcwFTATBgNVHSUEDDAKBggrBgEFBQcDBDAKBggqhkjOPQQD
AgNIADBFAiAPSkNC/4taszDwxrJjHJI5TRddsBVw6RUumj+h1hLCeQIhAKaRGSAR
F43xZeDxM4k4QiSlQeUza1Mhfx9JSQ9X2Ary
-----END CERTIFICATE-----
