Certificate:
    Data:
        Version: 3 (0x2)
        Serial Number: 3 (0x3)
        Signature Algorithm: ecdsa-with-SHA256
        Issuer: 
        Validity
            Not Before: Sep 30 15:56:47 2023 GMT
            Not After : Nov 30 00:00:00 9998 GMT
        Subject: 
        Subject Public Key Info:
            Public Key Algorithm: id-ecPublicKey
                Public-Key: (256 bit)
                pub:
                    04:69:58:02:49:7d:98:10:6e:6d:f3:3f:8f:2b:9f:
                    10:df:09:42:d6:c5:1c:22:9c:86:87:e6:1d:ed:ed:
                    d5:98:1d:93:ce:ce:61:2a:8d:44:cb:73:59:90:06:
                    bb:68:e4:7c:24:d0:47:6a:b9:a4:a3:c9:60:a7:4d:
                    5e:c5:46:dd:bd
                ASN1 OID: prime256v1
                NIST CURVE: P-256
        X509v3 extensions:
            X509v3 Extended Key Usage: 
                E-mail Protection
            X509v3 Subject Alternative Name: 
                email:coolguy@coolplace.come
    Signature Algorithm: ecdsa-with-SHA256
    Signature Value:
        30:45:02:21:00:eb:30:e0:f2:cf:6f:a4:95:ca:6a:e0:a9:e7:
        06:ea:4d:b2:18:b7:bd:6e:69:4f:96:c0:07:86:3c:73:b2:2e:
        3f:02:20:6e:83:bb:ca:79:8f:91:43:22:08:02:b3:86:30:85:
        d7:1f:e7:ec:9c:0b:06:58:1b:47:15:08:25:26:99:c2:26
-----BEGIN CERTIFICATE-----
MIIBKjCB0aADAgECAgEDMAoGCCqGSM49BAMCMAAwIBcNMjMwOTMwMTU1NjQ3WhgP
OTk5ODExMzAwMDAwMDBaMAAwWTATBgcqhkjOPQIBBggqhkjOPQMBBwNCAARpWAJJ
fZgQbm3zP48rnxDfCULWxRwinIaH5h3t7dWYHZPOzmEqjUTLc1mQBrto5Hwk0Edq
uaSjyWCnTV7FRt29ozowODATBgNVHSUEDDAKBggrBgEFBQcDBDAhBgNVHREEGjAY
gRZjb29sZ3V5QGNvb2xwbGFjZS5jb21lMAoGCCqGSM49BAMCA0gAMEUCIQDrMODy
z2+klcpq4KnnBupNshi3vW5pT5bAB4Y8c7IuPwIgboO7ynmPkUMiCAKzhjCF1x/n
7JwLBlgbRxUIJSaZwiY=
-----END CERTIFICATE-----
