Certificate:
    Data:
        Version: 3 (0x2)
        Serial Number: 3 (0x3)
        Signature Algorithm: ecdsa-with-SHA256
        Issuer: 
        Validity
            Not Before: Sep  2 00:00:00 2023 GMT
            Not After : Nov 30 00:00:00 9998 GMT
        Subject: 
        Subject Public Key Info:
            Public Key Algorithm: id-ecPublicKey
                Public-Key: (256 bit)
                pub:
                    04:80:18:7e:b2:c2:90:7e:83:ed:f3:ba:64:10:20:
                    ca:bb:7c:8a:7f:74:dd:e8:aa:fc:7b:59:06:91:5b:
                    22:0d:f3:20:c3:b1:46:c3:b2:a5:a8:b9:c8:bc:e3:
                    22:c1:9f:40:a4:e2:61:ba:44:df:6a:37:da:90:66:
                    eb:cf:30:0f:73
                ASN1 OID: prime256v1
                NIST CURVE: P-256
        X509v3 extensions:
            X509v3 Key Usage: 
                Digital Signature
            X509v3 Certificate Policies: 
                Policy: 2.23.140.1.5.1.3

    Signature Algorithm: ecdsa-with-SHA256
         30:44:02:20:7b:d8:1d:c5:7f:57:b9:b2:71:7a:67:f4:52:ad:
         13:1c:5b:2a:6b:b6:8c:19:dc:d8:10:f4:dc:76:ee:e4:2a:26:
         02:20:3b:7b:b6:c7:8b:f3:20:05:cb:e5:d6:80:d0:56:c5:6b:
         24:16:c8:8a:81:f4:63:36:f2:86:31:ed:83:cd:18:d5
-----BEGIN CERTIFICATE-----
MIIBFDCBvKADAgECAgEDMAoGCCqGSM49BAMCMAAwIBcNMjMwOTAyMDAwMDAwWhgP
OTk5ODExMzAwMDAwMDBaMAAwWTATBgcqhkjOPQIBBggqhkjOPQMBBwNCAASAGH6y
wpB+g+3zumQQIMq7fIp/dN3oqvx7WQaRWyIN8yDDsUbDsqWouci84yLBn0Ck4mG6
RN9qN9qQZuvPMA9zoyUwIzALBgNVHQ8EBAMCAIAwFAYDVR0gBA0wCzAJBgdngQwB
BQEDMAoGCCqGSM49BAMCA0cAMEQCIHvYHcV/V7mycXpn9FKtExxbKmu2jBnc2BD0
3Hbu5ComAiA7e7bHi/MgBcvl1oDQVsVrJBbIioH0YzbyhjHtg80Y1Q==
-----END CERTIFICATE-----