Certificate:
    Data:
        Version: 3 (0x2)
        Serial Number: 18008675309 (0x4316693ed)
    Signature Algorithm: sha256WithRSAEncryption
        Issuer: C = US, O = Mother Nature, OU = Everything, CN = Mother Nature
        Validity
            Not Before: Jun 29 17:34:54 2016 GMT
            Not After : Sep 10 17:34:54 2016 GMT
        Subject: C = US + C = AL + C =  + C = KR, ST = FL, L = Tallahassee, street = 3210 Holly Mill Run, postalCode = 30062, OU = Chaos, CN = gov.us
        Subject Public Key Info:
            Public Key Algorithm: rsaEncryption
                Public-Key: (2048 bit)
                Modulus:
                    00:c6:b6:c3:2d:dd:05:49:64:20:d9:78:0a:84:1b:
                    af:ae:93:a3:61:ac:24:f0:23:58:8b:ec:62:34:31:
                    7b:6c:67:15:65:11:bf:ac:99:51:eb:8d:6b:f6:ee:
                    46:89:af:91:4d:8a:66:b4:00:1b:22:f4:82:d4:fe:
                    c2:3a:16:c7:9a:a9:d5:6b:ec:ad:47:b2:d7:6e:d8:
                    5f:47:c3:d4:39:32:87:01:8a:c0:6c:c4:1e:89:7f:
                    8b:83:5b:77:52:52:a6:f1:59:cd:49:8b:a4:4e:86:
                    76:33:1d:f9:12:49:22:23:2c:fa:7f:d7:71:a2:a8:
                    d1:3f:7a:cb:ba:92:95:2c:1d:af:0f:cb:18:e6:07:
                    35:44:77:10:3a:a0:30:08:6c:ef:58:ef:ea:d6:15:
                    41:d3:05:8f:25:01:39:0d:e4:ef:4a:38:ba:74:f2:
                    b2:0d:15:f4:a2:52:45:02:80:5e:01:60:03:d1:9f:
                    3b:7c:62:cf:e7:7b:74:fd:06:62:51:fd:30:cb:96:
                    ff:2b:d7:36:0e:43:c6:b3:6c:bd:5f:43:8d:c6:57:
                    95:71:9d:92:0e:f4:c1:0f:2f:7f:4e:4e:0b:9e:61:
                    11:28:99:c8:e5:ba:af:b6:e9:56:7d:1a:6c:66:4d:
                    8e:a7:08:e0:f1:eb:fa:00:ff:7e:78:60:af:1c:72:
                    69:a5
                Exponent: 65537 (0x10001)
        X509v3 extensions:
            X509v3 Key Usage: critical
                Digital Signature, Key Encipherment
            X509v3 Extended Key Usage: 
                TLS Web Client Authentication, TLS Web Server Authentication
            X509v3 Basic Constraints: critical
                CA:TRUE
            X509v3 Authority Key Identifier: 
                keyid:01:02:03

            Authority Information Access: 
                OCSP - URI:http://theca.net/ocsp
                CA Issuers - URI:http://theca.net/totallythecert.crt

            X509v3 Certificate Policies: 
                Policy: 2.23.140.1.2.2

            X509v3 Subject Key Identifier: 
                04:03:02:01
            X509v3 Subject Alternative Name: 
                DNS:*.gov.us, DNS:gov.us
    Signature Algorithm: sha256WithRSAEncryption
         6d:fb:27:14:24:27:df:d5:61:b9:52:3c:65:43:5f:1b:63:c0:
         d3:69:ec:93:4b:07:6d:86:33:9b:ae:a2:9f:db:b2:ce:04:5e:
         95:98:92:24:3a:90:61:8a:c8:f7:43:1c:85:e7:86:79:c2:87:
         cc:ea:13:84:68:fa:2d:7c:e9:a9:23:6b:e7:65:22:cd:03:8e:
         eb:99:64:af:c8:aa:3c:f4:f0:70:74:14:21:ab:8c:37:c2:65:
         6e:0f:e0:ab:88:eb:6a:a1:b3:fd:a3:ba:22:08:65:75:69:3c:
         d9:4b:07:88:15:85:a8:e4:8d:eb:e4:89:2e:f5:2c:d2:91:a4:
         b2:7e:f9:c8:08:e2:36:4b:e3:1c:b6:24:9d:27:65:72:b9:51:
         72:a5:84:76:3f:ab:6d:0d:4c:30:d6:3e:e0:eb:0c:c8:29:f1:
         21:8e:ce:4b:d5:ff:4f:03:c6:b2:e4:43:fc:41:de:3b:2a:6a:
         26:d6:c1:8d:e5:2c:c9:74:6f:c1:34:bd:98:f7:50:40:b6:0a:
         e7:c9:93:d7:10:b3:e1:d6:04:a3:dc:f1:15:17:43:b3:f2:f0:
         e3:fe:35:0c:c7:da:4f:20:aa:ee:15:c0:6f:31:34:e8:da:a7:
         59:82:44:9e:e9:1b:8e:c6:e9:55:75:43:69:52:72:49:ba:51:
         13:d4:ac:6c
-----BEGIN CERTIFICATE-----
MIIEaTCCA1GgAwIBAgIFBDFmk+0wDQYJKoZIhvcNAQELBQAwUjELMAkGA1UEBhMC
VVMxFjAUBgNVBAoTDU1vdGhlciBOYXR1cmUxEzARBgNVBAsTCkV2ZXJ5dGhpbmcx
FjAUBgNVBAMTDU1vdGhlciBOYXR1cmUwHhcNMTYwNjI5MTczNDU0WhcNMTYwOTEw
MTczNDU0WjCBnjEqMAkGA1UEBhMCVVMwCQYDVQQGEwJBTDAHBgNVBAYTADAJBgNV
BAYTAktSMQswCQYDVQQIEwJGTDEUMBIGA1UEBxMLVGFsbGFoYXNzZWUxHDAaBgNV
BAkTEzMyMTAgSG9sbHkgTWlsbCBSdW4xDjAMBgNVBBETBTMwMDYyMQ4wDAYDVQQL
EwVDaGFvczEPMA0GA1UEAxMGZ292LnVzMIIBIjANBgkqhkiG9w0BAQEFAAOCAQ8A
MIIBCgKCAQEAxrbDLd0FSWQg2XgKhBuvrpOjYawk8CNYi+xiNDF7bGcVZRG/rJlR
641r9u5Gia+RTYpmtAAbIvSC1P7COhbHmqnVa+ytR7LXbthfR8PUOTKHAYrAbMQe
iX+Lg1t3UlKm8VnNSYukToZ2Mx35EkkiIyz6f9dxoqjRP3rLupKVLB2vD8sY5gc1
RHcQOqAwCGzvWO/q1hVB0wWPJQE5DeTvSji6dPKyDRX0olJFAoBeAWAD0Z87fGLP
53t0/QZiUf0wy5b/K9c2DkPGs2y9X0ONxleVcZ2SDvTBDy9/Tk4LnmERKJnI5bqv
tulWfRpsZk2Opwjg8ev6AP9+eGCvHHJppQIDAQABo4H4MIH1MA4GA1UdDwEB/wQE
AwIFoDAdBgNVHSUEFjAUBggrBgEFBQcDAgYIKwYBBQUHAwEwDwYDVR0TAQH/BAUw
AwEB/zAOBgNVHSMEBzAFgAMBAgMwYgYIKwYBBQUHAQEEVjBUMCEGCCsGAQUFBzAB
hhVodHRwOi8vdGhlY2EubmV0L29jc3AwLwYIKwYBBQUHMAKGI2h0dHA6Ly90aGVj
YS5uZXQvdG90YWxseXRoZWNlcnQuY3J0MBMGA1UdIAQMMAowCAYGZ4EMAQICMA0G
A1UdDgQGBAQEAwIBMBsGA1UdEQQUMBKCCCouZ292LnVzggZnb3YudXMwDQYJKoZI
hvcNAQELBQADggEBAG37JxQkJ9/VYblSPGVDXxtjwNNp7JNLB22GM5uuop/bss4E
XpWYkiQ6kGGKyPdDHIXnhnnCh8zqE4Ro+i186akja+dlIs0DjuuZZK/Iqjz08HB0
FCGrjDfCZW4P4KuI62qhs/2juiIIZXVpPNlLB4gVhajkjevkiS71LNKRpLJ++cgI
4jZL4xy2JJ0nZXK5UXKlhHY/q20NTDDWPuDrDMgp8SGOzkvV/08DxrLkQ/xB3jsq
aibWwY3lLMl0b8E0vZj3UEC2CufJk9cQs+HWBKPc8RUXQ7Py8OP+NQzH2k8gqu4V
wG8xNOjap1mCRJ7pG47G6VV1Q2lSckm6URPUrGw=
-----END CERTIFICATE-----
