Certificate:
    Data:
        Version: 1 (0x0)
        Serial Number: 1 (0x1)
    Signature Algorithm: sha1WithRSAEncryption
        Issuer: C = CN, ST = ZJ, L = HZ, CN = 192.0.0.64, OU = embeddedsofteware, emailAddress = com.cn
        Validity
            Not Before: Jun 19 16:10:23 2015 GMT
            Not After : Jun 18 16:10:23 2018 GMT
        Subject: C = CN, ST = ZJ, L = HZ, CN = 192.0.0.64, OU = embeddedsofteware, emailAddress = com.cn
        Subject Public Key Info:
            Public Key Algorithm: rsaEncryption
                Public-Key: (1024 bit)
                Modulus:
                    00:d8:3d:ee:9c:c2:97:12:a8:6c:3a:73:92:c5:f9:
                    e8:4f:ac:f8:51:30:42:75:e2:d3:5d:e6:1b:a2:c2:
                    43:11:a9:1a:e2:aa:5e:70:15:9f:c2:2d:b5:e6:43:
                    40:b7:ee:34:45:da:6b:e1:53:30:c4:fb:27:ec:8e:
                    1f:9e:b0:e4:d8:33:62:69:f6:d0:71:bc:2f:d0:f8:
                    b5:1a:80:f5:6a:a2:89:ad:3f:25:bc:0b:e7:7f:71:
                    bf:9b:0c:5d:13:57:f3:08:cb:88:3e:af:3d:60:1f:
                    f7:65:e7:d3:ec:d4:c3:2b:63:15:4f:71:97:ad:af:
                    71:b8:f6:9b:6f:4d:d0:a2:93
                Exponent: 65537 (0x10001)
    Signature Algorithm: sha1WithRSAEncryption
         29:a8:bb:9f:71:dc:66:be:be:f5:bb:fc:57:d3:9a:87:e4:46:
         49:d0:a6:3e:4e:c2:75:8a:7e:13:df:17:45:ba:bf:4b:99:bb:
         2a:a2:31:59:3f:96:96:87:f7:62:07:64:23:7a:40:5c:ac:a4:
         3d:b1:1f:2d:7b:12:73:ec:18:ae:d0:13:e8:90:1f:64:d8:8b:
         8d:d0:61:da:28:d0:69:68:ea:d6:a2:e3:6d:65:67:68:5d:f1:
         9c:0c:48:47:bb:09:9f:4d:4c:fc:b4:67:9b:d6:1d:8f:cf:e2:
         f0:9c:e6:45:ba:b6:7e:75:76:86:42:42:38:e9:c5:dc:4f:8d:
         60:92
-----BEGIN CERTIFICATE-----
MIICUjCCAbugAwIBAAIBATANBgkqhkiG9w0BAQUFADBvMQswCQYDVQQGEwJDTjEL
MAkGA1UECBMCWkoxCzAJBgNVBAcTAkhaMRMwEQYDVQQDEwoxOTIuMC4wLjY0MRow
GAYDVQQLExFlbWJlZGRlZHNvZnRld2FyZTEVMBMGCSqGSIb3DQEJARYGY29tLmNu
MB4XDTE1MDYxOTE2MTAyM1oXDTE4MDYxODE2MTAyM1owbzELMAkGA1UEBhMCQ04x
CzAJBgNVBAgTAlpKMQswCQYDVQQHEwJIWjETMBEGA1UEAxMKMTkyLjAuMC42NDEa
MBgGA1UECxMRZW1iZWRkZWRzb2Z0ZXdhcmUxFTATBgkqhkiG9w0BCQEWBmNvbS5j
bjCBnzANBgkqhkiG9w0BAQEFAAOBjQAwgYkCgYEA2D3unMKXEqhsOnOSxfnoT6z4
UTBCdeLTXeYbosJDEaka4qpecBWfwi215kNAt+40Rdpr4VMwxPsn7I4fnrDk2DNi
afbQcbwv0Pi1GoD1aqKJrT8lvAvnf3G/mwxdE1fzCMuIPq89YB/3ZefT7NTDK2MV
T3GXra9xuPabb03QopMCAwEAATANBgkqhkiG9w0BAQUFAAOBgQApqLufcdxmvr71
u/xX05qH5EZJ0KY+TsJ1in4T3xdFur9LmbsqojFZP5aWh/diB2QjekBcrKQ9sR8t
exJz7Biu0BPokB9k2IuN0GHaKNBpaOrWouNtZWdoXfGcDEhHuwmfTUz8tGeb1h2P
z+LwnOZFurZ+dXaGQkI46cXcT41gkg==
-----END CERTIFICATE-----
