Certificate:
    Data:
        Version: 3 (0x2)
        Serial Number: 18008675309 (0x4316693ed)
    Signature Algorithm: sha256WithRSAEncryption
        Issuer: C = US, O = Mother Nature, OU = Everything, CN = Mother Nature
        Validity
            Not Before: Mar 28 19:46:37 2017 GMT
            Not After : Jun  9 19:46:37 2017 GMT
        Subject: C = US, ST = FL, L = Tallahassee, street = 3210 Holly Mill Run, postalCode = 30062, O = Extreme Discord, OU = Chaos, CN = gov.us
        Subject Public Key Info:
            Public Key Algorithm: rsaEncryption
                Public-Key: (2048 bit)
                Modulus:
                    00:aa:5b:fb:92:6b:fc:9f:70:2b:11:d5:3c:ab:72:
                    86:2c:b9:60:65:1f:c1:0d:d9:03:c0:53:2c:dd:a6:
                    99:77:8f:89:d8:57:70:6f:03:be:c4:60:48:a7:9d:
                    f0:f5:77:83:c5:fc:ba:8f:58:e6:00:49:14:73:61:
                    69:c2:c3:bb:c2:94:51:cc:ef:01:4b:76:ec:66:23:
                    d7:f2:5f:a4:85:88:37:73:91:e4:7a:81:ff:8a:f8:
                    2a:23:3b:6e:58:3e:99:e8:cf:09:3f:54:2d:4d:69:
                    ca:08:2a:66:4f:f6:a3:38:27:34:a8:bb:62:9e:47:
                    d6:46:ad:5e:53:f5:36:43:04:73:6b:b9:e8:58:17:
                    6e:28:ab:7b:30:5b:ce:80:3b:49:2d:77:c6:ab:fa:
                    35:94:cb:5e:42:b3:81:07:ed:97:c5:92:75:57:38:
                    ab:9b:c1:0a:57:d4:ea:31:64:3b:cc:10:c2:bd:e7:
                    f3:07:1d:21:bf:6c:38:4d:94:fa:d9:1b:77:48:8a:
                    60:c9:77:6e:e3:bb:09:b2:e0:a7:b9:a5:8e:9c:3f:
                    24:28:9a:c2:b4:c3:b4:bb:57:6f:93:80:12:8b:8e:
                    a5:1a:a2:17:72:1c:d3:1d:d3:b9:9b:a4:8f:a4:46:
                    41:38:19:e6:f2:3e:22:88:fb:0c:57:9d:d4:10:7b:
                    f4:19
                Exponent: 65537 (0x10001)
        X509v3 extensions:
            X509v3 Key Usage: critical
                Digital Signature, Key Encipherment
            X509v3 Extended Key Usage: 
                TLS Web Client Authentication, TLS Web Server Authentication
            X509v3 Basic Constraints: critical
                CA:FALSE
            X509v3 Authority Key Identifier: 
                keyid:01:02:03

            Authority Information Access: 
                OCSP - URI:http://theca.net/ocsp
                CA Issuers - URI:http://theca.net/totallythecert.crt

            X509v3 Certificate Policies: 
                Policy: 2.23.140.1.2.2

            X509v3 Subject Key Identifier: 
                04:03:02:01
            X509v3 Issuer Alternative Name: 
                URI:gov, URI:gov.us
    Signature Algorithm: sha256WithRSAEncryption
         0c:9f:aa:4d:57:19:09:4e:d9:7f:aa:e1:23:9a:c0:ee:4f:65:
         5e:74:2a:66:38:77:8b:90:f0:a9:02:bc:b2:c2:4d:38:64:be:
         99:a7:74:b1:8b:9e:37:86:d5:86:a3:2c:09:e7:de:09:86:fc:
         db:e9:65:15:e4:da:2c:0e:96:87:e5:d2:2a:02:0a:25:00:2e:
         5e:79:17:a0:62:ae:13:30:7e:e6:fe:99:89:12:2b:d6:26:5a:
         a1:ad:40:96:d0:2c:e6:5a:4c:f8:3f:80:9b:63:04:aa:1d:b7:
         83:0c:ff:14:ad:67:61:04:09:88:59:06:42:c0:a6:71:5b:d3:
         2a:95:45:b7:51:b8:66:ee:be:fc:e3:12:32:e6:19:6a:a3:bf:
         dd:ee:1d:fb:16:a2:25:bb:ad:c0:81:17:21:97:fb:fd:68:ca:
         73:80:96:d5:a5:88:fb:c4:e4:4a:3b:e3:3a:69:de:e7:00:08:
         b2:fb:a6:20:b9:89:10:82:dc:e5:f7:43:80:c5:16:f9:df:64:
         f7:80:ca:de:02:6f:ea:f0:b7:4a:14:ec:ac:75:fd:a4:5e:65:
         40:5b:01:6c:6c:0f:5f:41:91:ca:73:14:0e:09:c5:81:23:c6:
         df:b5:2f:d1:68:cd:30:73:95:9c:6c:df:d5:fd:94:9c:dd:1b:
         74:35:27:35
-----BEGIN CERTIFICATE-----
MIIEXDCCA0SgAwIBAgIFBDFmk+0wDQYJKoZIhvcNAQELBQAwUjELMAkGA1UEBhMC
VVMxFjAUBgNVBAoTDU1vdGhlciBOYXR1cmUxEzARBgNVBAsTCkV2ZXJ5dGhpbmcx
FjAUBgNVBAMTDU1vdGhlciBOYXR1cmUwHhcNMTcwMzI4MTk0NjM3WhcNMTcwNjA5
MTk0NjM3WjCBmTELMAkGA1UEBhMCVVMxCzAJBgNVBAgTAkZMMRQwEgYDVQQHEwtU
YWxsYWhhc3NlZTEcMBoGA1UECRMTMzIxMCBIb2xseSBNaWxsIFJ1bjEOMAwGA1UE
ERMFMzAwNjIxGDAWBgNVBAoTD0V4dHJlbWUgRGlzY29yZDEOMAwGA1UECxMFQ2hh
b3MxDzANBgNVBAMTBmdvdi51czCCASIwDQYJKoZIhvcNAQEBBQADggEPADCCAQoC
ggEBAKpb+5Jr/J9wKxHVPKtyhiy5YGUfwQ3ZA8BTLN2mmXePidhXcG8DvsRgSKed
8PV3g8X8uo9Y5gBJFHNhacLDu8KUUczvAUt27GYj1/JfpIWIN3OR5HqB/4r4KiM7
blg+mejPCT9ULU1pyggqZk/2ozgnNKi7Yp5H1katXlP1NkMEc2u56FgXbiirezBb
zoA7SS13xqv6NZTLXkKzgQftl8WSdVc4q5vBClfU6jFkO8wQwr3n8wcdIb9sOE2U
+tkbd0iKYMl3buO7CbLgp7mljpw/JCiawrTDtLtXb5OAEouOpRqiF3Ic0x3TuZuk
j6RGQTgZ5vI+Ioj7DFed1BB79BkCAwEAAaOB8DCB7TAOBgNVHQ8BAf8EBAMCBaAw
HQYDVR0lBBYwFAYIKwYBBQUHAwIGCCsGAQUFBwMBMAwGA1UdEwEB/wQCMAAwDgYD
VR0jBAcwBYADAQIDMGIGCCsGAQUFBwEBBFYwVDAhBggrBgEFBQcwAYYVaHR0cDov
L3RoZWNhLm5ldC9vY3NwMC8GCCsGAQUFBzAChiNodHRwOi8vdGhlY2EubmV0L3Rv
dGFsbHl0aGVjZXJ0LmNydDATBgNVHSAEDDAKMAgGBmeBDAECAjANBgNVHQ4EBgQE
BAMCATAWBgNVHRIEDzANhgNnb3aGBmdvdi51czANBgkqhkiG9w0BAQsFAAOCAQEA
DJ+qTVcZCU7Zf6rhI5rA7k9lXnQqZjh3i5DwqQK8ssJNOGS+mad0sYueN4bVhqMs
CefeCYb82+llFeTaLA6Wh+XSKgIKJQAuXnkXoGKuEzB+5v6ZiRIr1iZaoa1AltAs
5lpM+D+Am2MEqh23gwz/FK1nYQQJiFkGQsCmcVvTKpVFt1G4Zu6+/OMSMuYZaqO/
3e4d+xaiJbutwIEXIZf7/WjKc4CW1aWI+8TkSjvjOmne5wAIsvumILmJEILc5fdD
gMUW+d9k94DK3gJv6vC3ShTsrHX9pF5lQFsBbGwPX0GRynMUDgnFgSPG37Uv0WjN
MHOVnGzf1f2UnN0bdDUnNQ==
-----END CERTIFICATE-----
