Certificate:
    Data:
        Version: 3 (0x2)
        Serial Number: 18008675309 (0x4316693ed)
    Signature Algorithm: sha256WithRSAEncryption
        Issuer: C = US, O = Mother Nature, OU = Everything, CN = Mother Nature
        Validity
            Not Before: Jun 27 23:12:27 2016 GMT
            Not After : Sep  8 23:12:27 2016 GMT
        Subject: C = US, ST = FL, L = Tallahassee, street = 3210 Holly Mill Run, postalCode = 30062, O = Extreme Discord, CN = gov.us
        Subject Public Key Info:
            Public Key Algorithm: rsaEncryption
                Public-Key: (2048 bit)
                Modulus:
                    00:be:a8:ce:8f:ac:19:6a:17:b9:87:ce:ca:dc:df:
                    25:a2:8d:f5:21:ce:be:59:41:0f:17:9e:17:64:68:
                    b9:8a:e0:9b:87:81:db:66:64:09:0e:80:d6:da:63:
                    cc:b9:bf:50:f0:d8:fe:0a:19:4c:e8:11:9e:51:a1:
                    4f:ee:bc:97:30:b9:83:39:e7:7c:9a:a7:3c:58:c9:
                    8f:0f:76:c9:4d:c0:37:83:61:6b:a1:da:66:e4:8b:
                    3b:6d:b3:53:f2:ef:29:a1:53:18:60:3f:5f:b6:f2:
                    7e:11:6a:3e:9f:9b:f2:ca:a7:34:dd:86:6f:5c:f8:
                    42:af:3d:ac:2b:ff:18:eb:7c:2a:4a:72:73:31:e2:
                    99:93:5e:9f:03:ca:64:33:c7:7c:33:95:e5:ba:66:
                    93:b7:15:a9:47:cf:44:47:9a:ca:bb:35:8d:46:4f:
                    ea:3d:4d:88:a7:1d:cd:39:3a:98:b6:a1:ce:66:42:
                    b3:99:4d:40:f8:1e:ff:f8:16:e1:ce:be:3c:f1:fd:
                    57:be:e5:06:85:8f:6a:d0:db:e2:a1:2e:d5:0a:c8:
                    5d:4d:19:b6:12:83:e0:85:6c:fb:44:8c:86:e8:3d:
                    90:d8:5c:a5:73:51:65:5a:96:bb:49:ab:bc:7c:c1:
                    7c:f8:3b:75:61:ca:bd:38:0b:17:f3:44:6b:6b:d8:
                    d0:f5
                Exponent: 65537 (0x10001)
        X509v3 extensions:
            X509v3 Key Usage: critical
                Digital Signature, Key Encipherment
            X509v3 Extended Key Usage: 
                TLS Web Client Authentication, TLS Web Server Authentication
            X509v3 Basic Constraints: critical
                CA:FALSE
            X509v3 Authority Key Identifier: 
                keyid:01:02:03

            Authority Information Access: 
                OCSP - URI:http://theca.net/ocsp
                CA Issuers - URI:http://theca.net/totallythecert.crt

            X509v3 Certificate Policies: 
                Policy: 2.23.140.1.2.3

            X509v3 Subject Key Identifier: 
                04:03:02:01
            X509v3 Subject Alternative Name: 
                DNS:*.gov.us, DNS:gov.us
    Signature Algorithm: sha256WithRSAEncryption
         2f:ad:0c:8a:4a:b3:39:91:0f:1d:58:4f:2b:a8:22:a7:82:a6:
         38:1e:36:b5:1d:93:7d:ae:fa:1f:2a:19:2a:f0:aa:09:11:38:
         5b:e7:71:a6:2e:4e:82:eb:79:bd:3d:17:24:36:41:e5:d3:59:
         08:fd:3b:e8:66:bd:fc:be:b3:4e:60:45:a1:5e:80:fe:87:1c:
         34:85:3c:ed:2f:e7:8e:cf:04:16:fd:59:53:2b:8d:9c:d1:29:
         be:db:4e:90:f8:60:f4:e0:df:a8:12:bb:19:f5:0a:39:3d:4a:
         df:ef:84:b7:41:5a:b9:7c:b4:1e:c8:25:31:ea:45:28:a0:3c:
         fb:5a:d4:59:a2:ab:ff:2c:9e:d7:b4:a8:39:2c:ea:97:ba:0b:
         8e:d1:4f:c8:eb:84:09:20:41:11:58:ba:03:30:38:c0:a3:fb:
         8a:c1:97:1b:08:7c:3c:65:0f:fb:d0:9a:5a:6c:55:26:24:15:
         b0:68:c3:64:87:bc:32:aa:70:8a:dc:89:dd:b8:a3:a6:a5:68:
         28:f8:e3:1f:21:68:ec:54:77:9e:c5:2b:04:e3:86:11:06:d9:
         24:5e:d0:f8:ac:85:3e:25:8b:79:93:b9:32:20:a5:7c:29:58:
         a6:7c:9a:cc:ce:ac:50:d8:50:68:d0:fc:33:ef:e5:7e:5b:6a:
         46:b8:8f:10
-----BEGIN CERTIFICATE-----
MIIEUTCCAzmgAwIBAgIFBDFmk+0wDQYJKoZIhvcNAQELBQAwUjELMAkGA1UEBhMC
VVMxFjAUBgNVBAoTDU1vdGhlciBOYXR1cmUxEzARBgNVBAsTCkV2ZXJ5dGhpbmcx
FjAUBgNVBAMTDU1vdGhlciBOYXR1cmUwHhcNMTYwNjI3MjMxMjI3WhcNMTYwOTA4
MjMxMjI3WjCBiTELMAkGA1UEBhMCVVMxCzAJBgNVBAgTAkZMMRQwEgYDVQQHEwtU
YWxsYWhhc3NlZTEcMBoGA1UECRMTMzIxMCBIb2xseSBNaWxsIFJ1bjEOMAwGA1UE
ERMFMzAwNjIxGDAWBgNVBAoTD0V4dHJlbWUgRGlzY29yZDEPMA0GA1UEAxMGZ292
LnVzMIIBIjANBgkqhkiG9w0BAQEFAAOCAQ8AMIIBCgKCAQEAvqjOj6wZahe5h87K
3N8loo31Ic6+WUEPF54XZGi5iuCbh4HbZmQJDoDW2mPMub9Q8Nj+ChlM6BGeUaFP
7ryXMLmDOed8mqc8WMmPD3bJTcA3g2Frodpm5Is7bbNT8u8poVMYYD9ftvJ+EWo+
n5vyyqc03YZvXPhCrz2sK/8Y63wqSnJzMeKZk16fA8pkM8d8M5XlumaTtxWpR89E
R5rKuzWNRk/qPU2Ipx3NOTqYtqHOZkKzmU1A+B7/+Bbhzr488f1XvuUGhY9q0Nvi
oS7VCshdTRm2EoPghWz7RIyG6D2Q2Fylc1FlWpa7Sau8fMF8+Dt1Ycq9OAsX80Rr
a9jQ9QIDAQABo4H1MIHyMA4GA1UdDwEB/wQEAwIFoDAdBgNVHSUEFjAUBggrBgEF
BQcDAgYIKwYBBQUHAwEwDAYDVR0TAQH/BAIwADAOBgNVHSMEBzAFgAMBAgMwYgYI
KwYBBQUHAQEEVjBUMCEGCCsGAQUFBzABhhVodHRwOi8vdGhlY2EubmV0L29jc3Aw
LwYIKwYBBQUHMAKGI2h0dHA6Ly90aGVjYS5uZXQvdG90YWxseXRoZWNlcnQuY3J0
MBMGA1UdIAQMMAowCAYGZ4EMAQIDMA0GA1UdDgQGBAQEAwIBMBsGA1UdEQQUMBKC
CCouZ292LnVzggZnb3YudXMwDQYJKoZIhvcNAQELBQADggEBAC+tDIpKszmRDx1Y
TyuoIqeCpjgeNrUdk32u+h8qGSrwqgkROFvncaYuToLreb09FyQ2QeXTWQj9O+hm
vfy+s05gRaFegP6HHDSFPO0v547PBBb9WVMrjZzRKb7bTpD4YPTg36gSuxn1Cjk9
St/vhLdBWrl8tB7IJTHqRSigPPta1Fmiq/8snte0qDks6pe6C47RT8jrhAkgQRFY
ugMwOMCj+4rBlxsIfDxlD/vQmlpsVSYkFbBow2SHvDKqcIrcid24o6alaCj44x8h
aOxUd57FKwTjhhEG2SRe0PishT4li3mTuTIgpXwpWKZ8mszOrFDYUGjQ/DPv5X5b
aka4jxA=
-----END CERTIFICATE-----
