Certificate:
    Data:
        Version: 3 (0x2)
        Serial Number: 18008675309 (0x4316693ed)
    Signature Algorithm: sha256WithRSAEncryption
        Issuer: C = US, O = Mother Nature, OU = Everything, CN = Mother Nature
        Validity
            Not Before: Jun 29 21:27:21 2016 GMT
            Not After : Sep 10 21:27:21 2016 GMT
        Subject: CN = gov.us
        Subject Public Key Info:
            Public Key Algorithm: rsaEncryption
                Public-Key: (2048 bit)
                Modulus:
                    00:d2:b0:f6:d9:ea:63:4a:eb:7a:cc:cc:97:bd:e0:
                    84:11:00:52:b7:37:4f:0e:d8:e6:2d:00:26:a9:66:
                    bc:0e:af:9a:6f:fb:3f:ce:ad:b2:a8:0a:a8:fa:4b:
                    f3:bb:d8:71:53:12:b4:ac:70:3d:b5:96:7b:8d:0b:
                    01:a7:51:d8:dc:97:ec:90:f0:07:50:f4:1a:dd:3f:
                    60:10:67:ed:eb:67:9f:e9:94:16:fe:c9:a2:b8:e0:
                    ca:d3:70:cb:e6:7b:29:ff:6e:67:98:87:dd:05:53:
                    3c:f3:b7:2d:af:92:4a:57:c5:38:f3:33:51:de:e2:
                    cc:0b:b1:a9:3e:7d:5f:f6:76:8f:c7:38:78:c1:3d:
                    17:ba:c9:6c:d8:fb:ab:2b:44:e3:be:6b:e2:38:e1:
                    78:5f:0f:dd:2a:6e:52:72:2c:3d:8e:82:8b:ad:6b:
                    db:d8:16:f8:0a:7e:4b:73:8a:f3:db:e9:21:79:de:
                    6e:8f:24:92:e3:30:39:94:20:88:8b:ef:e4:1c:90:
                    c7:c0:58:44:c7:fc:e5:d1:3d:e3:79:51:83:da:0e:
                    49:bc:0a:b2:37:75:f5:7a:e4:89:a7:49:61:29:29:
                    6d:d5:d0:2a:b4:e8:fd:a2:b3:15:e3:70:71:94:e4:
                    f3:fe:e0:58:21:80:3b:50:05:3a:98:80:a8:53:72:
                    e5:69
                Exponent: 65537 (0x10001)
        X509v3 extensions:
            X509v3 Key Usage: critical
                Digital Signature, Key Encipherment
            X509v3 Extended Key Usage: 
                TLS Web Client Authentication, TLS Web Server Authentication
            X509v3 Basic Constraints: critical
                CA:TRUE
            X509v3 Authority Key Identifier: 
                keyid:01:02:03

            Authority Information Access: 
                OCSP - URI:http://theca.net/ocsp
                CA Issuers - URI:http://theca.net/totallythecert.crt

            X509v3 Certificate Policies: 
                Policy: 2.23.140.1.2.3

            X509v3 Subject Key Identifier: 
                04:03:02:01
            X509v3 Subject Alternative Name: critical
                DNS:*.gov.us, DNS:gov.us
    Signature Algorithm: sha256WithRSAEncryption
         6c:19:21:5a:6e:c5:d7:f1:e7:88:1a:ba:e7:2d:ad:01:6a:df:
         58:74:3a:a3:8c:8c:e1:4a:7e:98:e8:ec:f9:ed:99:7d:cd:49:
         e2:3b:f5:17:20:99:8a:ce:43:60:52:00:ae:da:70:93:63:7f:
         a1:8e:76:09:b9:20:f9:61:25:d6:43:ad:dc:ec:3b:0a:5a:ef:
         d8:c2:4e:d5:9a:c4:83:0a:7a:70:3d:35:0d:24:13:40:35:26:
         1a:17:d7:07:ae:e8:bd:1f:35:fb:2d:94:bd:7b:1b:43:a8:f0:
         8f:f1:fa:9b:1d:4b:65:3d:a0:e6:9b:f6:25:9d:2b:31:cc:87:
         0d:2c:5e:90:c8:c5:51:b4:73:1a:f4:0c:3e:a3:7e:48:42:39:
         ab:26:32:09:16:d1:03:27:38:ce:e1:8a:bc:df:14:0a:ab:71:
         ac:dc:7c:bb:bb:40:b2:d2:e7:df:4b:21:cc:c4:33:56:08:4c:
         6b:da:f9:d3:81:eb:ad:07:d0:83:9a:cc:ed:37:ab:97:00:67:
         b7:14:bc:1a:ab:c9:db:19:fa:b4:60:92:e5:c6:93:93:85:56:
         a1:8e:93:e7:fb:4d:8c:3e:1b:0e:a5:f2:ef:39:2c:c3:95:87:
         06:f0:85:66:d4:97:ca:b6:57:9f:87:ae:ab:43:ef:87:29:cf:
         23:57:73:b1
-----BEGIN CERTIFICATE-----
MIID3jCCAsagAwIBAgIFBDFmk+0wDQYJKoZIhvcNAQELBQAwUjELMAkGA1UEBhMC
VVMxFjAUBgNVBAoTDU1vdGhlciBOYXR1cmUxEzARBgNVBAsTCkV2ZXJ5dGhpbmcx
FjAUBgNVBAMTDU1vdGhlciBOYXR1cmUwHhcNMTYwNjI5MjEyNzIxWhcNMTYwOTEw
MjEyNzIxWjARMQ8wDQYDVQQDEwZnb3YudXMwggEiMA0GCSqGSIb3DQEBAQUAA4IB
DwAwggEKAoIBAQDSsPbZ6mNK63rMzJe94IQRAFK3N08O2OYtACapZrwOr5pv+z/O
rbKoCqj6S/O72HFTErSscD21lnuNCwGnUdjcl+yQ8AdQ9BrdP2AQZ+3rZ5/plBb+
yaK44MrTcMvmeyn/bmeYh90FUzzzty2vkkpXxTjzM1He4swLsak+fV/2do/HOHjB
PRe6yWzY+6srROO+a+I44XhfD90qblJyLD2Ogouta9vYFvgKfktzivPb6SF53m6P
JJLjMDmUIIiL7+QckMfAWETH/OXRPeN5UYPaDkm8CrI3dfV65ImnSWEpKW3V0Cq0
6P2isxXjcHGU5PP+4FghgDtQBTqYgKhTcuVpAgMBAAGjgfswgfgwDgYDVR0PAQH/
BAQDAgWgMB0GA1UdJQQWMBQGCCsGAQUFBwMCBggrBgEFBQcDATAPBgNVHRMBAf8E
BTADAQH/MA4GA1UdIwQHMAWAAwECAzBiBggrBgEFBQcBAQRWMFQwIQYIKwYBBQUH
MAGGFWh0dHA6Ly90aGVjYS5uZXQvb2NzcDAvBggrBgEFBQcwAoYjaHR0cDovL3Ro
ZWNhLm5ldC90b3RhbGx5dGhlY2VydC5jcnQwEwYDVR0gBAwwCjAIBgZngQwBAgMw
DQYDVR0OBAYEBAQDAgEwHgYDVR0RAQH/BBQwEoIIKi5nb3YudXOCBmdvdi51czAN
BgkqhkiG9w0BAQsFAAOCAQEAbBkhWm7F1/HniBq65y2tAWrfWHQ6o4yM4Up+mOjs
+e2Zfc1J4jv1FyCZis5DYFIArtpwk2N/oY52Cbkg+WEl1kOt3Ow7Clrv2MJO1ZrE
gwp6cD01DSQTQDUmGhfXB67ovR81+y2UvXsbQ6jwj/H6mx1LZT2g5pv2JZ0rMcyH
DSxekMjFUbRzGvQMPqN+SEI5qyYyCRbRAyc4zuGKvN8UCqtxrNx8u7tAstLn30sh
zMQzVghMa9r504HrrQfQg5rM7TerlwBntxS8GqvJ2xn6tGCS5caTk4VWoY6T5/tN
jD4bDqXy7zksw5WHBvCFZtSXyrZXn4euq0PvhynPI1dzsQ==
-----END CERTIFICATE-----
