Certificate:
    Data:
        Version: 3 (0x2)
        Serial Number:
            16:e3:9f:2c:68:44:05:d6:2f:4a:8a:9e:2c:d7:d2:f7:40:00:00:00:00
    Signature Algorithm: sha256WithRSAEncryption
        Issuer: C = US, O = Mother Nature, OU = Everything, CN = Mother Nature
        Validity
            Not Before: Jul  7 21:54:45 2016 GMT
            Not After : Sep 19 21:54:45 2016 GMT
        Subject: C = US, ST = FL, L = Tallahassee, street = 3210 Holly Mill Run, postalCode = 30062, O = Extreme Discord, OU = Chaos, CN = gov.us
        Subject Public Key Info:
            Public Key Algorithm: rsaEncryption
                Public-Key: (2048 bit)
                Modulus:
                    00:ac:a1:dc:e7:eb:38:a5:af:22:6f:52:b6:1c:47:
                    b7:ab:64:f2:c1:da:3a:a1:e1:27:02:c6:4f:cf:6d:
                    1a:a4:c3:27:ed:ef:bd:24:0c:92:fd:90:13:70:c0:
                    8f:4c:86:4a:43:27:b1:81:68:3a:77:42:47:9f:e4:
                    6f:56:91:e6:59:51:ad:05:5b:6d:4b:dc:00:d8:b2:
                    10:e5:76:67:cc:61:96:80:83:50:e9:ee:bb:7d:a0:
                    f4:e5:ec:7a:0c:9c:60:af:89:94:92:fe:63:85:dd:
                    a5:a1:77:40:c7:18:89:90:1e:fb:d7:8c:cb:34:16:
                    c0:0e:29:b5:47:9d:29:dc:e8:cb:02:0d:86:91:1e:
                    09:7d:e1:20:46:a4:cc:b7:71:e0:be:78:8f:be:87:
                    4d:67:1a:e0:8d:0e:f7:9d:6e:ae:4d:59:67:14:03:
                    d0:ca:25:28:2a:b6:95:2d:40:1b:86:1f:b0:c2:11:
                    a0:db:50:19:29:e3:76:82:74:78:6d:bd:0a:00:d7:
                    22:d5:7b:98:37:83:d1:31:9b:31:92:aa:f1:26:6b:
                    be:12:3a:20:81:ae:da:b1:ba:d2:e8:eb:92:c7:14:
                    c1:ea:ab:2a:a8:c2:3c:ba:5e:a1:fe:7f:78:e8:58:
                    6f:e8:23:83:6a:09:40:8c:3d:59:d0:59:1f:de:6d:
                    18:95
                Exponent: 65537 (0x10001)
        X509v3 extensions:
            X509v3 Basic Constraints: critical
                CA:TRUE
            X509v3 Authority Key Identifier: 
                keyid:01:02:03

            X509v3 Subject Key Identifier: 
                04:03:02:01
            X509v3 Subject Alternative Name: 
                DNS:*.gov.us, DNS:gov.us
            X509v3 Key Usage: 
                Digital Signature, Certificate Sign, CRL Sign
            X509v3 Extended Key Usage: critical
                TLS Web Server Authentication, TLS Web Client Authentication
    Signature Algorithm: sha256WithRSAEncryption
         9a:38:3e:a9:96:63:12:0c:0c:34:14:2e:12:ab:95:45:3b:52:
         69:91:93:30:54:ac:27:c7:34:a3:b3:f6:c3:25:d9:01:55:61:
         6b:d7:57:ad:1d:e6:60:69:88:bf:5c:18:05:97:da:b4:09:55:
         f6:9a:83:28:03:56:0e:2c:b3:c5:28:d9:e2:b9:34:b8:f7:ec:
         82:da:c4:43:9c:ad:0b:32:6f:e8:1a:0b:af:16:99:c8:d5:14:
         c7:71:a8:08:4a:5d:7b:3f:af:e6:4a:eb:c2:f7:15:39:92:78:
         91:3a:6e:68:e2:9c:b3:68:69:3c:d0:f4:14:bf:f1:0b:14:b1:
         ca:50:0d:49:c6:83:c1:c1:e4:4c:60:4f:35:55:50:0d:6e:72:
         7d:46:52:fe:9f:e2:9e:a7:40:ad:b7:80:9c:a0:24:b1:5f:d5:
         0d:9d:82:2f:5b:8d:0e:3c:6e:f2:14:ec:92:5c:51:48:20:c2:
         98:84:24:3a:bd:88:2a:16:52:6f:35:96:9c:4d:a7:f3:d2:9c:
         53:25:c0:21:71:6a:63:07:f6:67:40:85:1d:b8:65:b9:22:d3:
         16:ae:73:26:dd:26:67:be:cb:b4:cf:01:69:4c:7f:e0:e3:0b:
         d8:00:6e:74:0e:14:8f:12:13:88:4e:e3:32:78:19:55:4b:e2:
         c9:0d:ff:b6
-----BEGIN CERTIFICATE-----
MIID+TCCAuGgAwIBAgIVFuOfLGhEBdYvSoqeLNfS90AAAAAAMA0GCSqGSIb3DQEB
CwUAMFIxCzAJBgNVBAYTAlVTMRYwFAYDVQQKEw1Nb3RoZXIgTmF0dXJlMRMwEQYD
VQQLEwpFdmVyeXRoaW5nMRYwFAYDVQQDEw1Nb3RoZXIgTmF0dXJlMB4XDTE2MDcw
NzIxNTQ0NVoXDTE2MDkxOTIxNTQ0NVowgZkxCzAJBgNVBAYTAlVTMQswCQYDVQQI
EwJGTDEUMBIGA1UEBxMLVGFsbGFoYXNzZWUxHDAaBgNVBAkTEzMyMTAgSG9sbHkg
TWlsbCBSdW4xDjAMBgNVBBETBTMwMDYyMRgwFgYDVQQKEw9FeHRyZW1lIERpc2Nv
cmQxDjAMBgNVBAsTBUNoYW9zMQ8wDQYDVQQDEwZnb3YudXMwggEiMA0GCSqGSIb3
DQEBAQUAA4IBDwAwggEKAoIBAQCsodzn6zilryJvUrYcR7erZPLB2jqh4ScCxk/P
bRqkwyft770kDJL9kBNwwI9MhkpDJ7GBaDp3Qkef5G9WkeZZUa0FW21L3ADYshDl
dmfMYZaAg1Dp7rt9oPTl7HoMnGCviZSS/mOF3aWhd0DHGImQHvvXjMs0FsAOKbVH
nSnc6MsCDYaRHgl94SBGpMy3ceC+eI++h01nGuCNDvedbq5NWWcUA9DKJSgqtpUt
QBuGH7DCEaDbUBkp43aCdHhtvQoA1yLVe5g3g9ExmzGSqvEma74SOiCBrtqxutLo
65LHFMHqqyqowjy6XqH+f3joWG/oI4NqCUCMPVnQWR/ebRiVAgMBAAGjfjB8MA8G
A1UdEwEB/wQFMAMBAf8wDgYDVR0jBAcwBYADAQIDMA0GA1UdDgQGBAQEAwIBMBsG
A1UdEQQUMBKCCCouZ292LnVzggZnb3YudXMwCwYDVR0PBAQDAgGGMCAGA1UdJQEB
/wQWMBQGCCsGAQUFBwMBBggrBgEFBQcDAjANBgkqhkiG9w0BAQsFAAOCAQEAmjg+
qZZjEgwMNBQuEquVRTtSaZGTMFSsJ8c0o7P2wyXZAVVha9dXrR3mYGmIv1wYBZfa
tAlV9pqDKANWDiyzxSjZ4rk0uPfsgtrEQ5ytCzJv6BoLrxaZyNUUx3GoCEpdez+v
5krrwvcVOZJ4kTpuaOKcs2hpPND0FL/xCxSxylANScaDwcHkTGBPNVVQDW5yfUZS
/p/inqdArbeAnKAksV/VDZ2CL1uNDjxu8hTsklxRSCDCmIQkOr2IKhZSbzWWnE2n
89KcUyXAIXFqYwf2Z0CFHbhluSLTFq5zJt0mZ77LtM8BaUx/4OML2ABudA4UjxIT
iE7jMngZVUviyQ3/tg==
-----END CERTIFICATE-----
