Certificate:
    Data:
        Version: 3 (0x2)
        Serial Number: 18008675309 (0x4316693ed)
    Signature Algorithm: sha256WithRSAEncryption
        Issuer: C = US, O = Mother Nature, OU = Everything, CN = Mother Nature
        Validity
            Not Before: Jun 27 23:01:32 2016 GMT
            Not After : Sep  8 23:01:32 2016 GMT
        Subject: C = US, O = Extreme Discord, OU = Chaos, CN = gov.us
        Subject Public Key Info:
            Public Key Algorithm: rsaEncryption
                Public-Key: (2048 bit)
                Modulus:
                    00:d0:e7:95:dc:d5:cb:d5:c5:6d:ee:96:8d:4d:b8:
                    b7:2b:dc:7d:7d:f6:36:c8:75:44:da:3a:c6:b3:35:
                    14:e9:30:ee:c8:ae:1f:60:c1:fd:1a:76:ef:d2:15:
                    76:6b:e9:af:2c:1a:6d:3c:38:d5:27:05:a9:01:da:
                    a2:f9:ba:52:78:c2:8c:01:ca:46:a4:12:8d:a7:7a:
                    f0:95:27:f1:74:b2:0f:7f:77:8a:22:b4:21:13:25:
                    c0:42:4f:13:35:86:ad:12:84:28:96:7d:84:23:b3:
                    22:23:ab:0f:0c:b9:dd:3b:60:00:3f:37:2d:12:72:
                    f4:e8:8f:29:da:20:7d:94:b6:08:a4:03:d7:c0:ec:
                    5b:bf:9e:7b:b3:e7:ca:7d:62:44:e7:9d:3a:41:9c:
                    dd:57:da:eb:88:e8:80:aa:b9:39:21:ab:f8:26:ef:
                    74:fd:98:3d:af:44:ab:7a:b1:fe:b4:eb:60:b1:31:
                    df:7d:9a:4f:61:d0:c5:57:ea:9f:e4:7f:32:f3:44:
                    41:49:79:3f:7b:8c:69:ef:20:7f:04:69:fb:d5:f3:
                    32:fa:ce:e1:89:42:ea:ec:1c:8d:1c:59:7e:d2:de:
                    d0:48:7e:dc:70:41:99:9c:83:05:df:b5:e7:63:98:
                    35:fb:b0:76:11:c0:79:83:65:f3:1e:1a:2d:75:8d:
                    3c:f5
                Exponent: 65537 (0x10001)
        X509v3 extensions:
            X509v3 Key Usage: critical
                Digital Signature, Key Encipherment
            X509v3 Extended Key Usage: 
                TLS Web Client Authentication, TLS Web Server Authentication
            X509v3 Basic Constraints: critical
                CA:FALSE
            X509v3 Authority Key Identifier: 
                keyid:01:02:03

            Authority Information Access: 
                OCSP - URI:http://theca.net/ocsp
                CA Issuers - URI:http://theca.net/totallythecert.crt

            X509v3 Certificate Policies: 
                Policy: 2.23.140.1.2.2

            X509v3 Subject Key Identifier: 
                04:03:02:01
            X509v3 Subject Alternative Name: 
                DNS:*.gov.us, DNS:gov.us
    Signature Algorithm: sha256WithRSAEncryption
         ae:24:7c:bf:05:7b:13:e8:20:95:09:b6:02:a9:03:ae:cc:09:
         4f:c8:c1:c2:a9:b9:d7:94:0c:a4:44:d8:97:42:5e:c7:46:99:
         43:12:4a:21:d6:d7:23:86:8a:72:10:8a:48:f5:70:ac:b4:1f:
         1e:24:42:60:ce:3e:a5:92:22:3f:72:19:d1:71:a2:56:d8:e7:
         10:8d:a6:08:92:de:cd:9c:63:37:f5:51:24:32:80:ea:fb:00:
         52:37:c9:5d:68:63:50:97:cc:fa:47:1b:f8:3e:5b:86:91:fd:
         6a:e8:c7:f9:eb:10:3c:0d:5f:a3:5d:43:30:5a:fd:e5:f0:91:
         1f:0c:d0:90:68:7e:30:ee:67:31:0a:9b:79:c2:25:7d:92:cf:
         46:e0:bd:7e:58:5c:f0:0a:7a:86:c7:78:fb:cb:8f:65:11:9f:
         aa:af:92:c5:bd:8f:25:53:5d:83:ed:b9:fe:1b:2e:4c:f3:cf:
         45:91:d7:6b:24:a7:48:8a:2d:c0:e6:10:d0:07:ee:7d:8a:59:
         52:b6:26:1d:b4:50:6a:23:ef:2f:69:df:35:d0:e1:d9:69:78:
         ed:90:cc:1a:b5:25:5d:32:ff:69:5d:d1:30:85:01:a3:e5:25:
         d7:45:49:1b:08:3a:fe:8b:69:41:7e:46:91:3d:4f:60:0f:1b:
         b4:25:ca:a3
-----BEGIN CERTIFICATE-----
MIIEDzCCAvegAwIBAgIFBDFmk+0wDQYJKoZIhvcNAQELBQAwUjELMAkGA1UEBhMC
VVMxFjAUBgNVBAoTDU1vdGhlciBOYXR1cmUxEzARBgNVBAsTCkV2ZXJ5dGhpbmcx
FjAUBgNVBAMTDU1vdGhlciBOYXR1cmUwHhcNMTYwNjI3MjMwMTMyWhcNMTYwOTA4
MjMwMTMyWjBIMQswCQYDVQQGEwJVUzEYMBYGA1UEChMPRXh0cmVtZSBEaXNjb3Jk
MQ4wDAYDVQQLEwVDaGFvczEPMA0GA1UEAxMGZ292LnVzMIIBIjANBgkqhkiG9w0B
AQEFAAOCAQ8AMIIBCgKCAQEA0OeV3NXL1cVt7paNTbi3K9x9ffY2yHVE2jrGszUU
6TDuyK4fYMH9Gnbv0hV2a+mvLBptPDjVJwWpAdqi+bpSeMKMAcpGpBKNp3rwlSfx
dLIPf3eKIrQhEyXAQk8TNYatEoQoln2EI7MiI6sPDLndO2AAPzctEnL06I8p2iB9
lLYIpAPXwOxbv557s+fKfWJE5506QZzdV9rriOiAqrk5Iav4Ju90/Zg9r0SrerH+
tOtgsTHffZpPYdDFV+qf5H8y80RBSXk/e4xp7yB/BGn71fMy+s7hiULq7ByNHFl+
0t7QSH7ccEGZnIMF37XnY5g1+7B2EcB5g2XzHhotdY089QIDAQABo4H1MIHyMA4G
A1UdDwEB/wQEAwIFoDAdBgNVHSUEFjAUBggrBgEFBQcDAgYIKwYBBQUHAwEwDAYD
VR0TAQH/BAIwADAOBgNVHSMEBzAFgAMBAgMwYgYIKwYBBQUHAQEEVjBUMCEGCCsG
AQUFBzABhhVodHRwOi8vdGhlY2EubmV0L29jc3AwLwYIKwYBBQUHMAKGI2h0dHA6
Ly90aGVjYS5uZXQvdG90YWxseXRoZWNlcnQuY3J0MBMGA1UdIAQMMAowCAYGZ4EM
AQICMA0GA1UdDgQGBAQEAwIBMBsGA1UdEQQUMBKCCCouZ292LnVzggZnb3YudXMw
DQYJKoZIhvcNAQELBQADggEBAK4kfL8FexPoIJUJtgKpA67MCU/IwcKpudeUDKRE
2JdCXsdGmUMSSiHW1yOGinIQikj1cKy0Hx4kQmDOPqWSIj9yGdFxolbY5xCNpgiS
3s2cYzf1USQygOr7AFI3yV1oY1CXzPpHG/g+W4aR/Wrox/nrEDwNX6NdQzBa/eXw
kR8M0JBofjDuZzEKm3nCJX2Sz0bgvX5YXPAKeobHePvLj2URn6qvksW9jyVTXYPt
uf4bLkzzz0WR12skp0iKLcDmENAH7n2KWVK2Jh20UGoj7y9p3zXQ4dlpeO2QzBq1
JV0y/2ld0TCFAaPlJddFSRsIOv6LaUF+RpE9T2APG7QlyqM=
-----END CERTIFICATE-----
