Certificate:
    Data:
        Version: 3 (0x2)
        Serial Number: 994436456 (0x3b45e568)
    Signature Algorithm: sha1WithRSAEncryption
        Issuer: C=ES, O=Generalitat Valenciana, OU=PKIGVA, CN=Root CA Generalitat Valenciana
        Validity
            Not Before: Jul  6 16:22:47 2001 GMT
            Not After : Jul  1 15:22:47 2021 GMT
        Subject: C=ES, O=Generalitat Valenciana, OU=PKIGVA, CN=Root CA Generalitat Valenciana
        Subject Public Key Info:
            Public Key Algorithm: rsaEncryption
                Public-Key: (2048 bit)
                Modulus:
                    00:c6:2a:ab:57:11:37:2f:22:8a:ca:03:74:1d:ca:
                    ed:2d:a2:0b:bc:33:52:40:26:47:be:5a:69:a6:3b:
                    72:36:17:4c:e8:df:b8:bb:2f:76:e1:40:46:74:65:
                    02:90:52:08:b4:ff:a8:8c:c1:e0:c7:89:56:10:39:
                    33:ef:68:b4:5f:5f:da:6d:23:a1:89:5e:22:a3:4a:
                    06:f0:27:f0:57:b9:f8:e9:4e:32:77:0a:3f:41:64:
                    f3:eb:65:ee:76:fe:54:aa:7d:1d:20:ae:f3:d7:74:
                    c2:0a:5f:f5:08:28:52:08:cc:55:5d:d2:0f:db:9a:
                    81:a5:bb:a1:b3:c1:94:cd:54:e0:32:75:31:91:1a:
                    62:b2:de:75:e2:cf:4f:89:d9:91:90:0f:41:1b:b4:
                    5a:4a:77:bd:67:83:e0:93:e7:5e:a7:0c:e7:81:d3:
                    f4:52:ac:53:b2:03:c7:44:26:fb:79:e5:cb:34:60:
                    50:10:7b:1b:db:6b:d7:47:ab:5f:7c:68:ca:6e:9d:
                    41:03:10:ee:6b:99:7b:5e:25:a8:c2:ab:e4:c0:f3:
                    5c:9c:e3:be:ce:31:4c:64:1e:5e:80:a2:f5:83:7e:
                    0c:d6:ca:8c:55:8e:be:e0:be:49:07:0f:a3:24:41:
                    7a:58:1d:84:ea:58:12:c8:e1:b7:ed:ef:93:de:94:
                    08:31
                Exponent: 65537 (0x10001)
        X509v3 extensions:
            Authority Information Access: 
                OCSP - URI:http://ocsp.pki.gva.es

            X509v3 Basic Constraints: critical
                CA:TRUE, pathlen:2
            X509v3 Certificate Policies: 
                Policy: 1.3.6.1.4.1.8149.2.1.0
                  User Notice:
                    Explicit Text: 
                  CPS: http://www.pki.gva.es/cps

            X509v3 Subject Key Identifier: 
                7B:35:D3:40:D2:1C:78:19:66:EF:74:10:28:DC:3E:4F:B2:78:04:FC
            X509v3 Authority Key Identifier: 
                keyid:7B:35:D3:40:D2:1C:78:19:66:EF:74:10:28:DC:3E:4F:B2:78:04:FC
                DirName:/C=ES/O=Generalitat Valenciana/OU=PKIGVA/CN=Root CA Generalitat Valenciana
                serial:3B:45:E5:68

    Signature Algorithm: sha1WithRSAEncryption
         24:61:4e:f5:b5:c8:42:02:2a:b3:5c:75:ad:c5:6d:ca:e7:94:
         3f:a5:68:95:88:c1:54:c0:10:69:a2:12:2f:18:3f:25:50:a8:
         7c:4a:ea:c6:09:d9:f4:75:c6:40:da:af:50:9d:3d:a5:16:bb:
         6d:31:c6:c7:73:0a:48:fe:20:72:ed:6f:cc:e8:83:61:16:46:
         90:01:95:4b:7d:8e:9a:52:09:2f:f6:6f:1c:e4:a1:71:cf:8c:
         2a:5a:17:73:83:47:4d:0f:36:fb:04:4d:49:51:e2:14:c9:64:
         61:fb:d4:14:e0:f4:9e:b7:34:8f:0a:26:bd:97:5c:f4:79:3a:
         4a:30:19:cc:ad:4f:a0:98:8a:b4:31:97:2a:e2:73:6d:7e:78:
         b8:f8:88:89:4f:b1:22:91:64:4b:f5:50:de:03:db:e5:c5:76:
         e7:13:66:75:7e:65:fb:01:9f:93:87:88:9d:f9:46:57:7c:4d:
         60:af:98:73:13:23:a4:20:91:81:fa:d0:61:66:b8:7d:d1:af:
         d6:6f:1e:6c:3d:e9:11:fd:a9:f9:82:22:86:99:33:71:5a:ea:
         19:57:3d:91:cd:a9:c0:a3:6e:07:13:a6:c9:ed:f8:68:a3:9e:
         c3:5a:72:09:87:28:d1:c4:73:c4:73:18:5f:50:75:16:31:9f:
         b7:e8:7c:c3
-----BEGIN CERTIFICATE-----
MIIGizCCBXOgAwIBAgIEO0XlaDANBgkqhkiG9w0BAQUFADBoMQswCQYDVQQGEwJF
UzEfMB0GA1UEChMWR2VuZXJhbGl0YXQgVmFsZW5jaWFuYTEPMA0GA1UECxMGUEtJ
R1ZBMScwJQYDVQQDEx5Sb290IENBIEdlbmVyYWxpdGF0IFZhbGVuY2lhbmEwHhcN
MDEwNzA2MTYyMjQ3WhcNMjEwNzAxMTUyMjQ3WjBoMQswCQYDVQQGEwJFUzEfMB0G
A1UEChMWR2VuZXJhbGl0YXQgVmFsZW5jaWFuYTEPMA0GA1UECxMGUEtJR1ZBMScw
JQYDVQQDEx5Sb290IENBIEdlbmVyYWxpdGF0IFZhbGVuY2lhbmEwggEiMA0GCSqG
SIb3DQEBAQUAA4IBDwAwggEKAoIBAQDGKqtXETcvIorKA3Qdyu0togu8M1JAJke+
WmmmO3I2F0zo37i7L3bhQEZ0ZQKQUgi0/6iMweDHiVYQOTPvaLRfX9ptI6GJXiKj
SgbwJ/BXufjpTjJ3Cj9BZPPrZe52/lSqfR0grvPXdMIKX/UIKFIIzFVd0g/bmoGl
u6GzwZTNVOAydTGRGmKy3nXiz0+J2ZGQD0EbtFpKd71ng+CT516nDOeB0/RSrFOy
A8dEJvt55cs0YFAQexvba9dHq198aMpunUEDEO5rmXteJajCq+TA81yc477OMUxk
Hl6AovWDfgzWyoxVjr7gvkkHD6MkQXpYHYTqWBLI4bft75PelAgxAgMBAAGjggM7
MIIDNzAyBggrBgEFBQcBAQQmMCQwIgYIKwYBBQUHMAGGFmh0dHA6Ly9vY3NwLnBr
aS5ndmEuZXMwEgYDVR0TAQH/BAgwBgEB/wIBAjCCAjQGA1UdIASCAiswggInMIIC
IwYKKwYBBAG/VQIBADCCAhMwggHoBggrBgEFBQcCAjCCAdoeggHWAEEAdQB0AG8A
cgBpAGQAYQBkACAAZABlACAAQwBlAHIAdABpAGYAaQBjAGEAYwBpAPMAbgAgAFIA
YQDtAHoAIABkAGUAIABsAGEAIABHAGUAbgBlAHIAYQBsAGkAdABhAHQAIABWAGEA
bABlAG4AYwBpAGEAbgBhAC4ADQAKAEwAYQAgAEQAZQBjAGwAYQByAGEAYwBpAPMA
bgAgAGQAZQAgAFAAcgDhAGMAdABpAGMAYQBzACAAZABlACAAQwBlAHIAdABpAGYA
aQBjAGEAYwBpAPMAbgAgAHEAdQBlACAAcgBpAGcAZQAgAGUAbAAgAGYAdQBuAGMA
aQBvAG4AYQBtAGkAZQBuAHQAbwAgAGQAZQAgAGwAYQAgAHAAcgBlAHMAZQBuAHQA
ZQAgAEEAdQB0AG8AcgBpAGQAYQBkACAAZABlACAAQwBlAHIAdABpAGYAaQBjAGEA
YwBpAPMAbgAgAHMAZQAgAGUAbgBjAHUAZQBuAHQAcgBhACAAZQBuACAAbABhACAA
ZABpAHIAZQBjAGMAaQDzAG4AIAB3AGUAYgAgAGgAdAB0AHAAOgAvAC8AdwB3AHcA
LgBwAGsAaQAuAGcAdgBhAC4AZQBzAC8AYwBwAHMwJQYIKwYBBQUHAgEWGWh0dHA6
Ly93d3cucGtpLmd2YS5lcy9jcHMwHQYDVR0OBBYEFHs100DSHHgZZu90ECjcPk+y
eAT8MIGVBgNVHSMEgY0wgYqAFHs100DSHHgZZu90ECjcPk+yeAT8oWykajBoMQsw
CQYDVQQGEwJFUzEfMB0GA1UEChMWR2VuZXJhbGl0YXQgVmFsZW5jaWFuYTEPMA0G
A1UECxMGUEtJR1ZBMScwJQYDVQQDEx5Sb290IENBIEdlbmVyYWxpdGF0IFZhbGVu
Y2lhbmGCBDtF5WgwDQYJKoZIhvcNAQEFBQADggEBACRhTvW1yEICKrNcda3Fbcrn
lD+laJWIwVTAEGmiEi8YPyVQqHxK6sYJ2fR1xkDar1CdPaUWu20xxsdzCkj+IHLt
b8zog2EWRpABlUt9jppSCS/2bxzkoXHPjCpaF3ODR00PNvsETUlR4hTJZGH71BTg
9J63NI8KJr2XXPR5OkowGcytT6CYirQxlyric21+eLj4iIlPsSKRZEv1UN4D2+XF
ducTZnV+ZfsBn5OHiJ35Rld8TWCvmHMTI6QgkYH60GFmuH3Rr9ZvHmw96RH9qfmC
IoaZM3Fa6hlXPZHNqcCjbgcTpsnt+GijnsNacgmHKNHEc8RzGF9QdRYxn7fofMM=
-----END CERTIFICATE-----
