Certificate:
    Data:
        Version: 3 (0x2)
        Serial Number: 123438204759 (0x1cbd7d8757)
    Signature Algorithm: sha256WithRSAEncryption
        Issuer: C = US, O = Mother Nature, OU = Everything, CN = Mother Nature
        Validity
            Not Before: Jul  7 15:59:28 2016 GMT
            Not After : Jul 21 15:59:28 2016 GMT
        Subject: C = US, O = Mother Nature, OU = Everything, CN = Mother Nature
        Subject Public Key Info:
            Public Key Algorithm: rsaEncryption
                Public-Key: (2048 bit)
                Modulus:
                    00:e3:56:fa:a9:9c:c3:fc:74:a8:c6:d5:bb:13:24:
                    bb:36:3c:a6:6d:14:ab:4a:a8:20:f1:f1:98:1d:05:
                    12:bf:f9:9d:0b:19:df:ce:38:27:e0:98:54:6a:db:
                    8b:31:5a:0f:56:f5:f0:a6:3a:3a:04:84:95:95:0d:
                    04:2e:c1:3a:e3:35:9f:94:ec:35:fa:ce:9c:21:bb:
                    0a:5c:0a:74:33:06:aa:78:11:56:14:cd:b9:5d:50:
                    b7:c1:b9:4f:e0:a6:16:22:79:da:5b:9a:ce:1d:13:
                    0e:72:11:93:0e:7e:75:72:e5:5b:6a:4e:8e:49:62:
                    10:5c:cc:67:5e:e0:4f:3f:e3:9a:0e:26:ff:d6:c9:
                    4f:6f:80:4c:04:93:af:82:4f:1b:0d:db:25:a9:ee:
                    e1:5e:ce:bf:44:36:11:f2:7d:2c:7e:20:b8:68:08:
                    0e:7c:e8:76:75:8e:fe:65:68:b4:2f:5f:73:f5:93:
                    e6:58:3b:a2:82:66:27:8e:c3:77:20:30:9e:38:e5:
                    19:93:ce:03:c9:c9:df:5a:e8:c3:92:3e:08:d1:cf:
                    1b:e5:11:6a:7e:1f:be:17:db:ce:d5:fa:08:17:6e:
                    d4:cc:ff:27:e0:4e:34:23:19:10:5e:55:61:46:42:
                    37:b5:91:6f:c6:62:5b:9b:24:0e:91:f1:5f:9c:82:
                    0d:0b
                Exponent: 65537 (0x10001)
        X509v3 extensions:
            X509v3 Key Usage: critical
                Digital Signature, Certificate Sign, CRL Sign
            X509v3 Basic Constraints: critical
                CA:TRUE
    Signature Algorithm: sha256WithRSAEncryption
         26:84:cc:fd:26:11:77:20:9a:e1:10:cc:f4:4a:45:82:b9:e0:
         6c:6b:ea:6c:e3:bf:49:3a:02:cd:9f:c6:4e:81:7f:77:c4:7a:
         31:68:ca:7a:14:33:cf:4c:a2:40:4b:9f:04:98:4a:2a:8e:04:
         60:d1:33:15:d9:81:39:ad:7c:48:be:c0:d7:fc:f8:c2:52:ba:
         5a:27:46:f0:40:1e:ab:10:1c:b6:c5:0f:b7:7c:08:85:03:e3:
         b2:2b:66:e0:e7:a7:56:a1:8c:ec:e9:e9:56:75:84:f2:e9:79:
         84:bc:9d:d4:c4:30:b9:99:a8:f0:31:89:3f:73:60:3e:52:3b:
         04:94:36:35:f5:15:f5:30:c6:12:7f:ea:42:97:79:f9:62:db:
         89:37:c3:8a:6b:0f:9c:1f:b7:f1:da:2d:aa:ed:ca:87:e4:f1:
         59:bc:e9:6f:57:e1:1a:b6:8a:35:b8:f9:eb:9a:c2:cd:bb:14:
         f0:1f:d7:82:67:71:e9:81:f7:53:75:a1:99:86:a7:90:d1:56:
         c1:eb:b7:11:d8:64:a8:bf:c2:51:5a:31:b7:0a:e3:b3:92:4d:
         d9:fa:20:b6:40:ea:d9:cd:2c:ee:5d:27:b1:4c:7e:d0:f0:5a:
         c0:cd:4f:00:dd:60:d4:f3:51:c4:9f:7f:1e:32:0e:64:55:33:
         3d:90:da:01
-----BEGIN CERTIFICATE-----
MIIDRjCCAi6gAwIBAgIFHL19h1cwDQYJKoZIhvcNAQELBQAwUjELMAkGA1UEBhMC
VVMxFjAUBgNVBAoTDU1vdGhlciBOYXR1cmUxEzARBgNVBAsTCkV2ZXJ5dGhpbmcx
FjAUBgNVBAMTDU1vdGhlciBOYXR1cmUwHhcNMTYwNzA3MTU1OTI4WhcNMTYwNzIx
MTU1OTI4WjBSMQswCQYDVQQGEwJVUzEWMBQGA1UEChMNTW90aGVyIE5hdHVyZTET
MBEGA1UECxMKRXZlcnl0aGluZzEWMBQGA1UEAxMNTW90aGVyIE5hdHVyZTCCASIw
DQYJKoZIhvcNAQEBBQADggEPADCCAQoCggEBAONW+qmcw/x0qMbVuxMkuzY8pm0U
q0qoIPHxmB0FEr/5nQsZ3844J+CYVGrbizFaD1b18KY6OgSElZUNBC7BOuM1n5Ts
NfrOnCG7ClwKdDMGqngRVhTNuV1Qt8G5T+CmFiJ52luazh0TDnIRkw5+dXLlW2pO
jkliEFzMZ17gTz/jmg4m/9bJT2+ATASTr4JPGw3bJanu4V7Ov0Q2EfJ9LH4guGgI
DnzodnWO/mVotC9fc/WT5lg7ooJmJ47DdyAwnjjlGZPOA8nJ31row5I+CNHPG+UR
an4fvhfbztX6CBdu1Mz/J+BONCMZEF5VYUZCN7WRb8ZiW5skDpHxX5yCDQsCAwEA
AaMjMCEwDgYDVR0PAQH/BAQDAgGGMA8GA1UdEwEB/wQFMAMBAf8wDQYJKoZIhvcN
AQELBQADggEBACaEzP0mEXcgmuEQzPRKRYK54Gxr6mzjv0k6As2fxk6Bf3fEejFo
ynoUM89MokBLnwSYSiqOBGDRMxXZgTmtfEi+wNf8+MJSulonRvBAHqsQHLbFD7d8
CIUD47IrZuDnp1ahjOzp6VZ1hPLpeYS8ndTEMLmZqPAxiT9zYD5SOwSUNjX1FfUw
xhJ/6kKXefli24k3w4prD5wft/HaLartyofk8Vm86W9X4Rq2ijW4+euaws27FPAf
14JncemB91N1oZmGp5DRVsHrtxHYZKi/wlFaMbcK47OSTdn6ILZA6tnNLO5dJ7FM
ftDwWsDNTwDdYNTzUcSffx4yDmRVMz2Q2gE=
-----END CERTIFICATE-----
