Certificate:
    Data:
        Version: 3 (0x2)
        Serial Number: 18008675309 (0x4316693ed)
    Signature Algorithm: sha256WithRSAEncryption
        Issuer: C = US, O = Mother Nature, OU = Everything, CN = Mother Nature
        Validity
            Not Before: Jan  1 00:00:00 2010 GMT
            Not After : Jan  1 00:00:00 2013 GMT
        Subject: C = US, O = Extreme Discord, OU = Chaos, L = Tallahassee, ST = FL, street = 3210 Holly Mill Run, postalCode = 30062, CN = gov.us
        Subject Public Key Info:
            Public Key Algorithm: rsaEncryption
                Public-Key: (512 bit)
                Modulus:
                    00:bd:e2:7d:ef:39:a2:54:84:42:07:1b:6d:76:39:
                    c3:fc:31:f6:e7:ac:ed:9f:65:86:51:e4:38:8b:2b:
                    92:f5:2e:4c:dc:51:e6:d4:0a:7c:ee:73:cf:b0:6d:
                    9f:b2:22:fc:02:f0:9e:23:d9:7e:83:a7:bb:f6:7e:
                    f7:bf:e1:1a:03
                Exponent: 65537 (0x10001)
        X509v3 extensions:
            X509v3 Key Usage: critical
                Digital Signature, Key Encipherment
            X509v3 Extended Key Usage: 
                TLS Web Client Authentication, TLS Web Server Authentication
            X509v3 Authority Key Identifier: 
                keyid:01:02:03

            Authority Information Access: 
                OCSP - URI:http://theca.net/ocsp
                CA Issuers - URI:http://theca.net/totallythecert.crt

            X509v3 Certificate Policies: 
                Policy: 2.23.140.1.2.2

            X509v3 Subject Key Identifier: 
                04:03:02:01
            X509v3 Subject Alternative Name: 
                email:example@example.com, DNS:ˬ
            X509v3 Inhibit Any Policy: 
                ..
    Signature Algorithm: sha256WithRSAEncryption
         b7:f0:88:f8:0f:c7:7c:03:55:d0:ab:a2:2a:4c:ad:ea:56:e1:
         e0:c3:c5:45:5e:94:47:d4:d6:0f:a7:41:75:ae:b5:d3:9d:9a:
         48:53:87:6e:41:85:08:a4:dc:c1:a2:3b:ed:cc:3d:0a:0a:7e:
         7f:f5:8e:cc:68:20:8f:4d:a6:e9
-----BEGIN CERTIFICATE-----
MIIC2zCCAoWgAwIBAgIFBDFmk+0wDQYJKoZIhvcNAQELBQAwUjELMAkGA1UEBhMC
VVMxFjAUBgNVBAoTDU1vdGhlciBOYXR1cmUxEzARBgNVBAsTCkV2ZXJ5dGhpbmcx
FjAUBgNVBAMTDU1vdGhlciBOYXR1cmUwHhcNMTAwMTAxMDAwMDAwWhcNMTMwMTAx
MDAwMDAwWjCBmTELMAkGA1UEBhMCVVMxGDAWBgNVBAoTD0V4dHJlbWUgRGlzY29y
ZDEOMAwGA1UECxMFQ2hhb3MxFDASBgNVBAcTC1RhbGxhaGFzc2VlMQswCQYDVQQI
EwJGTDEcMBoGA1UECRMTMzIxMCBIb2xseSBNaWxsIFJ1bjEOMAwGA1UEERMFMzAw
NjIxDzANBgNVBAMTBmdvdi51czBcMA0GCSqGSIb3DQEBAQUAA0sAMEgCQQC94n3v
OaJUhEIHG212OcP8MfbnrO2fZYZR5DiLK5L1LkzcUebUCnzuc8+wbZ+yIvwC8J4j
2X6Dp7v2fve/4RoDAgMBAAGjgfkwgfYwDgYDVR0PAQH/BAQDAgWgMB0GA1UdJQQW
MBQGCCsGAQUFBwMCBggrBgEFBQcDATAOBgNVHSMEBzAFgAMBAgMwYgYIKwYBBQUH
AQEEVjBUMCEGCCsGAQUFBzABhhVodHRwOi8vdGhlY2EubmV0L29jc3AwLwYIKwYB
BQUHMAKGI2h0dHA6Ly90aGVjYS5uZXQvdG90YWxseXRoZWNlcnQuY3J0MBMGA1Ud
IAQMMAowCAYGZ4EMAQICMA0GA1UdDgQGBAQEAwIBMCIGA1UdEQQbMBmBE2V4YW1w
bGVAZXhhbXBsZS5jb22CAsCoMAkGA1UdNgQCAgEwDQYJKoZIhvcNAQELBQADQQC3
8Ij4D8d8A1XQq6IqTK3qVuHgw8VFXpRH1NYPp0F1rrXTnZpIU4duQYUIpNzBojvt
zD0KCn5/9Y7MaCCPTabp
-----END CERTIFICATE-----
