Certificate:
    Data:
        Version: 3 (0x2)
        Serial Number: 18008675984 (0x431669690)
    Signature Algorithm: sha256WithRSAEncryption
        Issuer: C = US, O = Mother Nature, OU = Everything, CN = Mother Nature
        Validity
            Not Before: Jul  6 19:50:16 2016 GMT
            Not After : Sep 18 19:50:16 2016 GMT
        Subject: C = US, ST = FL, L = Tallahassee, street = 3210 Holly Mill Run, postalCode = 30062, O = Extreme Discord, OU = Chaos, CN = gov.us
        Subject Public Key Info:
            Public Key Algorithm: rsaEncryption
                Public-Key: (2048 bit)
                Modulus:
                    00:be:e6:69:60:1e:2a:a3:24:c6:81:06:b0:2d:04:
                    a4:45:9a:2b:90:33:58:af:50:d3:90:75:14:67:5c:
                    48:9d:44:78:b2:e3:37:b4:7d:0f:b5:b9:38:70:94:
                    56:e3:b9:cb:42:14:c6:21:3e:b9:94:6e:7e:2a:0b:
                    34:19:6b:7e:d0:88:0a:72:89:45:18:ca:05:e5:10:
                    ad:5e:cc:07:c8:79:f2:bb:62:58:79:67:5e:0c:cb:
                    21:cf:dd:0f:37:7c:e2:83:4e:9a:01:3e:2b:e7:b0:
                    db:fe:ae:d0:2e:76:3b:ac:72:76:7e:04:5c:48:1a:
                    bc:18:67:98:99:ce:72:45:61:76:17:5d:ab:84:a5:
                    b1:4c:3f:65:32:6c:92:e0:00:de:cf:95:32:63:84:
                    51:c9:dd:a1:2c:e0:b4:9f:3b:cd:c9:4e:70:44:ba:
                    12:38:94:70:fd:9a:db:b3:13:94:e4:7c:5a:5a:32:
                    3d:b4:ce:63:39:ff:2e:a6:25:d6:91:d7:92:9a:1e:
                    ec:e8:c6:62:41:22:91:24:67:03:1b:90:9b:4f:3d:
                    2f:85:5e:6e:d9:68:4f:e4:f0:3e:94:47:ca:8b:4c:
                    dc:42:9e:82:c5:7a:5d:0e:97:39:e6:23:6c:ce:f1:
                    3e:e8:2d:95:ab:9a:23:01:4a:c1:f6:49:a0:86:ad:
                    cb:1b
                Exponent: 65537 (0x10001)
        X509v3 extensions:
            X509v3 Extended Key Usage: 
                TLS Web Client Authentication, TLS Web Server Authentication
            X509v3 Basic Constraints: critical
                CA:TRUE
            X509v3 Authority Key Identifier: 
                keyid:01:02:03

            Authority Information Access: 
                OCSP - URI:http://theca.net/ocsp
                CA Issuers - URI:http://theca.net/totallythecert.crt

            X509v3 Certificate Policies: 
                Policy: 1.3.6.1.5.5.7.13.1
                Policy: 2.23.140.1.2.2

            X509v3 Subject Key Identifier: 
                04:03:02:01
            X509v3 Subject Alternative Name: 
                <EMPTY>

            X509v3 Issuer Alternative Name: 
                DNS:allthethings.net, DNS:theca.net
    Signature Algorithm: sha256WithRSAEncryption
         b3:75:01:51:95:c9:51:e2:3e:85:75:be:1c:3c:1e:4d:75:98:
         04:d3:24:d8:4b:ad:cd:9a:cd:a0:4d:b8:c0:c4:1b:22:34:b9:
         61:1e:67:ff:40:84:2f:aa:bb:8d:16:d4:f7:ee:42:29:ce:d6:
         c6:b5:a4:1a:f5:4b:8f:e3:34:b1:82:15:a9:1e:dc:a3:52:9b:
         dd:91:af:55:75:ed:bd:3c:c9:a6:a9:85:c3:85:1b:92:10:8a:
         9d:0b:58:3e:d8:6d:e5:1e:44:a7:54:f7:04:ac:86:a5:37:b9:
         76:4b:cd:d3:92:0c:99:6c:1f:28:63:93:7b:2b:fb:5f:a1:05:
         40:5a:04:ad:c7:b1:85:06:dd:e9:b3:dc:14:f4:35:42:4f:17:
         00:94:fa:a3:16:9b:0e:21:72:94:2f:40:d4:0a:1d:48:af:86:
         f7:67:3a:66:e6:24:f4:66:ab:0c:d9:07:a5:7a:43:fd:fa:d9:
         12:a3:7c:7d:c7:52:43:d9:8c:76:15:26:e9:e2:f6:8f:b5:73:
         af:12:a3:cd:45:eb:24:c9:ad:8b:79:7e:ca:ca:6b:ee:4c:e9:
         19:d2:d7:ba:af:b5:a7:de:de:15:ec:3d:6c:c7:19:64:cd:40:
         94:b1:21:cd:78:51:11:5f:08:58:cc:c9:60:00:4b:13:9d:f1:
         b2:aa:32:5a
-----BEGIN CERTIFICATE-----
MIIEeDCCA2CgAwIBAgIFBDFmlpAwDQYJKoZIhvcNAQELBQAwUjELMAkGA1UEBhMC
VVMxFjAUBgNVBAoTDU1vdGhlciBOYXR1cmUxEzARBgNVBAsTCkV2ZXJ5dGhpbmcx
FjAUBgNVBAMTDU1vdGhlciBOYXR1cmUwHhcNMTYwNzA2MTk1MDE2WhcNMTYwOTE4
MTk1MDE2WjCBmTELMAkGA1UEBhMCVVMxCzAJBgNVBAgTAkZMMRQwEgYDVQQHEwtU
YWxsYWhhc3NlZTEcMBoGA1UECRMTMzIxMCBIb2xseSBNaWxsIFJ1bjEOMAwGA1UE
ERMFMzAwNjIxGDAWBgNVBAoTD0V4dHJlbWUgRGlzY29yZDEOMAwGA1UECxMFQ2hh
b3MxDzANBgNVBAMTBmdvdi51czCCASIwDQYJKoZIhvcNAQEBBQADggEPADCCAQoC
ggEBAL7maWAeKqMkxoEGsC0EpEWaK5AzWK9Q05B1FGdcSJ1EeLLjN7R9D7W5OHCU
VuO5y0IUxiE+uZRufioLNBlrftCICnKJRRjKBeUQrV7MB8h58rtiWHlnXgzLIc/d
Dzd84oNOmgE+K+ew2/6u0C52O6xydn4EXEgavBhnmJnOckVhdhddq4SlsUw/ZTJs
kuAA3s+VMmOEUcndoSzgtJ87zclOcES6EjiUcP2a27MTlOR8WloyPbTOYzn/LqYl
1pHXkpoe7OjGYkEikSRnAxuQm089L4VebtloT+TwPpRHyotM3EKegsV6XQ6XOeYj
bM7xPugtlauaIwFKwfZJoIatyxsCAwEAAaOCAQswggEHMB0GA1UdJQQWMBQGCCsG
AQUFBwMCBggrBgEFBQcDATAPBgNVHRMBAf8EBTADAQH/MA4GA1UdIwQHMAWAAwEC
AzBiBggrBgEFBQcBAQRWMFQwIQYIKwYBBQUHMAGGFWh0dHA6Ly90aGVjYS5uZXQv
b2NzcDAvBggrBgEFBQcwAoYjaHR0cDovL3RoZWNhLm5ldC90b3RhbGx5dGhlY2Vy
dC5jcnQwHwYDVR0gBBgwFjAKBggrBgEFBQcNATAIBgZngQwBAgIwDQYDVR0OBAYE
BAQDAgEwCQYDVR0RBAIwADAmBgNVHRIEHzAdghBhbGx0aGV0aGluZ3MubmV0ggl0
aGVjYS5uZXQwDQYJKoZIhvcNAQELBQADggEBALN1AVGVyVHiPoV1vhw8Hk11mATT
JNhLrc2azaBNuMDEGyI0uWEeZ/9AhC+qu40W1PfuQinO1sa1pBr1S4/jNLGCFake
3KNSm92Rr1V17b08yaaphcOFG5IQip0LWD7YbeUeRKdU9wSshqU3uXZLzdOSDJls
Hyhjk3sr+1+hBUBaBK3HsYUG3emz3BT0NUJPFwCU+qMWmw4hcpQvQNQKHUivhvdn
OmbmJPRmqwzZB6V6Q/362RKjfH3HUkPZjHYVJuni9o+1c68So81F6yTJrYt5fsrK
a+5M6RnS17qvtafe3hXsPWzHGWTNQJSxIc14URFfCFjMyWAASxOd8bKqMlo=
-----END CERTIFICATE-----
