Certificate:
    Data:
        Version: 3 (0x2)
        Serial Number: 18008675309 (0x4316693ed)
    Signature Algorithm: sha256WithRSAEncryption
        Issuer: C = US, O = Mother Nature, OU = Everything, CN = Mother Nature
        Validity
            Not Before: Aug 25 14:38:21 2016 GMT
            Not After : Nov  6 15:38:21 2016 GMT
        Subject: C = US, O = Extreme Discord, OU = Chaos, L = Tallahassee, ST = FL, street = 3210 Holly Mill Run, postalCode = 30062, CN = gov.us
        Subject Public Key Info:
            Public Key Algorithm: rsaEncryption
                Public-Key: (2048 bit)
                Modulus:
                    00:c8:fb:7c:27:48:25:ce:1d:8d:6f:5f:7f:78:b9:
                    d3:4c:79:40:00:a9:44:b3:8f:03:34:bf:4c:a2:40:
                    65:1d:69:0d:d4:68:da:da:cd:5d:06:cd:dc:e2:66:
                    63:d6:78:f4:4f:e4:7e:09:02:fe:46:a7:be:9d:4e:
                    52:d9:e4:ad:13:cc:69:2a:ed:25:9b:27:4e:c4:7a:
                    cd:04:65:ff:e7:cd:d8:26:30:71:90:54:9e:b7:04:
                    b0:29:61:b3:3f:0a:e0:a7:c1:83:ab:a1:74:f2:ba:
                    e2:c7:e2:9a:80:93:b1:60:f9:b5:11:1f:d2:81:9f:
                    8e:f5:05:4e:72:b8:a1:d3:9d:d7:89:b4:87:b7:2a:
                    3b:6c:3c:37:6b:50:aa:bb:f1:bd:55:cd:8e:69:24:
                    54:94:49:9c:51:13:31:0d:de:4e:30:f8:8b:27:8b:
                    d7:f1:13:ac:be:ff:86:9d:66:c1:c2:ba:36:e3:8a:
                    1a:d3:db:64:6f:02:35:4d:87:61:44:ee:ee:2c:9e:
                    f1:a2:49:f0:6d:ba:41:94:df:08:f8:83:23:fd:bd:
                    7c:ae:35:75:81:be:38:b1:2c:a0:93:2b:81:8d:33:
                    03:c1:ca:a4:1a:ab:a4:f7:75:fc:d1:16:6e:0c:6d:
                    a1:74:31:49:97:57:22:2a:bc:b5:03:bb:16:36:ee:
                    00:03
                Exponent: 65537 (0x10001)
        X509v3 extensions:
            X509v3 Key Usage: critical
                Digital Signature, Key Encipherment
            X509v3 Extended Key Usage: 
                TLS Web Client Authentication, TLS Web Server Authentication
            X509v3 Basic Constraints: critical
                CA:FALSE
            X509v3 Authority Key Identifier: 
                keyid:01:02:03

            Authority Information Access: 
                OCSP - URI:http://theca.net/ocsp
                CA Issuers - URI:http://theca.net/totallythecert.crt

            X509v3 Certificate Policies: 
                Policy: 2.23.140.1.2.2

            X509v3 Subject Key Identifier: 
                04:03:02:01
            X509v3 Subject Alternative Name: 
                DNS:*.gov.us, DNS:gov.us, URI:www.google.com
    Signature Algorithm: sha256WithRSAEncryption
         83:f1:39:d4:8c:0c:4e:47:bd:cb:21:2d:be:da:1f:5c:a1:49:
         1c:2f:84:ab:11:98:95:7a:d4:ae:0c:2f:6e:db:ec:7e:bd:8a:
         a8:7e:2a:b1:bb:87:cf:67:a8:c5:52:64:8f:1b:44:17:77:08:
         3e:d3:7b:fc:c7:73:be:47:5e:44:d1:53:ff:b2:a1:7f:9b:72:
         c2:10:0d:f1:10:c1:eb:33:88:bc:5d:90:60:b0:f1:d8:13:3a:
         bf:af:de:3c:e8:6a:e8:7d:27:dc:8c:10:17:9e:3f:95:16:cd:
         a8:3a:7d:9a:34:1c:f4:3b:e5:b0:8a:59:e5:b6:eb:ed:89:dd:
         6d:fd:9f:31:2d:7a:a5:ca:de:93:3a:27:f5:dc:b4:f7:0d:45:
         4c:77:cc:43:09:51:01:f2:38:6f:1e:67:06:3a:81:38:66:0e:
         52:b4:0a:d3:11:cd:0d:c9:94:b0:13:72:0a:68:76:15:94:f1:
         df:ab:a0:7b:c7:d5:21:61:41:3c:5f:ba:6c:eb:b5:28:63:00:
         cf:23:d9:49:1d:2e:ce:21:3f:d2:63:06:48:0e:12:a8:20:8f:
         4c:99:a2:54:85:ab:ef:d8:f4:3b:f0:2f:73:a3:61:23:82:80:
         80:fe:d0:46:df:6d:93:e1:1f:63:94:56:1b:12:ad:b7:b4:17:
         83:05:40:23
-----BEGIN CERTIFICATE-----
MIIEczCCA12gAwIBAgIFBDFmk+0wCwYJKoZIhvcNAQELMFQxCzAJBgNVBAYTAlVT
MRYwFAYDVQQKEw1Nb3RoZXIgTmF0dXJlMRMwEQYDVQQLEwpFdmVyeXRoaW5nMRYw
FAYDVQQDEw1Nb3RoZXIgTmF0dXJlMQAwHhcNMTYwODI1MTQzODIxWhcNMTYxMTA2
MTUzODIxWjCBmzELMAkGA1UEBhMCVVMxGDAWBgNVBAoTD0V4dHJlbWUgRGlzY29y
ZDEOMAwGA1UECxMFQ2hhb3MxFDASBgNVBAcTC1RhbGxhaGFzc2VlMQswCQYDVQQI
EwJGTDEcMBoGA1UECRMTMzIxMCBIb2xseSBNaWxsIFJ1bjEOMAwGA1UEERMFMzAw
NjIxDzANBgNVBAMTBmdvdi51czEAMIIBIjANBgkqhkiG9w0BAQEFAAOCAQ8AMIIB
CgKCAQEAyPt8J0glzh2Nb19/eLnTTHlAAKlEs48DNL9MokBlHWkN1Gja2s1dBs3c
4mZj1nj0T+R+CQL+Rqe+nU5S2eStE8xpKu0lmydOxHrNBGX/583YJjBxkFSetwSw
KWGzPwrgp8GDq6F08rrix+KagJOxYPm1ER/SgZ+O9QVOcrih053XibSHtyo7bDw3
a1Cqu/G9Vc2OaSRUlEmcURMxDd5OMPiLJ4vX8ROsvv+GnWbBwro244oa09tkbwI1
TYdhRO7uLJ7xoknwbbpBlN8I+IMj/b18rjV1gb44sSygkyuBjTMDwcqkGquk93X8
0RZuDG2hdDFJl1ciKry1A7sWNu4AAwIDAQABo4IBBjCCAQIwDgYDVR0PAQH/BAQD
AgCgMB0GA1UdJQQWMBQGCCsGAQUFBwMCBggrBgEFBQcDATAMBgNVHRMBAf8EAjAA
MA4GA1UdIwQHMAWAAwECAzBiBggrBgEFBQcBAQRWMFQwIQYIKwYBBQUHMAGGFWh0
dHA6Ly90aGVjYS5uZXQvb2NzcDAvBggrBgEFBQcwAoYjaHR0cDovL3RoZWNhLm5l
dC90b3RhbGx5dGhlY2VydC5jcnQwEwYDVR0gBAwwCjAIBgZngQwBAgIwDQYDVR0O
BAYEBAQDAgEwKwYDVR0RBCQwIoIIKi5nb3YudXOCBmdvdi51c4YOd3d3Lmdvb2ds
ZS5jb20wCwYJKoZIhvcNAQELA4IBAQCD8TnUjAxOR73LIS2+2h9coUkcL4SrEZiV
etSuDC9u2+x+vYqofiqxu4fPZ6jFUmSPG0QXdwg+03v8x3O+R15E0VP/sqF/m3LC
EA3xEMHrM4i8XZBgsPHYEzq/r9486GrofSfcjBAXnj+VFs2oOn2aNBz0O+Wwilnl
tuvtid1t/Z8xLXqlyt6TOif13LT3DUVMd8xDCVEB8jhvHmcGOoE4Zg5StArTEc0N
yZSwE3IKaHYVlPHfq6B7x9UhYUE8X7ps67UoYwDPI9lJHS7OIT/SYwZIDhKoII9M
maJUhavv2PQ78C9zo2EjgoCA/tBG322T4R9jlFYbEq23tBeDBUAj
-----END CERTIFICATE-----
