Certificate:
    Data:
        Version: 3 (0x2)
        Serial Number: 18008675309 (0x4316693ed)
    Signature Algorithm: sha256WithRSAEncryption
        Issuer: C = US, O = Mother Nature, OU = Everything, CN = Mother Nature
        Validity
            Not Before: Aug 26 21:34:44 2016 GMT
            Not After : Nov  7 22:34:44 2016 GMT
        Subject: C = US, O = Extreme Discord, OU = Chaos, L = Tallahassee, ST = FL, street = 3210 Holly Mill Run, postalCode = 30062, CN = gov.us
        Subject Public Key Info:
            Public Key Algorithm: rsaEncryption
                Public-Key: (2048 bit)
                Modulus:
                    00:d1:98:f0:2b:86:7a:6b:05:e5:03:6a:96:bb:16:
                    53:d9:e1:f1:06:a4:81:11:d0:b6:e7:2d:97:60:47:
                    05:9c:cf:2d:b0:34:09:7b:76:c5:26:af:b0:98:3c:
                    8a:fa:bd:05:55:9b:4e:7f:dd:ec:cc:28:f1:ee:df:
                    60:95:a6:1a:fc:21:46:52:9a:46:af:e9:e9:e7:79:
                    0e:9c:0a:be:44:1b:c4:f8:f1:ad:b8:15:3c:3d:be:
                    aa:79:88:51:b9:7f:6e:e9:9b:36:1e:45:45:60:d1:
                    9e:10:e0:3c:e3:3a:8a:b2:01:94:44:8a:cd:5d:f7:
                    f1:34:0b:04:d7:f6:6f:1a:3d:a9:d2:3a:3e:13:70:
                    0e:cd:b9:e2:a6:e5:d0:a5:f8:66:7d:98:c8:57:76:
                    34:7c:de:ec:10:07:a6:fe:2f:b0:25:f8:61:ff:97:
                    c1:44:e1:a0:58:87:4d:01:50:7b:59:60:7b:c1:8e:
                    d5:5f:23:24:e8:0c:1d:96:1d:5d:4e:2e:71:cc:a5:
                    a6:cb:4d:8c:25:98:5a:6e:55:73:91:44:a4:ea:c4:
                    79:63:9d:6b:00:0c:5b:c9:d9:6c:65:02:3b:9c:86:
                    f3:24:c4:1f:f7:98:ae:cb:9e:21:e7:78:e3:76:0b:
                    a4:9d:f7:ae:14:6e:b0:4f:50:e0:61:d4:02:51:a7:
                    47:67
                Exponent: 65537 (0x10001)
        X509v3 extensions:
            X509v3 Key Usage: critical
                Digital Signature, Key Encipherment
            X509v3 Extended Key Usage: 
                TLS Web Client Authentication, TLS Web Server Authentication
            X509v3 Basic Constraints: critical
                CA:FALSE
            X509v3 Authority Key Identifier: 
                keyid:01:02:03

            Authority Information Access: 
                OCSP - URI:http://theca.net/ocsp
                CA Issuers - URI:http://theca.net/totallythecert.crt

            X509v3 Certificate Policies: 
                Policy: 2.23.140.1.2.2

            X509v3 Subject Key Identifier: 
                04:03:02:01
            X509v3 Subject Alternative Name: 
                DNS:*.gov.us, DNS:gov.us, URI:https://www.google.com
    Signature Algorithm: sha256WithRSAEncryption
         8a:c1:80:3a:e7:bf:da:c6:07:05:d1:b4:cb:20:5e:61:70:99:
         48:e7:6d:fc:02:92:06:cd:2f:5a:b1:39:50:3e:78:83:89:2c:
         86:cf:ee:24:64:28:97:4e:95:3b:dd:cd:f4:3a:0c:4e:27:84:
         a8:87:a6:36:3b:fb:45:53:f8:88:21:8a:d8:d2:4b:5d:08:d4:
         66:22:f4:a7:06:07:a2:fd:c7:83:a3:79:33:b7:1c:db:af:1a:
         3f:62:c6:26:8d:2a:ec:72:98:5e:6d:dc:16:7f:92:18:a2:7d:
         5c:9f:27:58:a2:aa:38:69:e0:d0:79:fb:e2:d6:78:d1:ad:49:
         0d:2b:7e:f4:d0:d3:c0:13:d5:cb:ee:a3:10:a1:a4:cc:63:eb:
         d6:10:4e:47:b0:1f:7d:75:b5:e4:4a:c5:c7:ac:72:fc:b4:62:
         0a:65:4b:ee:b2:4b:65:8c:2a:4b:89:17:0c:1f:1b:5d:44:3e:
         32:05:1f:50:8b:fe:15:82:02:f9:e0:01:78:d7:2e:b3:3f:9a:
         c6:4d:7a:c6:7a:eb:ad:f8:d8:00:ba:0e:60:87:3e:4f:ff:3b:
         ef:dd:1f:20:45:9e:f0:80:4b:bf:5e:c7:48:27:e8:09:ed:94:
         e0:05:44:57:45:f3:64:a7:58:7f:7c:2f:68:5c:56:fb:16:cc:
         47:0a:c7:a0
-----BEGIN CERTIFICATE-----
MIIEezCCA2WgAwIBAgIFBDFmk+0wCwYJKoZIhvcNAQELMFQxCzAJBgNVBAYTAlVT
MRYwFAYDVQQKEw1Nb3RoZXIgTmF0dXJlMRMwEQYDVQQLEwpFdmVyeXRoaW5nMRYw
FAYDVQQDEw1Nb3RoZXIgTmF0dXJlMQAwHhcNMTYwODI2MjEzNDQ0WhcNMTYxMTA3
MjIzNDQ0WjCBmzELMAkGA1UEBhMCVVMxGDAWBgNVBAoTD0V4dHJlbWUgRGlzY29y
ZDEOMAwGA1UECxMFQ2hhb3MxFDASBgNVBAcTC1RhbGxhaGFzc2VlMQswCQYDVQQI
EwJGTDEcMBoGA1UECRMTMzIxMCBIb2xseSBNaWxsIFJ1bjEOMAwGA1UEERMFMzAw
NjIxDzANBgNVBAMTBmdvdi51czEAMIIBIjANBgkqhkiG9w0BAQEFAAOCAQ8AMIIB
CgKCAQEA0ZjwK4Z6awXlA2qWuxZT2eHxBqSBEdC25y2XYEcFnM8tsDQJe3bFJq+w
mDyK+r0FVZtOf93szCjx7t9glaYa/CFGUppGr+np53kOnAq+RBvE+PGtuBU8Pb6q
eYhRuX9u6Zs2HkVFYNGeEOA84zqKsgGURIrNXffxNAsE1/ZvGj2p0jo+E3AOzbni
puXQpfhmfZjIV3Y0fN7sEAem/i+wJfhh/5fBROGgWIdNAVB7WWB7wY7VXyMk6Awd
lh1dTi5xzKWmy02MJZhablVzkUSk6sR5Y51rAAxbydlsZQI7nIbzJMQf95iuy54h
53jjdguknfeuFG6wT1DgYdQCUadHZwIDAQABo4IBDjCCAQowDgYDVR0PAQH/BAQD
AgCgMB0GA1UdJQQWMBQGCCsGAQUFBwMCBggrBgEFBQcDATAMBgNVHRMBAf8EAjAA
MA4GA1UdIwQHMAWAAwECAzBiBggrBgEFBQcBAQRWMFQwIQYIKwYBBQUHMAGGFWh0
dHA6Ly90aGVjYS5uZXQvb2NzcDAvBggrBgEFBQcwAoYjaHR0cDovL3RoZWNhLm5l
dC90b3RhbGx5dGhlY2VydC5jcnQwEwYDVR0gBAwwCjAIBgZngQwBAgIwDQYDVR0O
BAYEBAQDAgEwMwYDVR0RBCwwKoIIKi5nb3YudXOCBmdvdi51c4YWaHR0cHM6Ly93
d3cuZ29vZ2xlLmNvbTALBgkqhkiG9w0BAQsDggEBAIrBgDrnv9rGBwXRtMsgXmFw
mUjnbfwCkgbNL1qxOVA+eIOJLIbP7iRkKJdOlTvdzfQ6DE4nhKiHpjY7+0VT+Igh
itjSS10I1GYi9KcGB6L9x4OjeTO3HNuvGj9ixiaNKuxymF5t3BZ/khiifVyfJ1ii
qjhp4NB5++LWeNGtSQ0rfvTQ08AT1cvuoxChpMxj69YQTkewH311teRKxcescvy0
YgplS+6yS2WMKkuJFwwfG11EPjIFH1CL/hWCAvngAXjXLrM/msZNesZ666342AC6
DmCHPk//O+/dHyBFnvCAS79ex0gn6AntlOAFRFdF82SnWH98L2hcVvsWzEcKx6A=
-----END CERTIFICATE-----
