Certificate:
    Data:
        Version: 3 (0x2)
        Serial Number: 14615016 (0xdf01e8)
    Signature Algorithm: sha256WithRSAEncryption
        Issuer: C = US, O = Mother Nature, OU = Everything, CN = Mother Nature
        Validity
            Not Before: Jul 11 15:22:59 2016 GMT
            Not After : Sep 23 15:22:59 2016 GMT
        Subject: C = US, ST = FL, L = Tallahassee, street = 3210 Holly Mill Run, postalCode = 30062, O = Extreme Discord, OU = Chaos, CN = gov.us
        Subject Public Key Info:
            Public Key Algorithm: id-ecPublicKey
                Public-Key: (224 bit)
                pub:
                    04:8f:ea:07:09:84:fc:5c:0d:84:65:fb:2e:5a:53:
                    cc:bd:69:7e:fb:94:9c:58:7c:ef:fe:eb:50:00:38:
                    2b:1b:09:25:6c:54:95:d0:51:ec:2d:f8:b7:19:74:
                    fb:b3:66:68:39:40:b6:74:91:47:83:b0
                ASN1 OID: secp224r1
                NIST CURVE: P-224
        X509v3 extensions:
            X509v3 Basic Constraints: critical
                CA:FALSE
            X509v3 Authority Key Identifier: 
                keyid:01:02:03

            X509v3 Subject Key Identifier: 
                04:03:02:01
            X509v3 Subject Alternative Name: 
                DNS:*.gov.us, DNS:gov.us
            X509v3 Key Usage: 
                Digital Signature, Certificate Sign, CRL Sign
            X509v3 Extended Key Usage: 
                TLS Web Server Authentication, 1.2.840.113635.100.4.3, Signing KDC Response, Any Extended Key Usage
            X509v3 CRL Distribution Points: 

                Full Name:
                  URI:http://crl.starfieldtech.com/sfig2s1-17.crl

            X509v3 Certificate Policies: critical
                Policy: 2.16.840.1.114414.1.7.23.1
                  CPS: http://certificates.starfieldtech.com/repository/

    Signature Algorithm: sha256WithRSAEncryption
         68:e0:20:4f:61:6c:09:32:44:42:04:59:f8:bd:c4:64:0e:12:
         81:23:24:cb:86:be:9e:e7:72:d5:3f:3b:0f:ff:c9:f6:67:c3:
         b1:0c:c7:f1:b9:77:be:75:44:b3:3e:a2:9e:95:5f:0f:ff:82:
         7d:33:cb:d3:78:b5:c1:38:00:cd:46:d1:ac:b5:85:98:61:9a:
         0f:07:ec:09:e0:18:50:8e:3e:ea:47:40:a1:f3:8a:b9:6e:ed:
         7c:88:07:42:e8:1c:6f:2a:ad:0b:4a:4a:da:20:1e:4d:ad:d6:
         04:49:c9:28:5a:f5:f1:b2:cb:2d:79:25:88:07:8d:b7:94:5e:
         6a:17:73:e4:5b:b4:9b:15:90:eb:05:8a:6b:86:79:c7:c4:6b:
         a8:7f:49:32:76:02:87:82:e8:29:6b:52:fc:3f:17:35:45:a6:
         5a:9f:31:7b:9c:ce:55:07:f7:4e:54:e9:42:e1:c9:c8:05:5d:
         cf:da:95:8e:ea:68:28:75:5c:bf:e7:af:58:7a:7f:79:f4:58:
         73:58:c5:7b:c8:65:9f:99:a3:61:21:1f:b7:84:02:78:69:f7:
         36:d5:09:c6:ab:ed:96:42:6c:8c:78:d0:f9:8a:c4:ca:88:77:
         0d:dd:82:15:2a:59:93:e6:a2:4f:14:f6:b6:08:01:c6:53:1d:
         72:04:3f:38
-----BEGIN CERTIFICATE-----
MIIDvDCCAqSgAwIBAgIEAN8B6DANBgkqhkiG9w0BAQsFADBSMQswCQYDVQQGEwJV
UzEWMBQGA1UEChMNTW90aGVyIE5hdHVyZTETMBEGA1UECxMKRXZlcnl0aGluZzEW
MBQGA1UEAxMNTW90aGVyIE5hdHVyZTAeFw0xNjA3MTExNTIyNTlaFw0xNjA5MjMx
NTIyNTlaMIGZMQswCQYDVQQGEwJVUzELMAkGA1UECBMCRkwxFDASBgNVBAcTC1Rh
bGxhaGFzc2VlMRwwGgYDVQQJExMzMjEwIEhvbGx5IE1pbGwgUnVuMQ4wDAYDVQQR
EwUzMDA2MjEYMBYGA1UEChMPRXh0cmVtZSBEaXNjb3JkMQ4wDAYDVQQLEwVDaGFv
czEPMA0GA1UEAxMGZ292LnVzME4wEAYHKoZIzj0CAQYFK4EEACEDOgAEj+oHCYT8
XA2EZfsuWlPMvWl++5ScWHzv/utQADgrGwklbFSV0FHsLfi3GXT7s2ZoOUC2dJFH
g7CjggEmMIIBIjAMBgNVHRMBAf8EAjAAMA4GA1UdIwQHMAWAAwECAzANBgNVHQ4E
BgQEBAMCATAbBgNVHREEFDASgggqLmdvdi51c4IGZ292LnVzMAsGA1UdDwQEAwIB
hjAtBgNVHSUEJjAkBggrBgEFBQcDAQYJKoZIhvdjZAQDBgcrBgEFAgMFBgRVHSUA
MDwGA1UdHwQ1MDMwMaAvoC2GK2h0dHA6Ly9jcmwuc3RhcmZpZWxkdGVjaC5jb20v
c2ZpZzJzMS0xNy5jcmwwXAYDVR0gAQH/BFIwUDBOBgtghkgBhv1uAQcXATA/MD0G
CCsGAQUFBwIBFjFodHRwOi8vY2VydGlmaWNhdGVzLnN0YXJmaWVsZHRlY2guY29t
L3JlcG9zaXRvcnkvMA0GCSqGSIb3DQEBCwUAA4IBAQBo4CBPYWwJMkRCBFn4vcRk
DhKBIyTLhr6e53LVPzsP/8n2Z8OxDMfxuXe+dUSzPqKelV8P/4J9M8vTeLXBOADN
RtGstYWYYZoPB+wJ4BhQjj7qR0Ch84q5bu18iAdC6BxvKq0LSkraIB5NrdYEScko
WvXxsssteSWIB423lF5qF3PkW7SbFZDrBYprhnnHxGuof0kydgKHgugpa1L8Pxc1
RaZanzF7nM5VB/dOVOlC4cnIBV3P2pWO6mgodVy/569Yen959FhzWMV7yGWfmaNh
IR+3hAJ4afc21QnGq+2WQmyMeND5isTKiHcN3YIVKlmT5qJPFPa2CAHGUx1yBD84
-----END CERTIFICATE-----
