Certificate:
    Data:
        Version: 3 (0x2)
        Serial Number: 18008675309 (0x4316693ed)
    Signature Algorithm: sha256WithRSAEncryption
        Issuer: C = US, O = Mother Nature, OU = Everything, CN = Mother Nature
        Validity
            Not Before: Jul  6 14:41:18 2016 GMT
            Not After : Sep 18 14:41:18 2016 GMT
        Subject: C = US, ST = FL, L = Tallahassee, street = 3210 Holly Mill Run, postalCode = 30062, O = Extreme Discord, OU = Chaos, CN = gov.us
        Subject Public Key Info:
            Public Key Algorithm: rsaEncryption
                Public-Key: (2048 bit)
                Modulus:
                    00:d1:f7:00:53:87:19:70:1c:74:73:92:66:c0:9d:
                    9e:b6:c8:ab:99:db:82:70:90:4c:bc:12:68:81:c4:
                    5f:10:5a:8a:a9:98:0d:4d:89:9a:ed:b9:a7:63:a9:
                    75:7c:7c:5a:a8:a1:9f:99:fa:9e:5b:42:dc:cd:3a:
                    84:7c:98:ed:ca:45:16:46:c8:30:cf:98:be:a3:01:
                    95:41:ee:d7:f5:d0:42:b7:2d:87:54:a7:a8:d0:3f:
                    86:b5:87:b3:38:5c:ad:5b:f0:ab:a7:b0:6e:da:a3:
                    3a:37:b1:28:8c:a7:b8:80:03:46:43:3c:a8:4f:c0:
                    ee:73:ab:4f:57:22:32:ad:18:8c:9e:36:9c:8f:36:
                    4f:74:f3:51:82:07:9d:05:7b:d8:75:47:57:0f:6d:
                    b7:5a:1f:37:0e:37:98:d9:37:95:e0:59:36:79:df:
                    8b:2a:73:c8:88:4e:11:06:ca:ae:6c:db:bf:50:a8:
                    49:12:68:b9:c6:e4:e1:b2:c8:9b:81:9a:1d:5e:9a:
                    9b:d4:8f:93:22:ce:35:2a:80:e9:78:5a:38:ea:a7:
                    04:44:a4:f2:24:95:7f:9e:f9:5a:c5:b3:82:fb:8b:
                    2e:17:27:9d:63:60:89:03:9d:ef:e1:cc:a2:6e:1a:
                    cf:80:5f:52:c8:14:e0:d8:c5:f0:26:ba:11:9f:a6:
                    89:ed
                Exponent: 65537 (0x10001)
        X509v3 extensions:
            X509v3 Basic Constraints: critical
                CA:TRUE
            X509v3 Authority Key Identifier: 
                keyid:01:02:03

            X509v3 Subject Key Identifier: 
                04:03:02:01
            X509v3 Subject Alternative Name: 
                DNS:*.gov.us, DNS:gov.us
            X509v3 Key Usage: 
                Digital Signature, Certificate Sign, CRL Sign
    Signature Algorithm: sha256WithRSAEncryption
         99:45:b3:00:49:2f:e1:bd:9a:09:1d:0b:57:a0:fe:87:94:88:
         51:c4:13:7f:5d:74:d4:cb:54:b6:27:74:ba:be:ec:6d:d6:51:
         24:9d:8a:a9:f5:e6:94:eb:5d:61:7c:b5:a4:30:f3:c9:12:39:
         63:14:12:32:d4:bd:7b:79:5b:1e:e9:b9:55:50:06:06:24:ac:
         7c:9a:8b:ab:c2:8b:f5:b6:83:13:5d:cd:17:a5:f8:0a:66:7d:
         c2:c9:36:2a:2b:90:09:53:cb:44:a1:07:e7:78:f2:91:52:be:
         11:ed:1a:1a:1c:92:92:6d:21:4b:12:00:df:f9:e8:4f:96:f4:
         7f:02:c9:bf:27:38:25:60:00:2a:f2:40:67:20:42:11:91:73:
         b2:1a:02:4c:38:07:ea:99:12:9b:fe:9d:df:da:5f:57:b4:e4:
         e7:e7:07:72:30:88:e3:49:c2:22:ff:b2:a6:be:d0:0a:0b:48:
         57:25:fa:76:0c:29:a3:ed:b7:d8:5c:fc:06:4f:fc:ee:c4:b2:
         bf:01:05:8e:4f:7e:3f:8d:ff:32:a8:c2:01:80:55:4a:0d:80:
         ad:fd:14:bd:9b:bb:b8:e7:24:43:c0:bf:ca:67:92:7a:ba:23:
         ba:7d:e4:ff:b2:c2:e1:11:2a:14:e1:6a:80:4e:39:c3:c2:23:
         c1:22:04:0f
-----BEGIN CERTIFICATE-----
MIIDxzCCAq+gAwIBAgIFBDFmk+0wDQYJKoZIhvcNAQELBQAwUjELMAkGA1UEBhMC
VVMxFjAUBgNVBAoTDU1vdGhlciBOYXR1cmUxEzARBgNVBAsTCkV2ZXJ5dGhpbmcx
FjAUBgNVBAMTDU1vdGhlciBOYXR1cmUwHhcNMTYwNzA2MTQ0MTE4WhcNMTYwOTE4
MTQ0MTE4WjCBmTELMAkGA1UEBhMCVVMxCzAJBgNVBAgTAkZMMRQwEgYDVQQHEwtU
YWxsYWhhc3NlZTEcMBoGA1UECRMTMzIxMCBIb2xseSBNaWxsIFJ1bjEOMAwGA1UE
ERMFMzAwNjIxGDAWBgNVBAoTD0V4dHJlbWUgRGlzY29yZDEOMAwGA1UECxMFQ2hh
b3MxDzANBgNVBAMTBmdvdi51czCCASIwDQYJKoZIhvcNAQEBBQADggEPADCCAQoC
ggEBANH3AFOHGXAcdHOSZsCdnrbIq5nbgnCQTLwSaIHEXxBaiqmYDU2Jmu25p2Op
dXx8Wqihn5n6nltC3M06hHyY7cpFFkbIMM+YvqMBlUHu1/XQQrcth1SnqNA/hrWH
szhcrVvwq6ewbtqjOjexKIynuIADRkM8qE/A7nOrT1ciMq0YjJ42nI82T3TzUYIH
nQV72HVHVw9tt1ofNw43mNk3leBZNnnfiypzyIhOEQbKrmzbv1CoSRJoucbk4bLI
m4GaHV6am9SPkyLONSqA6XhaOOqnBESk8iSVf575WsWzgvuLLhcnnWNgiQOd7+HM
om4az4BfUsgU4NjF8Ca6EZ+mie0CAwEAAaNcMFowDwYDVR0TAQH/BAUwAwEB/zAO
BgNVHSMEBzAFgAMBAgMwDQYDVR0OBAYEBAQDAgEwGwYDVR0RBBQwEoIIKi5nb3Yu
dXOCBmdvdi51czALBgNVHQ8EBAMCAYYwDQYJKoZIhvcNAQELBQADggEBAJlFswBJ
L+G9mgkdC1eg/oeUiFHEE39ddNTLVLYndLq+7G3WUSSdiqn15pTrXWF8taQw88kS
OWMUEjLUvXt5Wx7puVVQBgYkrHyai6vCi/W2gxNdzRel+ApmfcLJNiorkAlTy0Sh
B+d48pFSvhHtGhockpJtIUsSAN/56E+W9H8Cyb8nOCVgACryQGcgQhGRc7IaAkw4
B+qZEpv+nd/aX1e05OfnB3IwiONJwiL/sqa+0AoLSFcl+nYMKaPtt9hc/AZP/O7E
sr8BBY5Pfj+N/zKowgGAVUoNgK39FL2bu7jnJEPAv8pnknq6I7p95P+ywuERKhTh
aoBOOcPCI8EiBA8=
-----END CERTIFICATE-----
